; Listing generated by Microsoft (R) Optimizing Compiler Version 19.43.34808.0 

	TITLE	C:\Marty 5.5\Src-Client\Client\EffectLib\Distribute\EffectData.obj
	.686P
	.XMM
	include listing.inc
	.model	flat

INCLUDELIB LIBCMT
INCLUDELIB OLDNAMES

PUBLIC	??_7?$CDynamicPool@VCEffectData@@@@6B@		; CDynamicPool<CEffectData>::`vftable'
PUBLIC	??_G?$CDynamicPool@VCEffectData@@@@UAEPAXI@Z	; CDynamicPool<CEffectData>::`scalar deleting destructor'
PUBLIC	??_R4?$CDynamicPool@VCEffectData@@@@6B@		; CDynamicPool<CEffectData>::`RTTI Complete Object Locator'
PUBLIC	??_R0?AV?$CDynamicPool@VCEffectData@@@@@8	; CDynamicPool<CEffectData> `RTTI Type Descriptor'
PUBLIC	??_R3?$CDynamicPool@VCEffectData@@@@8		; CDynamicPool<CEffectData>::`RTTI Class Hierarchy Descriptor'
PUBLIC	??_R2?$CDynamicPool@VCEffectData@@@@8		; CDynamicPool<CEffectData>::`RTTI Base Class Array'
PUBLIC	??_R1A@?0A@EA@?$CDynamicPool@VCEffectData@@@@8	; CDynamicPool<CEffectData>::`RTTI Base Class Descriptor at (0,-1,0,64)'
EXTRN	??_E?$CDynamicPool@VCEffectData@@@@UAEPAXI@Z:PROC ; CDynamicPool<CEffectData>::`vector deleting destructor'
EXTRN	??_7type_info@@6B@:QWORD			; type_info::`vftable'
;	COMDAT ??_R1A@?0A@EA@?$CDynamicPool@VCEffectData@@@@8
rdata$r	SEGMENT
??_R1A@?0A@EA@?$CDynamicPool@VCEffectData@@@@8 DD FLAT:??_R0?AV?$CDynamicPool@VCEffectData@@@@@8 ; CDynamicPool<CEffectData>::`RTTI Base Class Descriptor at (0,-1,0,64)'
	DD	00H
	DD	00H
	DD	0ffffffffH
	DD	00H
	DD	040H
	DD	FLAT:??_R3?$CDynamicPool@VCEffectData@@@@8
rdata$r	ENDS
;	COMDAT ??_R2?$CDynamicPool@VCEffectData@@@@8
rdata$r	SEGMENT
??_R2?$CDynamicPool@VCEffectData@@@@8 DD FLAT:??_R1A@?0A@EA@?$CDynamicPool@VCEffectData@@@@8 ; CDynamicPool<CEffectData>::`RTTI Base Class Array'
rdata$r	ENDS
;	COMDAT ??_R3?$CDynamicPool@VCEffectData@@@@8
rdata$r	SEGMENT
??_R3?$CDynamicPool@VCEffectData@@@@8 DD 00H		; CDynamicPool<CEffectData>::`RTTI Class Hierarchy Descriptor'
	DD	00H
	DD	01H
	DD	FLAT:??_R2?$CDynamicPool@VCEffectData@@@@8
rdata$r	ENDS
;	COMDAT ??_R0?AV?$CDynamicPool@VCEffectData@@@@@8
data$rs	SEGMENT
??_R0?AV?$CDynamicPool@VCEffectData@@@@@8 DD FLAT:??_7type_info@@6B@ ; CDynamicPool<CEffectData> `RTTI Type Descriptor'
	DD	00H
	DB	'.?AV?$CDynamicPool@VCEffectData@@@@', 00H
data$rs	ENDS
;	COMDAT ??_R4?$CDynamicPool@VCEffectData@@@@6B@
rdata$r	SEGMENT
??_R4?$CDynamicPool@VCEffectData@@@@6B@ DD 00H		; CDynamicPool<CEffectData>::`RTTI Complete Object Locator'
	DD	00H
	DD	00H
	DD	FLAT:??_R0?AV?$CDynamicPool@VCEffectData@@@@@8
	DD	FLAT:??_R3?$CDynamicPool@VCEffectData@@@@8
rdata$r	ENDS
CONST	SEGMENT
?_Fake_alloc@std@@3U_Fake_allocator@1@B	ORG $+1		; std::_Fake_alloc
CONST	ENDS
;	COMDAT ??_7?$CDynamicPool@VCEffectData@@@@6B@
CONST	SEGMENT
??_7?$CDynamicPool@VCEffectData@@@@6B@ DD FLAT:??_R4?$CDynamicPool@VCEffectData@@@@6B@ ; CDynamicPool<CEffectData>::`vftable'
	DD	FLAT:??_E?$CDynamicPool@VCEffectData@@@@UAEPAXI@Z
CONST	ENDS
PUBLIC	??0exception@std@@QAE@ABV01@@Z			; std::exception::exception
PUBLIC	??1exception@std@@UAE@XZ			; std::exception::~exception
PUBLIC	?what@exception@std@@UBEPBDXZ			; std::exception::what
PUBLIC	??_Gexception@std@@UAEPAXI@Z			; std::exception::`scalar deleting destructor'
PUBLIC	??0bad_alloc@std@@QAE@ABV01@@Z			; std::bad_alloc::bad_alloc
PUBLIC	??_Gbad_alloc@std@@UAEPAXI@Z			; std::bad_alloc::`scalar deleting destructor'
PUBLIC	??0bad_array_new_length@std@@QAE@XZ		; std::bad_array_new_length::bad_array_new_length
PUBLIC	??1bad_array_new_length@std@@UAE@XZ		; std::bad_array_new_length::~bad_array_new_length
PUBLIC	??0bad_array_new_length@std@@QAE@ABV01@@Z	; std::bad_array_new_length::bad_array_new_length
PUBLIC	??_Gbad_array_new_length@std@@UAEPAXI@Z		; std::bad_array_new_length::`scalar deleting destructor'
PUBLIC	?_Throw_bad_array_new_length@std@@YAXXZ		; std::_Throw_bad_array_new_length
PUBLIC	?_Xlen_string@std@@YAXXZ			; std::_Xlen_string
PUBLIC	?_Xran@?$_String_val@U?$_Simple_types@D@std@@@std@@SAXXZ ; std::_String_val<std::_Simple_types<char> >::_Xran
PUBLIC	??1?$basic_string@DU?$char_traits@D@std@@V?$allocator@D@2@@std@@QAE@XZ ; std::basic_string<char,std::char_traits<char>,std::allocator<char> >::~basic_string<char,std::char_traits<char>,std::allocator<char> >
PUBLIC	??4?$basic_string@DU?$char_traits@D@std@@V?$allocator@D@2@@std@@QAEAAV01@QBD@Z ; std::basic_string<char,std::char_traits<char>,std::allocator<char> >::operator=
PUBLIC	?append@?$basic_string@DU?$char_traits@D@std@@V?$allocator@D@2@@std@@QAEAAV12@QBDI@Z ; std::basic_string<char,std::char_traits<char>,std::allocator<char> >::append
PUBLIC	?compare@?$basic_string@DU?$char_traits@D@std@@V?$allocator@D@2@@std@@QBEHQBD@Z ; std::basic_string<char,std::char_traits<char>,std::allocator<char> >::compare
PUBLIC	?NoExtension@CFileNameHelper@@SA?AV?$basic_string@DU?$char_traits@D@std@@V?$allocator@D@2@@std@@AAV23@@Z ; CFileNameHelper::NoExtension
PUBLIC	??$_Construct@$00PBD@?$basic_string@DU?$char_traits@D@std@@V?$allocator@D@2@@std@@AAEXQBDI@Z ; std::basic_string<char,std::char_traits<char>,std::allocator<char> >::_Construct<1,char const *>
PUBLIC	??$_Find_last_vectorized@$$CBDD@std@@YAPBDQBD0D@Z ; std::_Find_last_vectorized<char const ,char>
PUBLIC	??$_Search_vectorized@$$CBD$$CBD@std@@YAPBDQBD00I@Z ; std::_Search_vectorized<char const ,char const >
PUBLIC	??$_Allocate_manually_vector_aligned@U_Default_allocate_traits@std@@@std@@YAPAXI@Z ; std::_Allocate_manually_vector_aligned<std::_Default_allocate_traits>
PUBLIC	??0CEffectData@@QAE@XZ				; CEffectData::CEffectData
PUBLIC	??1CEffectData@@UAE@XZ				; CEffectData::~CEffectData
PUBLIC	?Clear@CEffectData@@QAEXXZ			; CEffectData::Clear
PUBLIC	?LoadScript@CEffectData@@QAE_NPBD@Z		; CEffectData::LoadScript
PUBLIC	?LoadSoundScriptData@CEffectData@@QAE_NPBD@Z	; CEffectData::LoadSoundScriptData
PUBLIC	?GetParticleCount@CEffectData@@QAEKXZ		; CEffectData::GetParticleCount
PUBLIC	?GetParticlePointer@CEffectData@@QAEPAVCParticleSystemData@@K@Z ; CEffectData::GetParticlePointer
PUBLIC	?GetMeshCount@CEffectData@@QAEKXZ		; CEffectData::GetMeshCount
PUBLIC	?GetMeshPointer@CEffectData@@QAEPAVCEffectMeshScript@@K@Z ; CEffectData::GetMeshPointer
PUBLIC	?GetLightCount@CEffectData@@QAEKXZ		; CEffectData::GetLightCount
PUBLIC	?GetLightPointer@CEffectData@@QAEPAVCLightData@@K@Z ; CEffectData::GetLightPointer
PUBLIC	?GetSoundInstanceVector@CEffectData@@QAEPAV?$vector@USSoundInstance@NSound@@V?$allocator@USSoundInstance@NSound@@@std@@@std@@XZ ; CEffectData::GetSoundInstanceVector
PUBLIC	?GetBoundingSphereRadius@CEffectData@@QAEMXZ	; CEffectData::GetBoundingSphereRadius
PUBLIC	?GetBoundingSpherePosition@CEffectData@@QAE?AUD3DXVECTOR3@@XZ ; CEffectData::GetBoundingSpherePosition
PUBLIC	?GetFileName@CEffectData@@QBEPBDXZ		; CEffectData::GetFileName
PUBLIC	?__ClearParticleDataVector@CEffectData@@IAEXXZ	; CEffectData::__ClearParticleDataVector
PUBLIC	?__ClearLightDataVector@CEffectData@@IAEXXZ	; CEffectData::__ClearLightDataVector
PUBLIC	?__ClearMeshDataVector@CEffectData@@IAEXXZ	; CEffectData::__ClearMeshDataVector
PUBLIC	?AllocParticle@CEffectData@@MAEPAVCParticleSystemData@@XZ ; CEffectData::AllocParticle
PUBLIC	?AllocMesh@CEffectData@@MAEPAVCEffectMeshScript@@XZ ; CEffectData::AllocMesh
PUBLIC	?AllocLight@CEffectData@@MAEPAVCLightData@@XZ	; CEffectData::AllocLight
PUBLIC	?_Xlength@?$vector@PAVCParticleSystemData@@V?$allocator@PAVCParticleSystemData@@@std@@@std@@CAXXZ ; std::vector<CParticleSystemData *,std::allocator<CParticleSystemData *> >::_Xlength
PUBLIC	?_Xlength@?$vector@PAVCEffectMeshScript@@V?$allocator@PAVCEffectMeshScript@@@std@@@std@@CAXXZ ; std::vector<CEffectMeshScript *,std::allocator<CEffectMeshScript *> >::_Xlength
PUBLIC	?_Xlength@?$vector@PAVCLightData@@V?$allocator@PAVCLightData@@@std@@@std@@CAXXZ ; std::vector<CLightData *,std::allocator<CLightData *> >::_Xlength
PUBLIC	??1?$vector@USSoundInstance@NSound@@V?$allocator@USSoundInstance@NSound@@@std@@@std@@QAE@XZ ; std::vector<NSound::SSoundInstance,std::allocator<NSound::SSoundInstance> >::~vector<NSound::SSoundInstance,std::allocator<NSound::SSoundInstance> >
PUBLIC	?DestroySystem@CEffectData@@SAXXZ		; CEffectData::DestroySystem
PUBLIC	?New@CEffectData@@SAPAV1@XZ			; CEffectData::New
PUBLIC	?Delete@CEffectData@@SAXPAV1@@Z			; CEffectData::Delete
PUBLIC	??_GCEffectData@@UAEPAXI@Z			; CEffectData::`scalar deleting destructor'
PUBLIC	??1?$CDynamicPool@VCEffectData@@@@UAE@XZ	; CDynamicPool<CEffectData>::~CDynamicPool<CEffectData>
PUBLIC	?_Xlength@?$vector@PAVCEffectData@@V?$allocator@PAVCEffectData@@@std@@@std@@CAXXZ ; std::vector<CEffectData *,std::allocator<CEffectData *> >::_Xlength
PUBLIC	??1?$vector@USSoundData@NSound@@V?$allocator@USSoundData@NSound@@@std@@@std@@QAE@XZ ; std::vector<NSound::SSoundData,std::allocator<NSound::SSoundData> >::~vector<NSound::SSoundData,std::allocator<NSound::SSoundData> >
PUBLIC	??$_Emplace_reallocate@ABQAVCLightData@@@?$vector@PAVCLightData@@V?$allocator@PAVCLightData@@@std@@@std@@AAEPAPAVCLightData@@QAPAV2@ABQAV2@@Z ; std::vector<CLightData *,std::allocator<CLightData *> >::_Emplace_reallocate<CLightData * const &>
PUBLIC	??$_Emplace_reallocate@ABQAVCEffectMeshScript@@@?$vector@PAVCEffectMeshScript@@V?$allocator@PAVCEffectMeshScript@@@std@@@std@@AAEPAPAVCEffectMeshScript@@QAPAV2@ABQAV2@@Z ; std::vector<CEffectMeshScript *,std::allocator<CEffectMeshScript *> >::_Emplace_reallocate<CEffectMeshScript * const &>
PUBLIC	??$_Emplace_reallocate@ABQAVCParticleSystemData@@@?$vector@PAVCParticleSystemData@@V?$allocator@PAVCParticleSystemData@@@std@@@std@@AAEPAPAVCParticleSystemData@@QAPAV2@ABQAV2@@Z ; std::vector<CParticleSystemData *,std::allocator<CParticleSystemData *> >::_Emplace_reallocate<CParticleSystemData * const &>
PUBLIC	??$_Emplace_reallocate@ABQAVCEffectData@@@?$vector@PAVCEffectData@@V?$allocator@PAVCEffectData@@@std@@@std@@AAEPAPAVCEffectData@@QAPAV2@ABQAV2@@Z ; std::vector<CEffectData *,std::allocator<CEffectData *> >::_Emplace_reallocate<CEffectData * const &>
PUBLIC	??$_Copy_memmove@PAPAVCLightData@@PAPAV1@@std@@YAPAPAVCLightData@@PAPAV1@00@Z ; std::_Copy_memmove<CLightData * *,CLightData * *>
PUBLIC	??$_Copy_memmove@PAPAVCEffectMeshScript@@PAPAV1@@std@@YAPAPAVCEffectMeshScript@@PAPAV1@00@Z ; std::_Copy_memmove<CEffectMeshScript * *,CEffectMeshScript * *>
PUBLIC	??$_Copy_memmove@PAPAVCParticleSystemData@@PAPAV1@@std@@YAPAPAVCParticleSystemData@@PAPAV1@00@Z ; std::_Copy_memmove<CParticleSystemData * *,CParticleSystemData * *>
PUBLIC	??$_Copy_memmove@PAPAVCEffectData@@PAPAV1@@std@@YAPAPAVCEffectData@@PAPAV1@00@Z ; std::_Copy_memmove<CEffectData * *,CEffectData * *>
PUBLIC	??$_Copy_memmove_tail@PAPAVCLightData@@@std@@YAPAPAVCLightData@@QBDQAPAV1@II@Z ; std::_Copy_memmove_tail<CLightData * *>
PUBLIC	??$_Copy_memmove_tail@PAPAVCEffectMeshScript@@@std@@YAPAPAVCEffectMeshScript@@QBDQAPAV1@II@Z ; std::_Copy_memmove_tail<CEffectMeshScript * *>
PUBLIC	??$_Copy_memmove_tail@PAPAVCParticleSystemData@@@std@@YAPAPAVCParticleSystemData@@QBDQAPAV1@II@Z ; std::_Copy_memmove_tail<CParticleSystemData * *>
PUBLIC	??$_Copy_memmove_tail@PAPAVCEffectData@@@std@@YAPAPAVCEffectData@@QBDQAPAV1@II@Z ; std::_Copy_memmove_tail<CEffectData * *>
PUBLIC	??_7exception@std@@6B@				; std::exception::`vftable'
PUBLIC	??_C@_0BC@EOODALEL@Unknown?5exception@		; `string'
PUBLIC	??_7bad_alloc@std@@6B@				; std::bad_alloc::`vftable'
PUBLIC	??_7bad_array_new_length@std@@6B@		; std::bad_array_new_length::`vftable'
PUBLIC	??_C@_0BF@KINCDENJ@bad?5array?5new?5length@	; `string'
PUBLIC	??_R0?AVexception@std@@@8			; std::exception `RTTI Type Descriptor'
PUBLIC	__CT??_R0?AVexception@std@@@8??0exception@std@@QAE@ABV01@@Z12
PUBLIC	__TI3?AVbad_array_new_length@std@@
PUBLIC	__CTA3?AVbad_array_new_length@std@@
PUBLIC	??_R0?AVbad_array_new_length@std@@@8		; std::bad_array_new_length `RTTI Type Descriptor'
PUBLIC	__CT??_R0?AVbad_array_new_length@std@@@8??0bad_array_new_length@std@@QAE@ABV01@@Z12
PUBLIC	??_R0?AVbad_alloc@std@@@8			; std::bad_alloc `RTTI Type Descriptor'
PUBLIC	__CT??_R0?AVbad_alloc@std@@@8??0bad_alloc@std@@QAE@ABV01@@Z12
PUBLIC	??_C@_0BA@JFNIOLAK@string?5too?5long@		; `string'
PUBLIC	??_C@_0BI@CFPLBAOH@invalid?5string?5position@	; `string'
PUBLIC	??_R4exception@std@@6B@				; std::exception::`RTTI Complete Object Locator'
PUBLIC	??_R3exception@std@@8				; std::exception::`RTTI Class Hierarchy Descriptor'
PUBLIC	??_R2exception@std@@8				; std::exception::`RTTI Base Class Array'
PUBLIC	??_R1A@?0A@EA@exception@std@@8			; std::exception::`RTTI Base Class Descriptor at (0,-1,0,64)'
PUBLIC	??_R4bad_array_new_length@std@@6B@		; std::bad_array_new_length::`RTTI Complete Object Locator'
PUBLIC	??_R3bad_array_new_length@std@@8		; std::bad_array_new_length::`RTTI Class Hierarchy Descriptor'
PUBLIC	??_R2bad_array_new_length@std@@8		; std::bad_array_new_length::`RTTI Base Class Array'
PUBLIC	??_R1A@?0A@EA@bad_array_new_length@std@@8	; std::bad_array_new_length::`RTTI Base Class Descriptor at (0,-1,0,64)'
PUBLIC	??_R1A@?0A@EA@bad_alloc@std@@8			; std::bad_alloc::`RTTI Base Class Descriptor at (0,-1,0,64)'
PUBLIC	??_R3bad_alloc@std@@8				; std::bad_alloc::`RTTI Class Hierarchy Descriptor'
PUBLIC	??_R2bad_alloc@std@@8				; std::bad_alloc::`RTTI Base Class Array'
PUBLIC	??_R4bad_alloc@std@@6B@				; std::bad_alloc::`RTTI Complete Object Locator'
PUBLIC	?ms_kPool@CEffectData@@2V?$CDynamicPool@VCEffectData@@@@A ; CEffectData::ms_kPool
PUBLIC	??_7CEffectData@@6B@				; CEffectData::`vftable'
PUBLIC	??_C@_0BF@MLNDGKC@boundingsphereradius@		; `string'
PUBLIC	??_C@_0BH@HALPILME@boundingsphereposition@	; `string'
PUBLIC	??_C@_07JJIOMLCE@daytype@			; `string'
PUBLIC	??_C@_03NAOMOOGD@DAY@				; `string'
PUBLIC	??_C@_05IIBBCLNE@NIGHT@				; `string'
PUBLIC	??_C@_04KPBEILIJ@mesh@				; `string'
PUBLIC	??_C@_08PKKGOGAD@particle@			; `string'
PUBLIC	??_C@_05OEPGNJB@light@				; `string'
PUBLIC	??_C@_0O@GCFJLOM@d?3?1ymir?5work?1@		; `string'
PUBLIC	??_C@_06PBLIODKG@sound?1@			; `string'
PUBLIC	??_C@_04NMMFEKGF@?4mss@				; `string'
PUBLIC	??_C@_0BA@FOIKENOD@vector?5too?5long@		; `string'
PUBLIC	??_R4CEffectData@@6B@				; CEffectData::`RTTI Complete Object Locator'
PUBLIC	??_R0?AVCEffectData@@@8				; CEffectData `RTTI Type Descriptor'
PUBLIC	??_R3CEffectData@@8				; CEffectData::`RTTI Class Hierarchy Descriptor'
PUBLIC	??_R2CEffectData@@8				; CEffectData::`RTTI Base Class Array'
PUBLIC	??_R1A@?0A@EA@CEffectData@@8			; CEffectData::`RTTI Base Class Descriptor at (0,-1,0,64)'
EXTRN	??2@YAPAXI@Z:PROC				; operator new
EXTRN	??3@YAXPAXI@Z:PROC				; operator delete
EXTRN	_atexit:PROC
EXTRN	__invalid_parameter_noinfo_noreturn:PROC
EXTRN	_tolower:PROC
EXTRN	___std_find_last_trivial_1@12:PROC
EXTRN	___std_search_1@16:PROC
EXTRN	?_Xlength_error@std@@YAXPBD@Z:PROC		; std::_Xlength_error
EXTRN	?_Xout_of_range@std@@YAXPBD@Z:PROC		; std::_Xout_of_range
EXTRN	___std_exception_copy:PROC
EXTRN	___std_exception_destroy:PROC
EXTRN	??_Eexception@std@@UAEPAXI@Z:PROC		; std::exception::`vector deleting destructor'
EXTRN	??_Ebad_alloc@std@@UAEPAXI@Z:PROC		; std::bad_alloc::`vector deleting destructor'
EXTRN	??_Ebad_array_new_length@std@@UAEPAXI@Z:PROC	; std::bad_array_new_length::`vector deleting destructor'
EXTRN	??0CTextFileLoader@@QAE@XZ:PROC			; CTextFileLoader::CTextFileLoader
EXTRN	??1CTextFileLoader@@UAE@XZ:PROC			; CTextFileLoader::~CTextFileLoader
EXTRN	?Load@CTextFileLoader@@QAE_NPBD@Z:PROC		; CTextFileLoader::Load
EXTRN	?SetTop@CTextFileLoader@@QAEXXZ:PROC		; CTextFileLoader::SetTop
EXTRN	?GetChildNodeCount@CTextFileLoader@@QAEKXZ:PROC	; CTextFileLoader::GetChildNodeCount
EXTRN	?SetChildNode@CTextFileLoader@@QAEHK@Z:PROC	; CTextFileLoader::SetChildNode
EXTRN	?SetParentNode@CTextFileLoader@@QAEHXZ:PROC	; CTextFileLoader::SetParentNode
EXTRN	?GetCurrentNodeName@CTextFileLoader@@QAEHPAV?$basic_string@DU?$char_traits@D@std@@V?$allocator@D@2@@std@@@Z:PROC ; CTextFileLoader::GetCurrentNodeName
EXTRN	?GetTokenFloat@CTextFileLoader@@QAEHABV?$basic_string@DU?$char_traits@D@std@@V?$allocator@D@2@@std@@PAM@Z:PROC ; CTextFileLoader::GetTokenFloat
EXTRN	?GetTokenVector3@CTextFileLoader@@QAEHABV?$basic_string@DU?$char_traits@D@std@@V?$allocator@D@2@@std@@PAUD3DXVECTOR3@@@Z:PROC ; CTextFileLoader::GetTokenVector3
EXTRN	?GetTokenString@CTextFileLoader@@QAEHABV?$basic_string@DU?$char_traits@D@std@@V?$allocator@D@2@@std@@PAV23@@Z:PROC ; CTextFileLoader::GetTokenString
EXTRN	?LoadSoundInformationPiece@NSound@@YA_NPBDAAV?$vector@USSoundData@NSound@@V?$allocator@USSoundData@NSound@@@std@@@std@@0@Z:PROC ; NSound::LoadSoundInformationPiece
EXTRN	?DataToInstance@NSound@@YAXABV?$vector@USSoundData@NSound@@V?$allocator@USSoundData@NSound@@@std@@@std@@PAV?$vector@USSoundInstance@NSound@@V?$allocator@USSoundInstance@NSound@@@std@@@3@@Z:PROC ; NSound::DataToInstance
EXTRN	?Clear@CEffectElementBase@@QAEXXZ:PROC		; CEffectElementBase::Clear
EXTRN	?LoadScript@CEffectElementBase@@QAEHAAVCTextFileLoader@@@Z:PROC ; CEffectElementBase::LoadScript
EXTRN	?DestroySystem@CParticleSystemData@@SAXXZ:PROC	; CParticleSystemData::DestroySystem
EXTRN	?New@CParticleSystemData@@SAPAV1@XZ:PROC	; CParticleSystemData::New
EXTRN	?Delete@CParticleSystemData@@SAXPAV1@@Z:PROC	; CParticleSystemData::Delete
EXTRN	?DestroySystem@CEffectMeshScript@@SAXXZ:PROC	; CEffectMeshScript::DestroySystem
EXTRN	?New@CEffectMeshScript@@SAPAV1@XZ:PROC		; CEffectMeshScript::New
EXTRN	?Delete@CEffectMeshScript@@SAXPAV1@@Z:PROC	; CEffectMeshScript::Delete
EXTRN	?DestroySystem@CLightData@@SAXXZ:PROC		; CLightData::DestroySystem
EXTRN	?New@CLightData@@SAPAV1@XZ:PROC			; CLightData::New
EXTRN	?Delete@CLightData@@SAXPAV1@@Z:PROC		; CLightData::Delete
EXTRN	??_ECEffectData@@UAEPAXI@Z:PROC			; CEffectData::`vector deleting destructor'
EXTRN	@__security_check_cookie@4:PROC
EXTRN	__CxxThrowException@8:PROC
EXTRN	___CxxFrameHandler3:PROC
EXTRN	_memchr:PROC
EXTRN	_memcpy:PROC
EXTRN	_memmove:PROC
EXTRN	___security_cookie:DWORD
EXTRN	__fltused:DWORD
CRT$XCU	SEGMENT
??ms_kPool$initializer$@CEffectData@@2P6AXXZA@@3P6AXXZA DD FLAT:??__E?ms_kPool@CEffectData@@2V?$CDynamicPool@VCEffectData@@@@A@@YAXXZ ; ??ms_kPool$initializer$@CEffectData@@2P6AXXZA@@3P6AXXZA
CRT$XCU	ENDS
;	COMDAT ??_R1A@?0A@EA@CEffectData@@8
rdata$r	SEGMENT
??_R1A@?0A@EA@CEffectData@@8 DD FLAT:??_R0?AVCEffectData@@@8 ; CEffectData::`RTTI Base Class Descriptor at (0,-1,0,64)'
	DD	00H
	DD	00H
	DD	0ffffffffH
	DD	00H
	DD	040H
	DD	FLAT:??_R3CEffectData@@8
rdata$r	ENDS
;	COMDAT ??_R2CEffectData@@8
rdata$r	SEGMENT
??_R2CEffectData@@8 DD FLAT:??_R1A@?0A@EA@CEffectData@@8 ; CEffectData::`RTTI Base Class Array'
rdata$r	ENDS
;	COMDAT ??_R3CEffectData@@8
rdata$r	SEGMENT
??_R3CEffectData@@8 DD 00H				; CEffectData::`RTTI Class Hierarchy Descriptor'
	DD	00H
	DD	01H
	DD	FLAT:??_R2CEffectData@@8
rdata$r	ENDS
;	COMDAT ??_R0?AVCEffectData@@@8
data$rs	SEGMENT
??_R0?AVCEffectData@@@8 DD FLAT:??_7type_info@@6B@	; CEffectData `RTTI Type Descriptor'
	DD	00H
	DB	'.?AVCEffectData@@', 00H
data$rs	ENDS
;	COMDAT ??_R4CEffectData@@6B@
rdata$r	SEGMENT
??_R4CEffectData@@6B@ DD 00H				; CEffectData::`RTTI Complete Object Locator'
	DD	00H
	DD	00H
	DD	FLAT:??_R0?AVCEffectData@@@8
	DD	FLAT:??_R3CEffectData@@8
rdata$r	ENDS
;	COMDAT ??_C@_0BA@FOIKENOD@vector?5too?5long@
CONST	SEGMENT
??_C@_0BA@FOIKENOD@vector?5too?5long@ DB 'vector too long', 00H ; `string'
CONST	ENDS
;	COMDAT ??_C@_04NMMFEKGF@?4mss@
CONST	SEGMENT
??_C@_04NMMFEKGF@?4mss@ DB '.mss', 00H			; `string'
CONST	ENDS
;	COMDAT ??_C@_06PBLIODKG@sound?1@
CONST	SEGMENT
??_C@_06PBLIODKG@sound?1@ DB 'sound/', 00H		; `string'
CONST	ENDS
;	COMDAT ??_C@_0O@GCFJLOM@d?3?1ymir?5work?1@
CONST	SEGMENT
??_C@_0O@GCFJLOM@d?3?1ymir?5work?1@ DB 'd:/ymir work/', 00H ; `string'
CONST	ENDS
;	COMDAT ??_C@_05OEPGNJB@light@
CONST	SEGMENT
??_C@_05OEPGNJB@light@ DB 'light', 00H			; `string'
CONST	ENDS
;	COMDAT ??_C@_08PKKGOGAD@particle@
CONST	SEGMENT
??_C@_08PKKGOGAD@particle@ DB 'particle', 00H		; `string'
CONST	ENDS
;	COMDAT ??_C@_04KPBEILIJ@mesh@
CONST	SEGMENT
??_C@_04KPBEILIJ@mesh@ DB 'mesh', 00H			; `string'
CONST	ENDS
;	COMDAT ??_C@_05IIBBCLNE@NIGHT@
CONST	SEGMENT
??_C@_05IIBBCLNE@NIGHT@ DB 'NIGHT', 00H			; `string'
CONST	ENDS
;	COMDAT ??_C@_03NAOMOOGD@DAY@
CONST	SEGMENT
??_C@_03NAOMOOGD@DAY@ DB 'DAY', 00H			; `string'
CONST	ENDS
;	COMDAT ??_C@_07JJIOMLCE@daytype@
CONST	SEGMENT
??_C@_07JJIOMLCE@daytype@ DB 'daytype', 00H		; `string'
CONST	ENDS
;	COMDAT ??_C@_0BH@HALPILME@boundingsphereposition@
CONST	SEGMENT
??_C@_0BH@HALPILME@boundingsphereposition@ DB 'boundingsphereposition', 00H ; `string'
CONST	ENDS
;	COMDAT ??_C@_0BF@MLNDGKC@boundingsphereradius@
CONST	SEGMENT
??_C@_0BF@MLNDGKC@boundingsphereradius@ DB 'boundingsphereradius', 00H ; `string'
CONST	ENDS
;	COMDAT ??_7CEffectData@@6B@
CONST	SEGMENT
??_7CEffectData@@6B@ DD FLAT:??_R4CEffectData@@6B@	; CEffectData::`vftable'
	DD	FLAT:??_ECEffectData@@UAEPAXI@Z
	DD	FLAT:?AllocParticle@CEffectData@@MAEPAVCParticleSystemData@@XZ
	DD	FLAT:?AllocMesh@CEffectData@@MAEPAVCEffectMeshScript@@XZ
	DD	FLAT:?AllocLight@CEffectData@@MAEPAVCLightData@@XZ
CONST	ENDS
_DATA	SEGMENT
?ms_kPool@CEffectData@@2V?$CDynamicPool@VCEffectData@@@@A DD FLAT:??_7?$CDynamicPool@VCEffectData@@@@6B@ ; CEffectData::ms_kPool
	DD	00H
	DD	00H
	DD	00H
	DD	00H
	DD	00H
	DD	00H
	DD	00H
	DD	00H
_DATA	ENDS
;	COMDAT ??_R4bad_alloc@std@@6B@
rdata$r	SEGMENT
??_R4bad_alloc@std@@6B@ DD 00H				; std::bad_alloc::`RTTI Complete Object Locator'
	DD	00H
	DD	00H
	DD	FLAT:??_R0?AVbad_alloc@std@@@8
	DD	FLAT:??_R3bad_alloc@std@@8
rdata$r	ENDS
;	COMDAT ??_R2bad_alloc@std@@8
rdata$r	SEGMENT
??_R2bad_alloc@std@@8 DD FLAT:??_R1A@?0A@EA@bad_alloc@std@@8 ; std::bad_alloc::`RTTI Base Class Array'
	DD	FLAT:??_R1A@?0A@EA@exception@std@@8
rdata$r	ENDS
;	COMDAT ??_R3bad_alloc@std@@8
rdata$r	SEGMENT
??_R3bad_alloc@std@@8 DD 00H				; std::bad_alloc::`RTTI Class Hierarchy Descriptor'
	DD	00H
	DD	02H
	DD	FLAT:??_R2bad_alloc@std@@8
rdata$r	ENDS
;	COMDAT ??_R1A@?0A@EA@bad_alloc@std@@8
rdata$r	SEGMENT
??_R1A@?0A@EA@bad_alloc@std@@8 DD FLAT:??_R0?AVbad_alloc@std@@@8 ; std::bad_alloc::`RTTI Base Class Descriptor at (0,-1,0,64)'
	DD	01H
	DD	00H
	DD	0ffffffffH
	DD	00H
	DD	040H
	DD	FLAT:??_R3bad_alloc@std@@8
rdata$r	ENDS
;	COMDAT ??_R1A@?0A@EA@bad_array_new_length@std@@8
rdata$r	SEGMENT
??_R1A@?0A@EA@bad_array_new_length@std@@8 DD FLAT:??_R0?AVbad_array_new_length@std@@@8 ; std::bad_array_new_length::`RTTI Base Class Descriptor at (0,-1,0,64)'
	DD	02H
	DD	00H
	DD	0ffffffffH
	DD	00H
	DD	040H
	DD	FLAT:??_R3bad_array_new_length@std@@8
rdata$r	ENDS
;	COMDAT ??_R2bad_array_new_length@std@@8
rdata$r	SEGMENT
??_R2bad_array_new_length@std@@8 DD FLAT:??_R1A@?0A@EA@bad_array_new_length@std@@8 ; std::bad_array_new_length::`RTTI Base Class Array'
	DD	FLAT:??_R1A@?0A@EA@bad_alloc@std@@8
	DD	FLAT:??_R1A@?0A@EA@exception@std@@8
rdata$r	ENDS
;	COMDAT ??_R3bad_array_new_length@std@@8
rdata$r	SEGMENT
??_R3bad_array_new_length@std@@8 DD 00H			; std::bad_array_new_length::`RTTI Class Hierarchy Descriptor'
	DD	00H
	DD	03H
	DD	FLAT:??_R2bad_array_new_length@std@@8
rdata$r	ENDS
;	COMDAT ??_R4bad_array_new_length@std@@6B@
rdata$r	SEGMENT
??_R4bad_array_new_length@std@@6B@ DD 00H		; std::bad_array_new_length::`RTTI Complete Object Locator'
	DD	00H
	DD	00H
	DD	FLAT:??_R0?AVbad_array_new_length@std@@@8
	DD	FLAT:??_R3bad_array_new_length@std@@8
rdata$r	ENDS
;	COMDAT ??_R1A@?0A@EA@exception@std@@8
rdata$r	SEGMENT
??_R1A@?0A@EA@exception@std@@8 DD FLAT:??_R0?AVexception@std@@@8 ; std::exception::`RTTI Base Class Descriptor at (0,-1,0,64)'
	DD	00H
	DD	00H
	DD	0ffffffffH
	DD	00H
	DD	040H
	DD	FLAT:??_R3exception@std@@8
rdata$r	ENDS
;	COMDAT ??_R2exception@std@@8
rdata$r	SEGMENT
??_R2exception@std@@8 DD FLAT:??_R1A@?0A@EA@exception@std@@8 ; std::exception::`RTTI Base Class Array'
rdata$r	ENDS
;	COMDAT ??_R3exception@std@@8
rdata$r	SEGMENT
??_R3exception@std@@8 DD 00H				; std::exception::`RTTI Class Hierarchy Descriptor'
	DD	00H
	DD	01H
	DD	FLAT:??_R2exception@std@@8
rdata$r	ENDS
;	COMDAT ??_R4exception@std@@6B@
rdata$r	SEGMENT
??_R4exception@std@@6B@ DD 00H				; std::exception::`RTTI Complete Object Locator'
	DD	00H
	DD	00H
	DD	FLAT:??_R0?AVexception@std@@@8
	DD	FLAT:??_R3exception@std@@8
rdata$r	ENDS
;	COMDAT ??_C@_0BI@CFPLBAOH@invalid?5string?5position@
CONST	SEGMENT
??_C@_0BI@CFPLBAOH@invalid?5string?5position@ DB 'invalid string position'
	DB	00H						; `string'
CONST	ENDS
;	COMDAT ??_C@_0BA@JFNIOLAK@string?5too?5long@
CONST	SEGMENT
??_C@_0BA@JFNIOLAK@string?5too?5long@ DB 'string too long', 00H ; `string'
CONST	ENDS
;	COMDAT __CT??_R0?AVbad_alloc@std@@@8??0bad_alloc@std@@QAE@ABV01@@Z12
xdata$x	SEGMENT
__CT??_R0?AVbad_alloc@std@@@8??0bad_alloc@std@@QAE@ABV01@@Z12 DD 010H
	DD	FLAT:??_R0?AVbad_alloc@std@@@8
	DD	00H
	DD	0ffffffffH
	ORG $+4
	DD	0cH
	DD	FLAT:??0bad_alloc@std@@QAE@ABV01@@Z
xdata$x	ENDS
;	COMDAT ??_R0?AVbad_alloc@std@@@8
data$r	SEGMENT
??_R0?AVbad_alloc@std@@@8 DD FLAT:??_7type_info@@6B@	; std::bad_alloc `RTTI Type Descriptor'
	DD	00H
	DB	'.?AVbad_alloc@std@@', 00H
data$r	ENDS
;	COMDAT __CT??_R0?AVbad_array_new_length@std@@@8??0bad_array_new_length@std@@QAE@ABV01@@Z12
xdata$x	SEGMENT
__CT??_R0?AVbad_array_new_length@std@@@8??0bad_array_new_length@std@@QAE@ABV01@@Z12 DD 00H
	DD	FLAT:??_R0?AVbad_array_new_length@std@@@8
	DD	00H
	DD	0ffffffffH
	ORG $+4
	DD	0cH
	DD	FLAT:??0bad_array_new_length@std@@QAE@ABV01@@Z
xdata$x	ENDS
;	COMDAT ??_R0?AVbad_array_new_length@std@@@8
data$r	SEGMENT
??_R0?AVbad_array_new_length@std@@@8 DD FLAT:??_7type_info@@6B@ ; std::bad_array_new_length `RTTI Type Descriptor'
	DD	00H
	DB	'.?AVbad_array_new_length@std@@', 00H
data$r	ENDS
;	COMDAT __CTA3?AVbad_array_new_length@std@@
xdata$x	SEGMENT
__CTA3?AVbad_array_new_length@std@@ DD 03H
	DD	FLAT:__CT??_R0?AVbad_array_new_length@std@@@8??0bad_array_new_length@std@@QAE@ABV01@@Z12
	DD	FLAT:__CT??_R0?AVbad_alloc@std@@@8??0bad_alloc@std@@QAE@ABV01@@Z12
	DD	FLAT:__CT??_R0?AVexception@std@@@8??0exception@std@@QAE@ABV01@@Z12
xdata$x	ENDS
;	COMDAT __TI3?AVbad_array_new_length@std@@
xdata$x	SEGMENT
__TI3?AVbad_array_new_length@std@@ DD 00H
	DD	FLAT:??1bad_array_new_length@std@@UAE@XZ
	DD	00H
	DD	FLAT:__CTA3?AVbad_array_new_length@std@@
xdata$x	ENDS
;	COMDAT __CT??_R0?AVexception@std@@@8??0exception@std@@QAE@ABV01@@Z12
xdata$x	SEGMENT
__CT??_R0?AVexception@std@@@8??0exception@std@@QAE@ABV01@@Z12 DD 00H
	DD	FLAT:??_R0?AVexception@std@@@8
	DD	00H
	DD	0ffffffffH
	ORG $+4
	DD	0cH
	DD	FLAT:??0exception@std@@QAE@ABV01@@Z
xdata$x	ENDS
;	COMDAT ??_R0?AVexception@std@@@8
data$r	SEGMENT
??_R0?AVexception@std@@@8 DD FLAT:??_7type_info@@6B@	; std::exception `RTTI Type Descriptor'
	DD	00H
	DB	'.?AVexception@std@@', 00H
data$r	ENDS
;	COMDAT ??_C@_0BF@KINCDENJ@bad?5array?5new?5length@
CONST	SEGMENT
??_C@_0BF@KINCDENJ@bad?5array?5new?5length@ DB 'bad array new length', 00H ; `string'
CONST	ENDS
;	COMDAT ??_7bad_array_new_length@std@@6B@
CONST	SEGMENT
??_7bad_array_new_length@std@@6B@ DD FLAT:??_R4bad_array_new_length@std@@6B@ ; std::bad_array_new_length::`vftable'
	DD	FLAT:??_Ebad_array_new_length@std@@UAEPAXI@Z
	DD	FLAT:?what@exception@std@@UBEPBDXZ
CONST	ENDS
;	COMDAT ??_7bad_alloc@std@@6B@
CONST	SEGMENT
??_7bad_alloc@std@@6B@ DD FLAT:??_R4bad_alloc@std@@6B@	; std::bad_alloc::`vftable'
	DD	FLAT:??_Ebad_alloc@std@@UAEPAXI@Z
	DD	FLAT:?what@exception@std@@UBEPBDXZ
CONST	ENDS
;	COMDAT ??_C@_0BC@EOODALEL@Unknown?5exception@
CONST	SEGMENT
??_C@_0BC@EOODALEL@Unknown?5exception@ DB 'Unknown exception', 00H ; `string'
CONST	ENDS
;	COMDAT ??_7exception@std@@6B@
CONST	SEGMENT
??_7exception@std@@6B@ DD FLAT:??_R4exception@std@@6B@	; std::exception::`vftable'
	DD	FLAT:??_Eexception@std@@UAEPAXI@Z
	DD	FLAT:?what@exception@std@@UBEPBDXZ
CONST	ENDS
;	COMDAT xdata$x
xdata$x	SEGMENT
__unwindtable$?LoadSoundScriptData@CEffectData@@QAE_NPBD@Z DD 0ffffffffH
	DD	FLAT:__unwindfunclet$?LoadSoundScriptData@CEffectData@@QAE_NPBD@Z$0
__ehfuncinfo$?LoadSoundScriptData@CEffectData@@QAE_NPBD@Z DD 019930522H
	DD	01H
	DD	FLAT:__unwindtable$?LoadSoundScriptData@CEffectData@@QAE_NPBD@Z
	DD	2 DUP(00H)
	DD	2 DUP(00H)
	DD	00H
	DD	01H
xdata$x	ENDS
;	COMDAT xdata$x
xdata$x	SEGMENT
__ehfuncinfo$?LoadScript@CEffectData@@QAE_NPBD@Z DD 019930522H
	DD	09H
	DD	FLAT:__unwindtable$?LoadScript@CEffectData@@QAE_NPBD@Z
	DD	2 DUP(00H)
	DD	2 DUP(00H)
	DD	00H
	DD	01H
__unwindtable$?LoadScript@CEffectData@@QAE_NPBD@Z DD 0ffffffffH
	DD	FLAT:__unwindfunclet$?LoadScript@CEffectData@@QAE_NPBD@Z$0
	DD	00H
	DD	FLAT:__unwindfunclet$?LoadScript@CEffectData@@QAE_NPBD@Z$1
	DD	00H
	DD	FLAT:__unwindfunclet$?LoadScript@CEffectData@@QAE_NPBD@Z$2
	DD	00H
	DD	FLAT:__unwindfunclet$?LoadScript@CEffectData@@QAE_NPBD@Z$3
	DD	03H
	DD	FLAT:__unwindfunclet$?LoadScript@CEffectData@@QAE_NPBD@Z$4
	DD	03H
	DD	FLAT:__unwindfunclet$?LoadScript@CEffectData@@QAE_NPBD@Z$5
	DD	03H
	DD	FLAT:__unwindfunclet$?LoadScript@CEffectData@@QAE_NPBD@Z$6
	DD	06H
	DD	FLAT:__unwindfunclet$?LoadScript@CEffectData@@QAE_NPBD@Z$7
	DD	07H
	DD	FLAT:__unwindfunclet$?LoadScript@CEffectData@@QAE_NPBD@Z$8
xdata$x	ENDS
; Function compile flags: /Ogtp
; File D:\Program Files\Microsoft Visual Studio\2022\Community\VC\Tools\MSVC\14.43.34808\include\xutility
;	COMDAT ??$_Copy_memmove_tail@PAPAVCEffectData@@@std@@YAPAPAVCEffectData@@QBDQAPAV1@II@Z
_TEXT	SEGMENT
__First_ch$ = 8						; size = 4
__Dest$ = 12						; size = 4
__Byte_count$ = 16					; size = 4
__Object_count$ = 20					; size = 4
??$_Copy_memmove_tail@PAPAVCEffectData@@@std@@YAPAPAVCEffectData@@QBDQAPAV1@II@Z PROC ; std::_Copy_memmove_tail<CEffectData * *>, COMDAT

; 4763 :     const char* const _First_ch, const _OutCtgIt _Dest, const size_t _Byte_count, const size_t _Object_count) {

  00000	55		 push	 ebp
  00001	8b ec		 mov	 ebp, esp
  00003	56		 push	 esi

; 4764 :     _STL_INTERNAL_CHECK(_Byte_count == _Object_count * sizeof(*_Dest));
; 4765 :     const auto _Dest_ptr = _STD _To_address(_Dest);
; 4766 :     const auto _Dest_ch  = const_cast<char*>(reinterpret_cast<const volatile char*>(_Dest_ptr));
; 4767 :     _CSTD memmove(_Dest_ch, _First_ch, _Byte_count);

  00004	8b 75 0c	 mov	 esi, DWORD PTR __Dest$[ebp]
  00007	57		 push	 edi
  00008	8b 7d 10	 mov	 edi, DWORD PTR __Byte_count$[ebp]
  0000b	57		 push	 edi
  0000c	ff 75 08	 push	 DWORD PTR __First_ch$[ebp]
  0000f	56		 push	 esi
  00010	e8 00 00 00 00	 call	 _memmove
  00015	83 c4 0c	 add	 esp, 12			; 0000000cH

; 4768 :     if constexpr (is_pointer_v<_OutCtgIt>) {
; 4769 :         (void) _Object_count;
; 4770 :         // CodeQL [SM02986] This cast is correct: we're bypassing pointer arithmetic for performance.
; 4771 :         return reinterpret_cast<_OutCtgIt>(_Dest_ch + _Byte_count);

  00018	8d 04 3e	 lea	 eax, DWORD PTR [esi+edi]
  0001b	5f		 pop	 edi
  0001c	5e		 pop	 esi

; 4772 :     } else {
; 4773 :         return _Dest + static_cast<_Iter_diff_t<_OutCtgIt>>(_Object_count);
; 4774 :     }
; 4775 : }

  0001d	5d		 pop	 ebp
  0001e	c3		 ret	 0
??$_Copy_memmove_tail@PAPAVCEffectData@@@std@@YAPAPAVCEffectData@@QBDQAPAV1@II@Z ENDP ; std::_Copy_memmove_tail<CEffectData * *>
_TEXT	ENDS
; Function compile flags: /Ogtp
; File D:\Program Files\Microsoft Visual Studio\2022\Community\VC\Tools\MSVC\14.43.34808\include\xutility
;	COMDAT ??$_Copy_memmove_tail@PAPAVCParticleSystemData@@@std@@YAPAPAVCParticleSystemData@@QBDQAPAV1@II@Z
_TEXT	SEGMENT
__First_ch$ = 8						; size = 4
__Dest$ = 12						; size = 4
__Byte_count$ = 16					; size = 4
__Object_count$ = 20					; size = 4
??$_Copy_memmove_tail@PAPAVCParticleSystemData@@@std@@YAPAPAVCParticleSystemData@@QBDQAPAV1@II@Z PROC ; std::_Copy_memmove_tail<CParticleSystemData * *>, COMDAT

; 4763 :     const char* const _First_ch, const _OutCtgIt _Dest, const size_t _Byte_count, const size_t _Object_count) {

  00000	55		 push	 ebp
  00001	8b ec		 mov	 ebp, esp
  00003	56		 push	 esi

; 4764 :     _STL_INTERNAL_CHECK(_Byte_count == _Object_count * sizeof(*_Dest));
; 4765 :     const auto _Dest_ptr = _STD _To_address(_Dest);
; 4766 :     const auto _Dest_ch  = const_cast<char*>(reinterpret_cast<const volatile char*>(_Dest_ptr));
; 4767 :     _CSTD memmove(_Dest_ch, _First_ch, _Byte_count);

  00004	8b 75 0c	 mov	 esi, DWORD PTR __Dest$[ebp]
  00007	57		 push	 edi
  00008	8b 7d 10	 mov	 edi, DWORD PTR __Byte_count$[ebp]
  0000b	57		 push	 edi
  0000c	ff 75 08	 push	 DWORD PTR __First_ch$[ebp]
  0000f	56		 push	 esi
  00010	e8 00 00 00 00	 call	 _memmove
  00015	83 c4 0c	 add	 esp, 12			; 0000000cH

; 4768 :     if constexpr (is_pointer_v<_OutCtgIt>) {
; 4769 :         (void) _Object_count;
; 4770 :         // CodeQL [SM02986] This cast is correct: we're bypassing pointer arithmetic for performance.
; 4771 :         return reinterpret_cast<_OutCtgIt>(_Dest_ch + _Byte_count);

  00018	8d 04 3e	 lea	 eax, DWORD PTR [esi+edi]
  0001b	5f		 pop	 edi
  0001c	5e		 pop	 esi

; 4772 :     } else {
; 4773 :         return _Dest + static_cast<_Iter_diff_t<_OutCtgIt>>(_Object_count);
; 4774 :     }
; 4775 : }

  0001d	5d		 pop	 ebp
  0001e	c3		 ret	 0
??$_Copy_memmove_tail@PAPAVCParticleSystemData@@@std@@YAPAPAVCParticleSystemData@@QBDQAPAV1@II@Z ENDP ; std::_Copy_memmove_tail<CParticleSystemData * *>
_TEXT	ENDS
; Function compile flags: /Ogtp
; File D:\Program Files\Microsoft Visual Studio\2022\Community\VC\Tools\MSVC\14.43.34808\include\xutility
;	COMDAT ??$_Copy_memmove_tail@PAPAVCEffectMeshScript@@@std@@YAPAPAVCEffectMeshScript@@QBDQAPAV1@II@Z
_TEXT	SEGMENT
__First_ch$ = 8						; size = 4
__Dest$ = 12						; size = 4
__Byte_count$ = 16					; size = 4
__Object_count$ = 20					; size = 4
??$_Copy_memmove_tail@PAPAVCEffectMeshScript@@@std@@YAPAPAVCEffectMeshScript@@QBDQAPAV1@II@Z PROC ; std::_Copy_memmove_tail<CEffectMeshScript * *>, COMDAT

; 4763 :     const char* const _First_ch, const _OutCtgIt _Dest, const size_t _Byte_count, const size_t _Object_count) {

  00000	55		 push	 ebp
  00001	8b ec		 mov	 ebp, esp
  00003	56		 push	 esi

; 4764 :     _STL_INTERNAL_CHECK(_Byte_count == _Object_count * sizeof(*_Dest));
; 4765 :     const auto _Dest_ptr = _STD _To_address(_Dest);
; 4766 :     const auto _Dest_ch  = const_cast<char*>(reinterpret_cast<const volatile char*>(_Dest_ptr));
; 4767 :     _CSTD memmove(_Dest_ch, _First_ch, _Byte_count);

  00004	8b 75 0c	 mov	 esi, DWORD PTR __Dest$[ebp]
  00007	57		 push	 edi
  00008	8b 7d 10	 mov	 edi, DWORD PTR __Byte_count$[ebp]
  0000b	57		 push	 edi
  0000c	ff 75 08	 push	 DWORD PTR __First_ch$[ebp]
  0000f	56		 push	 esi
  00010	e8 00 00 00 00	 call	 _memmove
  00015	83 c4 0c	 add	 esp, 12			; 0000000cH

; 4768 :     if constexpr (is_pointer_v<_OutCtgIt>) {
; 4769 :         (void) _Object_count;
; 4770 :         // CodeQL [SM02986] This cast is correct: we're bypassing pointer arithmetic for performance.
; 4771 :         return reinterpret_cast<_OutCtgIt>(_Dest_ch + _Byte_count);

  00018	8d 04 3e	 lea	 eax, DWORD PTR [esi+edi]
  0001b	5f		 pop	 edi
  0001c	5e		 pop	 esi

; 4772 :     } else {
; 4773 :         return _Dest + static_cast<_Iter_diff_t<_OutCtgIt>>(_Object_count);
; 4774 :     }
; 4775 : }

  0001d	5d		 pop	 ebp
  0001e	c3		 ret	 0
??$_Copy_memmove_tail@PAPAVCEffectMeshScript@@@std@@YAPAPAVCEffectMeshScript@@QBDQAPAV1@II@Z ENDP ; std::_Copy_memmove_tail<CEffectMeshScript * *>
_TEXT	ENDS
; Function compile flags: /Ogtp
; File D:\Program Files\Microsoft Visual Studio\2022\Community\VC\Tools\MSVC\14.43.34808\include\xutility
;	COMDAT ??$_Copy_memmove_tail@PAPAVCLightData@@@std@@YAPAPAVCLightData@@QBDQAPAV1@II@Z
_TEXT	SEGMENT
__First_ch$ = 8						; size = 4
__Dest$ = 12						; size = 4
__Byte_count$ = 16					; size = 4
__Object_count$ = 20					; size = 4
??$_Copy_memmove_tail@PAPAVCLightData@@@std@@YAPAPAVCLightData@@QBDQAPAV1@II@Z PROC ; std::_Copy_memmove_tail<CLightData * *>, COMDAT

; 4763 :     const char* const _First_ch, const _OutCtgIt _Dest, const size_t _Byte_count, const size_t _Object_count) {

  00000	55		 push	 ebp
  00001	8b ec		 mov	 ebp, esp
  00003	56		 push	 esi

; 4764 :     _STL_INTERNAL_CHECK(_Byte_count == _Object_count * sizeof(*_Dest));
; 4765 :     const auto _Dest_ptr = _STD _To_address(_Dest);
; 4766 :     const auto _Dest_ch  = const_cast<char*>(reinterpret_cast<const volatile char*>(_Dest_ptr));
; 4767 :     _CSTD memmove(_Dest_ch, _First_ch, _Byte_count);

  00004	8b 75 0c	 mov	 esi, DWORD PTR __Dest$[ebp]
  00007	57		 push	 edi
  00008	8b 7d 10	 mov	 edi, DWORD PTR __Byte_count$[ebp]
  0000b	57		 push	 edi
  0000c	ff 75 08	 push	 DWORD PTR __First_ch$[ebp]
  0000f	56		 push	 esi
  00010	e8 00 00 00 00	 call	 _memmove
  00015	83 c4 0c	 add	 esp, 12			; 0000000cH

; 4768 :     if constexpr (is_pointer_v<_OutCtgIt>) {
; 4769 :         (void) _Object_count;
; 4770 :         // CodeQL [SM02986] This cast is correct: we're bypassing pointer arithmetic for performance.
; 4771 :         return reinterpret_cast<_OutCtgIt>(_Dest_ch + _Byte_count);

  00018	8d 04 3e	 lea	 eax, DWORD PTR [esi+edi]
  0001b	5f		 pop	 edi
  0001c	5e		 pop	 esi

; 4772 :     } else {
; 4773 :         return _Dest + static_cast<_Iter_diff_t<_OutCtgIt>>(_Object_count);
; 4774 :     }
; 4775 : }

  0001d	5d		 pop	 ebp
  0001e	c3		 ret	 0
??$_Copy_memmove_tail@PAPAVCLightData@@@std@@YAPAPAVCLightData@@QBDQAPAV1@II@Z ENDP ; std::_Copy_memmove_tail<CLightData * *>
_TEXT	ENDS
; Function compile flags: /Ogtp
; File D:\Program Files\Microsoft Visual Studio\2022\Community\VC\Tools\MSVC\14.43.34808\include\xutility
;	COMDAT ??$_Copy_memmove@PAPAVCEffectData@@PAPAV1@@std@@YAPAPAVCEffectData@@PAPAV1@00@Z
_TEXT	SEGMENT
__First$ = 8						; size = 4
__Last$ = 12						; size = 4
__Dest$ = 16						; size = 4
??$_Copy_memmove@PAPAVCEffectData@@PAPAV1@@std@@YAPAPAVCEffectData@@PAPAV1@00@Z PROC ; std::_Copy_memmove<CEffectData * *,CEffectData * *>, COMDAT

; 4778 : _OutCtgIt _Copy_memmove(_CtgIt _First, _CtgIt _Last, _OutCtgIt _Dest) {

  00000	55		 push	 ebp
  00001	8b ec		 mov	 ebp, esp

; 4779 :     _STL_INTERNAL_CHECK(_First <= _Last);
; 4780 :     const auto _First_ptr    = _STD _To_address(_First);
; 4781 :     const auto _Last_ptr     = _STD _To_address(_Last);
; 4782 :     const auto _Object_count = static_cast<size_t>(_Last_ptr - _First_ptr);

  00003	8b 55 08	 mov	 edx, DWORD PTR __First$[ebp]
  00006	8b 4d 0c	 mov	 ecx, DWORD PTR __Last$[ebp]
  00009	2b ca		 sub	 ecx, edx
  0000b	8b c1		 mov	 eax, ecx
  0000d	c1 f8 02	 sar	 eax, 2

; 4783 :     const auto _First_ch     = const_cast<const char*>(reinterpret_cast<const volatile char*>(_First_ptr));
; 4784 :     const auto _Last_ch      = const_cast<const char*>(reinterpret_cast<const volatile char*>(_Last_ptr));
; 4785 :     const auto _Byte_count   = static_cast<size_t>(_Last_ch - _First_ch);
; 4786 :     return _STD _Copy_memmove_tail(_First_ch, _STD move(_Dest), _Byte_count, _Object_count);

  00010	50		 push	 eax
  00011	51		 push	 ecx
  00012	ff 75 10	 push	 DWORD PTR __Dest$[ebp]
  00015	52		 push	 edx
  00016	e8 00 00 00 00	 call	 ??$_Copy_memmove_tail@PAPAVCEffectData@@@std@@YAPAPAVCEffectData@@QBDQAPAV1@II@Z ; std::_Copy_memmove_tail<CEffectData * *>
  0001b	83 c4 10	 add	 esp, 16			; 00000010H

; 4787 : }

  0001e	5d		 pop	 ebp
  0001f	c3		 ret	 0
??$_Copy_memmove@PAPAVCEffectData@@PAPAV1@@std@@YAPAPAVCEffectData@@PAPAV1@00@Z ENDP ; std::_Copy_memmove<CEffectData * *,CEffectData * *>
_TEXT	ENDS
; Function compile flags: /Ogtp
; File D:\Program Files\Microsoft Visual Studio\2022\Community\VC\Tools\MSVC\14.43.34808\include\xutility
;	COMDAT ??$_Copy_memmove@PAPAVCParticleSystemData@@PAPAV1@@std@@YAPAPAVCParticleSystemData@@PAPAV1@00@Z
_TEXT	SEGMENT
__First$ = 8						; size = 4
__Last$ = 12						; size = 4
__Dest$ = 16						; size = 4
??$_Copy_memmove@PAPAVCParticleSystemData@@PAPAV1@@std@@YAPAPAVCParticleSystemData@@PAPAV1@00@Z PROC ; std::_Copy_memmove<CParticleSystemData * *,CParticleSystemData * *>, COMDAT

; 4778 : _OutCtgIt _Copy_memmove(_CtgIt _First, _CtgIt _Last, _OutCtgIt _Dest) {

  00000	55		 push	 ebp
  00001	8b ec		 mov	 ebp, esp

; 4779 :     _STL_INTERNAL_CHECK(_First <= _Last);
; 4780 :     const auto _First_ptr    = _STD _To_address(_First);
; 4781 :     const auto _Last_ptr     = _STD _To_address(_Last);
; 4782 :     const auto _Object_count = static_cast<size_t>(_Last_ptr - _First_ptr);

  00003	8b 55 08	 mov	 edx, DWORD PTR __First$[ebp]
  00006	8b 4d 0c	 mov	 ecx, DWORD PTR __Last$[ebp]
  00009	2b ca		 sub	 ecx, edx
  0000b	8b c1		 mov	 eax, ecx
  0000d	c1 f8 02	 sar	 eax, 2

; 4783 :     const auto _First_ch     = const_cast<const char*>(reinterpret_cast<const volatile char*>(_First_ptr));
; 4784 :     const auto _Last_ch      = const_cast<const char*>(reinterpret_cast<const volatile char*>(_Last_ptr));
; 4785 :     const auto _Byte_count   = static_cast<size_t>(_Last_ch - _First_ch);
; 4786 :     return _STD _Copy_memmove_tail(_First_ch, _STD move(_Dest), _Byte_count, _Object_count);

  00010	50		 push	 eax
  00011	51		 push	 ecx
  00012	ff 75 10	 push	 DWORD PTR __Dest$[ebp]
  00015	52		 push	 edx
  00016	e8 00 00 00 00	 call	 ??$_Copy_memmove_tail@PAPAVCParticleSystemData@@@std@@YAPAPAVCParticleSystemData@@QBDQAPAV1@II@Z ; std::_Copy_memmove_tail<CParticleSystemData * *>
  0001b	83 c4 10	 add	 esp, 16			; 00000010H

; 4787 : }

  0001e	5d		 pop	 ebp
  0001f	c3		 ret	 0
??$_Copy_memmove@PAPAVCParticleSystemData@@PAPAV1@@std@@YAPAPAVCParticleSystemData@@PAPAV1@00@Z ENDP ; std::_Copy_memmove<CParticleSystemData * *,CParticleSystemData * *>
_TEXT	ENDS
; Function compile flags: /Ogtp
; File D:\Program Files\Microsoft Visual Studio\2022\Community\VC\Tools\MSVC\14.43.34808\include\xutility
;	COMDAT ??$_Copy_memmove@PAPAVCEffectMeshScript@@PAPAV1@@std@@YAPAPAVCEffectMeshScript@@PAPAV1@00@Z
_TEXT	SEGMENT
__First$ = 8						; size = 4
__Last$ = 12						; size = 4
__Dest$ = 16						; size = 4
??$_Copy_memmove@PAPAVCEffectMeshScript@@PAPAV1@@std@@YAPAPAVCEffectMeshScript@@PAPAV1@00@Z PROC ; std::_Copy_memmove<CEffectMeshScript * *,CEffectMeshScript * *>, COMDAT

; 4778 : _OutCtgIt _Copy_memmove(_CtgIt _First, _CtgIt _Last, _OutCtgIt _Dest) {

  00000	55		 push	 ebp
  00001	8b ec		 mov	 ebp, esp

; 4779 :     _STL_INTERNAL_CHECK(_First <= _Last);
; 4780 :     const auto _First_ptr    = _STD _To_address(_First);
; 4781 :     const auto _Last_ptr     = _STD _To_address(_Last);
; 4782 :     const auto _Object_count = static_cast<size_t>(_Last_ptr - _First_ptr);

  00003	8b 55 08	 mov	 edx, DWORD PTR __First$[ebp]
  00006	8b 4d 0c	 mov	 ecx, DWORD PTR __Last$[ebp]
  00009	2b ca		 sub	 ecx, edx
  0000b	8b c1		 mov	 eax, ecx
  0000d	c1 f8 02	 sar	 eax, 2

; 4783 :     const auto _First_ch     = const_cast<const char*>(reinterpret_cast<const volatile char*>(_First_ptr));
; 4784 :     const auto _Last_ch      = const_cast<const char*>(reinterpret_cast<const volatile char*>(_Last_ptr));
; 4785 :     const auto _Byte_count   = static_cast<size_t>(_Last_ch - _First_ch);
; 4786 :     return _STD _Copy_memmove_tail(_First_ch, _STD move(_Dest), _Byte_count, _Object_count);

  00010	50		 push	 eax
  00011	51		 push	 ecx
  00012	ff 75 10	 push	 DWORD PTR __Dest$[ebp]
  00015	52		 push	 edx
  00016	e8 00 00 00 00	 call	 ??$_Copy_memmove_tail@PAPAVCEffectMeshScript@@@std@@YAPAPAVCEffectMeshScript@@QBDQAPAV1@II@Z ; std::_Copy_memmove_tail<CEffectMeshScript * *>
  0001b	83 c4 10	 add	 esp, 16			; 00000010H

; 4787 : }

  0001e	5d		 pop	 ebp
  0001f	c3		 ret	 0
??$_Copy_memmove@PAPAVCEffectMeshScript@@PAPAV1@@std@@YAPAPAVCEffectMeshScript@@PAPAV1@00@Z ENDP ; std::_Copy_memmove<CEffectMeshScript * *,CEffectMeshScript * *>
_TEXT	ENDS
; Function compile flags: /Ogtp
; File D:\Program Files\Microsoft Visual Studio\2022\Community\VC\Tools\MSVC\14.43.34808\include\xutility
;	COMDAT ??$_Copy_memmove@PAPAVCLightData@@PAPAV1@@std@@YAPAPAVCLightData@@PAPAV1@00@Z
_TEXT	SEGMENT
__First$ = 8						; size = 4
__Last$ = 12						; size = 4
__Dest$ = 16						; size = 4
??$_Copy_memmove@PAPAVCLightData@@PAPAV1@@std@@YAPAPAVCLightData@@PAPAV1@00@Z PROC ; std::_Copy_memmove<CLightData * *,CLightData * *>, COMDAT

; 4778 : _OutCtgIt _Copy_memmove(_CtgIt _First, _CtgIt _Last, _OutCtgIt _Dest) {

  00000	55		 push	 ebp
  00001	8b ec		 mov	 ebp, esp

; 4779 :     _STL_INTERNAL_CHECK(_First <= _Last);
; 4780 :     const auto _First_ptr    = _STD _To_address(_First);
; 4781 :     const auto _Last_ptr     = _STD _To_address(_Last);
; 4782 :     const auto _Object_count = static_cast<size_t>(_Last_ptr - _First_ptr);

  00003	8b 55 08	 mov	 edx, DWORD PTR __First$[ebp]
  00006	8b 4d 0c	 mov	 ecx, DWORD PTR __Last$[ebp]
  00009	2b ca		 sub	 ecx, edx
  0000b	8b c1		 mov	 eax, ecx
  0000d	c1 f8 02	 sar	 eax, 2

; 4783 :     const auto _First_ch     = const_cast<const char*>(reinterpret_cast<const volatile char*>(_First_ptr));
; 4784 :     const auto _Last_ch      = const_cast<const char*>(reinterpret_cast<const volatile char*>(_Last_ptr));
; 4785 :     const auto _Byte_count   = static_cast<size_t>(_Last_ch - _First_ch);
; 4786 :     return _STD _Copy_memmove_tail(_First_ch, _STD move(_Dest), _Byte_count, _Object_count);

  00010	50		 push	 eax
  00011	51		 push	 ecx
  00012	ff 75 10	 push	 DWORD PTR __Dest$[ebp]
  00015	52		 push	 edx
  00016	e8 00 00 00 00	 call	 ??$_Copy_memmove_tail@PAPAVCLightData@@@std@@YAPAPAVCLightData@@QBDQAPAV1@II@Z ; std::_Copy_memmove_tail<CLightData * *>
  0001b	83 c4 10	 add	 esp, 16			; 00000010H

; 4787 : }

  0001e	5d		 pop	 ebp
  0001f	c3		 ret	 0
??$_Copy_memmove@PAPAVCLightData@@PAPAV1@@std@@YAPAPAVCLightData@@PAPAV1@00@Z ENDP ; std::_Copy_memmove<CLightData * *,CLightData * *>
_TEXT	ENDS
; Function compile flags: /Ogtp
; File D:\Program Files\Microsoft Visual Studio\2022\Community\VC\Tools\MSVC\14.43.34808\include\vector
; File D:\Program Files\Microsoft Visual Studio\2022\Community\VC\Tools\MSVC\14.43.34808\include\xmemory
; File D:\Program Files\Microsoft Visual Studio\2022\Community\VC\Tools\MSVC\14.43.34808\include\vector
; File D:\Program Files\Microsoft Visual Studio\2022\Community\VC\Tools\MSVC\14.43.34808\include\xmemory
; File D:\Program Files\Microsoft Visual Studio\2022\Community\VC\Tools\MSVC\14.43.34808\include\vector
; File D:\Program Files\Microsoft Visual Studio\2022\Community\VC\Tools\MSVC\14.43.34808\include\xmemory
; File D:\Program Files\Microsoft Visual Studio\2022\Community\VC\Tools\MSVC\14.43.34808\include\vector
; File D:\Program Files\Microsoft Visual Studio\2022\Community\VC\Tools\MSVC\14.43.34808\include\xmemory
; File D:\Program Files\Microsoft Visual Studio\2022\Community\VC\Tools\MSVC\14.43.34808\include\vector
; File D:\Program Files\Microsoft Visual Studio\2022\Community\VC\Tools\MSVC\14.43.34808\include\xmemory
; File D:\Program Files\Microsoft Visual Studio\2022\Community\VC\Tools\MSVC\14.43.34808\include\vector
; File D:\Program Files\Microsoft Visual Studio\2022\Community\VC\Tools\MSVC\14.43.34808\include\xmemory
; File D:\Program Files\Microsoft Visual Studio\2022\Community\VC\Tools\MSVC\14.43.34808\include\vector
; File D:\Program Files\Microsoft Visual Studio\2022\Community\VC\Tools\MSVC\14.43.34808\include\xmemory
; File D:\Program Files\Microsoft Visual Studio\2022\Community\VC\Tools\MSVC\14.43.34808\include\vector
; File D:\Program Files\Microsoft Visual Studio\2022\Community\VC\Tools\MSVC\14.43.34808\include\xmemory
; File D:\Program Files\Microsoft Visual Studio\2022\Community\VC\Tools\MSVC\14.43.34808\include\vector
;	COMDAT ??$_Emplace_reallocate@ABQAVCEffectData@@@?$vector@PAVCEffectData@@V?$allocator@PAVCEffectData@@@std@@@std@@AAEPAPAVCEffectData@@QAPAV2@ABQAV2@@Z
_TEXT	SEGMENT
__Newsize$1$ = -12					; size = 4
tv652 = -8						; size = 4
tv650 = -4						; size = 4
__Whereptr$ = 8						; size = 4
_<_Val_0>$ = 12						; size = 4
??$_Emplace_reallocate@ABQAVCEffectData@@@?$vector@PAVCEffectData@@V?$allocator@PAVCEffectData@@@std@@@std@@AAEPAPAVCEffectData@@QAPAV2@ABQAV2@@Z PROC ; std::vector<CEffectData *,std::allocator<CEffectData *> >::_Emplace_reallocate<CEffectData * const &>, COMDAT
; _this$ = ecx

; 860  :     _CONSTEXPR20 pointer _Emplace_reallocate(const pointer _Whereptr, _Valty&&... _Val) {

  00000	55		 push	 ebp
  00001	8b ec		 mov	 ebp, esp
  00003	83 ec 0c	 sub	 esp, 12			; 0000000cH
  00006	53		 push	 ebx

; 861  :         // reallocate and insert by perfectly forwarding _Val at _Whereptr
; 862  :         _Alty& _Al        = _Getal();
; 863  :         auto& _My_data    = _Mypair._Myval2;
; 864  :         pointer& _Myfirst = _My_data._Myfirst;
; 865  :         pointer& _Mylast  = _My_data._Mylast;
; 866  : 
; 867  :         _STL_INTERNAL_CHECK(_Mylast == _My_data._Myend); // check that we have no unused capacity
; 868  : 
; 869  :         const auto _Whereoff = static_cast<size_type>(_Whereptr - _Myfirst);

  00007	8b 5d 08	 mov	 ebx, DWORD PTR __Whereptr$[ebp]
  0000a	56		 push	 esi
  0000b	8b f1		 mov	 esi, ecx
  0000d	57		 push	 edi
  0000e	8b 0e		 mov	 ecx, DWORD PTR [esi]
  00010	2b d9		 sub	 ebx, ecx

; 870  :         const auto _Oldsize  = static_cast<size_type>(_Mylast - _Myfirst);

  00012	8b 46 04	 mov	 eax, DWORD PTR [esi+4]
  00015	2b c1		 sub	 eax, ecx
  00017	c1 fb 02	 sar	 ebx, 2
  0001a	c1 f8 02	 sar	 eax, 2

; 871  : 
; 872  :         if (_Oldsize == max_size()) {

  0001d	3d ff ff ff 3f	 cmp	 eax, 1073741823		; 3fffffffH
  00022	0f 84 09 01 00
	00		 je	 $LN123@Emplace_re

; 1909 :         return static_cast<size_type>(_My_data._Myend - _My_data._Myfirst);

  00028	8b 56 08	 mov	 edx, DWORD PTR [esi+8]

; 874  :         }
; 875  : 
; 876  :         const size_type _Newsize = _Oldsize + 1;

  0002b	8d 78 01	 lea	 edi, DWORD PTR [eax+1]

; 1909 :         return static_cast<size_type>(_My_data._Myend - _My_data._Myfirst);

  0002e	2b d1		 sub	 edx, ecx

; 874  :         }
; 875  : 
; 876  :         const size_type _Newsize = _Oldsize + 1;

  00030	89 7d f4	 mov	 DWORD PTR __Newsize$1$[ebp], edi

; 1909 :         return static_cast<size_type>(_My_data._Myend - _My_data._Myfirst);

  00033	c1 fa 02	 sar	 edx, 2

; 1996 :         if (_Oldcapacity > _Max - _Oldcapacity / 2) {

  00036	b8 ff ff ff 3f	 mov	 eax, 1073741823		; 3fffffffH
  0003b	8b ca		 mov	 ecx, edx
  0003d	d1 e9		 shr	 ecx, 1
  0003f	2b c1		 sub	 eax, ecx
  00041	3b d0		 cmp	 edx, eax
  00043	76 14		 jbe	 SHORT $LN8@Emplace_re

; 1997 :             return _Max; // geometric growth would overflow

  00045	b8 fc ff ff ff	 mov	 eax, -4			; fffffffcH
  0004a	c7 45 f8 fc ff
	ff ff		 mov	 DWORD PTR tv652[ebp], -4 ; fffffffcH
; File D:\Program Files\Microsoft Visual Studio\2022\Community\VC\Tools\MSVC\14.43.34808\include\xmemory

; 253  :             return _Allocate_manually_vector_aligned<_Traits>(_Bytes);

  00051	50		 push	 eax
  00052	e8 00 00 00 00	 call	 ??$_Allocate_manually_vector_aligned@U_Default_allocate_traits@std@@@std@@YAPAXI@Z ; std::_Allocate_manually_vector_aligned<std::_Default_allocate_traits>
  00057	eb 3d		 jmp	 SHORT $LN121@Emplace_re
$LN8@Emplace_re:
; File D:\Program Files\Microsoft Visual Studio\2022\Community\VC\Tools\MSVC\14.43.34808\include\vector

; 2000 :         const size_type _Geometric = _Oldcapacity + _Oldcapacity / 2;

  00059	8d 04 11	 lea	 eax, DWORD PTR [ecx+edx]
; File D:\Program Files\Microsoft Visual Studio\2022\Community\VC\Tools\MSVC\14.43.34808\include\xmemory

; 117  :         if (_Count > _Max_possible) {

  0005c	8b cf		 mov	 ecx, edi
  0005e	3b c7		 cmp	 eax, edi
  00060	0f 43 c8	 cmovae	 ecx, eax
  00063	81 f9 ff ff ff
	3f		 cmp	 ecx, 1073741823		; 3fffffffH
  00069	0f 87 c7 00 00
	00		 ja	 $LN124@Emplace_re

; 119  :         }
; 120  :     }
; 121  : 
; 122  :     return _Count * _Ty_size;

  0006f	8d 04 8d 00 00
	00 00		 lea	 eax, DWORD PTR [ecx*4]
  00076	89 45 f8	 mov	 DWORD PTR tv652[ebp], eax

; 227  :     if (_Bytes == 0) {

  00079	85 c0		 test	 eax, eax
  0007b	75 04		 jne	 SHORT $LN23@Emplace_re

; 228  :         return nullptr;

  0007d	33 ff		 xor	 edi, edi
  0007f	eb 1a		 jmp	 SHORT $LN22@Emplace_re
$LN23@Emplace_re:

; 229  :     }
; 230  : 
; 231  : #if _HAS_CXX20 // TRANSITION, GH-1532
; 232  :     if (_STD is_constant_evaluated()) {
; 233  :         return _Traits::_Allocate(_Bytes);
; 234  :     }
; 235  : #endif // _HAS_CXX20
; 236  : 
; 237  : #ifdef __cpp_aligned_new
; 238  :     if constexpr (_Align > __STDCPP_DEFAULT_NEW_ALIGNMENT__) {
; 239  :         size_t _Passed_align = _Align;
; 240  : #if defined(_M_IX86) || defined(_M_X64)
; 241  :         if (_Bytes >= _Big_allocation_threshold) {
; 242  :             // boost the alignment of big allocations to help autovectorization
; 243  :             _Passed_align = (_STD max)(_Align, _Big_allocation_alignment);
; 244  :         }
; 245  : #endif // defined(_M_IX86) || defined(_M_X64)
; 246  :         return _Traits::_Allocate_aligned(_Bytes, _Passed_align);
; 247  :     } else
; 248  : #endif // defined(__cpp_aligned_new)
; 249  :     {
; 250  : #if defined(_M_IX86) || defined(_M_X64)
; 251  :         if (_Bytes >= _Big_allocation_threshold) {

  00081	3d 00 10 00 00	 cmp	 eax, 4096		; 00001000H
  00086	72 08		 jb	 SHORT $LN24@Emplace_re

; 253  :             return _Allocate_manually_vector_aligned<_Traits>(_Bytes);

  00088	50		 push	 eax
  00089	e8 00 00 00 00	 call	 ??$_Allocate_manually_vector_aligned@U_Default_allocate_traits@std@@@std@@YAPAXI@Z ; std::_Allocate_manually_vector_aligned<std::_Default_allocate_traits>
  0008e	eb 06		 jmp	 SHORT $LN121@Emplace_re
$LN24@Emplace_re:

; 136  :         return ::operator new(_Bytes);

  00090	50		 push	 eax
  00091	e8 00 00 00 00	 call	 ??2@YAPAXI@Z		; operator new
$LN121@Emplace_re:
; File D:\Program Files\Microsoft Visual Studio\2022\Community\VC\Tools\MSVC\14.43.34808\include\vector

; 885  :         _Alty_traits::construct(_Al, _STD _Unfancy(_Newvec + _Whereoff), _STD forward<_Valty>(_Val)...);

  00096	8b f8		 mov	 edi, eax
  00098	83 c4 04	 add	 esp, 4
$LN22@Emplace_re:
  0009b	8b 45 0c	 mov	 eax, DWORD PTR _<_Val_0>$[ebp]
  0009e	8d 0c 9f	 lea	 ecx, DWORD PTR [edi+ebx*4]

; 886  :         _Constructed_first = _Newvec + _Whereoff;
; 887  : 
; 888  :         if (_Whereptr == _Mylast) { // at back, provide strong guarantee

  000a1	8b 5d 08	 mov	 ebx, DWORD PTR __Whereptr$[ebp]
  000a4	89 4d fc	 mov	 DWORD PTR tv650[ebp], ecx
  000a7	8b 00		 mov	 eax, DWORD PTR [eax]
  000a9	89 01		 mov	 DWORD PTR [ecx], eax
  000ab	8b 46 04	 mov	 eax, DWORD PTR [esi+4]
  000ae	8b 0e		 mov	 ecx, DWORD PTR [esi]
  000b0	3b d8		 cmp	 ebx, eax
  000b2	75 07		 jne	 SHORT $LN3@Emplace_re

; 894  :         } else { // provide basic guarantee

  000b4	8b 5d fc	 mov	 ebx, DWORD PTR tv650[ebp]
; File D:\Program Files\Microsoft Visual Studio\2022\Community\VC\Tools\MSVC\14.43.34808\include\xmemory

; 1955 :             _STD _Copy_memmove(_UFirst, _ULast, _STD _Unfancy(_Dest));

  000b7	8b d7		 mov	 edx, edi
; File D:\Program Files\Microsoft Visual Studio\2022\Community\VC\Tools\MSVC\14.43.34808\include\vector

; 894  :         } else { // provide basic guarantee

  000b9	eb 16		 jmp	 SHORT $LN52@Emplace_re
$LN3@Emplace_re:
; File D:\Program Files\Microsoft Visual Studio\2022\Community\VC\Tools\MSVC\14.43.34808\include\xmemory

; 1955 :             _STD _Copy_memmove(_UFirst, _ULast, _STD _Unfancy(_Dest));

  000bb	57		 push	 edi
  000bc	53		 push	 ebx
  000bd	51		 push	 ecx
  000be	e8 00 00 00 00	 call	 ??$_Copy_memmove@PAPAVCEffectData@@PAPAV1@@std@@YAPAPAVCEffectData@@PAPAV1@00@Z ; std::_Copy_memmove<CEffectData * *,CEffectData * *>
  000c3	8b 46 04	 mov	 eax, DWORD PTR [esi+4]
  000c6	8b cb		 mov	 ecx, ebx
; File D:\Program Files\Microsoft Visual Studio\2022\Community\VC\Tools\MSVC\14.43.34808\include\vector

; 897  :             _STD _Uninitialized_move(_Whereptr, _Mylast, _Newvec + _Whereoff + 1, _Al);

  000c8	8b 5d fc	 mov	 ebx, DWORD PTR tv650[ebp]
; File D:\Program Files\Microsoft Visual Studio\2022\Community\VC\Tools\MSVC\14.43.34808\include\xmemory

; 1955 :             _STD _Copy_memmove(_UFirst, _ULast, _STD _Unfancy(_Dest));

  000cb	83 c4 0c	 add	 esp, 12			; 0000000cH
; File D:\Program Files\Microsoft Visual Studio\2022\Community\VC\Tools\MSVC\14.43.34808\include\vector

; 897  :             _STD _Uninitialized_move(_Whereptr, _Mylast, _Newvec + _Whereoff + 1, _Al);

  000ce	8d 53 04	 lea	 edx, DWORD PTR [ebx+4]
$LN52@Emplace_re:

; 898  :         }
; 899  : 
; 900  :         _Guard._New_begin = nullptr;

  000d1	52		 push	 edx
  000d2	50		 push	 eax
  000d3	51		 push	 ecx
  000d4	e8 00 00 00 00	 call	 ??$_Copy_memmove@PAPAVCEffectData@@PAPAV1@@std@@YAPAPAVCEffectData@@PAPAV1@00@Z ; std::_Copy_memmove<CEffectData * *,CEffectData * *>

; 2054 :         if (_Myfirst) { // destroy and deallocate old array

  000d9	8b 06		 mov	 eax, DWORD PTR [esi]

; 898  :         }
; 899  : 
; 900  :         _Guard._New_begin = nullptr;

  000db	83 c4 0c	 add	 esp, 12			; 0000000cH

; 2054 :         if (_Myfirst) { // destroy and deallocate old array

  000de	85 c0		 test	 eax, eax
  000e0	74 2c		 je	 SHORT $LN72@Emplace_re

; 2055 :             _STD _Destroy_range(_Myfirst, _Mylast, _Al);
; 2056 :             _ASAN_VECTOR_REMOVE;
; 2057 :             _Al.deallocate(_Myfirst, static_cast<size_type>(_Myend - _Myfirst));

  000e2	8b 4e 08	 mov	 ecx, DWORD PTR [esi+8]
  000e5	2b c8		 sub	 ecx, eax
; File D:\Program Files\Microsoft Visual Studio\2022\Community\VC\Tools\MSVC\14.43.34808\include\xmemory

; 981  :         _STD _Deallocate<_New_alignof<_Ty>>(_Ptr, sizeof(_Ty) * _Count);

  000e7	83 e1 fc	 and	 ecx, -4			; fffffffcH

; 284  :         if (_Bytes >= _Big_allocation_threshold) {

  000ea	81 f9 00 10 00
	00		 cmp	 ecx, 4096		; 00001000H
  000f0	72 12		 jb	 SHORT $LN83@Emplace_re

; 205  :     const uintptr_t _Ptr_container   = _Ptr_user[-1];

  000f2	8b 50 fc	 mov	 edx, DWORD PTR [eax-4]
  000f5	83 c1 23	 add	 ecx, 35			; 00000023H

; 206  : 
; 207  :     // If the following asserts, it likely means that we are performing
; 208  :     // an aligned delete on memory coming from an unaligned allocation.
; 209  :     _STL_ASSERT(_Ptr_user[-2] == _Big_allocation_sentinel, "invalid argument");
; 210  : 
; 211  :     // Extra paranoia on aligned allocation/deallocation; ensure _Ptr_container is
; 212  :     // in range [_Min_back_shift, _Non_user_size]
; 213  : #ifdef _DEBUG
; 214  :     constexpr uintptr_t _Min_back_shift = 2 * sizeof(void*);
; 215  : #else // ^^^ defined(_DEBUG) / !defined(_DEBUG) vvv
; 216  :     constexpr uintptr_t _Min_back_shift = sizeof(void*);
; 217  : #endif // ^^^ !defined(_DEBUG) ^^^
; 218  :     const uintptr_t _Back_shift = reinterpret_cast<uintptr_t>(_Ptr) - _Ptr_container;

  000f8	2b c2		 sub	 eax, edx

; 219  :     _STL_VERIFY(_Back_shift >= _Min_back_shift && _Back_shift <= _Non_user_size, "invalid argument");

  000fa	83 c0 fc	 add	 eax, -4			; fffffffcH
  000fd	83 f8 1f	 cmp	 eax, 31			; 0000001fH
  00100	77 2a		 ja	 SHORT $LN80@Emplace_re

; 220  :     _Ptr = reinterpret_cast<void*>(_Ptr_container);

  00102	8b c2		 mov	 eax, edx
$LN83@Emplace_re:

; 289  :         ::operator delete(_Ptr, _Bytes);

  00104	51		 push	 ecx
  00105	50		 push	 eax
  00106	e8 00 00 00 00	 call	 ??3@YAXPAXI@Z		; operator delete
  0010b	83 c4 08	 add	 esp, 8
$LN72@Emplace_re:
; File D:\Program Files\Microsoft Visual Studio\2022\Community\VC\Tools\MSVC\14.43.34808\include\vector

; 2061 :         _Mylast  = _Newvec + _Newsize;

  0010e	8b 45 f4	 mov	 eax, DWORD PTR __Newsize$1$[ebp]
  00111	89 3e		 mov	 DWORD PTR [esi], edi
  00113	8d 0c 87	 lea	 ecx, DWORD PTR [edi+eax*4]

; 901  :         _Change_array(_Newvec, _Newsize, _Newcapacity);
; 902  :         return _Newvec + _Whereoff;

  00116	8b c3		 mov	 eax, ebx

; 2061 :         _Mylast  = _Newvec + _Newsize;

  00118	89 4e 04	 mov	 DWORD PTR [esi+4], ecx

; 2062 :         _Myend   = _Newvec + _Newcapacity;

  0011b	8b 4d f8	 mov	 ecx, DWORD PTR tv652[ebp]
  0011e	03 cf		 add	 ecx, edi

; 903  :     }

  00120	5f		 pop	 edi

; 2062 :         _Myend   = _Newvec + _Newcapacity;

  00121	89 4e 08	 mov	 DWORD PTR [esi+8], ecx

; 903  :     }

  00124	5e		 pop	 esi
  00125	5b		 pop	 ebx
  00126	8b e5		 mov	 esp, ebp
  00128	5d		 pop	 ebp
  00129	c2 08 00	 ret	 8
$LN80@Emplace_re:
; File D:\Program Files\Microsoft Visual Studio\2022\Community\VC\Tools\MSVC\14.43.34808\include\xmemory

; 219  :     _STL_VERIFY(_Back_shift >= _Min_back_shift && _Back_shift <= _Non_user_size, "invalid argument");

  0012c	e8 00 00 00 00	 call	 __invalid_parameter_noinfo_noreturn
$LN123@Emplace_re:
; File D:\Program Files\Microsoft Visual Studio\2022\Community\VC\Tools\MSVC\14.43.34808\include\vector

; 873  :             _Xlength();

  00131	e8 00 00 00 00	 call	 ?_Xlength@?$vector@PAVCEffectData@@V?$allocator@PAVCEffectData@@@std@@@std@@CAXXZ ; std::vector<CEffectData *,std::allocator<CEffectData *> >::_Xlength
$LN124@Emplace_re:
; File D:\Program Files\Microsoft Visual Studio\2022\Community\VC\Tools\MSVC\14.43.34808\include\xmemory

; 118  :             _Throw_bad_array_new_length(); // multiply overflow

  00136	e8 00 00 00 00	 call	 ?_Throw_bad_array_new_length@std@@YAXXZ ; std::_Throw_bad_array_new_length
$LN120@Emplace_re:
  0013b	cc		 int	 3
??$_Emplace_reallocate@ABQAVCEffectData@@@?$vector@PAVCEffectData@@V?$allocator@PAVCEffectData@@@std@@@std@@AAEPAPAVCEffectData@@QAPAV2@ABQAV2@@Z ENDP ; std::vector<CEffectData *,std::allocator<CEffectData *> >::_Emplace_reallocate<CEffectData * const &>
_TEXT	ENDS
; Function compile flags: /Ogtp
; File D:\Program Files\Microsoft Visual Studio\2022\Community\VC\Tools\MSVC\14.43.34808\include\vector
; File D:\Program Files\Microsoft Visual Studio\2022\Community\VC\Tools\MSVC\14.43.34808\include\xmemory
; File D:\Program Files\Microsoft Visual Studio\2022\Community\VC\Tools\MSVC\14.43.34808\include\vector
; File D:\Program Files\Microsoft Visual Studio\2022\Community\VC\Tools\MSVC\14.43.34808\include\xmemory
; File D:\Program Files\Microsoft Visual Studio\2022\Community\VC\Tools\MSVC\14.43.34808\include\vector
; File D:\Program Files\Microsoft Visual Studio\2022\Community\VC\Tools\MSVC\14.43.34808\include\xmemory
; File D:\Program Files\Microsoft Visual Studio\2022\Community\VC\Tools\MSVC\14.43.34808\include\vector
; File D:\Program Files\Microsoft Visual Studio\2022\Community\VC\Tools\MSVC\14.43.34808\include\xmemory
; File D:\Program Files\Microsoft Visual Studio\2022\Community\VC\Tools\MSVC\14.43.34808\include\vector
; File D:\Program Files\Microsoft Visual Studio\2022\Community\VC\Tools\MSVC\14.43.34808\include\xmemory
; File D:\Program Files\Microsoft Visual Studio\2022\Community\VC\Tools\MSVC\14.43.34808\include\vector
; File D:\Program Files\Microsoft Visual Studio\2022\Community\VC\Tools\MSVC\14.43.34808\include\xmemory
; File D:\Program Files\Microsoft Visual Studio\2022\Community\VC\Tools\MSVC\14.43.34808\include\vector
; File D:\Program Files\Microsoft Visual Studio\2022\Community\VC\Tools\MSVC\14.43.34808\include\xmemory
; File D:\Program Files\Microsoft Visual Studio\2022\Community\VC\Tools\MSVC\14.43.34808\include\vector
; File D:\Program Files\Microsoft Visual Studio\2022\Community\VC\Tools\MSVC\14.43.34808\include\xmemory
; File D:\Program Files\Microsoft Visual Studio\2022\Community\VC\Tools\MSVC\14.43.34808\include\vector
;	COMDAT ??$_Emplace_reallocate@ABQAVCParticleSystemData@@@?$vector@PAVCParticleSystemData@@V?$allocator@PAVCParticleSystemData@@@std@@@std@@AAEPAPAVCParticleSystemData@@QAPAV2@ABQAV2@@Z
_TEXT	SEGMENT
__Newsize$1$ = -12					; size = 4
tv652 = -8						; size = 4
tv650 = -4						; size = 4
__Whereptr$ = 8						; size = 4
_<_Val_0>$ = 12						; size = 4
??$_Emplace_reallocate@ABQAVCParticleSystemData@@@?$vector@PAVCParticleSystemData@@V?$allocator@PAVCParticleSystemData@@@std@@@std@@AAEPAPAVCParticleSystemData@@QAPAV2@ABQAV2@@Z PROC ; std::vector<CParticleSystemData *,std::allocator<CParticleSystemData *> >::_Emplace_reallocate<CParticleSystemData * const &>, COMDAT
; _this$ = ecx

; 860  :     _CONSTEXPR20 pointer _Emplace_reallocate(const pointer _Whereptr, _Valty&&... _Val) {

  00000	55		 push	 ebp
  00001	8b ec		 mov	 ebp, esp
  00003	83 ec 0c	 sub	 esp, 12			; 0000000cH
  00006	53		 push	 ebx

; 861  :         // reallocate and insert by perfectly forwarding _Val at _Whereptr
; 862  :         _Alty& _Al        = _Getal();
; 863  :         auto& _My_data    = _Mypair._Myval2;
; 864  :         pointer& _Myfirst = _My_data._Myfirst;
; 865  :         pointer& _Mylast  = _My_data._Mylast;
; 866  : 
; 867  :         _STL_INTERNAL_CHECK(_Mylast == _My_data._Myend); // check that we have no unused capacity
; 868  : 
; 869  :         const auto _Whereoff = static_cast<size_type>(_Whereptr - _Myfirst);

  00007	8b 5d 08	 mov	 ebx, DWORD PTR __Whereptr$[ebp]
  0000a	56		 push	 esi
  0000b	8b f1		 mov	 esi, ecx
  0000d	57		 push	 edi
  0000e	8b 0e		 mov	 ecx, DWORD PTR [esi]
  00010	2b d9		 sub	 ebx, ecx

; 870  :         const auto _Oldsize  = static_cast<size_type>(_Mylast - _Myfirst);

  00012	8b 46 04	 mov	 eax, DWORD PTR [esi+4]
  00015	2b c1		 sub	 eax, ecx
  00017	c1 fb 02	 sar	 ebx, 2
  0001a	c1 f8 02	 sar	 eax, 2

; 871  : 
; 872  :         if (_Oldsize == max_size()) {

  0001d	3d ff ff ff 3f	 cmp	 eax, 1073741823		; 3fffffffH
  00022	0f 84 09 01 00
	00		 je	 $LN123@Emplace_re

; 1909 :         return static_cast<size_type>(_My_data._Myend - _My_data._Myfirst);

  00028	8b 56 08	 mov	 edx, DWORD PTR [esi+8]

; 874  :         }
; 875  : 
; 876  :         const size_type _Newsize = _Oldsize + 1;

  0002b	8d 78 01	 lea	 edi, DWORD PTR [eax+1]

; 1909 :         return static_cast<size_type>(_My_data._Myend - _My_data._Myfirst);

  0002e	2b d1		 sub	 edx, ecx

; 874  :         }
; 875  : 
; 876  :         const size_type _Newsize = _Oldsize + 1;

  00030	89 7d f4	 mov	 DWORD PTR __Newsize$1$[ebp], edi

; 1909 :         return static_cast<size_type>(_My_data._Myend - _My_data._Myfirst);

  00033	c1 fa 02	 sar	 edx, 2

; 1996 :         if (_Oldcapacity > _Max - _Oldcapacity / 2) {

  00036	b8 ff ff ff 3f	 mov	 eax, 1073741823		; 3fffffffH
  0003b	8b ca		 mov	 ecx, edx
  0003d	d1 e9		 shr	 ecx, 1
  0003f	2b c1		 sub	 eax, ecx
  00041	3b d0		 cmp	 edx, eax
  00043	76 14		 jbe	 SHORT $LN8@Emplace_re

; 1997 :             return _Max; // geometric growth would overflow

  00045	b8 fc ff ff ff	 mov	 eax, -4			; fffffffcH
  0004a	c7 45 f8 fc ff
	ff ff		 mov	 DWORD PTR tv652[ebp], -4 ; fffffffcH
; File D:\Program Files\Microsoft Visual Studio\2022\Community\VC\Tools\MSVC\14.43.34808\include\xmemory

; 253  :             return _Allocate_manually_vector_aligned<_Traits>(_Bytes);

  00051	50		 push	 eax
  00052	e8 00 00 00 00	 call	 ??$_Allocate_manually_vector_aligned@U_Default_allocate_traits@std@@@std@@YAPAXI@Z ; std::_Allocate_manually_vector_aligned<std::_Default_allocate_traits>
  00057	eb 3d		 jmp	 SHORT $LN121@Emplace_re
$LN8@Emplace_re:
; File D:\Program Files\Microsoft Visual Studio\2022\Community\VC\Tools\MSVC\14.43.34808\include\vector

; 2000 :         const size_type _Geometric = _Oldcapacity + _Oldcapacity / 2;

  00059	8d 04 11	 lea	 eax, DWORD PTR [ecx+edx]
; File D:\Program Files\Microsoft Visual Studio\2022\Community\VC\Tools\MSVC\14.43.34808\include\xmemory

; 117  :         if (_Count > _Max_possible) {

  0005c	8b cf		 mov	 ecx, edi
  0005e	3b c7		 cmp	 eax, edi
  00060	0f 43 c8	 cmovae	 ecx, eax
  00063	81 f9 ff ff ff
	3f		 cmp	 ecx, 1073741823		; 3fffffffH
  00069	0f 87 c7 00 00
	00		 ja	 $LN124@Emplace_re

; 119  :         }
; 120  :     }
; 121  : 
; 122  :     return _Count * _Ty_size;

  0006f	8d 04 8d 00 00
	00 00		 lea	 eax, DWORD PTR [ecx*4]
  00076	89 45 f8	 mov	 DWORD PTR tv652[ebp], eax

; 227  :     if (_Bytes == 0) {

  00079	85 c0		 test	 eax, eax
  0007b	75 04		 jne	 SHORT $LN23@Emplace_re

; 228  :         return nullptr;

  0007d	33 ff		 xor	 edi, edi
  0007f	eb 1a		 jmp	 SHORT $LN22@Emplace_re
$LN23@Emplace_re:

; 229  :     }
; 230  : 
; 231  : #if _HAS_CXX20 // TRANSITION, GH-1532
; 232  :     if (_STD is_constant_evaluated()) {
; 233  :         return _Traits::_Allocate(_Bytes);
; 234  :     }
; 235  : #endif // _HAS_CXX20
; 236  : 
; 237  : #ifdef __cpp_aligned_new
; 238  :     if constexpr (_Align > __STDCPP_DEFAULT_NEW_ALIGNMENT__) {
; 239  :         size_t _Passed_align = _Align;
; 240  : #if defined(_M_IX86) || defined(_M_X64)
; 241  :         if (_Bytes >= _Big_allocation_threshold) {
; 242  :             // boost the alignment of big allocations to help autovectorization
; 243  :             _Passed_align = (_STD max)(_Align, _Big_allocation_alignment);
; 244  :         }
; 245  : #endif // defined(_M_IX86) || defined(_M_X64)
; 246  :         return _Traits::_Allocate_aligned(_Bytes, _Passed_align);
; 247  :     } else
; 248  : #endif // defined(__cpp_aligned_new)
; 249  :     {
; 250  : #if defined(_M_IX86) || defined(_M_X64)
; 251  :         if (_Bytes >= _Big_allocation_threshold) {

  00081	3d 00 10 00 00	 cmp	 eax, 4096		; 00001000H
  00086	72 08		 jb	 SHORT $LN24@Emplace_re

; 253  :             return _Allocate_manually_vector_aligned<_Traits>(_Bytes);

  00088	50		 push	 eax
  00089	e8 00 00 00 00	 call	 ??$_Allocate_manually_vector_aligned@U_Default_allocate_traits@std@@@std@@YAPAXI@Z ; std::_Allocate_manually_vector_aligned<std::_Default_allocate_traits>
  0008e	eb 06		 jmp	 SHORT $LN121@Emplace_re
$LN24@Emplace_re:

; 136  :         return ::operator new(_Bytes);

  00090	50		 push	 eax
  00091	e8 00 00 00 00	 call	 ??2@YAPAXI@Z		; operator new
$LN121@Emplace_re:
; File D:\Program Files\Microsoft Visual Studio\2022\Community\VC\Tools\MSVC\14.43.34808\include\vector

; 885  :         _Alty_traits::construct(_Al, _STD _Unfancy(_Newvec + _Whereoff), _STD forward<_Valty>(_Val)...);

  00096	8b f8		 mov	 edi, eax
  00098	83 c4 04	 add	 esp, 4
$LN22@Emplace_re:
  0009b	8b 45 0c	 mov	 eax, DWORD PTR _<_Val_0>$[ebp]
  0009e	8d 0c 9f	 lea	 ecx, DWORD PTR [edi+ebx*4]

; 886  :         _Constructed_first = _Newvec + _Whereoff;
; 887  : 
; 888  :         if (_Whereptr == _Mylast) { // at back, provide strong guarantee

  000a1	8b 5d 08	 mov	 ebx, DWORD PTR __Whereptr$[ebp]
  000a4	89 4d fc	 mov	 DWORD PTR tv650[ebp], ecx
  000a7	8b 00		 mov	 eax, DWORD PTR [eax]
  000a9	89 01		 mov	 DWORD PTR [ecx], eax
  000ab	8b 46 04	 mov	 eax, DWORD PTR [esi+4]
  000ae	8b 0e		 mov	 ecx, DWORD PTR [esi]
  000b0	3b d8		 cmp	 ebx, eax
  000b2	75 07		 jne	 SHORT $LN3@Emplace_re

; 894  :         } else { // provide basic guarantee

  000b4	8b 5d fc	 mov	 ebx, DWORD PTR tv650[ebp]
; File D:\Program Files\Microsoft Visual Studio\2022\Community\VC\Tools\MSVC\14.43.34808\include\xmemory

; 1955 :             _STD _Copy_memmove(_UFirst, _ULast, _STD _Unfancy(_Dest));

  000b7	8b d7		 mov	 edx, edi
; File D:\Program Files\Microsoft Visual Studio\2022\Community\VC\Tools\MSVC\14.43.34808\include\vector

; 894  :         } else { // provide basic guarantee

  000b9	eb 16		 jmp	 SHORT $LN52@Emplace_re
$LN3@Emplace_re:
; File D:\Program Files\Microsoft Visual Studio\2022\Community\VC\Tools\MSVC\14.43.34808\include\xmemory

; 1955 :             _STD _Copy_memmove(_UFirst, _ULast, _STD _Unfancy(_Dest));

  000bb	57		 push	 edi
  000bc	53		 push	 ebx
  000bd	51		 push	 ecx
  000be	e8 00 00 00 00	 call	 ??$_Copy_memmove@PAPAVCParticleSystemData@@PAPAV1@@std@@YAPAPAVCParticleSystemData@@PAPAV1@00@Z ; std::_Copy_memmove<CParticleSystemData * *,CParticleSystemData * *>
  000c3	8b 46 04	 mov	 eax, DWORD PTR [esi+4]
  000c6	8b cb		 mov	 ecx, ebx
; File D:\Program Files\Microsoft Visual Studio\2022\Community\VC\Tools\MSVC\14.43.34808\include\vector

; 897  :             _STD _Uninitialized_move(_Whereptr, _Mylast, _Newvec + _Whereoff + 1, _Al);

  000c8	8b 5d fc	 mov	 ebx, DWORD PTR tv650[ebp]
; File D:\Program Files\Microsoft Visual Studio\2022\Community\VC\Tools\MSVC\14.43.34808\include\xmemory

; 1955 :             _STD _Copy_memmove(_UFirst, _ULast, _STD _Unfancy(_Dest));

  000cb	83 c4 0c	 add	 esp, 12			; 0000000cH
; File D:\Program Files\Microsoft Visual Studio\2022\Community\VC\Tools\MSVC\14.43.34808\include\vector

; 897  :             _STD _Uninitialized_move(_Whereptr, _Mylast, _Newvec + _Whereoff + 1, _Al);

  000ce	8d 53 04	 lea	 edx, DWORD PTR [ebx+4]
$LN52@Emplace_re:

; 898  :         }
; 899  : 
; 900  :         _Guard._New_begin = nullptr;

  000d1	52		 push	 edx
  000d2	50		 push	 eax
  000d3	51		 push	 ecx
  000d4	e8 00 00 00 00	 call	 ??$_Copy_memmove@PAPAVCParticleSystemData@@PAPAV1@@std@@YAPAPAVCParticleSystemData@@PAPAV1@00@Z ; std::_Copy_memmove<CParticleSystemData * *,CParticleSystemData * *>

; 2054 :         if (_Myfirst) { // destroy and deallocate old array

  000d9	8b 06		 mov	 eax, DWORD PTR [esi]

; 898  :         }
; 899  : 
; 900  :         _Guard._New_begin = nullptr;

  000db	83 c4 0c	 add	 esp, 12			; 0000000cH

; 2054 :         if (_Myfirst) { // destroy and deallocate old array

  000de	85 c0		 test	 eax, eax
  000e0	74 2c		 je	 SHORT $LN72@Emplace_re

; 2055 :             _STD _Destroy_range(_Myfirst, _Mylast, _Al);
; 2056 :             _ASAN_VECTOR_REMOVE;
; 2057 :             _Al.deallocate(_Myfirst, static_cast<size_type>(_Myend - _Myfirst));

  000e2	8b 4e 08	 mov	 ecx, DWORD PTR [esi+8]
  000e5	2b c8		 sub	 ecx, eax
; File D:\Program Files\Microsoft Visual Studio\2022\Community\VC\Tools\MSVC\14.43.34808\include\xmemory

; 981  :         _STD _Deallocate<_New_alignof<_Ty>>(_Ptr, sizeof(_Ty) * _Count);

  000e7	83 e1 fc	 and	 ecx, -4			; fffffffcH

; 284  :         if (_Bytes >= _Big_allocation_threshold) {

  000ea	81 f9 00 10 00
	00		 cmp	 ecx, 4096		; 00001000H
  000f0	72 12		 jb	 SHORT $LN83@Emplace_re

; 205  :     const uintptr_t _Ptr_container   = _Ptr_user[-1];

  000f2	8b 50 fc	 mov	 edx, DWORD PTR [eax-4]
  000f5	83 c1 23	 add	 ecx, 35			; 00000023H

; 206  : 
; 207  :     // If the following asserts, it likely means that we are performing
; 208  :     // an aligned delete on memory coming from an unaligned allocation.
; 209  :     _STL_ASSERT(_Ptr_user[-2] == _Big_allocation_sentinel, "invalid argument");
; 210  : 
; 211  :     // Extra paranoia on aligned allocation/deallocation; ensure _Ptr_container is
; 212  :     // in range [_Min_back_shift, _Non_user_size]
; 213  : #ifdef _DEBUG
; 214  :     constexpr uintptr_t _Min_back_shift = 2 * sizeof(void*);
; 215  : #else // ^^^ defined(_DEBUG) / !defined(_DEBUG) vvv
; 216  :     constexpr uintptr_t _Min_back_shift = sizeof(void*);
; 217  : #endif // ^^^ !defined(_DEBUG) ^^^
; 218  :     const uintptr_t _Back_shift = reinterpret_cast<uintptr_t>(_Ptr) - _Ptr_container;

  000f8	2b c2		 sub	 eax, edx

; 219  :     _STL_VERIFY(_Back_shift >= _Min_back_shift && _Back_shift <= _Non_user_size, "invalid argument");

  000fa	83 c0 fc	 add	 eax, -4			; fffffffcH
  000fd	83 f8 1f	 cmp	 eax, 31			; 0000001fH
  00100	77 2a		 ja	 SHORT $LN80@Emplace_re

; 220  :     _Ptr = reinterpret_cast<void*>(_Ptr_container);

  00102	8b c2		 mov	 eax, edx
$LN83@Emplace_re:

; 289  :         ::operator delete(_Ptr, _Bytes);

  00104	51		 push	 ecx
  00105	50		 push	 eax
  00106	e8 00 00 00 00	 call	 ??3@YAXPAXI@Z		; operator delete
  0010b	83 c4 08	 add	 esp, 8
$LN72@Emplace_re:
; File D:\Program Files\Microsoft Visual Studio\2022\Community\VC\Tools\MSVC\14.43.34808\include\vector

; 2061 :         _Mylast  = _Newvec + _Newsize;

  0010e	8b 45 f4	 mov	 eax, DWORD PTR __Newsize$1$[ebp]
  00111	89 3e		 mov	 DWORD PTR [esi], edi
  00113	8d 0c 87	 lea	 ecx, DWORD PTR [edi+eax*4]

; 901  :         _Change_array(_Newvec, _Newsize, _Newcapacity);
; 902  :         return _Newvec + _Whereoff;

  00116	8b c3		 mov	 eax, ebx

; 2061 :         _Mylast  = _Newvec + _Newsize;

  00118	89 4e 04	 mov	 DWORD PTR [esi+4], ecx

; 2062 :         _Myend   = _Newvec + _Newcapacity;

  0011b	8b 4d f8	 mov	 ecx, DWORD PTR tv652[ebp]
  0011e	03 cf		 add	 ecx, edi

; 903  :     }

  00120	5f		 pop	 edi

; 2062 :         _Myend   = _Newvec + _Newcapacity;

  00121	89 4e 08	 mov	 DWORD PTR [esi+8], ecx

; 903  :     }

  00124	5e		 pop	 esi
  00125	5b		 pop	 ebx
  00126	8b e5		 mov	 esp, ebp
  00128	5d		 pop	 ebp
  00129	c2 08 00	 ret	 8
$LN80@Emplace_re:
; File D:\Program Files\Microsoft Visual Studio\2022\Community\VC\Tools\MSVC\14.43.34808\include\xmemory

; 219  :     _STL_VERIFY(_Back_shift >= _Min_back_shift && _Back_shift <= _Non_user_size, "invalid argument");

  0012c	e8 00 00 00 00	 call	 __invalid_parameter_noinfo_noreturn
$LN123@Emplace_re:
; File D:\Program Files\Microsoft Visual Studio\2022\Community\VC\Tools\MSVC\14.43.34808\include\vector

; 873  :             _Xlength();

  00131	e8 00 00 00 00	 call	 ?_Xlength@?$vector@PAVCParticleSystemData@@V?$allocator@PAVCParticleSystemData@@@std@@@std@@CAXXZ ; std::vector<CParticleSystemData *,std::allocator<CParticleSystemData *> >::_Xlength
$LN124@Emplace_re:
; File D:\Program Files\Microsoft Visual Studio\2022\Community\VC\Tools\MSVC\14.43.34808\include\xmemory

; 118  :             _Throw_bad_array_new_length(); // multiply overflow

  00136	e8 00 00 00 00	 call	 ?_Throw_bad_array_new_length@std@@YAXXZ ; std::_Throw_bad_array_new_length
$LN120@Emplace_re:
  0013b	cc		 int	 3
??$_Emplace_reallocate@ABQAVCParticleSystemData@@@?$vector@PAVCParticleSystemData@@V?$allocator@PAVCParticleSystemData@@@std@@@std@@AAEPAPAVCParticleSystemData@@QAPAV2@ABQAV2@@Z ENDP ; std::vector<CParticleSystemData *,std::allocator<CParticleSystemData *> >::_Emplace_reallocate<CParticleSystemData * const &>
_TEXT	ENDS
; Function compile flags: /Ogtp
; File D:\Program Files\Microsoft Visual Studio\2022\Community\VC\Tools\MSVC\14.43.34808\include\vector
; File D:\Program Files\Microsoft Visual Studio\2022\Community\VC\Tools\MSVC\14.43.34808\include\xmemory
; File D:\Program Files\Microsoft Visual Studio\2022\Community\VC\Tools\MSVC\14.43.34808\include\vector
; File D:\Program Files\Microsoft Visual Studio\2022\Community\VC\Tools\MSVC\14.43.34808\include\xmemory
; File D:\Program Files\Microsoft Visual Studio\2022\Community\VC\Tools\MSVC\14.43.34808\include\vector
; File D:\Program Files\Microsoft Visual Studio\2022\Community\VC\Tools\MSVC\14.43.34808\include\xmemory
; File D:\Program Files\Microsoft Visual Studio\2022\Community\VC\Tools\MSVC\14.43.34808\include\vector
; File D:\Program Files\Microsoft Visual Studio\2022\Community\VC\Tools\MSVC\14.43.34808\include\xmemory
; File D:\Program Files\Microsoft Visual Studio\2022\Community\VC\Tools\MSVC\14.43.34808\include\vector
; File D:\Program Files\Microsoft Visual Studio\2022\Community\VC\Tools\MSVC\14.43.34808\include\xmemory
; File D:\Program Files\Microsoft Visual Studio\2022\Community\VC\Tools\MSVC\14.43.34808\include\vector
; File D:\Program Files\Microsoft Visual Studio\2022\Community\VC\Tools\MSVC\14.43.34808\include\xmemory
; File D:\Program Files\Microsoft Visual Studio\2022\Community\VC\Tools\MSVC\14.43.34808\include\vector
; File D:\Program Files\Microsoft Visual Studio\2022\Community\VC\Tools\MSVC\14.43.34808\include\xmemory
; File D:\Program Files\Microsoft Visual Studio\2022\Community\VC\Tools\MSVC\14.43.34808\include\vector
; File D:\Program Files\Microsoft Visual Studio\2022\Community\VC\Tools\MSVC\14.43.34808\include\xmemory
; File D:\Program Files\Microsoft Visual Studio\2022\Community\VC\Tools\MSVC\14.43.34808\include\vector
;	COMDAT ??$_Emplace_reallocate@ABQAVCEffectMeshScript@@@?$vector@PAVCEffectMeshScript@@V?$allocator@PAVCEffectMeshScript@@@std@@@std@@AAEPAPAVCEffectMeshScript@@QAPAV2@ABQAV2@@Z
_TEXT	SEGMENT
__Newsize$1$ = -12					; size = 4
tv652 = -8						; size = 4
tv650 = -4						; size = 4
__Whereptr$ = 8						; size = 4
_<_Val_0>$ = 12						; size = 4
??$_Emplace_reallocate@ABQAVCEffectMeshScript@@@?$vector@PAVCEffectMeshScript@@V?$allocator@PAVCEffectMeshScript@@@std@@@std@@AAEPAPAVCEffectMeshScript@@QAPAV2@ABQAV2@@Z PROC ; std::vector<CEffectMeshScript *,std::allocator<CEffectMeshScript *> >::_Emplace_reallocate<CEffectMeshScript * const &>, COMDAT
; _this$ = ecx

; 860  :     _CONSTEXPR20 pointer _Emplace_reallocate(const pointer _Whereptr, _Valty&&... _Val) {

  00000	55		 push	 ebp
  00001	8b ec		 mov	 ebp, esp
  00003	83 ec 0c	 sub	 esp, 12			; 0000000cH
  00006	53		 push	 ebx

; 861  :         // reallocate and insert by perfectly forwarding _Val at _Whereptr
; 862  :         _Alty& _Al        = _Getal();
; 863  :         auto& _My_data    = _Mypair._Myval2;
; 864  :         pointer& _Myfirst = _My_data._Myfirst;
; 865  :         pointer& _Mylast  = _My_data._Mylast;
; 866  : 
; 867  :         _STL_INTERNAL_CHECK(_Mylast == _My_data._Myend); // check that we have no unused capacity
; 868  : 
; 869  :         const auto _Whereoff = static_cast<size_type>(_Whereptr - _Myfirst);

  00007	8b 5d 08	 mov	 ebx, DWORD PTR __Whereptr$[ebp]
  0000a	56		 push	 esi
  0000b	8b f1		 mov	 esi, ecx
  0000d	57		 push	 edi
  0000e	8b 0e		 mov	 ecx, DWORD PTR [esi]
  00010	2b d9		 sub	 ebx, ecx

; 870  :         const auto _Oldsize  = static_cast<size_type>(_Mylast - _Myfirst);

  00012	8b 46 04	 mov	 eax, DWORD PTR [esi+4]
  00015	2b c1		 sub	 eax, ecx
  00017	c1 fb 02	 sar	 ebx, 2
  0001a	c1 f8 02	 sar	 eax, 2

; 871  : 
; 872  :         if (_Oldsize == max_size()) {

  0001d	3d ff ff ff 3f	 cmp	 eax, 1073741823		; 3fffffffH
  00022	0f 84 09 01 00
	00		 je	 $LN123@Emplace_re

; 1909 :         return static_cast<size_type>(_My_data._Myend - _My_data._Myfirst);

  00028	8b 56 08	 mov	 edx, DWORD PTR [esi+8]

; 874  :         }
; 875  : 
; 876  :         const size_type _Newsize = _Oldsize + 1;

  0002b	8d 78 01	 lea	 edi, DWORD PTR [eax+1]

; 1909 :         return static_cast<size_type>(_My_data._Myend - _My_data._Myfirst);

  0002e	2b d1		 sub	 edx, ecx

; 874  :         }
; 875  : 
; 876  :         const size_type _Newsize = _Oldsize + 1;

  00030	89 7d f4	 mov	 DWORD PTR __Newsize$1$[ebp], edi

; 1909 :         return static_cast<size_type>(_My_data._Myend - _My_data._Myfirst);

  00033	c1 fa 02	 sar	 edx, 2

; 1996 :         if (_Oldcapacity > _Max - _Oldcapacity / 2) {

  00036	b8 ff ff ff 3f	 mov	 eax, 1073741823		; 3fffffffH
  0003b	8b ca		 mov	 ecx, edx
  0003d	d1 e9		 shr	 ecx, 1
  0003f	2b c1		 sub	 eax, ecx
  00041	3b d0		 cmp	 edx, eax
  00043	76 14		 jbe	 SHORT $LN8@Emplace_re

; 1997 :             return _Max; // geometric growth would overflow

  00045	b8 fc ff ff ff	 mov	 eax, -4			; fffffffcH
  0004a	c7 45 f8 fc ff
	ff ff		 mov	 DWORD PTR tv652[ebp], -4 ; fffffffcH
; File D:\Program Files\Microsoft Visual Studio\2022\Community\VC\Tools\MSVC\14.43.34808\include\xmemory

; 253  :             return _Allocate_manually_vector_aligned<_Traits>(_Bytes);

  00051	50		 push	 eax
  00052	e8 00 00 00 00	 call	 ??$_Allocate_manually_vector_aligned@U_Default_allocate_traits@std@@@std@@YAPAXI@Z ; std::_Allocate_manually_vector_aligned<std::_Default_allocate_traits>
  00057	eb 3d		 jmp	 SHORT $LN121@Emplace_re
$LN8@Emplace_re:
; File D:\Program Files\Microsoft Visual Studio\2022\Community\VC\Tools\MSVC\14.43.34808\include\vector

; 2000 :         const size_type _Geometric = _Oldcapacity + _Oldcapacity / 2;

  00059	8d 04 11	 lea	 eax, DWORD PTR [ecx+edx]
; File D:\Program Files\Microsoft Visual Studio\2022\Community\VC\Tools\MSVC\14.43.34808\include\xmemory

; 117  :         if (_Count > _Max_possible) {

  0005c	8b cf		 mov	 ecx, edi
  0005e	3b c7		 cmp	 eax, edi
  00060	0f 43 c8	 cmovae	 ecx, eax
  00063	81 f9 ff ff ff
	3f		 cmp	 ecx, 1073741823		; 3fffffffH
  00069	0f 87 c7 00 00
	00		 ja	 $LN124@Emplace_re

; 119  :         }
; 120  :     }
; 121  : 
; 122  :     return _Count * _Ty_size;

  0006f	8d 04 8d 00 00
	00 00		 lea	 eax, DWORD PTR [ecx*4]
  00076	89 45 f8	 mov	 DWORD PTR tv652[ebp], eax

; 227  :     if (_Bytes == 0) {

  00079	85 c0		 test	 eax, eax
  0007b	75 04		 jne	 SHORT $LN23@Emplace_re

; 228  :         return nullptr;

  0007d	33 ff		 xor	 edi, edi
  0007f	eb 1a		 jmp	 SHORT $LN22@Emplace_re
$LN23@Emplace_re:

; 229  :     }
; 230  : 
; 231  : #if _HAS_CXX20 // TRANSITION, GH-1532
; 232  :     if (_STD is_constant_evaluated()) {
; 233  :         return _Traits::_Allocate(_Bytes);
; 234  :     }
; 235  : #endif // _HAS_CXX20
; 236  : 
; 237  : #ifdef __cpp_aligned_new
; 238  :     if constexpr (_Align > __STDCPP_DEFAULT_NEW_ALIGNMENT__) {
; 239  :         size_t _Passed_align = _Align;
; 240  : #if defined(_M_IX86) || defined(_M_X64)
; 241  :         if (_Bytes >= _Big_allocation_threshold) {
; 242  :             // boost the alignment of big allocations to help autovectorization
; 243  :             _Passed_align = (_STD max)(_Align, _Big_allocation_alignment);
; 244  :         }
; 245  : #endif // defined(_M_IX86) || defined(_M_X64)
; 246  :         return _Traits::_Allocate_aligned(_Bytes, _Passed_align);
; 247  :     } else
; 248  : #endif // defined(__cpp_aligned_new)
; 249  :     {
; 250  : #if defined(_M_IX86) || defined(_M_X64)
; 251  :         if (_Bytes >= _Big_allocation_threshold) {

  00081	3d 00 10 00 00	 cmp	 eax, 4096		; 00001000H
  00086	72 08		 jb	 SHORT $LN24@Emplace_re

; 253  :             return _Allocate_manually_vector_aligned<_Traits>(_Bytes);

  00088	50		 push	 eax
  00089	e8 00 00 00 00	 call	 ??$_Allocate_manually_vector_aligned@U_Default_allocate_traits@std@@@std@@YAPAXI@Z ; std::_Allocate_manually_vector_aligned<std::_Default_allocate_traits>
  0008e	eb 06		 jmp	 SHORT $LN121@Emplace_re
$LN24@Emplace_re:

; 136  :         return ::operator new(_Bytes);

  00090	50		 push	 eax
  00091	e8 00 00 00 00	 call	 ??2@YAPAXI@Z		; operator new
$LN121@Emplace_re:
; File D:\Program Files\Microsoft Visual Studio\2022\Community\VC\Tools\MSVC\14.43.34808\include\vector

; 885  :         _Alty_traits::construct(_Al, _STD _Unfancy(_Newvec + _Whereoff), _STD forward<_Valty>(_Val)...);

  00096	8b f8		 mov	 edi, eax
  00098	83 c4 04	 add	 esp, 4
$LN22@Emplace_re:
  0009b	8b 45 0c	 mov	 eax, DWORD PTR _<_Val_0>$[ebp]
  0009e	8d 0c 9f	 lea	 ecx, DWORD PTR [edi+ebx*4]

; 886  :         _Constructed_first = _Newvec + _Whereoff;
; 887  : 
; 888  :         if (_Whereptr == _Mylast) { // at back, provide strong guarantee

  000a1	8b 5d 08	 mov	 ebx, DWORD PTR __Whereptr$[ebp]
  000a4	89 4d fc	 mov	 DWORD PTR tv650[ebp], ecx
  000a7	8b 00		 mov	 eax, DWORD PTR [eax]
  000a9	89 01		 mov	 DWORD PTR [ecx], eax
  000ab	8b 46 04	 mov	 eax, DWORD PTR [esi+4]
  000ae	8b 0e		 mov	 ecx, DWORD PTR [esi]
  000b0	3b d8		 cmp	 ebx, eax
  000b2	75 07		 jne	 SHORT $LN3@Emplace_re

; 894  :         } else { // provide basic guarantee

  000b4	8b 5d fc	 mov	 ebx, DWORD PTR tv650[ebp]
; File D:\Program Files\Microsoft Visual Studio\2022\Community\VC\Tools\MSVC\14.43.34808\include\xmemory

; 1955 :             _STD _Copy_memmove(_UFirst, _ULast, _STD _Unfancy(_Dest));

  000b7	8b d7		 mov	 edx, edi
; File D:\Program Files\Microsoft Visual Studio\2022\Community\VC\Tools\MSVC\14.43.34808\include\vector

; 894  :         } else { // provide basic guarantee

  000b9	eb 16		 jmp	 SHORT $LN52@Emplace_re
$LN3@Emplace_re:
; File D:\Program Files\Microsoft Visual Studio\2022\Community\VC\Tools\MSVC\14.43.34808\include\xmemory

; 1955 :             _STD _Copy_memmove(_UFirst, _ULast, _STD _Unfancy(_Dest));

  000bb	57		 push	 edi
  000bc	53		 push	 ebx
  000bd	51		 push	 ecx
  000be	e8 00 00 00 00	 call	 ??$_Copy_memmove@PAPAVCEffectMeshScript@@PAPAV1@@std@@YAPAPAVCEffectMeshScript@@PAPAV1@00@Z ; std::_Copy_memmove<CEffectMeshScript * *,CEffectMeshScript * *>
  000c3	8b 46 04	 mov	 eax, DWORD PTR [esi+4]
  000c6	8b cb		 mov	 ecx, ebx
; File D:\Program Files\Microsoft Visual Studio\2022\Community\VC\Tools\MSVC\14.43.34808\include\vector

; 897  :             _STD _Uninitialized_move(_Whereptr, _Mylast, _Newvec + _Whereoff + 1, _Al);

  000c8	8b 5d fc	 mov	 ebx, DWORD PTR tv650[ebp]
; File D:\Program Files\Microsoft Visual Studio\2022\Community\VC\Tools\MSVC\14.43.34808\include\xmemory

; 1955 :             _STD _Copy_memmove(_UFirst, _ULast, _STD _Unfancy(_Dest));

  000cb	83 c4 0c	 add	 esp, 12			; 0000000cH
; File D:\Program Files\Microsoft Visual Studio\2022\Community\VC\Tools\MSVC\14.43.34808\include\vector

; 897  :             _STD _Uninitialized_move(_Whereptr, _Mylast, _Newvec + _Whereoff + 1, _Al);

  000ce	8d 53 04	 lea	 edx, DWORD PTR [ebx+4]
$LN52@Emplace_re:

; 898  :         }
; 899  : 
; 900  :         _Guard._New_begin = nullptr;

  000d1	52		 push	 edx
  000d2	50		 push	 eax
  000d3	51		 push	 ecx
  000d4	e8 00 00 00 00	 call	 ??$_Copy_memmove@PAPAVCEffectMeshScript@@PAPAV1@@std@@YAPAPAVCEffectMeshScript@@PAPAV1@00@Z ; std::_Copy_memmove<CEffectMeshScript * *,CEffectMeshScript * *>

; 2054 :         if (_Myfirst) { // destroy and deallocate old array

  000d9	8b 06		 mov	 eax, DWORD PTR [esi]

; 898  :         }
; 899  : 
; 900  :         _Guard._New_begin = nullptr;

  000db	83 c4 0c	 add	 esp, 12			; 0000000cH

; 2054 :         if (_Myfirst) { // destroy and deallocate old array

  000de	85 c0		 test	 eax, eax
  000e0	74 2c		 je	 SHORT $LN72@Emplace_re

; 2055 :             _STD _Destroy_range(_Myfirst, _Mylast, _Al);
; 2056 :             _ASAN_VECTOR_REMOVE;
; 2057 :             _Al.deallocate(_Myfirst, static_cast<size_type>(_Myend - _Myfirst));

  000e2	8b 4e 08	 mov	 ecx, DWORD PTR [esi+8]
  000e5	2b c8		 sub	 ecx, eax
; File D:\Program Files\Microsoft Visual Studio\2022\Community\VC\Tools\MSVC\14.43.34808\include\xmemory

; 981  :         _STD _Deallocate<_New_alignof<_Ty>>(_Ptr, sizeof(_Ty) * _Count);

  000e7	83 e1 fc	 and	 ecx, -4			; fffffffcH

; 284  :         if (_Bytes >= _Big_allocation_threshold) {

  000ea	81 f9 00 10 00
	00		 cmp	 ecx, 4096		; 00001000H
  000f0	72 12		 jb	 SHORT $LN83@Emplace_re

; 205  :     const uintptr_t _Ptr_container   = _Ptr_user[-1];

  000f2	8b 50 fc	 mov	 edx, DWORD PTR [eax-4]
  000f5	83 c1 23	 add	 ecx, 35			; 00000023H

; 206  : 
; 207  :     // If the following asserts, it likely means that we are performing
; 208  :     // an aligned delete on memory coming from an unaligned allocation.
; 209  :     _STL_ASSERT(_Ptr_user[-2] == _Big_allocation_sentinel, "invalid argument");
; 210  : 
; 211  :     // Extra paranoia on aligned allocation/deallocation; ensure _Ptr_container is
; 212  :     // in range [_Min_back_shift, _Non_user_size]
; 213  : #ifdef _DEBUG
; 214  :     constexpr uintptr_t _Min_back_shift = 2 * sizeof(void*);
; 215  : #else // ^^^ defined(_DEBUG) / !defined(_DEBUG) vvv
; 216  :     constexpr uintptr_t _Min_back_shift = sizeof(void*);
; 217  : #endif // ^^^ !defined(_DEBUG) ^^^
; 218  :     const uintptr_t _Back_shift = reinterpret_cast<uintptr_t>(_Ptr) - _Ptr_container;

  000f8	2b c2		 sub	 eax, edx

; 219  :     _STL_VERIFY(_Back_shift >= _Min_back_shift && _Back_shift <= _Non_user_size, "invalid argument");

  000fa	83 c0 fc	 add	 eax, -4			; fffffffcH
  000fd	83 f8 1f	 cmp	 eax, 31			; 0000001fH
  00100	77 2a		 ja	 SHORT $LN80@Emplace_re

; 220  :     _Ptr = reinterpret_cast<void*>(_Ptr_container);

  00102	8b c2		 mov	 eax, edx
$LN83@Emplace_re:

; 289  :         ::operator delete(_Ptr, _Bytes);

  00104	51		 push	 ecx
  00105	50		 push	 eax
  00106	e8 00 00 00 00	 call	 ??3@YAXPAXI@Z		; operator delete
  0010b	83 c4 08	 add	 esp, 8
$LN72@Emplace_re:
; File D:\Program Files\Microsoft Visual Studio\2022\Community\VC\Tools\MSVC\14.43.34808\include\vector

; 2061 :         _Mylast  = _Newvec + _Newsize;

  0010e	8b 45 f4	 mov	 eax, DWORD PTR __Newsize$1$[ebp]
  00111	89 3e		 mov	 DWORD PTR [esi], edi
  00113	8d 0c 87	 lea	 ecx, DWORD PTR [edi+eax*4]

; 901  :         _Change_array(_Newvec, _Newsize, _Newcapacity);
; 902  :         return _Newvec + _Whereoff;

  00116	8b c3		 mov	 eax, ebx

; 2061 :         _Mylast  = _Newvec + _Newsize;

  00118	89 4e 04	 mov	 DWORD PTR [esi+4], ecx

; 2062 :         _Myend   = _Newvec + _Newcapacity;

  0011b	8b 4d f8	 mov	 ecx, DWORD PTR tv652[ebp]
  0011e	03 cf		 add	 ecx, edi

; 903  :     }

  00120	5f		 pop	 edi

; 2062 :         _Myend   = _Newvec + _Newcapacity;

  00121	89 4e 08	 mov	 DWORD PTR [esi+8], ecx

; 903  :     }

  00124	5e		 pop	 esi
  00125	5b		 pop	 ebx
  00126	8b e5		 mov	 esp, ebp
  00128	5d		 pop	 ebp
  00129	c2 08 00	 ret	 8
$LN80@Emplace_re:
; File D:\Program Files\Microsoft Visual Studio\2022\Community\VC\Tools\MSVC\14.43.34808\include\xmemory

; 219  :     _STL_VERIFY(_Back_shift >= _Min_back_shift && _Back_shift <= _Non_user_size, "invalid argument");

  0012c	e8 00 00 00 00	 call	 __invalid_parameter_noinfo_noreturn
$LN123@Emplace_re:
; File D:\Program Files\Microsoft Visual Studio\2022\Community\VC\Tools\MSVC\14.43.34808\include\vector

; 873  :             _Xlength();

  00131	e8 00 00 00 00	 call	 ?_Xlength@?$vector@PAVCEffectMeshScript@@V?$allocator@PAVCEffectMeshScript@@@std@@@std@@CAXXZ ; std::vector<CEffectMeshScript *,std::allocator<CEffectMeshScript *> >::_Xlength
$LN124@Emplace_re:
; File D:\Program Files\Microsoft Visual Studio\2022\Community\VC\Tools\MSVC\14.43.34808\include\xmemory

; 118  :             _Throw_bad_array_new_length(); // multiply overflow

  00136	e8 00 00 00 00	 call	 ?_Throw_bad_array_new_length@std@@YAXXZ ; std::_Throw_bad_array_new_length
$LN120@Emplace_re:
  0013b	cc		 int	 3
??$_Emplace_reallocate@ABQAVCEffectMeshScript@@@?$vector@PAVCEffectMeshScript@@V?$allocator@PAVCEffectMeshScript@@@std@@@std@@AAEPAPAVCEffectMeshScript@@QAPAV2@ABQAV2@@Z ENDP ; std::vector<CEffectMeshScript *,std::allocator<CEffectMeshScript *> >::_Emplace_reallocate<CEffectMeshScript * const &>
_TEXT	ENDS
; Function compile flags: /Ogtp
; File D:\Program Files\Microsoft Visual Studio\2022\Community\VC\Tools\MSVC\14.43.34808\include\vector
; File D:\Program Files\Microsoft Visual Studio\2022\Community\VC\Tools\MSVC\14.43.34808\include\xmemory
; File D:\Program Files\Microsoft Visual Studio\2022\Community\VC\Tools\MSVC\14.43.34808\include\vector
; File D:\Program Files\Microsoft Visual Studio\2022\Community\VC\Tools\MSVC\14.43.34808\include\xmemory
; File D:\Program Files\Microsoft Visual Studio\2022\Community\VC\Tools\MSVC\14.43.34808\include\vector
; File D:\Program Files\Microsoft Visual Studio\2022\Community\VC\Tools\MSVC\14.43.34808\include\xmemory
; File D:\Program Files\Microsoft Visual Studio\2022\Community\VC\Tools\MSVC\14.43.34808\include\vector
; File D:\Program Files\Microsoft Visual Studio\2022\Community\VC\Tools\MSVC\14.43.34808\include\xmemory
; File D:\Program Files\Microsoft Visual Studio\2022\Community\VC\Tools\MSVC\14.43.34808\include\vector
; File D:\Program Files\Microsoft Visual Studio\2022\Community\VC\Tools\MSVC\14.43.34808\include\xmemory
; File D:\Program Files\Microsoft Visual Studio\2022\Community\VC\Tools\MSVC\14.43.34808\include\vector
; File D:\Program Files\Microsoft Visual Studio\2022\Community\VC\Tools\MSVC\14.43.34808\include\xmemory
; File D:\Program Files\Microsoft Visual Studio\2022\Community\VC\Tools\MSVC\14.43.34808\include\vector
; File D:\Program Files\Microsoft Visual Studio\2022\Community\VC\Tools\MSVC\14.43.34808\include\xmemory
; File D:\Program Files\Microsoft Visual Studio\2022\Community\VC\Tools\MSVC\14.43.34808\include\vector
; File D:\Program Files\Microsoft Visual Studio\2022\Community\VC\Tools\MSVC\14.43.34808\include\xmemory
; File D:\Program Files\Microsoft Visual Studio\2022\Community\VC\Tools\MSVC\14.43.34808\include\vector
;	COMDAT ??$_Emplace_reallocate@ABQAVCLightData@@@?$vector@PAVCLightData@@V?$allocator@PAVCLightData@@@std@@@std@@AAEPAPAVCLightData@@QAPAV2@ABQAV2@@Z
_TEXT	SEGMENT
__Newsize$1$ = -12					; size = 4
tv652 = -8						; size = 4
tv650 = -4						; size = 4
__Whereptr$ = 8						; size = 4
_<_Val_0>$ = 12						; size = 4
??$_Emplace_reallocate@ABQAVCLightData@@@?$vector@PAVCLightData@@V?$allocator@PAVCLightData@@@std@@@std@@AAEPAPAVCLightData@@QAPAV2@ABQAV2@@Z PROC ; std::vector<CLightData *,std::allocator<CLightData *> >::_Emplace_reallocate<CLightData * const &>, COMDAT
; _this$ = ecx

; 860  :     _CONSTEXPR20 pointer _Emplace_reallocate(const pointer _Whereptr, _Valty&&... _Val) {

  00000	55		 push	 ebp
  00001	8b ec		 mov	 ebp, esp
  00003	83 ec 0c	 sub	 esp, 12			; 0000000cH
  00006	53		 push	 ebx

; 861  :         // reallocate and insert by perfectly forwarding _Val at _Whereptr
; 862  :         _Alty& _Al        = _Getal();
; 863  :         auto& _My_data    = _Mypair._Myval2;
; 864  :         pointer& _Myfirst = _My_data._Myfirst;
; 865  :         pointer& _Mylast  = _My_data._Mylast;
; 866  : 
; 867  :         _STL_INTERNAL_CHECK(_Mylast == _My_data._Myend); // check that we have no unused capacity
; 868  : 
; 869  :         const auto _Whereoff = static_cast<size_type>(_Whereptr - _Myfirst);

  00007	8b 5d 08	 mov	 ebx, DWORD PTR __Whereptr$[ebp]
  0000a	56		 push	 esi
  0000b	8b f1		 mov	 esi, ecx
  0000d	57		 push	 edi
  0000e	8b 0e		 mov	 ecx, DWORD PTR [esi]
  00010	2b d9		 sub	 ebx, ecx

; 870  :         const auto _Oldsize  = static_cast<size_type>(_Mylast - _Myfirst);

  00012	8b 46 04	 mov	 eax, DWORD PTR [esi+4]
  00015	2b c1		 sub	 eax, ecx
  00017	c1 fb 02	 sar	 ebx, 2
  0001a	c1 f8 02	 sar	 eax, 2

; 871  : 
; 872  :         if (_Oldsize == max_size()) {

  0001d	3d ff ff ff 3f	 cmp	 eax, 1073741823		; 3fffffffH
  00022	0f 84 09 01 00
	00		 je	 $LN123@Emplace_re

; 1909 :         return static_cast<size_type>(_My_data._Myend - _My_data._Myfirst);

  00028	8b 56 08	 mov	 edx, DWORD PTR [esi+8]

; 874  :         }
; 875  : 
; 876  :         const size_type _Newsize = _Oldsize + 1;

  0002b	8d 78 01	 lea	 edi, DWORD PTR [eax+1]

; 1909 :         return static_cast<size_type>(_My_data._Myend - _My_data._Myfirst);

  0002e	2b d1		 sub	 edx, ecx

; 874  :         }
; 875  : 
; 876  :         const size_type _Newsize = _Oldsize + 1;

  00030	89 7d f4	 mov	 DWORD PTR __Newsize$1$[ebp], edi

; 1909 :         return static_cast<size_type>(_My_data._Myend - _My_data._Myfirst);

  00033	c1 fa 02	 sar	 edx, 2

; 1996 :         if (_Oldcapacity > _Max - _Oldcapacity / 2) {

  00036	b8 ff ff ff 3f	 mov	 eax, 1073741823		; 3fffffffH
  0003b	8b ca		 mov	 ecx, edx
  0003d	d1 e9		 shr	 ecx, 1
  0003f	2b c1		 sub	 eax, ecx
  00041	3b d0		 cmp	 edx, eax
  00043	76 14		 jbe	 SHORT $LN8@Emplace_re

; 1997 :             return _Max; // geometric growth would overflow

  00045	b8 fc ff ff ff	 mov	 eax, -4			; fffffffcH
  0004a	c7 45 f8 fc ff
	ff ff		 mov	 DWORD PTR tv652[ebp], -4 ; fffffffcH
; File D:\Program Files\Microsoft Visual Studio\2022\Community\VC\Tools\MSVC\14.43.34808\include\xmemory

; 253  :             return _Allocate_manually_vector_aligned<_Traits>(_Bytes);

  00051	50		 push	 eax
  00052	e8 00 00 00 00	 call	 ??$_Allocate_manually_vector_aligned@U_Default_allocate_traits@std@@@std@@YAPAXI@Z ; std::_Allocate_manually_vector_aligned<std::_Default_allocate_traits>
  00057	eb 3d		 jmp	 SHORT $LN121@Emplace_re
$LN8@Emplace_re:
; File D:\Program Files\Microsoft Visual Studio\2022\Community\VC\Tools\MSVC\14.43.34808\include\vector

; 2000 :         const size_type _Geometric = _Oldcapacity + _Oldcapacity / 2;

  00059	8d 04 11	 lea	 eax, DWORD PTR [ecx+edx]
; File D:\Program Files\Microsoft Visual Studio\2022\Community\VC\Tools\MSVC\14.43.34808\include\xmemory

; 117  :         if (_Count > _Max_possible) {

  0005c	8b cf		 mov	 ecx, edi
  0005e	3b c7		 cmp	 eax, edi
  00060	0f 43 c8	 cmovae	 ecx, eax
  00063	81 f9 ff ff ff
	3f		 cmp	 ecx, 1073741823		; 3fffffffH
  00069	0f 87 c7 00 00
	00		 ja	 $LN124@Emplace_re

; 119  :         }
; 120  :     }
; 121  : 
; 122  :     return _Count * _Ty_size;

  0006f	8d 04 8d 00 00
	00 00		 lea	 eax, DWORD PTR [ecx*4]
  00076	89 45 f8	 mov	 DWORD PTR tv652[ebp], eax

; 227  :     if (_Bytes == 0) {

  00079	85 c0		 test	 eax, eax
  0007b	75 04		 jne	 SHORT $LN23@Emplace_re

; 228  :         return nullptr;

  0007d	33 ff		 xor	 edi, edi
  0007f	eb 1a		 jmp	 SHORT $LN22@Emplace_re
$LN23@Emplace_re:

; 229  :     }
; 230  : 
; 231  : #if _HAS_CXX20 // TRANSITION, GH-1532
; 232  :     if (_STD is_constant_evaluated()) {
; 233  :         return _Traits::_Allocate(_Bytes);
; 234  :     }
; 235  : #endif // _HAS_CXX20
; 236  : 
; 237  : #ifdef __cpp_aligned_new
; 238  :     if constexpr (_Align > __STDCPP_DEFAULT_NEW_ALIGNMENT__) {
; 239  :         size_t _Passed_align = _Align;
; 240  : #if defined(_M_IX86) || defined(_M_X64)
; 241  :         if (_Bytes >= _Big_allocation_threshold) {
; 242  :             // boost the alignment of big allocations to help autovectorization
; 243  :             _Passed_align = (_STD max)(_Align, _Big_allocation_alignment);
; 244  :         }
; 245  : #endif // defined(_M_IX86) || defined(_M_X64)
; 246  :         return _Traits::_Allocate_aligned(_Bytes, _Passed_align);
; 247  :     } else
; 248  : #endif // defined(__cpp_aligned_new)
; 249  :     {
; 250  : #if defined(_M_IX86) || defined(_M_X64)
; 251  :         if (_Bytes >= _Big_allocation_threshold) {

  00081	3d 00 10 00 00	 cmp	 eax, 4096		; 00001000H
  00086	72 08		 jb	 SHORT $LN24@Emplace_re

; 253  :             return _Allocate_manually_vector_aligned<_Traits>(_Bytes);

  00088	50		 push	 eax
  00089	e8 00 00 00 00	 call	 ??$_Allocate_manually_vector_aligned@U_Default_allocate_traits@std@@@std@@YAPAXI@Z ; std::_Allocate_manually_vector_aligned<std::_Default_allocate_traits>
  0008e	eb 06		 jmp	 SHORT $LN121@Emplace_re
$LN24@Emplace_re:

; 136  :         return ::operator new(_Bytes);

  00090	50		 push	 eax
  00091	e8 00 00 00 00	 call	 ??2@YAPAXI@Z		; operator new
$LN121@Emplace_re:
; File D:\Program Files\Microsoft Visual Studio\2022\Community\VC\Tools\MSVC\14.43.34808\include\vector

; 885  :         _Alty_traits::construct(_Al, _STD _Unfancy(_Newvec + _Whereoff), _STD forward<_Valty>(_Val)...);

  00096	8b f8		 mov	 edi, eax
  00098	83 c4 04	 add	 esp, 4
$LN22@Emplace_re:
  0009b	8b 45 0c	 mov	 eax, DWORD PTR _<_Val_0>$[ebp]
  0009e	8d 0c 9f	 lea	 ecx, DWORD PTR [edi+ebx*4]

; 886  :         _Constructed_first = _Newvec + _Whereoff;
; 887  : 
; 888  :         if (_Whereptr == _Mylast) { // at back, provide strong guarantee

  000a1	8b 5d 08	 mov	 ebx, DWORD PTR __Whereptr$[ebp]
  000a4	89 4d fc	 mov	 DWORD PTR tv650[ebp], ecx
  000a7	8b 00		 mov	 eax, DWORD PTR [eax]
  000a9	89 01		 mov	 DWORD PTR [ecx], eax
  000ab	8b 46 04	 mov	 eax, DWORD PTR [esi+4]
  000ae	8b 0e		 mov	 ecx, DWORD PTR [esi]
  000b0	3b d8		 cmp	 ebx, eax
  000b2	75 07		 jne	 SHORT $LN3@Emplace_re

; 894  :         } else { // provide basic guarantee

  000b4	8b 5d fc	 mov	 ebx, DWORD PTR tv650[ebp]
; File D:\Program Files\Microsoft Visual Studio\2022\Community\VC\Tools\MSVC\14.43.34808\include\xmemory

; 1955 :             _STD _Copy_memmove(_UFirst, _ULast, _STD _Unfancy(_Dest));

  000b7	8b d7		 mov	 edx, edi
; File D:\Program Files\Microsoft Visual Studio\2022\Community\VC\Tools\MSVC\14.43.34808\include\vector

; 894  :         } else { // provide basic guarantee

  000b9	eb 16		 jmp	 SHORT $LN52@Emplace_re
$LN3@Emplace_re:
; File D:\Program Files\Microsoft Visual Studio\2022\Community\VC\Tools\MSVC\14.43.34808\include\xmemory

; 1955 :             _STD _Copy_memmove(_UFirst, _ULast, _STD _Unfancy(_Dest));

  000bb	57		 push	 edi
  000bc	53		 push	 ebx
  000bd	51		 push	 ecx
  000be	e8 00 00 00 00	 call	 ??$_Copy_memmove@PAPAVCLightData@@PAPAV1@@std@@YAPAPAVCLightData@@PAPAV1@00@Z ; std::_Copy_memmove<CLightData * *,CLightData * *>
  000c3	8b 46 04	 mov	 eax, DWORD PTR [esi+4]
  000c6	8b cb		 mov	 ecx, ebx
; File D:\Program Files\Microsoft Visual Studio\2022\Community\VC\Tools\MSVC\14.43.34808\include\vector

; 897  :             _STD _Uninitialized_move(_Whereptr, _Mylast, _Newvec + _Whereoff + 1, _Al);

  000c8	8b 5d fc	 mov	 ebx, DWORD PTR tv650[ebp]
; File D:\Program Files\Microsoft Visual Studio\2022\Community\VC\Tools\MSVC\14.43.34808\include\xmemory

; 1955 :             _STD _Copy_memmove(_UFirst, _ULast, _STD _Unfancy(_Dest));

  000cb	83 c4 0c	 add	 esp, 12			; 0000000cH
; File D:\Program Files\Microsoft Visual Studio\2022\Community\VC\Tools\MSVC\14.43.34808\include\vector

; 897  :             _STD _Uninitialized_move(_Whereptr, _Mylast, _Newvec + _Whereoff + 1, _Al);

  000ce	8d 53 04	 lea	 edx, DWORD PTR [ebx+4]
$LN52@Emplace_re:

; 898  :         }
; 899  : 
; 900  :         _Guard._New_begin = nullptr;

  000d1	52		 push	 edx
  000d2	50		 push	 eax
  000d3	51		 push	 ecx
  000d4	e8 00 00 00 00	 call	 ??$_Copy_memmove@PAPAVCLightData@@PAPAV1@@std@@YAPAPAVCLightData@@PAPAV1@00@Z ; std::_Copy_memmove<CLightData * *,CLightData * *>

; 2054 :         if (_Myfirst) { // destroy and deallocate old array

  000d9	8b 06		 mov	 eax, DWORD PTR [esi]

; 898  :         }
; 899  : 
; 900  :         _Guard._New_begin = nullptr;

  000db	83 c4 0c	 add	 esp, 12			; 0000000cH

; 2054 :         if (_Myfirst) { // destroy and deallocate old array

  000de	85 c0		 test	 eax, eax
  000e0	74 2c		 je	 SHORT $LN72@Emplace_re

; 2055 :             _STD _Destroy_range(_Myfirst, _Mylast, _Al);
; 2056 :             _ASAN_VECTOR_REMOVE;
; 2057 :             _Al.deallocate(_Myfirst, static_cast<size_type>(_Myend - _Myfirst));

  000e2	8b 4e 08	 mov	 ecx, DWORD PTR [esi+8]
  000e5	2b c8		 sub	 ecx, eax
; File D:\Program Files\Microsoft Visual Studio\2022\Community\VC\Tools\MSVC\14.43.34808\include\xmemory

; 981  :         _STD _Deallocate<_New_alignof<_Ty>>(_Ptr, sizeof(_Ty) * _Count);

  000e7	83 e1 fc	 and	 ecx, -4			; fffffffcH

; 284  :         if (_Bytes >= _Big_allocation_threshold) {

  000ea	81 f9 00 10 00
	00		 cmp	 ecx, 4096		; 00001000H
  000f0	72 12		 jb	 SHORT $LN83@Emplace_re

; 205  :     const uintptr_t _Ptr_container   = _Ptr_user[-1];

  000f2	8b 50 fc	 mov	 edx, DWORD PTR [eax-4]
  000f5	83 c1 23	 add	 ecx, 35			; 00000023H

; 206  : 
; 207  :     // If the following asserts, it likely means that we are performing
; 208  :     // an aligned delete on memory coming from an unaligned allocation.
; 209  :     _STL_ASSERT(_Ptr_user[-2] == _Big_allocation_sentinel, "invalid argument");
; 210  : 
; 211  :     // Extra paranoia on aligned allocation/deallocation; ensure _Ptr_container is
; 212  :     // in range [_Min_back_shift, _Non_user_size]
; 213  : #ifdef _DEBUG
; 214  :     constexpr uintptr_t _Min_back_shift = 2 * sizeof(void*);
; 215  : #else // ^^^ defined(_DEBUG) / !defined(_DEBUG) vvv
; 216  :     constexpr uintptr_t _Min_back_shift = sizeof(void*);
; 217  : #endif // ^^^ !defined(_DEBUG) ^^^
; 218  :     const uintptr_t _Back_shift = reinterpret_cast<uintptr_t>(_Ptr) - _Ptr_container;

  000f8	2b c2		 sub	 eax, edx

; 219  :     _STL_VERIFY(_Back_shift >= _Min_back_shift && _Back_shift <= _Non_user_size, "invalid argument");

  000fa	83 c0 fc	 add	 eax, -4			; fffffffcH
  000fd	83 f8 1f	 cmp	 eax, 31			; 0000001fH
  00100	77 2a		 ja	 SHORT $LN80@Emplace_re

; 220  :     _Ptr = reinterpret_cast<void*>(_Ptr_container);

  00102	8b c2		 mov	 eax, edx
$LN83@Emplace_re:

; 289  :         ::operator delete(_Ptr, _Bytes);

  00104	51		 push	 ecx
  00105	50		 push	 eax
  00106	e8 00 00 00 00	 call	 ??3@YAXPAXI@Z		; operator delete
  0010b	83 c4 08	 add	 esp, 8
$LN72@Emplace_re:
; File D:\Program Files\Microsoft Visual Studio\2022\Community\VC\Tools\MSVC\14.43.34808\include\vector

; 2061 :         _Mylast  = _Newvec + _Newsize;

  0010e	8b 45 f4	 mov	 eax, DWORD PTR __Newsize$1$[ebp]
  00111	89 3e		 mov	 DWORD PTR [esi], edi
  00113	8d 0c 87	 lea	 ecx, DWORD PTR [edi+eax*4]

; 901  :         _Change_array(_Newvec, _Newsize, _Newcapacity);
; 902  :         return _Newvec + _Whereoff;

  00116	8b c3		 mov	 eax, ebx

; 2061 :         _Mylast  = _Newvec + _Newsize;

  00118	89 4e 04	 mov	 DWORD PTR [esi+4], ecx

; 2062 :         _Myend   = _Newvec + _Newcapacity;

  0011b	8b 4d f8	 mov	 ecx, DWORD PTR tv652[ebp]
  0011e	03 cf		 add	 ecx, edi

; 903  :     }

  00120	5f		 pop	 edi

; 2062 :         _Myend   = _Newvec + _Newcapacity;

  00121	89 4e 08	 mov	 DWORD PTR [esi+8], ecx

; 903  :     }

  00124	5e		 pop	 esi
  00125	5b		 pop	 ebx
  00126	8b e5		 mov	 esp, ebp
  00128	5d		 pop	 ebp
  00129	c2 08 00	 ret	 8
$LN80@Emplace_re:
; File D:\Program Files\Microsoft Visual Studio\2022\Community\VC\Tools\MSVC\14.43.34808\include\xmemory

; 219  :     _STL_VERIFY(_Back_shift >= _Min_back_shift && _Back_shift <= _Non_user_size, "invalid argument");

  0012c	e8 00 00 00 00	 call	 __invalid_parameter_noinfo_noreturn
$LN123@Emplace_re:
; File D:\Program Files\Microsoft Visual Studio\2022\Community\VC\Tools\MSVC\14.43.34808\include\vector

; 873  :             _Xlength();

  00131	e8 00 00 00 00	 call	 ?_Xlength@?$vector@PAVCLightData@@V?$allocator@PAVCLightData@@@std@@@std@@CAXXZ ; std::vector<CLightData *,std::allocator<CLightData *> >::_Xlength
$LN124@Emplace_re:
; File D:\Program Files\Microsoft Visual Studio\2022\Community\VC\Tools\MSVC\14.43.34808\include\xmemory

; 118  :             _Throw_bad_array_new_length(); // multiply overflow

  00136	e8 00 00 00 00	 call	 ?_Throw_bad_array_new_length@std@@YAXXZ ; std::_Throw_bad_array_new_length
$LN120@Emplace_re:
  0013b	cc		 int	 3
??$_Emplace_reallocate@ABQAVCLightData@@@?$vector@PAVCLightData@@V?$allocator@PAVCLightData@@@std@@@std@@AAEPAPAVCLightData@@QAPAV2@ABQAV2@@Z ENDP ; std::vector<CLightData *,std::allocator<CLightData *> >::_Emplace_reallocate<CLightData * const &>
_TEXT	ENDS
; Function compile flags: /Ogtp
; File D:\Program Files\Microsoft Visual Studio\2022\Community\VC\Tools\MSVC\14.43.34808\include\vector
; File D:\Program Files\Microsoft Visual Studio\2022\Community\VC\Tools\MSVC\14.43.34808\include\xmemory
; File D:\Program Files\Microsoft Visual Studio\2022\Community\VC\Tools\MSVC\14.43.34808\include\vector
; File D:\Program Files\Microsoft Visual Studio\2022\Community\VC\Tools\MSVC\14.43.34808\include\xstring
; File D:\Program Files\Microsoft Visual Studio\2022\Community\VC\Tools\MSVC\14.43.34808\include\xmemory
; File D:\Program Files\Microsoft Visual Studio\2022\Community\VC\Tools\MSVC\14.43.34808\include\xstring
; File D:\Program Files\Microsoft Visual Studio\2022\Community\VC\Tools\MSVC\14.43.34808\include\xmemory
; File D:\Program Files\Microsoft Visual Studio\2022\Community\VC\Tools\MSVC\14.43.34808\include\xstring
; File D:\Program Files\Microsoft Visual Studio\2022\Community\VC\Tools\MSVC\14.43.34808\include\xmemory
; File D:\Program Files\Microsoft Visual Studio\2022\Community\VC\Tools\MSVC\14.43.34808\include\xstring
; File D:\Program Files\Microsoft Visual Studio\2022\Community\VC\Tools\MSVC\14.43.34808\include\xmemory
; File D:\Program Files\Microsoft Visual Studio\2022\Community\VC\Tools\MSVC\14.43.34808\include\vector
; File D:\Program Files\Microsoft Visual Studio\2022\Community\VC\Tools\MSVC\14.43.34808\include\xmemory
; File D:\Program Files\Microsoft Visual Studio\2022\Community\VC\Tools\MSVC\14.43.34808\include\vector
; File D:\Program Files\Microsoft Visual Studio\2022\Community\VC\Tools\MSVC\14.43.34808\include\xmemory
; File D:\Program Files\Microsoft Visual Studio\2022\Community\VC\Tools\MSVC\14.43.34808\include\vector
;	COMDAT ??1?$vector@USSoundData@NSound@@V?$allocator@USSoundData@NSound@@@std@@@std@@QAE@XZ
_TEXT	SEGMENT
__Last$1$ = -4						; size = 4
??1?$vector@USSoundData@NSound@@V?$allocator@USSoundData@NSound@@@std@@@std@@QAE@XZ PROC ; std::vector<NSound::SSoundData,std::allocator<NSound::SSoundData> >::~vector<NSound::SSoundData,std::allocator<NSound::SSoundData> >, COMDAT
; _this$ = ecx

; 814  :     _CONSTEXPR20 ~vector() noexcept {

  00000	55		 push	 ebp
  00001	8b ec		 mov	 ebp, esp
  00003	83 ec 08	 sub	 esp, 8
  00006	53		 push	 ebx
  00007	57		 push	 edi
  00008	8b f9		 mov	 edi, ecx

; 2075 :         if (_Myfirst) { // destroy and deallocate old array

  0000a	8b 1f		 mov	 ebx, DWORD PTR [edi]
  0000c	85 db		 test	 ebx, ebx
  0000e	0f 84 be 00 00
	00		 je	 $LN5@vector

; 2076 :             _STD _Destroy_range(_Myfirst, _Mylast, _Al);

  00014	8b 47 04	 mov	 eax, DWORD PTR [edi+4]
  00017	89 45 fc	 mov	 DWORD PTR __Last$1$[ebp], eax
  0001a	56		 push	 esi
; File D:\Program Files\Microsoft Visual Studio\2022\Community\VC\Tools\MSVC\14.43.34808\include\xmemory

; 1098 :         for (; _First != _Last; ++_First) {

  0001b	3b d8		 cmp	 ebx, eax
  0001d	74 54		 je	 SHORT $LN94@vector
; File D:\Program Files\Microsoft Visual Studio\2022\Community\VC\Tools\MSVC\14.43.34808\include\vector

; 2076 :             _STD _Destroy_range(_Myfirst, _Mylast, _Al);

  0001f	8d 73 18	 lea	 esi, DWORD PTR [ebx+24]
$LL11@vector:
; File D:\Program Files\Microsoft Visual Studio\2022\Community\VC\Tools\MSVC\14.43.34808\include\xstring

; 434  :         return _Myres > _Small_string_capacity;

  00022	8b 0e		 mov	 ecx, DWORD PTR [esi]
  00024	83 f9 0f	 cmp	 ecx, 15			; 0000000fH

; 3047 :         if (_My_data._Large_mode_engaged()) {

  00027	76 2f		 jbe	 SHORT $LN93@vector
; File D:\Program Files\Microsoft Visual Studio\2022\Community\VC\Tools\MSVC\14.43.34808\include\xmemory

; 981  :         _STD _Deallocate<_New_alignof<_Ty>>(_Ptr, sizeof(_Ty) * _Count);

  00029	8b 46 ec	 mov	 eax, DWORD PTR [esi-20]
; File D:\Program Files\Microsoft Visual Studio\2022\Community\VC\Tools\MSVC\14.43.34808\include\xstring

; 828  :         _Al.deallocate(_Old_ptr, _Capacity + 1); // +1 for null terminator

  0002c	41		 inc	 ecx
; File D:\Program Files\Microsoft Visual Studio\2022\Community\VC\Tools\MSVC\14.43.34808\include\xmemory

; 284  :         if (_Bytes >= _Big_allocation_threshold) {

  0002d	81 f9 00 10 00
	00		 cmp	 ecx, 4096		; 00001000H
  00033	72 16		 jb	 SHORT $LN56@vector

; 205  :     const uintptr_t _Ptr_container   = _Ptr_user[-1];

  00035	8b 50 fc	 mov	 edx, DWORD PTR [eax-4]
  00038	83 c1 23	 add	 ecx, 35			; 00000023H

; 206  : 
; 207  :     // If the following asserts, it likely means that we are performing
; 208  :     // an aligned delete on memory coming from an unaligned allocation.
; 209  :     _STL_ASSERT(_Ptr_user[-2] == _Big_allocation_sentinel, "invalid argument");
; 210  : 
; 211  :     // Extra paranoia on aligned allocation/deallocation; ensure _Ptr_container is
; 212  :     // in range [_Min_back_shift, _Non_user_size]
; 213  : #ifdef _DEBUG
; 214  :     constexpr uintptr_t _Min_back_shift = 2 * sizeof(void*);
; 215  : #else // ^^^ defined(_DEBUG) / !defined(_DEBUG) vvv
; 216  :     constexpr uintptr_t _Min_back_shift = sizeof(void*);
; 217  : #endif // ^^^ !defined(_DEBUG) ^^^
; 218  :     const uintptr_t _Back_shift = reinterpret_cast<uintptr_t>(_Ptr) - _Ptr_container;

  0003b	2b c2		 sub	 eax, edx

; 219  :     _STL_VERIFY(_Back_shift >= _Min_back_shift && _Back_shift <= _Non_user_size, "invalid argument");

  0003d	83 c0 fc	 add	 eax, -4			; fffffffcH
  00040	83 f8 1f	 cmp	 eax, 31			; 0000001fH
  00043	0f 87 8f 00 00
	00		 ja	 $LN80@vector

; 220  :     _Ptr = reinterpret_cast<void*>(_Ptr_container);

  00049	8b c2		 mov	 eax, edx
$LN56@vector:

; 289  :         ::operator delete(_Ptr, _Bytes);

  0004b	51		 push	 ecx
  0004c	50		 push	 eax
  0004d	e8 00 00 00 00	 call	 ??3@YAXPAXI@Z		; operator delete
  00052	8b 45 fc	 mov	 eax, DWORD PTR __Last$1$[ebp]
  00055	83 c4 08	 add	 esp, 8
$LN93@vector:
; File D:\Program Files\Microsoft Visual Studio\2022\Community\VC\Tools\MSVC\14.43.34808\include\xstring

; 3054 :         _My_data._Mysize = 0;

  00058	c7 46 fc 00 00
	00 00		 mov	 DWORD PTR [esi-4], 0
; File D:\Program Files\Microsoft Visual Studio\2022\Community\VC\Tools\MSVC\14.43.34808\include\xmemory

; 1098 :         for (; _First != _Last; ++_First) {

  0005f	83 c3 1c	 add	 ebx, 28			; 0000001cH
; File D:\Program Files\Microsoft Visual Studio\2022\Community\VC\Tools\MSVC\14.43.34808\include\xstring

; 3055 :         _My_data._Myres  = _Small_string_capacity;

  00062	c7 06 0f 00 00
	00		 mov	 DWORD PTR [esi], 15	; 0000000fH

; 3056 :         // the _Traits::assign is last so the codegen doesn't think the char write can alias this
; 3057 :         _Traits::assign(_My_data._Bx._Buf[0], _Elem());

  00068	c6 46 ec 00	 mov	 BYTE PTR [esi-20], 0
; File D:\Program Files\Microsoft Visual Studio\2022\Community\VC\Tools\MSVC\14.43.34808\include\xmemory

; 1098 :         for (; _First != _Last; ++_First) {

  0006c	83 c6 1c	 add	 esi, 28			; 0000001cH
  0006f	3b d8		 cmp	 ebx, eax
  00071	75 af		 jne	 SHORT $LL11@vector
$LN94@vector:
; File D:\Program Files\Microsoft Visual Studio\2022\Community\VC\Tools\MSVC\14.43.34808\include\vector

; 2078 :             _Al.deallocate(_Myfirst, static_cast<size_type>(_Myend - _Myfirst));

  00073	8b 4f 08	 mov	 ecx, DWORD PTR [edi+8]
  00076	b8 93 24 49 92	 mov	 eax, -1840700269	; 92492493H
  0007b	8b 37		 mov	 esi, DWORD PTR [edi]
  0007d	2b ce		 sub	 ecx, esi
  0007f	f7 e9		 imul	 ecx
  00081	03 d1		 add	 edx, ecx
  00083	c1 fa 04	 sar	 edx, 4
  00086	8b c2		 mov	 eax, edx
  00088	c1 e8 1f	 shr	 eax, 31			; 0000001fH
  0008b	03 c2		 add	 eax, edx
; File D:\Program Files\Microsoft Visual Studio\2022\Community\VC\Tools\MSVC\14.43.34808\include\xmemory

; 981  :         _STD _Deallocate<_New_alignof<_Ty>>(_Ptr, sizeof(_Ty) * _Count);

  0008d	8d 0c c5 00 00
	00 00		 lea	 ecx, DWORD PTR [eax*8]
  00094	2b c8		 sub	 ecx, eax
  00096	c1 e1 02	 shl	 ecx, 2

; 284  :         if (_Bytes >= _Big_allocation_threshold) {

  00099	81 f9 00 10 00
	00		 cmp	 ecx, 4096		; 00001000H
  0009f	72 12		 jb	 SHORT $LN83@vector

; 205  :     const uintptr_t _Ptr_container   = _Ptr_user[-1];

  000a1	8b 56 fc	 mov	 edx, DWORD PTR [esi-4]
  000a4	83 c1 23	 add	 ecx, 35			; 00000023H

; 206  : 
; 207  :     // If the following asserts, it likely means that we are performing
; 208  :     // an aligned delete on memory coming from an unaligned allocation.
; 209  :     _STL_ASSERT(_Ptr_user[-2] == _Big_allocation_sentinel, "invalid argument");
; 210  : 
; 211  :     // Extra paranoia on aligned allocation/deallocation; ensure _Ptr_container is
; 212  :     // in range [_Min_back_shift, _Non_user_size]
; 213  : #ifdef _DEBUG
; 214  :     constexpr uintptr_t _Min_back_shift = 2 * sizeof(void*);
; 215  : #else // ^^^ defined(_DEBUG) / !defined(_DEBUG) vvv
; 216  :     constexpr uintptr_t _Min_back_shift = sizeof(void*);
; 217  : #endif // ^^^ !defined(_DEBUG) ^^^
; 218  :     const uintptr_t _Back_shift = reinterpret_cast<uintptr_t>(_Ptr) - _Ptr_container;

  000a7	2b f2		 sub	 esi, edx

; 219  :     _STL_VERIFY(_Back_shift >= _Min_back_shift && _Back_shift <= _Non_user_size, "invalid argument");

  000a9	8d 46 fc	 lea	 eax, DWORD PTR [esi-4]
  000ac	83 f8 1f	 cmp	 eax, 31			; 0000001fH
  000af	77 27		 ja	 SHORT $LN80@vector

; 220  :     _Ptr = reinterpret_cast<void*>(_Ptr_container);

  000b1	8b f2		 mov	 esi, edx
$LN83@vector:

; 289  :         ::operator delete(_Ptr, _Bytes);

  000b3	51		 push	 ecx
  000b4	56		 push	 esi
  000b5	e8 00 00 00 00	 call	 ??3@YAXPAXI@Z		; operator delete
  000ba	83 c4 08	 add	 esp, 8
; File D:\Program Files\Microsoft Visual Studio\2022\Community\VC\Tools\MSVC\14.43.34808\include\vector

; 2080 :             _Myfirst = nullptr;

  000bd	c7 07 00 00 00
	00		 mov	 DWORD PTR [edi], 0

; 2081 :             _Mylast  = nullptr;

  000c3	c7 47 04 00 00
	00 00		 mov	 DWORD PTR [edi+4], 0

; 2082 :             _Myend   = nullptr;

  000ca	c7 47 08 00 00
	00 00		 mov	 DWORD PTR [edi+8], 0
  000d1	5e		 pop	 esi
$LN5@vector:
  000d2	5f		 pop	 edi

; 820  :     }

  000d3	5b		 pop	 ebx
  000d4	8b e5		 mov	 esp, ebp
  000d6	5d		 pop	 ebp
  000d7	c3		 ret	 0
$LN80@vector:
; File D:\Program Files\Microsoft Visual Studio\2022\Community\VC\Tools\MSVC\14.43.34808\include\xmemory

; 219  :     _STL_VERIFY(_Back_shift >= _Min_back_shift && _Back_shift <= _Non_user_size, "invalid argument");

  000d8	e8 00 00 00 00	 call	 __invalid_parameter_noinfo_noreturn
$LN103@vector:
  000dd	cc		 int	 3
??1?$vector@USSoundData@NSound@@V?$allocator@USSoundData@NSound@@@std@@@std@@QAE@XZ ENDP ; std::vector<NSound::SSoundData,std::allocator<NSound::SSoundData> >::~vector<NSound::SSoundData,std::allocator<NSound::SSoundData> >
_TEXT	ENDS
; Function compile flags: /Ogtp
;	COMDAT ??__F?ms_kPool@CEffectData@@2V?$CDynamicPool@VCEffectData@@@@A@@YAXXZ
text$yd	SEGMENT
??__F?ms_kPool@CEffectData@@2V?$CDynamicPool@VCEffectData@@@@A@@YAXXZ PROC ; `dynamic atexit destructor for 'CEffectData::ms_kPool'', COMDAT
  00000	b9 00 00 00 00	 mov	 ecx, OFFSET ?ms_kPool@CEffectData@@2V?$CDynamicPool@VCEffectData@@@@A ; CEffectData::ms_kPool
  00005	e9 00 00 00 00	 jmp	 ??1?$CDynamicPool@VCEffectData@@@@UAE@XZ ; CDynamicPool<CEffectData>::~CDynamicPool<CEffectData>
??__F?ms_kPool@CEffectData@@2V?$CDynamicPool@VCEffectData@@@@A@@YAXXZ ENDP ; `dynamic atexit destructor for 'CEffectData::ms_kPool''
text$yd	ENDS
; Function compile flags: /Ogtp
; File C:\Marty 5.5\Src-Client\Client\EffectLib\EffectData.cpp
;	COMDAT ??__E?ms_kPool@CEffectData@@2V?$CDynamicPool@VCEffectData@@@@A@@YAXXZ
text$di	SEGMENT
??__E?ms_kPool@CEffectData@@2V?$CDynamicPool@VCEffectData@@@@A@@YAXXZ PROC ; `dynamic initializer for 'CEffectData::ms_kPool'', COMDAT

; 4    : CDynamicPool<CEffectData> CEffectData::ms_kPool;

  00000	68 00 00 00 00	 push	 OFFSET ??__F?ms_kPool@CEffectData@@2V?$CDynamicPool@VCEffectData@@@@A@@YAXXZ ; `dynamic atexit destructor for 'CEffectData::ms_kPool''
  00005	e8 00 00 00 00	 call	 _atexit
  0000a	59		 pop	 ecx
  0000b	c3		 ret	 0
??__E?ms_kPool@CEffectData@@2V?$CDynamicPool@VCEffectData@@@@A@@YAXXZ ENDP ; `dynamic initializer for 'CEffectData::ms_kPool''
text$di	ENDS
; Function compile flags: /Ogtp
;	COMDAT ??_G?$CDynamicPool@VCEffectData@@@@UAEPAXI@Z
_TEXT	SEGMENT
___flags$ = 8						; size = 4
??_G?$CDynamicPool@VCEffectData@@@@UAEPAXI@Z PROC	; CDynamicPool<CEffectData>::`scalar deleting destructor', COMDAT
; _this$ = ecx
  00000	55		 push	 ebp
  00001	8b ec		 mov	 ebp, esp
  00003	56		 push	 esi
  00004	8b f1		 mov	 esi, ecx
  00006	e8 00 00 00 00	 call	 ??1?$CDynamicPool@VCEffectData@@@@UAE@XZ ; CDynamicPool<CEffectData>::~CDynamicPool<CEffectData>
  0000b	f6 45 08 01	 test	 BYTE PTR ___flags$[ebp], 1
  0000f	74 0b		 je	 SHORT $LN5@scalar
  00011	6a 24		 push	 36			; 00000024H
  00013	56		 push	 esi
  00014	e8 00 00 00 00	 call	 ??3@YAXPAXI@Z		; operator delete
  00019	83 c4 08	 add	 esp, 8
$LN5@scalar:
  0001c	8b c6		 mov	 eax, esi
  0001e	5e		 pop	 esi
  0001f	5d		 pop	 ebp
  00020	c2 04 00	 ret	 4
??_G?$CDynamicPool@VCEffectData@@@@UAEPAXI@Z ENDP	; CDynamicPool<CEffectData>::`scalar deleting destructor'
_TEXT	ENDS
; Function compile flags: /Ogtp
; File D:\Program Files\Microsoft Visual Studio\2022\Community\VC\Tools\MSVC\14.43.34808\include\vector
;	COMDAT ?_Xlength@?$vector@PAVCEffectData@@V?$allocator@PAVCEffectData@@@std@@@std@@CAXXZ
_TEXT	SEGMENT
?_Xlength@?$vector@PAVCEffectData@@V?$allocator@PAVCEffectData@@@std@@@std@@CAXXZ PROC ; std::vector<CEffectData *,std::allocator<CEffectData *> >::_Xlength, COMDAT

; 2169 :         _Xlength_error("vector too long");

  00000	68 00 00 00 00	 push	 OFFSET ??_C@_0BA@FOIKENOD@vector?5too?5long@
  00005	e8 00 00 00 00	 call	 ?_Xlength_error@std@@YAXPBD@Z ; std::_Xlength_error
$LN3@Xlength:
  0000a	cc		 int	 3
?_Xlength@?$vector@PAVCEffectData@@V?$allocator@PAVCEffectData@@@std@@@std@@CAXXZ ENDP ; std::vector<CEffectData *,std::allocator<CEffectData *> >::_Xlength
_TEXT	ENDS
; Function compile flags: /Ogtp
; File C:\Marty 5.5\Src-Client\Client\eterLib\Pool.h
; File D:\Program Files\Microsoft Visual Studio\2022\Community\VC\Tools\MSVC\14.43.34808\include\vector
; File D:\Program Files\Microsoft Visual Studio\2022\Community\VC\Tools\MSVC\14.43.34808\include\xmemory
; File D:\Program Files\Microsoft Visual Studio\2022\Community\VC\Tools\MSVC\14.43.34808\include\vector
; File D:\Program Files\Microsoft Visual Studio\2022\Community\VC\Tools\MSVC\14.43.34808\include\xmemory
; File D:\Program Files\Microsoft Visual Studio\2022\Community\VC\Tools\MSVC\14.43.34808\include\vector
; File D:\Program Files\Microsoft Visual Studio\2022\Community\VC\Tools\MSVC\14.43.34808\include\xmemory
; File D:\Program Files\Microsoft Visual Studio\2022\Community\VC\Tools\MSVC\14.43.34808\include\vector
; File D:\Program Files\Microsoft Visual Studio\2022\Community\VC\Tools\MSVC\14.43.34808\include\xmemory
; File D:\Program Files\Microsoft Visual Studio\2022\Community\VC\Tools\MSVC\14.43.34808\include\vector
; File C:\Marty 5.5\Src-Client\Client\eterLib\Pool.h
; File D:\Program Files\Microsoft Visual Studio\2022\Community\VC\Tools\MSVC\14.43.34808\include\xmemory
; File C:\Marty 5.5\Src-Client\Client\eterLib\Pool.h
;	COMDAT ??1?$CDynamicPool@VCEffectData@@@@UAE@XZ
_TEXT	SEGMENT
??1?$CDynamicPool@VCEffectData@@@@UAE@XZ PROC		; CDynamicPool<CEffectData>::~CDynamicPool<CEffectData>, COMDAT
; _this$ = ecx

; 18   : 		{

  00000	56		 push	 esi
  00001	8b f1		 mov	 esi, ecx
  00003	c7 06 00 00 00
	00		 mov	 DWORD PTR [esi], OFFSET ??_7?$CDynamicPool@VCEffectData@@@@6B@
; File D:\Program Files\Microsoft Visual Studio\2022\Community\VC\Tools\MSVC\14.43.34808\include\vector

; 2075 :         if (_Myfirst) { // destroy and deallocate old array

  00009	8b 46 10	 mov	 eax, DWORD PTR [esi+16]
  0000c	85 c0		 test	 eax, eax
  0000e	74 41		 je	 SHORT $LN8@CDynamicPo

; 2076 :             _STD _Destroy_range(_Myfirst, _Mylast, _Al);
; 2077 :             _ASAN_VECTOR_REMOVE;
; 2078 :             _Al.deallocate(_Myfirst, static_cast<size_type>(_Myend - _Myfirst));

  00010	8b 4e 18	 mov	 ecx, DWORD PTR [esi+24]
  00013	2b c8		 sub	 ecx, eax
; File D:\Program Files\Microsoft Visual Studio\2022\Community\VC\Tools\MSVC\14.43.34808\include\xmemory

; 981  :         _STD _Deallocate<_New_alignof<_Ty>>(_Ptr, sizeof(_Ty) * _Count);

  00015	83 e1 fc	 and	 ecx, -4			; fffffffcH

; 284  :         if (_Bytes >= _Big_allocation_threshold) {

  00018	81 f9 00 10 00
	00		 cmp	 ecx, 4096		; 00001000H
  0001e	72 12		 jb	 SHORT $LN27@CDynamicPo

; 205  :     const uintptr_t _Ptr_container   = _Ptr_user[-1];

  00020	8b 50 fc	 mov	 edx, DWORD PTR [eax-4]
  00023	83 c1 23	 add	 ecx, 35			; 00000023H

; 206  : 
; 207  :     // If the following asserts, it likely means that we are performing
; 208  :     // an aligned delete on memory coming from an unaligned allocation.
; 209  :     _STL_ASSERT(_Ptr_user[-2] == _Big_allocation_sentinel, "invalid argument");
; 210  : 
; 211  :     // Extra paranoia on aligned allocation/deallocation; ensure _Ptr_container is
; 212  :     // in range [_Min_back_shift, _Non_user_size]
; 213  : #ifdef _DEBUG
; 214  :     constexpr uintptr_t _Min_back_shift = 2 * sizeof(void*);
; 215  : #else // ^^^ defined(_DEBUG) / !defined(_DEBUG) vvv
; 216  :     constexpr uintptr_t _Min_back_shift = sizeof(void*);
; 217  : #endif // ^^^ !defined(_DEBUG) ^^^
; 218  :     const uintptr_t _Back_shift = reinterpret_cast<uintptr_t>(_Ptr) - _Ptr_container;

  00026	2b c2		 sub	 eax, edx

; 219  :     _STL_VERIFY(_Back_shift >= _Min_back_shift && _Back_shift <= _Non_user_size, "invalid argument");

  00028	83 c0 fc	 add	 eax, -4			; fffffffcH
  0002b	83 f8 1f	 cmp	 eax, 31			; 0000001fH
  0002e	77 6b		 ja	 SHORT $LN53@CDynamicPo

; 220  :     _Ptr = reinterpret_cast<void*>(_Ptr_container);

  00030	8b c2		 mov	 eax, edx
$LN27@CDynamicPo:

; 289  :         ::operator delete(_Ptr, _Bytes);

  00032	51		 push	 ecx
  00033	50		 push	 eax
  00034	e8 00 00 00 00	 call	 ??3@YAXPAXI@Z		; operator delete
; File D:\Program Files\Microsoft Visual Studio\2022\Community\VC\Tools\MSVC\14.43.34808\include\vector

; 2080 :             _Myfirst = nullptr;

  00039	c7 46 10 00 00
	00 00		 mov	 DWORD PTR [esi+16], 0
; File D:\Program Files\Microsoft Visual Studio\2022\Community\VC\Tools\MSVC\14.43.34808\include\xmemory

; 289  :         ::operator delete(_Ptr, _Bytes);

  00040	83 c4 08	 add	 esp, 8
; File D:\Program Files\Microsoft Visual Studio\2022\Community\VC\Tools\MSVC\14.43.34808\include\vector

; 2081 :             _Mylast  = nullptr;

  00043	c7 46 14 00 00
	00 00		 mov	 DWORD PTR [esi+20], 0

; 2082 :             _Myend   = nullptr;

  0004a	c7 46 18 00 00
	00 00		 mov	 DWORD PTR [esi+24], 0
$LN8@CDynamicPo:

; 2075 :         if (_Myfirst) { // destroy and deallocate old array

  00051	8b 46 04	 mov	 eax, DWORD PTR [esi+4]
  00054	85 c0		 test	 eax, eax
  00056	74 41		 je	 SHORT $LN37@CDynamicPo

; 2076 :             _STD _Destroy_range(_Myfirst, _Mylast, _Al);
; 2077 :             _ASAN_VECTOR_REMOVE;
; 2078 :             _Al.deallocate(_Myfirst, static_cast<size_type>(_Myend - _Myfirst));

  00058	8b 4e 0c	 mov	 ecx, DWORD PTR [esi+12]
  0005b	2b c8		 sub	 ecx, eax
; File D:\Program Files\Microsoft Visual Studio\2022\Community\VC\Tools\MSVC\14.43.34808\include\xmemory

; 981  :         _STD _Deallocate<_New_alignof<_Ty>>(_Ptr, sizeof(_Ty) * _Count);

  0005d	83 e1 fc	 and	 ecx, -4			; fffffffcH

; 284  :         if (_Bytes >= _Big_allocation_threshold) {

  00060	81 f9 00 10 00
	00		 cmp	 ecx, 4096		; 00001000H
  00066	72 12		 jb	 SHORT $LN56@CDynamicPo

; 205  :     const uintptr_t _Ptr_container   = _Ptr_user[-1];

  00068	8b 50 fc	 mov	 edx, DWORD PTR [eax-4]
  0006b	83 c1 23	 add	 ecx, 35			; 00000023H

; 206  : 
; 207  :     // If the following asserts, it likely means that we are performing
; 208  :     // an aligned delete on memory coming from an unaligned allocation.
; 209  :     _STL_ASSERT(_Ptr_user[-2] == _Big_allocation_sentinel, "invalid argument");
; 210  : 
; 211  :     // Extra paranoia on aligned allocation/deallocation; ensure _Ptr_container is
; 212  :     // in range [_Min_back_shift, _Non_user_size]
; 213  : #ifdef _DEBUG
; 214  :     constexpr uintptr_t _Min_back_shift = 2 * sizeof(void*);
; 215  : #else // ^^^ defined(_DEBUG) / !defined(_DEBUG) vvv
; 216  :     constexpr uintptr_t _Min_back_shift = sizeof(void*);
; 217  : #endif // ^^^ !defined(_DEBUG) ^^^
; 218  :     const uintptr_t _Back_shift = reinterpret_cast<uintptr_t>(_Ptr) - _Ptr_container;

  0006e	2b c2		 sub	 eax, edx

; 219  :     _STL_VERIFY(_Back_shift >= _Min_back_shift && _Back_shift <= _Non_user_size, "invalid argument");

  00070	83 c0 fc	 add	 eax, -4			; fffffffcH
  00073	83 f8 1f	 cmp	 eax, 31			; 0000001fH
  00076	77 23		 ja	 SHORT $LN53@CDynamicPo

; 220  :     _Ptr = reinterpret_cast<void*>(_Ptr_container);

  00078	8b c2		 mov	 eax, edx
$LN56@CDynamicPo:

; 289  :         ::operator delete(_Ptr, _Bytes);

  0007a	51		 push	 ecx
  0007b	50		 push	 eax
  0007c	e8 00 00 00 00	 call	 ??3@YAXPAXI@Z		; operator delete
; File D:\Program Files\Microsoft Visual Studio\2022\Community\VC\Tools\MSVC\14.43.34808\include\vector

; 2080 :             _Myfirst = nullptr;

  00081	c7 46 04 00 00
	00 00		 mov	 DWORD PTR [esi+4], 0
; File D:\Program Files\Microsoft Visual Studio\2022\Community\VC\Tools\MSVC\14.43.34808\include\xmemory

; 289  :         ::operator delete(_Ptr, _Bytes);

  00088	83 c4 08	 add	 esp, 8
; File D:\Program Files\Microsoft Visual Studio\2022\Community\VC\Tools\MSVC\14.43.34808\include\vector

; 2081 :             _Mylast  = nullptr;

  0008b	c7 46 08 00 00
	00 00		 mov	 DWORD PTR [esi+8], 0

; 2082 :             _Myend   = nullptr;

  00092	c7 46 0c 00 00
	00 00		 mov	 DWORD PTR [esi+12], 0
$LN37@CDynamicPo:
  00099	5e		 pop	 esi
; File C:\Marty 5.5\Src-Client\Client\eterLib\Pool.h

; 26   : 		}

  0009a	c3		 ret	 0
$LN53@CDynamicPo:
; File D:\Program Files\Microsoft Visual Studio\2022\Community\VC\Tools\MSVC\14.43.34808\include\xmemory

; 219  :     _STL_VERIFY(_Back_shift >= _Min_back_shift && _Back_shift <= _Non_user_size, "invalid argument");

  0009b	e8 00 00 00 00	 call	 __invalid_parameter_noinfo_noreturn
$LN67@CDynamicPo:
  000a0	cc		 int	 3
??1?$CDynamicPool@VCEffectData@@@@UAE@XZ ENDP		; CDynamicPool<CEffectData>::~CDynamicPool<CEffectData>
_TEXT	ENDS
; Function compile flags: /Ogtp
;	COMDAT ??_GCEffectData@@UAEPAXI@Z
_TEXT	SEGMENT
___flags$ = 8						; size = 4
??_GCEffectData@@UAEPAXI@Z PROC				; CEffectData::`scalar deleting destructor', COMDAT
; _this$ = ecx
  00000	55		 push	 ebp
  00001	8b ec		 mov	 ebp, esp
  00003	56		 push	 esi
  00004	8b f1		 mov	 esi, ecx
  00006	e8 00 00 00 00	 call	 ??1CEffectData@@UAE@XZ	; CEffectData::~CEffectData
  0000b	f6 45 08 01	 test	 BYTE PTR ___flags$[ebp], 1
  0000f	74 0b		 je	 SHORT $LN5@scalar
  00011	6a 60		 push	 96			; 00000060H
  00013	56		 push	 esi
  00014	e8 00 00 00 00	 call	 ??3@YAXPAXI@Z		; operator delete
  00019	83 c4 08	 add	 esp, 8
$LN5@scalar:
  0001c	8b c6		 mov	 eax, esi
  0001e	5e		 pop	 esi
  0001f	5d		 pop	 ebp
  00020	c2 04 00	 ret	 4
??_GCEffectData@@UAEPAXI@Z ENDP				; CEffectData::`scalar deleting destructor'
_TEXT	ENDS
; Function compile flags: /Ogtp
; File C:\Marty 5.5\Src-Client\Client\EffectLib\EffectData.cpp
; File D:\Program Files\Microsoft Visual Studio\2022\Community\VC\Tools\MSVC\14.43.34808\include\vector
; File C:\Marty 5.5\Src-Client\Client\EffectLib\EffectData.cpp
; File D:\Program Files\Microsoft Visual Studio\2022\Community\VC\Tools\MSVC\14.43.34808\include\vector
; File C:\Marty 5.5\Src-Client\Client\EffectLib\EffectData.cpp
; File D:\Program Files\Microsoft Visual Studio\2022\Community\VC\Tools\MSVC\14.43.34808\include\vector
; File C:\Marty 5.5\Src-Client\Client\EffectLib\EffectData.cpp
;	COMDAT ?Delete@CEffectData@@SAXPAV1@@Z
_TEXT	SEGMENT
_pkData$ = 8						; size = 4
_pkData$ = 8						; size = 4
?Delete@CEffectData@@SAXPAV1@@Z PROC			; CEffectData::Delete, COMDAT

; 12   : {

  00000	55		 push	 ebp
  00001	8b ec		 mov	 ebp, esp
  00003	56		 push	 esi

; 13   : 	pkData->Clear();

  00004	8b 75 08	 mov	 esi, DWORD PTR _pkData$[ebp]
  00007	8b ce		 mov	 ecx, esi
  00009	e8 00 00 00 00	 call	 ?Clear@CEffectData@@QAEXXZ ; CEffectData::Clear
; File D:\Program Files\Microsoft Visual Studio\2022\Community\VC\Tools\MSVC\14.43.34808\include\vector

; 829  :         if (_Mylast != _My_data._Myend) {

  0000e	a1 14 00 00 00	 mov	 eax, DWORD PTR ?ms_kPool@CEffectData@@2V?$CDynamicPool@VCEffectData@@@@A+20
; File C:\Marty 5.5\Src-Client\Client\EffectLib\EffectData.cpp

; 14   : 	ms_kPool.Free(pkData);

  00013	89 75 08	 mov	 DWORD PTR _pkData$[ebp], esi
; File D:\Program Files\Microsoft Visual Studio\2022\Community\VC\Tools\MSVC\14.43.34808\include\vector

; 829  :         if (_Mylast != _My_data._Myend) {

  00016	3b 05 18 00 00
	00		 cmp	 eax, DWORD PTR ?ms_kPool@CEffectData@@2V?$CDynamicPool@VCEffectData@@@@A+24
  0001c	74 0c		 je	 SHORT $LN8@Delete

; 845  :             _STD _Construct_in_place(*_Mylast, _STD forward<_Valty>(_Val)...);

  0001e	89 30		 mov	 DWORD PTR [eax], esi

; 846  :         } else {
; 847  :             _ASAN_VECTOR_EXTEND_GUARD(static_cast<size_type>(_Mylast - _My_data._Myfirst) + 1);
; 848  :             _Alty_traits::construct(_Getal(), _Unfancy(_Mylast), _STD forward<_Valty>(_Val)...);
; 849  :             _ASAN_VECTOR_RELEASE_GUARD;
; 850  :         }
; 851  : 
; 852  :         _Orphan_range(_Mylast, _Mylast);
; 853  :         _Ty& _Result = *_Mylast;
; 854  :         ++_Mylast;

  00020	83 05 14 00 00
	00 04		 add	 DWORD PTR ?ms_kPool@CEffectData@@2V?$CDynamicPool@VCEffectData@@@@A+20, 4
  00027	5e		 pop	 esi
; File C:\Marty 5.5\Src-Client\Client\EffectLib\EffectData.cpp

; 15   : }

  00028	5d		 pop	 ebp
  00029	c3		 ret	 0
$LN8@Delete:
; File D:\Program Files\Microsoft Visual Studio\2022\Community\VC\Tools\MSVC\14.43.34808\include\vector

; 833  :         return *_Emplace_reallocate(_Mylast, _STD forward<_Valty>(_Val)...);

  0002a	8d 4d 08	 lea	 ecx, DWORD PTR _pkData$[ebp]
  0002d	51		 push	 ecx
  0002e	50		 push	 eax
  0002f	b9 10 00 00 00	 mov	 ecx, OFFSET ?ms_kPool@CEffectData@@2V?$CDynamicPool@VCEffectData@@@@A+16
  00034	e8 00 00 00 00	 call	 ??$_Emplace_reallocate@ABQAVCEffectData@@@?$vector@PAVCEffectData@@V?$allocator@PAVCEffectData@@@std@@@std@@AAEPAPAVCEffectData@@QAPAV2@ABQAV2@@Z ; std::vector<CEffectData *,std::allocator<CEffectData *> >::_Emplace_reallocate<CEffectData * const &>
  00039	5e		 pop	 esi
; File C:\Marty 5.5\Src-Client\Client\EffectLib\EffectData.cpp

; 15   : }

  0003a	5d		 pop	 ebp
  0003b	c3		 ret	 0
?Delete@CEffectData@@SAXPAV1@@Z ENDP			; CEffectData::Delete
_TEXT	ENDS
; Function compile flags: /Ogtp
; File C:\Marty 5.5\Src-Client\Client\EffectLib\EffectData.cpp
; File D:\Program Files\Microsoft Visual Studio\2022\Community\VC\Tools\MSVC\14.43.34808\include\vector
; File C:\Marty 5.5\Src-Client\Client\eterLib\Pool.h
; File D:\Program Files\Microsoft Visual Studio\2022\Community\VC\Tools\MSVC\14.43.34808\include\vector
; File C:\Marty 5.5\Src-Client\Client\eterLib\Pool.h
; File D:\Program Files\Microsoft Visual Studio\2022\Community\VC\Tools\MSVC\14.43.34808\include\vector
; File C:\Marty 5.5\Src-Client\Client\EffectLib\EffectData.cpp
; File D:\Program Files\Microsoft Visual Studio\2022\Community\VC\Tools\MSVC\14.43.34808\include\vector
; File C:\Marty 5.5\Src-Client\Client\eterLib\Pool.h
; File C:\Marty 5.5\Src-Client\Client\EffectLib\EffectData.cpp
; File D:\Program Files\Microsoft Visual Studio\2022\Community\VC\Tools\MSVC\14.43.34808\include\vector
; File C:\Marty 5.5\Src-Client\Client\eterLib\Pool.h
; File C:\Marty 5.5\Src-Client\Client\EffectLib\EffectData.cpp
; File C:\Marty 5.5\Src-Client\Client\eterLib\Pool.h
; File D:\Program Files\Microsoft Visual Studio\2022\Community\VC\Tools\MSVC\14.43.34808\include\vector
; File C:\Marty 5.5\Src-Client\Client\EffectLib\EffectData.cpp
;	COMDAT ?New@CEffectData@@SAPAV1@XZ
_TEXT	SEGMENT
_pkNewData$1 = -4					; size = 4
$T2 = -4						; size = 4
?New@CEffectData@@SAPAV1@XZ PROC			; CEffectData::New, COMDAT

; 7    : {

  00000	55		 push	 ebp
  00001	8b ec		 mov	 ebp, esp
  00003	51		 push	 ecx
; File D:\Program Files\Microsoft Visual Studio\2022\Community\VC\Tools\MSVC\14.43.34808\include\vector

; 1895 :         return _My_data._Myfirst == _My_data._Mylast;

  00004	8b 0d 14 00 00
	00		 mov	 ecx, DWORD PTR ?ms_kPool@CEffectData@@2V?$CDynamicPool@VCEffectData@@@@A+20
  0000a	39 0d 10 00 00
	00		 cmp	 DWORD PTR ?ms_kPool@CEffectData@@2V?$CDynamicPool@VCEffectData@@@@A+16, ecx
; File C:\Marty 5.5\Src-Client\Client\eterLib\Pool.h

; 64   : 			if (m_kVct_pkFree.empty())

  00010	75 61		 jne	 SHORT $LN4@New
  00012	56		 push	 esi

; 66   : 				T* pkNewData=new T;

  00013	6a 60		 push	 96			; 00000060H
  00015	e8 00 00 00 00	 call	 ??2@YAPAXI@Z		; operator new
  0001a	83 c4 04	 add	 esp, 4
  0001d	89 45 fc	 mov	 DWORD PTR $T2[ebp], eax
  00020	85 c0		 test	 eax, eax
  00022	74 0b		 je	 SHORT $LN6@New
  00024	8b c8		 mov	 ecx, eax
  00026	e8 00 00 00 00	 call	 ??0CEffectData@@QAE@XZ	; CEffectData::CEffectData
  0002b	8b f0		 mov	 esi, eax
  0002d	eb 02		 jmp	 SHORT $LN7@New
$LN6@New:
  0002f	33 f6		 xor	 esi, esi
$LN7@New:
; File D:\Program Files\Microsoft Visual Studio\2022\Community\VC\Tools\MSVC\14.43.34808\include\vector

; 829  :         if (_Mylast != _My_data._Myend) {

  00031	a1 08 00 00 00	 mov	 eax, DWORD PTR ?ms_kPool@CEffectData@@2V?$CDynamicPool@VCEffectData@@@@A+8
; File C:\Marty 5.5\Src-Client\Client\eterLib\Pool.h

; 66   : 				T* pkNewData=new T;

  00036	89 75 fc	 mov	 DWORD PTR _pkNewData$1[ebp], esi
; File D:\Program Files\Microsoft Visual Studio\2022\Community\VC\Tools\MSVC\14.43.34808\include\vector

; 829  :         if (_Mylast != _My_data._Myend) {

  00039	3b 05 0c 00 00
	00		 cmp	 eax, DWORD PTR ?ms_kPool@CEffectData@@2V?$CDynamicPool@VCEffectData@@@@A+12
  0003f	74 16		 je	 SHORT $LN15@New

; 845  :             _STD _Construct_in_place(*_Mylast, _STD forward<_Valty>(_Val)...);

  00041	89 30		 mov	 DWORD PTR [eax], esi
; File C:\Marty 5.5\Src-Client\Client\EffectLib\EffectData.cpp

; 8    : 	return ms_kPool.Alloc();

  00043	8b c6		 mov	 eax, esi
; File D:\Program Files\Microsoft Visual Studio\2022\Community\VC\Tools\MSVC\14.43.34808\include\vector

; 854  :         ++_Mylast;

  00045	83 05 08 00 00
	00 04		 add	 DWORD PTR ?ms_kPool@CEffectData@@2V?$CDynamicPool@VCEffectData@@@@A+8, 4
; File C:\Marty 5.5\Src-Client\Client\eterLib\Pool.h

; 68   : 				++m_uUsedCapacity;

  0004c	ff 05 20 00 00
	00		 inc	 DWORD PTR ?ms_kPool@CEffectData@@2V?$CDynamicPool@VCEffectData@@@@A+32
; File C:\Marty 5.5\Src-Client\Client\EffectLib\EffectData.cpp

; 8    : 	return ms_kPool.Alloc();

  00052	5e		 pop	 esi

; 9    : }

  00053	8b e5		 mov	 esp, ebp
  00055	5d		 pop	 ebp
  00056	c3		 ret	 0
$LN15@New:
; File D:\Program Files\Microsoft Visual Studio\2022\Community\VC\Tools\MSVC\14.43.34808\include\vector

; 833  :         return *_Emplace_reallocate(_Mylast, _STD forward<_Valty>(_Val)...);

  00057	8d 4d fc	 lea	 ecx, DWORD PTR _pkNewData$1[ebp]
  0005a	51		 push	 ecx
  0005b	50		 push	 eax
  0005c	b9 04 00 00 00	 mov	 ecx, OFFSET ?ms_kPool@CEffectData@@2V?$CDynamicPool@VCEffectData@@@@A+4
  00061	e8 00 00 00 00	 call	 ??$_Emplace_reallocate@ABQAVCEffectData@@@?$vector@PAVCEffectData@@V?$allocator@PAVCEffectData@@@std@@@std@@AAEPAPAVCEffectData@@QAPAV2@ABQAV2@@Z ; std::vector<CEffectData *,std::allocator<CEffectData *> >::_Emplace_reallocate<CEffectData * const &>
; File C:\Marty 5.5\Src-Client\Client\eterLib\Pool.h

; 68   : 				++m_uUsedCapacity;

  00066	ff 05 20 00 00
	00		 inc	 DWORD PTR ?ms_kPool@CEffectData@@2V?$CDynamicPool@VCEffectData@@@@A+32
; File C:\Marty 5.5\Src-Client\Client\EffectLib\EffectData.cpp

; 8    : 	return ms_kPool.Alloc();

  0006c	8b c6		 mov	 eax, esi
  0006e	5e		 pop	 esi

; 9    : }

  0006f	8b e5		 mov	 esp, ebp
  00071	5d		 pop	 ebp
  00072	c3		 ret	 0
$LN4@New:
; File C:\Marty 5.5\Src-Client\Client\eterLib\Pool.h

; 72   : 			T* pkFreeData=m_kVct_pkFree.back();

  00073	8b 41 fc	 mov	 eax, DWORD PTR [ecx-4]
; File D:\Program Files\Microsoft Visual Studio\2022\Community\VC\Tools\MSVC\14.43.34808\include\vector

; 1744 :         --_Mylast;

  00076	83 c1 fc	 add	 ecx, -4			; fffffffcH
  00079	89 0d 14 00 00
	00		 mov	 DWORD PTR ?ms_kPool@CEffectData@@2V?$CDynamicPool@VCEffectData@@@@A+20, ecx
; File C:\Marty 5.5\Src-Client\Client\EffectLib\EffectData.cpp

; 9    : }

  0007f	8b e5		 mov	 esp, ebp
  00081	5d		 pop	 ebp
  00082	c3		 ret	 0
?New@CEffectData@@SAPAV1@XZ ENDP			; CEffectData::New
_TEXT	ENDS
; Function compile flags: /Ogtp
; File C:\Marty 5.5\Src-Client\Client\EffectLib\EffectData.cpp
; File C:\Marty 5.5\Src-Client\Client\eterLib\Pool.h
; File C:\Marty 5.5\Src-Client\Client\EffectLib\EffectData.cpp
; File C:\Marty 5.5\Src-Client\Client\eterLib\Pool.h
; File D:\Program Files\Microsoft Visual Studio\2022\Community\VC\Tools\MSVC\14.43.34808\include\vector
; File C:\Marty 5.5\Src-Client\Client\EffectLib\EffectData.cpp
;	COMDAT ?DestroySystem@CEffectData@@SAXXZ
_TEXT	SEGMENT
?DestroySystem@CEffectData@@SAXXZ PROC			; CEffectData::DestroySystem, COMDAT

; 18   : {

  00000	56		 push	 esi
; File C:\Marty 5.5\Src-Client\Client\eterLib\Pool.h

; 50   : 			for (auto v : m_kVct_pkData)

  00001	8b 35 04 00 00
	00		 mov	 esi, DWORD PTR ?ms_kPool@CEffectData@@2V?$CDynamicPool@VCEffectData@@@@A+4
; File C:\Marty 5.5\Src-Client\Client\EffectLib\EffectData.cpp

; 18   : {

  00007	57		 push	 edi
; File C:\Marty 5.5\Src-Client\Client\eterLib\Pool.h

; 50   : 			for (auto v : m_kVct_pkData)

  00008	8b 3d 08 00 00
	00		 mov	 edi, DWORD PTR ?ms_kPool@CEffectData@@2V?$CDynamicPool@VCEffectData@@@@A+8
  0000e	3b f7		 cmp	 esi, edi
  00010	74 29		 je	 SHORT $LN12@DestroySys
$LL6@DestroySys:

; 111  : 			delete pkData;

  00012	8b 0e		 mov	 ecx, DWORD PTR [esi]
  00014	85 c9		 test	 ecx, ecx
  00016	74 06		 je	 SHORT $LN4@DestroySys
  00018	8b 01		 mov	 eax, DWORD PTR [ecx]
  0001a	6a 01		 push	 1
  0001c	ff 10		 call	 DWORD PTR [eax]
$LN4@DestroySys:

; 50   : 			for (auto v : m_kVct_pkData)

  0001e	83 c6 04	 add	 esi, 4
  00021	3b f7		 cmp	 esi, edi
  00023	75 ed		 jne	 SHORT $LL6@DestroySys
  00025	8b 3d 08 00 00
	00		 mov	 edi, DWORD PTR ?ms_kPool@CEffectData@@2V?$CDynamicPool@VCEffectData@@@@A+8
  0002b	8b 35 04 00 00
	00		 mov	 esi, DWORD PTR ?ms_kPool@CEffectData@@2V?$CDynamicPool@VCEffectData@@@@A+4
; File D:\Program Files\Microsoft Visual Studio\2022\Community\VC\Tools\MSVC\14.43.34808\include\vector

; 1797 :         if (_Myfirst == _Mylast) { // already empty, nothing to do

  00031	3b f7		 cmp	 esi, edi
  00033	74 06		 je	 SHORT $LN12@DestroySys

; 1798 :             // This is an optimization for debug mode: we can avoid taking the debug lock to invalidate iterators.
; 1799 :             // Note that when clearing an empty vector, this will preserve past-the-end iterators, which is allowed by
; 1800 :             // N4950 [sequence.reqmts]/54 "a.clear() [...] may invalidate the past-the-end iterator".
; 1801 :             return;
; 1802 :         }
; 1803 : 
; 1804 :         _My_data._Orphan_all();
; 1805 :         _Destroy_range(_Myfirst, _Mylast, _Getal());
; 1806 :         _ASAN_VECTOR_MODIFY(static_cast<difference_type>(_Myfirst - _Mylast)); // negative when destroying elements
; 1807 :         _Mylast = _Myfirst;

  00035	89 35 08 00 00
	00		 mov	 DWORD PTR ?ms_kPool@CEffectData@@2V?$CDynamicPool@VCEffectData@@@@A+8, esi
$LN12@DestroySys:

; 1797 :         if (_Myfirst == _Mylast) { // already empty, nothing to do

  0003b	a1 10 00 00 00	 mov	 eax, DWORD PTR ?ms_kPool@CEffectData@@2V?$CDynamicPool@VCEffectData@@@@A+16
  00040	5f		 pop	 edi
  00041	5e		 pop	 esi
  00042	3b 05 14 00 00
	00		 cmp	 eax, DWORD PTR ?ms_kPool@CEffectData@@2V?$CDynamicPool@VCEffectData@@@@A+20
  00048	74 05		 je	 SHORT $LN16@DestroySys

; 1798 :             // This is an optimization for debug mode: we can avoid taking the debug lock to invalidate iterators.
; 1799 :             // Note that when clearing an empty vector, this will preserve past-the-end iterators, which is allowed by
; 1800 :             // N4950 [sequence.reqmts]/54 "a.clear() [...] may invalidate the past-the-end iterator".
; 1801 :             return;
; 1802 :         }
; 1803 : 
; 1804 :         _My_data._Orphan_all();
; 1805 :         _Destroy_range(_Myfirst, _Mylast, _Getal());
; 1806 :         _ASAN_VECTOR_MODIFY(static_cast<difference_type>(_Myfirst - _Mylast)); // negative when destroying elements
; 1807 :         _Mylast = _Myfirst;

  0004a	a3 14 00 00 00	 mov	 DWORD PTR ?ms_kPool@CEffectData@@2V?$CDynamicPool@VCEffectData@@@@A+20, eax
$LN16@DestroySys:
; File C:\Marty 5.5\Src-Client\Client\EffectLib\EffectData.cpp

; 21   : 	CParticleSystemData::DestroySystem();

  0004f	e8 00 00 00 00	 call	 ?DestroySystem@CParticleSystemData@@SAXXZ ; CParticleSystemData::DestroySystem

; 22   : 	CEffectMeshScript::DestroySystem();

  00054	e8 00 00 00 00	 call	 ?DestroySystem@CEffectMeshScript@@SAXXZ ; CEffectMeshScript::DestroySystem

; 23   : 	CLightData::DestroySystem();

  00059	e9 00 00 00 00	 jmp	 ?DestroySystem@CLightData@@SAXXZ ; CLightData::DestroySystem
?DestroySystem@CEffectData@@SAXXZ ENDP			; CEffectData::DestroySystem
_TEXT	ENDS
; Function compile flags: /Ogtp
; File D:\Program Files\Microsoft Visual Studio\2022\Community\VC\Tools\MSVC\14.43.34808\include\vector
; File D:\Program Files\Microsoft Visual Studio\2022\Community\VC\Tools\MSVC\14.43.34808\include\xmemory
; File D:\Program Files\Microsoft Visual Studio\2022\Community\VC\Tools\MSVC\14.43.34808\include\vector
; File D:\Program Files\Microsoft Visual Studio\2022\Community\VC\Tools\MSVC\14.43.34808\include\xstring
; File D:\Program Files\Microsoft Visual Studio\2022\Community\VC\Tools\MSVC\14.43.34808\include\xmemory
; File D:\Program Files\Microsoft Visual Studio\2022\Community\VC\Tools\MSVC\14.43.34808\include\xstring
; File D:\Program Files\Microsoft Visual Studio\2022\Community\VC\Tools\MSVC\14.43.34808\include\xmemory
; File D:\Program Files\Microsoft Visual Studio\2022\Community\VC\Tools\MSVC\14.43.34808\include\xstring
; File D:\Program Files\Microsoft Visual Studio\2022\Community\VC\Tools\MSVC\14.43.34808\include\xmemory
; File D:\Program Files\Microsoft Visual Studio\2022\Community\VC\Tools\MSVC\14.43.34808\include\xstring
; File D:\Program Files\Microsoft Visual Studio\2022\Community\VC\Tools\MSVC\14.43.34808\include\xmemory
; File D:\Program Files\Microsoft Visual Studio\2022\Community\VC\Tools\MSVC\14.43.34808\include\vector
; File D:\Program Files\Microsoft Visual Studio\2022\Community\VC\Tools\MSVC\14.43.34808\include\xmemory
; File D:\Program Files\Microsoft Visual Studio\2022\Community\VC\Tools\MSVC\14.43.34808\include\vector
; File D:\Program Files\Microsoft Visual Studio\2022\Community\VC\Tools\MSVC\14.43.34808\include\xmemory
; File D:\Program Files\Microsoft Visual Studio\2022\Community\VC\Tools\MSVC\14.43.34808\include\vector
;	COMDAT ??1?$vector@USSoundInstance@NSound@@V?$allocator@USSoundInstance@NSound@@@std@@@std@@QAE@XZ
_TEXT	SEGMENT
__Last$1$ = -4						; size = 4
??1?$vector@USSoundInstance@NSound@@V?$allocator@USSoundInstance@NSound@@@std@@@std@@QAE@XZ PROC ; std::vector<NSound::SSoundInstance,std::allocator<NSound::SSoundInstance> >::~vector<NSound::SSoundInstance,std::allocator<NSound::SSoundInstance> >, COMDAT
; _this$ = ecx

; 814  :     _CONSTEXPR20 ~vector() noexcept {

  00000	55		 push	 ebp
  00001	8b ec		 mov	 ebp, esp
  00003	83 ec 08	 sub	 esp, 8
  00006	53		 push	 ebx
  00007	57		 push	 edi
  00008	8b f9		 mov	 edi, ecx

; 2075 :         if (_Myfirst) { // destroy and deallocate old array

  0000a	8b 1f		 mov	 ebx, DWORD PTR [edi]
  0000c	85 db		 test	 ebx, ebx
  0000e	0f 84 be 00 00
	00		 je	 $LN5@vector

; 2076 :             _STD _Destroy_range(_Myfirst, _Mylast, _Al);

  00014	8b 47 04	 mov	 eax, DWORD PTR [edi+4]
  00017	89 45 fc	 mov	 DWORD PTR __Last$1$[ebp], eax
  0001a	56		 push	 esi
; File D:\Program Files\Microsoft Visual Studio\2022\Community\VC\Tools\MSVC\14.43.34808\include\xmemory

; 1098 :         for (; _First != _Last; ++_First) {

  0001b	3b d8		 cmp	 ebx, eax
  0001d	74 54		 je	 SHORT $LN94@vector
; File D:\Program Files\Microsoft Visual Studio\2022\Community\VC\Tools\MSVC\14.43.34808\include\vector

; 2076 :             _STD _Destroy_range(_Myfirst, _Mylast, _Al);

  0001f	8d 73 18	 lea	 esi, DWORD PTR [ebx+24]
$LL11@vector:
; File D:\Program Files\Microsoft Visual Studio\2022\Community\VC\Tools\MSVC\14.43.34808\include\xstring

; 434  :         return _Myres > _Small_string_capacity;

  00022	8b 0e		 mov	 ecx, DWORD PTR [esi]
  00024	83 f9 0f	 cmp	 ecx, 15			; 0000000fH

; 3047 :         if (_My_data._Large_mode_engaged()) {

  00027	76 2f		 jbe	 SHORT $LN93@vector
; File D:\Program Files\Microsoft Visual Studio\2022\Community\VC\Tools\MSVC\14.43.34808\include\xmemory

; 981  :         _STD _Deallocate<_New_alignof<_Ty>>(_Ptr, sizeof(_Ty) * _Count);

  00029	8b 46 ec	 mov	 eax, DWORD PTR [esi-20]
; File D:\Program Files\Microsoft Visual Studio\2022\Community\VC\Tools\MSVC\14.43.34808\include\xstring

; 828  :         _Al.deallocate(_Old_ptr, _Capacity + 1); // +1 for null terminator

  0002c	41		 inc	 ecx
; File D:\Program Files\Microsoft Visual Studio\2022\Community\VC\Tools\MSVC\14.43.34808\include\xmemory

; 284  :         if (_Bytes >= _Big_allocation_threshold) {

  0002d	81 f9 00 10 00
	00		 cmp	 ecx, 4096		; 00001000H
  00033	72 16		 jb	 SHORT $LN56@vector

; 205  :     const uintptr_t _Ptr_container   = _Ptr_user[-1];

  00035	8b 50 fc	 mov	 edx, DWORD PTR [eax-4]
  00038	83 c1 23	 add	 ecx, 35			; 00000023H

; 206  : 
; 207  :     // If the following asserts, it likely means that we are performing
; 208  :     // an aligned delete on memory coming from an unaligned allocation.
; 209  :     _STL_ASSERT(_Ptr_user[-2] == _Big_allocation_sentinel, "invalid argument");
; 210  : 
; 211  :     // Extra paranoia on aligned allocation/deallocation; ensure _Ptr_container is
; 212  :     // in range [_Min_back_shift, _Non_user_size]
; 213  : #ifdef _DEBUG
; 214  :     constexpr uintptr_t _Min_back_shift = 2 * sizeof(void*);
; 215  : #else // ^^^ defined(_DEBUG) / !defined(_DEBUG) vvv
; 216  :     constexpr uintptr_t _Min_back_shift = sizeof(void*);
; 217  : #endif // ^^^ !defined(_DEBUG) ^^^
; 218  :     const uintptr_t _Back_shift = reinterpret_cast<uintptr_t>(_Ptr) - _Ptr_container;

  0003b	2b c2		 sub	 eax, edx

; 219  :     _STL_VERIFY(_Back_shift >= _Min_back_shift && _Back_shift <= _Non_user_size, "invalid argument");

  0003d	83 c0 fc	 add	 eax, -4			; fffffffcH
  00040	83 f8 1f	 cmp	 eax, 31			; 0000001fH
  00043	0f 87 8f 00 00
	00		 ja	 $LN80@vector

; 220  :     _Ptr = reinterpret_cast<void*>(_Ptr_container);

  00049	8b c2		 mov	 eax, edx
$LN56@vector:

; 289  :         ::operator delete(_Ptr, _Bytes);

  0004b	51		 push	 ecx
  0004c	50		 push	 eax
  0004d	e8 00 00 00 00	 call	 ??3@YAXPAXI@Z		; operator delete
  00052	8b 45 fc	 mov	 eax, DWORD PTR __Last$1$[ebp]
  00055	83 c4 08	 add	 esp, 8
$LN93@vector:
; File D:\Program Files\Microsoft Visual Studio\2022\Community\VC\Tools\MSVC\14.43.34808\include\xstring

; 3054 :         _My_data._Mysize = 0;

  00058	c7 46 fc 00 00
	00 00		 mov	 DWORD PTR [esi-4], 0
; File D:\Program Files\Microsoft Visual Studio\2022\Community\VC\Tools\MSVC\14.43.34808\include\xmemory

; 1098 :         for (; _First != _Last; ++_First) {

  0005f	83 c3 1c	 add	 ebx, 28			; 0000001cH
; File D:\Program Files\Microsoft Visual Studio\2022\Community\VC\Tools\MSVC\14.43.34808\include\xstring

; 3055 :         _My_data._Myres  = _Small_string_capacity;

  00062	c7 06 0f 00 00
	00		 mov	 DWORD PTR [esi], 15	; 0000000fH

; 3056 :         // the _Traits::assign is last so the codegen doesn't think the char write can alias this
; 3057 :         _Traits::assign(_My_data._Bx._Buf[0], _Elem());

  00068	c6 46 ec 00	 mov	 BYTE PTR [esi-20], 0
; File D:\Program Files\Microsoft Visual Studio\2022\Community\VC\Tools\MSVC\14.43.34808\include\xmemory

; 1098 :         for (; _First != _Last; ++_First) {

  0006c	83 c6 1c	 add	 esi, 28			; 0000001cH
  0006f	3b d8		 cmp	 ebx, eax
  00071	75 af		 jne	 SHORT $LL11@vector
$LN94@vector:
; File D:\Program Files\Microsoft Visual Studio\2022\Community\VC\Tools\MSVC\14.43.34808\include\vector

; 2078 :             _Al.deallocate(_Myfirst, static_cast<size_type>(_Myend - _Myfirst));

  00073	8b 4f 08	 mov	 ecx, DWORD PTR [edi+8]
  00076	b8 93 24 49 92	 mov	 eax, -1840700269	; 92492493H
  0007b	8b 37		 mov	 esi, DWORD PTR [edi]
  0007d	2b ce		 sub	 ecx, esi
  0007f	f7 e9		 imul	 ecx
  00081	03 d1		 add	 edx, ecx
  00083	c1 fa 04	 sar	 edx, 4
  00086	8b c2		 mov	 eax, edx
  00088	c1 e8 1f	 shr	 eax, 31			; 0000001fH
  0008b	03 c2		 add	 eax, edx
; File D:\Program Files\Microsoft Visual Studio\2022\Community\VC\Tools\MSVC\14.43.34808\include\xmemory

; 981  :         _STD _Deallocate<_New_alignof<_Ty>>(_Ptr, sizeof(_Ty) * _Count);

  0008d	8d 0c c5 00 00
	00 00		 lea	 ecx, DWORD PTR [eax*8]
  00094	2b c8		 sub	 ecx, eax
  00096	c1 e1 02	 shl	 ecx, 2

; 284  :         if (_Bytes >= _Big_allocation_threshold) {

  00099	81 f9 00 10 00
	00		 cmp	 ecx, 4096		; 00001000H
  0009f	72 12		 jb	 SHORT $LN83@vector

; 205  :     const uintptr_t _Ptr_container   = _Ptr_user[-1];

  000a1	8b 56 fc	 mov	 edx, DWORD PTR [esi-4]
  000a4	83 c1 23	 add	 ecx, 35			; 00000023H

; 206  : 
; 207  :     // If the following asserts, it likely means that we are performing
; 208  :     // an aligned delete on memory coming from an unaligned allocation.
; 209  :     _STL_ASSERT(_Ptr_user[-2] == _Big_allocation_sentinel, "invalid argument");
; 210  : 
; 211  :     // Extra paranoia on aligned allocation/deallocation; ensure _Ptr_container is
; 212  :     // in range [_Min_back_shift, _Non_user_size]
; 213  : #ifdef _DEBUG
; 214  :     constexpr uintptr_t _Min_back_shift = 2 * sizeof(void*);
; 215  : #else // ^^^ defined(_DEBUG) / !defined(_DEBUG) vvv
; 216  :     constexpr uintptr_t _Min_back_shift = sizeof(void*);
; 217  : #endif // ^^^ !defined(_DEBUG) ^^^
; 218  :     const uintptr_t _Back_shift = reinterpret_cast<uintptr_t>(_Ptr) - _Ptr_container;

  000a7	2b f2		 sub	 esi, edx

; 219  :     _STL_VERIFY(_Back_shift >= _Min_back_shift && _Back_shift <= _Non_user_size, "invalid argument");

  000a9	8d 46 fc	 lea	 eax, DWORD PTR [esi-4]
  000ac	83 f8 1f	 cmp	 eax, 31			; 0000001fH
  000af	77 27		 ja	 SHORT $LN80@vector

; 220  :     _Ptr = reinterpret_cast<void*>(_Ptr_container);

  000b1	8b f2		 mov	 esi, edx
$LN83@vector:

; 289  :         ::operator delete(_Ptr, _Bytes);

  000b3	51		 push	 ecx
  000b4	56		 push	 esi
  000b5	e8 00 00 00 00	 call	 ??3@YAXPAXI@Z		; operator delete
  000ba	83 c4 08	 add	 esp, 8
; File D:\Program Files\Microsoft Visual Studio\2022\Community\VC\Tools\MSVC\14.43.34808\include\vector

; 2080 :             _Myfirst = nullptr;

  000bd	c7 07 00 00 00
	00		 mov	 DWORD PTR [edi], 0

; 2081 :             _Mylast  = nullptr;

  000c3	c7 47 04 00 00
	00 00		 mov	 DWORD PTR [edi+4], 0

; 2082 :             _Myend   = nullptr;

  000ca	c7 47 08 00 00
	00 00		 mov	 DWORD PTR [edi+8], 0
  000d1	5e		 pop	 esi
$LN5@vector:
  000d2	5f		 pop	 edi

; 820  :     }

  000d3	5b		 pop	 ebx
  000d4	8b e5		 mov	 esp, ebp
  000d6	5d		 pop	 ebp
  000d7	c3		 ret	 0
$LN80@vector:
; File D:\Program Files\Microsoft Visual Studio\2022\Community\VC\Tools\MSVC\14.43.34808\include\xmemory

; 219  :     _STL_VERIFY(_Back_shift >= _Min_back_shift && _Back_shift <= _Non_user_size, "invalid argument");

  000d8	e8 00 00 00 00	 call	 __invalid_parameter_noinfo_noreturn
$LN103@vector:
  000dd	cc		 int	 3
??1?$vector@USSoundInstance@NSound@@V?$allocator@USSoundInstance@NSound@@@std@@@std@@QAE@XZ ENDP ; std::vector<NSound::SSoundInstance,std::allocator<NSound::SSoundInstance> >::~vector<NSound::SSoundInstance,std::allocator<NSound::SSoundInstance> >
_TEXT	ENDS
; Function compile flags: /Ogtp
; File D:\Program Files\Microsoft Visual Studio\2022\Community\VC\Tools\MSVC\14.43.34808\include\vector
;	COMDAT ?_Xlength@?$vector@PAVCLightData@@V?$allocator@PAVCLightData@@@std@@@std@@CAXXZ
_TEXT	SEGMENT
?_Xlength@?$vector@PAVCLightData@@V?$allocator@PAVCLightData@@@std@@@std@@CAXXZ PROC ; std::vector<CLightData *,std::allocator<CLightData *> >::_Xlength, COMDAT

; 2169 :         _Xlength_error("vector too long");

  00000	68 00 00 00 00	 push	 OFFSET ??_C@_0BA@FOIKENOD@vector?5too?5long@
  00005	e8 00 00 00 00	 call	 ?_Xlength_error@std@@YAXPBD@Z ; std::_Xlength_error
$LN3@Xlength:
  0000a	cc		 int	 3
?_Xlength@?$vector@PAVCLightData@@V?$allocator@PAVCLightData@@@std@@@std@@CAXXZ ENDP ; std::vector<CLightData *,std::allocator<CLightData *> >::_Xlength
_TEXT	ENDS
; Function compile flags: /Ogtp
; File D:\Program Files\Microsoft Visual Studio\2022\Community\VC\Tools\MSVC\14.43.34808\include\vector
;	COMDAT ?_Xlength@?$vector@PAVCEffectMeshScript@@V?$allocator@PAVCEffectMeshScript@@@std@@@std@@CAXXZ
_TEXT	SEGMENT
?_Xlength@?$vector@PAVCEffectMeshScript@@V?$allocator@PAVCEffectMeshScript@@@std@@@std@@CAXXZ PROC ; std::vector<CEffectMeshScript *,std::allocator<CEffectMeshScript *> >::_Xlength, COMDAT

; 2169 :         _Xlength_error("vector too long");

  00000	68 00 00 00 00	 push	 OFFSET ??_C@_0BA@FOIKENOD@vector?5too?5long@
  00005	e8 00 00 00 00	 call	 ?_Xlength_error@std@@YAXPBD@Z ; std::_Xlength_error
$LN3@Xlength:
  0000a	cc		 int	 3
?_Xlength@?$vector@PAVCEffectMeshScript@@V?$allocator@PAVCEffectMeshScript@@@std@@@std@@CAXXZ ENDP ; std::vector<CEffectMeshScript *,std::allocator<CEffectMeshScript *> >::_Xlength
_TEXT	ENDS
; Function compile flags: /Ogtp
; File D:\Program Files\Microsoft Visual Studio\2022\Community\VC\Tools\MSVC\14.43.34808\include\vector
;	COMDAT ?_Xlength@?$vector@PAVCParticleSystemData@@V?$allocator@PAVCParticleSystemData@@@std@@@std@@CAXXZ
_TEXT	SEGMENT
?_Xlength@?$vector@PAVCParticleSystemData@@V?$allocator@PAVCParticleSystemData@@@std@@@std@@CAXXZ PROC ; std::vector<CParticleSystemData *,std::allocator<CParticleSystemData *> >::_Xlength, COMDAT

; 2169 :         _Xlength_error("vector too long");

  00000	68 00 00 00 00	 push	 OFFSET ??_C@_0BA@FOIKENOD@vector?5too?5long@
  00005	e8 00 00 00 00	 call	 ?_Xlength_error@std@@YAXPBD@Z ; std::_Xlength_error
$LN3@Xlength:
  0000a	cc		 int	 3
?_Xlength@?$vector@PAVCParticleSystemData@@V?$allocator@PAVCParticleSystemData@@@std@@@std@@CAXXZ ENDP ; std::vector<CParticleSystemData *,std::allocator<CParticleSystemData *> >::_Xlength
_TEXT	ENDS
; Function compile flags: /Ogtp
; File C:\Marty 5.5\Src-Client\Client\EffectLib\EffectData.cpp
; File D:\Program Files\Microsoft Visual Studio\2022\Community\VC\Tools\MSVC\14.43.34808\include\vector
; File C:\Marty 5.5\Src-Client\Client\EffectLib\EffectData.cpp
; File D:\Program Files\Microsoft Visual Studio\2022\Community\VC\Tools\MSVC\14.43.34808\include\vector
; File C:\Marty 5.5\Src-Client\Client\EffectLib\EffectData.cpp
; File D:\Program Files\Microsoft Visual Studio\2022\Community\VC\Tools\MSVC\14.43.34808\include\vector
; File C:\Marty 5.5\Src-Client\Client\EffectLib\EffectData.cpp
; File D:\Program Files\Microsoft Visual Studio\2022\Community\VC\Tools\MSVC\14.43.34808\include\vector
; File C:\Marty 5.5\Src-Client\Client\EffectLib\EffectData.cpp
;	COMDAT ?AllocLight@CEffectData@@MAEPAVCLightData@@XZ
_TEXT	SEGMENT
_pLight$ = -4						; size = 4
?AllocLight@CEffectData@@MAEPAVCLightData@@XZ PROC	; CEffectData::AllocLight, COMDAT
; _this$ = ecx

; 136  : {

  00000	55		 push	 ebp
  00001	8b ec		 mov	 ebp, esp
  00003	51		 push	 ecx
  00004	56		 push	 esi
  00005	57		 push	 edi
  00006	8b f1		 mov	 esi, ecx

; 137  : 	CLightData * pLight = CLightData::New();

  00008	e8 00 00 00 00	 call	 ?New@CLightData@@SAPAV1@XZ ; CLightData::New

; 138  : 	m_LightVector.push_back(pLight);

  0000d	8d 4e 1c	 lea	 ecx, DWORD PTR [esi+28]
  00010	8b f8		 mov	 edi, eax
; File D:\Program Files\Microsoft Visual Studio\2022\Community\VC\Tools\MSVC\14.43.34808\include\vector

; 829  :         if (_Mylast != _My_data._Myend) {

  00012	8b 41 04	 mov	 eax, DWORD PTR [ecx+4]
; File C:\Marty 5.5\Src-Client\Client\EffectLib\EffectData.cpp

; 137  : 	CLightData * pLight = CLightData::New();

  00015	89 7d fc	 mov	 DWORD PTR _pLight$[ebp], edi
; File D:\Program Files\Microsoft Visual Studio\2022\Community\VC\Tools\MSVC\14.43.34808\include\vector

; 829  :         if (_Mylast != _My_data._Myend) {

  00018	3b 41 08	 cmp	 eax, DWORD PTR [ecx+8]
  0001b	74 0e		 je	 SHORT $LN6@AllocLight

; 845  :             _STD _Construct_in_place(*_Mylast, _STD forward<_Valty>(_Val)...);

  0001d	89 38		 mov	 DWORD PTR [eax], edi
; File C:\Marty 5.5\Src-Client\Client\EffectLib\EffectData.cpp

; 140  : }

  0001f	8b c7		 mov	 eax, edi
; File D:\Program Files\Microsoft Visual Studio\2022\Community\VC\Tools\MSVC\14.43.34808\include\vector

; 854  :         ++_Mylast;

  00021	83 41 04 04	 add	 DWORD PTR [ecx+4], 4
  00025	5f		 pop	 edi
; File C:\Marty 5.5\Src-Client\Client\EffectLib\EffectData.cpp

; 140  : }

  00026	5e		 pop	 esi
  00027	8b e5		 mov	 esp, ebp
  00029	5d		 pop	 ebp
  0002a	c3		 ret	 0
$LN6@AllocLight:
; File D:\Program Files\Microsoft Visual Studio\2022\Community\VC\Tools\MSVC\14.43.34808\include\vector

; 833  :         return *_Emplace_reallocate(_Mylast, _STD forward<_Valty>(_Val)...);

  0002b	8d 55 fc	 lea	 edx, DWORD PTR _pLight$[ebp]
  0002e	52		 push	 edx
  0002f	50		 push	 eax
  00030	e8 00 00 00 00	 call	 ??$_Emplace_reallocate@ABQAVCLightData@@@?$vector@PAVCLightData@@V?$allocator@PAVCLightData@@@std@@@std@@AAEPAPAVCLightData@@QAPAV2@ABQAV2@@Z ; std::vector<CLightData *,std::allocator<CLightData *> >::_Emplace_reallocate<CLightData * const &>
; File C:\Marty 5.5\Src-Client\Client\EffectLib\EffectData.cpp

; 140  : }

  00035	8b c7		 mov	 eax, edi
  00037	5f		 pop	 edi
  00038	5e		 pop	 esi
  00039	8b e5		 mov	 esp, ebp
  0003b	5d		 pop	 ebp
  0003c	c3		 ret	 0
?AllocLight@CEffectData@@MAEPAVCLightData@@XZ ENDP	; CEffectData::AllocLight
_TEXT	ENDS
; Function compile flags: /Ogtp
; File C:\Marty 5.5\Src-Client\Client\EffectLib\EffectData.cpp
; File D:\Program Files\Microsoft Visual Studio\2022\Community\VC\Tools\MSVC\14.43.34808\include\vector
; File C:\Marty 5.5\Src-Client\Client\EffectLib\EffectData.cpp
; File D:\Program Files\Microsoft Visual Studio\2022\Community\VC\Tools\MSVC\14.43.34808\include\vector
; File C:\Marty 5.5\Src-Client\Client\EffectLib\EffectData.cpp
; File D:\Program Files\Microsoft Visual Studio\2022\Community\VC\Tools\MSVC\14.43.34808\include\vector
; File C:\Marty 5.5\Src-Client\Client\EffectLib\EffectData.cpp
; File D:\Program Files\Microsoft Visual Studio\2022\Community\VC\Tools\MSVC\14.43.34808\include\vector
; File C:\Marty 5.5\Src-Client\Client\EffectLib\EffectData.cpp
;	COMDAT ?AllocMesh@CEffectData@@MAEPAVCEffectMeshScript@@XZ
_TEXT	SEGMENT
_pMesh$ = -4						; size = 4
?AllocMesh@CEffectData@@MAEPAVCEffectMeshScript@@XZ PROC ; CEffectData::AllocMesh, COMDAT
; _this$ = ecx

; 129  : {

  00000	55		 push	 ebp
  00001	8b ec		 mov	 ebp, esp
  00003	51		 push	 ecx
  00004	56		 push	 esi
  00005	57		 push	 edi
  00006	8b f1		 mov	 esi, ecx

; 130  : 	CEffectMeshScript * pMesh = CEffectMeshScript::New();

  00008	e8 00 00 00 00	 call	 ?New@CEffectMeshScript@@SAPAV1@XZ ; CEffectMeshScript::New

; 131  : 	m_MeshVector.push_back(pMesh);

  0000d	8d 4e 10	 lea	 ecx, DWORD PTR [esi+16]
  00010	8b f8		 mov	 edi, eax
; File D:\Program Files\Microsoft Visual Studio\2022\Community\VC\Tools\MSVC\14.43.34808\include\vector

; 829  :         if (_Mylast != _My_data._Myend) {

  00012	8b 41 04	 mov	 eax, DWORD PTR [ecx+4]
; File C:\Marty 5.5\Src-Client\Client\EffectLib\EffectData.cpp

; 130  : 	CEffectMeshScript * pMesh = CEffectMeshScript::New();

  00015	89 7d fc	 mov	 DWORD PTR _pMesh$[ebp], edi
; File D:\Program Files\Microsoft Visual Studio\2022\Community\VC\Tools\MSVC\14.43.34808\include\vector

; 829  :         if (_Mylast != _My_data._Myend) {

  00018	3b 41 08	 cmp	 eax, DWORD PTR [ecx+8]
  0001b	74 0e		 je	 SHORT $LN6@AllocMesh

; 845  :             _STD _Construct_in_place(*_Mylast, _STD forward<_Valty>(_Val)...);

  0001d	89 38		 mov	 DWORD PTR [eax], edi
; File C:\Marty 5.5\Src-Client\Client\EffectLib\EffectData.cpp

; 133  : }

  0001f	8b c7		 mov	 eax, edi
; File D:\Program Files\Microsoft Visual Studio\2022\Community\VC\Tools\MSVC\14.43.34808\include\vector

; 854  :         ++_Mylast;

  00021	83 41 04 04	 add	 DWORD PTR [ecx+4], 4
  00025	5f		 pop	 edi
; File C:\Marty 5.5\Src-Client\Client\EffectLib\EffectData.cpp

; 133  : }

  00026	5e		 pop	 esi
  00027	8b e5		 mov	 esp, ebp
  00029	5d		 pop	 ebp
  0002a	c3		 ret	 0
$LN6@AllocMesh:
; File D:\Program Files\Microsoft Visual Studio\2022\Community\VC\Tools\MSVC\14.43.34808\include\vector

; 833  :         return *_Emplace_reallocate(_Mylast, _STD forward<_Valty>(_Val)...);

  0002b	8d 55 fc	 lea	 edx, DWORD PTR _pMesh$[ebp]
  0002e	52		 push	 edx
  0002f	50		 push	 eax
  00030	e8 00 00 00 00	 call	 ??$_Emplace_reallocate@ABQAVCEffectMeshScript@@@?$vector@PAVCEffectMeshScript@@V?$allocator@PAVCEffectMeshScript@@@std@@@std@@AAEPAPAVCEffectMeshScript@@QAPAV2@ABQAV2@@Z ; std::vector<CEffectMeshScript *,std::allocator<CEffectMeshScript *> >::_Emplace_reallocate<CEffectMeshScript * const &>
; File C:\Marty 5.5\Src-Client\Client\EffectLib\EffectData.cpp

; 133  : }

  00035	8b c7		 mov	 eax, edi
  00037	5f		 pop	 edi
  00038	5e		 pop	 esi
  00039	8b e5		 mov	 esp, ebp
  0003b	5d		 pop	 ebp
  0003c	c3		 ret	 0
?AllocMesh@CEffectData@@MAEPAVCEffectMeshScript@@XZ ENDP ; CEffectData::AllocMesh
_TEXT	ENDS
; Function compile flags: /Ogtp
; File C:\Marty 5.5\Src-Client\Client\EffectLib\EffectData.cpp
; File D:\Program Files\Microsoft Visual Studio\2022\Community\VC\Tools\MSVC\14.43.34808\include\vector
; File C:\Marty 5.5\Src-Client\Client\EffectLib\EffectData.cpp
; File D:\Program Files\Microsoft Visual Studio\2022\Community\VC\Tools\MSVC\14.43.34808\include\vector
; File C:\Marty 5.5\Src-Client\Client\EffectLib\EffectData.cpp
; File D:\Program Files\Microsoft Visual Studio\2022\Community\VC\Tools\MSVC\14.43.34808\include\vector
; File C:\Marty 5.5\Src-Client\Client\EffectLib\EffectData.cpp
; File D:\Program Files\Microsoft Visual Studio\2022\Community\VC\Tools\MSVC\14.43.34808\include\vector
; File C:\Marty 5.5\Src-Client\Client\EffectLib\EffectData.cpp
;	COMDAT ?AllocParticle@CEffectData@@MAEPAVCParticleSystemData@@XZ
_TEXT	SEGMENT
_pParticle$ = -4					; size = 4
?AllocParticle@CEffectData@@MAEPAVCParticleSystemData@@XZ PROC ; CEffectData::AllocParticle, COMDAT
; _this$ = ecx

; 122  : {

  00000	55		 push	 ebp
  00001	8b ec		 mov	 ebp, esp
  00003	51		 push	 ecx
  00004	56		 push	 esi
  00005	57		 push	 edi
  00006	8b f1		 mov	 esi, ecx

; 123  : 	CParticleSystemData * pParticle = CParticleSystemData::New();

  00008	e8 00 00 00 00	 call	 ?New@CParticleSystemData@@SAPAV1@XZ ; CParticleSystemData::New

; 124  : 	m_ParticleVector.push_back(pParticle);

  0000d	8d 4e 04	 lea	 ecx, DWORD PTR [esi+4]
  00010	8b f8		 mov	 edi, eax
; File D:\Program Files\Microsoft Visual Studio\2022\Community\VC\Tools\MSVC\14.43.34808\include\vector

; 829  :         if (_Mylast != _My_data._Myend) {

  00012	8b 41 04	 mov	 eax, DWORD PTR [ecx+4]
; File C:\Marty 5.5\Src-Client\Client\EffectLib\EffectData.cpp

; 123  : 	CParticleSystemData * pParticle = CParticleSystemData::New();

  00015	89 7d fc	 mov	 DWORD PTR _pParticle$[ebp], edi
; File D:\Program Files\Microsoft Visual Studio\2022\Community\VC\Tools\MSVC\14.43.34808\include\vector

; 829  :         if (_Mylast != _My_data._Myend) {

  00018	3b 41 08	 cmp	 eax, DWORD PTR [ecx+8]
  0001b	74 0e		 je	 SHORT $LN6@AllocParti

; 845  :             _STD _Construct_in_place(*_Mylast, _STD forward<_Valty>(_Val)...);

  0001d	89 38		 mov	 DWORD PTR [eax], edi
; File C:\Marty 5.5\Src-Client\Client\EffectLib\EffectData.cpp

; 126  : }

  0001f	8b c7		 mov	 eax, edi
; File D:\Program Files\Microsoft Visual Studio\2022\Community\VC\Tools\MSVC\14.43.34808\include\vector

; 854  :         ++_Mylast;

  00021	83 41 04 04	 add	 DWORD PTR [ecx+4], 4
  00025	5f		 pop	 edi
; File C:\Marty 5.5\Src-Client\Client\EffectLib\EffectData.cpp

; 126  : }

  00026	5e		 pop	 esi
  00027	8b e5		 mov	 esp, ebp
  00029	5d		 pop	 ebp
  0002a	c3		 ret	 0
$LN6@AllocParti:
; File D:\Program Files\Microsoft Visual Studio\2022\Community\VC\Tools\MSVC\14.43.34808\include\vector

; 833  :         return *_Emplace_reallocate(_Mylast, _STD forward<_Valty>(_Val)...);

  0002b	8d 55 fc	 lea	 edx, DWORD PTR _pParticle$[ebp]
  0002e	52		 push	 edx
  0002f	50		 push	 eax
  00030	e8 00 00 00 00	 call	 ??$_Emplace_reallocate@ABQAVCParticleSystemData@@@?$vector@PAVCParticleSystemData@@V?$allocator@PAVCParticleSystemData@@@std@@@std@@AAEPAPAVCParticleSystemData@@QAPAV2@ABQAV2@@Z ; std::vector<CParticleSystemData *,std::allocator<CParticleSystemData *> >::_Emplace_reallocate<CParticleSystemData * const &>
; File C:\Marty 5.5\Src-Client\Client\EffectLib\EffectData.cpp

; 126  : }

  00035	8b c7		 mov	 eax, edi
  00037	5f		 pop	 edi
  00038	5e		 pop	 esi
  00039	8b e5		 mov	 esp, ebp
  0003b	5d		 pop	 ebp
  0003c	c3		 ret	 0
?AllocParticle@CEffectData@@MAEPAVCParticleSystemData@@XZ ENDP ; CEffectData::AllocParticle
_TEXT	ENDS
; Function compile flags: /Ogtp
; File C:\Marty 5.5\Src-Client\Client\EffectLib\EffectData.cpp
; File D:\Program Files\Microsoft Visual Studio\2022\Community\VC\Tools\MSVC\14.43.34808\include\vector
; File D:\Program Files\Microsoft Visual Studio\2022\Community\VC\Tools\MSVC\14.43.34808\include\algorithm
; File D:\Program Files\Microsoft Visual Studio\2022\Community\VC\Tools\MSVC\14.43.34808\include\vector
; File C:\Marty 5.5\Src-Client\Client\EffectLib\EffectData.cpp
;	COMDAT ?__ClearMeshDataVector@CEffectData@@IAEXXZ
_TEXT	SEGMENT
?__ClearMeshDataVector@CEffectData@@IAEXXZ PROC		; CEffectData::__ClearMeshDataVector, COMDAT
; _this$ = ecx

; 211  : {

  00000	53		 push	 ebx
  00001	8b d9		 mov	 ebx, ecx
  00003	56		 push	 esi
  00004	57		 push	 edi
; File D:\Program Files\Microsoft Visual Studio\2022\Community\VC\Tools\MSVC\14.43.34808\include\vector

; 46   :     _CONSTEXPR20 _Vector_const_iterator(_Tptr _Parg, const _Container_base* _Pvector) noexcept : _Ptr(_Parg) {

  00005	8b 7b 14	 mov	 edi, DWORD PTR [ebx+20]
  00008	8b 73 10	 mov	 esi, DWORD PTR [ebx+16]
; File D:\Program Files\Microsoft Visual Studio\2022\Community\VC\Tools\MSVC\14.43.34808\include\algorithm

; 371  :     for (; _UFirst != _ULast; ++_UFirst) {

  0000b	3b f7		 cmp	 esi, edi
  0000d	74 12		 je	 SHORT $LN23@ClearMeshD
  0000f	90		 npad	 1
$LL24@ClearMeshD:

; 372  :         _Func(*_UFirst);

  00010	ff 36		 push	 DWORD PTR [esi]
  00012	e8 00 00 00 00	 call	 ?Delete@CEffectMeshScript@@SAXPAV1@@Z ; CEffectMeshScript::Delete
  00017	83 c6 04	 add	 esi, 4
  0001a	83 c4 04	 add	 esp, 4
  0001d	3b f7		 cmp	 esi, edi
  0001f	75 ef		 jne	 SHORT $LL24@ClearMeshD
$LN23@ClearMeshD:
; File D:\Program Files\Microsoft Visual Studio\2022\Community\VC\Tools\MSVC\14.43.34808\include\vector

; 1797 :         if (_Myfirst == _Mylast) { // already empty, nothing to do

  00021	8b 43 10	 mov	 eax, DWORD PTR [ebx+16]
  00024	3b 43 14	 cmp	 eax, DWORD PTR [ebx+20]
  00027	74 03		 je	 SHORT $LN26@ClearMeshD

; 1798 :             // This is an optimization for debug mode: we can avoid taking the debug lock to invalidate iterators.
; 1799 :             // Note that when clearing an empty vector, this will preserve past-the-end iterators, which is allowed by
; 1800 :             // N4950 [sequence.reqmts]/54 "a.clear() [...] may invalidate the past-the-end iterator".
; 1801 :             return;
; 1802 :         }
; 1803 : 
; 1804 :         _My_data._Orphan_all();
; 1805 :         _Destroy_range(_Myfirst, _Mylast, _Getal());
; 1806 :         _ASAN_VECTOR_MODIFY(static_cast<difference_type>(_Myfirst - _Mylast)); // negative when destroying elements
; 1807 :         _Mylast = _Myfirst;

  00029	89 43 14	 mov	 DWORD PTR [ebx+20], eax
$LN26@ClearMeshD:
  0002c	5f		 pop	 edi
; File C:\Marty 5.5\Src-Client\Client\EffectLib\EffectData.cpp

; 214  : }

  0002d	5e		 pop	 esi
  0002e	5b		 pop	 ebx
  0002f	c3		 ret	 0
?__ClearMeshDataVector@CEffectData@@IAEXXZ ENDP		; CEffectData::__ClearMeshDataVector
_TEXT	ENDS
; Function compile flags: /Ogtp
; File C:\Marty 5.5\Src-Client\Client\EffectLib\EffectData.cpp
; File D:\Program Files\Microsoft Visual Studio\2022\Community\VC\Tools\MSVC\14.43.34808\include\vector
; File D:\Program Files\Microsoft Visual Studio\2022\Community\VC\Tools\MSVC\14.43.34808\include\algorithm
; File D:\Program Files\Microsoft Visual Studio\2022\Community\VC\Tools\MSVC\14.43.34808\include\vector
; File C:\Marty 5.5\Src-Client\Client\EffectLib\EffectData.cpp
;	COMDAT ?__ClearLightDataVector@CEffectData@@IAEXXZ
_TEXT	SEGMENT
?__ClearLightDataVector@CEffectData@@IAEXXZ PROC	; CEffectData::__ClearLightDataVector, COMDAT
; _this$ = ecx

; 205  : {

  00000	53		 push	 ebx
  00001	8b d9		 mov	 ebx, ecx
  00003	56		 push	 esi
  00004	57		 push	 edi
; File D:\Program Files\Microsoft Visual Studio\2022\Community\VC\Tools\MSVC\14.43.34808\include\vector

; 46   :     _CONSTEXPR20 _Vector_const_iterator(_Tptr _Parg, const _Container_base* _Pvector) noexcept : _Ptr(_Parg) {

  00005	8b 7b 20	 mov	 edi, DWORD PTR [ebx+32]
  00008	8b 73 1c	 mov	 esi, DWORD PTR [ebx+28]
; File D:\Program Files\Microsoft Visual Studio\2022\Community\VC\Tools\MSVC\14.43.34808\include\algorithm

; 371  :     for (; _UFirst != _ULast; ++_UFirst) {

  0000b	3b f7		 cmp	 esi, edi
  0000d	74 12		 je	 SHORT $LN23@ClearLight
  0000f	90		 npad	 1
$LL24@ClearLight:

; 372  :         _Func(*_UFirst);

  00010	ff 36		 push	 DWORD PTR [esi]
  00012	e8 00 00 00 00	 call	 ?Delete@CLightData@@SAXPAV1@@Z ; CLightData::Delete
  00017	83 c6 04	 add	 esi, 4
  0001a	83 c4 04	 add	 esp, 4
  0001d	3b f7		 cmp	 esi, edi
  0001f	75 ef		 jne	 SHORT $LL24@ClearLight
$LN23@ClearLight:
; File D:\Program Files\Microsoft Visual Studio\2022\Community\VC\Tools\MSVC\14.43.34808\include\vector

; 1797 :         if (_Myfirst == _Mylast) { // already empty, nothing to do

  00021	8b 43 1c	 mov	 eax, DWORD PTR [ebx+28]
  00024	3b 43 20	 cmp	 eax, DWORD PTR [ebx+32]
  00027	74 03		 je	 SHORT $LN26@ClearLight

; 1798 :             // This is an optimization for debug mode: we can avoid taking the debug lock to invalidate iterators.
; 1799 :             // Note that when clearing an empty vector, this will preserve past-the-end iterators, which is allowed by
; 1800 :             // N4950 [sequence.reqmts]/54 "a.clear() [...] may invalidate the past-the-end iterator".
; 1801 :             return;
; 1802 :         }
; 1803 : 
; 1804 :         _My_data._Orphan_all();
; 1805 :         _Destroy_range(_Myfirst, _Mylast, _Getal());
; 1806 :         _ASAN_VECTOR_MODIFY(static_cast<difference_type>(_Myfirst - _Mylast)); // negative when destroying elements
; 1807 :         _Mylast = _Myfirst;

  00029	89 43 20	 mov	 DWORD PTR [ebx+32], eax
$LN26@ClearLight:
  0002c	5f		 pop	 edi
; File C:\Marty 5.5\Src-Client\Client\EffectLib\EffectData.cpp

; 208  : }

  0002d	5e		 pop	 esi
  0002e	5b		 pop	 ebx
  0002f	c3		 ret	 0
?__ClearLightDataVector@CEffectData@@IAEXXZ ENDP	; CEffectData::__ClearLightDataVector
_TEXT	ENDS
; Function compile flags: /Ogtp
; File C:\Marty 5.5\Src-Client\Client\EffectLib\EffectData.cpp
; File D:\Program Files\Microsoft Visual Studio\2022\Community\VC\Tools\MSVC\14.43.34808\include\vector
; File D:\Program Files\Microsoft Visual Studio\2022\Community\VC\Tools\MSVC\14.43.34808\include\algorithm
; File D:\Program Files\Microsoft Visual Studio\2022\Community\VC\Tools\MSVC\14.43.34808\include\vector
; File C:\Marty 5.5\Src-Client\Client\EffectLib\EffectData.cpp
;	COMDAT ?__ClearParticleDataVector@CEffectData@@IAEXXZ
_TEXT	SEGMENT
?__ClearParticleDataVector@CEffectData@@IAEXXZ PROC	; CEffectData::__ClearParticleDataVector, COMDAT
; _this$ = ecx

; 199  : {

  00000	53		 push	 ebx
  00001	8b d9		 mov	 ebx, ecx
  00003	56		 push	 esi
  00004	57		 push	 edi
; File D:\Program Files\Microsoft Visual Studio\2022\Community\VC\Tools\MSVC\14.43.34808\include\vector

; 46   :     _CONSTEXPR20 _Vector_const_iterator(_Tptr _Parg, const _Container_base* _Pvector) noexcept : _Ptr(_Parg) {

  00005	8b 7b 08	 mov	 edi, DWORD PTR [ebx+8]
  00008	8b 73 04	 mov	 esi, DWORD PTR [ebx+4]
; File D:\Program Files\Microsoft Visual Studio\2022\Community\VC\Tools\MSVC\14.43.34808\include\algorithm

; 371  :     for (; _UFirst != _ULast; ++_UFirst) {

  0000b	3b f7		 cmp	 esi, edi
  0000d	74 12		 je	 SHORT $LN23@ClearParti
  0000f	90		 npad	 1
$LL24@ClearParti:

; 372  :         _Func(*_UFirst);

  00010	ff 36		 push	 DWORD PTR [esi]
  00012	e8 00 00 00 00	 call	 ?Delete@CParticleSystemData@@SAXPAV1@@Z ; CParticleSystemData::Delete
  00017	83 c6 04	 add	 esi, 4
  0001a	83 c4 04	 add	 esp, 4
  0001d	3b f7		 cmp	 esi, edi
  0001f	75 ef		 jne	 SHORT $LL24@ClearParti
$LN23@ClearParti:
; File D:\Program Files\Microsoft Visual Studio\2022\Community\VC\Tools\MSVC\14.43.34808\include\vector

; 1797 :         if (_Myfirst == _Mylast) { // already empty, nothing to do

  00021	8b 43 04	 mov	 eax, DWORD PTR [ebx+4]
  00024	3b 43 08	 cmp	 eax, DWORD PTR [ebx+8]
  00027	74 03		 je	 SHORT $LN26@ClearParti

; 1798 :             // This is an optimization for debug mode: we can avoid taking the debug lock to invalidate iterators.
; 1799 :             // Note that when clearing an empty vector, this will preserve past-the-end iterators, which is allowed by
; 1800 :             // N4950 [sequence.reqmts]/54 "a.clear() [...] may invalidate the past-the-end iterator".
; 1801 :             return;
; 1802 :         }
; 1803 : 
; 1804 :         _My_data._Orphan_all();
; 1805 :         _Destroy_range(_Myfirst, _Mylast, _Getal());
; 1806 :         _ASAN_VECTOR_MODIFY(static_cast<difference_type>(_Myfirst - _Mylast)); // negative when destroying elements
; 1807 :         _Mylast = _Myfirst;

  00029	89 43 08	 mov	 DWORD PTR [ebx+8], eax
$LN26@ClearParti:
  0002c	5f		 pop	 edi
; File C:\Marty 5.5\Src-Client\Client\EffectLib\EffectData.cpp

; 202  : }

  0002d	5e		 pop	 esi
  0002e	5b		 pop	 ebx
  0002f	c3		 ret	 0
?__ClearParticleDataVector@CEffectData@@IAEXXZ ENDP	; CEffectData::__ClearParticleDataVector
_TEXT	ENDS
; Function compile flags: /Ogtp
; File C:\Marty 5.5\Src-Client\Client\EffectLib\EffectData.cpp
; File D:\Program Files\Microsoft Visual Studio\2022\Community\VC\Tools\MSVC\14.43.34808\include\xstring
; File C:\Marty 5.5\Src-Client\Client\EffectLib\EffectData.cpp
;	COMDAT ?GetFileName@CEffectData@@QBEPBDXZ
_TEXT	SEGMENT
?GetFileName@CEffectData@@QBEPBDXZ PROC			; CEffectData::GetFileName, COMDAT
; _this$ = ecx
; File D:\Program Files\Microsoft Visual Studio\2022\Community\VC\Tools\MSVC\14.43.34808\include\xstring

; 434  :         return _Myres > _Small_string_capacity;

  00000	83 79 58 0f	 cmp	 DWORD PTR [ecx+88], 15	; 0000000fH

; 2328 :         return _Mypair._Myval2._Myptr();

  00004	8d 41 44	 lea	 eax, DWORD PTR [ecx+68]

; 426  :         if (_Large_mode_engaged()) {

  00007	76 02		 jbe	 SHORT $LN7@GetFileNam
; File C:\Marty 5.5\Src-Client\Client\EffectLib\EffectData.cpp

; 195  : 	return m_strFileName.c_str();

  00009	8b 00		 mov	 eax, DWORD PTR [eax]
$LN7@GetFileNam:

; 196  : }

  0000b	c3		 ret	 0
?GetFileName@CEffectData@@QBEPBDXZ ENDP			; CEffectData::GetFileName
_TEXT	ENDS
; Function compile flags: /Ogtp
; File C:\Marty 5.5\Src-Client\Client\EffectLib\EffectData.cpp
;	COMDAT ?GetBoundingSpherePosition@CEffectData@@QAE?AUD3DXVECTOR3@@XZ
_TEXT	SEGMENT
___$ReturnUdt$ = 8					; size = 4
?GetBoundingSpherePosition@CEffectData@@QAE?AUD3DXVECTOR3@@XZ PROC ; CEffectData::GetBoundingSpherePosition, COMDAT
; _this$ = ecx

; 189  : {

  00000	55		 push	 ebp
  00001	8b ec		 mov	 ebp, esp

; 190  : 	return m_v3BoundingSpherePosition;

  00003	8b 45 08	 mov	 eax, DWORD PTR ___$ReturnUdt$[ebp]
  00006	f3 0f 7e 41 38	 movq	 xmm0, QWORD PTR [ecx+56]
  0000b	8b 49 40	 mov	 ecx, DWORD PTR [ecx+64]
  0000e	66 0f d6 00	 movq	 QWORD PTR [eax], xmm0
  00012	89 48 08	 mov	 DWORD PTR [eax+8], ecx

; 191  : }

  00015	5d		 pop	 ebp
  00016	c2 04 00	 ret	 4
?GetBoundingSpherePosition@CEffectData@@QAE?AUD3DXVECTOR3@@XZ ENDP ; CEffectData::GetBoundingSpherePosition
_TEXT	ENDS
; Function compile flags: /Ogtp
; File C:\Marty 5.5\Src-Client\Client\EffectLib\EffectData.cpp
;	COMDAT ?GetBoundingSphereRadius@CEffectData@@QAEMXZ
_TEXT	SEGMENT
?GetBoundingSphereRadius@CEffectData@@QAEMXZ PROC	; CEffectData::GetBoundingSphereRadius, COMDAT
; _this$ = ecx

; 185  : 	return m_fBoundingSphereRadius;

  00000	d9 41 34	 fld	 DWORD PTR [ecx+52]

; 186  : }

  00003	c3		 ret	 0
?GetBoundingSphereRadius@CEffectData@@QAEMXZ ENDP	; CEffectData::GetBoundingSphereRadius
_TEXT	ENDS
; Function compile flags: /Ogtp
; File C:\Marty 5.5\Src-Client\Client\EffectLib\EffectData.cpp
;	COMDAT ?GetSoundInstanceVector@CEffectData@@QAEPAV?$vector@USSoundInstance@NSound@@V?$allocator@USSoundInstance@NSound@@@std@@@std@@XZ
_TEXT	SEGMENT
?GetSoundInstanceVector@CEffectData@@QAEPAV?$vector@USSoundInstance@NSound@@V?$allocator@USSoundInstance@NSound@@@std@@@std@@XZ PROC ; CEffectData::GetSoundInstanceVector, COMDAT
; _this$ = ecx

; 180  : 	return &m_SoundInstanceVector;

  00000	8d 41 28	 lea	 eax, DWORD PTR [ecx+40]

; 181  : }

  00003	c3		 ret	 0
?GetSoundInstanceVector@CEffectData@@QAEPAV?$vector@USSoundInstance@NSound@@V?$allocator@USSoundInstance@NSound@@@std@@@std@@XZ ENDP ; CEffectData::GetSoundInstanceVector
_TEXT	ENDS
; Function compile flags: /Ogtp
; File C:\Marty 5.5\Src-Client\Client\EffectLib\EffectData.cpp
;	COMDAT ?GetLightPointer@CEffectData@@QAEPAVCLightData@@K@Z
_TEXT	SEGMENT
_dwPosition$ = 8					; size = 4
?GetLightPointer@CEffectData@@QAEPAVCLightData@@K@Z PROC ; CEffectData::GetLightPointer, COMDAT
; _this$ = ecx

; 148  : {

  00000	55		 push	 ebp
  00001	8b ec		 mov	 ebp, esp

; 149  : 	assert(dwPosition < m_LightVector.size());
; 150  : 	return m_LightVector[dwPosition];

  00003	8b 49 1c	 mov	 ecx, DWORD PTR [ecx+28]
  00006	8b 45 08	 mov	 eax, DWORD PTR _dwPosition$[ebp]
  00009	8b 04 81	 mov	 eax, DWORD PTR [ecx+eax*4]

; 151  : }

  0000c	5d		 pop	 ebp
  0000d	c2 04 00	 ret	 4
?GetLightPointer@CEffectData@@QAEPAVCLightData@@K@Z ENDP ; CEffectData::GetLightPointer
_TEXT	ENDS
; Function compile flags: /Ogtp
; File C:\Marty 5.5\Src-Client\Client\EffectLib\EffectData.cpp
; File D:\Program Files\Microsoft Visual Studio\2022\Community\VC\Tools\MSVC\14.43.34808\include\vector
; File C:\Marty 5.5\Src-Client\Client\EffectLib\EffectData.cpp
;	COMDAT ?GetLightCount@CEffectData@@QAEKXZ
_TEXT	SEGMENT
?GetLightCount@CEffectData@@QAEKXZ PROC			; CEffectData::GetLightCount, COMDAT
; _this$ = ecx
; File D:\Program Files\Microsoft Visual Studio\2022\Community\VC\Tools\MSVC\14.43.34808\include\vector

; 1900 :         return static_cast<size_type>(_My_data._Mylast - _My_data._Myfirst);

  00000	8b 41 20	 mov	 eax, DWORD PTR [ecx+32]
  00003	2b 41 1c	 sub	 eax, DWORD PTR [ecx+28]
  00006	c1 f8 02	 sar	 eax, 2
; File C:\Marty 5.5\Src-Client\Client\EffectLib\EffectData.cpp

; 145  : }

  00009	c3		 ret	 0
?GetLightCount@CEffectData@@QAEKXZ ENDP			; CEffectData::GetLightCount
_TEXT	ENDS
; Function compile flags: /Ogtp
; File C:\Marty 5.5\Src-Client\Client\EffectLib\EffectData.cpp
;	COMDAT ?GetMeshPointer@CEffectData@@QAEPAVCEffectMeshScript@@K@Z
_TEXT	SEGMENT
_dwPosition$ = 8					; size = 4
?GetMeshPointer@CEffectData@@QAEPAVCEffectMeshScript@@K@Z PROC ; CEffectData::GetMeshPointer, COMDAT
; _this$ = ecx

; 173  : {

  00000	55		 push	 ebp
  00001	8b ec		 mov	 ebp, esp

; 174  : 	assert(dwPosition < m_MeshVector.size());
; 175  : 	return m_MeshVector[dwPosition];

  00003	8b 49 10	 mov	 ecx, DWORD PTR [ecx+16]
  00006	8b 45 08	 mov	 eax, DWORD PTR _dwPosition$[ebp]
  00009	8b 04 81	 mov	 eax, DWORD PTR [ecx+eax*4]

; 176  : }

  0000c	5d		 pop	 ebp
  0000d	c2 04 00	 ret	 4
?GetMeshPointer@CEffectData@@QAEPAVCEffectMeshScript@@K@Z ENDP ; CEffectData::GetMeshPointer
_TEXT	ENDS
; Function compile flags: /Ogtp
; File C:\Marty 5.5\Src-Client\Client\EffectLib\EffectData.cpp
; File D:\Program Files\Microsoft Visual Studio\2022\Community\VC\Tools\MSVC\14.43.34808\include\vector
; File C:\Marty 5.5\Src-Client\Client\EffectLib\EffectData.cpp
;	COMDAT ?GetMeshCount@CEffectData@@QAEKXZ
_TEXT	SEGMENT
?GetMeshCount@CEffectData@@QAEKXZ PROC			; CEffectData::GetMeshCount, COMDAT
; _this$ = ecx
; File D:\Program Files\Microsoft Visual Studio\2022\Community\VC\Tools\MSVC\14.43.34808\include\vector

; 1900 :         return static_cast<size_type>(_My_data._Mylast - _My_data._Myfirst);

  00000	8b 41 14	 mov	 eax, DWORD PTR [ecx+20]
  00003	2b 41 10	 sub	 eax, DWORD PTR [ecx+16]
  00006	c1 f8 02	 sar	 eax, 2
; File C:\Marty 5.5\Src-Client\Client\EffectLib\EffectData.cpp

; 171  : }

  00009	c3		 ret	 0
?GetMeshCount@CEffectData@@QAEKXZ ENDP			; CEffectData::GetMeshCount
_TEXT	ENDS
; Function compile flags: /Ogtp
; File C:\Marty 5.5\Src-Client\Client\EffectLib\EffectData.cpp
; File D:\Program Files\Microsoft Visual Studio\2022\Community\VC\Tools\MSVC\14.43.34808\include\vector
; File C:\Marty 5.5\Src-Client\Client\EffectLib\EffectData.cpp
; File D:\Program Files\Microsoft Visual Studio\2022\Community\VC\Tools\MSVC\14.43.34808\include\vector
; File C:\Marty 5.5\Src-Client\Client\EffectLib\EffectData.cpp
;	COMDAT ?GetParticlePointer@CEffectData@@QAEPAVCParticleSystemData@@K@Z
_TEXT	SEGMENT
_dwPosition$ = 8					; size = 4
?GetParticlePointer@CEffectData@@QAEPAVCParticleSystemData@@K@Z PROC ; CEffectData::GetParticlePointer, COMDAT
; _this$ = ecx

; 158  : {

  00000	55		 push	 ebp
  00001	8b ec		 mov	 ebp, esp
; File D:\Program Files\Microsoft Visual Studio\2022\Community\VC\Tools\MSVC\14.43.34808\include\vector

; 1900 :         return static_cast<size_type>(_My_data._Mylast - _My_data._Myfirst);

  00003	8b 41 04	 mov	 eax, DWORD PTR [ecx+4]
  00006	8b 49 08	 mov	 ecx, DWORD PTR [ecx+8]
; File C:\Marty 5.5\Src-Client\Client\EffectLib\EffectData.cpp

; 159  : 	if(dwPosition < m_ParticleVector.size())

  00009	8b 55 08	 mov	 edx, DWORD PTR _dwPosition$[ebp]
; File D:\Program Files\Microsoft Visual Studio\2022\Community\VC\Tools\MSVC\14.43.34808\include\vector

; 1900 :         return static_cast<size_type>(_My_data._Mylast - _My_data._Myfirst);

  0000c	2b c8		 sub	 ecx, eax
  0000e	c1 f9 02	 sar	 ecx, 2
; File C:\Marty 5.5\Src-Client\Client\EffectLib\EffectData.cpp

; 159  : 	if(dwPosition < m_ParticleVector.size())

  00011	3b d1		 cmp	 edx, ecx
  00013	73 07		 jae	 SHORT $LN2@GetParticl

; 160  : 		return m_ParticleVector[dwPosition];

  00015	8b 04 90	 mov	 eax, DWORD PTR [eax+edx*4]

; 165  : 	}
; 166  : }

  00018	5d		 pop	 ebp
  00019	c2 04 00	 ret	 4
$LN2@GetParticl:

; 161  : 	else
; 162  : 	{
; 163  : 		assert(false);
; 164  : 		return NULL;

  0001c	33 c0		 xor	 eax, eax

; 165  : 	}
; 166  : }

  0001e	5d		 pop	 ebp
  0001f	c2 04 00	 ret	 4
?GetParticlePointer@CEffectData@@QAEPAVCParticleSystemData@@K@Z ENDP ; CEffectData::GetParticlePointer
_TEXT	ENDS
; Function compile flags: /Ogtp
; File C:\Marty 5.5\Src-Client\Client\EffectLib\EffectData.cpp
; File D:\Program Files\Microsoft Visual Studio\2022\Community\VC\Tools\MSVC\14.43.34808\include\vector
; File C:\Marty 5.5\Src-Client\Client\EffectLib\EffectData.cpp
;	COMDAT ?GetParticleCount@CEffectData@@QAEKXZ
_TEXT	SEGMENT
?GetParticleCount@CEffectData@@QAEKXZ PROC		; CEffectData::GetParticleCount, COMDAT
; _this$ = ecx
; File D:\Program Files\Microsoft Visual Studio\2022\Community\VC\Tools\MSVC\14.43.34808\include\vector

; 1900 :         return static_cast<size_type>(_My_data._Mylast - _My_data._Myfirst);

  00000	8b 41 08	 mov	 eax, DWORD PTR [ecx+8]
  00003	2b 41 04	 sub	 eax, DWORD PTR [ecx+4]
  00006	c1 f8 02	 sar	 eax, 2
; File C:\Marty 5.5\Src-Client\Client\EffectLib\EffectData.cpp

; 156  : }

  00009	c3		 ret	 0
?GetParticleCount@CEffectData@@QAEKXZ ENDP		; CEffectData::GetParticleCount
_TEXT	ENDS
; Function compile flags: /Ogtp
; File C:\Marty 5.5\Src-Client\Client\EffectLib\EffectData.cpp
; File D:\Program Files\Microsoft Visual Studio\2022\Community\VC\Tools\MSVC\14.43.34808\include\vector
; File C:\Marty 5.5\Src-Client\Client\EffectLib\EffectData.cpp
; File D:\Program Files\Microsoft Visual Studio\2022\Community\VC\Tools\MSVC\14.43.34808\include\vector
; File D:\Program Files\Microsoft Visual Studio\2022\Community\VC\Tools\MSVC\14.43.34808\include\xmemory
; File D:\Program Files\Microsoft Visual Studio\2022\Community\VC\Tools\MSVC\14.43.34808\include\vector
; File D:\Program Files\Microsoft Visual Studio\2022\Community\VC\Tools\MSVC\14.43.34808\include\xstring
; File D:\Program Files\Microsoft Visual Studio\2022\Community\VC\Tools\MSVC\14.43.34808\include\xmemory
; File D:\Program Files\Microsoft Visual Studio\2022\Community\VC\Tools\MSVC\14.43.34808\include\xstring
; File D:\Program Files\Microsoft Visual Studio\2022\Community\VC\Tools\MSVC\14.43.34808\include\xmemory
; File D:\Program Files\Microsoft Visual Studio\2022\Community\VC\Tools\MSVC\14.43.34808\include\xstring
; File D:\Program Files\Microsoft Visual Studio\2022\Community\VC\Tools\MSVC\14.43.34808\include\xmemory
; File D:\Program Files\Microsoft Visual Studio\2022\Community\VC\Tools\MSVC\14.43.34808\include\vector
; File D:\Program Files\Microsoft Visual Studio\2022\Community\VC\Tools\MSVC\14.43.34808\include\xmemory
; File C:\Marty 5.5\Src-Client\Client\EffectLib\EffectData.cpp
; File D:\Program Files\Microsoft Visual Studio\2022\Community\VC\Tools\MSVC\14.43.34808\include\xmemory
; File C:\Marty 5.5\Src-Client\Client\EffectLib\EffectData.cpp
;	COMDAT ?LoadSoundScriptData@CEffectData@@QAE_NPBD@Z
_TEXT	SEGMENT
_SoundDataVector$ = -24					; size = 12
__$EHRec$ = -12						; size = 12
_c_szFileName$ = 8					; size = 4
$T2 = 11						; size = 1
?LoadSoundScriptData@CEffectData@@QAE_NPBD@Z PROC	; CEffectData::LoadSoundScriptData, COMDAT
; _this$ = ecx

; 109  : {

  00000	55		 push	 ebp
  00001	8b ec		 mov	 ebp, esp
  00003	6a ff		 push	 -1
  00005	68 00 00 00 00	 push	 __ehhandler$?LoadSoundScriptData@CEffectData@@QAE_NPBD@Z
  0000a	64 a1 00 00 00
	00		 mov	 eax, DWORD PTR fs:0
  00010	50		 push	 eax
  00011	83 ec 0c	 sub	 esp, 12			; 0000000cH
  00014	53		 push	 ebx
  00015	56		 push	 esi
  00016	57		 push	 edi
  00017	a1 00 00 00 00	 mov	 eax, DWORD PTR ___security_cookie
  0001c	33 c5		 xor	 eax, ebp
  0001e	50		 push	 eax
  0001f	8d 45 f4	 lea	 eax, DWORD PTR __$EHRec$[ebp]
  00022	64 a3 00 00 00
	00		 mov	 DWORD PTR fs:0, eax
  00028	8b f1		 mov	 esi, ecx
; File D:\Program Files\Microsoft Visual Studio\2022\Community\VC\Tools\MSVC\14.43.34808\include\vector

; 400  :     _CONSTEXPR20 _Vector_val() noexcept : _Myfirst(), _Mylast(), _Myend() {}

  0002a	c7 45 e8 00 00
	00 00		 mov	 DWORD PTR _SoundDataVector$[ebp], 0
  00031	c7 45 ec 00 00
	00 00		 mov	 DWORD PTR _SoundDataVector$[ebp+4], 0
  00038	c7 45 f0 00 00
	00 00		 mov	 DWORD PTR _SoundDataVector$[ebp+8], 0
; File C:\Marty 5.5\Src-Client\Client\EffectLib\EffectData.cpp

; 112  : 	if (NSound::LoadSoundInformationPiece(c_szFileName, SoundDataVector))

  0003f	6a 00		 push	 0
  00041	8d 45 e8	 lea	 eax, DWORD PTR _SoundDataVector$[ebp]
  00044	c7 45 fc 00 00
	00 00		 mov	 DWORD PTR __$EHRec$[ebp+8], 0
  0004b	50		 push	 eax
  0004c	ff 75 08	 push	 DWORD PTR _c_szFileName$[ebp]
  0004f	e8 00 00 00 00	 call	 ?LoadSoundInformationPiece@NSound@@YA_NPBDAAV?$vector@USSoundData@NSound@@V?$allocator@USSoundData@NSound@@@std@@@std@@0@Z ; NSound::LoadSoundInformationPiece
  00054	83 c4 0c	 add	 esp, 12			; 0000000cH
  00057	84 c0		 test	 al, al
  00059	74 16		 je	 SHORT $LN2@LoadSoundS

; 113  : 	{
; 114  : 		NSound::DataToInstance(SoundDataVector, &m_SoundInstanceVector);

  0005b	8d 46 28	 lea	 eax, DWORD PTR [esi+40]
  0005e	50		 push	 eax
  0005f	8d 45 e8	 lea	 eax, DWORD PTR _SoundDataVector$[ebp]
  00062	50		 push	 eax
  00063	e8 00 00 00 00	 call	 ?DataToInstance@NSound@@YAXABV?$vector@USSoundData@NSound@@V?$allocator@USSoundData@NSound@@@std@@@std@@PAV?$vector@USSoundInstance@NSound@@V?$allocator@USSoundInstance@NSound@@@std@@@3@@Z ; NSound::DataToInstance
  00068	83 c4 08	 add	 esp, 8
  0006b	c6 45 0b 00	 mov	 BYTE PTR $T2[ebp], 0
  0006f	eb 04		 jmp	 SHORT $LN5@LoadSoundS
$LN2@LoadSoundS:

; 118  : 	return true;

  00071	c6 45 0b 01	 mov	 BYTE PTR $T2[ebp], 1
$LN5@LoadSoundS:
; File D:\Program Files\Microsoft Visual Studio\2022\Community\VC\Tools\MSVC\14.43.34808\include\vector

; 2075 :         if (_Myfirst) { // destroy and deallocate old array

  00075	8b 75 e8	 mov	 esi, DWORD PTR _SoundDataVector$[ebp]
  00078	85 f6		 test	 esi, esi
  0007a	0f 84 a9 00 00
	00		 je	 $LN32@LoadSoundS

; 2076 :             _STD _Destroy_range(_Myfirst, _Mylast, _Al);

  00080	8b 5d ec	 mov	 ebx, DWORD PTR _SoundDataVector$[ebp+4]
  00083	3b f3		 cmp	 esi, ebx
; File D:\Program Files\Microsoft Visual Studio\2022\Community\VC\Tools\MSVC\14.43.34808\include\xmemory

; 1098 :         for (; _First != _Last; ++_First) {

  00085	74 5a		 je	 SHORT $LN117@LoadSoundS
; File D:\Program Files\Microsoft Visual Studio\2022\Community\VC\Tools\MSVC\14.43.34808\include\vector

; 2076 :             _STD _Destroy_range(_Myfirst, _Mylast, _Al);

  00087	83 c6 18	 add	 esi, 24			; 00000018H
  0008a	66 0f 1f 44 00
	00		 npad	 6
$LL38@LoadSoundS:
; File D:\Program Files\Microsoft Visual Studio\2022\Community\VC\Tools\MSVC\14.43.34808\include\xstring

; 434  :         return _Myres > _Small_string_capacity;

  00090	8b 0e		 mov	 ecx, DWORD PTR [esi]
  00092	83 f9 0f	 cmp	 ecx, 15			; 0000000fH

; 3047 :         if (_My_data._Large_mode_engaged()) {

  00095	76 2c		 jbe	 SHORT $LN120@LoadSoundS
; File D:\Program Files\Microsoft Visual Studio\2022\Community\VC\Tools\MSVC\14.43.34808\include\xmemory

; 981  :         _STD _Deallocate<_New_alignof<_Ty>>(_Ptr, sizeof(_Ty) * _Count);

  00097	8b 46 ec	 mov	 eax, DWORD PTR [esi-20]
; File D:\Program Files\Microsoft Visual Studio\2022\Community\VC\Tools\MSVC\14.43.34808\include\xstring

; 828  :         _Al.deallocate(_Old_ptr, _Capacity + 1); // +1 for null terminator

  0009a	41		 inc	 ecx
; File D:\Program Files\Microsoft Visual Studio\2022\Community\VC\Tools\MSVC\14.43.34808\include\xmemory

; 284  :         if (_Bytes >= _Big_allocation_threshold) {

  0009b	81 f9 00 10 00
	00		 cmp	 ecx, 4096		; 00001000H
  000a1	72 16		 jb	 SHORT $LN83@LoadSoundS

; 205  :     const uintptr_t _Ptr_container   = _Ptr_user[-1];

  000a3	8b 50 fc	 mov	 edx, DWORD PTR [eax-4]
  000a6	83 c1 23	 add	 ecx, 35			; 00000023H

; 206  : 
; 207  :     // If the following asserts, it likely means that we are performing
; 208  :     // an aligned delete on memory coming from an unaligned allocation.
; 209  :     _STL_ASSERT(_Ptr_user[-2] == _Big_allocation_sentinel, "invalid argument");
; 210  : 
; 211  :     // Extra paranoia on aligned allocation/deallocation; ensure _Ptr_container is
; 212  :     // in range [_Min_back_shift, _Non_user_size]
; 213  : #ifdef _DEBUG
; 214  :     constexpr uintptr_t _Min_back_shift = 2 * sizeof(void*);
; 215  : #else // ^^^ defined(_DEBUG) / !defined(_DEBUG) vvv
; 216  :     constexpr uintptr_t _Min_back_shift = sizeof(void*);
; 217  : #endif // ^^^ !defined(_DEBUG) ^^^
; 218  :     const uintptr_t _Back_shift = reinterpret_cast<uintptr_t>(_Ptr) - _Ptr_container;

  000a9	2b c2		 sub	 eax, edx

; 219  :     _STL_VERIFY(_Back_shift >= _Min_back_shift && _Back_shift <= _Non_user_size, "invalid argument");

  000ab	83 c0 fc	 add	 eax, -4			; fffffffcH
  000ae	83 f8 1f	 cmp	 eax, 31			; 0000001fH
  000b1	0f 87 89 00 00
	00		 ja	 $LN107@LoadSoundS

; 220  :     _Ptr = reinterpret_cast<void*>(_Ptr_container);

  000b7	8b c2		 mov	 eax, edx
$LN83@LoadSoundS:

; 289  :         ::operator delete(_Ptr, _Bytes);

  000b9	51		 push	 ecx
  000ba	50		 push	 eax
  000bb	e8 00 00 00 00	 call	 ??3@YAXPAXI@Z		; operator delete
  000c0	83 c4 08	 add	 esp, 8
$LN120@LoadSoundS:
; File D:\Program Files\Microsoft Visual Studio\2022\Community\VC\Tools\MSVC\14.43.34808\include\xstring

; 3054 :         _My_data._Mysize = 0;

  000c3	c7 46 fc 00 00
	00 00		 mov	 DWORD PTR [esi-4], 0

; 3055 :         _My_data._Myres  = _Small_string_capacity;

  000ca	c7 06 0f 00 00
	00		 mov	 DWORD PTR [esi], 15	; 0000000fH

; 3056 :         // the _Traits::assign is last so the codegen doesn't think the char write can alias this
; 3057 :         _Traits::assign(_My_data._Bx._Buf[0], _Elem());

  000d0	c6 46 ec 00	 mov	 BYTE PTR [esi-20], 0
; File D:\Program Files\Microsoft Visual Studio\2022\Community\VC\Tools\MSVC\14.43.34808\include\xmemory

; 1098 :         for (; _First != _Last; ++_First) {

  000d4	83 c6 1c	 add	 esi, 28			; 0000001cH
  000d7	8d 46 e8	 lea	 eax, DWORD PTR [esi-24]
  000da	3b c3		 cmp	 eax, ebx
  000dc	75 b2		 jne	 SHORT $LL38@LoadSoundS
  000de	8b 75 e8	 mov	 esi, DWORD PTR _SoundDataVector$[ebp]
$LN117@LoadSoundS:
; File D:\Program Files\Microsoft Visual Studio\2022\Community\VC\Tools\MSVC\14.43.34808\include\vector

; 2078 :             _Al.deallocate(_Myfirst, static_cast<size_type>(_Myend - _Myfirst));

  000e1	8b 4d f0	 mov	 ecx, DWORD PTR _SoundDataVector$[ebp+8]
  000e4	b8 93 24 49 92	 mov	 eax, -1840700269	; 92492493H
  000e9	2b ce		 sub	 ecx, esi
  000eb	f7 e9		 imul	 ecx
  000ed	03 d1		 add	 edx, ecx
  000ef	c1 fa 04	 sar	 edx, 4
  000f2	8b c2		 mov	 eax, edx
  000f4	c1 e8 1f	 shr	 eax, 31			; 0000001fH
  000f7	03 c2		 add	 eax, edx
; File D:\Program Files\Microsoft Visual Studio\2022\Community\VC\Tools\MSVC\14.43.34808\include\xmemory

; 981  :         _STD _Deallocate<_New_alignof<_Ty>>(_Ptr, sizeof(_Ty) * _Count);

  000f9	8d 0c c5 00 00
	00 00		 lea	 ecx, DWORD PTR [eax*8]
  00100	2b c8		 sub	 ecx, eax
  00102	8b c6		 mov	 eax, esi
  00104	c1 e1 02	 shl	 ecx, 2

; 284  :         if (_Bytes >= _Big_allocation_threshold) {

  00107	81 f9 00 10 00
	00		 cmp	 ecx, 4096		; 00001000H
  0010d	72 10		 jb	 SHORT $LN110@LoadSoundS

; 205  :     const uintptr_t _Ptr_container   = _Ptr_user[-1];

  0010f	8b 70 fc	 mov	 esi, DWORD PTR [eax-4]
  00112	83 c1 23	 add	 ecx, 35			; 00000023H
  00115	2b c6		 sub	 eax, esi

; 219  :     _STL_VERIFY(_Back_shift >= _Min_back_shift && _Back_shift <= _Non_user_size, "invalid argument");

  00117	83 c0 fc	 add	 eax, -4			; fffffffcH
  0011a	83 f8 1f	 cmp	 eax, 31			; 0000001fH
  0011d	77 21		 ja	 SHORT $LN107@LoadSoundS
$LN110@LoadSoundS:

; 289  :         ::operator delete(_Ptr, _Bytes);

  0011f	51		 push	 ecx
  00120	56		 push	 esi
  00121	e8 00 00 00 00	 call	 ??3@YAXPAXI@Z		; operator delete
  00126	83 c4 08	 add	 esp, 8
$LN32@LoadSoundS:
; File C:\Marty 5.5\Src-Client\Client\EffectLib\EffectData.cpp

; 118  : 	return true;

  00129	8a 45 0b	 mov	 al, BYTE PTR $T2[ebp]

; 119  : }

  0012c	8b 4d f4	 mov	 ecx, DWORD PTR __$EHRec$[ebp]
  0012f	64 89 0d 00 00
	00 00		 mov	 DWORD PTR fs:0, ecx
  00136	59		 pop	 ecx
  00137	5f		 pop	 edi
  00138	5e		 pop	 esi
  00139	5b		 pop	 ebx
  0013a	8b e5		 mov	 esp, ebp
  0013c	5d		 pop	 ebp
  0013d	c2 04 00	 ret	 4
$LN107@LoadSoundS:
; File D:\Program Files\Microsoft Visual Studio\2022\Community\VC\Tools\MSVC\14.43.34808\include\xmemory

; 219  :     _STL_VERIFY(_Back_shift >= _Min_back_shift && _Back_shift <= _Non_user_size, "invalid argument");

  00140	e8 00 00 00 00	 call	 __invalid_parameter_noinfo_noreturn
$LN122@LoadSoundS:
  00145	cc		 int	 3
_TEXT	ENDS
;	COMDAT text$x
text$x	SEGMENT
__unwindfunclet$?LoadSoundScriptData@CEffectData@@QAE_NPBD@Z$0:
  00000	8d 4d e8	 lea	 ecx, DWORD PTR _SoundDataVector$[ebp]
  00003	e9 00 00 00 00	 jmp	 ??1?$vector@USSoundData@NSound@@V?$allocator@USSoundData@NSound@@@std@@@std@@QAE@XZ ; std::vector<NSound::SSoundData,std::allocator<NSound::SSoundData> >::~vector<NSound::SSoundData,std::allocator<NSound::SSoundData> >
  00008	cc		 int	 3
  00009	cc		 int	 3
  0000a	cc		 int	 3
  0000b	cc		 int	 3
  0000c	cc		 int	 3
__ehhandler$?LoadSoundScriptData@CEffectData@@QAE_NPBD@Z:
  0000d	90		 npad	 1
  0000e	90		 npad	 1
  0000f	8b 54 24 08	 mov	 edx, DWORD PTR [esp+8]
  00013	8d 42 0c	 lea	 eax, DWORD PTR [edx+12]
  00016	8b 4a e4	 mov	 ecx, DWORD PTR [edx-28]
  00019	33 c8		 xor	 ecx, eax
  0001b	e8 00 00 00 00	 call	 @__security_check_cookie@4
  00020	b8 00 00 00 00	 mov	 eax, OFFSET __ehfuncinfo$?LoadSoundScriptData@CEffectData@@QAE_NPBD@Z
  00025	e9 00 00 00 00	 jmp	 ___CxxFrameHandler3
text$x	ENDS
?LoadSoundScriptData@CEffectData@@QAE_NPBD@Z ENDP	; CEffectData::LoadSoundScriptData
; Function compile flags: /Ogtp
; File C:\Marty 5.5\Src-Client\Client\EffectLib\EffectData.cpp
; File C:\Marty 5.5\Src-Client\Client\eterBase\filename.h
; File D:\Program Files\Microsoft Visual Studio\2022\Community\VC\Tools\MSVC\14.43.34808\include\xstring
; File C:\Marty 5.5\Src-Client\Client\eterBase\filename.h
; File D:\Program Files\Microsoft Visual Studio\2022\Community\VC\Tools\MSVC\14.43.34808\include\xstring
; File C:\Marty 5.5\Src-Client\Client\eterBase\filename.h
; File D:\Program Files\Microsoft Visual Studio\2022\Community\VC\Tools\MSVC\14.43.34808\include\xstring
; File C:\Marty 5.5\Src-Client\Client\eterBase\filename.h
; File C:\Marty 5.5\Src-Client\Client\EffectLib\EffectData.cpp
; File D:\Program Files\Microsoft Visual Studio\2022\Community\VC\Tools\MSVC\14.43.34808\include\xstring
; File D:\Program Files\Microsoft Visual Studio\2022\Community\VC\Tools\MSVC\14.43.34808\include\xmemory
; File D:\Program Files\Microsoft Visual Studio\2022\Community\VC\Tools\MSVC\14.43.34808\include\xstring
; File D:\Program Files\Microsoft Visual Studio\2022\Community\VC\Tools\MSVC\14.43.34808\include\xmemory
; File D:\Program Files\Microsoft Visual Studio\2022\Community\VC\Tools\MSVC\14.43.34808\include\__msvc_string_view.hpp
; File D:\Program Files\Microsoft Visual Studio\2022\Community\VC\Tools\MSVC\14.43.34808\include\xmemory
; File D:\Program Files\Microsoft Visual Studio\2022\Community\VC\Tools\MSVC\14.43.34808\include\xstring
; File D:\Program Files\Microsoft Visual Studio\2022\Community\VC\Tools\MSVC\14.43.34808\include\xmemory
; File D:\Program Files\Microsoft Visual Studio\2022\Community\VC\Tools\MSVC\14.43.34808\include\xstring
; File D:\Program Files\Microsoft Visual Studio\2022\Community\VC\Tools\MSVC\14.43.34808\include\__msvc_string_view.hpp
; File D:\Program Files\Microsoft Visual Studio\2022\Community\VC\Tools\MSVC\14.43.34808\include\xstring
; File C:\Marty 5.5\Src-Client\Client\EffectLib\EffectData.cpp
; File D:\Program Files\Microsoft Visual Studio\2022\Community\VC\Tools\MSVC\14.43.34808\include\xstring
; File C:\Marty 5.5\Src-Client\Client\EffectLib\EffectData.cpp
; File D:\Program Files\Microsoft Visual Studio\2022\Community\VC\Tools\MSVC\14.43.34808\include\xstring
; File D:\Program Files\Microsoft Visual Studio\2022\Community\VC\Tools\MSVC\14.43.34808\include\xmemory
; File D:\Program Files\Microsoft Visual Studio\2022\Community\VC\Tools\MSVC\14.43.34808\include\xstring
; File D:\Program Files\Microsoft Visual Studio\2022\Community\VC\Tools\MSVC\14.43.34808\include\xmemory
; File C:\Marty 5.5\Src-Client\Client\EffectLib\EffectData.cpp
; File D:\Program Files\Microsoft Visual Studio\2022\Community\VC\Tools\MSVC\14.43.34808\include\xstring
; File D:\Program Files\Microsoft Visual Studio\2022\Community\VC\Tools\MSVC\14.43.34808\include\xmemory
; File D:\Program Files\Microsoft Visual Studio\2022\Community\VC\Tools\MSVC\14.43.34808\include\xstring
; File D:\Program Files\Microsoft Visual Studio\2022\Community\VC\Tools\MSVC\14.43.34808\include\xmemory
; File D:\Program Files\Microsoft Visual Studio\2022\Community\VC\Tools\MSVC\14.43.34808\include\__msvc_string_view.hpp
; File D:\Program Files\Microsoft Visual Studio\2022\Community\VC\Tools\MSVC\14.43.34808\include\xmemory
; File D:\Program Files\Microsoft Visual Studio\2022\Community\VC\Tools\MSVC\14.43.34808\include\xstring
; File D:\Program Files\Microsoft Visual Studio\2022\Community\VC\Tools\MSVC\14.43.34808\include\xmemory
; File D:\Program Files\Microsoft Visual Studio\2022\Community\VC\Tools\MSVC\14.43.34808\include\xstring
; File D:\Program Files\Microsoft Visual Studio\2022\Community\VC\Tools\MSVC\14.43.34808\include\__msvc_string_view.hpp
; File D:\Program Files\Microsoft Visual Studio\2022\Community\VC\Tools\MSVC\14.43.34808\include\xstring
; File C:\Marty 5.5\Src-Client\Client\EffectLib\EffectData.cpp
; File D:\Program Files\Microsoft Visual Studio\2022\Community\VC\Tools\MSVC\14.43.34808\include\xstring
; File C:\Marty 5.5\Src-Client\Client\EffectLib\EffectData.cpp
; File D:\Program Files\Microsoft Visual Studio\2022\Community\VC\Tools\MSVC\14.43.34808\include\xstring
; File D:\Program Files\Microsoft Visual Studio\2022\Community\VC\Tools\MSVC\14.43.34808\include\xmemory
; File D:\Program Files\Microsoft Visual Studio\2022\Community\VC\Tools\MSVC\14.43.34808\include\xstring
; File D:\Program Files\Microsoft Visual Studio\2022\Community\VC\Tools\MSVC\14.43.34808\include\xmemory
; File C:\Marty 5.5\Src-Client\Client\EffectLib\EffectData.cpp
; File D:\Program Files\Microsoft Visual Studio\2022\Community\VC\Tools\MSVC\14.43.34808\include\xstring
; File D:\Program Files\Microsoft Visual Studio\2022\Community\VC\Tools\MSVC\14.43.34808\include\__msvc_string_view.hpp
; File D:\Program Files\Microsoft Visual Studio\2022\Community\VC\Tools\MSVC\14.43.34808\include\xstring
; File D:\Program Files\Microsoft Visual Studio\2022\Community\VC\Tools\MSVC\14.43.34808\include\__msvc_string_view.hpp
; File D:\Program Files\Microsoft Visual Studio\2022\Community\VC\Tools\MSVC\14.43.34808\include\xstring
; File D:\Program Files\Microsoft Visual Studio\2022\Community\VC\Tools\MSVC\14.43.34808\include\__msvc_string_view.hpp
; File D:\Program Files\Microsoft Visual Studio\2022\Community\VC\Tools\MSVC\14.43.34808\include\xstring
; File C:\Marty 5.5\Src-Client\Client\EffectLib\EffectData.cpp
; File D:\Program Files\Microsoft Visual Studio\2022\Community\VC\Tools\MSVC\14.43.34808\include\xstring
; File C:\Marty 5.5\Src-Client\Client\EffectLib\EffectData.cpp
; File D:\Program Files\Microsoft Visual Studio\2022\Community\VC\Tools\MSVC\14.43.34808\include\xstring
; File D:\Program Files\Microsoft Visual Studio\2022\Community\VC\Tools\MSVC\14.43.34808\include\xmemory
; File D:\Program Files\Microsoft Visual Studio\2022\Community\VC\Tools\MSVC\14.43.34808\include\xstring
; File D:\Program Files\Microsoft Visual Studio\2022\Community\VC\Tools\MSVC\14.43.34808\include\xmemory
; File C:\Marty 5.5\Src-Client\Client\EffectLib\EffectData.cpp
; File D:\Program Files\Microsoft Visual Studio\2022\Community\VC\Tools\MSVC\14.43.34808\include\xstring
; File D:\Program Files\Microsoft Visual Studio\2022\Community\VC\Tools\MSVC\14.43.34808\include\__msvc_string_view.hpp
; File D:\Program Files\Microsoft Visual Studio\2022\Community\VC\Tools\MSVC\14.43.34808\include\xstring
; File D:\Program Files\Microsoft Visual Studio\2022\Community\VC\Tools\MSVC\14.43.34808\include\__msvc_string_view.hpp
; File C:\Marty 5.5\Src-Client\Client\EffectLib\EffectData.cpp
; File D:\Program Files\Microsoft Visual Studio\2022\Community\VC\Tools\MSVC\14.43.34808\include\xstring
; File C:\Marty 5.5\Src-Client\Client\EffectLib\EffectData.cpp
; File D:\Program Files\Microsoft Visual Studio\2022\Community\VC\Tools\MSVC\14.43.34808\include\xstring
; File C:\Marty 5.5\Src-Client\Client\EffectLib\EffectData.cpp
; File D:\Program Files\Microsoft Visual Studio\2022\Community\VC\Tools\MSVC\14.43.34808\include\xstring
; File D:\Program Files\Microsoft Visual Studio\2022\Community\VC\Tools\MSVC\14.43.34808\include\xmemory
; File D:\Program Files\Microsoft Visual Studio\2022\Community\VC\Tools\MSVC\14.43.34808\include\xstring
; File D:\Program Files\Microsoft Visual Studio\2022\Community\VC\Tools\MSVC\14.43.34808\include\xmemory
; File C:\Marty 5.5\Src-Client\Client\EffectLib\EffectData.cpp
; File D:\Program Files\Microsoft Visual Studio\2022\Community\VC\Tools\MSVC\14.43.34808\include\xstring
; File D:\Program Files\Microsoft Visual Studio\2022\Community\VC\Tools\MSVC\14.43.34808\include\__msvc_string_view.hpp
; File D:\Program Files\Microsoft Visual Studio\2022\Community\VC\Tools\MSVC\14.43.34808\include\xstring
; File D:\Program Files\Microsoft Visual Studio\2022\Community\VC\Tools\MSVC\14.43.34808\include\__msvc_string_view.hpp
; File C:\Marty 5.5\Src-Client\Client\EffectLib\EffectData.cpp
; File D:\Program Files\Microsoft Visual Studio\2022\Community\VC\Tools\MSVC\14.43.34808\include\xstring
; File D:\Program Files\Microsoft Visual Studio\2022\Community\VC\Tools\MSVC\14.43.34808\include\__msvc_string_view.hpp
; File D:\Program Files\Microsoft Visual Studio\2022\Community\VC\Tools\MSVC\14.43.34808\include\xstring
; File D:\Program Files\Microsoft Visual Studio\2022\Community\VC\Tools\MSVC\14.43.34808\include\__msvc_string_view.hpp
; File C:\Marty 5.5\Src-Client\Client\EffectLib\EffectData.cpp
; File D:\Program Files\Microsoft Visual Studio\2022\Community\VC\Tools\MSVC\14.43.34808\include\xstring
; File D:\Program Files\Microsoft Visual Studio\2022\Community\VC\Tools\MSVC\14.43.34808\include\__msvc_string_view.hpp
; File D:\Program Files\Microsoft Visual Studio\2022\Community\VC\Tools\MSVC\14.43.34808\include\xstring
; File D:\Program Files\Microsoft Visual Studio\2022\Community\VC\Tools\MSVC\14.43.34808\include\__msvc_string_view.hpp
; File C:\Marty 5.5\Src-Client\Client\EffectLib\EffectData.cpp
; File D:\Program Files\Microsoft Visual Studio\2022\Community\VC\Tools\MSVC\14.43.34808\include\xstring
; File C:\Marty 5.5\Src-Client\Client\EffectLib\EffectData.cpp
; File D:\Program Files\Microsoft Visual Studio\2022\Community\VC\Tools\MSVC\14.43.34808\include\xstring
; File D:\Program Files\Microsoft Visual Studio\2022\Community\VC\Tools\MSVC\14.43.34808\include\xmemory
; File D:\Program Files\Microsoft Visual Studio\2022\Community\VC\Tools\MSVC\14.43.34808\include\xstring
; File D:\Program Files\Microsoft Visual Studio\2022\Community\VC\Tools\MSVC\14.43.34808\include\xmemory
; File C:\Marty 5.5\Src-Client\Client\EffectLib\EffectData.cpp
; File D:\Program Files\Microsoft Visual Studio\2022\Community\VC\Tools\MSVC\14.43.34808\include\__msvc_string_view.hpp
; File D:\Program Files\Microsoft Visual Studio\2022\Community\VC\Tools\MSVC\14.43.34808\include\xstring
; File D:\Program Files\Microsoft Visual Studio\2022\Community\VC\Tools\MSVC\14.43.34808\include\__msvc_string_view.hpp
; File D:\Program Files\Microsoft Visual Studio\2022\Community\VC\Tools\MSVC\14.43.34808\include\xstring
; File D:\Program Files\Microsoft Visual Studio\2022\Community\VC\Tools\MSVC\14.43.34808\include\__msvc_string_view.hpp
; File D:\Program Files\Microsoft Visual Studio\2022\Community\VC\Tools\MSVC\14.43.34808\include\xstring
; File C:\Marty 5.5\Src-Client\Client\EffectLib\EffectData.cpp
; File D:\Program Files\Microsoft Visual Studio\2022\Community\VC\Tools\MSVC\14.43.34808\include\xstring
; File C:\Marty 5.5\Src-Client\Client\EffectLib\EffectData.cpp
; File D:\Program Files\Microsoft Visual Studio\2022\Community\VC\Tools\MSVC\14.43.34808\include\xstring
; File D:\Program Files\Microsoft Visual Studio\2022\Community\VC\Tools\MSVC\14.43.34808\include\__msvc_string_view.hpp
; File D:\Program Files\Microsoft Visual Studio\2022\Community\VC\Tools\MSVC\14.43.34808\include\xstring
; File D:\Program Files\Microsoft Visual Studio\2022\Community\VC\Tools\MSVC\14.43.34808\include\__msvc_string_view.hpp
; File D:\Program Files\Microsoft Visual Studio\2022\Community\VC\Tools\MSVC\14.43.34808\include\xstring
; File D:\Program Files\Microsoft Visual Studio\2022\Community\VC\Tools\MSVC\14.43.34808\include\__msvc_string_view.hpp
; File C:\Marty 5.5\Src-Client\Client\EffectLib\EffectData.cpp
; File D:\Program Files\Microsoft Visual Studio\2022\Community\VC\Tools\MSVC\14.43.34808\include\xstring
; File C:\Marty 5.5\Src-Client\Client\EffectLib\EffectData.cpp
; File D:\Program Files\Microsoft Visual Studio\2022\Community\VC\Tools\MSVC\14.43.34808\include\xstring
; File D:\Program Files\Microsoft Visual Studio\2022\Community\VC\Tools\MSVC\14.43.34808\include\__msvc_string_view.hpp
; File D:\Program Files\Microsoft Visual Studio\2022\Community\VC\Tools\MSVC\14.43.34808\include\xstring
; File C:\Marty 5.5\Src-Client\Client\EffectLib\EffectData.cpp
; File D:\Program Files\Microsoft Visual Studio\2022\Community\VC\Tools\MSVC\14.43.34808\include\xstring
; File C:\Marty 5.5\Src-Client\Client\EffectLib\EffectData.cpp
; File D:\Program Files\Microsoft Visual Studio\2022\Community\VC\Tools\MSVC\14.43.34808\include\xstring
; File D:\Program Files\Microsoft Visual Studio\2022\Community\VC\Tools\MSVC\14.43.34808\include\xmemory
; File D:\Program Files\Microsoft Visual Studio\2022\Community\VC\Tools\MSVC\14.43.34808\include\xstring
; File D:\Program Files\Microsoft Visual Studio\2022\Community\VC\Tools\MSVC\14.43.34808\include\xmemory
; File D:\Program Files\Microsoft Visual Studio\2022\Community\VC\Tools\MSVC\14.43.34808\include\xstring
; File C:\Marty 5.5\Src-Client\Client\EffectLib\EffectData.cpp
; File D:\Program Files\Microsoft Visual Studio\2022\Community\VC\Tools\MSVC\14.43.34808\include\xstring
; File D:\Program Files\Microsoft Visual Studio\2022\Community\VC\Tools\MSVC\14.43.34808\include\xmemory
; File D:\Program Files\Microsoft Visual Studio\2022\Community\VC\Tools\MSVC\14.43.34808\include\xstring
; File D:\Program Files\Microsoft Visual Studio\2022\Community\VC\Tools\MSVC\14.43.34808\include\xmemory
; File D:\Program Files\Microsoft Visual Studio\2022\Community\VC\Tools\MSVC\14.43.34808\include\xstring
; File D:\Program Files\Microsoft Visual Studio\2022\Community\VC\Tools\MSVC\14.43.34808\include\xmemory
; File D:\Program Files\Microsoft Visual Studio\2022\Community\VC\Tools\MSVC\14.43.34808\include\xstring
; File D:\Program Files\Microsoft Visual Studio\2022\Community\VC\Tools\MSVC\14.43.34808\include\xmemory
; File D:\Program Files\Microsoft Visual Studio\2022\Community\VC\Tools\MSVC\14.43.34808\include\xstring
; File D:\Program Files\Microsoft Visual Studio\2022\Community\VC\Tools\MSVC\14.43.34808\include\xmemory
; File D:\Program Files\Microsoft Visual Studio\2022\Community\VC\Tools\MSVC\14.43.34808\include\xstring
; File D:\Program Files\Microsoft Visual Studio\2022\Community\VC\Tools\MSVC\14.43.34808\include\xmemory
; File D:\Program Files\Microsoft Visual Studio\2022\Community\VC\Tools\MSVC\14.43.34808\include\xstring
; File C:\Marty 5.5\Src-Client\Client\EffectLib\EffectData.cpp
; File D:\Program Files\Microsoft Visual Studio\2022\Community\VC\Tools\MSVC\14.43.34808\include\xstring
; File C:\Marty 5.5\Src-Client\Client\EffectLib\EffectData.cpp
; File D:\Program Files\Microsoft Visual Studio\2022\Community\VC\Tools\MSVC\14.43.34808\include\xmemory
; File C:\Marty 5.5\Src-Client\Client\EffectLib\EffectData.cpp
;	COMDAT ?LoadScript@CEffectData@@QAE_NPBD@Z
_TEXT	SEGMENT
_c_szFileName$GSCopy$1$ = -284				; size = 4
_nLength$1$ = -280					; size = 4
_i$1$ = -276						; size = 4
__Result$1$ = -276					; size = 4
_this$GSCopy$1$ = -272					; size = 4
$T2 = -265						; size = 1
_TextFileLoader$ = -264					; size = 128
_strNoExtensionName$ = -136				; size = 24
_strDayType$ = -112					; size = 24
_strPathHeader$ = -88					; size = 24
_strName$3 = -64					; size = 24
$T4 = -40						; size = 24
$T5 = -40						; size = 24
$T6 = -40						; size = 24
_strSoundFileName$7 = -40				; size = 24
__$ArrayPad$ = -16					; size = 4
__$EHRec$ = -12						; size = 12
_c_szFileName$ = 8					; size = 4
?LoadScript@CEffectData@@QAE_NPBD@Z PROC		; CEffectData::LoadScript, COMDAT
; _this$ = ecx

; 27   : {

  00000	55		 push	 ebp
  00001	8b ec		 mov	 ebp, esp
  00003	6a ff		 push	 -1
  00005	68 00 00 00 00	 push	 __ehhandler$?LoadScript@CEffectData@@QAE_NPBD@Z
  0000a	64 a1 00 00 00
	00		 mov	 eax, DWORD PTR fs:0
  00010	50		 push	 eax
  00011	81 ec 10 01 00
	00		 sub	 esp, 272		; 00000110H
  00017	a1 00 00 00 00	 mov	 eax, DWORD PTR ___security_cookie
  0001c	33 c5		 xor	 eax, ebp
  0001e	89 45 f0	 mov	 DWORD PTR __$ArrayPad$[ebp], eax
  00021	56		 push	 esi
  00022	57		 push	 edi
  00023	50		 push	 eax
  00024	8d 45 f4	 lea	 eax, DWORD PTR __$EHRec$[ebp]
  00027	64 a3 00 00 00
	00		 mov	 DWORD PTR fs:0, eax
  0002d	89 8d f0 fe ff
	ff		 mov	 DWORD PTR _this$GSCopy$1$[ebp], ecx
  00033	8b 45 08	 mov	 eax, DWORD PTR _c_szFileName$[ebp]

; 28   : 	m_strFileName = c_szFileName;

  00036	8d 71 44	 lea	 esi, DWORD PTR [ecx+68]
  00039	50		 push	 eax
  0003a	8b ce		 mov	 ecx, esi
  0003c	89 85 e4 fe ff
	ff		 mov	 DWORD PTR _c_szFileName$GSCopy$1$[ebp], eax
  00042	e8 00 00 00 00	 call	 ??4?$basic_string@DU?$char_traits@D@std@@V?$allocator@D@2@@std@@QAEAAV01@QBD@Z ; std::basic_string<char,std::char_traits<char>,std::allocator<char> >::operator=
; File C:\Marty 5.5\Src-Client\Client\eterBase\filename.h

; 225  : 		size_t nLength = str.length();

  00047	8b 46 10	 mov	 eax, DWORD PTR [esi+16]

; 226  : 
; 227  : 		for (size_t i = 0; i<nLength; ++i)

  0004a	33 ff		 xor	 edi, edi
  0004c	89 85 e8 fe ff
	ff		 mov	 DWORD PTR _nLength$1$[ebp], eax
  00052	85 c0		 test	 eax, eax
  00054	74 64		 je	 SHORT $LN261@LoadScript
$LL262@LoadScript:
; File D:\Program Files\Microsoft Visual Studio\2022\Community\VC\Tools\MSVC\14.43.34808\include\xstring

; 457  :         if (_Mysize <= _Off) {

  00056	39 7e 10	 cmp	 DWORD PTR [esi+16], edi
  00059	0f 86 87 08 00
	00		 jbe	 $LN868@LoadScript

; 434  :         return _Myres > _Small_string_capacity;

  0005f	8b 46 14	 mov	 eax, DWORD PTR [esi+20]

; 416  :         value_type* _Result = _Bx._Buf;

  00062	8b ce		 mov	 ecx, esi

; 434  :         return _Myres > _Small_string_capacity;

  00064	83 f8 0f	 cmp	 eax, 15			; 0000000fH

; 417  :         if (_Large_mode_engaged()) {

  00067	76 02		 jbe	 SHORT $LN899@LoadScript

; 418  :             _Result = _Unfancy(_Bx._Ptr);

  00069	8b 0e		 mov	 ecx, DWORD PTR [esi]
$LN899@LoadScript:
; File C:\Marty 5.5\Src-Client\Client\eterBase\filename.h

; 229  : 			if (str.at(i) == '\\')

  0006b	80 3c 39 5c	 cmp	 BYTE PTR [ecx+edi], 92	; 0000005cH
  0006f	75 0f		 jne	 SHORT $LN263@LoadScript
; File D:\Program Files\Microsoft Visual Studio\2022\Community\VC\Tools\MSVC\14.43.34808\include\xstring

; 416  :         value_type* _Result = _Bx._Buf;

  00071	8b ce		 mov	 ecx, esi

; 434  :         return _Myres > _Small_string_capacity;

  00073	83 f8 0f	 cmp	 eax, 15			; 0000000fH

; 417  :         if (_Large_mode_engaged()) {

  00076	76 02		 jbe	 SHORT $LN896@LoadScript

; 418  :             _Result = _Unfancy(_Bx._Ptr);

  00078	8b 0e		 mov	 ecx, DWORD PTR [esi]
$LN896@LoadScript:
; File C:\Marty 5.5\Src-Client\Client\eterBase\filename.h

; 230  : 				str.at(i) = '/';

  0007a	c6 04 39 2f	 mov	 BYTE PTR [ecx+edi], 47	; 0000002fH
  0007e	eb 31		 jmp	 SHORT $LN260@LoadScript
$LN263@LoadScript:
; File D:\Program Files\Microsoft Visual Studio\2022\Community\VC\Tools\MSVC\14.43.34808\include\xstring

; 434  :         return _Myres > _Small_string_capacity;

  00080	83 f8 0f	 cmp	 eax, 15			; 0000000fH

; 417  :         if (_Large_mode_engaged()) {

  00083	76 0e		 jbe	 SHORT $LN897@LoadScript

; 418  :             _Result = _Unfancy(_Bx._Ptr);

  00085	8b 06		 mov	 eax, DWORD PTR [esi]
  00087	8b 0e		 mov	 ecx, DWORD PTR [esi]
  00089	03 c7		 add	 eax, edi
  0008b	89 8d ec fe ff
	ff		 mov	 DWORD PTR __Result$1$[ebp], ecx
  00091	eb 09		 jmp	 SHORT $LN898@LoadScript
$LN897@LoadScript:

; 2235 :         return _Mypair._Myval2._Myptr()[_Off];

  00093	8d 04 3e	 lea	 eax, DWORD PTR [esi+edi]

; 416  :         value_type* _Result = _Bx._Buf;

  00096	89 b5 ec fe ff
	ff		 mov	 DWORD PTR __Result$1$[ebp], esi
$LN898@LoadScript:
; File C:\Marty 5.5\Src-Client\Client\eterBase\filename.h

; 232  : 				str.at(i) = (char)tolower(str.at(i));

  0009c	0f be 00	 movsx	 eax, BYTE PTR [eax]
  0009f	50		 push	 eax
  000a0	e8 00 00 00 00	 call	 _tolower
  000a5	8b 8d ec fe ff
	ff		 mov	 ecx, DWORD PTR __Result$1$[ebp]
  000ab	83 c4 04	 add	 esp, 4
  000ae	88 04 39	 mov	 BYTE PTR [ecx+edi], al
$LN260@LoadScript:

; 226  : 
; 227  : 		for (size_t i = 0; i<nLength; ++i)

  000b1	47		 inc	 edi
  000b2	3b bd e8 fe ff
	ff		 cmp	 edi, DWORD PTR _nLength$1$[ebp]
  000b8	72 9c		 jb	 SHORT $LL262@LoadScript
$LN261@LoadScript:
; File C:\Marty 5.5\Src-Client\Client\EffectLib\EffectData.cpp

; 31   : 	CTextFileLoader TextFileLoader;

  000ba	8d 8d f8 fe ff
	ff		 lea	 ecx, DWORD PTR _TextFileLoader$[ebp]
  000c0	e8 00 00 00 00	 call	 ??0CTextFileLoader@@QAE@XZ ; CTextFileLoader::CTextFileLoader

; 32   : 	if (!TextFileLoader.Load(c_szFileName))

  000c5	ff b5 e4 fe ff
	ff		 push	 DWORD PTR _c_szFileName$GSCopy$1$[ebp]
  000cb	8d 8d f8 fe ff
	ff		 lea	 ecx, DWORD PTR _TextFileLoader$[ebp]
  000d1	c7 45 fc 00 00
	00 00		 mov	 DWORD PTR __$EHRec$[ebp+8], 0
  000d8	e8 00 00 00 00	 call	 ?Load@CTextFileLoader@@QAE_NPBD@Z ; CTextFileLoader::Load
  000dd	84 c0		 test	 al, al
  000df	75 0b		 jne	 SHORT $LN5@LoadScript
  000e1	88 85 f7 fe ff
	ff		 mov	 BYTE PTR $T2[ebp], al
  000e7	e9 cc 07 00 00	 jmp	 $LN39@LoadScript
$LN5@LoadScript:

; 33   : 		return false;
; 34   : 
; 35   : 	TextFileLoader.SetTop();

  000ec	8d 8d f8 fe ff
	ff		 lea	 ecx, DWORD PTR _TextFileLoader$[ebp]
  000f2	e8 00 00 00 00	 call	 ?SetTop@CTextFileLoader@@QAEXXZ ; CTextFileLoader::SetTop
  000f7	0f 57 c0	 xorps	 xmm0, xmm0
; File D:\Program Files\Microsoft Visual Studio\2022\Community\VC\Tools\MSVC\14.43.34808\include\xstring

; 498  :     size_type _Mysize = 0; // current length of string (size)

  000fa	c7 45 e8 00 00
	00 00		 mov	 DWORD PTR $T4[ebp+16], 0
; File D:\Program Files\Microsoft Visual Studio\2022\Community\VC\Tools\MSVC\14.43.34808\include\xmemory

; 136  :         return ::operator new(_Bytes);

  00101	6a 20		 push	 32			; 00000020H
; File D:\Program Files\Microsoft Visual Studio\2022\Community\VC\Tools\MSVC\14.43.34808\include\xstring

; 474  :         _CONSTEXPR20 _Bxty() noexcept : _Buf() {} // user-provided, for fancy pointers

  00103	0f 11 45 d8	 movups	 XMMWORD PTR $T4[ebp], xmm0

; 499  :     size_type _Myres  = 0; // current storage reserved for string (capacity)

  00107	c7 45 ec 00 00
	00 00		 mov	 DWORD PTR $T4[ebp+20], 0
; File D:\Program Files\Microsoft Visual Studio\2022\Community\VC\Tools\MSVC\14.43.34808\include\xmemory

; 136  :         return ::operator new(_Bytes);

  0010e	e8 00 00 00 00	 call	 ??2@YAPAXI@Z		; operator new
; File D:\Program Files\Microsoft Visual Studio\2022\Community\VC\Tools\MSVC\14.43.34808\include\__msvc_string_view.hpp

; 95   :         _CSTD memcpy(_First1, _First2, _Count * sizeof(_Elem));

  00113	0f 10 05 00 00
	00 00		 movups	 xmm0, XMMWORD PTR ??_C@_0BF@MLNDGKC@boundingsphereradius@
; File D:\Program Files\Microsoft Visual Studio\2022\Community\VC\Tools\MSVC\14.43.34808\include\xmemory

; 256  :         return _Traits::_Allocate(_Bytes);

  0011a	8b c8		 mov	 ecx, eax
; File D:\Program Files\Microsoft Visual Studio\2022\Community\VC\Tools\MSVC\14.43.34808\include\xstring

; 891  :         _My_data._Mysize = _Count;

  0011c	c7 45 e8 14 00
	00 00		 mov	 DWORD PTR $T4[ebp+16], 20 ; 00000014H
  00123	89 4d d8	 mov	 DWORD PTR $T4[ebp], ecx
; File D:\Program Files\Microsoft Visual Studio\2022\Community\VC\Tools\MSVC\14.43.34808\include\xmemory

; 136  :         return ::operator new(_Bytes);

  00126	83 c4 04	 add	 esp, 4
; File D:\Program Files\Microsoft Visual Studio\2022\Community\VC\Tools\MSVC\14.43.34808\include\xstring

; 892  :         _My_data._Myres  = _New_capacity;

  00129	c7 45 ec 1f 00
	00 00		 mov	 DWORD PTR $T4[ebp+20], 31 ; 0000001fH
; File D:\Program Files\Microsoft Visual Studio\2022\Community\VC\Tools\MSVC\14.43.34808\include\__msvc_string_view.hpp

; 95   :         _CSTD memcpy(_First1, _First2, _Count * sizeof(_Elem));

  00130	0f 11 01	 movups	 XMMWORD PTR [ecx], xmm0
  00133	a1 10 00 00 00	 mov	 eax, DWORD PTR ??_C@_0BF@MLNDGKC@boundingsphereradius@+16
  00138	89 41 10	 mov	 DWORD PTR [ecx+16], eax
; File D:\Program Files\Microsoft Visual Studio\2022\Community\VC\Tools\MSVC\14.43.34808\include\xstring

; 898  :             _Traits::assign(_Unfancy(_New_ptr)[_Count], _Elem());

  0013b	c6 41 14 00	 mov	 BYTE PTR [ecx+20], 0
; File C:\Marty 5.5\Src-Client\Client\EffectLib\EffectData.cpp

; 37   : 	if (!TextFileLoader.GetTokenFloat("boundingsphereradius", &m_fBoundingSphereRadius))

  0013f	8b b5 f0 fe ff
	ff		 mov	 esi, DWORD PTR _this$GSCopy$1$[ebp]
  00145	8d 45 d8	 lea	 eax, DWORD PTR $T4[ebp]
  00148	83 c6 34	 add	 esi, 52			; 00000034H
  0014b	c6 45 fc 01	 mov	 BYTE PTR __$EHRec$[ebp+8], 1
  0014f	56		 push	 esi
  00150	50		 push	 eax
  00151	8d 8d f8 fe ff
	ff		 lea	 ecx, DWORD PTR _TextFileLoader$[ebp]
  00157	e8 00 00 00 00	 call	 ?GetTokenFloat@CTextFileLoader@@QAEHABV?$basic_string@DU?$char_traits@D@std@@V?$allocator@D@2@@std@@PAM@Z ; CTextFileLoader::GetTokenFloat
; File D:\Program Files\Microsoft Visual Studio\2022\Community\VC\Tools\MSVC\14.43.34808\include\xstring

; 434  :         return _Myres > _Small_string_capacity;

  0015c	8b 4d ec	 mov	 ecx, DWORD PTR $T4[ebp+20]
; File C:\Marty 5.5\Src-Client\Client\EffectLib\EffectData.cpp

; 37   : 	if (!TextFileLoader.GetTokenFloat("boundingsphereradius", &m_fBoundingSphereRadius))

  0015f	8b f8		 mov	 edi, eax
  00161	c6 45 fc 00	 mov	 BYTE PTR __$EHRec$[ebp+8], 0
; File D:\Program Files\Microsoft Visual Studio\2022\Community\VC\Tools\MSVC\14.43.34808\include\xstring

; 434  :         return _Myres > _Small_string_capacity;

  00165	83 f9 0f	 cmp	 ecx, 15			; 0000000fH

; 3047 :         if (_My_data._Large_mode_engaged()) {

  00168	76 2c		 jbe	 SHORT $LN581@LoadScript
; File D:\Program Files\Microsoft Visual Studio\2022\Community\VC\Tools\MSVC\14.43.34808\include\xmemory

; 981  :         _STD _Deallocate<_New_alignof<_Ty>>(_Ptr, sizeof(_Ty) * _Count);

  0016a	8b 55 d8	 mov	 edx, DWORD PTR $T4[ebp]
; File D:\Program Files\Microsoft Visual Studio\2022\Community\VC\Tools\MSVC\14.43.34808\include\xstring

; 828  :         _Al.deallocate(_Old_ptr, _Capacity + 1); // +1 for null terminator

  0016d	41		 inc	 ecx
; File D:\Program Files\Microsoft Visual Studio\2022\Community\VC\Tools\MSVC\14.43.34808\include\xmemory

; 981  :         _STD _Deallocate<_New_alignof<_Ty>>(_Ptr, sizeof(_Ty) * _Count);

  0016e	8b c2		 mov	 eax, edx

; 284  :         if (_Bytes >= _Big_allocation_threshold) {

  00170	81 f9 00 10 00
	00		 cmp	 ecx, 4096		; 00001000H
  00176	72 14		 jb	 SHORT $LN592@LoadScript

; 205  :     const uintptr_t _Ptr_container   = _Ptr_user[-1];

  00178	8b 50 fc	 mov	 edx, DWORD PTR [eax-4]
  0017b	83 c1 23	 add	 ecx, 35			; 00000023H
  0017e	2b c2		 sub	 eax, edx

; 219  :     _STL_VERIFY(_Back_shift >= _Min_back_shift && _Back_shift <= _Non_user_size, "invalid argument");

  00180	83 c0 fc	 add	 eax, -4			; fffffffcH
  00183	83 f8 1f	 cmp	 eax, 31			; 0000001fH
  00186	0f 87 5f 07 00
	00		 ja	 $LN347@LoadScript
$LN592@LoadScript:

; 289  :         ::operator delete(_Ptr, _Bytes);

  0018c	51		 push	 ecx
  0018d	52		 push	 edx
  0018e	e8 00 00 00 00	 call	 ??3@YAXPAXI@Z		; operator delete
  00193	83 c4 08	 add	 esp, 8
$LN581@LoadScript:
; File C:\Marty 5.5\Src-Client\Client\EffectLib\EffectData.cpp

; 37   : 	if (!TextFileLoader.GetTokenFloat("boundingsphereradius", &m_fBoundingSphereRadius))

  00196	85 ff		 test	 edi, edi
  00198	75 02		 jne	 SHORT $LN6@LoadScript

; 38   : 	{
; 39   : 		m_fBoundingSphereRadius = 0.0f;

  0019a	89 3e		 mov	 DWORD PTR [esi], edi
$LN6@LoadScript:
  0019c	0f 57 c0	 xorps	 xmm0, xmm0
; File D:\Program Files\Microsoft Visual Studio\2022\Community\VC\Tools\MSVC\14.43.34808\include\xstring

; 498  :     size_type _Mysize = 0; // current length of string (size)

  0019f	c7 45 e8 00 00
	00 00		 mov	 DWORD PTR $T5[ebp+16], 0
; File D:\Program Files\Microsoft Visual Studio\2022\Community\VC\Tools\MSVC\14.43.34808\include\xmemory

; 136  :         return ::operator new(_Bytes);

  001a6	6a 20		 push	 32			; 00000020H
; File D:\Program Files\Microsoft Visual Studio\2022\Community\VC\Tools\MSVC\14.43.34808\include\xstring

; 474  :         _CONSTEXPR20 _Bxty() noexcept : _Buf() {} // user-provided, for fancy pointers

  001a8	0f 11 45 d8	 movups	 XMMWORD PTR $T5[ebp], xmm0

; 499  :     size_type _Myres  = 0; // current storage reserved for string (capacity)

  001ac	c7 45 ec 00 00
	00 00		 mov	 DWORD PTR $T5[ebp+20], 0
; File D:\Program Files\Microsoft Visual Studio\2022\Community\VC\Tools\MSVC\14.43.34808\include\xmemory

; 136  :         return ::operator new(_Bytes);

  001b3	e8 00 00 00 00	 call	 ??2@YAPAXI@Z		; operator new
; File D:\Program Files\Microsoft Visual Studio\2022\Community\VC\Tools\MSVC\14.43.34808\include\__msvc_string_view.hpp

; 95   :         _CSTD memcpy(_First1, _First2, _Count * sizeof(_Elem));

  001b8	0f 10 05 00 00
	00 00		 movups	 xmm0, XMMWORD PTR ??_C@_0BH@HALPILME@boundingsphereposition@
; File D:\Program Files\Microsoft Visual Studio\2022\Community\VC\Tools\MSVC\14.43.34808\include\xmemory

; 256  :         return _Traits::_Allocate(_Bytes);

  001bf	8b c8		 mov	 ecx, eax
; File D:\Program Files\Microsoft Visual Studio\2022\Community\VC\Tools\MSVC\14.43.34808\include\xstring

; 891  :         _My_data._Mysize = _Count;

  001c1	c7 45 e8 16 00
	00 00		 mov	 DWORD PTR $T5[ebp+16], 22 ; 00000016H
  001c8	89 4d d8	 mov	 DWORD PTR $T5[ebp], ecx
; File D:\Program Files\Microsoft Visual Studio\2022\Community\VC\Tools\MSVC\14.43.34808\include\xmemory

; 136  :         return ::operator new(_Bytes);

  001cb	83 c4 04	 add	 esp, 4
; File D:\Program Files\Microsoft Visual Studio\2022\Community\VC\Tools\MSVC\14.43.34808\include\xstring

; 892  :         _My_data._Myres  = _New_capacity;

  001ce	c7 45 ec 1f 00
	00 00		 mov	 DWORD PTR $T5[ebp+20], 31 ; 0000001fH
; File D:\Program Files\Microsoft Visual Studio\2022\Community\VC\Tools\MSVC\14.43.34808\include\__msvc_string_view.hpp

; 95   :         _CSTD memcpy(_First1, _First2, _Count * sizeof(_Elem));

  001d5	0f 11 01	 movups	 XMMWORD PTR [ecx], xmm0
  001d8	a1 10 00 00 00	 mov	 eax, DWORD PTR ??_C@_0BH@HALPILME@boundingsphereposition@+16
  001dd	89 41 10	 mov	 DWORD PTR [ecx+16], eax
  001e0	66 a1 14 00 00
	00		 mov	 ax, WORD PTR ??_C@_0BH@HALPILME@boundingsphereposition@+20
  001e6	66 89 41 14	 mov	 WORD PTR [ecx+20], ax
; File D:\Program Files\Microsoft Visual Studio\2022\Community\VC\Tools\MSVC\14.43.34808\include\xstring

; 898  :             _Traits::assign(_Unfancy(_New_ptr)[_Count], _Elem());

  001ea	c6 41 16 00	 mov	 BYTE PTR [ecx+22], 0
; File C:\Marty 5.5\Src-Client\Client\EffectLib\EffectData.cpp

; 42   : 	if (!TextFileLoader.GetTokenVector3("boundingsphereposition", &m_v3BoundingSpherePosition))

  001ee	8b b5 f0 fe ff
	ff		 mov	 esi, DWORD PTR _this$GSCopy$1$[ebp]
  001f4	8d 45 d8	 lea	 eax, DWORD PTR $T5[ebp]
  001f7	83 c6 38	 add	 esi, 56			; 00000038H
  001fa	c6 45 fc 02	 mov	 BYTE PTR __$EHRec$[ebp+8], 2
  001fe	56		 push	 esi
  001ff	50		 push	 eax
  00200	8d 8d f8 fe ff
	ff		 lea	 ecx, DWORD PTR _TextFileLoader$[ebp]
  00206	e8 00 00 00 00	 call	 ?GetTokenVector3@CTextFileLoader@@QAEHABV?$basic_string@DU?$char_traits@D@std@@V?$allocator@D@2@@std@@PAUD3DXVECTOR3@@@Z ; CTextFileLoader::GetTokenVector3
; File D:\Program Files\Microsoft Visual Studio\2022\Community\VC\Tools\MSVC\14.43.34808\include\xstring

; 434  :         return _Myres > _Small_string_capacity;

  0020b	8b 4d ec	 mov	 ecx, DWORD PTR $T5[ebp+20]
; File C:\Marty 5.5\Src-Client\Client\EffectLib\EffectData.cpp

; 42   : 	if (!TextFileLoader.GetTokenVector3("boundingsphereposition", &m_v3BoundingSpherePosition))

  0020e	8b f8		 mov	 edi, eax
  00210	c6 45 fc 00	 mov	 BYTE PTR __$EHRec$[ebp+8], 0
; File D:\Program Files\Microsoft Visual Studio\2022\Community\VC\Tools\MSVC\14.43.34808\include\xstring

; 434  :         return _Myres > _Small_string_capacity;

  00214	83 f9 0f	 cmp	 ecx, 15			; 0000000fH

; 3047 :         if (_My_data._Large_mode_engaged()) {

  00217	76 2c		 jbe	 SHORT $LN667@LoadScript
; File D:\Program Files\Microsoft Visual Studio\2022\Community\VC\Tools\MSVC\14.43.34808\include\xmemory

; 981  :         _STD _Deallocate<_New_alignof<_Ty>>(_Ptr, sizeof(_Ty) * _Count);

  00219	8b 55 d8	 mov	 edx, DWORD PTR $T5[ebp]
; File D:\Program Files\Microsoft Visual Studio\2022\Community\VC\Tools\MSVC\14.43.34808\include\xstring

; 828  :         _Al.deallocate(_Old_ptr, _Capacity + 1); // +1 for null terminator

  0021c	41		 inc	 ecx
; File D:\Program Files\Microsoft Visual Studio\2022\Community\VC\Tools\MSVC\14.43.34808\include\xmemory

; 981  :         _STD _Deallocate<_New_alignof<_Ty>>(_Ptr, sizeof(_Ty) * _Count);

  0021d	8b c2		 mov	 eax, edx

; 284  :         if (_Bytes >= _Big_allocation_threshold) {

  0021f	81 f9 00 10 00
	00		 cmp	 ecx, 4096		; 00001000H
  00225	72 14		 jb	 SHORT $LN678@LoadScript

; 205  :     const uintptr_t _Ptr_container   = _Ptr_user[-1];

  00227	8b 50 fc	 mov	 edx, DWORD PTR [eax-4]
  0022a	83 c1 23	 add	 ecx, 35			; 00000023H
  0022d	2b c2		 sub	 eax, edx

; 219  :     _STL_VERIFY(_Back_shift >= _Min_back_shift && _Back_shift <= _Non_user_size, "invalid argument");

  0022f	83 c0 fc	 add	 eax, -4			; fffffffcH
  00232	83 f8 1f	 cmp	 eax, 31			; 0000001fH
  00235	0f 87 b5 06 00
	00		 ja	 $LN933@LoadScript
$LN678@LoadScript:

; 289  :         ::operator delete(_Ptr, _Bytes);

  0023b	51		 push	 ecx
  0023c	52		 push	 edx
  0023d	e8 00 00 00 00	 call	 ??3@YAXPAXI@Z		; operator delete
  00242	83 c4 08	 add	 esp, 8
$LN667@LoadScript:
; File C:\Marty 5.5\Src-Client\Client\EffectLib\EffectData.cpp

; 42   : 	if (!TextFileLoader.GetTokenVector3("boundingsphereposition", &m_v3BoundingSpherePosition))

  00245	85 ff		 test	 edi, edi
  00247	75 0e		 jne	 SHORT $LN7@LoadScript

; 43   : 	{
; 44   : 		m_v3BoundingSpherePosition.x = m_v3BoundingSpherePosition.y = m_v3BoundingSpherePosition.z = 0.0f;

  00249	8b 85 f0 fe ff
	ff		 mov	 eax, DWORD PTR _this$GSCopy$1$[ebp]
  0024f	89 3e		 mov	 DWORD PTR [esi], edi
  00251	89 78 40	 mov	 DWORD PTR [eax+64], edi
  00254	89 78 3c	 mov	 DWORD PTR [eax+60], edi
$LN7@LoadScript:
  00257	0f 57 c0	 xorps	 xmm0, xmm0
; File D:\Program Files\Microsoft Visual Studio\2022\Community\VC\Tools\MSVC\14.43.34808\include\xstring

; 836  :         _My_data._Mysize = 0;

  0025a	c7 45 a0 00 00
	00 00		 mov	 DWORD PTR _strDayType$[ebp+16], 0

; 474  :         _CONSTEXPR20 _Bxty() noexcept : _Buf() {} // user-provided, for fancy pointers

  00261	0f 11 45 90	 movups	 XMMWORD PTR _strDayType$[ebp], xmm0

; 837  :         _My_data._Myres  = _Small_string_capacity;

  00265	c7 45 a4 0f 00
	00 00		 mov	 DWORD PTR _strDayType$[ebp+20], 15 ; 0000000fH

; 838  :         _My_data._Activate_SSO_buffer();
; 839  : 
; 840  :         // the _Traits::assign is last so the codegen doesn't think the char write can alias this
; 841  :         _Traits::assign(_My_data._Bx._Buf[0], _Elem());

  0026c	c6 45 90 00	 mov	 BYTE PTR _strDayType$[ebp], 0
; File D:\Program Files\Microsoft Visual Studio\2022\Community\VC\Tools\MSVC\14.43.34808\include\__msvc_string_view.hpp

; 95   :         _CSTD memcpy(_First1, _First2, _Count * sizeof(_Elem));

  00270	a1 00 00 00 00	 mov	 eax, DWORD PTR ??_C@_07JJIOMLCE@daytype@
; File D:\Program Files\Microsoft Visual Studio\2022\Community\VC\Tools\MSVC\14.43.34808\include\xstring

; 474  :         _CONSTEXPR20 _Bxty() noexcept : _Buf() {} // user-provided, for fancy pointers

  00275	0f 11 45 d8	 movups	 XMMWORD PTR $T6[ebp], xmm0
; File D:\Program Files\Microsoft Visual Studio\2022\Community\VC\Tools\MSVC\14.43.34808\include\__msvc_string_view.hpp

; 95   :         _CSTD memcpy(_First1, _First2, _Count * sizeof(_Elem));

  00279	89 45 d8	 mov	 DWORD PTR $T6[ebp], eax
  0027c	66 a1 04 00 00
	00		 mov	 ax, WORD PTR ??_C@_07JJIOMLCE@daytype@+4
  00282	66 89 45 dc	 mov	 WORD PTR $T6[ebp+4], ax
  00286	a0 06 00 00 00	 mov	 al, BYTE PTR ??_C@_07JJIOMLCE@daytype@+6
; File D:\Program Files\Microsoft Visual Studio\2022\Community\VC\Tools\MSVC\14.43.34808\include\xstring

; 866  :             _My_data._Mysize = _Count;

  0028b	c7 45 e8 07 00
	00 00		 mov	 DWORD PTR $T6[ebp+16], 7

; 867  :             _My_data._Myres  = _Small_string_capacity;

  00292	c7 45 ec 0f 00
	00 00		 mov	 DWORD PTR $T6[ebp+20], 15 ; 0000000fH
; File D:\Program Files\Microsoft Visual Studio\2022\Community\VC\Tools\MSVC\14.43.34808\include\__msvc_string_view.hpp

; 95   :         _CSTD memcpy(_First1, _First2, _Count * sizeof(_Elem));

  00299	88 45 de	 mov	 BYTE PTR $T6[ebp+6], al
; File D:\Program Files\Microsoft Visual Studio\2022\Community\VC\Tools\MSVC\14.43.34808\include\xstring

; 874  :                 _Traits::assign(_My_data._Bx._Buf[_Count], _Elem());

  0029c	c6 45 df 00	 mov	 BYTE PTR $T6[ebp+7], 0
; File C:\Marty 5.5\Src-Client\Client\EffectLib\EffectData.cpp

; 49   : 	if (TextFileLoader.GetTokenString("daytype", &strDayType))

  002a0	8d 45 90	 lea	 eax, DWORD PTR _strDayType$[ebp]
  002a3	c6 45 fc 04	 mov	 BYTE PTR __$EHRec$[ebp+8], 4
  002a7	50		 push	 eax
  002a8	8d 45 d8	 lea	 eax, DWORD PTR $T6[ebp]
  002ab	50		 push	 eax
  002ac	8d 8d f8 fe ff
	ff		 lea	 ecx, DWORD PTR _TextFileLoader$[ebp]
  002b2	e8 00 00 00 00	 call	 ?GetTokenString@CTextFileLoader@@QAEHABV?$basic_string@DU?$char_traits@D@std@@V?$allocator@D@2@@std@@PAV23@@Z ; CTextFileLoader::GetTokenString
; File D:\Program Files\Microsoft Visual Studio\2022\Community\VC\Tools\MSVC\14.43.34808\include\xstring

; 434  :         return _Myres > _Small_string_capacity;

  002b7	8b 4d ec	 mov	 ecx, DWORD PTR $T6[ebp+20]
; File C:\Marty 5.5\Src-Client\Client\EffectLib\EffectData.cpp

; 49   : 	if (TextFileLoader.GetTokenString("daytype", &strDayType))

  002ba	8b f0		 mov	 esi, eax
  002bc	c6 45 fc 03	 mov	 BYTE PTR __$EHRec$[ebp+8], 3
; File D:\Program Files\Microsoft Visual Studio\2022\Community\VC\Tools\MSVC\14.43.34808\include\xstring

; 434  :         return _Myres > _Small_string_capacity;

  002c0	83 f9 0f	 cmp	 ecx, 15			; 0000000fH

; 3047 :         if (_My_data._Large_mode_engaged()) {

  002c3	76 2c		 jbe	 SHORT $LN773@LoadScript
; File D:\Program Files\Microsoft Visual Studio\2022\Community\VC\Tools\MSVC\14.43.34808\include\xmemory

; 981  :         _STD _Deallocate<_New_alignof<_Ty>>(_Ptr, sizeof(_Ty) * _Count);

  002c5	8b 55 d8	 mov	 edx, DWORD PTR $T6[ebp]
; File D:\Program Files\Microsoft Visual Studio\2022\Community\VC\Tools\MSVC\14.43.34808\include\xstring

; 828  :         _Al.deallocate(_Old_ptr, _Capacity + 1); // +1 for null terminator

  002c8	41		 inc	 ecx
; File D:\Program Files\Microsoft Visual Studio\2022\Community\VC\Tools\MSVC\14.43.34808\include\xmemory

; 981  :         _STD _Deallocate<_New_alignof<_Ty>>(_Ptr, sizeof(_Ty) * _Count);

  002c9	8b c2		 mov	 eax, edx

; 284  :         if (_Bytes >= _Big_allocation_threshold) {

  002cb	81 f9 00 10 00
	00		 cmp	 ecx, 4096		; 00001000H
  002d1	72 14		 jb	 SHORT $LN784@LoadScript

; 205  :     const uintptr_t _Ptr_container   = _Ptr_user[-1];

  002d3	8b 50 fc	 mov	 edx, DWORD PTR [eax-4]
  002d6	83 c1 23	 add	 ecx, 35			; 00000023H
  002d9	2b c2		 sub	 eax, edx

; 219  :     _STL_VERIFY(_Back_shift >= _Min_back_shift && _Back_shift <= _Non_user_size, "invalid argument");

  002db	83 c0 fc	 add	 eax, -4			; fffffffcH
  002de	83 f8 1f	 cmp	 eax, 31			; 0000001fH
  002e1	0f 87 0e 06 00
	00		 ja	 $LN934@LoadScript
$LN784@LoadScript:

; 289  :         ::operator delete(_Ptr, _Bytes);

  002e7	51		 push	 ecx
  002e8	52		 push	 edx
  002e9	e8 00 00 00 00	 call	 ??3@YAXPAXI@Z		; operator delete
  002ee	83 c4 08	 add	 esp, 8
$LN773@LoadScript:
; File C:\Marty 5.5\Src-Client\Client\EffectLib\EffectData.cpp

; 49   : 	if (TextFileLoader.GetTokenString("daytype", &strDayType))

  002f1	85 f6		 test	 esi, esi
  002f3	0f 84 ab 00 00
	00		 je	 $LN11@LoadScript
; File D:\Program Files\Microsoft Visual Studio\2022\Community\VC\Tools\MSVC\14.43.34808\include\xstring

; 434  :         return _Myres > _Small_string_capacity;

  002f9	83 7d a4 0f	 cmp	 DWORD PTR _strDayType$[ebp+20], 15 ; 0000000fH

; 425  :         const value_type* _Result = _Bx._Buf;

  002fd	8d 4d 90	 lea	 ecx, DWORD PTR _strDayType$[ebp]

; 2876 :         return _Traits_compare<_Traits>(_Mypair._Myval2._Myptr(), _Mypair._Myval2._Mysize, _Ptr, _Traits::length(_Ptr));

  00300	8b 7d a0	 mov	 edi, DWORD PTR _strDayType$[ebp+16]
  00303	b8 03 00 00 00	 mov	 eax, 3

; 426  :         if (_Large_mode_engaged()) {

  00308	0f 47 4d 90	 cmova	 ecx, DWORD PTR _strDayType$[ebp]

; 2876 :         return _Traits_compare<_Traits>(_Mypair._Myval2._Myptr(), _Mypair._Myval2._Mysize, _Ptr, _Traits::length(_Ptr));

  0030c	8b f7		 mov	 esi, edi
  0030e	3b f8		 cmp	 edi, eax
; File D:\Program Files\Microsoft Visual Studio\2022\Community\VC\Tools\MSVC\14.43.34808\include\__msvc_string_view.hpp

; 413  :         return _CSTD memcmp(_First1, _First2, _Count);

  00310	ba 00 00 00 00	 mov	 edx, OFFSET ??_C@_03NAOMOOGD@DAY@
; File D:\Program Files\Microsoft Visual Studio\2022\Community\VC\Tools\MSVC\14.43.34808\include\xstring

; 2876 :         return _Traits_compare<_Traits>(_Mypair._Myval2._Myptr(), _Mypair._Myval2._Mysize, _Ptr, _Traits::length(_Ptr));

  00315	0f 47 f0	 cmova	 esi, eax
; File D:\Program Files\Microsoft Visual Studio\2022\Community\VC\Tools\MSVC\14.43.34808\include\__msvc_string_view.hpp

; 413  :         return _CSTD memcmp(_First1, _First2, _Count);

  00318	83 ee 04	 sub	 esi, 4
  0031b	72 14		 jb	 SHORT $LN903@LoadScript
  0031d	0f 1f 00	 npad	 3
$LL904@LoadScript:
  00320	8b 01		 mov	 eax, DWORD PTR [ecx]
  00322	3b 02		 cmp	 eax, DWORD PTR [edx]
  00324	75 10		 jne	 SHORT $LN902@LoadScript
  00326	83 c1 04	 add	 ecx, 4
  00329	83 c2 04	 add	 edx, 4
  0032c	83 ee 04	 sub	 esi, 4
  0032f	73 ef		 jae	 SHORT $LL904@LoadScript
$LN903@LoadScript:
  00331	83 fe fc	 cmp	 esi, -4			; fffffffcH
  00334	74 34		 je	 SHORT $LN901@LoadScript
$LN902@LoadScript:
  00336	8a 01		 mov	 al, BYTE PTR [ecx]
  00338	3a 02		 cmp	 al, BYTE PTR [edx]
  0033a	75 27		 jne	 SHORT $LN905@LoadScript
  0033c	83 fe fd	 cmp	 esi, -3			; fffffffdH
  0033f	74 29		 je	 SHORT $LN901@LoadScript
  00341	8a 41 01	 mov	 al, BYTE PTR [ecx+1]
  00344	3a 42 01	 cmp	 al, BYTE PTR [edx+1]
  00347	75 1a		 jne	 SHORT $LN905@LoadScript
  00349	83 fe fe	 cmp	 esi, -2			; fffffffeH
  0034c	74 1c		 je	 SHORT $LN901@LoadScript
  0034e	8a 41 02	 mov	 al, BYTE PTR [ecx+2]
  00351	3a 42 02	 cmp	 al, BYTE PTR [edx+2]
  00354	75 0d		 jne	 SHORT $LN905@LoadScript
  00356	83 fe ff	 cmp	 esi, -1
  00359	74 0f		 je	 SHORT $LN901@LoadScript
  0035b	8a 41 03	 mov	 al, BYTE PTR [ecx+3]
  0035e	3a 42 03	 cmp	 al, BYTE PTR [edx+3]
  00361	74 07		 je	 SHORT $LN901@LoadScript
$LN905@LoadScript:
  00363	1b c0		 sbb	 eax, eax
  00365	83 c8 01	 or	 eax, 1
  00368	eb 02		 jmp	 SHORT $LN906@LoadScript
$LN901@LoadScript:
  0036a	33 c0		 xor	 eax, eax
$LN906@LoadScript:

; 595  :     if (_Ans != 0) {

  0036c	85 c0		 test	 eax, eax
  0036e	75 16		 jne	 SHORT $LN9@LoadScript

; 596  :         return _Ans;
; 597  :     }
; 598  : 
; 599  :     if (_Left_size < _Right_size) {

  00370	83 ff 03	 cmp	 edi, 3
  00373	72 11		 jb	 SHORT $LN9@LoadScript

; 600  :         return -1;
; 601  :     }
; 602  : 
; 603  :     if (_Left_size > _Right_size) {

  00375	77 0f		 ja	 SHORT $LN9@LoadScript
; File C:\Marty 5.5\Src-Client\Client\EffectLib\EffectData.cpp

; 52   : 			m_eDayType = EEffectDayType::EFFECT_DAYTYPE_DAY;

  00377	8b 85 f0 fe ff
	ff		 mov	 eax, DWORD PTR _this$GSCopy$1$[ebp]
  0037d	c7 40 5c 01 00
	00 00		 mov	 DWORD PTR [eax+92], 1
  00384	eb 1e		 jmp	 SHORT $LN11@LoadScript
$LN9@LoadScript:

; 53   : 		else if (0 == strDayType.compare("NIGHT"))

  00386	68 00 00 00 00	 push	 OFFSET ??_C@_05IIBBCLNE@NIGHT@
  0038b	8d 4d 90	 lea	 ecx, DWORD PTR _strDayType$[ebp]
  0038e	e8 00 00 00 00	 call	 ?compare@?$basic_string@DU?$char_traits@D@std@@V?$allocator@D@2@@std@@QBEHQBD@Z ; std::basic_string<char,std::char_traits<char>,std::allocator<char> >::compare
  00393	85 c0		 test	 eax, eax
  00395	75 0d		 jne	 SHORT $LN11@LoadScript

; 54   : 			m_eDayType = EEffectDayType::EFFECT_DAYTYPE_NIGHT;

  00397	8b 85 f0 fe ff
	ff		 mov	 eax, DWORD PTR _this$GSCopy$1$[ebp]
  0039d	c7 40 5c 02 00
	00 00		 mov	 DWORD PTR [eax+92], 2
$LN11@LoadScript:

; 58   : 	for (DWORD i = 0; i < TextFileLoader.GetChildNodeCount(); ++i)

  003a4	33 f6		 xor	 esi, esi
  003a6	8d 8d f8 fe ff
	ff		 lea	 ecx, DWORD PTR _TextFileLoader$[ebp]
  003ac	89 b5 ec fe ff
	ff		 mov	 DWORD PTR _i$1$[ebp], esi
  003b2	e8 00 00 00 00	 call	 ?GetChildNodeCount@CTextFileLoader@@QAEKXZ ; CTextFileLoader::GetChildNodeCount
  003b7	85 c0		 test	 eax, eax
  003b9	0f 84 af 02 00
	00		 je	 $LN878@LoadScript
  003bf	90		 npad	 1
$LL4@LoadScript:

; 59   : 	{
; 60   : 		if (!TextFileLoader.SetChildNode(i))

  003c0	56		 push	 esi
  003c1	8d 8d f8 fe ff
	ff		 lea	 ecx, DWORD PTR _TextFileLoader$[ebp]
  003c7	e8 00 00 00 00	 call	 ?SetChildNode@CTextFileLoader@@QAEHK@Z ; CTextFileLoader::SetChildNode
  003cc	85 c0		 test	 eax, eax
  003ce	0f 84 80 02 00
	00		 je	 $LN2@LoadScript
  003d4	0f 57 c0	 xorps	 xmm0, xmm0
; File D:\Program Files\Microsoft Visual Studio\2022\Community\VC\Tools\MSVC\14.43.34808\include\xstring

; 836  :         _My_data._Mysize = 0;

  003d7	c7 45 d0 00 00
	00 00		 mov	 DWORD PTR _strName$3[ebp+16], 0

; 474  :         _CONSTEXPR20 _Bxty() noexcept : _Buf() {} // user-provided, for fancy pointers

  003de	0f 11 45 c0	 movups	 XMMWORD PTR _strName$3[ebp], xmm0

; 837  :         _My_data._Myres  = _Small_string_capacity;

  003e2	c7 45 d4 0f 00
	00 00		 mov	 DWORD PTR _strName$3[ebp+20], 15 ; 0000000fH

; 838  :         _My_data._Activate_SSO_buffer();
; 839  : 
; 840  :         // the _Traits::assign is last so the codegen doesn't think the char write can alias this
; 841  :         _Traits::assign(_My_data._Bx._Buf[0], _Elem());

  003e9	c6 45 c0 00	 mov	 BYTE PTR _strName$3[ebp], 0
; File C:\Marty 5.5\Src-Client\Client\EffectLib\EffectData.cpp

; 65   : 		if (!TextFileLoader.GetCurrentNodeName(&strName))

  003ed	8d 45 c0	 lea	 eax, DWORD PTR _strName$3[ebp]
  003f0	c6 45 fc 05	 mov	 BYTE PTR __$EHRec$[ebp+8], 5
  003f4	50		 push	 eax
  003f5	8d 8d f8 fe ff
	ff		 lea	 ecx, DWORD PTR _TextFileLoader$[ebp]
  003fb	e8 00 00 00 00	 call	 ?GetCurrentNodeName@CTextFileLoader@@QAEHPAV?$basic_string@DU?$char_traits@D@std@@V?$allocator@D@2@@std@@@Z ; CTextFileLoader::GetCurrentNodeName
  00400	85 c0		 test	 eax, eax
  00402	75 41		 jne	 SHORT $LN13@LoadScript
; File D:\Program Files\Microsoft Visual Studio\2022\Community\VC\Tools\MSVC\14.43.34808\include\xstring

; 434  :         return _Myres > _Small_string_capacity;

  00404	8b 4d d4	 mov	 ecx, DWORD PTR _strName$3[ebp+20]
; File C:\Marty 5.5\Src-Client\Client\EffectLib\EffectData.cpp

; 66   : 			continue;

  00407	c6 45 fc 03	 mov	 BYTE PTR __$EHRec$[ebp+8], 3
; File D:\Program Files\Microsoft Visual Studio\2022\Community\VC\Tools\MSVC\14.43.34808\include\xstring

; 434  :         return _Myres > _Small_string_capacity;

  0040b	83 f9 0f	 cmp	 ecx, 15			; 0000000fH

; 3047 :         if (_My_data._Large_mode_engaged()) {

  0040e	0f 86 40 02 00
	00		 jbe	 $LN2@LoadScript
; File D:\Program Files\Microsoft Visual Studio\2022\Community\VC\Tools\MSVC\14.43.34808\include\xmemory

; 981  :         _STD _Deallocate<_New_alignof<_Ty>>(_Ptr, sizeof(_Ty) * _Count);

  00414	8b 55 c0	 mov	 edx, DWORD PTR _strName$3[ebp]
; File D:\Program Files\Microsoft Visual Studio\2022\Community\VC\Tools\MSVC\14.43.34808\include\xstring

; 828  :         _Al.deallocate(_Old_ptr, _Capacity + 1); // +1 for null terminator

  00417	41		 inc	 ecx
; File D:\Program Files\Microsoft Visual Studio\2022\Community\VC\Tools\MSVC\14.43.34808\include\xmemory

; 981  :         _STD _Deallocate<_New_alignof<_Ty>>(_Ptr, sizeof(_Ty) * _Count);

  00418	8b c2		 mov	 eax, edx

; 284  :         if (_Bytes >= _Big_allocation_threshold) {

  0041a	81 f9 00 10 00
	00		 cmp	 ecx, 4096		; 00001000H
  00420	72 14		 jb	 SHORT $LN412@LoadScript

; 205  :     const uintptr_t _Ptr_container   = _Ptr_user[-1];

  00422	8b 50 fc	 mov	 edx, DWORD PTR [eax-4]
  00425	83 c1 23	 add	 ecx, 35			; 00000023H
  00428	2b c2		 sub	 eax, edx

; 219  :     _STL_VERIFY(_Back_shift >= _Min_back_shift && _Back_shift <= _Non_user_size, "invalid argument");

  0042a	83 c0 fc	 add	 eax, -4			; fffffffcH
  0042d	83 f8 1f	 cmp	 eax, 31			; 0000001fH
  00430	0f 87 b5 04 00
	00		 ja	 $LN347@LoadScript
$LN412@LoadScript:

; 289  :         ::operator delete(_Ptr, _Bytes);

  00436	51		 push	 ecx
  00437	52		 push	 edx
  00438	e8 00 00 00 00	 call	 ??3@YAXPAXI@Z		; operator delete
  0043d	83 c4 08	 add	 esp, 8
; File C:\Marty 5.5\Src-Client\Client\EffectLib\EffectData.cpp

; 66   : 			continue;

  00440	e9 0f 02 00 00	 jmp	 $LN2@LoadScript
$LN13@LoadScript:
; File D:\Program Files\Microsoft Visual Studio\2022\Community\VC\Tools\MSVC\14.43.34808\include\xstring

; 434  :         return _Myres > _Small_string_capacity;

  00445	83 7d d4 0f	 cmp	 DWORD PTR _strName$3[ebp+20], 15 ; 0000000fH

; 425  :         const value_type* _Result = _Bx._Buf;

  00449	8d 4d c0	 lea	 ecx, DWORD PTR _strName$3[ebp]

; 2876 :         return _Traits_compare<_Traits>(_Mypair._Myval2._Myptr(), _Mypair._Myval2._Mysize, _Ptr, _Traits::length(_Ptr));

  0044c	8b 7d d0	 mov	 edi, DWORD PTR _strName$3[ebp+16]
  0044f	b8 04 00 00 00	 mov	 eax, 4

; 426  :         if (_Large_mode_engaged()) {

  00454	0f 47 4d c0	 cmova	 ecx, DWORD PTR _strName$3[ebp]

; 2876 :         return _Traits_compare<_Traits>(_Mypair._Myval2._Myptr(), _Mypair._Myval2._Mysize, _Ptr, _Traits::length(_Ptr));

  00458	8b f7		 mov	 esi, edi
  0045a	83 ff 04	 cmp	 edi, 4
; File D:\Program Files\Microsoft Visual Studio\2022\Community\VC\Tools\MSVC\14.43.34808\include\__msvc_string_view.hpp

; 413  :         return _CSTD memcmp(_First1, _First2, _Count);

