; Listing generated by Microsoft (R) Optimizing Compiler Version 19.43.34808.0 

	TITLE	C:\Marty 5.5\Src-Client\Client\EffectLib\Distribute\SimpleLightData.obj
	.686P
	.XMM
	include listing.inc
	.model	flat

INCLUDELIB LIBCMT
INCLUDELIB OLDNAMES

PUBLIC	??_7?$CDynamicPool@VCLightData@@@@6B@		; CDynamicPool<CLightData>::`vftable'
PUBLIC	??_G?$CDynamicPool@VCLightData@@@@UAEPAXI@Z	; CDynamicPool<CLightData>::`scalar deleting destructor'
PUBLIC	??_R4?$CDynamicPool@VCLightData@@@@6B@		; CDynamicPool<CLightData>::`RTTI Complete Object Locator'
PUBLIC	??_R0?AV?$CDynamicPool@VCLightData@@@@@8	; CDynamicPool<CLightData> `RTTI Type Descriptor'
PUBLIC	??_R3?$CDynamicPool@VCLightData@@@@8		; CDynamicPool<CLightData>::`RTTI Class Hierarchy Descriptor'
PUBLIC	??_R2?$CDynamicPool@VCLightData@@@@8		; CDynamicPool<CLightData>::`RTTI Base Class Array'
PUBLIC	??_R1A@?0A@EA@?$CDynamicPool@VCLightData@@@@8	; CDynamicPool<CLightData>::`RTTI Base Class Descriptor at (0,-1,0,64)'
EXTRN	??_E?$CDynamicPool@VCLightData@@@@UAEPAXI@Z:PROC ; CDynamicPool<CLightData>::`vector deleting destructor'
EXTRN	??_7type_info@@6B@:QWORD			; type_info::`vftable'
CONST	SEGMENT
?_Fake_alloc@std@@3U_Fake_allocator@1@B	ORG $+1		; std::_Fake_alloc
CONST	ENDS
;	COMDAT ??_R1A@?0A@EA@?$CDynamicPool@VCLightData@@@@8
rdata$r	SEGMENT
??_R1A@?0A@EA@?$CDynamicPool@VCLightData@@@@8 DD FLAT:??_R0?AV?$CDynamicPool@VCLightData@@@@@8 ; CDynamicPool<CLightData>::`RTTI Base Class Descriptor at (0,-1,0,64)'
	DD	00H
	DD	00H
	DD	0ffffffffH
	DD	00H
	DD	040H
	DD	FLAT:??_R3?$CDynamicPool@VCLightData@@@@8
rdata$r	ENDS
;	COMDAT ??_R2?$CDynamicPool@VCLightData@@@@8
rdata$r	SEGMENT
??_R2?$CDynamicPool@VCLightData@@@@8 DD FLAT:??_R1A@?0A@EA@?$CDynamicPool@VCLightData@@@@8 ; CDynamicPool<CLightData>::`RTTI Base Class Array'
rdata$r	ENDS
;	COMDAT ??_R3?$CDynamicPool@VCLightData@@@@8
rdata$r	SEGMENT
??_R3?$CDynamicPool@VCLightData@@@@8 DD 00H		; CDynamicPool<CLightData>::`RTTI Class Hierarchy Descriptor'
	DD	00H
	DD	01H
	DD	FLAT:??_R2?$CDynamicPool@VCLightData@@@@8
rdata$r	ENDS
;	COMDAT ??_R0?AV?$CDynamicPool@VCLightData@@@@@8
data$rs	SEGMENT
??_R0?AV?$CDynamicPool@VCLightData@@@@@8 DD FLAT:??_7type_info@@6B@ ; CDynamicPool<CLightData> `RTTI Type Descriptor'
	DD	00H
	DB	'.?AV?$CDynamicPool@VCLightData@@@@', 00H
data$rs	ENDS
;	COMDAT ??_R4?$CDynamicPool@VCLightData@@@@6B@
rdata$r	SEGMENT
??_R4?$CDynamicPool@VCLightData@@@@6B@ DD 00H		; CDynamicPool<CLightData>::`RTTI Complete Object Locator'
	DD	00H
	DD	00H
	DD	FLAT:??_R0?AV?$CDynamicPool@VCLightData@@@@@8
	DD	FLAT:??_R3?$CDynamicPool@VCLightData@@@@8
rdata$r	ENDS
;	COMDAT ??_7?$CDynamicPool@VCLightData@@@@6B@
CONST	SEGMENT
??_7?$CDynamicPool@VCLightData@@@@6B@ DD FLAT:??_R4?$CDynamicPool@VCLightData@@@@6B@ ; CDynamicPool<CLightData>::`vftable'
	DD	FLAT:??_E?$CDynamicPool@VCLightData@@@@UAEPAXI@Z
CONST	ENDS
PUBLIC	??0exception@std@@QAE@ABV01@@Z			; std::exception::exception
PUBLIC	??1exception@std@@UAE@XZ			; std::exception::~exception
PUBLIC	?what@exception@std@@UBEPBDXZ			; std::exception::what
PUBLIC	??_Gexception@std@@UAEPAXI@Z			; std::exception::`scalar deleting destructor'
PUBLIC	??0bad_alloc@std@@QAE@ABV01@@Z			; std::bad_alloc::bad_alloc
PUBLIC	??_Gbad_alloc@std@@UAEPAXI@Z			; std::bad_alloc::`scalar deleting destructor'
PUBLIC	??0bad_array_new_length@std@@QAE@XZ		; std::bad_array_new_length::bad_array_new_length
PUBLIC	??1bad_array_new_length@std@@UAE@XZ		; std::bad_array_new_length::~bad_array_new_length
PUBLIC	??0bad_array_new_length@std@@QAE@ABV01@@Z	; std::bad_array_new_length::bad_array_new_length
PUBLIC	??_Gbad_array_new_length@std@@UAEPAXI@Z		; std::bad_array_new_length::`scalar deleting destructor'
PUBLIC	?_Throw_bad_array_new_length@std@@YAXXZ		; std::_Throw_bad_array_new_length
PUBLIC	?_Xlen_string@std@@YAXXZ			; std::_Xlen_string
PUBLIC	??0?$basic_string@DU?$char_traits@D@std@@V?$allocator@D@2@@std@@QAE@QBD@Z ; std::basic_string<char,std::char_traits<char>,std::allocator<char> >::basic_string<char,std::char_traits<char>,std::allocator<char> >
PUBLIC	??1?$basic_string@DU?$char_traits@D@std@@V?$allocator@D@2@@std@@QAE@XZ ; std::basic_string<char,std::char_traits<char>,std::allocator<char> >::~basic_string<char,std::char_traits<char>,std::allocator<char> >
PUBLIC	??$_Allocate_manually_vector_aligned@U_Default_allocate_traits@std@@@std@@YAPAXI@Z ; std::_Allocate_manually_vector_aligned<std::_Default_allocate_traits>
PUBLIC	??0CLightData@@QAE@XZ				; CLightData::CLightData
PUBLIC	??1CLightData@@UAE@XZ				; CLightData::~CLightData
PUBLIC	?GetRange@CLightData@@QAEXMAAM@Z		; CLightData::GetRange
PUBLIC	?GetDuration@CLightData@@QAEMXZ			; CLightData::GetDuration
PUBLIC	?InitializeLight@CLightData@@QAEXAAU_D3DLIGHT8@@@Z ; CLightData::InitializeLight
PUBLIC	?OnClear@CLightData@@MAEXXZ			; CLightData::OnClear
PUBLIC	?OnIsData@CLightData@@MAE_NXZ			; CLightData::OnIsData
PUBLIC	?OnLoadScript@CLightData@@MAEHAAVCTextFileLoader@@@Z ; CLightData::OnLoadScript
PUBLIC	??1?$vector@V?$CTimeEvent@M@@V?$allocator@V?$CTimeEvent@M@@@std@@@std@@QAE@XZ ; std::vector<CTimeEvent<float>,std::allocator<CTimeEvent<float> > >::~vector<CTimeEvent<float>,std::allocator<CTimeEvent<float> > >
PUBLIC	?DestroySystem@CLightData@@SAXXZ		; CLightData::DestroySystem
PUBLIC	?New@CLightData@@SAPAV1@XZ			; CLightData::New
PUBLIC	?Delete@CLightData@@SAXPAV1@@Z			; CLightData::Delete
PUBLIC	??_GCLightData@@UAEPAXI@Z			; CLightData::`scalar deleting destructor'
PUBLIC	??1?$CDynamicPool@VCLightData@@@@UAE@XZ		; CDynamicPool<CLightData>::~CDynamicPool<CLightData>
PUBLIC	?_Xlength@?$vector@PAVCLightData@@V?$allocator@PAVCLightData@@@std@@@std@@CAXXZ ; std::vector<CLightData *,std::allocator<CLightData *> >::_Xlength
PUBLIC	??$equal_range@V?$_Vector_iterator@V?$_Vector_val@U?$_Simple_types@V?$CTimeEvent@M@@@std@@@std@@@std@@M@std@@YA?AU?$pair@V?$_Vector_iterator@V?$_Vector_val@U?$_Simple_types@V?$CTimeEvent@M@@@std@@@std@@@std@@V12@@0@V?$_Vector_iterator@V?$_Vector_val@U?$_Simple_types@V?$CTimeEvent@M@@@std@@@std@@@0@0ABM@Z ; std::equal_range<std::_Vector_iterator<std::_Vector_val<std::_Simple_types<CTimeEvent<float> > > >,float>
PUBLIC	??$_Emplace_reallocate@ABQAVCLightData@@@?$vector@PAVCLightData@@V?$allocator@PAVCLightData@@@std@@@std@@AAEPAPAVCLightData@@QAPAV2@ABQAV2@@Z ; std::vector<CLightData *,std::allocator<CLightData *> >::_Emplace_reallocate<CLightData * const &>
PUBLIC	??$_Copy_memmove@PAPAVCLightData@@PAPAV1@@std@@YAPAPAVCLightData@@PAPAV1@00@Z ; std::_Copy_memmove<CLightData * *,CLightData * *>
PUBLIC	??$_Copy_memmove_tail@PAPAVCLightData@@@std@@YAPAPAVCLightData@@QBDQAPAV1@II@Z ; std::_Copy_memmove_tail<CLightData * *>
PUBLIC	??_7exception@std@@6B@				; std::exception::`vftable'
PUBLIC	??_C@_0BC@EOODALEL@Unknown?5exception@		; `string'
PUBLIC	??_7bad_alloc@std@@6B@				; std::bad_alloc::`vftable'
PUBLIC	??_7bad_array_new_length@std@@6B@		; std::bad_array_new_length::`vftable'
PUBLIC	??_C@_0BF@KINCDENJ@bad?5array?5new?5length@	; `string'
PUBLIC	??_R0?AVexception@std@@@8			; std::exception `RTTI Type Descriptor'
PUBLIC	__CT??_R0?AVexception@std@@@8??0exception@std@@QAE@ABV01@@Z12
PUBLIC	__TI3?AVbad_array_new_length@std@@
PUBLIC	__CTA3?AVbad_array_new_length@std@@
PUBLIC	??_R0?AVbad_array_new_length@std@@@8		; std::bad_array_new_length `RTTI Type Descriptor'
PUBLIC	__CT??_R0?AVbad_array_new_length@std@@@8??0bad_array_new_length@std@@QAE@ABV01@@Z12
PUBLIC	??_R0?AVbad_alloc@std@@@8			; std::bad_alloc `RTTI Type Descriptor'
PUBLIC	__CT??_R0?AVbad_alloc@std@@@8??0bad_alloc@std@@QAE@ABV01@@Z12
PUBLIC	??_C@_0BA@JFNIOLAK@string?5too?5long@		; `string'
PUBLIC	??_R4exception@std@@6B@				; std::exception::`RTTI Complete Object Locator'
PUBLIC	??_R3exception@std@@8				; std::exception::`RTTI Class Hierarchy Descriptor'
PUBLIC	??_R2exception@std@@8				; std::exception::`RTTI Base Class Array'
PUBLIC	??_R1A@?0A@EA@exception@std@@8			; std::exception::`RTTI Base Class Descriptor at (0,-1,0,64)'
PUBLIC	??_R4bad_array_new_length@std@@6B@		; std::bad_array_new_length::`RTTI Complete Object Locator'
PUBLIC	??_R3bad_array_new_length@std@@8		; std::bad_array_new_length::`RTTI Class Hierarchy Descriptor'
PUBLIC	??_R2bad_array_new_length@std@@8		; std::bad_array_new_length::`RTTI Base Class Array'
PUBLIC	??_R1A@?0A@EA@bad_array_new_length@std@@8	; std::bad_array_new_length::`RTTI Base Class Descriptor at (0,-1,0,64)'
PUBLIC	??_R1A@?0A@EA@bad_alloc@std@@8			; std::bad_alloc::`RTTI Base Class Descriptor at (0,-1,0,64)'
PUBLIC	??_R3bad_alloc@std@@8				; std::bad_alloc::`RTTI Class Hierarchy Descriptor'
PUBLIC	??_R2bad_alloc@std@@8				; std::bad_alloc::`RTTI Base Class Array'
PUBLIC	??_R4bad_alloc@std@@6B@				; std::bad_alloc::`RTTI Complete Object Locator'
PUBLIC	?ms_kPool@CLightData@@2V?$CDynamicPool@VCLightData@@@@A ; CLightData::ms_kPool
PUBLIC	??_7CLightData@@6B@				; CLightData::`vftable'
PUBLIC	??_C@_08LGBPINEC@duration@			; `string'
PUBLIC	??_C@_08NIJNIMBK@loopflag@			; `string'
PUBLIC	??_C@_09HBCOMICA@loopcount@			; `string'
PUBLIC	??_C@_0N@MBJLBHOD@ambientcolor@			; `string'
PUBLIC	??_C@_0N@BELHEGHB@diffusecolor@			; `string'
PUBLIC	??_C@_08BLEPIDIL@maxrange@			; `string'
PUBLIC	??_C@_0N@NKJMABJM@attenuation0@			; `string'
PUBLIC	??_C@_0N@MDIHDANN@attenuation1@			; `string'
PUBLIC	??_C@_0N@OIKKGDBO@attenuation2@			; `string'
PUBLIC	??_C@_0P@CJMOPDJ@timeeventrange@		; `string'
PUBLIC	??_C@_0BA@FOIKENOD@vector?5too?5long@		; `string'
PUBLIC	??_R4CLightData@@6B@				; CLightData::`RTTI Complete Object Locator'
PUBLIC	??_R0?AVCLightData@@@8				; CLightData `RTTI Type Descriptor'
PUBLIC	??_R3CLightData@@8				; CLightData::`RTTI Class Hierarchy Descriptor'
PUBLIC	??_R2CLightData@@8				; CLightData::`RTTI Base Class Array'
PUBLIC	??_R1A@?0A@EA@CLightData@@8			; CLightData::`RTTI Base Class Descriptor at (0,-1,0,64)'
PUBLIC	??_R1A@?0A@EA@CEffectElementBase@@8		; CEffectElementBase::`RTTI Base Class Descriptor at (0,-1,0,64)'
PUBLIC	??_R0?AVCEffectElementBase@@@8			; CEffectElementBase `RTTI Type Descriptor'
PUBLIC	??_R3CEffectElementBase@@8			; CEffectElementBase::`RTTI Class Hierarchy Descriptor'
PUBLIC	??_R2CEffectElementBase@@8			; CEffectElementBase::`RTTI Base Class Array'
EXTRN	??2@YAPAXI@Z:PROC				; operator new
EXTRN	??3@YAXPAXI@Z:PROC				; operator delete
EXTRN	_atexit:PROC
EXTRN	__invalid_parameter_noinfo_noreturn:PROC
EXTRN	?_Xlength_error@std@@YAXPBD@Z:PROC		; std::_Xlength_error
EXTRN	___std_exception_copy:PROC
EXTRN	___std_exception_destroy:PROC
EXTRN	??_Eexception@std@@UAEPAXI@Z:PROC		; std::exception::`vector deleting destructor'
EXTRN	??_Ebad_alloc@std@@UAEPAXI@Z:PROC		; std::bad_alloc::`vector deleting destructor'
EXTRN	??_Ebad_array_new_length@std@@UAEPAXI@Z:PROC	; std::bad_array_new_length::`vector deleting destructor'
EXTRN	?GetTokenBoolean@CTextFileLoader@@QAEHABV?$basic_string@DU?$char_traits@D@std@@V?$allocator@D@2@@std@@PAH@Z:PROC ; CTextFileLoader::GetTokenBoolean
EXTRN	?GetTokenInteger@CTextFileLoader@@QAEHABV?$basic_string@DU?$char_traits@D@std@@V?$allocator@D@2@@std@@PAH@Z:PROC ; CTextFileLoader::GetTokenInteger
EXTRN	?GetTokenFloat@CTextFileLoader@@QAEHABV?$basic_string@DU?$char_traits@D@std@@V?$allocator@D@2@@std@@PAM@Z:PROC ; CTextFileLoader::GetTokenFloat
EXTRN	?GetTokenColor@CTextFileLoader@@QAEHABV?$basic_string@DU?$char_traits@D@std@@V?$allocator@D@2@@std@@PAUD3DXCOLOR@@@Z:PROC ; CTextFileLoader::GetTokenColor
EXTRN	?GetTokenTimeEventFloat@@YAHAAVCTextFileLoader@@PBDPAV?$vector@V?$CTimeEvent@M@@V?$allocator@V?$CTimeEvent@M@@@std@@@std@@@Z:PROC ; GetTokenTimeEventFloat
EXTRN	??0CEffectElementBase@@QAE@XZ:PROC		; CEffectElementBase::CEffectElementBase
EXTRN	??1CEffectElementBase@@UAE@XZ:PROC		; CEffectElementBase::~CEffectElementBase
EXTRN	?Clear@CEffectElementBase@@QAEXXZ:PROC		; CEffectElementBase::Clear
EXTRN	?GetPosition@CEffectElementBase@@QAEXMAAUD3DXVECTOR3@@@Z:PROC ; CEffectElementBase::GetPosition
EXTRN	??_ECLightData@@UAEPAXI@Z:PROC			; CLightData::`vector deleting destructor'
EXTRN	@__security_check_cookie@4:PROC
EXTRN	__CxxThrowException@8:PROC
EXTRN	___CxxFrameHandler3:PROC
EXTRN	_memcpy:PROC
EXTRN	_memmove:PROC
EXTRN	___security_cookie:DWORD
EXTRN	__fltused:DWORD
CRT$XCU	SEGMENT
??ms_kPool$initializer$@CLightData@@2P6AXXZA@@3P6AXXZA DD FLAT:??__E?ms_kPool@CLightData@@2V?$CDynamicPool@VCLightData@@@@A@@YAXXZ ; ??ms_kPool$initializer$@CLightData@@2P6AXXZA@@3P6AXXZA
CRT$XCU	ENDS
;	COMDAT ??_R2CEffectElementBase@@8
rdata$r	SEGMENT
??_R2CEffectElementBase@@8 DD FLAT:??_R1A@?0A@EA@CEffectElementBase@@8 ; CEffectElementBase::`RTTI Base Class Array'
rdata$r	ENDS
;	COMDAT ??_R3CEffectElementBase@@8
rdata$r	SEGMENT
??_R3CEffectElementBase@@8 DD 00H			; CEffectElementBase::`RTTI Class Hierarchy Descriptor'
	DD	00H
	DD	01H
	DD	FLAT:??_R2CEffectElementBase@@8
rdata$r	ENDS
;	COMDAT ??_R0?AVCEffectElementBase@@@8
data$rs	SEGMENT
??_R0?AVCEffectElementBase@@@8 DD FLAT:??_7type_info@@6B@ ; CEffectElementBase `RTTI Type Descriptor'
	DD	00H
	DB	'.?AVCEffectElementBase@@', 00H
data$rs	ENDS
;	COMDAT ??_R1A@?0A@EA@CEffectElementBase@@8
rdata$r	SEGMENT
??_R1A@?0A@EA@CEffectElementBase@@8 DD FLAT:??_R0?AVCEffectElementBase@@@8 ; CEffectElementBase::`RTTI Base Class Descriptor at (0,-1,0,64)'
	DD	00H
	DD	00H
	DD	0ffffffffH
	DD	00H
	DD	040H
	DD	FLAT:??_R3CEffectElementBase@@8
rdata$r	ENDS
;	COMDAT ??_R1A@?0A@EA@CLightData@@8
rdata$r	SEGMENT
??_R1A@?0A@EA@CLightData@@8 DD FLAT:??_R0?AVCLightData@@@8 ; CLightData::`RTTI Base Class Descriptor at (0,-1,0,64)'
	DD	01H
	DD	00H
	DD	0ffffffffH
	DD	00H
	DD	040H
	DD	FLAT:??_R3CLightData@@8
rdata$r	ENDS
;	COMDAT ??_R2CLightData@@8
rdata$r	SEGMENT
??_R2CLightData@@8 DD FLAT:??_R1A@?0A@EA@CLightData@@8	; CLightData::`RTTI Base Class Array'
	DD	FLAT:??_R1A@?0A@EA@CEffectElementBase@@8
rdata$r	ENDS
;	COMDAT ??_R3CLightData@@8
rdata$r	SEGMENT
??_R3CLightData@@8 DD 00H				; CLightData::`RTTI Class Hierarchy Descriptor'
	DD	00H
	DD	02H
	DD	FLAT:??_R2CLightData@@8
rdata$r	ENDS
;	COMDAT ??_R0?AVCLightData@@@8
data$rs	SEGMENT
??_R0?AVCLightData@@@8 DD FLAT:??_7type_info@@6B@	; CLightData `RTTI Type Descriptor'
	DD	00H
	DB	'.?AVCLightData@@', 00H
data$rs	ENDS
;	COMDAT ??_R4CLightData@@6B@
rdata$r	SEGMENT
??_R4CLightData@@6B@ DD 00H				; CLightData::`RTTI Complete Object Locator'
	DD	00H
	DD	00H
	DD	FLAT:??_R0?AVCLightData@@@8
	DD	FLAT:??_R3CLightData@@8
rdata$r	ENDS
;	COMDAT ??_C@_0BA@FOIKENOD@vector?5too?5long@
CONST	SEGMENT
??_C@_0BA@FOIKENOD@vector?5too?5long@ DB 'vector too long', 00H ; `string'
CONST	ENDS
;	COMDAT ??_C@_0P@CJMOPDJ@timeeventrange@
CONST	SEGMENT
??_C@_0P@CJMOPDJ@timeeventrange@ DB 'timeeventrange', 00H ; `string'
CONST	ENDS
;	COMDAT ??_C@_0N@OIKKGDBO@attenuation2@
CONST	SEGMENT
??_C@_0N@OIKKGDBO@attenuation2@ DB 'attenuation2', 00H	; `string'
CONST	ENDS
;	COMDAT ??_C@_0N@MDIHDANN@attenuation1@
CONST	SEGMENT
??_C@_0N@MDIHDANN@attenuation1@ DB 'attenuation1', 00H	; `string'
CONST	ENDS
;	COMDAT ??_C@_0N@NKJMABJM@attenuation0@
CONST	SEGMENT
??_C@_0N@NKJMABJM@attenuation0@ DB 'attenuation0', 00H	; `string'
CONST	ENDS
;	COMDAT ??_C@_08BLEPIDIL@maxrange@
CONST	SEGMENT
??_C@_08BLEPIDIL@maxrange@ DB 'maxrange', 00H		; `string'
CONST	ENDS
;	COMDAT ??_C@_0N@BELHEGHB@diffusecolor@
CONST	SEGMENT
??_C@_0N@BELHEGHB@diffusecolor@ DB 'diffusecolor', 00H	; `string'
CONST	ENDS
;	COMDAT ??_C@_0N@MBJLBHOD@ambientcolor@
CONST	SEGMENT
??_C@_0N@MBJLBHOD@ambientcolor@ DB 'ambientcolor', 00H	; `string'
CONST	ENDS
;	COMDAT ??_C@_09HBCOMICA@loopcount@
CONST	SEGMENT
??_C@_09HBCOMICA@loopcount@ DB 'loopcount', 00H		; `string'
CONST	ENDS
;	COMDAT ??_C@_08NIJNIMBK@loopflag@
CONST	SEGMENT
??_C@_08NIJNIMBK@loopflag@ DB 'loopflag', 00H		; `string'
CONST	ENDS
;	COMDAT ??_C@_08LGBPINEC@duration@
CONST	SEGMENT
??_C@_08LGBPINEC@duration@ DB 'duration', 00H		; `string'
CONST	ENDS
;	COMDAT ??_7CLightData@@6B@
CONST	SEGMENT
??_7CLightData@@6B@ DD FLAT:??_R4CLightData@@6B@	; CLightData::`vftable'
	DD	FLAT:??_ECLightData@@UAEPAXI@Z
	DD	FLAT:?OnClear@CLightData@@MAEXXZ
	DD	FLAT:?OnIsData@CLightData@@MAE_NXZ
	DD	FLAT:?OnLoadScript@CLightData@@MAEHAAVCTextFileLoader@@@Z
CONST	ENDS
_DATA	SEGMENT
?ms_kPool@CLightData@@2V?$CDynamicPool@VCLightData@@@@A DD FLAT:??_7?$CDynamicPool@VCLightData@@@@6B@ ; CLightData::ms_kPool
	DD	00H
	DD	00H
	DD	00H
	DD	00H
	DD	00H
	DD	00H
	DD	00H
	DD	00H
_DATA	ENDS
;	COMDAT ??_R4bad_alloc@std@@6B@
rdata$r	SEGMENT
??_R4bad_alloc@std@@6B@ DD 00H				; std::bad_alloc::`RTTI Complete Object Locator'
	DD	00H
	DD	00H
	DD	FLAT:??_R0?AVbad_alloc@std@@@8
	DD	FLAT:??_R3bad_alloc@std@@8
rdata$r	ENDS
;	COMDAT ??_R2bad_alloc@std@@8
rdata$r	SEGMENT
??_R2bad_alloc@std@@8 DD FLAT:??_R1A@?0A@EA@bad_alloc@std@@8 ; std::bad_alloc::`RTTI Base Class Array'
	DD	FLAT:??_R1A@?0A@EA@exception@std@@8
rdata$r	ENDS
;	COMDAT ??_R3bad_alloc@std@@8
rdata$r	SEGMENT
??_R3bad_alloc@std@@8 DD 00H				; std::bad_alloc::`RTTI Class Hierarchy Descriptor'
	DD	00H
	DD	02H
	DD	FLAT:??_R2bad_alloc@std@@8
rdata$r	ENDS
;	COMDAT ??_R1A@?0A@EA@bad_alloc@std@@8
rdata$r	SEGMENT
??_R1A@?0A@EA@bad_alloc@std@@8 DD FLAT:??_R0?AVbad_alloc@std@@@8 ; std::bad_alloc::`RTTI Base Class Descriptor at (0,-1,0,64)'
	DD	01H
	DD	00H
	DD	0ffffffffH
	DD	00H
	DD	040H
	DD	FLAT:??_R3bad_alloc@std@@8
rdata$r	ENDS
;	COMDAT ??_R1A@?0A@EA@bad_array_new_length@std@@8
rdata$r	SEGMENT
??_R1A@?0A@EA@bad_array_new_length@std@@8 DD FLAT:??_R0?AVbad_array_new_length@std@@@8 ; std::bad_array_new_length::`RTTI Base Class Descriptor at (0,-1,0,64)'
	DD	02H
	DD	00H
	DD	0ffffffffH
	DD	00H
	DD	040H
	DD	FLAT:??_R3bad_array_new_length@std@@8
rdata$r	ENDS
;	COMDAT ??_R2bad_array_new_length@std@@8
rdata$r	SEGMENT
??_R2bad_array_new_length@std@@8 DD FLAT:??_R1A@?0A@EA@bad_array_new_length@std@@8 ; std::bad_array_new_length::`RTTI Base Class Array'
	DD	FLAT:??_R1A@?0A@EA@bad_alloc@std@@8
	DD	FLAT:??_R1A@?0A@EA@exception@std@@8
rdata$r	ENDS
;	COMDAT ??_R3bad_array_new_length@std@@8
rdata$r	SEGMENT
??_R3bad_array_new_length@std@@8 DD 00H			; std::bad_array_new_length::`RTTI Class Hierarchy Descriptor'
	DD	00H
	DD	03H
	DD	FLAT:??_R2bad_array_new_length@std@@8
rdata$r	ENDS
;	COMDAT ??_R4bad_array_new_length@std@@6B@
rdata$r	SEGMENT
??_R4bad_array_new_length@std@@6B@ DD 00H		; std::bad_array_new_length::`RTTI Complete Object Locator'
	DD	00H
	DD	00H
	DD	FLAT:??_R0?AVbad_array_new_length@std@@@8
	DD	FLAT:??_R3bad_array_new_length@std@@8
rdata$r	ENDS
;	COMDAT ??_R1A@?0A@EA@exception@std@@8
rdata$r	SEGMENT
??_R1A@?0A@EA@exception@std@@8 DD FLAT:??_R0?AVexception@std@@@8 ; std::exception::`RTTI Base Class Descriptor at (0,-1,0,64)'
	DD	00H
	DD	00H
	DD	0ffffffffH
	DD	00H
	DD	040H
	DD	FLAT:??_R3exception@std@@8
rdata$r	ENDS
;	COMDAT ??_R2exception@std@@8
rdata$r	SEGMENT
??_R2exception@std@@8 DD FLAT:??_R1A@?0A@EA@exception@std@@8 ; std::exception::`RTTI Base Class Array'
rdata$r	ENDS
;	COMDAT ??_R3exception@std@@8
rdata$r	SEGMENT
??_R3exception@std@@8 DD 00H				; std::exception::`RTTI Class Hierarchy Descriptor'
	DD	00H
	DD	01H
	DD	FLAT:??_R2exception@std@@8
rdata$r	ENDS
;	COMDAT ??_R4exception@std@@6B@
rdata$r	SEGMENT
??_R4exception@std@@6B@ DD 00H				; std::exception::`RTTI Complete Object Locator'
	DD	00H
	DD	00H
	DD	FLAT:??_R0?AVexception@std@@@8
	DD	FLAT:??_R3exception@std@@8
rdata$r	ENDS
;	COMDAT ??_C@_0BA@JFNIOLAK@string?5too?5long@
CONST	SEGMENT
??_C@_0BA@JFNIOLAK@string?5too?5long@ DB 'string too long', 00H ; `string'
CONST	ENDS
;	COMDAT __CT??_R0?AVbad_alloc@std@@@8??0bad_alloc@std@@QAE@ABV01@@Z12
xdata$x	SEGMENT
__CT??_R0?AVbad_alloc@std@@@8??0bad_alloc@std@@QAE@ABV01@@Z12 DD 010H
	DD	FLAT:??_R0?AVbad_alloc@std@@@8
	DD	00H
	DD	0ffffffffH
	ORG $+4
	DD	0cH
	DD	FLAT:??0bad_alloc@std@@QAE@ABV01@@Z
xdata$x	ENDS
;	COMDAT ??_R0?AVbad_alloc@std@@@8
data$r	SEGMENT
??_R0?AVbad_alloc@std@@@8 DD FLAT:??_7type_info@@6B@	; std::bad_alloc `RTTI Type Descriptor'
	DD	00H
	DB	'.?AVbad_alloc@std@@', 00H
data$r	ENDS
;	COMDAT __CT??_R0?AVbad_array_new_length@std@@@8??0bad_array_new_length@std@@QAE@ABV01@@Z12
xdata$x	SEGMENT
__CT??_R0?AVbad_array_new_length@std@@@8??0bad_array_new_length@std@@QAE@ABV01@@Z12 DD 00H
	DD	FLAT:??_R0?AVbad_array_new_length@std@@@8
	DD	00H
	DD	0ffffffffH
	ORG $+4
	DD	0cH
	DD	FLAT:??0bad_array_new_length@std@@QAE@ABV01@@Z
xdata$x	ENDS
;	COMDAT ??_R0?AVbad_array_new_length@std@@@8
data$r	SEGMENT
??_R0?AVbad_array_new_length@std@@@8 DD FLAT:??_7type_info@@6B@ ; std::bad_array_new_length `RTTI Type Descriptor'
	DD	00H
	DB	'.?AVbad_array_new_length@std@@', 00H
data$r	ENDS
;	COMDAT __CTA3?AVbad_array_new_length@std@@
xdata$x	SEGMENT
__CTA3?AVbad_array_new_length@std@@ DD 03H
	DD	FLAT:__CT??_R0?AVbad_array_new_length@std@@@8??0bad_array_new_length@std@@QAE@ABV01@@Z12
	DD	FLAT:__CT??_R0?AVbad_alloc@std@@@8??0bad_alloc@std@@QAE@ABV01@@Z12
	DD	FLAT:__CT??_R0?AVexception@std@@@8??0exception@std@@QAE@ABV01@@Z12
xdata$x	ENDS
;	COMDAT __TI3?AVbad_array_new_length@std@@
xdata$x	SEGMENT
__TI3?AVbad_array_new_length@std@@ DD 00H
	DD	FLAT:??1bad_array_new_length@std@@UAE@XZ
	DD	00H
	DD	FLAT:__CTA3?AVbad_array_new_length@std@@
xdata$x	ENDS
;	COMDAT __CT??_R0?AVexception@std@@@8??0exception@std@@QAE@ABV01@@Z12
xdata$x	SEGMENT
__CT??_R0?AVexception@std@@@8??0exception@std@@QAE@ABV01@@Z12 DD 00H
	DD	FLAT:??_R0?AVexception@std@@@8
	DD	00H
	DD	0ffffffffH
	ORG $+4
	DD	0cH
	DD	FLAT:??0exception@std@@QAE@ABV01@@Z
xdata$x	ENDS
;	COMDAT ??_R0?AVexception@std@@@8
data$r	SEGMENT
??_R0?AVexception@std@@@8 DD FLAT:??_7type_info@@6B@	; std::exception `RTTI Type Descriptor'
	DD	00H
	DB	'.?AVexception@std@@', 00H
data$r	ENDS
;	COMDAT ??_C@_0BF@KINCDENJ@bad?5array?5new?5length@
CONST	SEGMENT
??_C@_0BF@KINCDENJ@bad?5array?5new?5length@ DB 'bad array new length', 00H ; `string'
CONST	ENDS
;	COMDAT ??_7bad_array_new_length@std@@6B@
CONST	SEGMENT
??_7bad_array_new_length@std@@6B@ DD FLAT:??_R4bad_array_new_length@std@@6B@ ; std::bad_array_new_length::`vftable'
	DD	FLAT:??_Ebad_array_new_length@std@@UAEPAXI@Z
	DD	FLAT:?what@exception@std@@UBEPBDXZ
CONST	ENDS
;	COMDAT ??_7bad_alloc@std@@6B@
CONST	SEGMENT
??_7bad_alloc@std@@6B@ DD FLAT:??_R4bad_alloc@std@@6B@	; std::bad_alloc::`vftable'
	DD	FLAT:??_Ebad_alloc@std@@UAEPAXI@Z
	DD	FLAT:?what@exception@std@@UBEPBDXZ
CONST	ENDS
;	COMDAT ??_C@_0BC@EOODALEL@Unknown?5exception@
CONST	SEGMENT
??_C@_0BC@EOODALEL@Unknown?5exception@ DB 'Unknown exception', 00H ; `string'
CONST	ENDS
;	COMDAT ??_7exception@std@@6B@
CONST	SEGMENT
??_7exception@std@@6B@ DD FLAT:??_R4exception@std@@6B@	; std::exception::`vftable'
	DD	FLAT:??_Eexception@std@@UAEPAXI@Z
	DD	FLAT:?what@exception@std@@UBEPBDXZ
CONST	ENDS
;	COMDAT xdata$x
xdata$x	SEGMENT
__unwindtable$?Alloc@?$CDynamicPool@VCLightData@@@@QAEPAVCLightData@@XZ DD 0ffffffffH
	DD	FLAT:__unwindfunclet$?Alloc@?$CDynamicPool@VCLightData@@@@QAEPAVCLightData@@XZ$0
__ehfuncinfo$?Alloc@?$CDynamicPool@VCLightData@@@@QAEPAVCLightData@@XZ DD 019930522H
	DD	01H
	DD	FLAT:__unwindtable$?Alloc@?$CDynamicPool@VCLightData@@@@QAEPAVCLightData@@XZ
	DD	2 DUP(00H)
	DD	2 DUP(00H)
	DD	00H
	DD	01H
xdata$x	ENDS
;	COMDAT xdata$x
xdata$x	SEGMENT
__unwindtable$?New@CLightData@@SAPAV1@XZ DD 0ffffffffH
	DD	FLAT:__unwindfunclet$?New@CLightData@@SAPAV1@XZ$0
__ehfuncinfo$?New@CLightData@@SAPAV1@XZ DD 019930522H
	DD	01H
	DD	FLAT:__unwindtable$?New@CLightData@@SAPAV1@XZ
	DD	2 DUP(00H)
	DD	2 DUP(00H)
	DD	00H
	DD	01H
xdata$x	ENDS
;	COMDAT xdata$x
xdata$x	SEGMENT
__ehfuncinfo$?OnLoadScript@CLightData@@MAEHAAVCTextFileLoader@@@Z DD 019930522H
	DD	09H
	DD	FLAT:__unwindtable$?OnLoadScript@CLightData@@MAEHAAVCTextFileLoader@@@Z
	DD	2 DUP(00H)
	DD	2 DUP(00H)
	DD	00H
	DD	01H
__unwindtable$?OnLoadScript@CLightData@@MAEHAAVCTextFileLoader@@@Z DD 0ffffffffH
	DD	FLAT:__unwindfunclet$?OnLoadScript@CLightData@@MAEHAAVCTextFileLoader@@@Z$0
	DD	0ffffffffH
	DD	FLAT:__unwindfunclet$?OnLoadScript@CLightData@@MAEHAAVCTextFileLoader@@@Z$1
	DD	0ffffffffH
	DD	FLAT:__unwindfunclet$?OnLoadScript@CLightData@@MAEHAAVCTextFileLoader@@@Z$2
	DD	0ffffffffH
	DD	FLAT:__unwindfunclet$?OnLoadScript@CLightData@@MAEHAAVCTextFileLoader@@@Z$3
	DD	0ffffffffH
	DD	FLAT:__unwindfunclet$?OnLoadScript@CLightData@@MAEHAAVCTextFileLoader@@@Z$4
	DD	0ffffffffH
	DD	FLAT:__unwindfunclet$?OnLoadScript@CLightData@@MAEHAAVCTextFileLoader@@@Z$5
	DD	0ffffffffH
	DD	FLAT:__unwindfunclet$?OnLoadScript@CLightData@@MAEHAAVCTextFileLoader@@@Z$6
	DD	0ffffffffH
	DD	FLAT:__unwindfunclet$?OnLoadScript@CLightData@@MAEHAAVCTextFileLoader@@@Z$7
	DD	0ffffffffH
	DD	FLAT:__unwindfunclet$?OnLoadScript@CLightData@@MAEHAAVCTextFileLoader@@@Z$8
xdata$x	ENDS
;	COMDAT xdata$x
xdata$x	SEGMENT
__unwindtable$??0CLightData@@QAE@XZ DD 0ffffffffH
	DD	FLAT:__unwindfunclet$??0CLightData@@QAE@XZ$0
	DD	00H
	DD	FLAT:__unwindfunclet$??0CLightData@@QAE@XZ$1
__ehfuncinfo$??0CLightData@@QAE@XZ DD 019930522H
	DD	02H
	DD	FLAT:__unwindtable$??0CLightData@@QAE@XZ
	DD	2 DUP(00H)
	DD	2 DUP(00H)
	DD	00H
	DD	01H
xdata$x	ENDS
; Function compile flags: /Ogtp
; File D:\Program Files\Microsoft Visual Studio\2022\Community\VC\Tools\MSVC\14.43.34808\include\xutility
;	COMDAT ??$_Copy_memmove_tail@PAPAVCLightData@@@std@@YAPAPAVCLightData@@QBDQAPAV1@II@Z
_TEXT	SEGMENT
__First_ch$ = 8						; size = 4
__Dest$ = 12						; size = 4
__Byte_count$ = 16					; size = 4
__Object_count$ = 20					; size = 4
??$_Copy_memmove_tail@PAPAVCLightData@@@std@@YAPAPAVCLightData@@QBDQAPAV1@II@Z PROC ; std::_Copy_memmove_tail<CLightData * *>, COMDAT

; 4763 :     const char* const _First_ch, const _OutCtgIt _Dest, const size_t _Byte_count, const size_t _Object_count) {

  00000	55		 push	 ebp
  00001	8b ec		 mov	 ebp, esp
  00003	56		 push	 esi

; 4764 :     _STL_INTERNAL_CHECK(_Byte_count == _Object_count * sizeof(*_Dest));
; 4765 :     const auto _Dest_ptr = _STD _To_address(_Dest);
; 4766 :     const auto _Dest_ch  = const_cast<char*>(reinterpret_cast<const volatile char*>(_Dest_ptr));
; 4767 :     _CSTD memmove(_Dest_ch, _First_ch, _Byte_count);

  00004	8b 75 0c	 mov	 esi, DWORD PTR __Dest$[ebp]
  00007	57		 push	 edi
  00008	8b 7d 10	 mov	 edi, DWORD PTR __Byte_count$[ebp]
  0000b	57		 push	 edi
  0000c	ff 75 08	 push	 DWORD PTR __First_ch$[ebp]
  0000f	56		 push	 esi
  00010	e8 00 00 00 00	 call	 _memmove
  00015	83 c4 0c	 add	 esp, 12			; 0000000cH

; 4768 :     if constexpr (is_pointer_v<_OutCtgIt>) {
; 4769 :         (void) _Object_count;
; 4770 :         // CodeQL [SM02986] This cast is correct: we're bypassing pointer arithmetic for performance.
; 4771 :         return reinterpret_cast<_OutCtgIt>(_Dest_ch + _Byte_count);

  00018	8d 04 3e	 lea	 eax, DWORD PTR [esi+edi]
  0001b	5f		 pop	 edi
  0001c	5e		 pop	 esi

; 4772 :     } else {
; 4773 :         return _Dest + static_cast<_Iter_diff_t<_OutCtgIt>>(_Object_count);
; 4774 :     }
; 4775 : }

  0001d	5d		 pop	 ebp
  0001e	c3		 ret	 0
??$_Copy_memmove_tail@PAPAVCLightData@@@std@@YAPAPAVCLightData@@QBDQAPAV1@II@Z ENDP ; std::_Copy_memmove_tail<CLightData * *>
_TEXT	ENDS
; Function compile flags: /Ogtp
; File D:\Program Files\Microsoft Visual Studio\2022\Community\VC\Tools\MSVC\14.43.34808\include\xutility
;	COMDAT ??$_Copy_memmove@PAPAVCLightData@@PAPAV1@@std@@YAPAPAVCLightData@@PAPAV1@00@Z
_TEXT	SEGMENT
__First$ = 8						; size = 4
__Last$ = 12						; size = 4
__Dest$ = 16						; size = 4
??$_Copy_memmove@PAPAVCLightData@@PAPAV1@@std@@YAPAPAVCLightData@@PAPAV1@00@Z PROC ; std::_Copy_memmove<CLightData * *,CLightData * *>, COMDAT

; 4778 : _OutCtgIt _Copy_memmove(_CtgIt _First, _CtgIt _Last, _OutCtgIt _Dest) {

  00000	55		 push	 ebp
  00001	8b ec		 mov	 ebp, esp

; 4779 :     _STL_INTERNAL_CHECK(_First <= _Last);
; 4780 :     const auto _First_ptr    = _STD _To_address(_First);
; 4781 :     const auto _Last_ptr     = _STD _To_address(_Last);
; 4782 :     const auto _Object_count = static_cast<size_t>(_Last_ptr - _First_ptr);

  00003	8b 55 08	 mov	 edx, DWORD PTR __First$[ebp]
  00006	8b 4d 0c	 mov	 ecx, DWORD PTR __Last$[ebp]
  00009	2b ca		 sub	 ecx, edx
  0000b	8b c1		 mov	 eax, ecx
  0000d	c1 f8 02	 sar	 eax, 2

; 4783 :     const auto _First_ch     = const_cast<const char*>(reinterpret_cast<const volatile char*>(_First_ptr));
; 4784 :     const auto _Last_ch      = const_cast<const char*>(reinterpret_cast<const volatile char*>(_Last_ptr));
; 4785 :     const auto _Byte_count   = static_cast<size_t>(_Last_ch - _First_ch);
; 4786 :     return _STD _Copy_memmove_tail(_First_ch, _STD move(_Dest), _Byte_count, _Object_count);

  00010	50		 push	 eax
  00011	51		 push	 ecx
  00012	ff 75 10	 push	 DWORD PTR __Dest$[ebp]
  00015	52		 push	 edx
  00016	e8 00 00 00 00	 call	 ??$_Copy_memmove_tail@PAPAVCLightData@@@std@@YAPAPAVCLightData@@QBDQAPAV1@II@Z ; std::_Copy_memmove_tail<CLightData * *>
  0001b	83 c4 10	 add	 esp, 16			; 00000010H

; 4787 : }

  0001e	5d		 pop	 ebp
  0001f	c3		 ret	 0
??$_Copy_memmove@PAPAVCLightData@@PAPAV1@@std@@YAPAPAVCLightData@@PAPAV1@00@Z ENDP ; std::_Copy_memmove<CLightData * *,CLightData * *>
_TEXT	ENDS
; Function compile flags: /Ogtp
; File D:\Program Files\Microsoft Visual Studio\2022\Community\VC\Tools\MSVC\14.43.34808\include\vector
; File D:\Program Files\Microsoft Visual Studio\2022\Community\VC\Tools\MSVC\14.43.34808\include\xmemory
; File D:\Program Files\Microsoft Visual Studio\2022\Community\VC\Tools\MSVC\14.43.34808\include\vector
; File D:\Program Files\Microsoft Visual Studio\2022\Community\VC\Tools\MSVC\14.43.34808\include\xmemory
; File D:\Program Files\Microsoft Visual Studio\2022\Community\VC\Tools\MSVC\14.43.34808\include\vector
; File D:\Program Files\Microsoft Visual Studio\2022\Community\VC\Tools\MSVC\14.43.34808\include\xmemory
; File D:\Program Files\Microsoft Visual Studio\2022\Community\VC\Tools\MSVC\14.43.34808\include\vector
; File D:\Program Files\Microsoft Visual Studio\2022\Community\VC\Tools\MSVC\14.43.34808\include\xmemory
; File D:\Program Files\Microsoft Visual Studio\2022\Community\VC\Tools\MSVC\14.43.34808\include\vector
; File D:\Program Files\Microsoft Visual Studio\2022\Community\VC\Tools\MSVC\14.43.34808\include\xmemory
; File D:\Program Files\Microsoft Visual Studio\2022\Community\VC\Tools\MSVC\14.43.34808\include\vector
; File D:\Program Files\Microsoft Visual Studio\2022\Community\VC\Tools\MSVC\14.43.34808\include\xmemory
; File D:\Program Files\Microsoft Visual Studio\2022\Community\VC\Tools\MSVC\14.43.34808\include\vector
; File D:\Program Files\Microsoft Visual Studio\2022\Community\VC\Tools\MSVC\14.43.34808\include\xmemory
; File D:\Program Files\Microsoft Visual Studio\2022\Community\VC\Tools\MSVC\14.43.34808\include\vector
; File D:\Program Files\Microsoft Visual Studio\2022\Community\VC\Tools\MSVC\14.43.34808\include\xmemory
; File D:\Program Files\Microsoft Visual Studio\2022\Community\VC\Tools\MSVC\14.43.34808\include\vector
;	COMDAT ??$_Emplace_reallocate@ABQAVCLightData@@@?$vector@PAVCLightData@@V?$allocator@PAVCLightData@@@std@@@std@@AAEPAPAVCLightData@@QAPAV2@ABQAV2@@Z
_TEXT	SEGMENT
__Newsize$1$ = -12					; size = 4
tv652 = -8						; size = 4
tv650 = -4						; size = 4
__Whereptr$ = 8						; size = 4
_<_Val_0>$ = 12						; size = 4
??$_Emplace_reallocate@ABQAVCLightData@@@?$vector@PAVCLightData@@V?$allocator@PAVCLightData@@@std@@@std@@AAEPAPAVCLightData@@QAPAV2@ABQAV2@@Z PROC ; std::vector<CLightData *,std::allocator<CLightData *> >::_Emplace_reallocate<CLightData * const &>, COMDAT
; _this$ = ecx

; 860  :     _CONSTEXPR20 pointer _Emplace_reallocate(const pointer _Whereptr, _Valty&&... _Val) {

  00000	55		 push	 ebp
  00001	8b ec		 mov	 ebp, esp
  00003	83 ec 0c	 sub	 esp, 12			; 0000000cH
  00006	53		 push	 ebx

; 861  :         // reallocate and insert by perfectly forwarding _Val at _Whereptr
; 862  :         _Alty& _Al        = _Getal();
; 863  :         auto& _My_data    = _Mypair._Myval2;
; 864  :         pointer& _Myfirst = _My_data._Myfirst;
; 865  :         pointer& _Mylast  = _My_data._Mylast;
; 866  : 
; 867  :         _STL_INTERNAL_CHECK(_Mylast == _My_data._Myend); // check that we have no unused capacity
; 868  : 
; 869  :         const auto _Whereoff = static_cast<size_type>(_Whereptr - _Myfirst);

  00007	8b 5d 08	 mov	 ebx, DWORD PTR __Whereptr$[ebp]
  0000a	56		 push	 esi
  0000b	8b f1		 mov	 esi, ecx
  0000d	57		 push	 edi
  0000e	8b 0e		 mov	 ecx, DWORD PTR [esi]
  00010	2b d9		 sub	 ebx, ecx

; 870  :         const auto _Oldsize  = static_cast<size_type>(_Mylast - _Myfirst);

  00012	8b 46 04	 mov	 eax, DWORD PTR [esi+4]
  00015	2b c1		 sub	 eax, ecx
  00017	c1 fb 02	 sar	 ebx, 2
  0001a	c1 f8 02	 sar	 eax, 2

; 871  : 
; 872  :         if (_Oldsize == max_size()) {

  0001d	3d ff ff ff 3f	 cmp	 eax, 1073741823		; 3fffffffH
  00022	0f 84 09 01 00
	00		 je	 $LN123@Emplace_re

; 1909 :         return static_cast<size_type>(_My_data._Myend - _My_data._Myfirst);

  00028	8b 56 08	 mov	 edx, DWORD PTR [esi+8]

; 874  :         }
; 875  : 
; 876  :         const size_type _Newsize = _Oldsize + 1;

  0002b	8d 78 01	 lea	 edi, DWORD PTR [eax+1]

; 1909 :         return static_cast<size_type>(_My_data._Myend - _My_data._Myfirst);

  0002e	2b d1		 sub	 edx, ecx

; 874  :         }
; 875  : 
; 876  :         const size_type _Newsize = _Oldsize + 1;

  00030	89 7d f4	 mov	 DWORD PTR __Newsize$1$[ebp], edi

; 1909 :         return static_cast<size_type>(_My_data._Myend - _My_data._Myfirst);

  00033	c1 fa 02	 sar	 edx, 2

; 1996 :         if (_Oldcapacity > _Max - _Oldcapacity / 2) {

  00036	b8 ff ff ff 3f	 mov	 eax, 1073741823		; 3fffffffH
  0003b	8b ca		 mov	 ecx, edx
  0003d	d1 e9		 shr	 ecx, 1
  0003f	2b c1		 sub	 eax, ecx
  00041	3b d0		 cmp	 edx, eax
  00043	76 14		 jbe	 SHORT $LN8@Emplace_re

; 1997 :             return _Max; // geometric growth would overflow

  00045	b8 fc ff ff ff	 mov	 eax, -4			; fffffffcH
  0004a	c7 45 f8 fc ff
	ff ff		 mov	 DWORD PTR tv652[ebp], -4 ; fffffffcH
; File D:\Program Files\Microsoft Visual Studio\2022\Community\VC\Tools\MSVC\14.43.34808\include\xmemory

; 253  :             return _Allocate_manually_vector_aligned<_Traits>(_Bytes);

  00051	50		 push	 eax
  00052	e8 00 00 00 00	 call	 ??$_Allocate_manually_vector_aligned@U_Default_allocate_traits@std@@@std@@YAPAXI@Z ; std::_Allocate_manually_vector_aligned<std::_Default_allocate_traits>
  00057	eb 3d		 jmp	 SHORT $LN121@Emplace_re
$LN8@Emplace_re:
; File D:\Program Files\Microsoft Visual Studio\2022\Community\VC\Tools\MSVC\14.43.34808\include\vector

; 2000 :         const size_type _Geometric = _Oldcapacity + _Oldcapacity / 2;

  00059	8d 04 11	 lea	 eax, DWORD PTR [ecx+edx]
; File D:\Program Files\Microsoft Visual Studio\2022\Community\VC\Tools\MSVC\14.43.34808\include\xmemory

; 117  :         if (_Count > _Max_possible) {

  0005c	8b cf		 mov	 ecx, edi
  0005e	3b c7		 cmp	 eax, edi
  00060	0f 43 c8	 cmovae	 ecx, eax
  00063	81 f9 ff ff ff
	3f		 cmp	 ecx, 1073741823		; 3fffffffH
  00069	0f 87 c7 00 00
	00		 ja	 $LN124@Emplace_re

; 119  :         }
; 120  :     }
; 121  : 
; 122  :     return _Count * _Ty_size;

  0006f	8d 04 8d 00 00
	00 00		 lea	 eax, DWORD PTR [ecx*4]
  00076	89 45 f8	 mov	 DWORD PTR tv652[ebp], eax

; 227  :     if (_Bytes == 0) {

  00079	85 c0		 test	 eax, eax
  0007b	75 04		 jne	 SHORT $LN23@Emplace_re

; 228  :         return nullptr;

  0007d	33 ff		 xor	 edi, edi
  0007f	eb 1a		 jmp	 SHORT $LN22@Emplace_re
$LN23@Emplace_re:

; 229  :     }
; 230  : 
; 231  : #if _HAS_CXX20 // TRANSITION, GH-1532
; 232  :     if (_STD is_constant_evaluated()) {
; 233  :         return _Traits::_Allocate(_Bytes);
; 234  :     }
; 235  : #endif // _HAS_CXX20
; 236  : 
; 237  : #ifdef __cpp_aligned_new
; 238  :     if constexpr (_Align > __STDCPP_DEFAULT_NEW_ALIGNMENT__) {
; 239  :         size_t _Passed_align = _Align;
; 240  : #if defined(_M_IX86) || defined(_M_X64)
; 241  :         if (_Bytes >= _Big_allocation_threshold) {
; 242  :             // boost the alignment of big allocations to help autovectorization
; 243  :             _Passed_align = (_STD max)(_Align, _Big_allocation_alignment);
; 244  :         }
; 245  : #endif // defined(_M_IX86) || defined(_M_X64)
; 246  :         return _Traits::_Allocate_aligned(_Bytes, _Passed_align);
; 247  :     } else
; 248  : #endif // defined(__cpp_aligned_new)
; 249  :     {
; 250  : #if defined(_M_IX86) || defined(_M_X64)
; 251  :         if (_Bytes >= _Big_allocation_threshold) {

  00081	3d 00 10 00 00	 cmp	 eax, 4096		; 00001000H
  00086	72 08		 jb	 SHORT $LN24@Emplace_re

; 253  :             return _Allocate_manually_vector_aligned<_Traits>(_Bytes);

  00088	50		 push	 eax
  00089	e8 00 00 00 00	 call	 ??$_Allocate_manually_vector_aligned@U_Default_allocate_traits@std@@@std@@YAPAXI@Z ; std::_Allocate_manually_vector_aligned<std::_Default_allocate_traits>
  0008e	eb 06		 jmp	 SHORT $LN121@Emplace_re
$LN24@Emplace_re:

; 136  :         return ::operator new(_Bytes);

  00090	50		 push	 eax
  00091	e8 00 00 00 00	 call	 ??2@YAPAXI@Z		; operator new
$LN121@Emplace_re:
; File D:\Program Files\Microsoft Visual Studio\2022\Community\VC\Tools\MSVC\14.43.34808\include\vector

; 885  :         _Alty_traits::construct(_Al, _STD _Unfancy(_Newvec + _Whereoff), _STD forward<_Valty>(_Val)...);

  00096	8b f8		 mov	 edi, eax
  00098	83 c4 04	 add	 esp, 4
$LN22@Emplace_re:
  0009b	8b 45 0c	 mov	 eax, DWORD PTR _<_Val_0>$[ebp]
  0009e	8d 0c 9f	 lea	 ecx, DWORD PTR [edi+ebx*4]

; 886  :         _Constructed_first = _Newvec + _Whereoff;
; 887  : 
; 888  :         if (_Whereptr == _Mylast) { // at back, provide strong guarantee

  000a1	8b 5d 08	 mov	 ebx, DWORD PTR __Whereptr$[ebp]
  000a4	89 4d fc	 mov	 DWORD PTR tv650[ebp], ecx
  000a7	8b 00		 mov	 eax, DWORD PTR [eax]
  000a9	89 01		 mov	 DWORD PTR [ecx], eax
  000ab	8b 46 04	 mov	 eax, DWORD PTR [esi+4]
  000ae	8b 0e		 mov	 ecx, DWORD PTR [esi]
  000b0	3b d8		 cmp	 ebx, eax
  000b2	75 07		 jne	 SHORT $LN3@Emplace_re

; 894  :         } else { // provide basic guarantee

  000b4	8b 5d fc	 mov	 ebx, DWORD PTR tv650[ebp]
; File D:\Program Files\Microsoft Visual Studio\2022\Community\VC\Tools\MSVC\14.43.34808\include\xmemory

; 1955 :             _STD _Copy_memmove(_UFirst, _ULast, _STD _Unfancy(_Dest));

  000b7	8b d7		 mov	 edx, edi
; File D:\Program Files\Microsoft Visual Studio\2022\Community\VC\Tools\MSVC\14.43.34808\include\vector

; 894  :         } else { // provide basic guarantee

  000b9	eb 16		 jmp	 SHORT $LN52@Emplace_re
$LN3@Emplace_re:
; File D:\Program Files\Microsoft Visual Studio\2022\Community\VC\Tools\MSVC\14.43.34808\include\xmemory

; 1955 :             _STD _Copy_memmove(_UFirst, _ULast, _STD _Unfancy(_Dest));

  000bb	57		 push	 edi
  000bc	53		 push	 ebx
  000bd	51		 push	 ecx
  000be	e8 00 00 00 00	 call	 ??$_Copy_memmove@PAPAVCLightData@@PAPAV1@@std@@YAPAPAVCLightData@@PAPAV1@00@Z ; std::_Copy_memmove<CLightData * *,CLightData * *>
  000c3	8b 46 04	 mov	 eax, DWORD PTR [esi+4]
  000c6	8b cb		 mov	 ecx, ebx
; File D:\Program Files\Microsoft Visual Studio\2022\Community\VC\Tools\MSVC\14.43.34808\include\vector

; 897  :             _STD _Uninitialized_move(_Whereptr, _Mylast, _Newvec + _Whereoff + 1, _Al);

  000c8	8b 5d fc	 mov	 ebx, DWORD PTR tv650[ebp]
; File D:\Program Files\Microsoft Visual Studio\2022\Community\VC\Tools\MSVC\14.43.34808\include\xmemory

; 1955 :             _STD _Copy_memmove(_UFirst, _ULast, _STD _Unfancy(_Dest));

  000cb	83 c4 0c	 add	 esp, 12			; 0000000cH
; File D:\Program Files\Microsoft Visual Studio\2022\Community\VC\Tools\MSVC\14.43.34808\include\vector

; 897  :             _STD _Uninitialized_move(_Whereptr, _Mylast, _Newvec + _Whereoff + 1, _Al);

  000ce	8d 53 04	 lea	 edx, DWORD PTR [ebx+4]
$LN52@Emplace_re:

; 898  :         }
; 899  : 
; 900  :         _Guard._New_begin = nullptr;

  000d1	52		 push	 edx
  000d2	50		 push	 eax
  000d3	51		 push	 ecx
  000d4	e8 00 00 00 00	 call	 ??$_Copy_memmove@PAPAVCLightData@@PAPAV1@@std@@YAPAPAVCLightData@@PAPAV1@00@Z ; std::_Copy_memmove<CLightData * *,CLightData * *>

; 2054 :         if (_Myfirst) { // destroy and deallocate old array

  000d9	8b 06		 mov	 eax, DWORD PTR [esi]

; 898  :         }
; 899  : 
; 900  :         _Guard._New_begin = nullptr;

  000db	83 c4 0c	 add	 esp, 12			; 0000000cH

; 2054 :         if (_Myfirst) { // destroy and deallocate old array

  000de	85 c0		 test	 eax, eax
  000e0	74 2c		 je	 SHORT $LN72@Emplace_re

; 2055 :             _STD _Destroy_range(_Myfirst, _Mylast, _Al);
; 2056 :             _ASAN_VECTOR_REMOVE;
; 2057 :             _Al.deallocate(_Myfirst, static_cast<size_type>(_Myend - _Myfirst));

  000e2	8b 4e 08	 mov	 ecx, DWORD PTR [esi+8]
  000e5	2b c8		 sub	 ecx, eax
; File D:\Program Files\Microsoft Visual Studio\2022\Community\VC\Tools\MSVC\14.43.34808\include\xmemory

; 981  :         _STD _Deallocate<_New_alignof<_Ty>>(_Ptr, sizeof(_Ty) * _Count);

  000e7	83 e1 fc	 and	 ecx, -4			; fffffffcH

; 284  :         if (_Bytes >= _Big_allocation_threshold) {

  000ea	81 f9 00 10 00
	00		 cmp	 ecx, 4096		; 00001000H
  000f0	72 12		 jb	 SHORT $LN83@Emplace_re

; 205  :     const uintptr_t _Ptr_container   = _Ptr_user[-1];

  000f2	8b 50 fc	 mov	 edx, DWORD PTR [eax-4]
  000f5	83 c1 23	 add	 ecx, 35			; 00000023H

; 206  : 
; 207  :     // If the following asserts, it likely means that we are performing
; 208  :     // an aligned delete on memory coming from an unaligned allocation.
; 209  :     _STL_ASSERT(_Ptr_user[-2] == _Big_allocation_sentinel, "invalid argument");
; 210  : 
; 211  :     // Extra paranoia on aligned allocation/deallocation; ensure _Ptr_container is
; 212  :     // in range [_Min_back_shift, _Non_user_size]
; 213  : #ifdef _DEBUG
; 214  :     constexpr uintptr_t _Min_back_shift = 2 * sizeof(void*);
; 215  : #else // ^^^ defined(_DEBUG) / !defined(_DEBUG) vvv
; 216  :     constexpr uintptr_t _Min_back_shift = sizeof(void*);
; 217  : #endif // ^^^ !defined(_DEBUG) ^^^
; 218  :     const uintptr_t _Back_shift = reinterpret_cast<uintptr_t>(_Ptr) - _Ptr_container;

  000f8	2b c2		 sub	 eax, edx

; 219  :     _STL_VERIFY(_Back_shift >= _Min_back_shift && _Back_shift <= _Non_user_size, "invalid argument");

  000fa	83 c0 fc	 add	 eax, -4			; fffffffcH
  000fd	83 f8 1f	 cmp	 eax, 31			; 0000001fH
  00100	77 2a		 ja	 SHORT $LN80@Emplace_re

; 220  :     _Ptr = reinterpret_cast<void*>(_Ptr_container);

  00102	8b c2		 mov	 eax, edx
$LN83@Emplace_re:

; 289  :         ::operator delete(_Ptr, _Bytes);

  00104	51		 push	 ecx
  00105	50		 push	 eax
  00106	e8 00 00 00 00	 call	 ??3@YAXPAXI@Z		; operator delete
  0010b	83 c4 08	 add	 esp, 8
$LN72@Emplace_re:
; File D:\Program Files\Microsoft Visual Studio\2022\Community\VC\Tools\MSVC\14.43.34808\include\vector

; 2061 :         _Mylast  = _Newvec + _Newsize;

  0010e	8b 45 f4	 mov	 eax, DWORD PTR __Newsize$1$[ebp]
  00111	89 3e		 mov	 DWORD PTR [esi], edi
  00113	8d 0c 87	 lea	 ecx, DWORD PTR [edi+eax*4]

; 901  :         _Change_array(_Newvec, _Newsize, _Newcapacity);
; 902  :         return _Newvec + _Whereoff;

  00116	8b c3		 mov	 eax, ebx

; 2061 :         _Mylast  = _Newvec + _Newsize;

  00118	89 4e 04	 mov	 DWORD PTR [esi+4], ecx

; 2062 :         _Myend   = _Newvec + _Newcapacity;

  0011b	8b 4d f8	 mov	 ecx, DWORD PTR tv652[ebp]
  0011e	03 cf		 add	 ecx, edi

; 903  :     }

  00120	5f		 pop	 edi

; 2062 :         _Myend   = _Newvec + _Newcapacity;

  00121	89 4e 08	 mov	 DWORD PTR [esi+8], ecx

; 903  :     }

  00124	5e		 pop	 esi
  00125	5b		 pop	 ebx
  00126	8b e5		 mov	 esp, ebp
  00128	5d		 pop	 ebp
  00129	c2 08 00	 ret	 8
$LN80@Emplace_re:
; File D:\Program Files\Microsoft Visual Studio\2022\Community\VC\Tools\MSVC\14.43.34808\include\xmemory

; 219  :     _STL_VERIFY(_Back_shift >= _Min_back_shift && _Back_shift <= _Non_user_size, "invalid argument");

  0012c	e8 00 00 00 00	 call	 __invalid_parameter_noinfo_noreturn
$LN123@Emplace_re:
; File D:\Program Files\Microsoft Visual Studio\2022\Community\VC\Tools\MSVC\14.43.34808\include\vector

; 873  :             _Xlength();

  00131	e8 00 00 00 00	 call	 ?_Xlength@?$vector@PAVCLightData@@V?$allocator@PAVCLightData@@@std@@@std@@CAXXZ ; std::vector<CLightData *,std::allocator<CLightData *> >::_Xlength
$LN124@Emplace_re:
; File D:\Program Files\Microsoft Visual Studio\2022\Community\VC\Tools\MSVC\14.43.34808\include\xmemory

; 118  :             _Throw_bad_array_new_length(); // multiply overflow

  00136	e8 00 00 00 00	 call	 ?_Throw_bad_array_new_length@std@@YAXXZ ; std::_Throw_bad_array_new_length
$LN120@Emplace_re:
  0013b	cc		 int	 3
??$_Emplace_reallocate@ABQAVCLightData@@@?$vector@PAVCLightData@@V?$allocator@PAVCLightData@@@std@@@std@@AAEPAPAVCLightData@@QAPAV2@ABQAV2@@Z ENDP ; std::vector<CLightData *,std::allocator<CLightData *> >::_Emplace_reallocate<CLightData * const &>
_TEXT	ENDS
; Function compile flags: /Ogtp
; File D:\Program Files\Microsoft Visual Studio\2022\Community\VC\Tools\MSVC\14.43.34808\include\algorithm
; File D:\Program Files\Microsoft Visual Studio\2022\Community\VC\Tools\MSVC\14.43.34808\include\xutility
; File D:\Program Files\Microsoft Visual Studio\2022\Community\VC\Tools\MSVC\14.43.34808\include\algorithm
; File C:\Marty 5.5\Src-Client\Client\EffectLib\Type.h
; File D:\Program Files\Microsoft Visual Studio\2022\Community\VC\Tools\MSVC\14.43.34808\include\algorithm
; File D:\Program Files\Microsoft Visual Studio\2022\Community\VC\Tools\MSVC\14.43.34808\include\xutility
; File C:\Marty 5.5\Src-Client\Client\EffectLib\Type.h
; File D:\Program Files\Microsoft Visual Studio\2022\Community\VC\Tools\MSVC\14.43.34808\include\xutility
; File C:\Marty 5.5\Src-Client\Client\EffectLib\Type.h
; File D:\Program Files\Microsoft Visual Studio\2022\Community\VC\Tools\MSVC\14.43.34808\include\xutility
; File D:\Program Files\Microsoft Visual Studio\2022\Community\VC\Tools\MSVC\14.43.34808\include\algorithm
; File C:\Marty 5.5\Src-Client\Client\EffectLib\Type.h
; File D:\Program Files\Microsoft Visual Studio\2022\Community\VC\Tools\MSVC\14.43.34808\include\algorithm
; File D:\Program Files\Microsoft Visual Studio\2022\Community\VC\Tools\MSVC\14.43.34808\include\utility
; File D:\Program Files\Microsoft Visual Studio\2022\Community\VC\Tools\MSVC\14.43.34808\include\algorithm
; File D:\Program Files\Microsoft Visual Studio\2022\Community\VC\Tools\MSVC\14.43.34808\include\utility
; File D:\Program Files\Microsoft Visual Studio\2022\Community\VC\Tools\MSVC\14.43.34808\include\algorithm
; File D:\Program Files\Microsoft Visual Studio\2022\Community\VC\Tools\MSVC\14.43.34808\include\utility
; File D:\Program Files\Microsoft Visual Studio\2022\Community\VC\Tools\MSVC\14.43.34808\include\algorithm
; File D:\Program Files\Microsoft Visual Studio\2022\Community\VC\Tools\MSVC\14.43.34808\include\xutility
; File C:\Marty 5.5\Src-Client\Client\EffectLib\Type.h
; File D:\Program Files\Microsoft Visual Studio\2022\Community\VC\Tools\MSVC\14.43.34808\include\xutility
; File D:\Program Files\Microsoft Visual Studio\2022\Community\VC\Tools\MSVC\14.43.34808\include\algorithm
; File D:\Program Files\Microsoft Visual Studio\2022\Community\VC\Tools\MSVC\14.43.34808\include\xutility
; File C:\Marty 5.5\Src-Client\Client\EffectLib\Type.h
; File D:\Program Files\Microsoft Visual Studio\2022\Community\VC\Tools\MSVC\14.43.34808\include\xutility
; File C:\Marty 5.5\Src-Client\Client\EffectLib\Type.h
; File D:\Program Files\Microsoft Visual Studio\2022\Community\VC\Tools\MSVC\14.43.34808\include\xutility
; File D:\Program Files\Microsoft Visual Studio\2022\Community\VC\Tools\MSVC\14.43.34808\include\utility
; File D:\Program Files\Microsoft Visual Studio\2022\Community\VC\Tools\MSVC\14.43.34808\include\algorithm
; File D:\Program Files\Microsoft Visual Studio\2022\Community\VC\Tools\MSVC\14.43.34808\include\utility
; File D:\Program Files\Microsoft Visual Studio\2022\Community\VC\Tools\MSVC\14.43.34808\include\algorithm
; File D:\Program Files\Microsoft Visual Studio\2022\Community\VC\Tools\MSVC\14.43.34808\include\utility
; File D:\Program Files\Microsoft Visual Studio\2022\Community\VC\Tools\MSVC\14.43.34808\include\algorithm
;	COMDAT ??$equal_range@V?$_Vector_iterator@V?$_Vector_val@U?$_Simple_types@V?$CTimeEvent@M@@@std@@@std@@@std@@M@std@@YA?AU?$pair@V?$_Vector_iterator@V?$_Vector_val@U?$_Simple_types@V?$CTimeEvent@M@@@std@@@std@@@std@@V12@@0@V?$_Vector_iterator@V?$_Vector_val@U?$_Simple_types@V?$CTimeEvent@M@@@std@@@std@@@0@0ABM@Z
_TEXT	SEGMENT
__UMid$1$ = -4						; size = 4
___$ReturnUdt$ = 8					; size = 4
__First$ = 12						; size = 4
__Last$ = 16						; size = 4
__Val$ = 20						; size = 4
??$equal_range@V?$_Vector_iterator@V?$_Vector_val@U?$_Simple_types@V?$CTimeEvent@M@@@std@@@std@@@std@@M@std@@YA?AU?$pair@V?$_Vector_iterator@V?$_Vector_val@U?$_Simple_types@V?$CTimeEvent@M@@@std@@@std@@@std@@V12@@0@V?$_Vector_iterator@V?$_Vector_val@U?$_Simple_types@V?$CTimeEvent@M@@@std@@@std@@@0@0ABM@Z PROC ; std::equal_range<std::_Vector_iterator<std::_Vector_val<std::_Simple_types<CTimeEvent<float> > > >,float>, COMDAT

; 7327 : _NODISCARD _CONSTEXPR20 pair<_FwdIt, _FwdIt> equal_range(_FwdIt _First, _FwdIt _Last, const _Ty& _Val) {

  00000	55		 push	 ebp
  00001	8b ec		 mov	 ebp, esp
  00003	51		 push	 ecx
  00004	53		 push	 ebx

; 7293 :     auto _UFirst      = _STD _Get_unwrapped(_First);

  00005	8b 5d 0c	 mov	 ebx, DWORD PTR __First$[ebp]

; 7327 : _NODISCARD _CONSTEXPR20 pair<_FwdIt, _FwdIt> equal_range(_FwdIt _First, _FwdIt _Last, const _Ty& _Val) {

  00008	56		 push	 esi
; File D:\Program Files\Microsoft Visual Studio\2022\Community\VC\Tools\MSVC\14.43.34808\include\xutility

; 1692 :         return _Last - _First; // assume the iterator will do debug checking

  00009	8b 75 10	 mov	 esi, DWORD PTR __Last$[ebp]
  0000c	2b f3		 sub	 esi, ebx
  0000e	c1 fe 03	 sar	 esi, 3
; File D:\Program Files\Microsoft Visual Studio\2022\Community\VC\Tools\MSVC\14.43.34808\include\algorithm

; 7300 :         if (_Count <= 0) {

  00011	85 f6		 test	 esi, esi
  00013	7e 3d		 jle	 SHORT $LN67@equal_rang
; File C:\Marty 5.5\Src-Client\Client\EffectLib\Type.h

; 192  : 	return lhs.m_fTime < rhs;

  00015	8b 45 14	 mov	 eax, DWORD PTR __Val$[ebp]
  00018	f3 0f 10 08	 movss	 xmm1, DWORD PTR [eax]
  0001c	0f 1f 40 00	 npad	 4
$LL6@equal_rang:
; File D:\Program Files\Microsoft Visual Studio\2022\Community\VC\Tools\MSVC\14.43.34808\include\algorithm

; 7306 :         _Diff _Count2    = _Count / 2;

  00020	8b ce		 mov	 ecx, esi
  00022	d1 e9		 shr	 ecx, 1
; File D:\Program Files\Microsoft Visual Studio\2022\Community\VC\Tools\MSVC\14.43.34808\include\xutility

; 1664 :         _Where += _Off;

  00024	8d 14 cd 00 00
	00 00		 lea	 edx, DWORD PTR [ecx*8]
; File C:\Marty 5.5\Src-Client\Client\EffectLib\Type.h

; 192  : 	return lhs.m_fTime < rhs;

  0002b	f3 0f 10 04 1a	 movss	 xmm0, DWORD PTR [edx+ebx]
; File D:\Program Files\Microsoft Visual Studio\2022\Community\VC\Tools\MSVC\14.43.34808\include\xutility

; 1664 :         _Where += _Off;

  00030	8d 04 1a	 lea	 eax, DWORD PTR [edx+ebx]
; File C:\Marty 5.5\Src-Client\Client\EffectLib\Type.h

; 192  : 	return lhs.m_fTime < rhs;

  00033	0f 2f c8	 comiss	 xmm1, xmm0
; File D:\Program Files\Microsoft Visual Studio\2022\Community\VC\Tools\MSVC\14.43.34808\include\xutility

; 1664 :         _Where += _Off;

  00036	89 45 fc	 mov	 DWORD PTR __UMid$1$[ebp], eax
; File D:\Program Files\Microsoft Visual Studio\2022\Community\VC\Tools\MSVC\14.43.34808\include\algorithm

; 7308 :         if (_DEBUG_LT_PRED(_Pred, *_UMid, _Val)) { // range begins above _UMid, loop

  00039	76 0c		 jbe	 SHORT $LN8@equal_rang

; 7309 :             _UFirst = _STD _Next_iter(_UMid);

  0003b	8d 58 08	 lea	 ebx, DWORD PTR [eax+8]

; 7310 :             _Count -= _Count2 + 1;

  0003e	83 c8 ff	 or	 eax, -1
  00041	2b c1		 sub	 eax, ecx
  00043	03 f0		 add	 esi, eax

; 7311 :         } else if (_Pred(_Val, *_UMid)) {

  00045	eb 07		 jmp	 SHORT $LN4@equal_rang
$LN8@equal_rang:
; File C:\Marty 5.5\Src-Client\Client\EffectLib\Type.h

; 198  : 	return lhs < rhs.m_fTime;

  00047	0f 2f c1	 comiss	 xmm0, xmm1
; File D:\Program Files\Microsoft Visual Studio\2022\Community\VC\Tools\MSVC\14.43.34808\include\algorithm

; 7311 :         } else if (_Pred(_Val, *_UMid)) {

  0004a	76 1a		 jbe	 SHORT $LN10@equal_rang

; 7312 :             _Count = _Count2; // range in first half, loop

  0004c	8b f1		 mov	 esi, ecx
$LN4@equal_rang:

; 7300 :         if (_Count <= 0) {

  0004e	85 f6		 test	 esi, esi
  00050	7f ce		 jg	 SHORT $LL6@equal_rang
$LN67@equal_rang:
; File D:\Program Files\Microsoft Visual Studio\2022\Community\VC\Tools\MSVC\14.43.34808\include\utility

; 274  :         : first(_STD forward<_Other1>(_Val1)), second(_STD forward<_Other2>(_Val2)) {

  00052	8b 55 08	 mov	 edx, DWORD PTR ___$ReturnUdt$[ebp]
; File D:\Program Files\Microsoft Visual Studio\2022\Community\VC\Tools\MSVC\14.43.34808\include\algorithm

; 7301 :             _STD _Seek_wrapped(_Last, _UFirst); // empty range

  00055	8b c3		 mov	 eax, ebx

; 7302 :             _STD _Seek_wrapped(_First, _UFirst);

  00057	8b cb		 mov	 ecx, ebx

; 7329 :     return _STD equal_range(_First, _Last, _Val, less<>{});

  00059	5e		 pop	 esi
  0005a	5b		 pop	 ebx
; File D:\Program Files\Microsoft Visual Studio\2022\Community\VC\Tools\MSVC\14.43.34808\include\utility

; 274  :         : first(_STD forward<_Other1>(_Val1)), second(_STD forward<_Other2>(_Val2)) {

  0005b	89 42 04	 mov	 DWORD PTR [edx+4], eax
; File D:\Program Files\Microsoft Visual Studio\2022\Community\VC\Tools\MSVC\14.43.34808\include\algorithm

; 7329 :     return _STD equal_range(_First, _Last, _Val, less<>{});

  0005e	8b c2		 mov	 eax, edx
; File D:\Program Files\Microsoft Visual Studio\2022\Community\VC\Tools\MSVC\14.43.34808\include\utility

; 274  :         : first(_STD forward<_Other1>(_Val1)), second(_STD forward<_Other2>(_Val2)) {

  00060	89 0a		 mov	 DWORD PTR [edx], ecx
; File D:\Program Files\Microsoft Visual Studio\2022\Community\VC\Tools\MSVC\14.43.34808\include\algorithm

; 7330 : }

  00062	8b e5		 mov	 esp, ebp
  00064	5d		 pop	 ebp
  00065	c3		 ret	 0
$LN10@equal_rang:
; File D:\Program Files\Microsoft Visual Studio\2022\Community\VC\Tools\MSVC\14.43.34808\include\xutility

; 1692 :         return _Last - _First; // assume the iterator will do debug checking

  00066	c1 fa 03	 sar	 edx, 3

; 7456 :     auto _UFirst                = _STD _Get_unwrapped(_First);

  00069	8b cb		 mov	 ecx, ebx
  0006b	57		 push	 edi

; 7457 :     _Iter_diff_t<_FwdIt> _Count = _STD distance(_UFirst, _STD _Get_unwrapped(_Last));
; 7458 : 
; 7459 :     while (0 < _Count) { // divide and conquer, find half that contains answer

  0006c	85 d2		 test	 edx, edx
  0006e	7e 22		 jle	 SHORT $LN30@equal_rang
$LL29@equal_rang:

; 7460 :         const _Iter_diff_t<_FwdIt> _Count2 = _Count / 2;

  00070	8b fa		 mov	 edi, edx
  00072	d1 ef		 shr	 edi, 1
; File C:\Marty 5.5\Src-Client\Client\EffectLib\Type.h

; 192  : 	return lhs.m_fTime < rhs;

  00074	0f 2f 0c f9	 comiss	 xmm1, DWORD PTR [ecx+edi*8]
; File D:\Program Files\Microsoft Visual Studio\2022\Community\VC\Tools\MSVC\14.43.34808\include\xutility

; 1664 :         _Where += _Off;

  00078	8d 04 f9	 lea	 eax, DWORD PTR [ecx+edi*8]

; 7462 :         if (_Pred(*_UMid, _Val)) { // try top half

  0007b	76 0c		 jbe	 SHORT $LN31@equal_rang

; 7463 :             _UFirst = _STD _Next_iter(_UMid);

  0007d	8d 48 08	 lea	 ecx, DWORD PTR [eax+8]

; 7464 :             _Count -= _Count2 + 1;

  00080	83 c8 ff	 or	 eax, -1
  00083	2b c7		 sub	 eax, edi
  00085	03 d0		 add	 edx, eax

; 7465 :         } else {

  00087	eb 02		 jmp	 SHORT $LN32@equal_rang
$LN31@equal_rang:

; 7466 :             _Count = _Count2;

  00089	8b d7		 mov	 edx, edi
$LN32@equal_rang:

; 7457 :     _Iter_diff_t<_FwdIt> _Count = _STD distance(_UFirst, _STD _Get_unwrapped(_Last));
; 7458 : 
; 7459 :     while (0 < _Count) { // divide and conquer, find half that contains answer

  0008b	85 d2		 test	 edx, edx
  0008d	7f e1		 jg	 SHORT $LL29@equal_rang
  0008f	8b 45 fc	 mov	 eax, DWORD PTR __UMid$1$[ebp]
$LN30@equal_rang:

; 1664 :         _Where += _Off;

  00092	c1 e6 03	 shl	 esi, 3
; File D:\Program Files\Microsoft Visual Studio\2022\Community\VC\Tools\MSVC\14.43.34808\include\algorithm

; 7316 :             auto _ULast2 = _STD upper_bound(_STD _Next_iter(_UMid), _UFirst, _Val, _STD _Pass_fn(_Pred));

  00095	83 c0 08	 add	 eax, 8
; File D:\Program Files\Microsoft Visual Studio\2022\Community\VC\Tools\MSVC\14.43.34808\include\xutility

; 7485 :     _Iter_diff_t<_FwdIt> _Count = _STD distance(_UFirst, _STD _Get_unwrapped(_Last));

  00098	2b f0		 sub	 esi, eax

; 1692 :         return _Last - _First; // assume the iterator will do debug checking

  0009a	03 f3		 add	 esi, ebx
  0009c	c1 fe 03	 sar	 esi, 3

; 7487 :     while (0 < _Count) { // divide and conquer, find half that contains answer

  0009f	85 f6		 test	 esi, esi
  000a1	7e 23		 jle	 SHORT $LN48@equal_rang
$LL47@equal_rang:

; 7488 :         _Iter_diff_t<_FwdIt> _Count2 = _Count / 2;

  000a3	8b fe		 mov	 edi, esi
  000a5	d1 ef		 shr	 edi, 1
; File C:\Marty 5.5\Src-Client\Client\EffectLib\Type.h

; 198  : 	return lhs < rhs.m_fTime;

  000a7	f3 0f 10 04 f8	 movss	 xmm0, DWORD PTR [eax+edi*8]
; File D:\Program Files\Microsoft Visual Studio\2022\Community\VC\Tools\MSVC\14.43.34808\include\xutility

; 1664 :         _Where += _Off;

  000ac	8d 14 f8	 lea	 edx, DWORD PTR [eax+edi*8]
; File C:\Marty 5.5\Src-Client\Client\EffectLib\Type.h

; 198  : 	return lhs < rhs.m_fTime;

  000af	0f 2f c1	 comiss	 xmm0, xmm1
; File D:\Program Files\Microsoft Visual Studio\2022\Community\VC\Tools\MSVC\14.43.34808\include\xutility

; 7490 :         if (_Pred(_Val, *_UMid)) {

  000b2	76 04		 jbe	 SHORT $LN49@equal_rang

; 7491 :             _Count = _Count2;

  000b4	8b f7		 mov	 esi, edi

; 7492 :         } else { // try top half

  000b6	eb 0a		 jmp	 SHORT $LN50@equal_rang
$LN49@equal_rang:

; 7493 :             _UFirst = _STD _Next_iter(_UMid);

  000b8	8d 42 08	 lea	 eax, DWORD PTR [edx+8]

; 7494 :             _Count -= _Count2 + 1;

  000bb	83 ca ff	 or	 edx, -1
  000be	2b d7		 sub	 edx, edi
  000c0	03 f2		 add	 esi, edx
$LN50@equal_rang:

; 7486 : 
; 7487 :     while (0 < _Count) { // divide and conquer, find half that contains answer

  000c2	85 f6		 test	 esi, esi
  000c4	7f dd		 jg	 SHORT $LL47@equal_rang
$LN48@equal_rang:
; File D:\Program Files\Microsoft Visual Studio\2022\Community\VC\Tools\MSVC\14.43.34808\include\utility

; 274  :         : first(_STD forward<_Other1>(_Val1)), second(_STD forward<_Other2>(_Val2)) {

  000c6	8b 55 08	 mov	 edx, DWORD PTR ___$ReturnUdt$[ebp]
  000c9	5f		 pop	 edi
; File D:\Program Files\Microsoft Visual Studio\2022\Community\VC\Tools\MSVC\14.43.34808\include\algorithm

; 7329 :     return _STD equal_range(_First, _Last, _Val, less<>{});

  000ca	5e		 pop	 esi
  000cb	5b		 pop	 ebx
; File D:\Program Files\Microsoft Visual Studio\2022\Community\VC\Tools\MSVC\14.43.34808\include\utility

; 274  :         : first(_STD forward<_Other1>(_Val1)), second(_STD forward<_Other2>(_Val2)) {

  000cc	89 42 04	 mov	 DWORD PTR [edx+4], eax
; File D:\Program Files\Microsoft Visual Studio\2022\Community\VC\Tools\MSVC\14.43.34808\include\algorithm

; 7329 :     return _STD equal_range(_First, _Last, _Val, less<>{});

  000cf	8b c2		 mov	 eax, edx
; File D:\Program Files\Microsoft Visual Studio\2022\Community\VC\Tools\MSVC\14.43.34808\include\utility

; 274  :         : first(_STD forward<_Other1>(_Val1)), second(_STD forward<_Other2>(_Val2)) {

  000d1	89 0a		 mov	 DWORD PTR [edx], ecx
; File D:\Program Files\Microsoft Visual Studio\2022\Community\VC\Tools\MSVC\14.43.34808\include\algorithm

; 7330 : }

  000d3	8b e5		 mov	 esp, ebp
  000d5	5d		 pop	 ebp
  000d6	c3		 ret	 0
??$equal_range@V?$_Vector_iterator@V?$_Vector_val@U?$_Simple_types@V?$CTimeEvent@M@@@std@@@std@@@std@@M@std@@YA?AU?$pair@V?$_Vector_iterator@V?$_Vector_val@U?$_Simple_types@V?$CTimeEvent@M@@@std@@@std@@@std@@V12@@0@V?$_Vector_iterator@V?$_Vector_val@U?$_Simple_types@V?$CTimeEvent@M@@@std@@@std@@@0@0ABM@Z ENDP ; std::equal_range<std::_Vector_iterator<std::_Vector_val<std::_Simple_types<CTimeEvent<float> > > >,float>
_TEXT	ENDS
; Function compile flags: /Ogtp
;	COMDAT ??__F?ms_kPool@CLightData@@2V?$CDynamicPool@VCLightData@@@@A@@YAXXZ
text$yd	SEGMENT
??__F?ms_kPool@CLightData@@2V?$CDynamicPool@VCLightData@@@@A@@YAXXZ PROC ; `dynamic atexit destructor for 'CLightData::ms_kPool'', COMDAT
  00000	b9 00 00 00 00	 mov	 ecx, OFFSET ?ms_kPool@CLightData@@2V?$CDynamicPool@VCLightData@@@@A ; CLightData::ms_kPool
  00005	e9 00 00 00 00	 jmp	 ??1?$CDynamicPool@VCLightData@@@@UAE@XZ ; CDynamicPool<CLightData>::~CDynamicPool<CLightData>
??__F?ms_kPool@CLightData@@2V?$CDynamicPool@VCLightData@@@@A@@YAXXZ ENDP ; `dynamic atexit destructor for 'CLightData::ms_kPool''
text$yd	ENDS
; Function compile flags: /Ogtp
; File C:\Marty 5.5\Src-Client\Client\EffectLib\SimpleLightData.cpp
;	COMDAT ??__E?ms_kPool@CLightData@@2V?$CDynamicPool@VCLightData@@@@A@@YAXXZ
text$di	SEGMENT
??__E?ms_kPool@CLightData@@2V?$CDynamicPool@VCLightData@@@@A@@YAXXZ PROC ; `dynamic initializer for 'CLightData::ms_kPool'', COMDAT

; 4    : CDynamicPool<CLightData> CLightData::ms_kPool;

  00000	68 00 00 00 00	 push	 OFFSET ??__F?ms_kPool@CLightData@@2V?$CDynamicPool@VCLightData@@@@A@@YAXXZ ; `dynamic atexit destructor for 'CLightData::ms_kPool''
  00005	e8 00 00 00 00	 call	 _atexit
  0000a	59		 pop	 ecx
  0000b	c3		 ret	 0
??__E?ms_kPool@CLightData@@2V?$CDynamicPool@VCLightData@@@@A@@YAXXZ ENDP ; `dynamic initializer for 'CLightData::ms_kPool''
text$di	ENDS
; Function compile flags: /Ogtp
;	COMDAT ??_G?$CDynamicPool@VCLightData@@@@UAEPAXI@Z
_TEXT	SEGMENT
___flags$ = 8						; size = 4
??_G?$CDynamicPool@VCLightData@@@@UAEPAXI@Z PROC	; CDynamicPool<CLightData>::`scalar deleting destructor', COMDAT
; _this$ = ecx
  00000	55		 push	 ebp
  00001	8b ec		 mov	 ebp, esp
  00003	56		 push	 esi
  00004	8b f1		 mov	 esi, ecx
  00006	e8 00 00 00 00	 call	 ??1?$CDynamicPool@VCLightData@@@@UAE@XZ ; CDynamicPool<CLightData>::~CDynamicPool<CLightData>
  0000b	f6 45 08 01	 test	 BYTE PTR ___flags$[ebp], 1
  0000f	74 0b		 je	 SHORT $LN5@scalar
  00011	6a 24		 push	 36			; 00000024H
  00013	56		 push	 esi
  00014	e8 00 00 00 00	 call	 ??3@YAXPAXI@Z		; operator delete
  00019	83 c4 08	 add	 esp, 8
$LN5@scalar:
  0001c	8b c6		 mov	 eax, esi
  0001e	5e		 pop	 esi
  0001f	5d		 pop	 ebp
  00020	c2 04 00	 ret	 4
??_G?$CDynamicPool@VCLightData@@@@UAEPAXI@Z ENDP	; CDynamicPool<CLightData>::`scalar deleting destructor'
_TEXT	ENDS
; Function compile flags: /Ogtp
; File D:\Program Files\Microsoft Visual Studio\2022\Community\VC\Tools\MSVC\14.43.34808\include\vector
;	COMDAT ?_Xlength@?$vector@PAVCLightData@@V?$allocator@PAVCLightData@@@std@@@std@@CAXXZ
_TEXT	SEGMENT
?_Xlength@?$vector@PAVCLightData@@V?$allocator@PAVCLightData@@@std@@@std@@CAXXZ PROC ; std::vector<CLightData *,std::allocator<CLightData *> >::_Xlength, COMDAT

; 2169 :         _Xlength_error("vector too long");

  00000	68 00 00 00 00	 push	 OFFSET ??_C@_0BA@FOIKENOD@vector?5too?5long@
  00005	e8 00 00 00 00	 call	 ?_Xlength_error@std@@YAXPBD@Z ; std::_Xlength_error
$LN3@Xlength:
  0000a	cc		 int	 3
?_Xlength@?$vector@PAVCLightData@@V?$allocator@PAVCLightData@@@std@@@std@@CAXXZ ENDP ; std::vector<CLightData *,std::allocator<CLightData *> >::_Xlength
_TEXT	ENDS
; Function compile flags: /Ogtp
; File C:\Marty 5.5\Src-Client\Client\eterLib\Pool.h
; File D:\Program Files\Microsoft Visual Studio\2022\Community\VC\Tools\MSVC\14.43.34808\include\vector
; File D:\Program Files\Microsoft Visual Studio\2022\Community\VC\Tools\MSVC\14.43.34808\include\xmemory
; File D:\Program Files\Microsoft Visual Studio\2022\Community\VC\Tools\MSVC\14.43.34808\include\vector
; File D:\Program Files\Microsoft Visual Studio\2022\Community\VC\Tools\MSVC\14.43.34808\include\xmemory
; File D:\Program Files\Microsoft Visual Studio\2022\Community\VC\Tools\MSVC\14.43.34808\include\vector
; File D:\Program Files\Microsoft Visual Studio\2022\Community\VC\Tools\MSVC\14.43.34808\include\xmemory
; File D:\Program Files\Microsoft Visual Studio\2022\Community\VC\Tools\MSVC\14.43.34808\include\vector
; File D:\Program Files\Microsoft Visual Studio\2022\Community\VC\Tools\MSVC\14.43.34808\include\xmemory
; File D:\Program Files\Microsoft Visual Studio\2022\Community\VC\Tools\MSVC\14.43.34808\include\vector
; File C:\Marty 5.5\Src-Client\Client\eterLib\Pool.h
; File D:\Program Files\Microsoft Visual Studio\2022\Community\VC\Tools\MSVC\14.43.34808\include\xmemory
; File C:\Marty 5.5\Src-Client\Client\eterLib\Pool.h
;	COMDAT ??1?$CDynamicPool@VCLightData@@@@UAE@XZ
_TEXT	SEGMENT
??1?$CDynamicPool@VCLightData@@@@UAE@XZ PROC		; CDynamicPool<CLightData>::~CDynamicPool<CLightData>, COMDAT
; _this$ = ecx

; 18   : 		{

  00000	56		 push	 esi
  00001	8b f1		 mov	 esi, ecx
  00003	c7 06 00 00 00
	00		 mov	 DWORD PTR [esi], OFFSET ??_7?$CDynamicPool@VCLightData@@@@6B@
; File D:\Program Files\Microsoft Visual Studio\2022\Community\VC\Tools\MSVC\14.43.34808\include\vector

; 2075 :         if (_Myfirst) { // destroy and deallocate old array

  00009	8b 46 10	 mov	 eax, DWORD PTR [esi+16]
  0000c	85 c0		 test	 eax, eax
  0000e	74 41		 je	 SHORT $LN8@CDynamicPo

; 2076 :             _STD _Destroy_range(_Myfirst, _Mylast, _Al);
; 2077 :             _ASAN_VECTOR_REMOVE;
; 2078 :             _Al.deallocate(_Myfirst, static_cast<size_type>(_Myend - _Myfirst));

  00010	8b 4e 18	 mov	 ecx, DWORD PTR [esi+24]
  00013	2b c8		 sub	 ecx, eax
; File D:\Program Files\Microsoft Visual Studio\2022\Community\VC\Tools\MSVC\14.43.34808\include\xmemory

; 981  :         _STD _Deallocate<_New_alignof<_Ty>>(_Ptr, sizeof(_Ty) * _Count);

  00015	83 e1 fc	 and	 ecx, -4			; fffffffcH

; 284  :         if (_Bytes >= _Big_allocation_threshold) {

  00018	81 f9 00 10 00
	00		 cmp	 ecx, 4096		; 00001000H
  0001e	72 12		 jb	 SHORT $LN27@CDynamicPo

; 205  :     const uintptr_t _Ptr_container   = _Ptr_user[-1];

  00020	8b 50 fc	 mov	 edx, DWORD PTR [eax-4]
  00023	83 c1 23	 add	 ecx, 35			; 00000023H

; 206  : 
; 207  :     // If the following asserts, it likely means that we are performing
; 208  :     // an aligned delete on memory coming from an unaligned allocation.
; 209  :     _STL_ASSERT(_Ptr_user[-2] == _Big_allocation_sentinel, "invalid argument");
; 210  : 
; 211  :     // Extra paranoia on aligned allocation/deallocation; ensure _Ptr_container is
; 212  :     // in range [_Min_back_shift, _Non_user_size]
; 213  : #ifdef _DEBUG
; 214  :     constexpr uintptr_t _Min_back_shift = 2 * sizeof(void*);
; 215  : #else // ^^^ defined(_DEBUG) / !defined(_DEBUG) vvv
; 216  :     constexpr uintptr_t _Min_back_shift = sizeof(void*);
; 217  : #endif // ^^^ !defined(_DEBUG) ^^^
; 218  :     const uintptr_t _Back_shift = reinterpret_cast<uintptr_t>(_Ptr) - _Ptr_container;

  00026	2b c2		 sub	 eax, edx

; 219  :     _STL_VERIFY(_Back_shift >= _Min_back_shift && _Back_shift <= _Non_user_size, "invalid argument");

  00028	83 c0 fc	 add	 eax, -4			; fffffffcH
  0002b	83 f8 1f	 cmp	 eax, 31			; 0000001fH
  0002e	77 6b		 ja	 SHORT $LN53@CDynamicPo

; 220  :     _Ptr = reinterpret_cast<void*>(_Ptr_container);

  00030	8b c2		 mov	 eax, edx
$LN27@CDynamicPo:

; 289  :         ::operator delete(_Ptr, _Bytes);

  00032	51		 push	 ecx
  00033	50		 push	 eax
  00034	e8 00 00 00 00	 call	 ??3@YAXPAXI@Z		; operator delete
; File D:\Program Files\Microsoft Visual Studio\2022\Community\VC\Tools\MSVC\14.43.34808\include\vector

; 2080 :             _Myfirst = nullptr;

  00039	c7 46 10 00 00
	00 00		 mov	 DWORD PTR [esi+16], 0
; File D:\Program Files\Microsoft Visual Studio\2022\Community\VC\Tools\MSVC\14.43.34808\include\xmemory

; 289  :         ::operator delete(_Ptr, _Bytes);

  00040	83 c4 08	 add	 esp, 8
; File D:\Program Files\Microsoft Visual Studio\2022\Community\VC\Tools\MSVC\14.43.34808\include\vector

; 2081 :             _Mylast  = nullptr;

  00043	c7 46 14 00 00
	00 00		 mov	 DWORD PTR [esi+20], 0

; 2082 :             _Myend   = nullptr;

  0004a	c7 46 18 00 00
	00 00		 mov	 DWORD PTR [esi+24], 0
$LN8@CDynamicPo:

; 2075 :         if (_Myfirst) { // destroy and deallocate old array

  00051	8b 46 04	 mov	 eax, DWORD PTR [esi+4]
  00054	85 c0		 test	 eax, eax
  00056	74 41		 je	 SHORT $LN37@CDynamicPo

; 2076 :             _STD _Destroy_range(_Myfirst, _Mylast, _Al);
; 2077 :             _ASAN_VECTOR_REMOVE;
; 2078 :             _Al.deallocate(_Myfirst, static_cast<size_type>(_Myend - _Myfirst));

  00058	8b 4e 0c	 mov	 ecx, DWORD PTR [esi+12]
  0005b	2b c8		 sub	 ecx, eax
; File D:\Program Files\Microsoft Visual Studio\2022\Community\VC\Tools\MSVC\14.43.34808\include\xmemory

; 981  :         _STD _Deallocate<_New_alignof<_Ty>>(_Ptr, sizeof(_Ty) * _Count);

  0005d	83 e1 fc	 and	 ecx, -4			; fffffffcH

; 284  :         if (_Bytes >= _Big_allocation_threshold) {

  00060	81 f9 00 10 00
	00		 cmp	 ecx, 4096		; 00001000H
  00066	72 12		 jb	 SHORT $LN56@CDynamicPo

; 205  :     const uintptr_t _Ptr_container   = _Ptr_user[-1];

  00068	8b 50 fc	 mov	 edx, DWORD PTR [eax-4]
  0006b	83 c1 23	 add	 ecx, 35			; 00000023H

; 206  : 
; 207  :     // If the following asserts, it likely means that we are performing
; 208  :     // an aligned delete on memory coming from an unaligned allocation.
; 209  :     _STL_ASSERT(_Ptr_user[-2] == _Big_allocation_sentinel, "invalid argument");
; 210  : 
; 211  :     // Extra paranoia on aligned allocation/deallocation; ensure _Ptr_container is
; 212  :     // in range [_Min_back_shift, _Non_user_size]
; 213  : #ifdef _DEBUG
; 214  :     constexpr uintptr_t _Min_back_shift = 2 * sizeof(void*);
; 215  : #else // ^^^ defined(_DEBUG) / !defined(_DEBUG) vvv
; 216  :     constexpr uintptr_t _Min_back_shift = sizeof(void*);
; 217  : #endif // ^^^ !defined(_DEBUG) ^^^
; 218  :     const uintptr_t _Back_shift = reinterpret_cast<uintptr_t>(_Ptr) - _Ptr_container;

  0006e	2b c2		 sub	 eax, edx

; 219  :     _STL_VERIFY(_Back_shift >= _Min_back_shift && _Back_shift <= _Non_user_size, "invalid argument");

  00070	83 c0 fc	 add	 eax, -4			; fffffffcH
  00073	83 f8 1f	 cmp	 eax, 31			; 0000001fH
  00076	77 23		 ja	 SHORT $LN53@CDynamicPo

; 220  :     _Ptr = reinterpret_cast<void*>(_Ptr_container);

  00078	8b c2		 mov	 eax, edx
$LN56@CDynamicPo:

; 289  :         ::operator delete(_Ptr, _Bytes);

  0007a	51		 push	 ecx
  0007b	50		 push	 eax
  0007c	e8 00 00 00 00	 call	 ??3@YAXPAXI@Z		; operator delete
; File D:\Program Files\Microsoft Visual Studio\2022\Community\VC\Tools\MSVC\14.43.34808\include\vector

; 2080 :             _Myfirst = nullptr;

  00081	c7 46 04 00 00
	00 00		 mov	 DWORD PTR [esi+4], 0
; File D:\Program Files\Microsoft Visual Studio\2022\Community\VC\Tools\MSVC\14.43.34808\include\xmemory

; 289  :         ::operator delete(_Ptr, _Bytes);

  00088	83 c4 08	 add	 esp, 8
; File D:\Program Files\Microsoft Visual Studio\2022\Community\VC\Tools\MSVC\14.43.34808\include\vector

; 2081 :             _Mylast  = nullptr;

  0008b	c7 46 08 00 00
	00 00		 mov	 DWORD PTR [esi+8], 0

; 2082 :             _Myend   = nullptr;

  00092	c7 46 0c 00 00
	00 00		 mov	 DWORD PTR [esi+12], 0
$LN37@CDynamicPo:
  00099	5e		 pop	 esi
; File C:\Marty 5.5\Src-Client\Client\eterLib\Pool.h

; 26   : 		}

  0009a	c3		 ret	 0
$LN53@CDynamicPo:
; File D:\Program Files\Microsoft Visual Studio\2022\Community\VC\Tools\MSVC\14.43.34808\include\xmemory

; 219  :     _STL_VERIFY(_Back_shift >= _Min_back_shift && _Back_shift <= _Non_user_size, "invalid argument");

  0009b	e8 00 00 00 00	 call	 __invalid_parameter_noinfo_noreturn
$LN67@CDynamicPo:
  000a0	cc		 int	 3
??1?$CDynamicPool@VCLightData@@@@UAE@XZ ENDP		; CDynamicPool<CLightData>::~CDynamicPool<CLightData>
_TEXT	ENDS
; Function compile flags: /Ogtp
;	COMDAT ??_GCLightData@@UAEPAXI@Z
_TEXT	SEGMENT
___flags$ = 8						; size = 4
??_GCLightData@@UAEPAXI@Z PROC				; CLightData::`scalar deleting destructor', COMDAT
; _this$ = ecx
  00000	55		 push	 ebp
  00001	8b ec		 mov	 ebp, esp
  00003	56		 push	 esi
  00004	8b f1		 mov	 esi, ecx
  00006	e8 00 00 00 00	 call	 ??1CLightData@@UAE@XZ	; CLightData::~CLightData
  0000b	f6 45 08 01	 test	 BYTE PTR ___flags$[ebp], 1
  0000f	74 0b		 je	 SHORT $LN5@scalar
  00011	6a 5c		 push	 92			; 0000005cH
  00013	56		 push	 esi
  00014	e8 00 00 00 00	 call	 ??3@YAXPAXI@Z		; operator delete
  00019	83 c4 08	 add	 esp, 8
$LN5@scalar:
  0001c	8b c6		 mov	 eax, esi
  0001e	5e		 pop	 esi
  0001f	5d		 pop	 ebp
  00020	c2 04 00	 ret	 4
??_GCLightData@@UAEPAXI@Z ENDP				; CLightData::`scalar deleting destructor'
_TEXT	ENDS
; Function compile flags: /Ogtp
; File C:\Marty 5.5\Src-Client\Client\EffectLib\SimpleLightData.cpp
; File D:\Program Files\Microsoft Visual Studio\2022\Community\VC\Tools\MSVC\14.43.34808\include\vector
; File C:\Marty 5.5\Src-Client\Client\EffectLib\SimpleLightData.cpp
; File D:\Program Files\Microsoft Visual Studio\2022\Community\VC\Tools\MSVC\14.43.34808\include\vector
; File C:\Marty 5.5\Src-Client\Client\EffectLib\SimpleLightData.cpp
; File D:\Program Files\Microsoft Visual Studio\2022\Community\VC\Tools\MSVC\14.43.34808\include\vector
; File C:\Marty 5.5\Src-Client\Client\EffectLib\SimpleLightData.cpp
;	COMDAT ?Delete@CLightData@@SAXPAV1@@Z
_TEXT	SEGMENT
_pkData$ = 8						; size = 4
_pkData$ = 8						; size = 4
?Delete@CLightData@@SAXPAV1@@Z PROC			; CLightData::Delete, COMDAT

; 17   : {

  00000	55		 push	 ebp
  00001	8b ec		 mov	 ebp, esp
  00003	56		 push	 esi

; 18   : 	pkData->Clear();

  00004	8b 75 08	 mov	 esi, DWORD PTR _pkData$[ebp]
  00007	8b ce		 mov	 ecx, esi
  00009	e8 00 00 00 00	 call	 ?Clear@CEffectElementBase@@QAEXXZ ; CEffectElementBase::Clear
; File D:\Program Files\Microsoft Visual Studio\2022\Community\VC\Tools\MSVC\14.43.34808\include\vector

; 829  :         if (_Mylast != _My_data._Myend) {

  0000e	a1 14 00 00 00	 mov	 eax, DWORD PTR ?ms_kPool@CLightData@@2V?$CDynamicPool@VCLightData@@@@A+20
; File C:\Marty 5.5\Src-Client\Client\EffectLib\SimpleLightData.cpp

; 19   : 	ms_kPool.Free(pkData);

  00013	89 75 08	 mov	 DWORD PTR _pkData$[ebp], esi
; File D:\Program Files\Microsoft Visual Studio\2022\Community\VC\Tools\MSVC\14.43.34808\include\vector

; 829  :         if (_Mylast != _My_data._Myend) {

  00016	3b 05 18 00 00
	00		 cmp	 eax, DWORD PTR ?ms_kPool@CLightData@@2V?$CDynamicPool@VCLightData@@@@A+24
  0001c	74 0c		 je	 SHORT $LN8@Delete

; 845  :             _STD _Construct_in_place(*_Mylast, _STD forward<_Valty>(_Val)...);

  0001e	89 30		 mov	 DWORD PTR [eax], esi

; 846  :         } else {
; 847  :             _ASAN_VECTOR_EXTEND_GUARD(static_cast<size_type>(_Mylast - _My_data._Myfirst) + 1);
; 848  :             _Alty_traits::construct(_Getal(), _Unfancy(_Mylast), _STD forward<_Valty>(_Val)...);
; 849  :             _ASAN_VECTOR_RELEASE_GUARD;
; 850  :         }
; 851  : 
; 852  :         _Orphan_range(_Mylast, _Mylast);
; 853  :         _Ty& _Result = *_Mylast;
; 854  :         ++_Mylast;

  00020	83 05 14 00 00
	00 04		 add	 DWORD PTR ?ms_kPool@CLightData@@2V?$CDynamicPool@VCLightData@@@@A+20, 4
  00027	5e		 pop	 esi
; File C:\Marty 5.5\Src-Client\Client\EffectLib\SimpleLightData.cpp

; 20   : }

  00028	5d		 pop	 ebp
  00029	c3		 ret	 0
$LN8@Delete:
; File D:\Program Files\Microsoft Visual Studio\2022\Community\VC\Tools\MSVC\14.43.34808\include\vector

; 833  :         return *_Emplace_reallocate(_Mylast, _STD forward<_Valty>(_Val)...);

  0002a	8d 4d 08	 lea	 ecx, DWORD PTR _pkData$[ebp]
  0002d	51		 push	 ecx
  0002e	50		 push	 eax
  0002f	b9 10 00 00 00	 mov	 ecx, OFFSET ?ms_kPool@CLightData@@2V?$CDynamicPool@VCLightData@@@@A+16
  00034	e8 00 00 00 00	 call	 ??$_Emplace_reallocate@ABQAVCLightData@@@?$vector@PAVCLightData@@V?$allocator@PAVCLightData@@@std@@@std@@AAEPAPAVCLightData@@QAPAV2@ABQAV2@@Z ; std::vector<CLightData *,std::allocator<CLightData *> >::_Emplace_reallocate<CLightData * const &>
  00039	5e		 pop	 esi
; File C:\Marty 5.5\Src-Client\Client\EffectLib\SimpleLightData.cpp

; 20   : }

  0003a	5d		 pop	 ebp
  0003b	c3		 ret	 0
?Delete@CLightData@@SAXPAV1@@Z ENDP			; CLightData::Delete
_TEXT	ENDS
; Function compile flags: /Ogtp
; File C:\Marty 5.5\Src-Client\Client\EffectLib\SimpleLightData.cpp
; File D:\Program Files\Microsoft Visual Studio\2022\Community\VC\Tools\MSVC\14.43.34808\include\vector
; File C:\Marty 5.5\Src-Client\Client\eterLib\Pool.h
; File D:\Program Files\Microsoft Visual Studio\2022\Community\VC\Tools\MSVC\14.43.34808\include\vector
; File C:\Marty 5.5\Src-Client\Client\eterLib\Pool.h
; File D:\Program Files\Microsoft Visual Studio\2022\Community\VC\Tools\MSVC\14.43.34808\include\vector
; File C:\Marty 5.5\Src-Client\Client\EffectLib\SimpleLightData.cpp
; File D:\Program Files\Microsoft Visual Studio\2022\Community\VC\Tools\MSVC\14.43.34808\include\vector
; File C:\Marty 5.5\Src-Client\Client\eterLib\Pool.h
; File C:\Marty 5.5\Src-Client\Client\EffectLib\SimpleLightData.cpp
; File D:\Program Files\Microsoft Visual Studio\2022\Community\VC\Tools\MSVC\14.43.34808\include\vector
; File C:\Marty 5.5\Src-Client\Client\eterLib\Pool.h
; File C:\Marty 5.5\Src-Client\Client\EffectLib\SimpleLightData.cpp
; File C:\Marty 5.5\Src-Client\Client\eterLib\Pool.h
; File D:\Program Files\Microsoft Visual Studio\2022\Community\VC\Tools\MSVC\14.43.34808\include\vector
; File C:\Marty 5.5\Src-Client\Client\EffectLib\SimpleLightData.cpp
;	COMDAT ?New@CLightData@@SAPAV1@XZ
_TEXT	SEGMENT
_pkNewData$2 = -16					; size = 4
$T3 = -16						; size = 4
__$EHRec$ = -12						; size = 12
?New@CLightData@@SAPAV1@XZ PROC				; CLightData::New, COMDAT

; 12   : {

  00000	55		 push	 ebp
  00001	8b ec		 mov	 ebp, esp
  00003	6a ff		 push	 -1
  00005	68 00 00 00 00	 push	 __ehhandler$?New@CLightData@@SAPAV1@XZ
  0000a	64 a1 00 00 00
	00		 mov	 eax, DWORD PTR fs:0
  00010	50		 push	 eax
  00011	51		 push	 ecx
  00012	56		 push	 esi
  00013	a1 00 00 00 00	 mov	 eax, DWORD PTR ___security_cookie
  00018	33 c5		 xor	 eax, ebp
  0001a	50		 push	 eax
  0001b	8d 45 f4	 lea	 eax, DWORD PTR __$EHRec$[ebp]
  0001e	64 a3 00 00 00
	00		 mov	 DWORD PTR fs:0, eax
; File D:\Program Files\Microsoft Visual Studio\2022\Community\VC\Tools\MSVC\14.43.34808\include\vector

; 1895 :         return _My_data._Myfirst == _My_data._Mylast;

  00024	8b 0d 14 00 00
	00		 mov	 ecx, DWORD PTR ?ms_kPool@CLightData@@2V?$CDynamicPool@VCLightData@@@@A+20
  0002a	39 0d 10 00 00
	00		 cmp	 DWORD PTR ?ms_kPool@CLightData@@2V?$CDynamicPool@VCLightData@@@@A+16, ecx
; File C:\Marty 5.5\Src-Client\Client\eterLib\Pool.h

; 64   : 			if (m_kVct_pkFree.empty())

  00030	0f 85 84 00 00
	00		 jne	 $LN4@New

; 66   : 				T* pkNewData=new T;

  00036	6a 5c		 push	 92			; 0000005cH
  00038	e8 00 00 00 00	 call	 ??2@YAPAXI@Z		; operator new
  0003d	83 c4 04	 add	 esp, 4
  00040	89 45 f0	 mov	 DWORD PTR $T3[ebp], eax
  00043	c7 45 fc 00 00
	00 00		 mov	 DWORD PTR __$EHRec$[ebp+8], 0
  0004a	85 c0		 test	 eax, eax
  0004c	74 0b		 je	 SHORT $LN6@New
  0004e	8b c8		 mov	 ecx, eax
  00050	e8 00 00 00 00	 call	 ??0CLightData@@QAE@XZ	; CLightData::CLightData
  00055	8b f0		 mov	 esi, eax
  00057	eb 02		 jmp	 SHORT $LN7@New
$LN6@New:
  00059	33 f6		 xor	 esi, esi
$LN7@New:
; File D:\Program Files\Microsoft Visual Studio\2022\Community\VC\Tools\MSVC\14.43.34808\include\vector

; 829  :         if (_Mylast != _My_data._Myend) {

  0005b	a1 08 00 00 00	 mov	 eax, DWORD PTR ?ms_kPool@CLightData@@2V?$CDynamicPool@VCLightData@@@@A+8
; File C:\Marty 5.5\Src-Client\Client\eterLib\Pool.h

; 66   : 				T* pkNewData=new T;

  00060	c7 45 fc ff ff
	ff ff		 mov	 DWORD PTR __$EHRec$[ebp+8], -1
  00067	89 75 f0	 mov	 DWORD PTR _pkNewData$2[ebp], esi
; File D:\Program Files\Microsoft Visual Studio\2022\Community\VC\Tools\MSVC\14.43.34808\include\vector

; 829  :         if (_Mylast != _My_data._Myend) {

  0006a	3b 05 0c 00 00
	00		 cmp	 eax, DWORD PTR ?ms_kPool@CLightData@@2V?$CDynamicPool@VCLightData@@@@A+12
  00070	74 21		 je	 SHORT $LN15@New

; 845  :             _STD _Construct_in_place(*_Mylast, _STD forward<_Valty>(_Val)...);

  00072	89 30		 mov	 DWORD PTR [eax], esi
; File C:\Marty 5.5\Src-Client\Client\EffectLib\SimpleLightData.cpp

; 13   : 	return ms_kPool.Alloc();

  00074	8b c6		 mov	 eax, esi
; File D:\Program Files\Microsoft Visual Studio\2022\Community\VC\Tools\MSVC\14.43.34808\include\vector

; 854  :         ++_Mylast;

  00076	83 05 08 00 00
	00 04		 add	 DWORD PTR ?ms_kPool@CLightData@@2V?$CDynamicPool@VCLightData@@@@A+8, 4
; File C:\Marty 5.5\Src-Client\Client\eterLib\Pool.h

; 68   : 				++m_uUsedCapacity;

  0007d	ff 05 20 00 00
	00		 inc	 DWORD PTR ?ms_kPool@CLightData@@2V?$CDynamicPool@VCLightData@@@@A+32
; File C:\Marty 5.5\Src-Client\Client\EffectLib\SimpleLightData.cpp

; 14   : }

  00083	8b 4d f4	 mov	 ecx, DWORD PTR __$EHRec$[ebp]
  00086	64 89 0d 00 00
	00 00		 mov	 DWORD PTR fs:0, ecx
  0008d	59		 pop	 ecx
  0008e	5e		 pop	 esi
  0008f	8b e5		 mov	 esp, ebp
  00091	5d		 pop	 ebp
  00092	c3		 ret	 0
$LN15@New:
; File D:\Program Files\Microsoft Visual Studio\2022\Community\VC\Tools\MSVC\14.43.34808\include\vector

; 833  :         return *_Emplace_reallocate(_Mylast, _STD forward<_Valty>(_Val)...);

  00093	8d 4d f0	 lea	 ecx, DWORD PTR _pkNewData$2[ebp]
  00096	51		 push	 ecx
  00097	50		 push	 eax
  00098	b9 04 00 00 00	 mov	 ecx, OFFSET ?ms_kPool@CLightData@@2V?$CDynamicPool@VCLightData@@@@A+4
  0009d	e8 00 00 00 00	 call	 ??$_Emplace_reallocate@ABQAVCLightData@@@?$vector@PAVCLightData@@V?$allocator@PAVCLightData@@@std@@@std@@AAEPAPAVCLightData@@QAPAV2@ABQAV2@@Z ; std::vector<CLightData *,std::allocator<CLightData *> >::_Emplace_reallocate<CLightData * const &>
; File C:\Marty 5.5\Src-Client\Client\eterLib\Pool.h

; 68   : 				++m_uUsedCapacity;

  000a2	ff 05 20 00 00
	00		 inc	 DWORD PTR ?ms_kPool@CLightData@@2V?$CDynamicPool@VCLightData@@@@A+32
; File C:\Marty 5.5\Src-Client\Client\EffectLib\SimpleLightData.cpp

; 13   : 	return ms_kPool.Alloc();

  000a8	8b c6		 mov	 eax, esi

; 14   : }

  000aa	8b 4d f4	 mov	 ecx, DWORD PTR __$EHRec$[ebp]
  000ad	64 89 0d 00 00
	00 00		 mov	 DWORD PTR fs:0, ecx
  000b4	59		 pop	 ecx
  000b5	5e		 pop	 esi
  000b6	8b e5		 mov	 esp, ebp
  000b8	5d		 pop	 ebp
  000b9	c3		 ret	 0
$LN4@New:
; File C:\Marty 5.5\Src-Client\Client\eterLib\Pool.h

; 72   : 			T* pkFreeData=m_kVct_pkFree.back();

  000ba	8b 41 fc	 mov	 eax, DWORD PTR [ecx-4]
; File D:\Program Files\Microsoft Visual Studio\2022\Community\VC\Tools\MSVC\14.43.34808\include\vector

; 1744 :         --_Mylast;

  000bd	83 c1 fc	 add	 ecx, -4			; fffffffcH
  000c0	89 0d 14 00 00
	00		 mov	 DWORD PTR ?ms_kPool@CLightData@@2V?$CDynamicPool@VCLightData@@@@A+20, ecx
; File C:\Marty 5.5\Src-Client\Client\EffectLib\SimpleLightData.cpp

; 14   : }

  000c6	8b 4d f4	 mov	 ecx, DWORD PTR __$EHRec$[ebp]
  000c9	64 89 0d 00 00
	00 00		 mov	 DWORD PTR fs:0, ecx
  000d0	59		 pop	 ecx
  000d1	5e		 pop	 esi
  000d2	8b e5		 mov	 esp, ebp
  000d4	5d		 pop	 ebp
  000d5	c3		 ret	 0
_TEXT	ENDS
;	COMDAT text$x
text$x	SEGMENT
__unwindfunclet$?New@CLightData@@SAPAV1@XZ$0:
  00000	6a 5c		 push	 92			; 0000005cH
  00002	8b 45 f0	 mov	 eax, DWORD PTR $T3[ebp]
  00005	50		 push	 eax
  00006	e8 00 00 00 00	 call	 ??3@YAXPAXI@Z		; operator delete
  0000b	83 c4 08	 add	 esp, 8
  0000e	c3		 ret	 0
  0000f	cc		 int	 3
  00010	cc		 int	 3
  00011	cc		 int	 3
  00012	cc		 int	 3
  00013	cc		 int	 3
__ehhandler$?New@CLightData@@SAPAV1@XZ:
  00014	90		 npad	 1
  00015	90		 npad	 1
  00016	8b 54 24 08	 mov	 edx, DWORD PTR [esp+8]
  0001a	8d 42 0c	 lea	 eax, DWORD PTR [edx+12]
  0001d	8b 4a f4	 mov	 ecx, DWORD PTR [edx-12]
  00020	33 c8		 xor	 ecx, eax
  00022	e8 00 00 00 00	 call	 @__security_check_cookie@4
  00027	b8 00 00 00 00	 mov	 eax, OFFSET __ehfuncinfo$?New@CLightData@@SAPAV1@XZ
  0002c	e9 00 00 00 00	 jmp	 ___CxxFrameHandler3
text$x	ENDS
?New@CLightData@@SAPAV1@XZ ENDP				; CLightData::New
; Function compile flags: /Ogtp
; File C:\Marty 5.5\Src-Client\Client\EffectLib\SimpleLightData.cpp
; File C:\Marty 5.5\Src-Client\Client\eterLib\Pool.h
; File C:\Marty 5.5\Src-Client\Client\EffectLib\SimpleLightData.cpp
; File C:\Marty 5.5\Src-Client\Client\eterLib\Pool.h
; File D:\Program Files\Microsoft Visual Studio\2022\Community\VC\Tools\MSVC\14.43.34808\include\vector
; File C:\Marty 5.5\Src-Client\Client\EffectLib\SimpleLightData.cpp
;	COMDAT ?DestroySystem@CLightData@@SAXXZ
_TEXT	SEGMENT
?DestroySystem@CLightData@@SAXXZ PROC			; CLightData::DestroySystem, COMDAT

; 7    : {

  00000	56		 push	 esi
; File C:\Marty 5.5\Src-Client\Client\eterLib\Pool.h

; 50   : 			for (auto v : m_kVct_pkData)

  00001	8b 35 04 00 00
	00		 mov	 esi, DWORD PTR ?ms_kPool@CLightData@@2V?$CDynamicPool@VCLightData@@@@A+4
; File C:\Marty 5.5\Src-Client\Client\EffectLib\SimpleLightData.cpp

; 7    : {

  00007	57		 push	 edi
; File C:\Marty 5.5\Src-Client\Client\eterLib\Pool.h

; 50   : 			for (auto v : m_kVct_pkData)

  00008	8b 3d 08 00 00
	00		 mov	 edi, DWORD PTR ?ms_kPool@CLightData@@2V?$CDynamicPool@VCLightData@@@@A+8
  0000e	3b f7		 cmp	 esi, edi
  00010	74 29		 je	 SHORT $LN12@DestroySys
$LL6@DestroySys:

; 111  : 			delete pkData;

  00012	8b 0e		 mov	 ecx, DWORD PTR [esi]
  00014	85 c9		 test	 ecx, ecx
  00016	74 06		 je	 SHORT $LN4@DestroySys
  00018	8b 01		 mov	 eax, DWORD PTR [ecx]
  0001a	6a 01		 push	 1
  0001c	ff 10		 call	 DWORD PTR [eax]
$LN4@DestroySys:

; 50   : 			for (auto v : m_kVct_pkData)

  0001e	83 c6 04	 add	 esi, 4
  00021	3b f7		 cmp	 esi, edi
  00023	75 ed		 jne	 SHORT $LL6@DestroySys
  00025	8b 3d 08 00 00
	00		 mov	 edi, DWORD PTR ?ms_kPool@CLightData@@2V?$CDynamicPool@VCLightData@@@@A+8
  0002b	8b 35 04 00 00
	00		 mov	 esi, DWORD PTR ?ms_kPool@CLightData@@2V?$CDynamicPool@VCLightData@@@@A+4
; File D:\Program Files\Microsoft Visual Studio\2022\Community\VC\Tools\MSVC\14.43.34808\include\vector

; 1797 :         if (_Myfirst == _Mylast) { // already empty, nothing to do

  00031	3b f7		 cmp	 esi, edi
  00033	74 06		 je	 SHORT $LN12@DestroySys

; 1798 :             // This is an optimization for debug mode: we can avoid taking the debug lock to invalidate iterators.
; 1799 :             // Note that when clearing an empty vector, this will preserve past-the-end iterators, which is allowed by
; 1800 :             // N4950 [sequence.reqmts]/54 "a.clear() [...] may invalidate the past-the-end iterator".
; 1801 :             return;
; 1802 :         }
; 1803 : 
; 1804 :         _My_data._Orphan_all();
; 1805 :         _Destroy_range(_Myfirst, _Mylast, _Getal());
; 1806 :         _ASAN_VECTOR_MODIFY(static_cast<difference_type>(_Myfirst - _Mylast)); // negative when destroying elements
; 1807 :         _Mylast = _Myfirst;

  00035	89 35 08 00 00
	00		 mov	 DWORD PTR ?ms_kPool@CLightData@@2V?$CDynamicPool@VCLightData@@@@A+8, esi
$LN12@DestroySys:

; 1797 :         if (_Myfirst == _Mylast) { // already empty, nothing to do

  0003b	a1 10 00 00 00	 mov	 eax, DWORD PTR ?ms_kPool@CLightData@@2V?$CDynamicPool@VCLightData@@@@A+16
  00040	5f		 pop	 edi
  00041	5e		 pop	 esi
  00042	3b 05 14 00 00
	00		 cmp	 eax, DWORD PTR ?ms_kPool@CLightData@@2V?$CDynamicPool@VCLightData@@@@A+20
  00048	74 05		 je	 SHORT $LN16@DestroySys

; 1798 :             // This is an optimization for debug mode: we can avoid taking the debug lock to invalidate iterators.
; 1799 :             // Note that when clearing an empty vector, this will preserve past-the-end iterators, which is allowed by
; 1800 :             // N4950 [sequence.reqmts]/54 "a.clear() [...] may invalidate the past-the-end iterator".
; 1801 :             return;
; 1802 :         }
; 1803 : 
; 1804 :         _My_data._Orphan_all();
; 1805 :         _Destroy_range(_Myfirst, _Mylast, _Getal());
; 1806 :         _ASAN_VECTOR_MODIFY(static_cast<difference_type>(_Myfirst - _Mylast)); // negative when destroying elements
; 1807 :         _Mylast = _Myfirst;

  0004a	a3 14 00 00 00	 mov	 DWORD PTR ?ms_kPool@CLightData@@2V?$CDynamicPool@VCLightData@@@@A+20, eax
$LN16@DestroySys:
; File C:\Marty 5.5\Src-Client\Client\EffectLib\SimpleLightData.cpp

; 9    : }

  0004f	c3		 ret	 0
?DestroySystem@CLightData@@SAXXZ ENDP			; CLightData::DestroySystem
_TEXT	ENDS
; Function compile flags: /Ogtp
; File D:\Program Files\Microsoft Visual Studio\2022\Community\VC\Tools\MSVC\14.43.34808\include\vector
; File D:\Program Files\Microsoft Visual Studio\2022\Community\VC\Tools\MSVC\14.43.34808\include\xmemory
; File D:\Program Files\Microsoft Visual Studio\2022\Community\VC\Tools\MSVC\14.43.34808\include\vector
; File D:\Program Files\Microsoft Visual Studio\2022\Community\VC\Tools\MSVC\14.43.34808\include\xmemory
; File D:\Program Files\Microsoft Visual Studio\2022\Community\VC\Tools\MSVC\14.43.34808\include\vector
; File D:\Program Files\Microsoft Visual Studio\2022\Community\VC\Tools\MSVC\14.43.34808\include\xmemory
; File D:\Program Files\Microsoft Visual Studio\2022\Community\VC\Tools\MSVC\14.43.34808\include\vector
;	COMDAT ??1?$vector@V?$CTimeEvent@M@@V?$allocator@V?$CTimeEvent@M@@@std@@@std@@QAE@XZ
_TEXT	SEGMENT
??1?$vector@V?$CTimeEvent@M@@V?$allocator@V?$CTimeEvent@M@@@std@@@std@@QAE@XZ PROC ; std::vector<CTimeEvent<float>,std::allocator<CTimeEvent<float> > >::~vector<CTimeEvent<float>,std::allocator<CTimeEvent<float> > >, COMDAT
; _this$ = ecx

; 814  :     _CONSTEXPR20 ~vector() noexcept {

  00000	56		 push	 esi
  00001	8b f1		 mov	 esi, ecx

; 2075 :         if (_Myfirst) { // destroy and deallocate old array

  00003	8b 06		 mov	 eax, DWORD PTR [esi]
  00005	85 c0		 test	 eax, eax
  00007	74 40		 je	 SHORT $LN5@vector

; 2076 :             _STD _Destroy_range(_Myfirst, _Mylast, _Al);
; 2077 :             _ASAN_VECTOR_REMOVE;
; 2078 :             _Al.deallocate(_Myfirst, static_cast<size_type>(_Myend - _Myfirst));

  00009	8b 4e 08	 mov	 ecx, DWORD PTR [esi+8]
  0000c	2b c8		 sub	 ecx, eax
; File D:\Program Files\Microsoft Visual Studio\2022\Community\VC\Tools\MSVC\14.43.34808\include\xmemory

; 981  :         _STD _Deallocate<_New_alignof<_Ty>>(_Ptr, sizeof(_Ty) * _Count);

  0000e	83 e1 f8	 and	 ecx, -8			; fffffff8H

; 284  :         if (_Bytes >= _Big_allocation_threshold) {

  00011	81 f9 00 10 00
	00		 cmp	 ecx, 4096		; 00001000H
  00017	72 12		 jb	 SHORT $LN24@vector

; 205  :     const uintptr_t _Ptr_container   = _Ptr_user[-1];

  00019	8b 50 fc	 mov	 edx, DWORD PTR [eax-4]
  0001c	83 c1 23	 add	 ecx, 35			; 00000023H

; 206  : 
; 207  :     // If the following asserts, it likely means that we are performing
; 208  :     // an aligned delete on memory coming from an unaligned allocation.
; 209  :     _STL_ASSERT(_Ptr_user[-2] == _Big_allocation_sentinel, "invalid argument");
; 210  : 
; 211  :     // Extra paranoia on aligned allocation/deallocation; ensure _Ptr_container is
; 212  :     // in range [_Min_back_shift, _Non_user_size]
; 213  : #ifdef _DEBUG
; 214  :     constexpr uintptr_t _Min_back_shift = 2 * sizeof(void*);
; 215  : #else // ^^^ defined(_DEBUG) / !defined(_DEBUG) vvv
; 216  :     constexpr uintptr_t _Min_back_shift = sizeof(void*);
; 217  : #endif // ^^^ !defined(_DEBUG) ^^^
; 218  :     const uintptr_t _Back_shift = reinterpret_cast<uintptr_t>(_Ptr) - _Ptr_container;

  0001f	2b c2		 sub	 eax, edx

; 219  :     _STL_VERIFY(_Back_shift >= _Min_back_shift && _Back_shift <= _Non_user_size, "invalid argument");

  00021	83 c0 fc	 add	 eax, -4			; fffffffcH
  00024	83 f8 1f	 cmp	 eax, 31			; 0000001fH
  00027	77 22		 ja	 SHORT $LN21@vector

; 220  :     _Ptr = reinterpret_cast<void*>(_Ptr_container);

  00029	8b c2		 mov	 eax, edx
$LN24@vector:

; 289  :         ::operator delete(_Ptr, _Bytes);

  0002b	51		 push	 ecx
  0002c	50		 push	 eax
  0002d	e8 00 00 00 00	 call	 ??3@YAXPAXI@Z		; operator delete
; File D:\Program Files\Microsoft Visual Studio\2022\Community\VC\Tools\MSVC\14.43.34808\include\vector

; 2080 :             _Myfirst = nullptr;

  00032	c7 06 00 00 00
	00		 mov	 DWORD PTR [esi], 0
; File D:\Program Files\Microsoft Visual Studio\2022\Community\VC\Tools\MSVC\14.43.34808\include\xmemory

; 289  :         ::operator delete(_Ptr, _Bytes);

  00038	83 c4 08	 add	 esp, 8
; File D:\Program Files\Microsoft Visual Studio\2022\Community\VC\Tools\MSVC\14.43.34808\include\vector

; 2081 :             _Mylast  = nullptr;

  0003b	c7 46 04 00 00
	00 00		 mov	 DWORD PTR [esi+4], 0

; 2082 :             _Myend   = nullptr;

  00042	c7 46 08 00 00
	00 00		 mov	 DWORD PTR [esi+8], 0
$LN5@vector:
  00049	5e		 pop	 esi

; 820  :     }

  0004a	c3		 ret	 0
$LN21@vector:
; File D:\Program Files\Microsoft Visual Studio\2022\Community\VC\Tools\MSVC\14.43.34808\include\xmemory

; 219  :     _STL_VERIFY(_Back_shift >= _Min_back_shift && _Back_shift <= _Non_user_size, "invalid argument");

  0004b	e8 00 00 00 00	 call	 __invalid_parameter_noinfo_noreturn
$LN32@vector:
  00050	cc		 int	 3
??1?$vector@V?$CTimeEvent@M@@V?$allocator@V?$CTimeEvent@M@@@std@@@std@@QAE@XZ ENDP ; std::vector<CTimeEvent<float>,std::allocator<CTimeEvent<float> > >::~vector<CTimeEvent<float>,std::allocator<CTimeEvent<float> > >
_TEXT	ENDS
; Function compile flags: /Ogtp
; File C:\Marty 5.5\Src-Client\Client\EffectLib\SimpleLightData.cpp
; File D:\Program Files\Microsoft Visual Studio\2022\Community\VC\Tools\MSVC\14.43.34808\include\xstring
; File C:\Marty 5.5\Src-Client\Client\EffectLib\SimpleLightData.cpp
; File D:\Program Files\Microsoft Visual Studio\2022\Community\VC\Tools\MSVC\14.43.34808\include\xstring
; File D:\Program Files\Microsoft Visual Studio\2022\Community\VC\Tools\MSVC\14.43.34808\include\xmemory
; File D:\Program Files\Microsoft Visual Studio\2022\Community\VC\Tools\MSVC\14.43.34808\include\xstring
; File D:\Program Files\Microsoft Visual Studio\2022\Community\VC\Tools\MSVC\14.43.34808\include\xmemory
; File C:\Marty 5.5\Src-Client\Client\EffectLib\SimpleLightData.cpp
; File D:\Program Files\Microsoft Visual Studio\2022\Community\VC\Tools\MSVC\14.43.34808\include\xstring
; File C:\Marty 5.5\Src-Client\Client\EffectLib\SimpleLightData.cpp
; File D:\Program Files\Microsoft Visual Studio\2022\Community\VC\Tools\MSVC\14.43.34808\include\xstring
; File D:\Program Files\Microsoft Visual Studio\2022\Community\VC\Tools\MSVC\14.43.34808\include\xmemory
; File D:\Program Files\Microsoft Visual Studio\2022\Community\VC\Tools\MSVC\14.43.34808\include\xstring
; File D:\Program Files\Microsoft Visual Studio\2022\Community\VC\Tools\MSVC\14.43.34808\include\xmemory
; File C:\Marty 5.5\Src-Client\Client\EffectLib\SimpleLightData.cpp
; File D:\Program Files\Microsoft Visual Studio\2022\Community\VC\Tools\MSVC\14.43.34808\include\xstring
; File C:\Marty 5.5\Src-Client\Client\EffectLib\SimpleLightData.cpp
; File D:\Program Files\Microsoft Visual Studio\2022\Community\VC\Tools\MSVC\14.43.34808\include\xstring
; File D:\Program Files\Microsoft Visual Studio\2022\Community\VC\Tools\MSVC\14.43.34808\include\xmemory
; File D:\Program Files\Microsoft Visual Studio\2022\Community\VC\Tools\MSVC\14.43.34808\include\xstring
; File D:\Program Files\Microsoft Visual Studio\2022\Community\VC\Tools\MSVC\14.43.34808\include\xmemory
; File C:\Marty 5.5\Src-Client\Client\EffectLib\SimpleLightData.cpp
; File D:\Program Files\Microsoft Visual Studio\2022\Community\VC\Tools\MSVC\14.43.34808\include\xstring
; File C:\Marty 5.5\Src-Client\Client\EffectLib\SimpleLightData.cpp
; File D:\Program Files\Microsoft Visual Studio\2022\Community\VC\Tools\MSVC\14.43.34808\include\xstring
; File D:\Program Files\Microsoft Visual Studio\2022\Community\VC\Tools\MSVC\14.43.34808\include\xmemory
; File D:\Program Files\Microsoft Visual Studio\2022\Community\VC\Tools\MSVC\14.43.34808\include\xstring
; File D:\Program Files\Microsoft Visual Studio\2022\Community\VC\Tools\MSVC\14.43.34808\include\xmemory
; File C:\Marty 5.5\Src-Client\Client\EffectLib\SimpleLightData.cpp
; File D:\Program Files\Microsoft Visual Studio\2022\Community\VC\Tools\MSVC\14.43.34808\include\xstring
; File C:\Marty 5.5\Src-Client\Client\EffectLib\SimpleLightData.cpp
; File D:\Program Files\Microsoft Visual Studio\2022\Community\VC\Tools\MSVC\14.43.34808\include\xstring
; File D:\Program Files\Microsoft Visual Studio\2022\Community\VC\Tools\MSVC\14.43.34808\include\xmemory
; File D:\Program Files\Microsoft Visual Studio\2022\Community\VC\Tools\MSVC\14.43.34808\include\xstring
; File D:\Program Files\Microsoft Visual Studio\2022\Community\VC\Tools\MSVC\14.43.34808\include\xmemory
; File C:\Marty 5.5\Src-Client\Client\EffectLib\SimpleLightData.cpp
; File D:\Program Files\Microsoft Visual Studio\2022\Community\VC\Tools\MSVC\14.43.34808\include\vector
; File C:\Marty 5.5\Src-Client\Client\EffectLib\SimpleLightData.cpp
; File D:\Program Files\Microsoft Visual Studio\2022\Community\VC\Tools\MSVC\14.43.34808\include\xmemory
; File C:\Marty 5.5\Src-Client\Client\EffectLib\SimpleLightData.cpp
;	COMDAT ?OnLoadScript@CLightData@@MAEHAAVCTextFileLoader@@@Z
_TEXT	SEGMENT
tv881 = -68						; size = 4
tv882 = -68						; size = 4
tv884 = -68						; size = 4
$T2 = -64						; size = 24
$T3 = -40						; size = 24
$T4 = -40						; size = 24
$T5 = -40						; size = 24
$T6 = -40						; size = 24
$T7 = -40						; size = 24
$T8 = -40						; size = 24
$T9 = -40						; size = 24
$T10 = -40						; size = 24
__$ArrayPad$ = -16					; size = 4
__$EHRec$ = -12						; size = 12
_rTextFileLoader$ = 8					; size = 4
?OnLoadScript@CLightData@@MAEHAAVCTextFileLoader@@@Z PROC ; CLightData::OnLoadScript, COMDAT
; _this$ = ecx

; 99   : {

  00000	55		 push	 ebp
  00001	8b ec		 mov	 ebp, esp
  00003	6a ff		 push	 -1
  00005	68 00 00 00 00	 push	 __ehhandler$?OnLoadScript@CLightData@@MAEHAAVCTextFileLoader@@@Z
  0000a	64 a1 00 00 00
	00		 mov	 eax, DWORD PTR fs:0
  00010	50		 push	 eax
  00011	83 ec 38	 sub	 esp, 56			; 00000038H
  00014	a1 00 00 00 00	 mov	 eax, DWORD PTR ___security_cookie
  00019	33 c5		 xor	 eax, ebp
  0001b	89 45 f0	 mov	 DWORD PTR __$ArrayPad$[ebp], eax
  0001e	53		 push	 ebx
  0001f	56		 push	 esi
  00020	57		 push	 edi
  00021	50		 push	 eax
  00022	8d 45 f4	 lea	 eax, DWORD PTR __$EHRec$[ebp]
  00025	64 a3 00 00 00
	00		 mov	 DWORD PTR fs:0, eax
  0002b	8b f9		 mov	 edi, ecx
  0002d	8b 5d 08	 mov	 ebx, DWORD PTR _rTextFileLoader$[ebp]

; 100  : 	if (!rTextFileLoader.GetTokenFloat("duration",&m_fDuration))

  00030	8d 4d d8	 lea	 ecx, DWORD PTR $T3[ebp]
  00033	68 00 00 00 00	 push	 OFFSET ??_C@_08LGBPINEC@duration@
  00038	e8 00 00 00 00	 call	 ??0?$basic_string@DU?$char_traits@D@std@@V?$allocator@D@2@@std@@QAE@QBD@Z ; std::basic_string<char,std::char_traits<char>,std::allocator<char> >::basic_string<char,std::char_traits<char>,std::allocator<char> >
  0003d	8d 77 18	 lea	 esi, DWORD PTR [edi+24]
  00040	c7 45 fc 00 00
	00 00		 mov	 DWORD PTR __$EHRec$[ebp+8], 0
  00047	56		 push	 esi
  00048	8d 45 d8	 lea	 eax, DWORD PTR $T3[ebp]
  0004b	8b cb		 mov	 ecx, ebx
  0004d	50		 push	 eax
  0004e	e8 00 00 00 00	 call	 ?GetTokenFloat@CTextFileLoader@@QAEHABV?$basic_string@DU?$char_traits@D@std@@V?$allocator@D@2@@std@@PAM@Z ; CTextFileLoader::GetTokenFloat
; File D:\Program Files\Microsoft Visual Studio\2022\Community\VC\Tools\MSVC\14.43.34808\include\xstring

; 434  :         return _Myres > _Small_string_capacity;

  00053	8b 4d ec	 mov	 ecx, DWORD PTR $T3[ebp+20]
; File C:\Marty 5.5\Src-Client\Client\EffectLib\SimpleLightData.cpp

; 100  : 	if (!rTextFileLoader.GetTokenFloat("duration",&m_fDuration))

  00056	89 45 bc	 mov	 DWORD PTR tv884[ebp], eax
  00059	c7 45 fc ff ff
	ff ff		 mov	 DWORD PTR __$EHRec$[ebp+8], -1
; File D:\Program Files\Microsoft Visual Studio\2022\Community\VC\Tools\MSVC\14.43.34808\include\xstring

; 434  :         return _Myres > _Small_string_capacity;

  00060	83 f9 0f	 cmp	 ecx, 15			; 0000000fH

; 3047 :         if (_My_data._Large_mode_engaged()) {

  00063	76 2f		 jbe	 SHORT $LN42@OnLoadScri
; File D:\Program Files\Microsoft Visual Studio\2022\Community\VC\Tools\MSVC\14.43.34808\include\xmemory

; 981  :         _STD _Deallocate<_New_alignof<_Ty>>(_Ptr, sizeof(_Ty) * _Count);

  00065	8b 55 d8	 mov	 edx, DWORD PTR $T3[ebp]
; File D:\Program Files\Microsoft Visual Studio\2022\Community\VC\Tools\MSVC\14.43.34808\include\xstring

; 828  :         _Al.deallocate(_Old_ptr, _Capacity + 1); // +1 for null terminator

  00068	41		 inc	 ecx
; File D:\Program Files\Microsoft Visual Studio\2022\Community\VC\Tools\MSVC\14.43.34808\include\xmemory

; 981  :         _STD _Deallocate<_New_alignof<_Ty>>(_Ptr, sizeof(_Ty) * _Count);

  00069	8b c2		 mov	 eax, edx

; 284  :         if (_Bytes >= _Big_allocation_threshold) {

  0006b	81 f9 00 10 00
	00		 cmp	 ecx, 4096		; 00001000H
  00071	72 14		 jb	 SHORT $LN53@OnLoadScri

; 205  :     const uintptr_t _Ptr_container   = _Ptr_user[-1];

  00073	8b 50 fc	 mov	 edx, DWORD PTR [eax-4]
  00076	83 c1 23	 add	 ecx, 35			; 00000023H
  00079	2b c2		 sub	 eax, edx

; 219  :     _STL_VERIFY(_Back_shift >= _Min_back_shift && _Back_shift <= _Non_user_size, "invalid argument");

  0007b	83 c0 fc	 add	 eax, -4			; fffffffcH
  0007e	83 f8 1f	 cmp	 eax, 31			; 0000001fH
  00081	0f 87 ea 02 00
	00		 ja	 $LN221@OnLoadScri
$LN53@OnLoadScri:

; 289  :         ::operator delete(_Ptr, _Bytes);

  00087	51		 push	 ecx
  00088	52		 push	 edx
  00089	e8 00 00 00 00	 call	 ??3@YAXPAXI@Z		; operator delete
  0008e	8b 45 bc	 mov	 eax, DWORD PTR tv884[ebp]
  00091	83 c4 08	 add	 esp, 8
$LN42@OnLoadScri:
; File C:\Marty 5.5\Src-Client\Client\EffectLib\SimpleLightData.cpp

; 100  : 	if (!rTextFileLoader.GetTokenFloat("duration",&m_fDuration))

  00094	85 c0		 test	 eax, eax
  00096	75 06		 jne	 SHORT $LN2@OnLoadScri

; 101  : 		m_fDuration = 1.0f;

  00098	c7 06 00 00 80
	3f		 mov	 DWORD PTR [esi], 1065353216 ; 3f800000H
$LN2@OnLoadScri:

; 103  : 	if (!rTextFileLoader.GetTokenBoolean("loopflag",&m_bLoopFlag))

  0009e	68 00 00 00 00	 push	 OFFSET ??_C@_08NIJNIMBK@loopflag@
  000a3	8d 4d d8	 lea	 ecx, DWORD PTR $T4[ebp]
  000a6	e8 00 00 00 00	 call	 ??0?$basic_string@DU?$char_traits@D@std@@V?$allocator@D@2@@std@@QAE@QBD@Z ; std::basic_string<char,std::char_traits<char>,std::allocator<char> >::basic_string<char,std::char_traits<char>,std::allocator<char> >
  000ab	8d 77 48	 lea	 esi, DWORD PTR [edi+72]
  000ae	c7 45 fc 01 00
	00 00		 mov	 DWORD PTR __$EHRec$[ebp+8], 1
  000b5	56		 push	 esi
  000b6	8d 45 d8	 lea	 eax, DWORD PTR $T4[ebp]
  000b9	8b cb		 mov	 ecx, ebx
  000bb	50		 push	 eax
  000bc	e8 00 00 00 00	 call	 ?GetTokenBoolean@CTextFileLoader@@QAEHABV?$basic_string@DU?$char_traits@D@std@@V?$allocator@D@2@@std@@PAH@Z ; CTextFileLoader::GetTokenBoolean
; File D:\Program Files\Microsoft Visual Studio\2022\Community\VC\Tools\MSVC\14.43.34808\include\xstring

; 434  :         return _Myres > _Small_string_capacity;

  000c1	8b 4d ec	 mov	 ecx, DWORD PTR $T4[ebp+20]
; File C:\Marty 5.5\Src-Client\Client\EffectLib\SimpleLightData.cpp

; 103  : 	if (!rTextFileLoader.GetTokenBoolean("loopflag",&m_bLoopFlag))

  000c4	89 45 bc	 mov	 DWORD PTR tv882[ebp], eax
  000c7	c7 45 fc ff ff
	ff ff		 mov	 DWORD PTR __$EHRec$[ebp+8], -1
; File D:\Program Files\Microsoft Visual Studio\2022\Community\VC\Tools\MSVC\14.43.34808\include\xstring

; 434  :         return _Myres > _Small_string_capacity;

  000ce	83 f9 0f	 cmp	 ecx, 15			; 0000000fH

; 3047 :         if (_My_data._Large_mode_engaged()) {

  000d1	76 2f		 jbe	 SHORT $LN80@OnLoadScri
; File D:\Program Files\Microsoft Visual Studio\2022\Community\VC\Tools\MSVC\14.43.34808\include\xmemory

; 981  :         _STD _Deallocate<_New_alignof<_Ty>>(_Ptr, sizeof(_Ty) * _Count);

  000d3	8b 55 d8	 mov	 edx, DWORD PTR $T4[ebp]
; File D:\Program Files\Microsoft Visual Studio\2022\Community\VC\Tools\MSVC\14.43.34808\include\xstring

; 828  :         _Al.deallocate(_Old_ptr, _Capacity + 1); // +1 for null terminator

  000d6	41		 inc	 ecx
; File D:\Program Files\Microsoft Visual Studio\2022\Community\VC\Tools\MSVC\14.43.34808\include\xmemory

; 981  :         _STD _Deallocate<_New_alignof<_Ty>>(_Ptr, sizeof(_Ty) * _Count);

  000d7	8b c2		 mov	 eax, edx

; 284  :         if (_Bytes >= _Big_allocation_threshold) {

  000d9	81 f9 00 10 00
	00		 cmp	 ecx, 4096		; 00001000H
  000df	72 14		 jb	 SHORT $LN91@OnLoadScri

; 205  :     const uintptr_t _Ptr_container   = _Ptr_user[-1];

  000e1	8b 50 fc	 mov	 edx, DWORD PTR [eax-4]
  000e4	83 c1 23	 add	 ecx, 35			; 00000023H
  000e7	2b c2		 sub	 eax, edx

; 219  :     _STL_VERIFY(_Back_shift >= _Min_back_shift && _Back_shift <= _Non_user_size, "invalid argument");

  000e9	83 c0 fc	 add	 eax, -4			; fffffffcH
  000ec	83 f8 1f	 cmp	 eax, 31			; 0000001fH
  000ef	0f 87 81 02 00
	00		 ja	 $LN222@OnLoadScri
$LN91@OnLoadScri:

; 289  :         ::operator delete(_Ptr, _Bytes);

  000f5	51		 push	 ecx
  000f6	52		 push	 edx
  000f7	e8 00 00 00 00	 call	 ??3@YAXPAXI@Z		; operator delete
  000fc	8b 45 bc	 mov	 eax, DWORD PTR tv882[ebp]
  000ff	83 c4 08	 add	 esp, 8
$LN80@OnLoadScri:
; File C:\Marty 5.5\Src-Client\Client\EffectLib\SimpleLightData.cpp

; 103  : 	if (!rTextFileLoader.GetTokenBoolean("loopflag",&m_bLoopFlag))

  00102	85 c0		 test	 eax, eax
  00104	75 02		 jne	 SHORT $LN3@OnLoadScri

; 104  : 		m_bLoopFlag = false;

  00106	89 06		 mov	 DWORD PTR [esi], eax
$LN3@OnLoadScri:

; 106  : 	if (!rTextFileLoader.GetTokenInteger("loopcount",&m_iLoopCount))

  00108	68 00 00 00 00	 push	 OFFSET ??_C@_09HBCOMICA@loopcount@
  0010d	8d 4d d8	 lea	 ecx, DWORD PTR $T5[ebp]
  00110	e8 00 00 00 00	 call	 ??0?$basic_string@DU?$char_traits@D@std@@V?$allocator@D@2@@std@@QAE@QBD@Z ; std::basic_string<char,std::char_traits<char>,std::allocator<char> >::basic_string<char,std::char_traits<char>,std::allocator<char> >
  00115	8d 77 4c	 lea	 esi, DWORD PTR [edi+76]
  00118	c7 45 fc 02 00
	00 00		 mov	 DWORD PTR __$EHRec$[ebp+8], 2
  0011f	56		 push	 esi
  00120	8d 45 d8	 lea	 eax, DWORD PTR $T5[ebp]
  00123	8b cb		 mov	 ecx, ebx
  00125	50		 push	 eax
  00126	e8 00 00 00 00	 call	 ?GetTokenInteger@CTextFileLoader@@QAEHABV?$basic_string@DU?$char_traits@D@std@@V?$allocator@D@2@@std@@PAH@Z ; CTextFileLoader::GetTokenInteger
; File D:\Program Files\Microsoft Visual Studio\2022\Community\VC\Tools\MSVC\14.43.34808\include\xstring

; 434  :         return _Myres > _Small_string_capacity;

  0012b	8b 4d ec	 mov	 ecx, DWORD PTR $T5[ebp+20]
; File C:\Marty 5.5\Src-Client\Client\EffectLib\SimpleLightData.cpp

; 106  : 	if (!rTextFileLoader.GetTokenInteger("loopcount",&m_iLoopCount))

  0012e	89 45 bc	 mov	 DWORD PTR tv881[ebp], eax
  00131	c7 45 fc ff ff
	ff ff		 mov	 DWORD PTR __$EHRec$[ebp+8], -1
; File D:\Program Files\Microsoft Visual Studio\2022\Community\VC\Tools\MSVC\14.43.34808\include\xstring

; 434  :         return _Myres > _Small_string_capacity;

  00138	83 f9 0f	 cmp	 ecx, 15			; 0000000fH

; 3047 :         if (_My_data._Large_mode_engaged()) {

  0013b	76 2f		 jbe	 SHORT $LN117@OnLoadScri
; File D:\Program Files\Microsoft Visual Studio\2022\Community\VC\Tools\MSVC\14.43.34808\include\xmemory

; 981  :         _STD _Deallocate<_New_alignof<_Ty>>(_Ptr, sizeof(_Ty) * _Count);

  0013d	8b 55 d8	 mov	 edx, DWORD PTR $T5[ebp]
; File D:\Program Files\Microsoft Visual Studio\2022\Community\VC\Tools\MSVC\14.43.34808\include\xstring

; 828  :         _Al.deallocate(_Old_ptr, _Capacity + 1); // +1 for null terminator

  00140	41		 inc	 ecx
; File D:\Program Files\Microsoft Visual Studio\2022\Community\VC\Tools\MSVC\14.43.34808\include\xmemory

; 981  :         _STD _Deallocate<_New_alignof<_Ty>>(_Ptr, sizeof(_Ty) * _Count);

  00141	8b c2		 mov	 eax, edx

; 284  :         if (_Bytes >= _Big_allocation_threshold) {

  00143	81 f9 00 10 00
	00		 cmp	 ecx, 4096		; 00001000H
  00149	72 14		 jb	 SHORT $LN128@OnLoadScri

; 205  :     const uintptr_t _Ptr_container   = _Ptr_user[-1];

  0014b	8b 50 fc	 mov	 edx, DWORD PTR [eax-4]
  0014e	83 c1 23	 add	 ecx, 35			; 00000023H
  00151	2b c2		 sub	 eax, edx

; 219  :     _STL_VERIFY(_Back_shift >= _Min_back_shift && _Back_shift <= _Non_user_size, "invalid argument");

  00153	83 c0 fc	 add	 eax, -4			; fffffffcH
  00156	83 f8 1f	 cmp	 eax, 31			; 0000001fH
  00159	0f 87 1c 02 00
	00		 ja	 $LN223@OnLoadScri
$LN128@OnLoadScri:

; 289  :         ::operator delete(_Ptr, _Bytes);

  0015f	51		 push	 ecx
  00160	52		 push	 edx
  00161	e8 00 00 00 00	 call	 ??3@YAXPAXI@Z		; operator delete
  00166	8b 45 bc	 mov	 eax, DWORD PTR tv881[ebp]
  00169	83 c4 08	 add	 esp, 8
$LN117@OnLoadScri:
; File C:\Marty 5.5\Src-Client\Client\EffectLib\SimpleLightData.cpp

; 106  : 	if (!rTextFileLoader.GetTokenInteger("loopcount",&m_iLoopCount))

  0016c	85 c0		 test	 eax, eax
  0016e	75 02		 jne	 SHORT $LN4@OnLoadScri

; 107  : 		m_iLoopCount = 0;

  00170	89 06		 mov	 DWORD PTR [esi], eax
$LN4@OnLoadScri:

; 109  : 	if (!rTextFileLoader.GetTokenColor("ambientcolor",&m_cAmbient))

  00172	68 00 00 00 00	 push	 OFFSET ??_C@_0N@MBJLBHOD@ambientcolor@
  00177	8d 4d d8	 lea	 ecx, DWORD PTR $T6[ebp]
  0017a	e8 00 00 00 00	 call	 ??0?$basic_string@DU?$char_traits@D@std@@V?$allocator@D@2@@std@@QAE@QBD@Z ; std::basic_string<char,std::char_traits<char>,std::allocator<char> >::basic_string<char,std::char_traits<char>,std::allocator<char> >
  0017f	8d 47 28	 lea	 eax, DWORD PTR [edi+40]
  00182	c7 45 fc 03 00
	00 00		 mov	 DWORD PTR __$EHRec$[ebp+8], 3
  00189	50		 push	 eax
  0018a	8d 45 d8	 lea	 eax, DWORD PTR $T6[ebp]
  0018d	8b cb		 mov	 ecx, ebx
  0018f	50		 push	 eax
  00190	e8 00 00 00 00	 call	 ?GetTokenColor@CTextFileLoader@@QAEHABV?$basic_string@DU?$char_traits@D@std@@V?$allocator@D@2@@std@@PAUD3DXCOLOR@@@Z ; CTextFileLoader::GetTokenColor
; File D:\Program Files\Microsoft Visual Studio\2022\Community\VC\Tools\MSVC\14.43.34808\include\xstring

; 434  :         return _Myres > _Small_string_capacity;

  00195	8b 4d ec	 mov	 ecx, DWORD PTR $T6[ebp+20]
; File C:\Marty 5.5\Src-Client\Client\EffectLib\SimpleLightData.cpp

; 109  : 	if (!rTextFileLoader.GetTokenColor("ambientcolor",&m_cAmbient))

  00198	8b f0		 mov	 esi, eax
  0019a	c7 45 fc ff ff
	ff ff		 mov	 DWORD PTR __$EHRec$[ebp+8], -1
; File D:\Program Files\Microsoft Visual Studio\2022\Community\VC\Tools\MSVC\14.43.34808\include\xstring

; 434  :         return _Myres > _Small_string_capacity;

  001a1	83 f9 0f	 cmp	 ecx, 15			; 0000000fH

; 3047 :         if (_My_data._Large_mode_engaged()) {

  001a4	76 2c		 jbe	 SHORT $LN154@OnLoadScri
; File D:\Program Files\Microsoft Visual Studio\2022\Community\VC\Tools\MSVC\14.43.34808\include\xmemory

; 981  :         _STD _Deallocate<_New_alignof<_Ty>>(_Ptr, sizeof(_Ty) * _Count);

  001a6	8b 55 d8	 mov	 edx, DWORD PTR $T6[ebp]
; File D:\Program Files\Microsoft Visual Studio\2022\Community\VC\Tools\MSVC\14.43.34808\include\xstring

; 828  :         _Al.deallocate(_Old_ptr, _Capacity + 1); // +1 for null terminator

  001a9	41		 inc	 ecx
; File D:\Program Files\Microsoft Visual Studio\2022\Community\VC\Tools\MSVC\14.43.34808\include\xmemory

; 981  :         _STD _Deallocate<_New_alignof<_Ty>>(_Ptr, sizeof(_Ty) * _Count);

  001aa	8b c2		 mov	 eax, edx

; 284  :         if (_Bytes >= _Big_allocation_threshold) {

  001ac	81 f9 00 10 00
	00		 cmp	 ecx, 4096		; 00001000H
  001b2	72 14		 jb	 SHORT $LN165@OnLoadScri

; 205  :     const uintptr_t _Ptr_container   = _Ptr_user[-1];

  001b4	8b 50 fc	 mov	 edx, DWORD PTR [eax-4]
  001b7	83 c1 23	 add	 ecx, 35			; 00000023H
  001ba	2b c2		 sub	 eax, edx

; 219  :     _STL_VERIFY(_Back_shift >= _Min_back_shift && _Back_shift <= _Non_user_size, "invalid argument");

  001bc	83 c0 fc	 add	 eax, -4			; fffffffcH
  001bf	83 f8 1f	 cmp	 eax, 31			; 0000001fH
  001c2	0f 87 b8 01 00
	00		 ja	 $LN224@OnLoadScri
$LN165@OnLoadScri:

; 289  :         ::operator delete(_Ptr, _Bytes);

  001c8	51		 push	 ecx
  001c9	52		 push	 edx
  001ca	e8 00 00 00 00	 call	 ??3@YAXPAXI@Z		; operator delete
  001cf	83 c4 08	 add	 esp, 8
$LN154@OnLoadScri:
; File C:\Marty 5.5\Src-Client\Client\EffectLib\SimpleLightData.cpp

; 109  : 	if (!rTextFileLoader.GetTokenColor("ambientcolor",&m_cAmbient))

  001d2	85 f6		 test	 esi, esi
  001d4	0f 84 77 01 00
	00		 je	 $LN212@OnLoadScri

; 112  : 	if (!rTextFileLoader.GetTokenColor("diffusecolor",&m_cDiffuse))

  001da	68 00 00 00 00	 push	 OFFSET ??_C@_0N@BELHEGHB@diffusecolor@
  001df	8d 4d d8	 lea	 ecx, DWORD PTR $T7[ebp]
  001e2	e8 00 00 00 00	 call	 ??0?$basic_string@DU?$char_traits@D@std@@V?$allocator@D@2@@std@@QAE@QBD@Z ; std::basic_string<char,std::char_traits<char>,std::allocator<char> >::basic_string<char,std::char_traits<char>,std::allocator<char> >
  001e7	8d 47 38	 lea	 eax, DWORD PTR [edi+56]
  001ea	c7 45 fc 04 00
	00 00		 mov	 DWORD PTR __$EHRec$[ebp+8], 4
  001f1	50		 push	 eax
  001f2	8d 45 d8	 lea	 eax, DWORD PTR $T7[ebp]
  001f5	8b cb		 mov	 ecx, ebx
  001f7	50		 push	 eax
  001f8	e8 00 00 00 00	 call	 ?GetTokenColor@CTextFileLoader@@QAEHABV?$basic_string@DU?$char_traits@D@std@@V?$allocator@D@2@@std@@PAUD3DXCOLOR@@@Z ; CTextFileLoader::GetTokenColor
; File D:\Program Files\Microsoft Visual Studio\2022\Community\VC\Tools\MSVC\14.43.34808\include\xstring

; 434  :         return _Myres > _Small_string_capacity;

  001fd	8b 4d ec	 mov	 ecx, DWORD PTR $T7[ebp+20]
; File C:\Marty 5.5\Src-Client\Client\EffectLib\SimpleLightData.cpp

; 112  : 	if (!rTextFileLoader.GetTokenColor("diffusecolor",&m_cDiffuse))

  00200	8b f0		 mov	 esi, eax
  00202	c7 45 fc ff ff
	ff ff		 mov	 DWORD PTR __$EHRec$[ebp+8], -1
; File D:\Program Files\Microsoft Visual Studio\2022\Community\VC\Tools\MSVC\14.43.34808\include\xstring

; 434  :         return _Myres > _Small_string_capacity;

  00209	83 f9 0f	 cmp	 ecx, 15			; 0000000fH

; 3047 :         if (_My_data._Large_mode_engaged()) {

  0020c	76 2c		 jbe	 SHORT $LN191@OnLoadScri
; File D:\Program Files\Microsoft Visual Studio\2022\Community\VC\Tools\MSVC\14.43.34808\include\xmemory

; 981  :         _STD _Deallocate<_New_alignof<_Ty>>(_Ptr, sizeof(_Ty) * _Count);

  0020e	8b 55 d8	 mov	 edx, DWORD PTR $T7[ebp]
; File D:\Program Files\Microsoft Visual Studio\2022\Community\VC\Tools\MSVC\14.43.34808\include\xstring

; 828  :         _Al.deallocate(_Old_ptr, _Capacity + 1); // +1 for null terminator

  00211	41		 inc	 ecx
; File D:\Program Files\Microsoft Visual Studio\2022\Community\VC\Tools\MSVC\14.43.34808\include\xmemory

; 981  :         _STD _Deallocate<_New_alignof<_Ty>>(_Ptr, sizeof(_Ty) * _Count);

  00212	8b c2		 mov	 eax, edx

; 284  :         if (_Bytes >= _Big_allocation_threshold) {

  00214	81 f9 00 10 00
	00		 cmp	 ecx, 4096		; 00001000H
  0021a	72 14		 jb	 SHORT $LN202@OnLoadScri

; 205  :     const uintptr_t _Ptr_container   = _Ptr_user[-1];

  0021c	8b 50 fc	 mov	 edx, DWORD PTR [eax-4]
  0021f	83 c1 23	 add	 ecx, 35			; 00000023H
  00222	2b c2		 sub	 eax, edx

; 219  :     _STL_VERIFY(_Back_shift >= _Min_back_shift && _Back_shift <= _Non_user_size, "invalid argument");

  00224	83 c0 fc	 add	 eax, -4			; fffffffcH
  00227	83 f8 1f	 cmp	 eax, 31			; 0000001fH
  0022a	0f 87 55 01 00
	00		 ja	 $LN225@OnLoadScri
$LN202@OnLoadScri:

; 289  :         ::operator delete(_Ptr, _Bytes);

  00230	51		 push	 ecx
  00231	52		 push	 edx
  00232	e8 00 00 00 00	 call	 ??3@YAXPAXI@Z		; operator delete
  00237	83 c4 08	 add	 esp, 8
$LN191@OnLoadScri:
; File C:\Marty 5.5\Src-Client\Client\EffectLib\SimpleLightData.cpp

; 112  : 	if (!rTextFileLoader.GetTokenColor("diffusecolor",&m_cDiffuse))

  0023a	85 f6		 test	 esi, esi
  0023c	0f 84 0f 01 00
	00		 je	 $LN212@OnLoadScri

; 113  : 		return FALSE;
; 114  : 
; 115  : 	if (!rTextFileLoader.GetTokenFloat("maxrange",&m_fMaxRange))

  00242	68 00 00 00 00	 push	 OFFSET ??_C@_08BLEPIDIL@maxrange@
  00247	8d 4d d8	 lea	 ecx, DWORD PTR $T8[ebp]
  0024a	e8 00 00 00 00	 call	 ??0?$basic_string@DU?$char_traits@D@std@@V?$allocator@D@2@@std@@QAE@QBD@Z ; std::basic_string<char,std::char_traits<char>,std::allocator<char> >::basic_string<char,std::char_traits<char>,std::allocator<char> >
  0024f	8d 47 14	 lea	 eax, DWORD PTR [edi+20]
  00252	c7 45 fc 05 00
	00 00		 mov	 DWORD PTR __$EHRec$[ebp+8], 5
  00259	50		 push	 eax
  0025a	8d 45 d8	 lea	 eax, DWORD PTR $T8[ebp]
  0025d	8b cb		 mov	 ecx, ebx
  0025f	50		 push	 eax
  00260	e8 00 00 00 00	 call	 ?GetTokenFloat@CTextFileLoader@@QAEHABV?$basic_string@DU?$char_traits@D@std@@V?$allocator@D@2@@std@@PAM@Z ; CTextFileLoader::GetTokenFloat
  00265	8d 4d d8	 lea	 ecx, DWORD PTR $T8[ebp]
  00268	c7 45 fc ff ff
	ff ff		 mov	 DWORD PTR __$EHRec$[ebp+8], -1
  0026f	8b f0		 mov	 esi, eax
  00271	e8 00 00 00 00	 call	 ??1?$basic_string@DU?$char_traits@D@std@@V?$allocator@D@2@@std@@QAE@XZ ; std::basic_string<char,std::char_traits<char>,std::allocator<char> >::~basic_string<char,std::char_traits<char>,std::allocator<char> >
  00276	85 f6		 test	 esi, esi
  00278	0f 84 d3 00 00
	00		 je	 $LN212@OnLoadScri

; 116  : 		return FALSE;
; 117  : 
; 118  : 	if (!rTextFileLoader.GetTokenFloat("attenuation0",&m_fAttenuation0))

  0027e	68 00 00 00 00	 push	 OFFSET ??_C@_0N@NKJMABJM@attenuation0@
  00283	8d 4d d8	 lea	 ecx, DWORD PTR $T9[ebp]
  00286	e8 00 00 00 00	 call	 ??0?$basic_string@DU?$char_traits@D@std@@V?$allocator@D@2@@std@@QAE@QBD@Z ; std::basic_string<char,std::char_traits<char>,std::allocator<char> >::basic_string<char,std::char_traits<char>,std::allocator<char> >
  0028b	8d 47 50	 lea	 eax, DWORD PTR [edi+80]
  0028e	c7 45 fc 06 00
	00 00		 mov	 DWORD PTR __$EHRec$[ebp+8], 6
  00295	50		 push	 eax
  00296	8d 45 d8	 lea	 eax, DWORD PTR $T9[ebp]
  00299	8b cb		 mov	 ecx, ebx
  0029b	50		 push	 eax
  0029c	e8 00 00 00 00	 call	 ?GetTokenFloat@CTextFileLoader@@QAEHABV?$basic_string@DU?$char_traits@D@std@@V?$allocator@D@2@@std@@PAM@Z ; CTextFileLoader::GetTokenFloat
  002a1	8d 4d d8	 lea	 ecx, DWORD PTR $T9[ebp]
  002a4	c7 45 fc ff ff
	ff ff		 mov	 DWORD PTR __$EHRec$[ebp+8], -1
  002ab	8b f0		 mov	 esi, eax
  002ad	e8 00 00 00 00	 call	 ??1?$basic_string@DU?$char_traits@D@std@@V?$allocator@D@2@@std@@QAE@XZ ; std::basic_string<char,std::char_traits<char>,std::allocator<char> >::~basic_string<char,std::char_traits<char>,std::allocator<char> >
  002b2	85 f6		 test	 esi, esi
  002b4	0f 84 97 00 00
	00		 je	 $LN212@OnLoadScri

; 119  : 		return FALSE;
; 120  : 
; 121  : 	if (!rTextFileLoader.GetTokenFloat("attenuation1",&m_fAttenuation1))

  002ba	68 00 00 00 00	 push	 OFFSET ??_C@_0N@MDIHDANN@attenuation1@
  002bf	8d 4d d8	 lea	 ecx, DWORD PTR $T10[ebp]
  002c2	e8 00 00 00 00	 call	 ??0?$basic_string@DU?$char_traits@D@std@@V?$allocator@D@2@@std@@QAE@QBD@Z ; std::basic_string<char,std::char_traits<char>,std::allocator<char> >::basic_string<char,std::char_traits<char>,std::allocator<char> >
  002c7	8d 47 54	 lea	 eax, DWORD PTR [edi+84]
  002ca	c7 45 fc 07 00
	00 00		 mov	 DWORD PTR __$EHRec$[ebp+8], 7
  002d1	50		 push	 eax
  002d2	8d 45 d8	 lea	 eax, DWORD PTR $T10[ebp]
  002d5	8b cb		 mov	 ecx, ebx
  002d7	50		 push	 eax
  002d8	e8 00 00 00 00	 call	 ?GetTokenFloat@CTextFileLoader@@QAEHABV?$basic_string@DU?$char_traits@D@std@@V?$allocator@D@2@@std@@PAM@Z ; CTextFileLoader::GetTokenFloat
  002dd	8d 4d d8	 lea	 ecx, DWORD PTR $T10[ebp]
  002e0	c7 45 fc ff ff
	ff ff		 mov	 DWORD PTR __$EHRec$[ebp+8], -1
  002e7	8b f0		 mov	 esi, eax
  002e9	e8 00 00 00 00	 call	 ??1?$basic_string@DU?$char_traits@D@std@@V?$allocator@D@2@@std@@QAE@XZ ; std::basic_string<char,std::char_traits<char>,std::allocator<char> >::~basic_string<char,std::char_traits<char>,std::allocator<char> >
  002ee	85 f6		 test	 esi, esi
  002f0	74 5f		 je	 SHORT $LN212@OnLoadScri

; 122  : 		return FALSE;
; 123  : 
; 124  : 	if (!rTextFileLoader.GetTokenFloat("attenuation2",&m_fAttenuation2))

  002f2	68 00 00 00 00	 push	 OFFSET ??_C@_0N@OIKKGDBO@attenuation2@
  002f7	8d 4d c0	 lea	 ecx, DWORD PTR $T2[ebp]
  002fa	e8 00 00 00 00	 call	 ??0?$basic_string@DU?$char_traits@D@std@@V?$allocator@D@2@@std@@QAE@QBD@Z ; std::basic_string<char,std::char_traits<char>,std::allocator<char> >::basic_string<char,std::char_traits<char>,std::allocator<char> >
  002ff	8d 47 58	 lea	 eax, DWORD PTR [edi+88]
  00302	c7 45 fc 08 00
	00 00		 mov	 DWORD PTR __$EHRec$[ebp+8], 8
  00309	50		 push	 eax
  0030a	8d 45 c0	 lea	 eax, DWORD PTR $T2[ebp]
  0030d	8b cb		 mov	 ecx, ebx
  0030f	50		 push	 eax
  00310	e8 00 00 00 00	 call	 ?GetTokenFloat@CTextFileLoader@@QAEHABV?$basic_string@DU?$char_traits@D@std@@V?$allocator@D@2@@std@@PAM@Z ; CTextFileLoader::GetTokenFloat
  00315	8d 4d c0	 lea	 ecx, DWORD PTR $T2[ebp]
  00318	c7 45 fc ff ff
	ff ff		 mov	 DWORD PTR __$EHRec$[ebp+8], -1
  0031f	8b f0		 mov	 esi, eax
  00321	e8 00 00 00 00	 call	 ??1?$basic_string@DU?$char_traits@D@std@@V?$allocator@D@2@@std@@QAE@XZ ; std::basic_string<char,std::char_traits<char>,std::allocator<char> >::~basic_string<char,std::char_traits<char>,std::allocator<char> >
  00326	85 f6		 test	 esi, esi
  00328	74 27		 je	 SHORT $LN212@OnLoadScri

; 126  : 
; 127  : 	if (!GetTokenTimeEventFloat(rTextFileLoader,"timeeventrange",&m_TimeEventTableRange))

  0032a	8d 77 1c	 lea	 esi, DWORD PTR [edi+28]
  0032d	56		 push	 esi
  0032e	68 00 00 00 00	 push	 OFFSET ??_C@_0P@CJMOPDJ@timeeventrange@
  00333	53		 push	 ebx
  00334	e8 00 00 00 00	 call	 ?GetTokenTimeEventFloat@@YAHAAVCTextFileLoader@@PBDPAV?$vector@V?$CTimeEvent@M@@V?$allocator@V?$CTimeEvent@M@@@std@@@std@@@Z ; GetTokenTimeEventFloat
  00339	83 c4 0c	 add	 esp, 12			; 0000000cH
  0033c	85 c0		 test	 eax, eax
  0033e	75 0a		 jne	 SHORT $LN208@OnLoadScri
; File D:\Program Files\Microsoft Visual Studio\2022\Community\VC\Tools\MSVC\14.43.34808\include\vector

; 1797 :         if (_Myfirst == _Mylast) { // already empty, nothing to do

  00340	8b 06		 mov	 eax, DWORD PTR [esi]
  00342	3b 46 04	 cmp	 eax, DWORD PTR [esi+4]
  00345	74 03		 je	 SHORT $LN208@OnLoadScri

; 1798 :             // This is an optimization for debug mode: we can avoid taking the debug lock to invalidate iterators.
; 1799 :             // Note that when clearing an empty vector, this will preserve past-the-end iterators, which is allowed by
; 1800 :             // N4950 [sequence.reqmts]/54 "a.clear() [...] may invalidate the past-the-end iterator".
; 1801 :             return;
; 1802 :         }
; 1803 : 
; 1804 :         _My_data._Orphan_all();
; 1805 :         _Destroy_range(_Myfirst, _Mylast, _Getal());
; 1806 :         _ASAN_VECTOR_MODIFY(static_cast<difference_type>(_Myfirst - _Mylast)); // negative when destroying elements
; 1807 :         _Mylast = _Myfirst;

  00347	89 46 04	 mov	 DWORD PTR [esi+4], eax
$LN208@OnLoadScri:
; File C:\Marty 5.5\Src-Client\Client\EffectLib\SimpleLightData.cpp

; 132  : 	return true;

  0034a	b8 01 00 00 00	 mov	 eax, 1
  0034f	eb 02		 jmp	 SHORT $LN1@OnLoadScri
$LN212@OnLoadScri:

; 125  : 		return FALSE;

  00351	33 c0		 xor	 eax, eax
$LN1@OnLoadScri:

; 133  : }

  00353	8b 4d f4	 mov	 ecx, DWORD PTR __$EHRec$[ebp]
  00356	64 89 0d 00 00
	00 00		 mov	 DWORD PTR fs:0, ecx
  0035d	59		 pop	 ecx
  0035e	5f		 pop	 edi
  0035f	5e		 pop	 esi
  00360	5b		 pop	 ebx
  00361	8b 4d f0	 mov	 ecx, DWORD PTR __$ArrayPad$[ebp]
  00364	33 cd		 xor	 ecx, ebp
  00366	e8 00 00 00 00	 call	 @__security_check_cookie@4
  0036b	8b e5		 mov	 esp, ebp
  0036d	5d		 pop	 ebp
  0036e	c2 04 00	 ret	 4
$LN221@OnLoadScri:
; File D:\Program Files\Microsoft Visual Studio\2022\Community\VC\Tools\MSVC\14.43.34808\include\xmemory

; 219  :     _STL_VERIFY(_Back_shift >= _Min_back_shift && _Back_shift <= _Non_user_size, "invalid argument");

  00371	e8 00 00 00 00	 call	 __invalid_parameter_noinfo_noreturn
$LN222@OnLoadScri:
  00376	e8 00 00 00 00	 call	 __invalid_parameter_noinfo_noreturn
$LN223@OnLoadScri:
  0037b	e8 00 00 00 00	 call	 __invalid_parameter_noinfo_noreturn
$LN224@OnLoadScri:
  00380	e8 00 00 00 00	 call	 __invalid_parameter_noinfo_noreturn
$LN225@OnLoadScri:
  00385	e8 00 00 00 00	 call	 __invalid_parameter_noinfo_noreturn
$LN219@OnLoadScri:
  0038a	cc		 int	 3
_TEXT	ENDS
;	COMDAT text$x
text$x	SEGMENT
__unwindfunclet$?OnLoadScript@CLightData@@MAEHAAVCTextFileLoader@@@Z$0:
  00000	8d 4d d8	 lea	 ecx, DWORD PTR $T3[ebp]
  00003	e9 00 00 00 00	 jmp	 ??1?$basic_string@DU?$char_traits@D@std@@V?$allocator@D@2@@std@@QAE@XZ ; std::basic_string<char,std::char_traits<char>,std::allocator<char> >::~basic_string<char,std::char_traits<char>,std::allocator<char> >
__unwindfunclet$?OnLoadScript@CLightData@@MAEHAAVCTextFileLoader@@@Z$1:
  00008	8d 4d d8	 lea	 ecx, DWORD PTR $T4[ebp]
  0000b	e9 00 00 00 00	 jmp	 ??1?$basic_string@DU?$char_traits@D@std@@V?$allocator@D@2@@std@@QAE@XZ ; std::basic_string<char,std::char_traits<char>,std::allocator<char> >::~basic_string<char,std::char_traits<char>,std::allocator<char> >
__unwindfunclet$?OnLoadScript@CLightData@@MAEHAAVCTextFileLoader@@@Z$2:
  00010	8d 4d d8	 lea	 ecx, DWORD PTR $T5[ebp]
  00013	e9 00 00 00 00	 jmp	 ??1?$basic_string@DU?$char_traits@D@std@@V?$allocator@D@2@@std@@QAE@XZ ; std::basic_string<char,std::char_traits<char>,std::allocator<char> >::~basic_string<char,std::char_traits<char>,std::allocator<char> >
__unwindfunclet$?OnLoadScript@CLightData@@MAEHAAVCTextFileLoader@@@Z$3:
  00018	8d 4d d8	 lea	 ecx, DWORD PTR $T6[ebp]
  0001b	e9 00 00 00 00	 jmp	 ??1?$basic_string@DU?$char_traits@D@std@@V?$allocator@D@2@@std@@QAE@XZ ; std::basic_string<char,std::char_traits<char>,std::allocator<char> >::~basic_string<char,std::char_traits<char>,std::allocator<char> >
__unwindfunclet$?OnLoadScript@CLightData@@MAEHAAVCTextFileLoader@@@Z$4:
  00020	8d 4d d8	 lea	 ecx, DWORD PTR $T7[ebp]
  00023	e9 00 00 00 00	 jmp	 ??1?$basic_string@DU?$char_traits@D@std@@V?$allocator@D@2@@std@@QAE@XZ ; std::basic_string<char,std::char_traits<char>,std::allocator<char> >::~basic_string<char,std::char_traits<char>,std::allocator<char> >
__unwindfunclet$?OnLoadScript@CLightData@@MAEHAAVCTextFileLoader@@@Z$5:
  00028	8d 4d d8	 lea	 ecx, DWORD PTR $T8[ebp]
  0002b	e9 00 00 00 00	 jmp	 ??1?$basic_string@DU?$char_traits@D@std@@V?$allocator@D@2@@std@@QAE@XZ ; std::basic_string<char,std::char_traits<char>,std::allocator<char> >::~basic_string<char,std::char_traits<char>,std::allocator<char> >
__unwindfunclet$?OnLoadScript@CLightData@@MAEHAAVCTextFileLoader@@@Z$6:
  00030	8d 4d d8	 lea	 ecx, DWORD PTR $T9[ebp]
  00033	e9 00 00 00 00	 jmp	 ??1?$basic_string@DU?$char_traits@D@std@@V?$allocator@D@2@@std@@QAE@XZ ; std::basic_string<char,std::char_traits<char>,std::allocator<char> >::~basic_string<char,std::char_traits<char>,std::allocator<char> >
__unwindfunclet$?OnLoadScript@CLightData@@MAEHAAVCTextFileLoader@@@Z$7:
  00038	8d 4d d8	 lea	 ecx, DWORD PTR $T10[ebp]
  0003b	e9 00 00 00 00	 jmp	 ??1?$basic_string@DU?$char_traits@D@std@@V?$allocator@D@2@@std@@QAE@XZ ; std::basic_string<char,std::char_traits<char>,std::allocator<char> >::~basic_string<char,std::char_traits<char>,std::allocator<char> >
__unwindfunclet$?OnLoadScript@CLightData@@MAEHAAVCTextFileLoader@@@Z$8:
  00040	8d 4d c0	 lea	 ecx, DWORD PTR $T2[ebp]
  00043	e9 00 00 00 00	 jmp	 ??1?$basic_string@DU?$char_traits@D@std@@V?$allocator@D@2@@std@@QAE@XZ ; std::basic_string<char,std::char_traits<char>,std::allocator<char> >::~basic_string<char,std::char_traits<char>,std::allocator<char> >
  00048	cc		 int	 3
  00049	cc		 int	 3
  0004a	cc		 int	 3
  0004b	cc		 int	 3
  0004c	cc		 int	 3
__ehhandler$?OnLoadScript@CLightData@@MAEHAAVCTextFileLoader@@@Z:
  0004d	90		 npad	 1
  0004e	90		 npad	 1
  0004f	8b 54 24 08	 mov	 edx, DWORD PTR [esp+8]
  00053	8d 42 0c	 lea	 eax, DWORD PTR [edx+12]
  00056	8b 4a b8	 mov	 ecx, DWORD PTR [edx-72]
  00059	33 c8		 xor	 ecx, eax
  0005b	e8 00 00 00 00	 call	 @__security_check_cookie@4
  00060	8b 4a fc	 mov	 ecx, DWORD PTR [edx-4]
  00063	33 c8		 xor	 ecx, eax
  00065	e8 00 00 00 00	 call	 @__security_check_cookie@4
  0006a	b8 00 00 00 00	 mov	 eax, OFFSET __ehfuncinfo$?OnLoadScript@CLightData@@MAEHAAVCTextFileLoader@@@Z
  0006f	e9 00 00 00 00	 jmp	 ___CxxFrameHandler3
text$x	ENDS
?OnLoadScript@CLightData@@MAEHAAVCTextFileLoader@@@Z ENDP ; CLightData::OnLoadScript
; Function compile flags: /Ogtp
; File C:\Marty 5.5\Src-Client\Client\EffectLib\SimpleLightData.cpp
;	COMDAT ?OnIsData@CLightData@@MAE_NXZ
_TEXT	SEGMENT
?OnIsData@CLightData@@MAE_NXZ PROC			; CLightData::OnIsData, COMDAT
; _this$ = ecx

; 95   : 	return true;

  00000	b0 01		 mov	 al, 1

; 96   : }

  00002	c3		 ret	 0
?OnIsData@CLightData@@MAE_NXZ ENDP			; CLightData::OnIsData
_TEXT	ENDS
; Function compile flags: /Ogtp
; File C:\Marty 5.5\Src-Client\Client\EffectLib\SimpleLightData.cpp
; File D:\Program Files\Microsoft Visual Studio\2022\Community\VC\Tools\MSVC\14.43.34808\include\vector
; File C:\Marty 5.5\Src-Client\Client\EffectLib\SimpleLightData.cpp
;	COMDAT ?OnClear@CLightData@@MAEXXZ
_TEXT	SEGMENT
?OnClear@CLightData@@MAEXXZ PROC			; CLightData::OnClear, COMDAT
; _this$ = ecx

; 26   : 	m_fMaxRange = 300.0f;

  00000	c7 41 14 00 00
	96 43		 mov	 DWORD PTR [ecx+20], 1133903872 ; 43960000H
; File D:\Program Files\Microsoft Visual Studio\2022\Community\VC\Tools\MSVC\14.43.34808\include\vector

; 1797 :         if (_Myfirst == _Mylast) { // already empty, nothing to do

  00007	8b 41 1c	 mov	 eax, DWORD PTR [ecx+28]
  0000a	3b 41 20	 cmp	 eax, DWORD PTR [ecx+32]
  0000d	74 03		 je	 SHORT $LN3@OnClear

; 1798 :             // This is an optimization for debug mode: we can avoid taking the debug lock to invalidate iterators.
; 1799 :             // Note that when clearing an empty vector, this will preserve past-the-end iterators, which is allowed by
; 1800 :             // N4950 [sequence.reqmts]/54 "a.clear() [...] may invalidate the past-the-end iterator".
; 1801 :             return;
; 1802 :         }
; 1803 : 
; 1804 :         _My_data._Orphan_all();
; 1805 :         _Destroy_range(_Myfirst, _Mylast, _Getal());
; 1806 :         _ASAN_VECTOR_MODIFY(static_cast<difference_type>(_Myfirst - _Mylast)); // negative when destroying elements
; 1807 :         _Mylast = _Myfirst;

  0000f	89 41 20	 mov	 DWORD PTR [ecx+32], eax
$LN3@OnClear:
; File C:\Marty 5.5\Src-Client\Client\EffectLib\SimpleLightData.cpp

; 30   : 	m_cAmbient.r = 0.5f;

  00012	c7 41 28 00 00
	00 3f		 mov	 DWORD PTR [ecx+40], 1056964608 ; 3f000000H

; 31   : 	m_cAmbient.g = 0.5f;

  00019	c7 41 2c 00 00
	00 3f		 mov	 DWORD PTR [ecx+44], 1056964608 ; 3f000000H

; 32   : 	m_cAmbient.b = 0.5f;

  00020	c7 41 30 00 00
	00 3f		 mov	 DWORD PTR [ecx+48], 1056964608 ; 3f000000H

; 33   : 	m_cAmbient.a = 1.0f;

  00027	c7 41 34 00 00
	80 3f		 mov	 DWORD PTR [ecx+52], 1065353216 ; 3f800000H

; 34   : 	m_cDiffuse.r = 0.0f;

  0002e	c7 41 38 00 00
	00 00		 mov	 DWORD PTR [ecx+56], 0

; 35   : 	m_cDiffuse.g = 0.0f;

  00035	c7 41 3c 00 00
	00 00		 mov	 DWORD PTR [ecx+60], 0

; 36   : 	m_cDiffuse.b = 0.0f;

  0003c	c7 41 40 00 00
	00 00		 mov	 DWORD PTR [ecx+64], 0

; 37   : 	m_cDiffuse.a = 1.0f;

  00043	c7 41 44 00 00
	80 3f		 mov	 DWORD PTR [ecx+68], 1065353216 ; 3f800000H

; 38   : 
; 39   : 	m_fDuration = 1.0f;

  0004a	c7 41 18 00 00
	80 3f		 mov	 DWORD PTR [ecx+24], 1065353216 ; 3f800000H

; 40   : 
; 41   : 	m_fAttenuation0 = 0.0f;

  00051	c7 41 50 00 00
	00 00		 mov	 DWORD PTR [ecx+80], 0

; 42   : 	m_fAttenuation1 = 0.1f;

  00058	c7 41 54 cd cc
	cc 3d		 mov	 DWORD PTR [ecx+84], 1036831949 ; 3dcccccdH

; 43   : 	m_fAttenuation2 = 0.0f;

  0005f	c7 41 58 00 00
	00 00		 mov	 DWORD PTR [ecx+88], 0

; 44   : 
; 45   : 	m_bLoopFlag = false;

  00066	c7 41 48 00 00
	00 00		 mov	 DWORD PTR [ecx+72], 0

; 46   : 	m_iLoopCount = 0;

  0006d	c7 41 4c 00 00
	00 00		 mov	 DWORD PTR [ecx+76], 0

; 47   : }

  00074	c3		 ret	 0
?OnClear@CLightData@@MAEXXZ ENDP			; CLightData::OnClear
_TEXT	ENDS
; Function compile flags: /Ogtp
; File C:\Marty 5.5\Src-Client\Client\EffectLib\SimpleLightData.cpp
;	COMDAT ?InitializeLight@CLightData@@QAEXAAU_D3DLIGHT8@@@Z
_TEXT	SEGMENT
_position$ = -16					; size = 12
__$ArrayPad$ = -4					; size = 4
_light$ = 8						; size = 4
?InitializeLight@CLightData@@QAEXAAU_D3DLIGHT8@@@Z PROC	; CLightData::InitializeLight, COMDAT
; _this$ = ecx

; 149  : {

  00000	55		 push	 ebp
  00001	8b ec		 mov	 ebp, esp
  00003	83 ec 10	 sub	 esp, 16			; 00000010H
  00006	a1 00 00 00 00	 mov	 eax, DWORD PTR ___security_cookie
  0000b	33 c5		 xor	 eax, ebp
  0000d	89 45 fc	 mov	 DWORD PTR __$ArrayPad$[ebp], eax
  00010	56		 push	 esi
  00011	8b 75 08	 mov	 esi, DWORD PTR _light$[ebp]
  00014	57		 push	 edi
  00015	8b f9		 mov	 edi, ecx

; 150  : 	light.Type = D3DLIGHT_POINT;

  00017	c7 06 01 00 00
	00		 mov	 DWORD PTR [esi], 1

; 151  : 
; 152  : 	light.Ambient = m_cAmbient;

  0001d	0f 10 47 28	 movups	 xmm0, XMMWORD PTR [edi+40]
  00021	0f 11 46 24	 movups	 XMMWORD PTR [esi+36], xmm0

; 153  : 	light.Diffuse = m_cDiffuse;

  00025	0f 10 47 38	 movups	 xmm0, XMMWORD PTR [edi+56]
  00029	0f 11 46 04	 movups	 XMMWORD PTR [esi+4], xmm0

; 154  : 	light.Attenuation0 = m_fAttenuation0;

  0002d	8b 47 50	 mov	 eax, DWORD PTR [edi+80]
  00030	89 46 54	 mov	 DWORD PTR [esi+84], eax

; 155  : 	light.Attenuation1 = m_fAttenuation1;

  00033	8b 47 54	 mov	 eax, DWORD PTR [edi+84]
  00036	89 46 58	 mov	 DWORD PTR [esi+88], eax

; 156  : 	light.Attenuation2 = m_fAttenuation2;

  00039	8b 47 58	 mov	 eax, DWORD PTR [edi+88]
  0003c	89 46 5c	 mov	 DWORD PTR [esi+92], eax

; 157  : 
; 158  : 
; 159  : 	D3DXVECTOR3 position;
; 160  : 	GetPosition( 0.0f, position);

  0003f	8d 45 f0	 lea	 eax, DWORD PTR _position$[ebp]
  00042	50		 push	 eax
  00043	51		 push	 ecx
  00044	c7 04 24 00 00
	00 00		 mov	 DWORD PTR [esp], 0
  0004b	e8 00 00 00 00	 call	 ?GetPosition@CEffectElementBase@@QAEXMAAUD3DXVECTOR3@@@Z ; CEffectElementBase::GetPosition

; 161  : 	light.Position = position;

  00050	f3 0f 7e 45 f0	 movq	 xmm0, QWORD PTR _position$[ebp]
  00055	8b 45 f8	 mov	 eax, DWORD PTR _position$[ebp+8]
  00058	66 0f d6 46 34	 movq	 QWORD PTR [esi+52], xmm0
  0005d	89 46 3c	 mov	 DWORD PTR [esi+60], eax

; 162  : 
; 163  : 	GetRange(0.0f, light.Range);

  00060	8d 46 4c	 lea	 eax, DWORD PTR [esi+76]
  00063	50		 push	 eax
  00064	51		 push	 ecx
  00065	8b cf		 mov	 ecx, edi
  00067	c7 04 24 00 00
	00 00		 mov	 DWORD PTR [esp], 0
  0006e	e8 00 00 00 00	 call	 ?GetRange@CLightData@@QAEXMAAM@Z ; CLightData::GetRange

; 164  : }

  00073	8b 4d fc	 mov	 ecx, DWORD PTR __$ArrayPad$[ebp]
  00076	5f		 pop	 edi
  00077	33 cd		 xor	 ecx, ebp
  00079	5e		 pop	 esi
  0007a	e8 00 00 00 00	 call	 @__security_check_cookie@4
  0007f	8b e5		 mov	 esp, ebp
  00081	5d		 pop	 ebp
  00082	c2 04 00	 ret	 4
?InitializeLight@CLightData@@QAEXAAU_D3DLIGHT8@@@Z ENDP	; CLightData::InitializeLight
_TEXT	ENDS
; Function compile flags: /Ogtp
; File C:\Marty 5.5\Src-Client\Client\EffectLib\SimpleLightData.cpp
;	COMDAT ?GetDuration@CLightData@@QAEMXZ
_TEXT	SEGMENT
?GetDuration@CLightData@@QAEMXZ PROC			; CLightData::GetDuration, COMDAT
; _this$ = ecx

; 146  : 	return m_fDuration;

  00000	d9 41 18	 fld	 DWORD PTR [ecx+24]

; 147  : }

  00003	c3		 ret	 0
?GetDuration@CLightData@@QAEMXZ ENDP			; CLightData::GetDuration
_TEXT	ENDS
; Function compile flags: /Ogtp
; File C:\Marty 5.5\Src-Client\Client\EffectLib\SimpleLightData.cpp
; File D:\Program Files\Microsoft Visual Studio\2022\Community\VC\Tools\MSVC\14.43.34808\include\vector
; File C:\Marty 5.5\Src-Client\Client\EffectLib\SimpleLightData.cpp
; File D:\Program Files\Microsoft Visual Studio\2022\Community\VC\Tools\MSVC\14.43.34808\include\vector
; File C:\Marty 5.5\Src-Client\Client\EffectLib\SimpleLightData.cpp
; File D:\Program Files\Microsoft Visual Studio\2022\Community\VC\Tools\MSVC\14.43.34808\include\vector
; File C:\Marty 5.5\Src-Client\Client\EffectLib\Type.h
; File D:\Program Files\Microsoft Visual Studio\2022\Community\VC\Tools\MSVC\14.43.34808\include\vector
; File C:\Marty 5.5\Src-Client\Client\EffectLib\Type.h
; File D:\Program Files\Microsoft Visual Studio\2022\Community\VC\Tools\MSVC\14.43.34808\include\vector
; File C:\Marty 5.5\Src-Client\Client\EffectLib\Type.h
; File C:\Marty 5.5\Src-Client\Client\EffectLib\SimpleLightData.cpp
;	COMDAT ?GetRange@CLightData@@QAEXMAAM@Z
_TEXT	SEGMENT
_result$1 = -12						; size = 8
_fElapsedTime$ = -4					; size = 4
_fTime$ = 8						; size = 4
_rRange$ = 12						; size = 4
?GetRange@CLightData@@QAEXMAAM@Z PROC			; CLightData::GetRange, COMDAT
; _this$ = ecx

; 49   : {

  00000	55		 push	 ebp
  00001	8b ec		 mov	 ebp, esp
  00003	83 ec 0c	 sub	 esp, 12			; 0000000cH
  00006	56		 push	 esi
  00007	8b f1		 mov	 esi, ecx
; File D:\Program Files\Microsoft Visual Studio\2022\Community\VC\Tools\MSVC\14.43.34808\include\vector

; 1895 :         return _My_data._Myfirst == _My_data._Mylast;

  00009	8b 46 1c	 mov	 eax, DWORD PTR [esi+28]
  0000c	8b 56 20	 mov	 edx, DWORD PTR [esi+32]
  0000f	3b c2		 cmp	 eax, edx
; File C:\Marty 5.5\Src-Client\Client\EffectLib\SimpleLightData.cpp

; 50   : 	if (m_TimeEventTableRange.empty())

  00011	75 17		 jne	 SHORT $LN2@GetRange

; 51   : 	{
; 52   : 		rRange = 1.0f * m_fMaxRange;

  00013	8b 45 0c	 mov	 eax, DWORD PTR _rRange$[ebp]
  00016	0f 57 c0	 xorps	 xmm0, xmm0
  00019	f3 0f 10 4e 14	 movss	 xmm1, DWORD PTR [esi+20]

; 53   : 		if (rRange<0.0f)

  0001e	0f 2f c1	 comiss	 xmm0, xmm1
  00021	f3 0f 11 08	 movss	 DWORD PTR [eax], xmm1

; 54   : 			rRange = 0.0f;
; 55   : 		return;

  00025	e9 96 00 00 00	 jmp	 $LN93@GetRange
$LN2@GetRange:

; 58   : 	GetTimeEventBlendValue(fTime, m_TimeEventTableRange, &rRange);

  0002a	f3 0f 10 4d 08	 movss	 xmm1, DWORD PTR _fTime$[ebp]
; File D:\Program Files\Microsoft Visual Studio\2022\Community\VC\Tools\MSVC\14.43.34808\include\vector

; 46   :     _CONSTEXPR20 _Vector_const_iterator(_Tptr _Parg, const _Container_base* _Pvector) noexcept : _Ptr(_Parg) {

  0002f	8d 48 08	 lea	 ecx, DWORD PTR [eax+8]
; File C:\Marty 5.5\Src-Client\Client\EffectLib\SimpleLightData.cpp

; 58   : 	GetTimeEventBlendValue(fTime, m_TimeEventTableRange, &rRange);

  00032	f3 0f 11 4d fc	 movss	 DWORD PTR _fElapsedTime$[ebp], xmm1
; File D:\Program Files\Microsoft Visual Studio\2022\Community\VC\Tools\MSVC\14.43.34808\include\vector

; 129  :         _Ptr += _Off;

  00037	3b ca		 cmp	 ecx, edx
; File C:\Marty 5.5\Src-Client\Client\EffectLib\Type.h

; 232  : 	if(rVector.begin()+1==rVector.end())

  00039	75 07		 jne	 SHORT $LN11@GetRange

; 233  : 	{
; 234  : 		*pReturnValue = rVector.front().m_Value;

  0003b	f3 0f 10 50 04	 movss	 xmm2, DWORD PTR [eax+4]

; 235  : 		return;

  00040	eb 68		 jmp	 SHORT $LN15@GetRange
$LN11@GetRange:

; 236  : 	}
; 237  : 
; 238  : 	if (fElapsedTime < rVector.front().m_fTime)

  00042	f3 0f 10 00	 movss	 xmm0, DWORD PTR [eax]
  00046	0f 2f c1	 comiss	 xmm0, xmm1
  00049	76 07		 jbe	 SHORT $LN12@GetRange

; 239  : 	{
; 240  : 		*pReturnValue = rVector.front().m_Value;

  0004b	f3 0f 10 50 04	 movss	 xmm2, DWORD PTR [eax+4]

; 241  : 		return;

  00050	eb 58		 jmp	 SHORT $LN15@GetRange
$LN12@GetRange:

; 242  : 	}
; 243  : 
; 244  : 	if (fElapsedTime > rVector.back().m_fTime)

  00052	0f 2f 4a f8	 comiss	 xmm1, DWORD PTR [edx-8]
  00056	76 07		 jbe	 SHORT $LN13@GetRange

; 245  : 	{
; 246  : 		*pReturnValue = rVector.back().m_Value;

  00058	f3 0f 10 52 fc	 movss	 xmm2, DWORD PTR [edx-4]

; 247  : 		return;

  0005d	eb 4b		 jmp	 SHORT $LN15@GetRange
$LN13@GetRange:

; 252  : 	std::pair<iterator, iterator> result = std::equal_range(rVector.begin(), rVector.end(), fElapsedTime);

  0005f	8d 4d fc	 lea	 ecx, DWORD PTR _fElapsedTime$[ebp]
  00062	51		 push	 ecx
  00063	52		 push	 edx
  00064	50		 push	 eax
  00065	8d 45 f4	 lea	 eax, DWORD PTR _result$1[ebp]
  00068	50		 push	 eax
  00069	e8 00 00 00 00	 call	 ??$equal_range@V?$_Vector_iterator@V?$_Vector_val@U?$_Simple_types@V?$CTimeEvent@M@@@std@@@std@@@std@@M@std@@YA?AU?$pair@V?$_Vector_iterator@V?$_Vector_val@U?$_Simple_types@V?$CTimeEvent@M@@@std@@@std@@@std@@V12@@0@V?$_Vector_iterator@V?$_Vector_val@U?$_Simple_types@V?$CTimeEvent@M@@@std@@@std@@@0@0ABM@Z ; std::equal_range<std::_Vector_iterator<std::_Vector_val<std::_Simple_types<CTimeEvent<float> > > >,float>
; File D:\Program Files\Microsoft Visual Studio\2022\Community\VC\Tools\MSVC\14.43.34808\include\vector

; 166  :         return _Ptr == _Right._Ptr;

  0006e	8b 45 f4	 mov	 eax, DWORD PTR _result$1[ebp]
; File C:\Marty 5.5\Src-Client\Client\EffectLib\Type.h

; 252  : 	std::pair<iterator, iterator> result = std::equal_range(rVector.begin(), rVector.end(), fElapsedTime);

  00071	83 c4 10	 add	 esp, 16			; 00000010H
; File D:\Program Files\Microsoft Visual Studio\2022\Community\VC\Tools\MSVC\14.43.34808\include\vector

; 166  :         return _Ptr == _Right._Ptr;

  00074	8b 4d f8	 mov	 ecx, DWORD PTR _result$1[ebp+4]
  00077	3b c1		 cmp	 eax, ecx
; File C:\Marty 5.5\Src-Client\Client\EffectLib\Type.h

; 254  : 	if (result.first != result.second)

  00079	74 07		 je	 SHORT $LN14@GetRange

; 255  : 		*pReturnValue = result.first->m_Value;

  0007b	f3 0f 10 50 04	 movss	 xmm2, DWORD PTR [eax+4]
  00080	eb 28		 jmp	 SHORT $LN15@GetRange
$LN14@GetRange:

; 256  : 	else
; 257  : 	{
; 258  : 		--result.first;
; 259  : 		float Head = (result.second->m_fTime - fElapsedTime) / (result.second->m_fTime - result.first->m_fTime);

  00082	f3 0f 10 01	 movss	 xmm0, DWORD PTR [ecx]
  00086	0f 28 d0	 movaps	 xmm2, xmm0
  00089	f3 0f 5c 55 08	 subss	 xmm2, DWORD PTR _fTime$[ebp]
  0008e	f3 0f 5c 40 f8	 subss	 xmm0, DWORD PTR [eax-8]
  00093	f3 0f 5e d0	 divss	 xmm2, xmm0

; 260  : 		*pReturnValue = T((result.first->m_Value-result.second->m_Value)*Head+(result.second->m_Value));

  00097	f3 0f 10 40 fc	 movss	 xmm0, DWORD PTR [eax-4]
  0009c	f3 0f 5c 41 04	 subss	 xmm0, DWORD PTR [ecx+4]
  000a1	f3 0f 59 d0	 mulss	 xmm2, xmm0
  000a5	f3 0f 58 51 04	 addss	 xmm2, DWORD PTR [ecx+4]
$LN15@GetRange:
; File C:\Marty 5.5\Src-Client\Client\EffectLib\SimpleLightData.cpp

; 59   : 	rRange *= m_fMaxRange;

  000aa	8b 45 0c	 mov	 eax, DWORD PTR _rRange$[ebp]
  000ad	0f 57 c0	 xorps	 xmm0, xmm0
  000b0	f3 0f 11 10	 movss	 DWORD PTR [eax], xmm2
  000b4	f3 0f 59 56 14	 mulss	 xmm2, DWORD PTR [esi+20]
  000b9	f3 0f 11 10	 movss	 DWORD PTR [eax], xmm2

; 60   : 	if (rRange<0.0f)

  000bd	0f 2f c2	 comiss	 xmm0, xmm2
$LN93@GetRange:

; 61   : 		rRange = 0.0f;
; 62   : 	return;
; 63   : 	/*
; 64   : 	float vecLastRange = m_TimeEventTableRange[0].m_Value;
; 65   : 
; 66   : 	for (DWORD dwIndex = 0; dwIndex < m_TimeEventTableRange.size(); ++dwIndex)
; 67   : 	{
; 68   : 		if(fTime < m_TimeEventTableRange[dwIndex].m_fTime)
; 69   : 		{
; 70   : 			break;
; 71   : 		}
; 72   : 	}
; 73   : 
; 74   : 	if (dwIndex >= m_TimeEventTableRange.size())
; 75   : 	{
; 76   : 		rRange = m_TimeEventTableRange[m_TimeEventTableRange.size()-1].m_Value * m_fMaxRange;
; 77   : 		if (rRange<0.0f)
; 78   : 			rRange = 0.0f;
; 79   : 		return;
; 80   : 	}
; 81   : 
; 82   : 	TTimeEventTypeFloat & rEffectRange = m_TimeEventTableRange[dwIndex];
; 83   : 	TTimeEventTypeFloat & rPrevEffectRange = m_TimeEventTableRange[dwIndex-1];
; 84   : 
; 85   : 	float Head = fabs(rEffectRange.m_fTime - fTime) / fabs(rEffectRange.m_fTime - rPrevEffectRange.m_fTime);
; 86   : 	float Tail = 1.0f - fabs(rEffectRange.m_fTime - fTime) / fabs(rEffectRange.m_fTime - rPrevEffectRange.m_fTime);
; 87   : 	rRange = ((rPrevEffectRange.m_Value*Head) + (rEffectRange.m_Value*Tail) )*m_fMaxRange;
; 88   : 	if (rRange<0.0f)
; 89   : 		rRange = 0.0f;
; 90   : 		*/
; 91   : }

  000c0	76 06		 jbe	 SHORT $LN4@GetRange
  000c2	c7 00 00 00 00
	00		 mov	 DWORD PTR [eax], 0
$LN4@GetRange:
  000c8	5e		 pop	 esi
  000c9	8b e5		 mov	 esp, ebp
  000cb	5d		 pop	 ebp
  000cc	c2 08 00	 ret	 8
?GetRange@CLightData@@QAEXMAAM@Z ENDP			; CLightData::GetRange
_TEXT	ENDS
; Function compile flags: /Ogtp
; File C:\Marty 5.5\Src-Client\Client\EffectLib\SimpleLightData.cpp
; File D:\Program Files\Microsoft Visual Studio\2022\Community\VC\Tools\MSVC\14.43.34808\include\vector
; File D:\Program Files\Microsoft Visual Studio\2022\Community\VC\Tools\MSVC\14.43.34808\include\xmemory
; File D:\Program Files\Microsoft Visual Studio\2022\Community\VC\Tools\MSVC\14.43.34808\include\vector
; File D:\Program Files\Microsoft Visual Studio\2022\Community\VC\Tools\MSVC\14.43.34808\include\xmemory
; File D:\Program Files\Microsoft Visual Studio\2022\Community\VC\Tools\MSVC\14.43.34808\include\vector
; File C:\Marty 5.5\Src-Client\Client\EffectLib\SimpleLightData.cpp
; File D:\Program Files\Microsoft Visual Studio\2022\Community\VC\Tools\MSVC\14.43.34808\include\xmemory
; File C:\Marty 5.5\Src-Client\Client\EffectLib\SimpleLightData.cpp
;	COMDAT ??1CLightData@@UAE@XZ
_TEXT	SEGMENT
??1CLightData@@UAE@XZ PROC				; CLightData::~CLightData, COMDAT
; _this$ = ecx

; 141  : {

  00000	56		 push	 esi
  00001	8b f1		 mov	 esi, ecx
  00003	c7 06 00 00 00
	00		 mov	 DWORD PTR [esi], OFFSET ??_7CLightData@@6B@
; File D:\Program Files\Microsoft Visual Studio\2022\Community\VC\Tools\MSVC\14.43.34808\include\vector

; 2075 :         if (_Myfirst) { // destroy and deallocate old array

  00009	8b 46 1c	 mov	 eax, DWORD PTR [esi+28]
  0000c	85 c0		 test	 eax, eax
  0000e	74 41		 je	 SHORT $LN8@CLightData

; 2076 :             _STD _Destroy_range(_Myfirst, _Mylast, _Al);
; 2077 :             _ASAN_VECTOR_REMOVE;
; 2078 :             _Al.deallocate(_Myfirst, static_cast<size_type>(_Myend - _Myfirst));

  00010	8b 4e 24	 mov	 ecx, DWORD PTR [esi+36]
  00013	2b c8		 sub	 ecx, eax
; File D:\Program Files\Microsoft Visual Studio\2022\Community\VC\Tools\MSVC\14.43.34808\include\xmemory

; 981  :         _STD _Deallocate<_New_alignof<_Ty>>(_Ptr, sizeof(_Ty) * _Count);

  00015	83 e1 f8	 and	 ecx, -8			; fffffff8H

; 284  :         if (_Bytes >= _Big_allocation_threshold) {

  00018	81 f9 00 10 00
	00		 cmp	 ecx, 4096		; 00001000H
  0001e	72 12		 jb	 SHORT $LN27@CLightData

; 205  :     const uintptr_t _Ptr_container   = _Ptr_user[-1];

  00020	8b 50 fc	 mov	 edx, DWORD PTR [eax-4]
  00023	83 c1 23	 add	 ecx, 35			; 00000023H

; 206  : 
; 207  :     // If the following asserts, it likely means that we are performing
; 208  :     // an aligned delete on memory coming from an unaligned allocation.
; 209  :     _STL_ASSERT(_Ptr_user[-2] == _Big_allocation_sentinel, "invalid argument");
; 210  : 
; 211  :     // Extra paranoia on aligned allocation/deallocation; ensure _Ptr_container is
; 212  :     // in range [_Min_back_shift, _Non_user_size]
; 213  : #ifdef _DEBUG
; 214  :     constexpr uintptr_t _Min_back_shift = 2 * sizeof(void*);
; 215  : #else // ^^^ defined(_DEBUG) / !defined(_DEBUG) vvv
; 216  :     constexpr uintptr_t _Min_back_shift = sizeof(void*);
; 217  : #endif // ^^^ !defined(_DEBUG) ^^^
; 218  :     const uintptr_t _Back_shift = reinterpret_cast<uintptr_t>(_Ptr) - _Ptr_container;

  00026	2b c2		 sub	 eax, edx

; 219  :     _STL_VERIFY(_Back_shift >= _Min_back_shift && _Back_shift <= _Non_user_size, "invalid argument");

  00028	83 c0 fc	 add	 eax, -4			; fffffffcH
  0002b	83 f8 1f	 cmp	 eax, 31			; 0000001fH
  0002e	77 29		 ja	 SHORT $LN24@CLightData

; 220  :     _Ptr = reinterpret_cast<void*>(_Ptr_container);

  00030	8b c2		 mov	 eax, edx
$LN27@CLightData:

; 289  :         ::operator delete(_Ptr, _Bytes);

  00032	51		 push	 ecx
  00033	50		 push	 eax
  00034	e8 00 00 00 00	 call	 ??3@YAXPAXI@Z		; operator delete
; File D:\Program Files\Microsoft Visual Studio\2022\Community\VC\Tools\MSVC\14.43.34808\include\vector

; 2080 :             _Myfirst = nullptr;

  00039	c7 46 1c 00 00
	00 00		 mov	 DWORD PTR [esi+28], 0
; File D:\Program Files\Microsoft Visual Studio\2022\Community\VC\Tools\MSVC\14.43.34808\include\xmemory

; 289  :         ::operator delete(_Ptr, _Bytes);

  00040	83 c4 08	 add	 esp, 8
; File D:\Program Files\Microsoft Visual Studio\2022\Community\VC\Tools\MSVC\14.43.34808\include\vector

; 2081 :             _Mylast  = nullptr;

  00043	c7 46 20 00 00
	00 00		 mov	 DWORD PTR [esi+32], 0

; 2082 :             _Myend   = nullptr;

  0004a	c7 46 24 00 00
	00 00		 mov	 DWORD PTR [esi+36], 0
$LN8@CLightData:
; File C:\Marty 5.5\Src-Client\Client\EffectLib\SimpleLightData.cpp

; 142  : }

  00051	8b ce		 mov	 ecx, esi
  00053	5e		 pop	 esi
  00054	e9 00 00 00 00	 jmp	 ??1CEffectElementBase@@UAE@XZ ; CEffectElementBase::~CEffectElementBase
$LN24@CLightData:
; File D:\Program Files\Microsoft Visual Studio\2022\Community\VC\Tools\MSVC\14.43.34808\include\xmemory

; 219  :     _STL_VERIFY(_Back_shift >= _Min_back_shift && _Back_shift <= _Non_user_size, "invalid argument");

  00059	e8 00 00 00 00	 call	 __invalid_parameter_noinfo_noreturn
$LN36@CLightData:
  0005e	cc		 int	 3
??1CLightData@@UAE@XZ ENDP				; CLightData::~CLightData
_TEXT	ENDS
; Function compile flags: /Ogtp
; File C:\Marty 5.5\Src-Client\Client\EffectLib\SimpleLightData.cpp
; File D:\Program Files\Microsoft Visual Studio\2022\Community\VC\Tools\MSVC\14.43.34808\include\vector
; File C:\Marty 5.5\Src-Client\Client\EffectLib\SimpleLightData.cpp
;	COMDAT ??0CLightData@@QAE@XZ
_TEXT	SEGMENT
_this$ = -16						; size = 4
__$EHRec$ = -12						; size = 12
??0CLightData@@QAE@XZ PROC				; CLightData::CLightData, COMDAT
; _this$ = ecx

; 136  : {

  00000	55		 push	 ebp
  00001	8b ec		 mov	 ebp, esp
  00003	6a ff		 push	 -1
  00005	68 00 00 00 00	 push	 __ehhandler$??0CLightData@@QAE@XZ
  0000a	64 a1 00 00 00
	00		 mov	 eax, DWORD PTR fs:0
  00010	50		 push	 eax
  00011	51		 push	 ecx
  00012	56		 push	 esi
  00013	a1 00 00 00 00	 mov	 eax, DWORD PTR ___security_cookie
  00018	33 c5		 xor	 eax, ebp
  0001a	50		 push	 eax
  0001b	8d 45 f4	 lea	 eax, DWORD PTR __$EHRec$[ebp]
  0001e	64 a3 00 00 00
	00		 mov	 DWORD PTR fs:0, eax
  00024	8b f1		 mov	 esi, ecx
  00026	89 75 f0	 mov	 DWORD PTR _this$[ebp], esi
  00029	e8 00 00 00 00	 call	 ??0CEffectElementBase@@QAE@XZ ; CEffectElementBase::CEffectElementBase
  0002e	c7 06 00 00 00
	00		 mov	 DWORD PTR [esi], OFFSET ??_7CLightData@@6B@
  00034	c7 45 fc 00 00
	00 00		 mov	 DWORD PTR __$EHRec$[ebp+8], 0
; File D:\Program Files\Microsoft Visual Studio\2022\Community\VC\Tools\MSVC\14.43.34808\include\vector

; 400  :     _CONSTEXPR20 _Vector_val() noexcept : _Myfirst(), _Mylast(), _Myend() {}

  0003b	c7 46 1c 00 00
	00 00		 mov	 DWORD PTR [esi+28], 0
  00042	c7 46 20 00 00
	00 00		 mov	 DWORD PTR [esi+32], 0
  00049	c7 46 24 00 00
	00 00		 mov	 DWORD PTR [esi+36], 0
; File C:\Marty 5.5\Src-Client\Client\EffectLib\SimpleLightData.cpp

; 137  : 	Clear();

  00050	8b ce		 mov	 ecx, esi
  00052	c6 45 fc 01	 mov	 BYTE PTR __$EHRec$[ebp+8], 1
  00056	e8 00 00 00 00	 call	 ?Clear@CEffectElementBase@@QAEXXZ ; CEffectElementBase::Clear

; 138  : }

  0005b	8b c6		 mov	 eax, esi
  0005d	8b 4d f4	 mov	 ecx, DWORD PTR __$EHRec$[ebp]
  00060	64 89 0d 00 00
	00 00		 mov	 DWORD PTR fs:0, ecx
  00067	59		 pop	 ecx
  00068	5e		 pop	 esi
  00069	8b e5		 mov	 esp, ebp
  0006b	5d		 pop	 ebp
  0006c	c3		 ret	 0
_TEXT	ENDS
;	COMDAT text$x
text$x	SEGMENT
__unwindfunclet$??0CLightData@@QAE@XZ$0:
  00000	8b 4d f0	 mov	 ecx, DWORD PTR _this$[ebp]
  00003	e9 00 00 00 00	 jmp	 ??1CEffectElementBase@@UAE@XZ ; CEffectElementBase::~CEffectElementBase
__unwindfunclet$??0CLightData@@QAE@XZ$1:
  00008	8b 4d f0	 mov	 ecx, DWORD PTR _this$[ebp]
  0000b	83 c1 1c	 add	 ecx, 28			; 0000001cH
  0000e	e9 00 00 00 00	 jmp	 ??1?$vector@V?$CTimeEvent@M@@V?$allocator@V?$CTimeEvent@M@@@std@@@std@@QAE@XZ ; std::vector<CTimeEvent<float>,std::allocator<CTimeEvent<float> > >::~vector<CTimeEvent<float>,std::allocator<CTimeEvent<float> > >
  00013	cc		 int	 3
  00014	cc		 int	 3
  00015	cc		 int	 3
  00016	cc		 int	 3
  00017	cc		 int	 3
__ehhandler$??0CLightData@@QAE@XZ:
  00018	90		 npad	 1
  00019	90		 npad	 1
  0001a	8b 54 24 08	 mov	 edx, DWORD PTR [esp+8]
  0001e	8d 42 0c	 lea	 eax, DWORD PTR [edx+12]
  00021	8b 4a f4	 mov	 ecx, DWORD PTR [edx-12]
  00024	33 c8		 xor	 ecx, eax
  00026	e8 00 00 00 00	 call	 @__security_check_cookie@4
  0002b	b8 00 00 00 00	 mov	 eax, OFFSET __ehfuncinfo$??0CLightData@@QAE@XZ
  00030	e9 00 00 00 00	 jmp	 ___CxxFrameHandler3
text$x	ENDS
??0CLightData@@QAE@XZ ENDP				; CLightData::CLightData
; Function compile flags: /Ogtp
; File D:\Program Files\Microsoft Visual Studio\2022\Community\VC\Tools\MSVC\14.43.34808\include\xmemory
;	COMDAT ??$_Allocate_manually_vector_aligned@U_Default_allocate_traits@std@@@std@@YAPAXI@Z
_TEXT	SEGMENT
__Bytes$ = 8						; size = 4
??$_Allocate_manually_vector_aligned@U_Default_allocate_traits@std@@@std@@YAPAXI@Z PROC ; std::_Allocate_manually_vector_aligned<std::_Default_allocate_traits>, COMDAT

; 182  : __declspec(allocator) void* _Allocate_manually_vector_aligned(const size_t _Bytes) {

  00000	55		 push	 ebp
  00001	8b ec		 mov	 ebp, esp

; 183  :     // allocate _Bytes manually aligned to at least _Big_allocation_alignment
; 184  :     const size_t _Block_size = _Non_user_size + _Bytes;

  00003	8b 45 08	 mov	 eax, DWORD PTR __Bytes$[ebp]
  00006	8d 48 23	 lea	 ecx, DWORD PTR [eax+35]

; 185  :     if (_Block_size <= _Bytes) {

  00009	3b c8		 cmp	 ecx, eax
  0000b	0f 86 00 00 00
	00		 jbe	 ?_Throw_bad_array_new_length@std@@YAXXZ ; std::_Throw_bad_array_new_length

; 136  :         return ::operator new(_Bytes);

  00011	51		 push	 ecx
  00012	e8 00 00 00 00	 call	 ??2@YAPAXI@Z		; operator new

; 186  :         _Throw_bad_array_new_length(); // add overflow
; 187  :     }
; 188  : 
; 189  :     const uintptr_t _Ptr_container = reinterpret_cast<uintptr_t>(_Traits::_Allocate(_Block_size));

  00017	8b c8		 mov	 ecx, eax

; 136  :         return ::operator new(_Bytes);

  00019	83 c4 04	 add	 esp, 4

; 190  :     _STL_VERIFY(_Ptr_container != 0, "invalid argument"); // validate even in release since we're doing p[-1]

  0001c	85 c9		 test	 ecx, ecx
  0001e	74 0b		 je	 SHORT $LN7@Allocate_m

; 191  :     void* const _Ptr = reinterpret_cast<void*>((_Ptr_container + _Non_user_size) & ~(_Big_allocation_alignment - 1));

  00020	8d 41 23	 lea	 eax, DWORD PTR [ecx+35]
  00023	83 e0 e0	 and	 eax, -32		; ffffffe0H

; 192  :     static_cast<uintptr_t*>(_Ptr)[-1] = _Ptr_container;

  00026	89 48 fc	 mov	 DWORD PTR [eax-4], ecx

; 193  : 
; 194  : #ifdef _DEBUG
; 195  :     static_cast<uintptr_t*>(_Ptr)[-2] = _Big_allocation_sentinel;
; 196  : #endif // defined(_DEBUG)
; 197  :     return _Ptr;
; 198  : }

  00029	5d		 pop	 ebp
  0002a	c3		 ret	 0
$LN7@Allocate_m:

; 190  :     _STL_VERIFY(_Ptr_container != 0, "invalid argument"); // validate even in release since we're doing p[-1]

  0002b	e9 00 00 00 00	 jmp	 __invalid_parameter_noinfo_noreturn
??$_Allocate_manually_vector_aligned@U_Default_allocate_traits@std@@@std@@YAPAXI@Z ENDP ; std::_Allocate_manually_vector_aligned<std::_Default_allocate_traits>
_TEXT	ENDS
; Function compile flags: /Ogtp
; File D:\Program Files\Microsoft Visual Studio\2022\Community\VC\Tools\MSVC\14.43.34808\include\xstring
; File D:\Program Files\Microsoft Visual Studio\2022\Community\VC\Tools\MSVC\14.43.34808\include\xmemory
; File D:\Program Files\Microsoft Visual Studio\2022\Community\VC\Tools\MSVC\14.43.34808\include\xstring
; File D:\Program Files\Microsoft Visual Studio\2022\Community\VC\Tools\MSVC\14.43.34808\include\xmemory
; File D:\Program Files\Microsoft Visual Studio\2022\Community\VC\Tools\MSVC\14.43.34808\include\xstring
; File D:\Program Files\Microsoft Visual Studio\2022\Community\VC\Tools\MSVC\14.43.34808\include\xmemory
; File D:\Program Files\Microsoft Visual Studio\2022\Community\VC\Tools\MSVC\14.43.34808\include\xstring
;	COMDAT ??1?$basic_string@DU?$char_traits@D@std@@V?$allocator@D@2@@std@@QAE@XZ
_TEXT	SEGMENT
??1?$basic_string@DU?$char_traits@D@std@@V?$allocator@D@2@@std@@QAE@XZ PROC ; std::basic_string<char,std::char_traits<char>,std::allocator<char> >::~basic_string<char,std::char_traits<char>,std::allocator<char> >, COMDAT
; _this$ = ecx

; 1358 :     _CONSTEXPR20 ~basic_string() noexcept {

  00000	56		 push	 esi
  00001	8b f1		 mov	 esi, ecx

; 434  :         return _Myres > _Small_string_capacity;

  00003	8b 4e 14	 mov	 ecx, DWORD PTR [esi+20]
  00006	83 f9 0f	 cmp	 ecx, 15			; 0000000fH

; 3047 :         if (_My_data._Large_mode_engaged()) {

  00009	76 27		 jbe	 SHORT $LN19@basic_stri
; File D:\Program Files\Microsoft Visual Studio\2022\Community\VC\Tools\MSVC\14.43.34808\include\xmemory

; 981  :         _STD _Deallocate<_New_alignof<_Ty>>(_Ptr, sizeof(_Ty) * _Count);

  0000b	8b 06		 mov	 eax, DWORD PTR [esi]
; File D:\Program Files\Microsoft Visual Studio\2022\Community\VC\Tools\MSVC\14.43.34808\include\xstring

; 828  :         _Al.deallocate(_Old_ptr, _Capacity + 1); // +1 for null terminator

  0000d	41		 inc	 ecx
; File D:\Program Files\Microsoft Visual Studio\2022\Community\VC\Tools\MSVC\14.43.34808\include\xmemory

; 284  :         if (_Bytes >= _Big_allocation_threshold) {

  0000e	81 f9 00 10 00
	00		 cmp	 ecx, 4096		; 00001000H
  00014	72 12		 jb	 SHORT $LN30@basic_stri

; 205  :     const uintptr_t _Ptr_container   = _Ptr_user[-1];

  00016	8b 50 fc	 mov	 edx, DWORD PTR [eax-4]
  00019	83 c1 23	 add	 ecx, 35			; 00000023H

; 206  : 
; 207  :     // If the following asserts, it likely means that we are performing
; 208  :     // an aligned delete on memory coming from an unaligned allocation.
; 209  :     _STL_ASSERT(_Ptr_user[-2] == _Big_allocation_sentinel, "invalid argument");
; 210  : 
; 211  :     // Extra paranoia on aligned allocation/deallocation; ensure _Ptr_container is
; 212  :     // in range [_Min_back_shift, _Non_user_size]
; 213  : #ifdef _DEBUG
; 214  :     constexpr uintptr_t _Min_back_shift = 2 * sizeof(void*);
; 215  : #else // ^^^ defined(_DEBUG) / !defined(_DEBUG) vvv
; 216  :     constexpr uintptr_t _Min_back_shift = sizeof(void*);
; 217  : #endif // ^^^ !defined(_DEBUG) ^^^
; 218  :     const uintptr_t _Back_shift = reinterpret_cast<uintptr_t>(_Ptr) - _Ptr_container;

  0001c	2b c2		 sub	 eax, edx

; 219  :     _STL_VERIFY(_Back_shift >= _Min_back_shift && _Back_shift <= _Non_user_size, "invalid argument");

  0001e	83 c0 fc	 add	 eax, -4			; fffffffcH
  00021	83 f8 1f	 cmp	 eax, 31			; 0000001fH
  00024	77 1f		 ja	 SHORT $LN27@basic_stri

; 220  :     _Ptr = reinterpret_cast<void*>(_Ptr_container);

  00026	8b c2		 mov	 eax, edx
$LN30@basic_stri:

; 289  :         ::operator delete(_Ptr, _Bytes);

  00028	51		 push	 ecx
  00029	50		 push	 eax
  0002a	e8 00 00 00 00	 call	 ??3@YAXPAXI@Z		; operator delete
  0002f	83 c4 08	 add	 esp, 8
$LN19@basic_stri:
; File D:\Program Files\Microsoft Visual Studio\2022\Community\VC\Tools\MSVC\14.43.34808\include\xstring

; 3054 :         _My_data._Mysize = 0;

  00032	c7 46 10 00 00
	00 00		 mov	 DWORD PTR [esi+16], 0

; 3055 :         _My_data._Myres  = _Small_string_capacity;

  00039	c7 46 14 0f 00
	00 00		 mov	 DWORD PTR [esi+20], 15	; 0000000fH

; 3056 :         // the _Traits::assign is last so the codegen doesn't think the char write can alias this
; 3057 :         _Traits::assign(_My_data._Bx._Buf[0], _Elem());

  00040	c6 06 00	 mov	 BYTE PTR [esi], 0
  00043	5e		 pop	 esi

; 1366 :     }

  00044	c3		 ret	 0
$LN27@basic_stri:
; File D:\Program Files\Microsoft Visual Studio\2022\Community\VC\Tools\MSVC\14.43.34808\include\xmemory

; 219  :     _STL_VERIFY(_Back_shift >= _Min_back_shift && _Back_shift <= _Non_user_size, "invalid argument");

  00045	e8 00 00 00 00	 call	 __invalid_parameter_noinfo_noreturn
$LN39@basic_stri:
  0004a	cc		 int	 3
??1?$basic_string@DU?$char_traits@D@std@@V?$allocator@D@2@@std@@QAE@XZ ENDP ; std::basic_string<char,std::char_traits<char>,std::allocator<char> >::~basic_string<char,std::char_traits<char>,std::allocator<char> >
_TEXT	ENDS
; Function compile flags: /Ogtp
; File D:\Program Files\Microsoft Visual Studio\2022\Community\VC\Tools\MSVC\14.43.34808\include\xstring
; File D:\Program Files\Microsoft Visual Studio\2022\Community\VC\Tools\MSVC\14.43.34808\include\__msvc_string_view.hpp
; File D:\Program Files\Microsoft Visual Studio\2022\Community\VC\Tools\MSVC\14.43.34808\include\xstring
; File D:\Program Files\Microsoft Visual Studio\2022\Community\VC\Tools\MSVC\14.43.34808\include\__msvc_string_view.hpp
; File D:\Program Files\Microsoft Visual Studio\2022\Community\VC\Tools\MSVC\14.43.34808\include\xstring
; File D:\Program Files\Microsoft Visual Studio\2022\Community\VC\Tools\MSVC\14.43.34808\include\__msvc_string_view.hpp
; File D:\Program Files\Microsoft Visual Studio\2022\Community\VC\Tools\MSVC\14.43.34808\include\xstring
; File D:\Program Files\Microsoft Visual Studio\2022\Community\VC\Tools\MSVC\14.43.34808\include\__msvc_string_view.hpp
; File D:\Program Files\Microsoft Visual Studio\2022\Community\VC\Tools\MSVC\14.43.34808\include\xstring
; File D:\Program Files\Microsoft Visual Studio\2022\Community\VC\Tools\MSVC\14.43.34808\include\xmemory
; File D:\Program Files\Microsoft Visual Studio\2022\Community\VC\Tools\MSVC\14.43.34808\include\xstring
; File D:\Program Files\Microsoft Visual Studio\2022\Community\VC\Tools\MSVC\14.43.34808\include\xmemory
; File D:\Program Files\Microsoft Visual Studio\2022\Community\VC\Tools\MSVC\14.43.34808\include\xstring
; File D:\Program Files\Microsoft Visual Studio\2022\Community\VC\Tools\MSVC\14.43.34808\include\__msvc_string_view.hpp
; File D:\Program Files\Microsoft Visual Studio\2022\Community\VC\Tools\MSVC\14.43.34808\include\xstring
; File D:\Program Files\Microsoft Visual Studio\2022\Community\VC\Tools\MSVC\14.43.34808\include\__msvc_string_view.hpp
; File D:\Program Files\Microsoft Visual Studio\2022\Community\VC\Tools\MSVC\14.43.34808\include\xstring
; File D:\Program Files\Microsoft Visual Studio\2022\Community\VC\Tools\MSVC\14.43.34808\include\__msvc_string_view.hpp
; File D:\Program Files\Microsoft Visual Studio\2022\Community\VC\Tools\MSVC\14.43.34808\include\xstring
;	COMDAT ??0?$basic_string@DU?$char_traits@D@std@@V?$allocator@D@2@@std@@QAE@QBD@Z
_TEXT	SEGMENT
$T1 = -4						; size = 4
__Ptr$ = 8						; size = 4
??0?$basic_string@DU?$char_traits@D@std@@V?$allocator@D@2@@std@@QAE@QBD@Z PROC ; std::basic_string<char,std::char_traits<char>,std::allocator<char> >::basic_string<char,std::char_traits<char>,std::allocator<char> >, COMDAT
; _this$ = ecx

; 744  :     _CONSTEXPR20 basic_string(_In_z_ const _Elem* const _Ptr) : _Mypair(_Zero_then_variadic_args_t{}) {

  00000	55		 push	 ebp
  00001	8b ec		 mov	 ebp, esp
  00003	51		 push	 ecx
  00004	53		 push	 ebx
  00005	56		 push	 esi
  00006	8b d9		 mov	 ebx, ecx
  00008	0f 57 c0	 xorps	 xmm0, xmm0
  0000b	57		 push	 edi
; File D:\Program Files\Microsoft Visual Studio\2022\Community\VC\Tools\MSVC\14.43.34808\include\__msvc_string_view.hpp

; 433  :         return _CSTD strlen(reinterpret_cast<const char*>(_First));

  0000c	8b 7d 08	 mov	 edi, DWORD PTR __Ptr$[ebp]
  0000f	8b f7		 mov	 esi, edi
; File D:\Program Files\Microsoft Visual Studio\2022\Community\VC\Tools\MSVC\14.43.34808\include\xstring

; 474  :         _CONSTEXPR20 _Bxty() noexcept : _Buf() {} // user-provided, for fancy pointers

  00011	0f 11 03	 movups	 XMMWORD PTR [ebx], xmm0

; 498  :     size_type _Mysize = 0; // current length of string (size)

  00014	c7 43 10 00 00
	00 00		 mov	 DWORD PTR [ebx+16], 0

; 499  :     size_type _Myres  = 0; // current storage reserved for string (capacity)

  0001b	c7 43 14 00 00
	00 00		 mov	 DWORD PTR [ebx+20], 0
; File D:\Program Files\Microsoft Visual Studio\2022\Community\VC\Tools\MSVC\14.43.34808\include\__msvc_string_view.hpp

; 433  :         return _CSTD strlen(reinterpret_cast<const char*>(_First));

  00022	8d 4e 01	 lea	 ecx, DWORD PTR [esi+1]
$LL51@basic_stri:
  00025	8a 06		 mov	 al, BYTE PTR [esi]
  00027	46		 inc	 esi
  00028	84 c0		 test	 al, al
  0002a	75 f9		 jne	 SHORT $LL51@basic_stri
  0002c	2b f1		 sub	 esi, ecx
; File D:\Program Files\Microsoft Visual Studio\2022\Community\VC\Tools\MSVC\14.43.34808\include\xstring

; 857  :         if (_Count > max_size()) {

  0002e	81 fe ff ff ff
	7f		 cmp	 esi, 2147483647		; 7fffffffH
  00034	0f 87 9b 00 00
	00		 ja	 $LN62@basic_stri

; 859  :         }
; 860  : 
; 861  :         auto& _Al       = _Getal();
; 862  :         auto&& _Alproxy = _GET_PROXY_ALLOCATOR(_Alty, _Al);
; 863  :         _Container_proxy_ptr<_Alty> _Proxy(_Alproxy, _My_data);
; 864  : 
; 865  :         if (_Count <= _Small_string_capacity) {

  0003a	83 fe 0f	 cmp	 esi, 15			; 0000000fH
  0003d	77 24		 ja	 SHORT $LN21@basic_stri
; File D:\Program Files\Microsoft Visual Studio\2022\Community\VC\Tools\MSVC\14.43.34808\include\__msvc_string_view.hpp

; 95   :         _CSTD memcpy(_First1, _First2, _Count * sizeof(_Elem));

  0003f	56		 push	 esi
  00040	57		 push	 edi
  00041	53		 push	 ebx
; File D:\Program Files\Microsoft Visual Studio\2022\Community\VC\Tools\MSVC\14.43.34808\include\xstring

; 866  :             _My_data._Mysize = _Count;

  00042	89 73 10	 mov	 DWORD PTR [ebx+16], esi

; 867  :             _My_data._Myres  = _Small_string_capacity;

  00045	c7 43 14 0f 00
	00 00		 mov	 DWORD PTR [ebx+20], 15	; 0000000fH
; File D:\Program Files\Microsoft Visual Studio\2022\Community\VC\Tools\MSVC\14.43.34808\include\__msvc_string_view.hpp

; 95   :         _CSTD memcpy(_First1, _First2, _Count * sizeof(_Elem));

  0004c	e8 00 00 00 00	 call	 _memcpy
; File D:\Program Files\Microsoft Visual Studio\2022\Community\VC\Tools\MSVC\14.43.34808\include\xstring

; 874  :                 _Traits::assign(_My_data._Bx._Buf[_Count], _Elem());

  00051	c6 04 1e 00	 mov	 BYTE PTR [esi+ebx], 0

; 745  :         _Construct<_Construct_strategy::_From_ptr>(_Ptr, _Convert_size<size_type>(_Traits::length(_Ptr)));
; 746  :     }

  00055	83 c4 0c	 add	 esp, 12			; 0000000cH
  00058	8b c3		 mov	 eax, ebx
  0005a	5f		 pop	 edi
  0005b	5e		 pop	 esi
  0005c	5b		 pop	 ebx
  0005d	8b e5		 mov	 esp, ebp
  0005f	5d		 pop	 ebp
  00060	c2 04 00	 ret	 4
$LN21@basic_stri:

; 2942 :         const size_type _Masked = _Requested | _Alloc_mask;

  00063	8b fe		 mov	 edi, esi
  00065	83 cf 0f	 or	 edi, 15			; 0000000fH
  00068	81 ff ff ff ff
	7f		 cmp	 edi, 2147483647		; 7fffffffH

; 2943 :         if (_Masked > _Max) { // the mask overflows, settle for max_size()

  0006e	76 12		 jbe	 SHORT $LN27@basic_stri

; 2944 :             return _Max;

  00070	b8 00 00 00 80	 mov	 eax, -2147483648	; 80000000H
  00075	bf ff ff ff 7f	 mov	 edi, 2147483647		; 7fffffffH
; File D:\Program Files\Microsoft Visual Studio\2022\Community\VC\Tools\MSVC\14.43.34808\include\xmemory

; 253  :             return _Allocate_manually_vector_aligned<_Traits>(_Bytes);

  0007a	50		 push	 eax
  0007b	e8 00 00 00 00	 call	 ??$_Allocate_manually_vector_aligned@U_Default_allocate_traits@std@@@std@@YAPAXI@Z ; std::_Allocate_manually_vector_aligned<std::_Default_allocate_traits>
  00080	eb 26		 jmp	 SHORT $LN60@basic_stri
$LN27@basic_stri:
; File D:\Program Files\Microsoft Visual Studio\2022\Community\VC\Tools\MSVC\14.43.34808\include\xstring

; 2951 :         return (_STD max)(_Masked, _Old + _Old / 2);

  00082	b8 16 00 00 00	 mov	 eax, 22			; 00000016H
  00087	3b f8		 cmp	 edi, eax
  00089	0f 42 f8	 cmovb	 edi, eax

; 801  :         ++_Capacity; // Take null terminator into consideration

  0008c	8d 47 01	 lea	 eax, DWORD PTR [edi+1]
; File D:\Program Files\Microsoft Visual Studio\2022\Community\VC\Tools\MSVC\14.43.34808\include\xmemory

; 227  :     if (_Bytes == 0) {

  0008f	85 c0		 test	 eax, eax
  00091	74 18		 je	 SHORT $LN59@basic_stri
$LN41@basic_stri:

; 228  :         return nullptr;
; 229  :     }
; 230  : 
; 231  : #if _HAS_CXX20 // TRANSITION, GH-1532
; 232  :     if (_STD is_constant_evaluated()) {
; 233  :         return _Traits::_Allocate(_Bytes);
; 234  :     }
; 235  : #endif // _HAS_CXX20
; 236  : 
; 237  : #ifdef __cpp_aligned_new
; 238  :     if constexpr (_Align > __STDCPP_DEFAULT_NEW_ALIGNMENT__) {
; 239  :         size_t _Passed_align = _Align;
; 240  : #if defined(_M_IX86) || defined(_M_X64)
; 241  :         if (_Bytes >= _Big_allocation_threshold) {
; 242  :             // boost the alignment of big allocations to help autovectorization
; 243  :             _Passed_align = (_STD max)(_Align, _Big_allocation_alignment);
; 244  :         }
; 245  : #endif // defined(_M_IX86) || defined(_M_X64)
; 246  :         return _Traits::_Allocate_aligned(_Bytes, _Passed_align);
; 247  :     } else
; 248  : #endif // defined(__cpp_aligned_new)
; 249  :     {
; 250  : #if defined(_M_IX86) || defined(_M_X64)
; 251  :         if (_Bytes >= _Big_allocation_threshold) {

  00093	3d 00 10 00 00	 cmp	 eax, 4096		; 00001000H
  00098	72 08		 jb	 SHORT $LN42@basic_stri

; 253  :             return _Allocate_manually_vector_aligned<_Traits>(_Bytes);

  0009a	50		 push	 eax
  0009b	e8 00 00 00 00	 call	 ??$_Allocate_manually_vector_aligned@U_Default_allocate_traits@std@@@std@@YAPAXI@Z ; std::_Allocate_manually_vector_aligned<std::_Default_allocate_traits>
  000a0	eb 06		 jmp	 SHORT $LN60@basic_stri
$LN42@basic_stri:

; 136  :         return ::operator new(_Bytes);

  000a2	50		 push	 eax
  000a3	e8 00 00 00 00	 call	 ??2@YAPAXI@Z		; operator new
$LN60@basic_stri:
; File D:\Program Files\Microsoft Visual Studio\2022\Community\VC\Tools\MSVC\14.43.34808\include\xstring

; 889  :         _Construct_in_place(_My_data._Bx._Ptr, _New_ptr);

  000a8	83 c4 04	 add	 esp, 4
$LN59@basic_stri:
; File D:\Program Files\Microsoft Visual Studio\2022\Community\VC\Tools\MSVC\14.43.34808\include\__msvc_string_view.hpp

; 95   :         _CSTD memcpy(_First1, _First2, _Count * sizeof(_Elem));

  000ab	56		 push	 esi
  000ac	ff 75 08	 push	 DWORD PTR __Ptr$[ebp]
; File D:\Program Files\Microsoft Visual Studio\2022\Community\VC\Tools\MSVC\14.43.34808\include\xstring

; 889  :         _Construct_in_place(_My_data._Bx._Ptr, _New_ptr);

  000af	89 45 fc	 mov	 DWORD PTR $T1[ebp], eax
; File D:\Program Files\Microsoft Visual Studio\2022\Community\VC\Tools\MSVC\14.43.34808\include\__msvc_string_view.hpp

; 95   :         _CSTD memcpy(_First1, _First2, _Count * sizeof(_Elem));

  000b2	50		 push	 eax
; File D:\Program Files\Microsoft Visual Studio\2022\Community\VC\Tools\MSVC\14.43.34808\include\xstring

; 889  :         _Construct_in_place(_My_data._Bx._Ptr, _New_ptr);

  000b3	89 03		 mov	 DWORD PTR [ebx], eax

; 890  : 
; 891  :         _My_data._Mysize = _Count;

  000b5	89 73 10	 mov	 DWORD PTR [ebx+16], esi

; 892  :         _My_data._Myres  = _New_capacity;

  000b8	89 7b 14	 mov	 DWORD PTR [ebx+20], edi
; File D:\Program Files\Microsoft Visual Studio\2022\Community\VC\Tools\MSVC\14.43.34808\include\__msvc_string_view.hpp

; 95   :         _CSTD memcpy(_First1, _First2, _Count * sizeof(_Elem));

  000bb	e8 00 00 00 00	 call	 _memcpy
; File D:\Program Files\Microsoft Visual Studio\2022\Community\VC\Tools\MSVC\14.43.34808\include\xstring

; 898  :             _Traits::assign(_Unfancy(_New_ptr)[_Count], _Elem());

  000c0	8b 45 fc	 mov	 eax, DWORD PTR $T1[ebp]

; 745  :         _Construct<_Construct_strategy::_From_ptr>(_Ptr, _Convert_size<size_type>(_Traits::length(_Ptr)));
; 746  :     }

  000c3	83 c4 0c	 add	 esp, 12			; 0000000cH
  000c6	5f		 pop	 edi

; 898  :             _Traits::assign(_Unfancy(_New_ptr)[_Count], _Elem());

  000c7	c6 04 30 00	 mov	 BYTE PTR [eax+esi], 0

; 745  :         _Construct<_Construct_strategy::_From_ptr>(_Ptr, _Convert_size<size_type>(_Traits::length(_Ptr)));
; 746  :     }

  000cb	8b c3		 mov	 eax, ebx
  000cd	5e		 pop	 esi
  000ce	5b		 pop	 ebx
  000cf	8b e5		 mov	 esp, ebp
  000d1	5d		 pop	 ebp
  000d2	c2 04 00	 ret	 4
$LN62@basic_stri:

; 858  :             _Xlen_string(); // result too long

  000d5	e8 00 00 00 00	 call	 ?_Xlen_string@std@@YAXXZ ; std::_Xlen_string
$LN57@basic_stri:
  000da	cc		 int	 3
??0?$basic_string@DU?$char_traits@D@std@@V?$allocator@D@2@@std@@QAE@QBD@Z ENDP ; std::basic_string<char,std::char_traits<char>,std::allocator<char> >::basic_string<char,std::char_traits<char>,std::allocator<char> >
_TEXT	ENDS
; Function compile flags: /Ogtp
; File D:\Program Files\Microsoft Visual Studio\2022\Community\VC\Tools\MSVC\14.43.34808\include\xstring
;	COMDAT ?_Xlen_string@std@@YAXXZ
_TEXT	SEGMENT
?_Xlen_string@std@@YAXXZ PROC				; std::_Xlen_string, COMDAT

; 512  :     _Xlength_error("string too long");

  00000	68 00 00 00 00	 push	 OFFSET ??_C@_0BA@JFNIOLAK@string?5too?5long@
  00005	e8 00 00 00 00	 call	 ?_Xlength_error@std@@YAXPBD@Z ; std::_Xlength_error
$LN3@Xlen_strin:
  0000a	cc		 int	 3
?_Xlen_string@std@@YAXXZ ENDP				; std::_Xlen_string
_TEXT	ENDS
; Function compile flags: /Ogtp
; File D:\Program Files\Microsoft Visual Studio\2022\Community\VC\Tools\MSVC\14.43.34808\include\xmemory
;	COMDAT ?_Throw_bad_array_new_length@std@@YAXXZ
_TEXT	SEGMENT
$T1 = -12						; size = 12
?_Throw_bad_array_new_length@std@@YAXXZ PROC		; std::_Throw_bad_array_new_length, COMDAT

; 107  : [[noreturn]] inline void _Throw_bad_array_new_length() {

  00000	55		 push	 ebp
  00001	8b ec		 mov	 ebp, esp
  00003	83 ec 0c	 sub	 esp, 12			; 0000000cH

; 108  :     _THROW(bad_array_new_length{});

  00006	8d 4d f4	 lea	 ecx, DWORD PTR $T1[ebp]
  00009	e8 00 00 00 00	 call	 ??0bad_array_new_length@std@@QAE@XZ ; std::bad_array_new_length::bad_array_new_length
  0000e	68 00 00 00 00	 push	 OFFSET __TI3?AVbad_array_new_length@std@@
  00013	8d 45 f4	 lea	 eax, DWORD PTR $T1[ebp]
  00016	50		 push	 eax
  00017	e8 00 00 00 00	 call	 __CxxThrowException@8
$LN3@Throw_bad_:
  0001c	cc		 int	 3
?_Throw_bad_array_new_length@std@@YAXXZ ENDP		; std::_Throw_bad_array_new_length
_TEXT	ENDS
; Function compile flags: /Ogtp
; File D:\Program Files\Microsoft Visual Studio\2022\Community\VC\Tools\MSVC\14.43.34808\include\vcruntime_exception.h
;	COMDAT ??_Gbad_array_new_length@std@@UAEPAXI@Z
_TEXT	SEGMENT
___flags$ = 8						; size = 4
??_Gbad_array_new_length@std@@UAEPAXI@Z PROC		; std::bad_array_new_length::`scalar deleting destructor', COMDAT
; _this$ = ecx
  00000	55		 push	 ebp
  00001	8b ec		 mov	 ebp, esp

; 90   :     {

  00003	56		 push	 esi
  00004	8b f1		 mov	 esi, ecx

; 91   :         __std_exception_destroy(&_Data);

  00006	8d 46 04	 lea	 eax, DWORD PTR [esi+4]
  00009	c7 06 00 00 00
	00		 mov	 DWORD PTR [esi], OFFSET ??_7exception@std@@6B@
  0000f	50		 push	 eax
  00010	e8 00 00 00 00	 call	 ___std_exception_destroy
  00015	83 c4 04	 add	 esp, 4
  00018	f6 45 08 01	 test	 BYTE PTR ___flags$[ebp], 1
  0001c	74 0b		 je	 SHORT $LN18@scalar
  0001e	6a 0c		 push	 12			; 0000000cH
  00020	56		 push	 esi
  00021	e8 00 00 00 00	 call	 ??3@YAXPAXI@Z		; operator delete
  00026	83 c4 08	 add	 esp, 8
$LN18@scalar:
  00029	8b c6		 mov	 eax, esi
  0002b	5e		 pop	 esi
  0002c	5d		 pop	 ebp
  0002d	c2 04 00	 ret	 4
??_Gbad_array_new_length@std@@UAEPAXI@Z ENDP		; std::bad_array_new_length::`scalar deleting destructor'
_TEXT	ENDS
; Function compile flags: /Ogtp
; File D:\Program Files\Microsoft Visual Studio\2022\Community\VC\Tools\MSVC\14.43.34808\include\vcruntime_exception.h
;	COMDAT ??0bad_array_new_length@std@@QAE@ABV01@@Z
_TEXT	SEGMENT
___that$ = 8						; size = 4
??0bad_array_new_length@std@@QAE@ABV01@@Z PROC		; std::bad_array_new_length::bad_array_new_length, COMDAT
; _this$ = ecx
  00000	55		 push	 ebp
  00001	8b ec		 mov	 ebp, esp

; 73   :     {

  00003	56		 push	 esi
  00004	8b f1		 mov	 esi, ecx
  00006	0f 57 c0	 xorps	 xmm0, xmm0

; 72   :         : _Data()

  00009	8d 46 04	 lea	 eax, DWORD PTR [esi+4]

; 74   :         __std_exception_copy(&_Other._Data, &_Data);

  0000c	50		 push	 eax
  0000d	c7 06 00 00 00
	00		 mov	 DWORD PTR [esi], OFFSET ??_7exception@std@@6B@
  00013	66 0f d6 00	 movq	 QWORD PTR [eax], xmm0
  00017	8b 45 08	 mov	 eax, DWORD PTR ___that$[ebp]
  0001a	83 c0 04	 add	 eax, 4
  0001d	50		 push	 eax
  0001e	e8 00 00 00 00	 call	 ___std_exception_copy
  00023	83 c4 08	 add	 esp, 8
  00026	c7 06 00 00 00
	00		 mov	 DWORD PTR [esi], OFFSET ??_7bad_array_new_length@std@@6B@
  0002c	8b c6		 mov	 eax, esi
  0002e	5e		 pop	 esi
  0002f	5d		 pop	 ebp
  00030	c2 04 00	 ret	 4
??0bad_array_new_length@std@@QAE@ABV01@@Z ENDP		; std::bad_array_new_length::bad_array_new_length
_TEXT	ENDS
; Function compile flags: /Ogtp
; File D:\Program Files\Microsoft Visual Studio\2022\Community\VC\Tools\MSVC\14.43.34808\include\vcruntime_exception.h
;	COMDAT ??1bad_array_new_length@std@@UAE@XZ
_TEXT	SEGMENT
??1bad_array_new_length@std@@UAE@XZ PROC		; std::bad_array_new_length::~bad_array_new_length, COMDAT
; _this$ = ecx

; 91   :         __std_exception_destroy(&_Data);

  00000	8d 41 04	 lea	 eax, DWORD PTR [ecx+4]
  00003	c7 01 00 00 00
	00		 mov	 DWORD PTR [ecx], OFFSET ??_7exception@std@@6B@
  00009	50		 push	 eax
  0000a	e8 00 00 00 00	 call	 ___std_exception_destroy
  0000f	59		 pop	 ecx
  00010	c3		 ret	 0
??1bad_array_new_length@std@@UAE@XZ ENDP		; std::bad_array_new_length::~bad_array_new_length
_TEXT	ENDS
; Function compile flags: /Ogtp
; File D:\Program Files\Microsoft Visual Studio\2022\Community\VC\Tools\MSVC\14.43.34808\include\vcruntime_exception.h
;	COMDAT ??0bad_array_new_length@std@@QAE@XZ
_TEXT	SEGMENT
??0bad_array_new_length@std@@QAE@XZ PROC		; std::bad_array_new_length::bad_array_new_length, COMDAT
; _this$ = ecx

; 144  :     {

  00000	0f 57 c0	 xorps	 xmm0, xmm0

; 145  :     }

  00003	8b c1		 mov	 eax, ecx

; 66   :         : _Data()

  00005	66 0f d6 41 04	 movq	 QWORD PTR [ecx+4], xmm0

; 67   :     {
; 68   :         _Data._What = _Message;

  0000a	c7 41 04 00 00
	00 00		 mov	 DWORD PTR [ecx+4], OFFSET ??_C@_0BF@KINCDENJ@bad?5array?5new?5length@

; 144  :     {

  00011	c7 01 00 00 00
	00		 mov	 DWORD PTR [ecx], OFFSET ??_7bad_array_new_length@std@@6B@

; 145  :     }

  00017	c3		 ret	 0
??0bad_array_new_length@std@@QAE@XZ ENDP		; std::bad_array_new_length::bad_array_new_length
_TEXT	ENDS
; Function compile flags: /Ogtp
; File D:\Program Files\Microsoft Visual Studio\2022\Community\VC\Tools\MSVC\14.43.34808\include\vcruntime_exception.h
;	COMDAT ??_Gbad_alloc@std@@UAEPAXI@Z
_TEXT	SEGMENT
___flags$ = 8						; size = 4
??_Gbad_alloc@std@@UAEPAXI@Z PROC			; std::bad_alloc::`scalar deleting destructor', COMDAT
; _this$ = ecx
  00000	55		 push	 ebp
  00001	8b ec		 mov	 ebp, esp

; 90   :     {

  00003	56		 push	 esi
  00004	8b f1		 mov	 esi, ecx

; 91   :         __std_exception_destroy(&_Data);

  00006	8d 46 04	 lea	 eax, DWORD PTR [esi+4]
  00009	c7 06 00 00 00
	00		 mov	 DWORD PTR [esi], OFFSET ??_7exception@std@@6B@
  0000f	50		 push	 eax
  00010	e8 00 00 00 00	 call	 ___std_exception_destroy
  00015	83 c4 04	 add	 esp, 4
  00018	f6 45 08 01	 test	 BYTE PTR ___flags$[ebp], 1
  0001c	74 0b		 je	 SHORT $LN13@scalar
  0001e	6a 0c		 push	 12			; 0000000cH
  00020	56		 push	 esi
  00021	e8 00 00 00 00	 call	 ??3@YAXPAXI@Z		; operator delete
  00026	83 c4 08	 add	 esp, 8
$LN13@scalar:
  00029	8b c6		 mov	 eax, esi
  0002b	5e		 pop	 esi
  0002c	5d		 pop	 ebp
  0002d	c2 04 00	 ret	 4
??_Gbad_alloc@std@@UAEPAXI@Z ENDP			; std::bad_alloc::`scalar deleting destructor'
_TEXT	ENDS
; Function compile flags: /Ogtp
; File D:\Program Files\Microsoft Visual Studio\2022\Community\VC\Tools\MSVC\14.43.34808\include\vcruntime_exception.h
;	COMDAT ??0bad_alloc@std@@QAE@ABV01@@Z
_TEXT	SEGMENT
___that$ = 8						; size = 4
??0bad_alloc@std@@QAE@ABV01@@Z PROC			; std::bad_alloc::bad_alloc, COMDAT
; _this$ = ecx
  00000	55		 push	 ebp
  00001	8b ec		 mov	 ebp, esp

; 73   :     {

  00003	56		 push	 esi
  00004	8b f1		 mov	 esi, ecx
  00006	0f 57 c0	 xorps	 xmm0, xmm0

; 72   :         : _Data()

  00009	8d 46 04	 lea	 eax, DWORD PTR [esi+4]

; 74   :         __std_exception_copy(&_Other._Data, &_Data);

  0000c	50		 push	 eax
  0000d	c7 06 00 00 00
	00		 mov	 DWORD PTR [esi], OFFSET ??_7exception@std@@6B@
  00013	66 0f d6 00	 movq	 QWORD PTR [eax], xmm0
  00017	8b 45 08	 mov	 eax, DWORD PTR ___that$[ebp]
  0001a	83 c0 04	 add	 eax, 4
  0001d	50		 push	 eax
  0001e	e8 00 00 00 00	 call	 ___std_exception_copy
  00023	83 c4 08	 add	 esp, 8
  00026	c7 06 00 00 00
	00		 mov	 DWORD PTR [esi], OFFSET ??_7bad_alloc@std@@6B@
  0002c	8b c6		 mov	 eax, esi
  0002e	5e		 pop	 esi
  0002f	5d		 pop	 ebp
  00030	c2 04 00	 ret	 4
??0bad_alloc@std@@QAE@ABV01@@Z ENDP			; std::bad_alloc::bad_alloc
_TEXT	ENDS
; Function compile flags: /Ogtp
; File D:\Program Files\Microsoft Visual Studio\2022\Community\VC\Tools\MSVC\14.43.34808\include\vcruntime_exception.h
;	COMDAT ??_Gexception@std@@UAEPAXI@Z
_TEXT	SEGMENT
___flags$ = 8						; size = 4
??_Gexception@std@@UAEPAXI@Z PROC			; std::exception::`scalar deleting destructor', COMDAT
; _this$ = ecx
  00000	55		 push	 ebp
  00001	8b ec		 mov	 ebp, esp

; 90   :     {

  00003	56		 push	 esi
  00004	8b f1		 mov	 esi, ecx

; 91   :         __std_exception_destroy(&_Data);

  00006	8d 46 04	 lea	 eax, DWORD PTR [esi+4]
  00009	c7 06 00 00 00
	00		 mov	 DWORD PTR [esi], OFFSET ??_7exception@std@@6B@
  0000f	50		 push	 eax
  00010	e8 00 00 00 00	 call	 ___std_exception_destroy
  00015	83 c4 04	 add	 esp, 4
  00018	f6 45 08 01	 test	 BYTE PTR ___flags$[ebp], 1
  0001c	74 0b		 je	 SHORT $LN8@scalar
  0001e	6a 0c		 push	 12			; 0000000cH
  00020	56		 push	 esi
  00021	e8 00 00 00 00	 call	 ??3@YAXPAXI@Z		; operator delete
  00026	83 c4 08	 add	 esp, 8
$LN8@scalar:
  00029	8b c6		 mov	 eax, esi
  0002b	5e		 pop	 esi
  0002c	5d		 pop	 ebp
  0002d	c2 04 00	 ret	 4
??_Gexception@std@@UAEPAXI@Z ENDP			; std::exception::`scalar deleting destructor'
_TEXT	ENDS
; Function compile flags: /Ogtp
; File D:\Program Files\Microsoft Visual Studio\2022\Community\VC\Tools\MSVC\14.43.34808\include\vcruntime_exception.h
;	COMDAT ?what@exception@std@@UBEPBDXZ
_TEXT	SEGMENT
?what@exception@std@@UBEPBDXZ PROC			; std::exception::what, COMDAT
; _this$ = ecx

; 96   :         return _Data._What ? _Data._What : "Unknown exception";

  00000	8b 49 04	 mov	 ecx, DWORD PTR [ecx+4]
  00003	b8 00 00 00 00	 mov	 eax, OFFSET ??_C@_0BC@EOODALEL@Unknown?5exception@
  00008	85 c9		 test	 ecx, ecx
  0000a	0f 45 c1	 cmovne	 eax, ecx

; 97   :     }

  0000d	c3		 ret	 0
?what@exception@std@@UBEPBDXZ ENDP			; std::exception::what
_TEXT	ENDS
; Function compile flags: /Ogtp
; File D:\Program Files\Microsoft Visual Studio\2022\Community\VC\Tools\MSVC\14.43.34808\include\vcruntime_exception.h
;	COMDAT ??1exception@std@@UAE@XZ
_TEXT	SEGMENT
??1exception@std@@UAE@XZ PROC				; std::exception::~exception, COMDAT
; _this$ = ecx

; 91   :         __std_exception_destroy(&_Data);

  00000	8d 41 04	 lea	 eax, DWORD PTR [ecx+4]
  00003	c7 01 00 00 00
	00		 mov	 DWORD PTR [ecx], OFFSET ??_7exception@std@@6B@
  00009	50		 push	 eax
  0000a	e8 00 00 00 00	 call	 ___std_exception_destroy
  0000f	59		 pop	 ecx

; 92   :     }

  00010	c3		 ret	 0
??1exception@std@@UAE@XZ ENDP				; std::exception::~exception
_TEXT	ENDS
; Function compile flags: /Ogtp
; File D:\Program Files\Microsoft Visual Studio\2022\Community\VC\Tools\MSVC\14.43.34808\include\vcruntime_exception.h
;	COMDAT ??0exception@std@@QAE@ABV01@@Z
_TEXT	SEGMENT
__Other$ = 8						; size = 4
??0exception@std@@QAE@ABV01@@Z PROC			; std::exception::exception, COMDAT
; _this$ = ecx

; 73   :     {

  00000	55		 push	 ebp
  00001	8b ec		 mov	 ebp, esp
  00003	56		 push	 esi
  00004	8b f1		 mov	 esi, ecx
  00006	0f 57 c0	 xorps	 xmm0, xmm0
  00009	8d 46 04	 lea	 eax, DWORD PTR [esi+4]

; 74   :         __std_exception_copy(&_Other._Data, &_Data);

  0000c	50		 push	 eax
  0000d	c7 06 00 00 00
	00		 mov	 DWORD PTR [esi], OFFSET ??_7exception@std@@6B@
  00013	66 0f d6 00	 movq	 QWORD PTR [eax], xmm0
  00017	8b 45 08	 mov	 eax, DWORD PTR __Other$[ebp]
  0001a	83 c0 04	 add	 eax, 4
  0001d	50		 push	 eax
  0001e	e8 00 00 00 00	 call	 ___std_exception_copy
  00023	83 c4 08	 add	 esp, 8

; 75   :     }

  00026	8b c6		 mov	 eax, esi
  00028	5e		 pop	 esi
  00029	5d		 pop	 ebp
  0002a	c2 04 00	 ret	 4
??0exception@std@@QAE@ABV01@@Z ENDP			; std::exception::exception
_TEXT	ENDS
END
