; Listing generated by Microsoft (R) Optimizing Compiler Version 19.43.34808.0 

	TITLE	C:\Marty 5.5\Src-Client\Client\eterGrnLib\Distribute\Material.obj
	.686P
	.XMM
	include listing.inc
	.model	flat

INCLUDELIB LIBCMT
INCLUDELIB OLDNAMES

CONST	SEGMENT
?_Fake_alloc@std@@3U_Fake_allocator@1@B	ORG $+1		; std::_Fake_alloc
CONST	ENDS
PUBLIC	??_H@YGXPAXIIP6EPAX0@Z@Z			; `vector constructor iterator'
PUBLIC	___local_stdio_printf_options
PUBLIC	__snprintf
PUBLIC	??0exception@std@@QAE@ABV01@@Z			; std::exception::exception
PUBLIC	??1exception@std@@UAE@XZ			; std::exception::~exception
PUBLIC	?what@exception@std@@UBEPBDXZ			; std::exception::what
PUBLIC	??_Gexception@std@@UAEPAXI@Z			; std::exception::`scalar deleting destructor'
PUBLIC	??0bad_alloc@std@@QAE@ABV01@@Z			; std::bad_alloc::bad_alloc
PUBLIC	??_Gbad_alloc@std@@UAEPAXI@Z			; std::bad_alloc::`scalar deleting destructor'
PUBLIC	??0bad_array_new_length@std@@QAE@XZ		; std::bad_array_new_length::bad_array_new_length
PUBLIC	??1bad_array_new_length@std@@UAE@XZ		; std::bad_array_new_length::~bad_array_new_length
PUBLIC	??0bad_array_new_length@std@@QAE@ABV01@@Z	; std::bad_array_new_length::bad_array_new_length
PUBLIC	??_Gbad_array_new_length@std@@UAEPAXI@Z		; std::bad_array_new_length::`scalar deleting destructor'
PUBLIC	?_Throw_bad_array_new_length@std@@YAXXZ		; std::_Throw_bad_array_new_length
PUBLIC	?_Xlen_string@std@@YAXXZ			; std::_Xlen_string
PUBLIC	?_Xran@?$_String_val@U?$_Simple_types@D@std@@@std@@SAXXZ ; std::_String_val<std::_Simple_types<char> >::_Xran
PUBLIC	??1?$basic_string@DU?$char_traits@D@std@@V?$allocator@D@2@@std@@QAE@XZ ; std::basic_string<char,std::char_traits<char>,std::allocator<char> >::~basic_string<char,std::char_traits<char>,std::allocator<char> >
PUBLIC	??$_Construct@$00PBD@?$basic_string@DU?$char_traits@D@std@@V?$allocator@D@2@@std@@AAEXQBDI@Z ; std::basic_string<char,std::char_traits<char>,std::allocator<char> >::_Construct<1,char const *>
PUBLIC	??$_Allocate_manually_vector_aligned@U_Default_allocate_traits@std@@@std@@YAPAXI@Z ; std::_Allocate_manually_vector_aligned<std::_Default_allocate_traits>
PUBLIC	??0D3DXMATRIX@@QAE@XZ				; D3DXMATRIX::D3DXMATRIX
PUBLIC	??0?$CRef@VCGraphicImage@@@@QAE@XZ		; CRef<CGraphicImage>::CRef<CGraphicImage>
PUBLIC	??1?$CRef@VCGraphicImage@@@@QAE@XZ		; CRef<CGraphicImage>::~CRef<CGraphicImage>
PUBLIC	?CreateSphereMap@CGrannyMaterial@@SAXIPBD@Z	; CGrannyMaterial::CreateSphereMap
PUBLIC	?DestroySphereMap@CGrannyMaterial@@SAXXZ	; CGrannyMaterial::DestroySphereMap
PUBLIC	?TranslateSpecularMatrix@CGrannyMaterial@@SAXMMM@Z ; CGrannyMaterial::TranslateSpecularMatrix
PUBLIC	??0CGrannyMaterial@@QAE@XZ			; CGrannyMaterial::CGrannyMaterial
PUBLIC	??1CGrannyMaterial@@UAE@XZ			; CGrannyMaterial::~CGrannyMaterial
PUBLIC	?Copy@CGrannyMaterial@@QAEXAAV1@@Z		; CGrannyMaterial::Copy
PUBLIC	?IsEqual@CGrannyMaterial@@QBE_NPAUgranny_material@@@Z ; CGrannyMaterial::IsEqual
PUBLIC	?IsIn@CGrannyMaterial@@QAE_NPBDPAH@Z		; CGrannyMaterial::IsIn
PUBLIC	?SetSpecularInfo@CGrannyMaterial@@QAEXHME@Z	; CGrannyMaterial::SetSpecularInfo
PUBLIC	?ApplyRenderState@CGrannyMaterial@@QAEXXZ	; CGrannyMaterial::ApplyRenderState
PUBLIC	?RestoreRenderState@CGrannyMaterial@@QAEXXZ	; CGrannyMaterial::RestoreRenderState
PUBLIC	?Initialize@CGrannyMaterial@@IAEXXZ		; CGrannyMaterial::Initialize
PUBLIC	?CreateFromGrannyMaterialPointer@CGrannyMaterial@@QAE_NPAUgranny_material@@@Z ; CGrannyMaterial::CreateFromGrannyMaterialPointer
PUBLIC	?SetImagePointer@CGrannyMaterial@@QAEXHPAVCGraphicImage@@@Z ; CGrannyMaterial::SetImagePointer
PUBLIC	?GetType@CGrannyMaterial@@QBE?AW4EType@1@XZ	; CGrannyMaterial::GetType
PUBLIC	?GetImagePointer@CGrannyMaterial@@QBEPAVCGraphicImage@@H@Z ; CGrannyMaterial::GetImagePointer
PUBLIC	?GetDiffuseTexture@CGrannyMaterial@@QBEPBVCGraphicTexture@@XZ ; CGrannyMaterial::GetDiffuseTexture
PUBLIC	?GetOpacityTexture@CGrannyMaterial@@QBEPBVCGraphicTexture@@XZ ; CGrannyMaterial::GetOpacityTexture
PUBLIC	?GetD3DTexture@CGrannyMaterial@@QBEPAUIDirect3DTexture8@@H@Z ; CGrannyMaterial::GetD3DTexture
PUBLIC	?GetSpecularPower@CGrannyMaterial@@QBEMXZ	; CGrannyMaterial::GetSpecularPower
PUBLIC	?__GetImagePointer@CGrannyMaterial@@IAEPAVCGraphicImage@@PBD@Z ; CGrannyMaterial::__GetImagePointer
PUBLIC	?__ApplyDiffuseRenderState@CGrannyMaterial@@IAEXXZ ; CGrannyMaterial::__ApplyDiffuseRenderState
PUBLIC	?__RestoreDiffuseRenderState@CGrannyMaterial@@IAEXXZ ; CGrannyMaterial::__RestoreDiffuseRenderState
PUBLIC	?__ApplySpecularRenderState@CGrannyMaterial@@IAEXXZ ; CGrannyMaterial::__ApplySpecularRenderState
PUBLIC	?__RestoreSpecularRenderState@CGrannyMaterial@@IAEXXZ ; CGrannyMaterial::__RestoreSpecularRenderState
PUBLIC	??_GCGrannyMaterial@@UAEPAXI@Z			; CGrannyMaterial::`scalar deleting destructor'
PUBLIC	??0CGrannyMaterialPalette@@QAE@XZ		; CGrannyMaterialPalette::CGrannyMaterialPalette
PUBLIC	??1CGrannyMaterialPalette@@UAE@XZ		; CGrannyMaterialPalette::~CGrannyMaterialPalette
PUBLIC	?Clear@CGrannyMaterialPalette@@QAEXXZ		; CGrannyMaterialPalette::Clear
PUBLIC	?Copy@CGrannyMaterialPalette@@QAEXABV1@@Z	; CGrannyMaterialPalette::Copy
PUBLIC	?RegisterMaterial@CGrannyMaterialPalette@@QAEKPAUgranny_material@@@Z ; CGrannyMaterialPalette::RegisterMaterial
PUBLIC	?SetMaterialImagePointer@CGrannyMaterialPalette@@QAEXPBDPAVCGraphicImage@@@Z ; CGrannyMaterialPalette::SetMaterialImagePointer
PUBLIC	?SetMaterialData@CGrannyMaterialPalette@@QAEXPBDABUSMaterialData@@@Z ; CGrannyMaterialPalette::SetMaterialData
PUBLIC	?SetSpecularInfo@CGrannyMaterialPalette@@QAEXPBDHM@Z ; CGrannyMaterialPalette::SetSpecularInfo
PUBLIC	?GetMaterialRef@CGrannyMaterialPalette@@QAEAAVCGrannyMaterial@@K@Z ; CGrannyMaterialPalette::GetMaterialRef
PUBLIC	?GetMaterialCount@CGrannyMaterialPalette@@QBEKXZ ; CGrannyMaterialPalette::GetMaterialCount
PUBLIC	??1?$vector@V?$CRef@VCGrannyMaterial@@@@V?$allocator@V?$CRef@VCGrannyMaterial@@@@@std@@@std@@QAE@XZ ; std::vector<CRef<CGrannyMaterial>,std::allocator<CRef<CGrannyMaterial> > >::~vector<CRef<CGrannyMaterial>,std::allocator<CRef<CGrannyMaterial> > >
PUBLIC	?_Xlength@?$vector@V?$CRef@VCGrannyMaterial@@@@V?$allocator@V?$CRef@VCGrannyMaterial@@@@@std@@@std@@CAXXZ ; std::vector<CRef<CGrannyMaterial>,std::allocator<CRef<CGrannyMaterial> > >::_Xlength
PUBLIC	??_GCGrannyMaterialPalette@@UAEPAXI@Z		; CGrannyMaterialPalette::`scalar deleting destructor'
PUBLIC	?StringPath@CFileNameHelper@@SAXAAV?$basic_string@DU?$char_traits@D@std@@V?$allocator@D@2@@std@@@Z ; CFileNameHelper::StringPath
PUBLIC	??1?$CRef@VCGrannyMaterial@@@@QAE@XZ		; CRef<CGrannyMaterial>::~CRef<CGrannyMaterial>
PUBLIC	??$_Destroy_range@V?$allocator@V?$CRef@VCGrannyMaterial@@@@@std@@@std@@YAXPAV?$CRef@VCGrannyMaterial@@@@QAV1@AAV?$allocator@V?$CRef@VCGrannyMaterial@@@@@0@@Z ; std::_Destroy_range<std::allocator<CRef<CGrannyMaterial> > >
PUBLIC	??$_Assign_counted_range@PAV?$CRef@VCGrannyMaterial@@@@@?$vector@V?$CRef@VCGrannyMaterial@@@@V?$allocator@V?$CRef@VCGrannyMaterial@@@@@std@@@std@@AAEXPAV?$CRef@VCGrannyMaterial@@@@I@Z ; std::vector<CRef<CGrannyMaterial>,std::allocator<CRef<CGrannyMaterial> > >::_Assign_counted_range<CRef<CGrannyMaterial> *>
PUBLIC	??$_Uninitialized_copy_n@PAV?$CRef@VCGrannyMaterial@@@@V?$allocator@V?$CRef@VCGrannyMaterial@@@@@std@@@std@@YAPAV?$CRef@VCGrannyMaterial@@@@PAV1@I0AAV?$allocator@V?$CRef@VCGrannyMaterial@@@@@0@@Z ; std::_Uninitialized_copy_n<CRef<CGrannyMaterial> *,std::allocator<CRef<CGrannyMaterial> > >
PUBLIC	??$_Emplace_reallocate@V?$CRef@VCGrannyMaterial@@@@@?$vector@V?$CRef@VCGrannyMaterial@@@@V?$allocator@V?$CRef@VCGrannyMaterial@@@@@std@@@std@@AAEPAV?$CRef@VCGrannyMaterial@@@@QAV2@$$QAV2@@Z ; std::vector<CRef<CGrannyMaterial>,std::allocator<CRef<CGrannyMaterial> > >::_Emplace_reallocate<CRef<CGrannyMaterial> >
PUBLIC	??1?$_Uninitialized_backout_al@V?$allocator@V?$CRef@VCGrannyMaterial@@@@@std@@@std@@QAE@XZ ; std::_Uninitialized_backout_al<std::allocator<CRef<CGrannyMaterial> > >::~_Uninitialized_backout_al<std::allocator<CRef<CGrannyMaterial> > >
PUBLIC	??1_Reallocation_guard@?$vector@V?$CRef@VCGrannyMaterial@@@@V?$allocator@V?$CRef@VCGrannyMaterial@@@@@std@@@std@@QAE@XZ ; std::vector<CRef<CGrannyMaterial>,std::allocator<CRef<CGrannyMaterial> > >::_Reallocation_guard::~_Reallocation_guard
PUBLIC	??$_Uninitialized_move@PAV?$CRef@VCGrannyMaterial@@@@V?$allocator@V?$CRef@VCGrannyMaterial@@@@@std@@@std@@YAPAV?$CRef@VCGrannyMaterial@@@@QAV1@0PAV1@AAV?$allocator@V?$CRef@VCGrannyMaterial@@@@@0@@Z ; std::_Uninitialized_move<CRef<CGrannyMaterial> *,std::allocator<CRef<CGrannyMaterial> > >
PUBLIC	?_OptionsStorage@?1??__local_stdio_printf_options@@9@4_KA ; `__local_stdio_printf_options'::`2'::_OptionsStorage
PUBLIC	??_7exception@std@@6B@				; std::exception::`vftable'
PUBLIC	??_C@_0BC@EOODALEL@Unknown?5exception@		; `string'
PUBLIC	??_7bad_alloc@std@@6B@				; std::bad_alloc::`vftable'
PUBLIC	??_7bad_array_new_length@std@@6B@		; std::bad_array_new_length::`vftable'
PUBLIC	??_C@_0BF@KINCDENJ@bad?5array?5new?5length@	; `string'
PUBLIC	??_R0?AVexception@std@@@8			; std::exception `RTTI Type Descriptor'
PUBLIC	__CT??_R0?AVexception@std@@@8??0exception@std@@QAE@ABV01@@Z12
PUBLIC	__TI3?AVbad_array_new_length@std@@
PUBLIC	__CTA3?AVbad_array_new_length@std@@
PUBLIC	??_R0?AVbad_array_new_length@std@@@8		; std::bad_array_new_length `RTTI Type Descriptor'
PUBLIC	__CT??_R0?AVbad_array_new_length@std@@@8??0bad_array_new_length@std@@QAE@ABV01@@Z12
PUBLIC	??_R0?AVbad_alloc@std@@@8			; std::bad_alloc `RTTI Type Descriptor'
PUBLIC	__CT??_R0?AVbad_alloc@std@@@8??0bad_alloc@std@@QAE@ABV01@@Z12
PUBLIC	??_C@_0BA@JFNIOLAK@string?5too?5long@		; `string'
PUBLIC	??_R4exception@std@@6B@				; std::exception::`RTTI Complete Object Locator'
PUBLIC	??_R3exception@std@@8				; std::exception::`RTTI Class Hierarchy Descriptor'
PUBLIC	??_R2exception@std@@8				; std::exception::`RTTI Base Class Array'
PUBLIC	??_R1A@?0A@EA@exception@std@@8			; std::exception::`RTTI Base Class Descriptor at (0,-1,0,64)'
PUBLIC	??_R4bad_array_new_length@std@@6B@		; std::bad_array_new_length::`RTTI Complete Object Locator'
PUBLIC	??_R3bad_array_new_length@std@@8		; std::bad_array_new_length::`RTTI Class Hierarchy Descriptor'
PUBLIC	??_R2bad_array_new_length@std@@8		; std::bad_array_new_length::`RTTI Base Class Array'
PUBLIC	??_R1A@?0A@EA@bad_array_new_length@std@@8	; std::bad_array_new_length::`RTTI Base Class Descriptor at (0,-1,0,64)'
PUBLIC	??_R1A@?0A@EA@bad_alloc@std@@8			; std::bad_alloc::`RTTI Base Class Descriptor at (0,-1,0,64)'
PUBLIC	??_R3bad_alloc@std@@8				; std::bad_alloc::`RTTI Class Hierarchy Descriptor'
PUBLIC	??_R2bad_alloc@std@@8				; std::bad_alloc::`RTTI Base Class Array'
PUBLIC	??_R4bad_alloc@std@@6B@				; std::bad_alloc::`RTTI Complete Object Locator'
PUBLIC	?ms_matSpecular@CGrannyMaterial@@0UD3DXMATRIX@@A ; CGrannyMaterial::ms_matSpecular
PUBLIC	?ms_v3SpecularTrans@CGrannyMaterial@@0UD3DXVECTOR3@@A ; CGrannyMaterial::ms_v3SpecularTrans
PUBLIC	?ms_akSphereMapInstance@CGrannyMaterial@@0PAVCGraphicImageInstance@@A ; CGrannyMaterial::ms_akSphereMapInstance
PUBLIC	??_7CGrannyMaterial@@6B@			; CGrannyMaterial::`vftable'
PUBLIC	??_7CGrannyMaterialPalette@@6B@			; CGrannyMaterialPalette::`vftable'
PUBLIC	?ms_singleton@?$CSingleton@VCResourceManager@@@@0PAVCResourceManager@@A ; CSingleton<CResourceManager>::ms_singleton
PUBLIC	?ms_singleton@?$CSingleton@VCStateManager@@@@0PAVCStateManager@@A ; CSingleton<CStateManager>::ms_singleton
PUBLIC	?g_fSpecularColor@@3UD3DXCOLOR@@A		; g_fSpecularColor
PUBLIC	??_C@_04HDOCAJNK@?$CFs?$CFs@			; `string'
PUBLIC	??_C@_05BPEPCAMP@Blend@				; `string'
PUBLIC	??_C@_09HNLEFIID@Two?9sided@			; `string'
PUBLIC	??_C@_0BI@CFPLBAOH@invalid?5string?5position@	; `string'
PUBLIC	??_C@_0BA@FOIKENOD@vector?5too?5long@		; `string'
PUBLIC	??_R4CGrannyMaterial@@6B@			; CGrannyMaterial::`RTTI Complete Object Locator'
PUBLIC	??_R0?AVCGrannyMaterial@@@8			; CGrannyMaterial `RTTI Type Descriptor'
PUBLIC	??_R3CGrannyMaterial@@8				; CGrannyMaterial::`RTTI Class Hierarchy Descriptor'
PUBLIC	??_R2CGrannyMaterial@@8				; CGrannyMaterial::`RTTI Base Class Array'
PUBLIC	??_R1A@?0A@EA@CGrannyMaterial@@8		; CGrannyMaterial::`RTTI Base Class Descriptor at (0,-1,0,64)'
PUBLIC	??_R1A@?0A@EA@CReferenceObject@@8		; CReferenceObject::`RTTI Base Class Descriptor at (0,-1,0,64)'
PUBLIC	??_R0?AVCReferenceObject@@@8			; CReferenceObject `RTTI Type Descriptor'
PUBLIC	??_R3CReferenceObject@@8			; CReferenceObject::`RTTI Class Hierarchy Descriptor'
PUBLIC	??_R2CReferenceObject@@8			; CReferenceObject::`RTTI Base Class Array'
PUBLIC	??_R4CGrannyMaterialPalette@@6B@		; CGrannyMaterialPalette::`RTTI Complete Object Locator'
PUBLIC	??_R0?AVCGrannyMaterialPalette@@@8		; CGrannyMaterialPalette `RTTI Type Descriptor'
PUBLIC	??_R3CGrannyMaterialPalette@@8			; CGrannyMaterialPalette::`RTTI Class Hierarchy Descriptor'
PUBLIC	??_R2CGrannyMaterialPalette@@8			; CGrannyMaterialPalette::`RTTI Base Class Array'
PUBLIC	??_R1A@?0A@EA@CGrannyMaterialPalette@@8		; CGrannyMaterialPalette::`RTTI Base Class Descriptor at (0,-1,0,64)'
PUBLIC	__real@3f000000
PUBLIC	__real@3f800000
PUBLIC	__real@437f0000
EXTRN	??_L@YGXPAXIIP6EX0@Z1@Z:PROC			; `eh vector constructor iterator'
EXTRN	??_M@YGXPAXIIP6EX0@Z@Z:PROC			; `eh vector destructor iterator'
EXTRN	??2@YAPAXI@Z:PROC				; operator new
EXTRN	??3@YAXPAXI@Z:PROC				; operator delete
EXTRN	_atexit:PROC
EXTRN	___std_terminate:PROC
EXTRN	__imp__GrannyGetMaterialTextureByType@8:PROC
EXTRN	__imp__GrannyFindMatchingMember@16:PROC
EXTRN	__imp__GrannyConvertSingleObject@20:PROC
EXTRN	__invalid_parameter_noinfo_noreturn:PROC
EXTRN	_tolower:PROC
EXTRN	__strnicmp:PROC
EXTRN	___stdio_common_vsprintf:PROC
EXTRN	___std_exception_copy:PROC
EXTRN	___std_exception_destroy:PROC
EXTRN	??_Eexception@std@@UAEPAXI@Z:PROC		; std::exception::`vector deleting destructor'
EXTRN	??_Ebad_alloc@std@@UAEPAXI@Z:PROC		; std::bad_alloc::`vector deleting destructor'
EXTRN	??_Ebad_array_new_length@std@@UAEPAXI@Z:PROC	; std::bad_array_new_length::`vector deleting destructor'
EXTRN	?_Xlength_error@std@@YAXPBD@Z:PROC		; std::_Xlength_error
EXTRN	?_Xout_of_range@std@@YAXPBD@Z:PROC		; std::_Xout_of_range
EXTRN	??0CReferenceObject@@QAE@XZ:PROC		; CReferenceObject::CReferenceObject
EXTRN	??1CReferenceObject@@UAE@XZ:PROC		; CReferenceObject::~CReferenceObject
EXTRN	?AddReference@CReferenceObject@@QAEXXZ:PROC	; CReferenceObject::AddReference
EXTRN	?Release@CReferenceObject@@QAEXXZ:PROC		; CReferenceObject::Release
EXTRN	?OnConstruct@CReferenceObject@@MAEXXZ:PROC	; CReferenceObject::OnConstruct
EXTRN	?OnSelfDestruct@CReferenceObject@@MAEXXZ:PROC	; CReferenceObject::OnSelfDestruct
EXTRN	_D3DXMatrixTranslation@16:PROC
EXTRN	?GetD3DTexture@CGraphicTexture@@QBEPAUIDirect3DTexture8@@XZ:PROC ; CGraphicTexture::GetD3DTexture
EXTRN	?GetTexturePointer@CGraphicImage@@QAEPAVCGraphicTexture@@XZ:PROC ; CGraphicImage::GetTexturePointer
EXTRN	??0CGraphicImageInstance@@QAE@XZ:PROC		; CGraphicImageInstance::CGraphicImageInstance
EXTRN	??1CGraphicImageInstance@@UAE@XZ:PROC		; CGraphicImageInstance::~CGraphicImageInstance
EXTRN	?Destroy@CGraphicImageInstance@@QAEXXZ:PROC	; CGraphicImageInstance::Destroy
EXTRN	?SetImagePointer@CGraphicImageInstance@@QAEXPAVCGraphicImage@@@Z:PROC ; CGraphicImageInstance::SetImagePointer
EXTRN	?GetTexturePointer@CGraphicImageInstance@@QAEPAVCGraphicTexture@@XZ:PROC ; CGraphicImageInstance::GetTexturePointer
EXTRN	??_ECGrannyMaterial@@UAEPAXI@Z:PROC		; CGrannyMaterial::`vector deleting destructor'
EXTRN	??_ECGrannyMaterialPalette@@UAEPAXI@Z:PROC	; CGrannyMaterialPalette::`vector deleting destructor'
EXTRN	?GetResourcePointer@CResourceManager@@QAEPAVCResource@@PBD@Z:PROC ; CResourceManager::GetResourcePointer
EXTRN	?SetRenderState@CStateManager@@QAEXW4_D3DRENDERSTATETYPE@@K@Z:PROC ; CStateManager::SetRenderState
EXTRN	?SetTexture@CStateManager@@QAEXKPAUIDirect3DBaseTexture8@@@Z:PROC ; CStateManager::SetTexture
EXTRN	?SaveTextureStageState@CStateManager@@QAEXKW4_D3DTEXTURESTAGESTATETYPE@@K@Z:PROC ; CStateManager::SaveTextureStageState
EXTRN	?RestoreTextureStageState@CStateManager@@QAEXKW4_D3DTEXTURESTAGESTATETYPE@@@Z:PROC ; CStateManager::RestoreTextureStageState
EXTRN	?SetTextureStageState@CStateManager@@QAEXKW4_D3DTEXTURESTAGESTATETYPE@@K@Z:PROC ; CStateManager::SetTextureStageState
EXTRN	?SetTransform@CStateManager@@QAEXW4_D3DTRANSFORMSTATETYPE@@PBU_D3DMATRIX@@@Z:PROC ; CStateManager::SetTransform
EXTRN	?GetRenderState@CStateManager@@QAEKW4_D3DRENDERSTATETYPE@@@Z:PROC ; CStateManager::GetRenderState
EXTRN	?GetModelLocalPath@@YAABV?$basic_string@DU?$char_traits@D@std@@V?$allocator@D@2@@std@@XZ:PROC ; GetModelLocalPath
EXTRN	@__security_check_cookie@4:PROC
EXTRN	__CxxThrowException@8:PROC
EXTRN	___CxxFrameHandler3:PROC
EXTRN	__ftol3:PROC
EXTRN	_memcpy:PROC
EXTRN	??_7type_info@@6B@:QWORD			; type_info::`vftable'
EXTRN	___security_cookie:DWORD
EXTRN	__fltused:DWORD
;	COMDAT ?_OptionsStorage@?1??__local_stdio_printf_options@@9@4_KA
_BSS	SEGMENT
?_OptionsStorage@?1??__local_stdio_printf_options@@9@4_KA DQ 01H DUP (?) ; `__local_stdio_printf_options'::`2'::_OptionsStorage
_BSS	ENDS
_BSS	SEGMENT
?ms_matSpecular@CGrannyMaterial@@0UD3DXMATRIX@@A DB 040H DUP (?) ; CGrannyMaterial::ms_matSpecular
?ms_v3SpecularTrans@CGrannyMaterial@@0UD3DXVECTOR3@@A DB 0cH DUP (?) ; CGrannyMaterial::ms_v3SpecularTrans
?ms_akSphereMapInstance@CGrannyMaterial@@0PAVCGraphicImageInstance@@A DB 0190H DUP (?) ; CGrannyMaterial::ms_akSphereMapInstance
_BSS	ENDS
;	COMDAT ?ms_singleton@?$CSingleton@VCResourceManager@@@@0PAVCResourceManager@@A
_BSS	SEGMENT
?ms_singleton@?$CSingleton@VCResourceManager@@@@0PAVCResourceManager@@A DD 01H DUP (?) ; CSingleton<CResourceManager>::ms_singleton
_BSS	ENDS
;	COMDAT ?ms_singleton@?$CSingleton@VCStateManager@@@@0PAVCStateManager@@A
_BSS	SEGMENT
?ms_singleton@?$CSingleton@VCStateManager@@@@0PAVCStateManager@@A DD 01H DUP (?) ; CSingleton<CStateManager>::ms_singleton
_BSS	ENDS
_BSS	SEGMENT
?g_fSpecularColor@@3UD3DXCOLOR@@A DB 010H DUP (?)	; g_fSpecularColor
_BSS	ENDS
CRT$XCU	SEGMENT
??ms_akSphereMapInstance$initializer$@CGrannyMaterial@@0P6AXXZA@@3P6AXXZA DD FLAT:??__E?ms_akSphereMapInstance@CGrannyMaterial@@0PAVCGraphicImageInstance@@A@@YAXXZ ; ??ms_akSphereMapInstance$initializer$@CGrannyMaterial@@0P6AXXZA@@3P6AXXZA
CRT$XCU	ENDS
;	COMDAT __real@437f0000
CONST	SEGMENT
__real@437f0000 DD 0437f0000r			; 255
CONST	ENDS
;	COMDAT __real@3f800000
CONST	SEGMENT
__real@3f800000 DD 03f800000r			; 1
CONST	ENDS
;	COMDAT __real@3f000000
CONST	SEGMENT
__real@3f000000 DD 03f000000r			; 0.5
CONST	ENDS
;	COMDAT ??_R1A@?0A@EA@CGrannyMaterialPalette@@8
rdata$r	SEGMENT
??_R1A@?0A@EA@CGrannyMaterialPalette@@8 DD FLAT:??_R0?AVCGrannyMaterialPalette@@@8 ; CGrannyMaterialPalette::`RTTI Base Class Descriptor at (0,-1,0,64)'
	DD	00H
	DD	00H
	DD	0ffffffffH
	DD	00H
	DD	040H
	DD	FLAT:??_R3CGrannyMaterialPalette@@8
rdata$r	ENDS
;	COMDAT ??_R2CGrannyMaterialPalette@@8
rdata$r	SEGMENT
??_R2CGrannyMaterialPalette@@8 DD FLAT:??_R1A@?0A@EA@CGrannyMaterialPalette@@8 ; CGrannyMaterialPalette::`RTTI Base Class Array'
rdata$r	ENDS
;	COMDAT ??_R3CGrannyMaterialPalette@@8
rdata$r	SEGMENT
??_R3CGrannyMaterialPalette@@8 DD 00H			; CGrannyMaterialPalette::`RTTI Class Hierarchy Descriptor'
	DD	00H
	DD	01H
	DD	FLAT:??_R2CGrannyMaterialPalette@@8
rdata$r	ENDS
;	COMDAT ??_R0?AVCGrannyMaterialPalette@@@8
data$rs	SEGMENT
??_R0?AVCGrannyMaterialPalette@@@8 DD FLAT:??_7type_info@@6B@ ; CGrannyMaterialPalette `RTTI Type Descriptor'
	DD	00H
	DB	'.?AVCGrannyMaterialPalette@@', 00H
data$rs	ENDS
;	COMDAT ??_R4CGrannyMaterialPalette@@6B@
rdata$r	SEGMENT
??_R4CGrannyMaterialPalette@@6B@ DD 00H			; CGrannyMaterialPalette::`RTTI Complete Object Locator'
	DD	00H
	DD	00H
	DD	FLAT:??_R0?AVCGrannyMaterialPalette@@@8
	DD	FLAT:??_R3CGrannyMaterialPalette@@8
rdata$r	ENDS
;	COMDAT ??_R2CReferenceObject@@8
rdata$r	SEGMENT
??_R2CReferenceObject@@8 DD FLAT:??_R1A@?0A@EA@CReferenceObject@@8 ; CReferenceObject::`RTTI Base Class Array'
rdata$r	ENDS
;	COMDAT ??_R3CReferenceObject@@8
rdata$r	SEGMENT
??_R3CReferenceObject@@8 DD 00H				; CReferenceObject::`RTTI Class Hierarchy Descriptor'
	DD	00H
	DD	01H
	DD	FLAT:??_R2CReferenceObject@@8
rdata$r	ENDS
;	COMDAT ??_R0?AVCReferenceObject@@@8
data$rs	SEGMENT
??_R0?AVCReferenceObject@@@8 DD FLAT:??_7type_info@@6B@	; CReferenceObject `RTTI Type Descriptor'
	DD	00H
	DB	'.?AVCReferenceObject@@', 00H
data$rs	ENDS
;	COMDAT ??_R1A@?0A@EA@CReferenceObject@@8
rdata$r	SEGMENT
??_R1A@?0A@EA@CReferenceObject@@8 DD FLAT:??_R0?AVCReferenceObject@@@8 ; CReferenceObject::`RTTI Base Class Descriptor at (0,-1,0,64)'
	DD	00H
	DD	00H
	DD	0ffffffffH
	DD	00H
	DD	040H
	DD	FLAT:??_R3CReferenceObject@@8
rdata$r	ENDS
;	COMDAT ??_R1A@?0A@EA@CGrannyMaterial@@8
rdata$r	SEGMENT
??_R1A@?0A@EA@CGrannyMaterial@@8 DD FLAT:??_R0?AVCGrannyMaterial@@@8 ; CGrannyMaterial::`RTTI Base Class Descriptor at (0,-1,0,64)'
	DD	01H
	DD	00H
	DD	0ffffffffH
	DD	00H
	DD	040H
	DD	FLAT:??_R3CGrannyMaterial@@8
rdata$r	ENDS
;	COMDAT ??_R2CGrannyMaterial@@8
rdata$r	SEGMENT
??_R2CGrannyMaterial@@8 DD FLAT:??_R1A@?0A@EA@CGrannyMaterial@@8 ; CGrannyMaterial::`RTTI Base Class Array'
	DD	FLAT:??_R1A@?0A@EA@CReferenceObject@@8
rdata$r	ENDS
;	COMDAT ??_R3CGrannyMaterial@@8
rdata$r	SEGMENT
??_R3CGrannyMaterial@@8 DD 00H				; CGrannyMaterial::`RTTI Class Hierarchy Descriptor'
	DD	00H
	DD	02H
	DD	FLAT:??_R2CGrannyMaterial@@8
rdata$r	ENDS
;	COMDAT ??_R0?AVCGrannyMaterial@@@8
data$rs	SEGMENT
??_R0?AVCGrannyMaterial@@@8 DD FLAT:??_7type_info@@6B@	; CGrannyMaterial `RTTI Type Descriptor'
	DD	00H
	DB	'.?AVCGrannyMaterial@@', 00H
data$rs	ENDS
;	COMDAT ??_R4CGrannyMaterial@@6B@
rdata$r	SEGMENT
??_R4CGrannyMaterial@@6B@ DD 00H			; CGrannyMaterial::`RTTI Complete Object Locator'
	DD	00H
	DD	00H
	DD	FLAT:??_R0?AVCGrannyMaterial@@@8
	DD	FLAT:??_R3CGrannyMaterial@@8
rdata$r	ENDS
;	COMDAT ??_C@_0BA@FOIKENOD@vector?5too?5long@
CONST	SEGMENT
??_C@_0BA@FOIKENOD@vector?5too?5long@ DB 'vector too long', 00H ; `string'
CONST	ENDS
;	COMDAT ??_C@_0BI@CFPLBAOH@invalid?5string?5position@
CONST	SEGMENT
??_C@_0BI@CFPLBAOH@invalid?5string?5position@ DB 'invalid string position'
	DB	00H						; `string'
CONST	ENDS
;	COMDAT ??_C@_09HNLEFIID@Two?9sided@
CONST	SEGMENT
??_C@_09HNLEFIID@Two?9sided@ DB 'Two-sided', 00H	; `string'
CONST	ENDS
;	COMDAT ??_C@_05BPEPCAMP@Blend@
CONST	SEGMENT
??_C@_05BPEPCAMP@Blend@ DB 'Blend', 00H			; `string'
CONST	ENDS
;	COMDAT ??_C@_04HDOCAJNK@?$CFs?$CFs@
CONST	SEGMENT
??_C@_04HDOCAJNK@?$CFs?$CFs@ DB '%s%s', 00H		; `string'
CONST	ENDS
;	COMDAT ?SPECULAR_TRANSLATE_MAX@?1??TranslateSpecularMatrix@CGrannyMaterial@@SAXMMM@Z@4MA
_DATA	SEGMENT
?SPECULAR_TRANSLATE_MAX@?1??TranslateSpecularMatrix@CGrannyMaterial@@SAXMMM@Z@4MA DD 049742400r ; 1e+06 ; `CGrannyMaterial::TranslateSpecularMatrix'::`2'::SPECULAR_TRANSLATE_MAX
_DATA	ENDS
;	COMDAT ??_7CGrannyMaterialPalette@@6B@
CONST	SEGMENT
??_7CGrannyMaterialPalette@@6B@ DD FLAT:??_R4CGrannyMaterialPalette@@6B@ ; CGrannyMaterialPalette::`vftable'
	DD	FLAT:??_ECGrannyMaterialPalette@@UAEPAXI@Z
CONST	ENDS
;	COMDAT ??_7CGrannyMaterial@@6B@
CONST	SEGMENT
??_7CGrannyMaterial@@6B@ DD FLAT:??_R4CGrannyMaterial@@6B@ ; CGrannyMaterial::`vftable'
	DD	FLAT:??_ECGrannyMaterial@@UAEPAXI@Z
	DD	FLAT:?OnConstruct@CReferenceObject@@MAEXXZ
	DD	FLAT:?OnSelfDestruct@CReferenceObject@@MAEXXZ
CONST	ENDS
;	COMDAT ??_R4bad_alloc@std@@6B@
rdata$r	SEGMENT
??_R4bad_alloc@std@@6B@ DD 00H				; std::bad_alloc::`RTTI Complete Object Locator'
	DD	00H
	DD	00H
	DD	FLAT:??_R0?AVbad_alloc@std@@@8
	DD	FLAT:??_R3bad_alloc@std@@8
rdata$r	ENDS
;	COMDAT ??_R2bad_alloc@std@@8
rdata$r	SEGMENT
??_R2bad_alloc@std@@8 DD FLAT:??_R1A@?0A@EA@bad_alloc@std@@8 ; std::bad_alloc::`RTTI Base Class Array'
	DD	FLAT:??_R1A@?0A@EA@exception@std@@8
rdata$r	ENDS
;	COMDAT ??_R3bad_alloc@std@@8
rdata$r	SEGMENT
??_R3bad_alloc@std@@8 DD 00H				; std::bad_alloc::`RTTI Class Hierarchy Descriptor'
	DD	00H
	DD	02H
	DD	FLAT:??_R2bad_alloc@std@@8
rdata$r	ENDS
;	COMDAT ??_R1A@?0A@EA@bad_alloc@std@@8
rdata$r	SEGMENT
??_R1A@?0A@EA@bad_alloc@std@@8 DD FLAT:??_R0?AVbad_alloc@std@@@8 ; std::bad_alloc::`RTTI Base Class Descriptor at (0,-1,0,64)'
	DD	01H
	DD	00H
	DD	0ffffffffH
	DD	00H
	DD	040H
	DD	FLAT:??_R3bad_alloc@std@@8
rdata$r	ENDS
;	COMDAT ??_R1A@?0A@EA@bad_array_new_length@std@@8
rdata$r	SEGMENT
??_R1A@?0A@EA@bad_array_new_length@std@@8 DD FLAT:??_R0?AVbad_array_new_length@std@@@8 ; std::bad_array_new_length::`RTTI Base Class Descriptor at (0,-1,0,64)'
	DD	02H
	DD	00H
	DD	0ffffffffH
	DD	00H
	DD	040H
	DD	FLAT:??_R3bad_array_new_length@std@@8
rdata$r	ENDS
;	COMDAT ??_R2bad_array_new_length@std@@8
rdata$r	SEGMENT
??_R2bad_array_new_length@std@@8 DD FLAT:??_R1A@?0A@EA@bad_array_new_length@std@@8 ; std::bad_array_new_length::`RTTI Base Class Array'
	DD	FLAT:??_R1A@?0A@EA@bad_alloc@std@@8
	DD	FLAT:??_R1A@?0A@EA@exception@std@@8
rdata$r	ENDS
;	COMDAT ??_R3bad_array_new_length@std@@8
rdata$r	SEGMENT
??_R3bad_array_new_length@std@@8 DD 00H			; std::bad_array_new_length::`RTTI Class Hierarchy Descriptor'
	DD	00H
	DD	03H
	DD	FLAT:??_R2bad_array_new_length@std@@8
rdata$r	ENDS
;	COMDAT ??_R4bad_array_new_length@std@@6B@
rdata$r	SEGMENT
??_R4bad_array_new_length@std@@6B@ DD 00H		; std::bad_array_new_length::`RTTI Complete Object Locator'
	DD	00H
	DD	00H
	DD	FLAT:??_R0?AVbad_array_new_length@std@@@8
	DD	FLAT:??_R3bad_array_new_length@std@@8
rdata$r	ENDS
;	COMDAT ??_R1A@?0A@EA@exception@std@@8
rdata$r	SEGMENT
??_R1A@?0A@EA@exception@std@@8 DD FLAT:??_R0?AVexception@std@@@8 ; std::exception::`RTTI Base Class Descriptor at (0,-1,0,64)'
	DD	00H
	DD	00H
	DD	0ffffffffH
	DD	00H
	DD	040H
	DD	FLAT:??_R3exception@std@@8
rdata$r	ENDS
;	COMDAT ??_R2exception@std@@8
rdata$r	SEGMENT
??_R2exception@std@@8 DD FLAT:??_R1A@?0A@EA@exception@std@@8 ; std::exception::`RTTI Base Class Array'
rdata$r	ENDS
;	COMDAT ??_R3exception@std@@8
rdata$r	SEGMENT
??_R3exception@std@@8 DD 00H				; std::exception::`RTTI Class Hierarchy Descriptor'
	DD	00H
	DD	01H
	DD	FLAT:??_R2exception@std@@8
rdata$r	ENDS
;	COMDAT ??_R4exception@std@@6B@
rdata$r	SEGMENT
??_R4exception@std@@6B@ DD 00H				; std::exception::`RTTI Complete Object Locator'
	DD	00H
	DD	00H
	DD	FLAT:??_R0?AVexception@std@@@8
	DD	FLAT:??_R3exception@std@@8
rdata$r	ENDS
;	COMDAT ??_C@_0BA@JFNIOLAK@string?5too?5long@
CONST	SEGMENT
??_C@_0BA@JFNIOLAK@string?5too?5long@ DB 'string too long', 00H ; `string'
CONST	ENDS
;	COMDAT __CT??_R0?AVbad_alloc@std@@@8??0bad_alloc@std@@QAE@ABV01@@Z12
xdata$x	SEGMENT
__CT??_R0?AVbad_alloc@std@@@8??0bad_alloc@std@@QAE@ABV01@@Z12 DD 010H
	DD	FLAT:??_R0?AVbad_alloc@std@@@8
	DD	00H
	DD	0ffffffffH
	ORG $+4
	DD	0cH
	DD	FLAT:??0bad_alloc@std@@QAE@ABV01@@Z
xdata$x	ENDS
;	COMDAT ??_R0?AVbad_alloc@std@@@8
data$r	SEGMENT
??_R0?AVbad_alloc@std@@@8 DD FLAT:??_7type_info@@6B@	; std::bad_alloc `RTTI Type Descriptor'
	DD	00H
	DB	'.?AVbad_alloc@std@@', 00H
data$r	ENDS
;	COMDAT __CT??_R0?AVbad_array_new_length@std@@@8??0bad_array_new_length@std@@QAE@ABV01@@Z12
xdata$x	SEGMENT
__CT??_R0?AVbad_array_new_length@std@@@8??0bad_array_new_length@std@@QAE@ABV01@@Z12 DD 00H
	DD	FLAT:??_R0?AVbad_array_new_length@std@@@8
	DD	00H
	DD	0ffffffffH
	ORG $+4
	DD	0cH
	DD	FLAT:??0bad_array_new_length@std@@QAE@ABV01@@Z
xdata$x	ENDS
;	COMDAT ??_R0?AVbad_array_new_length@std@@@8
data$r	SEGMENT
??_R0?AVbad_array_new_length@std@@@8 DD FLAT:??_7type_info@@6B@ ; std::bad_array_new_length `RTTI Type Descriptor'
	DD	00H
	DB	'.?AVbad_array_new_length@std@@', 00H
data$r	ENDS
;	COMDAT __CTA3?AVbad_array_new_length@std@@
xdata$x	SEGMENT
__CTA3?AVbad_array_new_length@std@@ DD 03H
	DD	FLAT:__CT??_R0?AVbad_array_new_length@std@@@8??0bad_array_new_length@std@@QAE@ABV01@@Z12
	DD	FLAT:__CT??_R0?AVbad_alloc@std@@@8??0bad_alloc@std@@QAE@ABV01@@Z12
	DD	FLAT:__CT??_R0?AVexception@std@@@8??0exception@std@@QAE@ABV01@@Z12
xdata$x	ENDS
;	COMDAT __TI3?AVbad_array_new_length@std@@
xdata$x	SEGMENT
__TI3?AVbad_array_new_length@std@@ DD 00H
	DD	FLAT:??1bad_array_new_length@std@@UAE@XZ
	DD	00H
	DD	FLAT:__CTA3?AVbad_array_new_length@std@@
xdata$x	ENDS
;	COMDAT __CT??_R0?AVexception@std@@@8??0exception@std@@QAE@ABV01@@Z12
xdata$x	SEGMENT
__CT??_R0?AVexception@std@@@8??0exception@std@@QAE@ABV01@@Z12 DD 00H
	DD	FLAT:??_R0?AVexception@std@@@8
	DD	00H
	DD	0ffffffffH
	ORG $+4
	DD	0cH
	DD	FLAT:??0exception@std@@QAE@ABV01@@Z
xdata$x	ENDS
;	COMDAT ??_R0?AVexception@std@@@8
data$r	SEGMENT
??_R0?AVexception@std@@@8 DD FLAT:??_7type_info@@6B@	; std::exception `RTTI Type Descriptor'
	DD	00H
	DB	'.?AVexception@std@@', 00H
data$r	ENDS
;	COMDAT ??_C@_0BF@KINCDENJ@bad?5array?5new?5length@
CONST	SEGMENT
??_C@_0BF@KINCDENJ@bad?5array?5new?5length@ DB 'bad array new length', 00H ; `string'
CONST	ENDS
;	COMDAT ??_7bad_array_new_length@std@@6B@
CONST	SEGMENT
??_7bad_array_new_length@std@@6B@ DD FLAT:??_R4bad_array_new_length@std@@6B@ ; std::bad_array_new_length::`vftable'
	DD	FLAT:??_Ebad_array_new_length@std@@UAEPAXI@Z
	DD	FLAT:?what@exception@std@@UBEPBDXZ
CONST	ENDS
;	COMDAT ??_7bad_alloc@std@@6B@
CONST	SEGMENT
??_7bad_alloc@std@@6B@ DD FLAT:??_R4bad_alloc@std@@6B@	; std::bad_alloc::`vftable'
	DD	FLAT:??_Ebad_alloc@std@@UAEPAXI@Z
	DD	FLAT:?what@exception@std@@UBEPBDXZ
CONST	ENDS
;	COMDAT ??_C@_0BC@EOODALEL@Unknown?5exception@
CONST	SEGMENT
??_C@_0BC@EOODALEL@Unknown?5exception@ DB 'Unknown exception', 00H ; `string'
CONST	ENDS
;	COMDAT ??_7exception@std@@6B@
CONST	SEGMENT
??_7exception@std@@6B@ DD FLAT:??_R4exception@std@@6B@	; std::exception::`vftable'
	DD	FLAT:??_Eexception@std@@UAEPAXI@Z
	DD	FLAT:?what@exception@std@@UBEPBDXZ
CONST	ENDS
;	COMDAT xdata$x
xdata$x	SEGMENT
__unwindtable$??$_Uninitialized_move@PAV?$CRef@VCGrannyMaterial@@@@V?$allocator@V?$CRef@VCGrannyMaterial@@@@@std@@@std@@YAPAV?$CRef@VCGrannyMaterial@@@@QAV1@0PAV1@AAV?$allocator@V?$CRef@VCGrannyMaterial@@@@@0@@Z DD 0ffffffffH
	DD	FLAT:__unwindfunclet$??$_Uninitialized_move@PAV?$CRef@VCGrannyMaterial@@@@V?$allocator@V?$CRef@VCGrannyMaterial@@@@@std@@@std@@YAPAV?$CRef@VCGrannyMaterial@@@@QAV1@0PAV1@AAV?$allocator@V?$CRef@VCGrannyMaterial@@@@@0@@Z$0
__ehfuncinfo$??$_Uninitialized_move@PAV?$CRef@VCGrannyMaterial@@@@V?$allocator@V?$CRef@VCGrannyMaterial@@@@@std@@@std@@YAPAV?$CRef@VCGrannyMaterial@@@@QAV1@0PAV1@AAV?$allocator@V?$CRef@VCGrannyMaterial@@@@@0@@Z DD 019930522H
	DD	01H
	DD	FLAT:__unwindtable$??$_Uninitialized_move@PAV?$CRef@VCGrannyMaterial@@@@V?$allocator@V?$CRef@VCGrannyMaterial@@@@@std@@@std@@YAPAV?$CRef@VCGrannyMaterial@@@@QAV1@0PAV1@AAV?$allocator@V?$CRef@VCGrannyMaterial@@@@@0@@Z
	DD	2 DUP(00H)
	DD	2 DUP(00H)
	DD	00H
	DD	01H
xdata$x	ENDS
;	COMDAT xdata$x
xdata$x	SEGMENT
__unwindtable$??$_Uninitialized_copy@PAV?$CRef@VCGrannyMaterial@@@@PAV1@V?$allocator@V?$CRef@VCGrannyMaterial@@@@@std@@@std@@YAPAV?$CRef@VCGrannyMaterial@@@@PAV1@00AAV?$allocator@V?$CRef@VCGrannyMaterial@@@@@0@@Z DD 0ffffffffH
	DD	FLAT:__unwindfunclet$??$_Uninitialized_copy@PAV?$CRef@VCGrannyMaterial@@@@PAV1@V?$allocator@V?$CRef@VCGrannyMaterial@@@@@std@@@std@@YAPAV?$CRef@VCGrannyMaterial@@@@PAV1@00AAV?$allocator@V?$CRef@VCGrannyMaterial@@@@@0@@Z$0
__ehfuncinfo$??$_Uninitialized_copy@PAV?$CRef@VCGrannyMaterial@@@@PAV1@V?$allocator@V?$CRef@VCGrannyMaterial@@@@@std@@@std@@YAPAV?$CRef@VCGrannyMaterial@@@@PAV1@00AAV?$allocator@V?$CRef@VCGrannyMaterial@@@@@0@@Z DD 019930522H
	DD	01H
	DD	FLAT:__unwindtable$??$_Uninitialized_copy@PAV?$CRef@VCGrannyMaterial@@@@PAV1@V?$allocator@V?$CRef@VCGrannyMaterial@@@@@std@@@std@@YAPAV?$CRef@VCGrannyMaterial@@@@PAV1@00AAV?$allocator@V?$CRef@VCGrannyMaterial@@@@@0@@Z
	DD	2 DUP(00H)
	DD	2 DUP(00H)
	DD	00H
	DD	01H
xdata$x	ENDS
;	COMDAT xdata$x
xdata$x	SEGMENT
__unwindtable$??$_Emplace_reallocate@V?$CRef@VCGrannyMaterial@@@@@?$vector@V?$CRef@VCGrannyMaterial@@@@V?$allocator@V?$CRef@VCGrannyMaterial@@@@@std@@@std@@AAEPAV?$CRef@VCGrannyMaterial@@@@QAV2@$$QAV2@@Z DD 0ffffffffH
	DD	FLAT:__unwindfunclet$??$_Emplace_reallocate@V?$CRef@VCGrannyMaterial@@@@@?$vector@V?$CRef@VCGrannyMaterial@@@@V?$allocator@V?$CRef@VCGrannyMaterial@@@@@std@@@std@@AAEPAV?$CRef@VCGrannyMaterial@@@@QAV2@$$QAV2@@Z$0
	DD	00H
	DD	FLAT:__unwindfunclet$??$_Emplace_reallocate@V?$CRef@VCGrannyMaterial@@@@@?$vector@V?$CRef@VCGrannyMaterial@@@@V?$allocator@V?$CRef@VCGrannyMaterial@@@@@std@@@std@@AAEPAV?$CRef@VCGrannyMaterial@@@@QAV2@$$QAV2@@Z$1
__ehfuncinfo$??$_Emplace_reallocate@V?$CRef@VCGrannyMaterial@@@@@?$vector@V?$CRef@VCGrannyMaterial@@@@V?$allocator@V?$CRef@VCGrannyMaterial@@@@@std@@@std@@AAEPAV?$CRef@VCGrannyMaterial@@@@QAV2@$$QAV2@@Z DD 019930522H
	DD	02H
	DD	FLAT:__unwindtable$??$_Emplace_reallocate@V?$CRef@VCGrannyMaterial@@@@@?$vector@V?$CRef@VCGrannyMaterial@@@@V?$allocator@V?$CRef@VCGrannyMaterial@@@@@std@@@std@@AAEPAV?$CRef@VCGrannyMaterial@@@@QAV2@$$QAV2@@Z
	DD	2 DUP(00H)
	DD	2 DUP(00H)
	DD	00H
	DD	01H
xdata$x	ENDS
;	COMDAT xdata$x
xdata$x	SEGMENT
__unwindtable$??$_Uninitialized_copy_n@PAV?$CRef@VCGrannyMaterial@@@@V?$allocator@V?$CRef@VCGrannyMaterial@@@@@std@@@std@@YAPAV?$CRef@VCGrannyMaterial@@@@PAV1@I0AAV?$allocator@V?$CRef@VCGrannyMaterial@@@@@0@@Z DD 0ffffffffH
	DD	FLAT:__unwindfunclet$??$_Uninitialized_copy_n@PAV?$CRef@VCGrannyMaterial@@@@V?$allocator@V?$CRef@VCGrannyMaterial@@@@@std@@@std@@YAPAV?$CRef@VCGrannyMaterial@@@@PAV1@I0AAV?$allocator@V?$CRef@VCGrannyMaterial@@@@@0@@Z$0
__ehfuncinfo$??$_Uninitialized_copy_n@PAV?$CRef@VCGrannyMaterial@@@@V?$allocator@V?$CRef@VCGrannyMaterial@@@@@std@@@std@@YAPAV?$CRef@VCGrannyMaterial@@@@PAV1@I0AAV?$allocator@V?$CRef@VCGrannyMaterial@@@@@0@@Z DD 019930522H
	DD	01H
	DD	FLAT:__unwindtable$??$_Uninitialized_copy_n@PAV?$CRef@VCGrannyMaterial@@@@V?$allocator@V?$CRef@VCGrannyMaterial@@@@@std@@@std@@YAPAV?$CRef@VCGrannyMaterial@@@@PAV1@I0AAV?$allocator@V?$CRef@VCGrannyMaterial@@@@@0@@Z
	DD	2 DUP(00H)
	DD	2 DUP(00H)
	DD	00H
	DD	01H
xdata$x	ENDS
;	COMDAT xdata$x
xdata$x	SEGMENT
__unwindtable$??$destroy@V?$CRef@VCGrannyMaterial@@@@@?$_Default_allocator_traits@V?$allocator@V?$CRef@VCGrannyMaterial@@@@@std@@@std@@SAXAAV?$allocator@V?$CRef@VCGrannyMaterial@@@@@1@QAV?$CRef@VCGrannyMaterial@@@@@Z DD 0ffffffffH
	DD	FLAT:___std_terminate
__ehfuncinfo$??$destroy@V?$CRef@VCGrannyMaterial@@@@@?$_Default_allocator_traits@V?$allocator@V?$CRef@VCGrannyMaterial@@@@@std@@@std@@SAXAAV?$allocator@V?$CRef@VCGrannyMaterial@@@@@1@QAV?$CRef@VCGrannyMaterial@@@@@Z DD 019930522H
	DD	01H
	DD	FLAT:__unwindtable$??$destroy@V?$CRef@VCGrannyMaterial@@@@@?$_Default_allocator_traits@V?$allocator@V?$CRef@VCGrannyMaterial@@@@@std@@@std@@SAXAAV?$allocator@V?$CRef@VCGrannyMaterial@@@@@1@QAV?$CRef@VCGrannyMaterial@@@@@Z
	DD	2 DUP(00H)
	DD	2 DUP(00H)
	DD	00H
	DD	01H
xdata$x	ENDS
;	COMDAT xdata$x
xdata$x	SEGMENT
__unwindtable$??$_Destroy_range@V?$allocator@V?$CRef@VCGrannyMaterial@@@@@std@@@std@@YAXPAV?$CRef@VCGrannyMaterial@@@@QAV1@AAV?$allocator@V?$CRef@VCGrannyMaterial@@@@@0@@Z DD 0ffffffffH
	DD	FLAT:___std_terminate
__ehfuncinfo$??$_Destroy_range@V?$allocator@V?$CRef@VCGrannyMaterial@@@@@std@@@std@@YAXPAV?$CRef@VCGrannyMaterial@@@@QAV1@AAV?$allocator@V?$CRef@VCGrannyMaterial@@@@@0@@Z DD 019930522H
	DD	01H
	DD	FLAT:__unwindtable$??$_Destroy_range@V?$allocator@V?$CRef@VCGrannyMaterial@@@@@std@@@std@@YAXPAV?$CRef@VCGrannyMaterial@@@@QAV1@AAV?$allocator@V?$CRef@VCGrannyMaterial@@@@@0@@Z
	DD	2 DUP(00H)
	DD	2 DUP(00H)
	DD	00H
	DD	05H
xdata$x	ENDS
;	COMDAT xdata$x
xdata$x	SEGMENT
__unwindtable$??_G?$CRef@VCGrannyMaterial@@@@QAEPAXI@Z DD 0ffffffffH
	DD	FLAT:___std_terminate
__ehfuncinfo$??_G?$CRef@VCGrannyMaterial@@@@QAEPAXI@Z DD 019930522H
	DD	01H
	DD	FLAT:__unwindtable$??_G?$CRef@VCGrannyMaterial@@@@QAEPAXI@Z
	DD	2 DUP(00H)
	DD	2 DUP(00H)
	DD	00H
	DD	05H
xdata$x	ENDS
;	COMDAT xdata$x
xdata$x	SEGMENT
__ehfuncinfo$??1?$CRef@VCGrannyMaterial@@@@QAE@XZ DD 019930522H
	DD	00H
	DD	00H
	DD	2 DUP(00H)
	DD	2 DUP(00H)
	DD	00H
	DD	05H
xdata$x	ENDS
;	COMDAT xdata$x
xdata$x	SEGMENT
__unwindtable$?SetMaterialData@CGrannyMaterialPalette@@QAEXPBDABUSMaterialData@@@Z DD 0ffffffffH
	DD	FLAT:__unwindfunclet$?SetMaterialData@CGrannyMaterialPalette@@QAEXPBDABUSMaterialData@@@Z$0
__ehfuncinfo$?SetMaterialData@CGrannyMaterialPalette@@QAEXPBDABUSMaterialData@@@Z DD 019930522H
	DD	01H
	DD	FLAT:__unwindtable$?SetMaterialData@CGrannyMaterialPalette@@QAEXPBDABUSMaterialData@@@Z
	DD	2 DUP(00H)
	DD	2 DUP(00H)
	DD	00H
	DD	01H
xdata$x	ENDS
;	COMDAT xdata$x
xdata$x	SEGMENT
__unwindtable$?SetMaterialImagePointer@CGrannyMaterialPalette@@QAEXPBDPAVCGraphicImage@@@Z DD 0ffffffffH
	DD	FLAT:__unwindfunclet$?SetMaterialImagePointer@CGrannyMaterialPalette@@QAEXPBDPAVCGraphicImage@@@Z$0
__ehfuncinfo$?SetMaterialImagePointer@CGrannyMaterialPalette@@QAEXPBDPAVCGraphicImage@@@Z DD 019930522H
	DD	01H
	DD	FLAT:__unwindtable$?SetMaterialImagePointer@CGrannyMaterialPalette@@QAEXPBDPAVCGraphicImage@@@Z
	DD	2 DUP(00H)
	DD	2 DUP(00H)
	DD	00H
	DD	01H
xdata$x	ENDS
;	COMDAT xdata$x
xdata$x	SEGMENT
__unwindtable$?RegisterMaterial@CGrannyMaterialPalette@@QAEKPAUgranny_material@@@Z DD 0ffffffffH
	DD	FLAT:__unwindfunclet$?RegisterMaterial@CGrannyMaterialPalette@@QAEKPAUgranny_material@@@Z$0
	DD	0ffffffffH
	DD	FLAT:__unwindfunclet$?RegisterMaterial@CGrannyMaterialPalette@@QAEKPAUgranny_material@@@Z$1
	DD	0ffffffffH
	DD	FLAT:___std_terminate
__ehfuncinfo$?RegisterMaterial@CGrannyMaterialPalette@@QAEKPAUgranny_material@@@Z DD 019930522H
	DD	03H
	DD	FLAT:__unwindtable$?RegisterMaterial@CGrannyMaterialPalette@@QAEKPAUgranny_material@@@Z
	DD	2 DUP(00H)
	DD	2 DUP(00H)
	DD	00H
	DD	01H
xdata$x	ENDS
;	COMDAT xdata$x
xdata$x	SEGMENT
__unwindtable$?IsIn@CGrannyMaterial@@QAE_NPBDPAH@Z DD 0ffffffffH
	DD	FLAT:__unwindfunclet$?IsIn@CGrannyMaterial@@QAE_NPBDPAH@Z$0
	DD	00H
	DD	FLAT:__unwindfunclet$?IsIn@CGrannyMaterial@@QAE_NPBDPAH@Z$1
	DD	00H
	DD	FLAT:__unwindfunclet$?IsIn@CGrannyMaterial@@QAE_NPBDPAH@Z$2
__ehfuncinfo$?IsIn@CGrannyMaterial@@QAE_NPBDPAH@Z DD 019930522H
	DD	03H
	DD	FLAT:__unwindtable$?IsIn@CGrannyMaterial@@QAE_NPBDPAH@Z
	DD	2 DUP(00H)
	DD	2 DUP(00H)
	DD	00H
	DD	01H
xdata$x	ENDS
;	COMDAT xdata$x
xdata$x	SEGMENT
__ehfuncinfo$??1CGrannyMaterial@@UAE@XZ DD 019930522H
	DD	00H
	DD	00H
	DD	2 DUP(00H)
	DD	2 DUP(00H)
	DD	00H
	DD	05H
xdata$x	ENDS
;	COMDAT xdata$x
xdata$x	SEGMENT
__unwindtable$??0CGrannyMaterial@@QAE@XZ DD 0ffffffffH
	DD	FLAT:__unwindfunclet$??0CGrannyMaterial@@QAE@XZ$0
	DD	00H
	DD	FLAT:__unwindfunclet$??0CGrannyMaterial@@QAE@XZ$1
__ehfuncinfo$??0CGrannyMaterial@@QAE@XZ DD 019930522H
	DD	02H
	DD	FLAT:__unwindtable$??0CGrannyMaterial@@QAE@XZ
	DD	2 DUP(00H)
	DD	2 DUP(00H)
	DD	00H
	DD	01H
xdata$x	ENDS
;	COMDAT xdata$x
xdata$x	SEGMENT
__ehfuncinfo$??1?$CRef@VCGraphicImage@@@@QAE@XZ DD 019930522H
	DD	00H
	DD	00H
	DD	2 DUP(00H)
	DD	2 DUP(00H)
	DD	00H
	DD	05H
xdata$x	ENDS
; Function compile flags: /Ogtp
; File D:\Program Files\Microsoft Visual Studio\2022\Community\VC\Tools\MSVC\14.43.34808\include\xmemory
; File C:\Marty 5.5\Src-Client\Client\eterlib\Ref.h
; File D:\Program Files\Microsoft Visual Studio\2022\Community\VC\Tools\MSVC\14.43.34808\include\xmemory
;	COMDAT ??$_Uninitialized_move@PAV?$CRef@VCGrannyMaterial@@@@V?$allocator@V?$CRef@VCGrannyMaterial@@@@@std@@@std@@YAPAV?$CRef@VCGrannyMaterial@@@@QAV1@0PAV1@AAV?$allocator@V?$CRef@VCGrannyMaterial@@@@@0@@Z
_TEXT	SEGMENT
__Backout$ = -24					; size = 12
__$EHRec$ = -12						; size = 12
__First$ = 8						; size = 4
__Last$ = 12						; size = 4
__Dest$ = 16						; size = 4
__Al$ = 20						; size = 4
??$_Uninitialized_move@PAV?$CRef@VCGrannyMaterial@@@@V?$allocator@V?$CRef@VCGrannyMaterial@@@@@std@@@std@@YAPAV?$CRef@VCGrannyMaterial@@@@QAV1@0PAV1@AAV?$allocator@V?$CRef@VCGrannyMaterial@@@@@0@@Z PROC ; std::_Uninitialized_move<CRef<CGrannyMaterial> *,std::allocator<CRef<CGrannyMaterial> > >, COMDAT

; 1940 :     const _InIt _First, const _InIt _Last, _Alloc_ptr_t<_Alloc> _Dest, _Alloc& _Al) {

  00000	55		 push	 ebp
  00001	8b ec		 mov	 ebp, esp
  00003	6a ff		 push	 -1
  00005	68 00 00 00 00	 push	 __ehhandler$??$_Uninitialized_move@PAV?$CRef@VCGrannyMaterial@@@@V?$allocator@V?$CRef@VCGrannyMaterial@@@@@std@@@std@@YAPAV?$CRef@VCGrannyMaterial@@@@QAV1@0PAV1@AAV?$allocator@V?$CRef@VCGrannyMaterial@@@@@0@@Z
  0000a	64 a1 00 00 00
	00		 mov	 eax, DWORD PTR fs:0
  00010	50		 push	 eax
  00011	83 ec 0c	 sub	 esp, 12			; 0000000cH
  00014	53		 push	 ebx
  00015	56		 push	 esi
  00016	57		 push	 edi
  00017	a1 00 00 00 00	 mov	 eax, DWORD PTR ___security_cookie
  0001c	33 c5		 xor	 eax, ebp
  0001e	50		 push	 eax
  0001f	8d 45 f4	 lea	 eax, DWORD PTR __$EHRec$[ebp]
  00022	64 a3 00 00 00
	00		 mov	 DWORD PTR fs:0, eax

; 1796 :     _CONSTEXPR20 _Uninitialized_backout_al(pointer _Dest, _Alloc& _Al_) : _First(_Dest), _Last(_Dest), _Al(_Al_) {}

  00028	8b 7d 10	 mov	 edi, DWORD PTR __Dest$[ebp]
  0002b	8b 45 14	 mov	 eax, DWORD PTR __Al$[ebp]

; 1941 :     // move [_First, _Last) to raw _Dest, using _Al
; 1942 :     // note: only called internally from elsewhere in the STL
; 1943 : #ifdef _ENABLE_STL_INTERNAL_CHECK
; 1944 :     _STD _Adl_verify_range(_First, _Last);
; 1945 : #endif // ^^^ defined(_ENABLE_STL_INTERNAL_CHECK) ^^^
; 1946 :     using _Ptrval     = typename _Alloc::value_type*;
; 1947 :     auto _UFirst      = _STD _Get_unwrapped(_First);

  0002e	8b 75 08	 mov	 esi, DWORD PTR __First$[ebp]

; 1796 :     _CONSTEXPR20 _Uninitialized_backout_al(pointer _Dest, _Alloc& _Al_) : _First(_Dest), _Last(_Dest), _Al(_Al_) {}

  00031	89 7d e8	 mov	 DWORD PTR __Backout$[ebp], edi
  00034	89 7d ec	 mov	 DWORD PTR __Backout$[ebp+4], edi
  00037	89 45 f0	 mov	 DWORD PTR __Backout$[ebp+8], eax

; 1948 :     const auto _ULast = _STD _Get_unwrapped(_Last);
; 1949 :     if constexpr (conjunction_v<bool_constant<_Iter_move_cat<decltype(_UFirst), _Ptrval>::_Bitcopy_constructible>,
; 1950 :                       _Uses_default_construct<_Alloc, _Ptrval, decltype(_STD move(*_UFirst))>>) {
; 1951 : #if _HAS_CXX20
; 1952 :         if (!_STD is_constant_evaluated())
; 1953 : #endif // _HAS_CXX20
; 1954 :         {
; 1955 :             _STD _Copy_memmove(_UFirst, _ULast, _STD _Unfancy(_Dest));
; 1956 :             return _Dest + (_ULast - _UFirst);
; 1957 :         }
; 1958 :     }
; 1959 : 
; 1960 :     _Uninitialized_backout_al<_Alloc> _Backout{_Dest, _Al};
; 1961 :     for (; _UFirst != _ULast; ++_UFirst) {

  0003a	8b 5d 0c	 mov	 ebx, DWORD PTR __Last$[ebp]
  0003d	c7 45 fc 00 00
	00 00		 mov	 DWORD PTR __$EHRec$[ebp+8], 0
  00044	3b f3		 cmp	 esi, ebx
  00046	74 2b		 je	 SHORT $LN3@Uninitiali
  00048	0f 1f 84 00 00
	00 00 00	 npad	 8
$LL4@Uninitiali:
; File C:\Marty 5.5\Src-Client\Client\eterlib\Ref.h

; 32   : 			m_pObject = NULL;

  00050	c7 07 00 00 00
	00		 mov	 DWORD PTR [edi], 0

; 94   : 			m_pObject = pObject;

  00056	8b 0e		 mov	 ecx, DWORD PTR [esi]
  00058	89 0f		 mov	 DWORD PTR [edi], ecx

; 95   : 
; 96   : 			if (m_pObject)

  0005a	85 c9		 test	 ecx, ecx
  0005c	74 05		 je	 SHORT $LN16@Uninitiali

; 97   : 				m_pObject->AddReference();

  0005e	e8 00 00 00 00	 call	 ?AddReference@CReferenceObject@@QAEXXZ ; CReferenceObject::AddReference
$LN16@Uninitiali:
; File D:\Program Files\Microsoft Visual Studio\2022\Community\VC\Tools\MSVC\14.43.34808\include\xmemory

; 1808 :         ++_Last;

  00063	83 c7 04	 add	 edi, 4

; 1948 :     const auto _ULast = _STD _Get_unwrapped(_Last);
; 1949 :     if constexpr (conjunction_v<bool_constant<_Iter_move_cat<decltype(_UFirst), _Ptrval>::_Bitcopy_constructible>,
; 1950 :                       _Uses_default_construct<_Alloc, _Ptrval, decltype(_STD move(*_UFirst))>>) {
; 1951 : #if _HAS_CXX20
; 1952 :         if (!_STD is_constant_evaluated())
; 1953 : #endif // _HAS_CXX20
; 1954 :         {
; 1955 :             _STD _Copy_memmove(_UFirst, _ULast, _STD _Unfancy(_Dest));
; 1956 :             return _Dest + (_ULast - _UFirst);
; 1957 :         }
; 1958 :     }
; 1959 : 
; 1960 :     _Uninitialized_backout_al<_Alloc> _Backout{_Dest, _Al};
; 1961 :     for (; _UFirst != _ULast; ++_UFirst) {

  00066	83 c6 04	 add	 esi, 4

; 1808 :         ++_Last;

  00069	89 7d ec	 mov	 DWORD PTR __Backout$[ebp+4], edi

; 1948 :     const auto _ULast = _STD _Get_unwrapped(_Last);
; 1949 :     if constexpr (conjunction_v<bool_constant<_Iter_move_cat<decltype(_UFirst), _Ptrval>::_Bitcopy_constructible>,
; 1950 :                       _Uses_default_construct<_Alloc, _Ptrval, decltype(_STD move(*_UFirst))>>) {
; 1951 : #if _HAS_CXX20
; 1952 :         if (!_STD is_constant_evaluated())
; 1953 : #endif // _HAS_CXX20
; 1954 :         {
; 1955 :             _STD _Copy_memmove(_UFirst, _ULast, _STD _Unfancy(_Dest));
; 1956 :             return _Dest + (_ULast - _UFirst);
; 1957 :         }
; 1958 :     }
; 1959 : 
; 1960 :     _Uninitialized_backout_al<_Alloc> _Backout{_Dest, _Al};
; 1961 :     for (; _UFirst != _ULast; ++_UFirst) {

  0006c	3b f3		 cmp	 esi, ebx
  0006e	75 e0		 jne	 SHORT $LL4@Uninitiali
  00070	8b 45 14	 mov	 eax, DWORD PTR __Al$[ebp]
$LN3@Uninitiali:

; 1802 :         _STD _Destroy_range(_First, _Last, _Al);

  00073	50		 push	 eax
  00074	57		 push	 edi
  00075	57		 push	 edi
  00076	e8 00 00 00 00	 call	 ??$_Destroy_range@V?$allocator@V?$CRef@VCGrannyMaterial@@@@@std@@@std@@YAXPAV?$CRef@VCGrannyMaterial@@@@QAV1@AAV?$allocator@V?$CRef@VCGrannyMaterial@@@@@0@@Z ; std::_Destroy_range<std::allocator<CRef<CGrannyMaterial> > >
  0007b	83 c4 0c	 add	 esp, 12			; 0000000cH

; 1962 :         _Backout._Emplace_back(_STD move(*_UFirst));
; 1963 :     }
; 1964 : 
; 1965 :     return _Backout._Release();

  0007e	8b c7		 mov	 eax, edi

; 1966 : }

  00080	8b 4d f4	 mov	 ecx, DWORD PTR __$EHRec$[ebp]
  00083	64 89 0d 00 00
	00 00		 mov	 DWORD PTR fs:0, ecx
  0008a	59		 pop	 ecx
  0008b	5f		 pop	 edi
  0008c	5e		 pop	 esi
  0008d	5b		 pop	 ebx
  0008e	8b e5		 mov	 esp, ebp
  00090	5d		 pop	 ebp
  00091	c3		 ret	 0
_TEXT	ENDS
;	COMDAT text$x
text$x	SEGMENT
__unwindfunclet$??$_Uninitialized_move@PAV?$CRef@VCGrannyMaterial@@@@V?$allocator@V?$CRef@VCGrannyMaterial@@@@@std@@@std@@YAPAV?$CRef@VCGrannyMaterial@@@@QAV1@0PAV1@AAV?$allocator@V?$CRef@VCGrannyMaterial@@@@@0@@Z$0:
  00000	8d 4d e8	 lea	 ecx, DWORD PTR __Backout$[ebp]
  00003	e9 00 00 00 00	 jmp	 ??1?$_Uninitialized_backout_al@V?$allocator@V?$CRef@VCGrannyMaterial@@@@@std@@@std@@QAE@XZ ; std::_Uninitialized_backout_al<std::allocator<CRef<CGrannyMaterial> > >::~_Uninitialized_backout_al<std::allocator<CRef<CGrannyMaterial> > >
  00008	cc		 int	 3
  00009	cc		 int	 3
  0000a	cc		 int	 3
  0000b	cc		 int	 3
  0000c	cc		 int	 3
__ehhandler$??$_Uninitialized_move@PAV?$CRef@VCGrannyMaterial@@@@V?$allocator@V?$CRef@VCGrannyMaterial@@@@@std@@@std@@YAPAV?$CRef@VCGrannyMaterial@@@@QAV1@0PAV1@AAV?$allocator@V?$CRef@VCGrannyMaterial@@@@@0@@Z:
  0000d	90		 npad	 1
  0000e	90		 npad	 1
  0000f	8b 54 24 08	 mov	 edx, DWORD PTR [esp+8]
  00013	8d 42 0c	 lea	 eax, DWORD PTR [edx+12]
  00016	8b 4a e4	 mov	 ecx, DWORD PTR [edx-28]
  00019	33 c8		 xor	 ecx, eax
  0001b	e8 00 00 00 00	 call	 @__security_check_cookie@4
  00020	b8 00 00 00 00	 mov	 eax, OFFSET __ehfuncinfo$??$_Uninitialized_move@PAV?$CRef@VCGrannyMaterial@@@@V?$allocator@V?$CRef@VCGrannyMaterial@@@@@std@@@std@@YAPAV?$CRef@VCGrannyMaterial@@@@QAV1@0PAV1@AAV?$allocator@V?$CRef@VCGrannyMaterial@@@@@0@@Z
  00025	e9 00 00 00 00	 jmp	 ___CxxFrameHandler3
text$x	ENDS
??$_Uninitialized_move@PAV?$CRef@VCGrannyMaterial@@@@V?$allocator@V?$CRef@VCGrannyMaterial@@@@@std@@@std@@YAPAV?$CRef@VCGrannyMaterial@@@@QAV1@0PAV1@AAV?$allocator@V?$CRef@VCGrannyMaterial@@@@@0@@Z ENDP ; std::_Uninitialized_move<CRef<CGrannyMaterial> *,std::allocator<CRef<CGrannyMaterial> > >
; Function compile flags: /Ogtp
; File D:\Program Files\Microsoft Visual Studio\2022\Community\VC\Tools\MSVC\14.43.34808\include\vector
; File D:\Program Files\Microsoft Visual Studio\2022\Community\VC\Tools\MSVC\14.43.34808\include\xmemory
; File D:\Program Files\Microsoft Visual Studio\2022\Community\VC\Tools\MSVC\14.43.34808\include\vector
; File D:\Program Files\Microsoft Visual Studio\2022\Community\VC\Tools\MSVC\14.43.34808\include\xmemory
; File D:\Program Files\Microsoft Visual Studio\2022\Community\VC\Tools\MSVC\14.43.34808\include\vector
; File D:\Program Files\Microsoft Visual Studio\2022\Community\VC\Tools\MSVC\14.43.34808\include\xmemory
; File D:\Program Files\Microsoft Visual Studio\2022\Community\VC\Tools\MSVC\14.43.34808\include\vector
;	COMDAT ??1_Reallocation_guard@?$vector@V?$CRef@VCGrannyMaterial@@@@V?$allocator@V?$CRef@VCGrannyMaterial@@@@@std@@@std@@QAE@XZ
_TEXT	SEGMENT
??1_Reallocation_guard@?$vector@V?$CRef@VCGrannyMaterial@@@@V?$allocator@V?$CRef@VCGrannyMaterial@@@@@std@@@std@@QAE@XZ PROC ; std::vector<CRef<CGrannyMaterial>,std::allocator<CRef<CGrannyMaterial> > >::_Reallocation_guard::~_Reallocation_guard, COMDAT
; _this$ = ecx

; 605  :         _CONSTEXPR20 ~_Reallocation_guard() noexcept {

  00000	56		 push	 esi
  00001	8b f1		 mov	 esi, ecx

; 606  :             if (_New_begin != nullptr) {

  00003	83 7e 04 00	 cmp	 DWORD PTR [esi+4], 0
  00007	74 3d		 je	 SHORT $LN10@Reallocati

; 607  :                 _STD _Destroy_range(_Constructed_first, _Constructed_last, _Al);

  00009	ff 36		 push	 DWORD PTR [esi]
  0000b	ff 76 10	 push	 DWORD PTR [esi+16]
  0000e	ff 76 0c	 push	 DWORD PTR [esi+12]
  00011	e8 00 00 00 00	 call	 ??$_Destroy_range@V?$allocator@V?$CRef@VCGrannyMaterial@@@@@std@@@std@@YAXPAV?$CRef@VCGrannyMaterial@@@@QAV1@AAV?$allocator@V?$CRef@VCGrannyMaterial@@@@@0@@Z ; std::_Destroy_range<std::allocator<CRef<CGrannyMaterial> > >
; File D:\Program Files\Microsoft Visual Studio\2022\Community\VC\Tools\MSVC\14.43.34808\include\xmemory

; 981  :         _STD _Deallocate<_New_alignof<_Ty>>(_Ptr, sizeof(_Ty) * _Count);

  00016	8b 4e 08	 mov	 ecx, DWORD PTR [esi+8]
; File D:\Program Files\Microsoft Visual Studio\2022\Community\VC\Tools\MSVC\14.43.34808\include\vector

; 607  :                 _STD _Destroy_range(_Constructed_first, _Constructed_last, _Al);

  00019	83 c4 0c	 add	 esp, 12			; 0000000cH
; File D:\Program Files\Microsoft Visual Studio\2022\Community\VC\Tools\MSVC\14.43.34808\include\xmemory

; 981  :         _STD _Deallocate<_New_alignof<_Ty>>(_Ptr, sizeof(_Ty) * _Count);

  0001c	8b 46 04	 mov	 eax, DWORD PTR [esi+4]
  0001f	c1 e1 02	 shl	 ecx, 2

; 284  :         if (_Bytes >= _Big_allocation_threshold) {

  00022	81 f9 00 10 00
	00		 cmp	 ecx, 4096		; 00001000H
  00028	72 12		 jb	 SHORT $LN21@Reallocati

; 205  :     const uintptr_t _Ptr_container   = _Ptr_user[-1];

  0002a	8b 50 fc	 mov	 edx, DWORD PTR [eax-4]
  0002d	83 c1 23	 add	 ecx, 35			; 00000023H

; 206  : 
; 207  :     // If the following asserts, it likely means that we are performing
; 208  :     // an aligned delete on memory coming from an unaligned allocation.
; 209  :     _STL_ASSERT(_Ptr_user[-2] == _Big_allocation_sentinel, "invalid argument");
; 210  : 
; 211  :     // Extra paranoia on aligned allocation/deallocation; ensure _Ptr_container is
; 212  :     // in range [_Min_back_shift, _Non_user_size]
; 213  : #ifdef _DEBUG
; 214  :     constexpr uintptr_t _Min_back_shift = 2 * sizeof(void*);
; 215  : #else // ^^^ defined(_DEBUG) / !defined(_DEBUG) vvv
; 216  :     constexpr uintptr_t _Min_back_shift = sizeof(void*);
; 217  : #endif // ^^^ !defined(_DEBUG) ^^^
; 218  :     const uintptr_t _Back_shift = reinterpret_cast<uintptr_t>(_Ptr) - _Ptr_container;

  00030	2b c2		 sub	 eax, edx

; 219  :     _STL_VERIFY(_Back_shift >= _Min_back_shift && _Back_shift <= _Non_user_size, "invalid argument");

  00032	83 c0 fc	 add	 eax, -4			; fffffffcH
  00035	83 f8 1f	 cmp	 eax, 31			; 0000001fH
  00038	77 0e		 ja	 SHORT $LN18@Reallocati

; 220  :     _Ptr = reinterpret_cast<void*>(_Ptr_container);

  0003a	8b c2		 mov	 eax, edx
$LN21@Reallocati:

; 289  :         ::operator delete(_Ptr, _Bytes);

  0003c	51		 push	 ecx
  0003d	50		 push	 eax
  0003e	e8 00 00 00 00	 call	 ??3@YAXPAXI@Z		; operator delete
  00043	83 c4 08	 add	 esp, 8
$LN10@Reallocati:
  00046	5e		 pop	 esi
; File D:\Program Files\Microsoft Visual Studio\2022\Community\VC\Tools\MSVC\14.43.34808\include\vector

; 610  :         }

  00047	c3		 ret	 0
$LN18@Reallocati:
; File D:\Program Files\Microsoft Visual Studio\2022\Community\VC\Tools\MSVC\14.43.34808\include\xmemory

; 219  :     _STL_VERIFY(_Back_shift >= _Min_back_shift && _Back_shift <= _Non_user_size, "invalid argument");

  00048	e8 00 00 00 00	 call	 __invalid_parameter_noinfo_noreturn
$LN28@Reallocati:
  0004d	cc		 int	 3
??1_Reallocation_guard@?$vector@V?$CRef@VCGrannyMaterial@@@@V?$allocator@V?$CRef@VCGrannyMaterial@@@@@std@@@std@@QAE@XZ ENDP ; std::vector<CRef<CGrannyMaterial>,std::allocator<CRef<CGrannyMaterial> > >::_Reallocation_guard::~_Reallocation_guard
_TEXT	ENDS
; Function compile flags: /Ogtp
; File D:\Program Files\Microsoft Visual Studio\2022\Community\VC\Tools\MSVC\14.43.34808\include\xmemory
;	COMDAT ??1?$_Uninitialized_backout_al@V?$allocator@V?$CRef@VCGrannyMaterial@@@@@std@@@std@@QAE@XZ
_TEXT	SEGMENT
??1?$_Uninitialized_backout_al@V?$allocator@V?$CRef@VCGrannyMaterial@@@@@std@@@std@@QAE@XZ PROC ; std::_Uninitialized_backout_al<std::allocator<CRef<CGrannyMaterial> > >::~_Uninitialized_backout_al<std::allocator<CRef<CGrannyMaterial> > >, COMDAT
; _this$ = ecx

; 1802 :         _STD _Destroy_range(_First, _Last, _Al);

  00000	ff 71 08	 push	 DWORD PTR [ecx+8]
  00003	ff 71 04	 push	 DWORD PTR [ecx+4]
  00006	ff 31		 push	 DWORD PTR [ecx]
  00008	e8 00 00 00 00	 call	 ??$_Destroy_range@V?$allocator@V?$CRef@VCGrannyMaterial@@@@@std@@@std@@YAXPAV?$CRef@VCGrannyMaterial@@@@QAV1@AAV?$allocator@V?$CRef@VCGrannyMaterial@@@@@0@@Z ; std::_Destroy_range<std::allocator<CRef<CGrannyMaterial> > >
  0000d	83 c4 0c	 add	 esp, 12			; 0000000cH

; 1803 :     }

  00010	c3		 ret	 0
??1?$_Uninitialized_backout_al@V?$allocator@V?$CRef@VCGrannyMaterial@@@@@std@@@std@@QAE@XZ ENDP ; std::_Uninitialized_backout_al<std::allocator<CRef<CGrannyMaterial> > >::~_Uninitialized_backout_al<std::allocator<CRef<CGrannyMaterial> > >
_TEXT	ENDS
; Function compile flags: /Ogtp
; File D:\Program Files\Microsoft Visual Studio\2022\Community\VC\Tools\MSVC\14.43.34808\include\vector
; File D:\Program Files\Microsoft Visual Studio\2022\Community\VC\Tools\MSVC\14.43.34808\include\xmemory
; File D:\Program Files\Microsoft Visual Studio\2022\Community\VC\Tools\MSVC\14.43.34808\include\vector
; File D:\Program Files\Microsoft Visual Studio\2022\Community\VC\Tools\MSVC\14.43.34808\include\xmemory
; File D:\Program Files\Microsoft Visual Studio\2022\Community\VC\Tools\MSVC\14.43.34808\include\vector
; File D:\Program Files\Microsoft Visual Studio\2022\Community\VC\Tools\MSVC\14.43.34808\include\xmemory
; File D:\Program Files\Microsoft Visual Studio\2022\Community\VC\Tools\MSVC\14.43.34808\include\vector
; File C:\Marty 5.5\Src-Client\Client\eterlib\Ref.h
; File D:\Program Files\Microsoft Visual Studio\2022\Community\VC\Tools\MSVC\14.43.34808\include\vector
; File C:\Marty 5.5\Src-Client\Client\eterlib\Ref.h
; File D:\Program Files\Microsoft Visual Studio\2022\Community\VC\Tools\MSVC\14.43.34808\include\vector
; File D:\Program Files\Microsoft Visual Studio\2022\Community\VC\Tools\MSVC\14.43.34808\include\xmemory
; File C:\Marty 5.5\Src-Client\Client\eterlib\Ref.h
; File D:\Program Files\Microsoft Visual Studio\2022\Community\VC\Tools\MSVC\14.43.34808\include\xmemory
; File D:\Program Files\Microsoft Visual Studio\2022\Community\VC\Tools\MSVC\14.43.34808\include\vector
; File D:\Program Files\Microsoft Visual Studio\2022\Community\VC\Tools\MSVC\14.43.34808\include\xmemory
; File D:\Program Files\Microsoft Visual Studio\2022\Community\VC\Tools\MSVC\14.43.34808\include\vector
; File D:\Program Files\Microsoft Visual Studio\2022\Community\VC\Tools\MSVC\14.43.34808\include\xmemory
; File D:\Program Files\Microsoft Visual Studio\2022\Community\VC\Tools\MSVC\14.43.34808\include\vector
; File D:\Program Files\Microsoft Visual Studio\2022\Community\VC\Tools\MSVC\14.43.34808\include\xmemory
; File D:\Program Files\Microsoft Visual Studio\2022\Community\VC\Tools\MSVC\14.43.34808\include\vector
; File D:\Program Files\Microsoft Visual Studio\2022\Community\VC\Tools\MSVC\14.43.34808\include\xmemory
; File D:\Program Files\Microsoft Visual Studio\2022\Community\VC\Tools\MSVC\14.43.34808\include\vector
;	COMDAT ??$_Emplace_reallocate@V?$CRef@VCGrannyMaterial@@@@@?$vector@V?$CRef@VCGrannyMaterial@@@@V?$allocator@V?$CRef@VCGrannyMaterial@@@@@std@@@std@@AAEPAV?$CRef@VCGrannyMaterial@@@@QAV2@$$QAV2@@Z
_TEXT	SEGMENT
__Guard$ = -60						; size = 20
__Backout$2 = -40					; size = 12
__Newsize$1$ = -28					; size = 4
tv660 = -24						; size = 4
__Whereoff$1$ = -20					; size = 4
tv676 = -20						; size = 4
$T3 = -16						; size = 4
__$EHRec$ = -12						; size = 12
__Whereptr$ = 8						; size = 4
_<_Val_0>$ = 12						; size = 4
__ULast$1$ = 12						; size = 4
??$_Emplace_reallocate@V?$CRef@VCGrannyMaterial@@@@@?$vector@V?$CRef@VCGrannyMaterial@@@@V?$allocator@V?$CRef@VCGrannyMaterial@@@@@std@@@std@@AAEPAV?$CRef@VCGrannyMaterial@@@@QAV2@$$QAV2@@Z PROC ; std::vector<CRef<CGrannyMaterial>,std::allocator<CRef<CGrannyMaterial> > >::_Emplace_reallocate<CRef<CGrannyMaterial> >, COMDAT
; _this$ = ecx

; 860  :     _CONSTEXPR20 pointer _Emplace_reallocate(const pointer _Whereptr, _Valty&&... _Val) {

  00000	55		 push	 ebp
  00001	8b ec		 mov	 ebp, esp
  00003	6a ff		 push	 -1
  00005	68 00 00 00 00	 push	 __ehhandler$??$_Emplace_reallocate@V?$CRef@VCGrannyMaterial@@@@@?$vector@V?$CRef@VCGrannyMaterial@@@@V?$allocator@V?$CRef@VCGrannyMaterial@@@@@std@@@std@@AAEPAV?$CRef@VCGrannyMaterial@@@@QAV2@$$QAV2@@Z
  0000a	64 a1 00 00 00
	00		 mov	 eax, DWORD PTR fs:0
  00010	50		 push	 eax
  00011	83 ec 30	 sub	 esp, 48			; 00000030H
  00014	53		 push	 ebx
  00015	56		 push	 esi
  00016	57		 push	 edi
  00017	a1 00 00 00 00	 mov	 eax, DWORD PTR ___security_cookie
  0001c	33 c5		 xor	 eax, ebp
  0001e	50		 push	 eax
  0001f	8d 45 f4	 lea	 eax, DWORD PTR __$EHRec$[ebp]
  00022	64 a3 00 00 00
	00		 mov	 DWORD PTR fs:0, eax
  00028	8b d9		 mov	 ebx, ecx

; 861  :         // reallocate and insert by perfectly forwarding _Val at _Whereptr
; 862  :         _Alty& _Al        = _Getal();
; 863  :         auto& _My_data    = _Mypair._Myval2;
; 864  :         pointer& _Myfirst = _My_data._Myfirst;
; 865  :         pointer& _Mylast  = _My_data._Mylast;
; 866  : 
; 867  :         _STL_INTERNAL_CHECK(_Mylast == _My_data._Myend); // check that we have no unused capacity
; 868  : 
; 869  :         const auto _Whereoff = static_cast<size_type>(_Whereptr - _Myfirst);

  0002a	8b 13		 mov	 edx, DWORD PTR [ebx]
  0002c	8b 45 08	 mov	 eax, DWORD PTR __Whereptr$[ebp]
  0002f	2b c2		 sub	 eax, edx
  00031	c1 f8 02	 sar	 eax, 2
  00034	89 45 ec	 mov	 DWORD PTR __Whereoff$1$[ebp], eax

; 870  :         const auto _Oldsize  = static_cast<size_type>(_Mylast - _Myfirst);

  00037	8b 43 04	 mov	 eax, DWORD PTR [ebx+4]
  0003a	2b c2		 sub	 eax, edx
  0003c	c1 f8 02	 sar	 eax, 2

; 871  : 
; 872  :         if (_Oldsize == max_size()) {

  0003f	3d ff ff ff 3f	 cmp	 eax, 1073741823		; 3fffffffH
  00044	0f 84 ad 01 00
	00		 je	 $LN116@Emplace_re

; 1909 :         return static_cast<size_type>(_My_data._Myend - _My_data._Myfirst);

  0004a	8b 4b 08	 mov	 ecx, DWORD PTR [ebx+8]

; 874  :         }
; 875  : 
; 876  :         const size_type _Newsize = _Oldsize + 1;

  0004d	8d 70 01	 lea	 esi, DWORD PTR [eax+1]

; 1909 :         return static_cast<size_type>(_My_data._Myend - _My_data._Myfirst);

  00050	2b ca		 sub	 ecx, edx

; 874  :         }
; 875  : 
; 876  :         const size_type _Newsize = _Oldsize + 1;

  00052	89 75 e4	 mov	 DWORD PTR __Newsize$1$[ebp], esi

; 1909 :         return static_cast<size_type>(_My_data._Myend - _My_data._Myfirst);

  00055	c1 f9 02	 sar	 ecx, 2

; 1996 :         if (_Oldcapacity > _Max - _Oldcapacity / 2) {

  00058	b8 ff ff ff 3f	 mov	 eax, 1073741823		; 3fffffffH
  0005d	8b d1		 mov	 edx, ecx
  0005f	d1 ea		 shr	 edx, 1
  00061	2b c2		 sub	 eax, edx
  00063	3b c8		 cmp	 ecx, eax
  00065	76 1e		 jbe	 SHORT $LN8@Emplace_re

; 1997 :             return _Max; // geometric growth would overflow

  00067	b8 fc ff ff ff	 mov	 eax, -4			; fffffffcH
  0006c	c7 45 e8 fc ff
	ff ff		 mov	 DWORD PTR tv660[ebp], -4 ; fffffffcH
; File D:\Program Files\Microsoft Visual Studio\2022\Community\VC\Tools\MSVC\14.43.34808\include\xmemory

; 253  :             return _Allocate_manually_vector_aligned<_Traits>(_Bytes);

  00073	50		 push	 eax
; File D:\Program Files\Microsoft Visual Studio\2022\Community\VC\Tools\MSVC\14.43.34808\include\vector

; 1997 :             return _Max; // geometric growth would overflow

  00074	bf ff ff ff 3f	 mov	 edi, 1073741823		; 3fffffffH
; File D:\Program Files\Microsoft Visual Studio\2022\Community\VC\Tools\MSVC\14.43.34808\include\xmemory

; 253  :             return _Allocate_manually_vector_aligned<_Traits>(_Bytes);

  00079	e8 00 00 00 00	 call	 ??$_Allocate_manually_vector_aligned@U_Default_allocate_traits@std@@@std@@YAPAXI@Z ; std::_Allocate_manually_vector_aligned<std::_Default_allocate_traits>
  0007e	8b f0		 mov	 esi, eax
  00080	89 75 f0	 mov	 DWORD PTR $T3[ebp], esi
  00083	eb 4a		 jmp	 SHORT $LN114@Emplace_re
$LN8@Emplace_re:
; File D:\Program Files\Microsoft Visual Studio\2022\Community\VC\Tools\MSVC\14.43.34808\include\vector

; 2000 :         const size_type _Geometric = _Oldcapacity + _Oldcapacity / 2;

  00085	8d 04 0a	 lea	 eax, DWORD PTR [edx+ecx]
; File D:\Program Files\Microsoft Visual Studio\2022\Community\VC\Tools\MSVC\14.43.34808\include\xmemory

; 117  :         if (_Count > _Max_possible) {

  00088	8b fe		 mov	 edi, esi
  0008a	3b c6		 cmp	 eax, esi
  0008c	0f 43 f8	 cmovae	 edi, eax
  0008f	81 ff ff ff ff
	3f		 cmp	 edi, 1073741823		; 3fffffffH
  00095	0f 87 61 01 00
	00		 ja	 $LN117@Emplace_re

; 119  :         }
; 120  :     }
; 121  : 
; 122  :     return _Count * _Ty_size;

  0009b	8d 04 bd 00 00
	00 00		 lea	 eax, DWORD PTR [edi*4]
  000a2	89 45 e8	 mov	 DWORD PTR tv660[ebp], eax

; 227  :     if (_Bytes == 0) {

  000a5	85 c0		 test	 eax, eax
  000a7	75 07		 jne	 SHORT $LN23@Emplace_re

; 228  :         return nullptr;

  000a9	33 f6		 xor	 esi, esi
  000ab	89 75 f0	 mov	 DWORD PTR $T3[ebp], esi
  000ae	eb 22		 jmp	 SHORT $LN22@Emplace_re
$LN23@Emplace_re:

; 229  :     }
; 230  : 
; 231  : #if _HAS_CXX20 // TRANSITION, GH-1532
; 232  :     if (_STD is_constant_evaluated()) {
; 233  :         return _Traits::_Allocate(_Bytes);
; 234  :     }
; 235  : #endif // _HAS_CXX20
; 236  : 
; 237  : #ifdef __cpp_aligned_new
; 238  :     if constexpr (_Align > __STDCPP_DEFAULT_NEW_ALIGNMENT__) {
; 239  :         size_t _Passed_align = _Align;
; 240  : #if defined(_M_IX86) || defined(_M_X64)
; 241  :         if (_Bytes >= _Big_allocation_threshold) {
; 242  :             // boost the alignment of big allocations to help autovectorization
; 243  :             _Passed_align = (_STD max)(_Align, _Big_allocation_alignment);
; 244  :         }
; 245  : #endif // defined(_M_IX86) || defined(_M_X64)
; 246  :         return _Traits::_Allocate_aligned(_Bytes, _Passed_align);
; 247  :     } else
; 248  : #endif // defined(__cpp_aligned_new)
; 249  :     {
; 250  : #if defined(_M_IX86) || defined(_M_X64)
; 251  :         if (_Bytes >= _Big_allocation_threshold) {

  000b0	3d 00 10 00 00	 cmp	 eax, 4096		; 00001000H
  000b5	72 0d		 jb	 SHORT $LN24@Emplace_re

; 253  :             return _Allocate_manually_vector_aligned<_Traits>(_Bytes);

  000b7	50		 push	 eax
  000b8	e8 00 00 00 00	 call	 ??$_Allocate_manually_vector_aligned@U_Default_allocate_traits@std@@@std@@YAPAXI@Z ; std::_Allocate_manually_vector_aligned<std::_Default_allocate_traits>
  000bd	8b f0		 mov	 esi, eax
  000bf	89 75 f0	 mov	 DWORD PTR $T3[ebp], esi
  000c2	eb 0b		 jmp	 SHORT $LN114@Emplace_re
$LN24@Emplace_re:

; 136  :         return ::operator new(_Bytes);

  000c4	50		 push	 eax
  000c5	e8 00 00 00 00	 call	 ??2@YAPAXI@Z		; operator new

; 256  :         return _Traits::_Allocate(_Bytes);

  000ca	8b f0		 mov	 esi, eax
  000cc	89 45 f0	 mov	 DWORD PTR $T3[ebp], eax
$LN114@Emplace_re:
; File D:\Program Files\Microsoft Visual Studio\2022\Community\VC\Tools\MSVC\14.43.34808\include\vector

; 880  :         const pointer _Constructed_last = _Newvec + _Whereoff + 1;

  000cf	83 c4 04	 add	 esp, 4
$LN22@Emplace_re:
  000d2	8b 45 ec	 mov	 eax, DWORD PTR __Whereoff$1$[ebp]

; 882  :         _Reallocation_guard _Guard{_Al, _Newvec, _Newcapacity, _Constructed_last, _Constructed_last};

  000d5	89 5d c4	 mov	 DWORD PTR __Guard$[ebp], ebx
  000d8	89 75 c8	 mov	 DWORD PTR __Guard$[ebp+4], esi
  000db	89 7d cc	 mov	 DWORD PTR __Guard$[ebp+8], edi
  000de	8d 14 86	 lea	 edx, DWORD PTR [esi+eax*4]
  000e1	8d 42 04	 lea	 eax, DWORD PTR [edx+4]
  000e4	89 55 ec	 mov	 DWORD PTR tv676[ebp], edx
  000e7	89 45 d0	 mov	 DWORD PTR __Guard$[ebp+12], eax
  000ea	89 45 d4	 mov	 DWORD PTR __Guard$[ebp+16], eax
; File C:\Marty 5.5\Src-Client\Client\eterlib\Ref.h

; 33   : 			Initialize(c_rRef.m_pObject);

  000ed	8b 45 0c	 mov	 eax, DWORD PTR _<_Val_0>$[ebp]
  000f0	c7 02 00 00 00
	00		 mov	 DWORD PTR [edx], 0
; File D:\Program Files\Microsoft Visual Studio\2022\Community\VC\Tools\MSVC\14.43.34808\include\vector

; 882  :         _Reallocation_guard _Guard{_Al, _Newvec, _Newcapacity, _Constructed_last, _Constructed_last};

  000f6	c7 45 fc 00 00
	00 00		 mov	 DWORD PTR __$EHRec$[ebp+8], 0
; File C:\Marty 5.5\Src-Client\Client\eterlib\Ref.h

; 33   : 			Initialize(c_rRef.m_pObject);

  000fd	8b 08		 mov	 ecx, DWORD PTR [eax]

; 94   : 			m_pObject = pObject;

  000ff	89 0a		 mov	 DWORD PTR [edx], ecx

; 95   : 
; 96   : 			if (m_pObject)

  00101	85 c9		 test	 ecx, ecx
  00103	74 08		 je	 SHORT $LN35@Emplace_re

; 97   : 				m_pObject->AddReference();

  00105	e8 00 00 00 00	 call	 ?AddReference@CReferenceObject@@QAEXXZ ; CReferenceObject::AddReference
  0010a	8b 55 ec	 mov	 edx, DWORD PTR tv676[ebp]
$LN35@Emplace_re:
; File D:\Program Files\Microsoft Visual Studio\2022\Community\VC\Tools\MSVC\14.43.34808\include\vector

; 888  :         if (_Whereptr == _Mylast) { // at back, provide strong guarantee

  0010d	8b 43 04	 mov	 eax, DWORD PTR [ebx+4]
  00110	8b 4d 08	 mov	 ecx, DWORD PTR __Whereptr$[ebp]
  00113	8b 3b		 mov	 edi, DWORD PTR [ebx]
  00115	89 55 d0	 mov	 DWORD PTR __Guard$[ebp+12], edx
  00118	89 45 0c	 mov	 DWORD PTR __ULast$1$[ebp], eax
  0011b	3b c8		 cmp	 ecx, eax
  0011d	75 47		 jne	 SHORT $LN3@Emplace_re
; File D:\Program Files\Microsoft Visual Studio\2022\Community\VC\Tools\MSVC\14.43.34808\include\xmemory

; 1796 :     _CONSTEXPR20 _Uninitialized_backout_al(pointer _Dest, _Alloc& _Al_) : _First(_Dest), _Last(_Dest), _Al(_Al_) {}

  0011f	89 75 d8	 mov	 DWORD PTR __Backout$2[ebp], esi
  00122	89 75 dc	 mov	 DWORD PTR __Backout$2[ebp+4], esi
  00125	89 5d e0	 mov	 DWORD PTR __Backout$2[ebp+8], ebx

; 1863 :     _Uninitialized_backout_al<_Alloc> _Backout{_Dest, _Al};

  00128	c6 45 fc 01	 mov	 BYTE PTR __$EHRec$[ebp+8], 1

; 1864 :     for (; _UFirst != _ULast; ++_UFirst) {

  0012c	3b f8		 cmp	 edi, eax
  0012e	74 23		 je	 SHORT $LN39@Emplace_re
$LL40@Emplace_re:
; File C:\Marty 5.5\Src-Client\Client\eterlib\Ref.h

; 32   : 			m_pObject = NULL;

  00130	c7 06 00 00 00
	00		 mov	 DWORD PTR [esi], 0

; 94   : 			m_pObject = pObject;

  00136	8b 0f		 mov	 ecx, DWORD PTR [edi]
  00138	89 0e		 mov	 DWORD PTR [esi], ecx

; 95   : 
; 96   : 			if (m_pObject)

  0013a	85 c9		 test	 ecx, ecx
  0013c	74 08		 je	 SHORT $LN52@Emplace_re

; 97   : 				m_pObject->AddReference();

  0013e	e8 00 00 00 00	 call	 ?AddReference@CReferenceObject@@QAEXXZ ; CReferenceObject::AddReference
  00143	8b 45 0c	 mov	 eax, DWORD PTR __ULast$1$[ebp]
$LN52@Emplace_re:
; File D:\Program Files\Microsoft Visual Studio\2022\Community\VC\Tools\MSVC\14.43.34808\include\xmemory

; 1808 :         ++_Last;

  00146	83 c6 04	 add	 esi, 4

; 1864 :     for (; _UFirst != _ULast; ++_UFirst) {

  00149	83 c7 04	 add	 edi, 4

; 1808 :         ++_Last;

  0014c	89 75 dc	 mov	 DWORD PTR __Backout$2[ebp+4], esi

; 1864 :     for (; _UFirst != _ULast; ++_UFirst) {

  0014f	3b f8		 cmp	 edi, eax
  00151	75 dd		 jne	 SHORT $LL40@Emplace_re
$LN39@Emplace_re:

; 1802 :         _STD _Destroy_range(_First, _Last, _Al);

  00153	53		 push	 ebx
  00154	56		 push	 esi
  00155	56		 push	 esi
  00156	e8 00 00 00 00	 call	 ??$_Destroy_range@V?$allocator@V?$CRef@VCGrannyMaterial@@@@@std@@@std@@YAXPAV?$CRef@VCGrannyMaterial@@@@QAV1@AAV?$allocator@V?$CRef@VCGrannyMaterial@@@@@0@@Z ; std::_Destroy_range<std::allocator<CRef<CGrannyMaterial> > >
; File D:\Program Files\Microsoft Visual Studio\2022\Community\VC\Tools\MSVC\14.43.34808\include\vector

; 894  :         } else { // provide basic guarantee

  0015b	8b 75 f0	 mov	 esi, DWORD PTR $T3[ebp]
; File D:\Program Files\Microsoft Visual Studio\2022\Community\VC\Tools\MSVC\14.43.34808\include\xmemory

; 1802 :         _STD _Destroy_range(_First, _Last, _Al);

  0015e	83 c4 0c	 add	 esp, 12			; 0000000cH
; File D:\Program Files\Microsoft Visual Studio\2022\Community\VC\Tools\MSVC\14.43.34808\include\vector

; 894  :         } else { // provide basic guarantee

  00161	8b 7d ec	 mov	 edi, DWORD PTR tv676[ebp]
  00164	eb 22		 jmp	 SHORT $LN4@Emplace_re
$LN3@Emplace_re:

; 895  :             _STD _Uninitialized_move(_Myfirst, _Whereptr, _Newvec, _Al);

  00166	53		 push	 ebx
  00167	56		 push	 esi
  00168	51		 push	 ecx
  00169	57		 push	 edi
  0016a	e8 00 00 00 00	 call	 ??$_Uninitialized_move@PAV?$CRef@VCGrannyMaterial@@@@V?$allocator@V?$CRef@VCGrannyMaterial@@@@@std@@@std@@YAPAV?$CRef@VCGrannyMaterial@@@@QAV1@0PAV1@AAV?$allocator@V?$CRef@VCGrannyMaterial@@@@@0@@Z ; std::_Uninitialized_move<CRef<CGrannyMaterial> *,std::allocator<CRef<CGrannyMaterial> > >

; 896  :             _Constructed_first = _Newvec;
; 897  :             _STD _Uninitialized_move(_Whereptr, _Mylast, _Newvec + _Whereoff + 1, _Al);

  0016f	8b 7d ec	 mov	 edi, DWORD PTR tv676[ebp]
  00172	53		 push	 ebx
  00173	89 75 d0	 mov	 DWORD PTR __Guard$[ebp+12], esi
  00176	8d 47 04	 lea	 eax, DWORD PTR [edi+4]
  00179	50		 push	 eax
  0017a	ff 73 04	 push	 DWORD PTR [ebx+4]
  0017d	ff 75 08	 push	 DWORD PTR __Whereptr$[ebp]
  00180	e8 00 00 00 00	 call	 ??$_Uninitialized_move@PAV?$CRef@VCGrannyMaterial@@@@V?$allocator@V?$CRef@VCGrannyMaterial@@@@@std@@@std@@YAPAV?$CRef@VCGrannyMaterial@@@@QAV1@0PAV1@AAV?$allocator@V?$CRef@VCGrannyMaterial@@@@@0@@Z ; std::_Uninitialized_move<CRef<CGrannyMaterial> *,std::allocator<CRef<CGrannyMaterial> > >
  00185	83 c4 20	 add	 esp, 32			; 00000020H
$LN4@Emplace_re:

; 2054 :         if (_Myfirst) { // destroy and deallocate old array

  00188	8b 03		 mov	 eax, DWORD PTR [ebx]
  0018a	85 c0		 test	 eax, eax
  0018c	74 3b		 je	 SHORT $LN68@Emplace_re

; 2055 :             _STD _Destroy_range(_Myfirst, _Mylast, _Al);

  0018e	53		 push	 ebx
  0018f	ff 73 04	 push	 DWORD PTR [ebx+4]
  00192	50		 push	 eax
  00193	e8 00 00 00 00	 call	 ??$_Destroy_range@V?$allocator@V?$CRef@VCGrannyMaterial@@@@@std@@@std@@YAXPAV?$CRef@VCGrannyMaterial@@@@QAV1@AAV?$allocator@V?$CRef@VCGrannyMaterial@@@@@0@@Z ; std::_Destroy_range<std::allocator<CRef<CGrannyMaterial> > >

; 2056 :             _ASAN_VECTOR_REMOVE;
; 2057 :             _Al.deallocate(_Myfirst, static_cast<size_type>(_Myend - _Myfirst));

  00198	8b 4b 08	 mov	 ecx, DWORD PTR [ebx+8]
  0019b	83 c4 0c	 add	 esp, 12			; 0000000cH
  0019e	8b 03		 mov	 eax, DWORD PTR [ebx]
  001a0	2b c8		 sub	 ecx, eax
; File D:\Program Files\Microsoft Visual Studio\2022\Community\VC\Tools\MSVC\14.43.34808\include\xmemory

; 981  :         _STD _Deallocate<_New_alignof<_Ty>>(_Ptr, sizeof(_Ty) * _Count);

  001a2	83 e1 fc	 and	 ecx, -4			; fffffffcH

; 284  :         if (_Bytes >= _Big_allocation_threshold) {

  001a5	81 f9 00 10 00
	00		 cmp	 ecx, 4096		; 00001000H
  001ab	72 12		 jb	 SHORT $LN79@Emplace_re

; 205  :     const uintptr_t _Ptr_container   = _Ptr_user[-1];

  001ad	8b 50 fc	 mov	 edx, DWORD PTR [eax-4]
  001b0	83 c1 23	 add	 ecx, 35			; 00000023H

; 206  : 
; 207  :     // If the following asserts, it likely means that we are performing
; 208  :     // an aligned delete on memory coming from an unaligned allocation.
; 209  :     _STL_ASSERT(_Ptr_user[-2] == _Big_allocation_sentinel, "invalid argument");
; 210  : 
; 211  :     // Extra paranoia on aligned allocation/deallocation; ensure _Ptr_container is
; 212  :     // in range [_Min_back_shift, _Non_user_size]
; 213  : #ifdef _DEBUG
; 214  :     constexpr uintptr_t _Min_back_shift = 2 * sizeof(void*);
; 215  : #else // ^^^ defined(_DEBUG) / !defined(_DEBUG) vvv
; 216  :     constexpr uintptr_t _Min_back_shift = sizeof(void*);
; 217  : #endif // ^^^ !defined(_DEBUG) ^^^
; 218  :     const uintptr_t _Back_shift = reinterpret_cast<uintptr_t>(_Ptr) - _Ptr_container;

  001b3	2b c2		 sub	 eax, edx

; 219  :     _STL_VERIFY(_Back_shift >= _Min_back_shift && _Back_shift <= _Non_user_size, "invalid argument");

  001b5	83 c0 fc	 add	 eax, -4			; fffffffcH
  001b8	83 f8 1f	 cmp	 eax, 31			; 0000001fH
  001bb	77 35		 ja	 SHORT $LN76@Emplace_re

; 220  :     _Ptr = reinterpret_cast<void*>(_Ptr_container);

  001bd	8b c2		 mov	 eax, edx
$LN79@Emplace_re:

; 289  :         ::operator delete(_Ptr, _Bytes);

  001bf	51		 push	 ecx
  001c0	50		 push	 eax
  001c1	e8 00 00 00 00	 call	 ??3@YAXPAXI@Z		; operator delete
  001c6	83 c4 08	 add	 esp, 8
$LN68@Emplace_re:
; File D:\Program Files\Microsoft Visual Studio\2022\Community\VC\Tools\MSVC\14.43.34808\include\vector

; 2061 :         _Mylast  = _Newvec + _Newsize;

  001c9	8b 45 e4	 mov	 eax, DWORD PTR __Newsize$1$[ebp]
  001cc	89 33		 mov	 DWORD PTR [ebx], esi
  001ce	8d 0c 86	 lea	 ecx, DWORD PTR [esi+eax*4]

; 898  :         }
; 899  : 
; 900  :         _Guard._New_begin = nullptr;
; 901  :         _Change_array(_Newvec, _Newsize, _Newcapacity);
; 902  :         return _Newvec + _Whereoff;

  001d1	8b c7		 mov	 eax, edi

; 2061 :         _Mylast  = _Newvec + _Newsize;

  001d3	89 4b 04	 mov	 DWORD PTR [ebx+4], ecx

; 2062 :         _Myend   = _Newvec + _Newcapacity;

  001d6	8b 4d e8	 mov	 ecx, DWORD PTR tv660[ebp]
  001d9	03 ce		 add	 ecx, esi
  001db	89 4b 08	 mov	 DWORD PTR [ebx+8], ecx

; 903  :     }

  001de	8b 4d f4	 mov	 ecx, DWORD PTR __$EHRec$[ebp]
  001e1	64 89 0d 00 00
	00 00		 mov	 DWORD PTR fs:0, ecx
  001e8	59		 pop	 ecx
  001e9	5f		 pop	 edi
  001ea	5e		 pop	 esi
  001eb	5b		 pop	 ebx
  001ec	8b e5		 mov	 esp, ebp
  001ee	5d		 pop	 ebp
  001ef	c2 08 00	 ret	 8
$LN76@Emplace_re:
; File D:\Program Files\Microsoft Visual Studio\2022\Community\VC\Tools\MSVC\14.43.34808\include\xmemory

; 219  :     _STL_VERIFY(_Back_shift >= _Min_back_shift && _Back_shift <= _Non_user_size, "invalid argument");

  001f2	e8 00 00 00 00	 call	 __invalid_parameter_noinfo_noreturn
$LN116@Emplace_re:
; File D:\Program Files\Microsoft Visual Studio\2022\Community\VC\Tools\MSVC\14.43.34808\include\vector

; 873  :             _Xlength();

  001f7	e8 00 00 00 00	 call	 ?_Xlength@?$vector@V?$CRef@VCGrannyMaterial@@@@V?$allocator@V?$CRef@VCGrannyMaterial@@@@@std@@@std@@CAXXZ ; std::vector<CRef<CGrannyMaterial>,std::allocator<CRef<CGrannyMaterial> > >::_Xlength
$LN117@Emplace_re:
; File D:\Program Files\Microsoft Visual Studio\2022\Community\VC\Tools\MSVC\14.43.34808\include\xmemory

; 118  :             _Throw_bad_array_new_length(); // multiply overflow

  001fc	e8 00 00 00 00	 call	 ?_Throw_bad_array_new_length@std@@YAXXZ ; std::_Throw_bad_array_new_length
$LN113@Emplace_re:
  00201	cc		 int	 3
_TEXT	ENDS
;	COMDAT text$x
text$x	SEGMENT
__unwindfunclet$??$_Emplace_reallocate@V?$CRef@VCGrannyMaterial@@@@@?$vector@V?$CRef@VCGrannyMaterial@@@@V?$allocator@V?$CRef@VCGrannyMaterial@@@@@std@@@std@@AAEPAV?$CRef@VCGrannyMaterial@@@@QAV2@$$QAV2@@Z$0:
  00000	8d 4d c4	 lea	 ecx, DWORD PTR __Guard$[ebp]
  00003	e9 00 00 00 00	 jmp	 ??1_Reallocation_guard@?$vector@V?$CRef@VCGrannyMaterial@@@@V?$allocator@V?$CRef@VCGrannyMaterial@@@@@std@@@std@@QAE@XZ ; std::vector<CRef<CGrannyMaterial>,std::allocator<CRef<CGrannyMaterial> > >::_Reallocation_guard::~_Reallocation_guard
__unwindfunclet$??$_Emplace_reallocate@V?$CRef@VCGrannyMaterial@@@@@?$vector@V?$CRef@VCGrannyMaterial@@@@V?$allocator@V?$CRef@VCGrannyMaterial@@@@@std@@@std@@AAEPAV?$CRef@VCGrannyMaterial@@@@QAV2@$$QAV2@@Z$1:
  00008	8d 4d d8	 lea	 ecx, DWORD PTR __Backout$2[ebp]
  0000b	e9 00 00 00 00	 jmp	 ??1?$_Uninitialized_backout_al@V?$allocator@V?$CRef@VCGrannyMaterial@@@@@std@@@std@@QAE@XZ ; std::_Uninitialized_backout_al<std::allocator<CRef<CGrannyMaterial> > >::~_Uninitialized_backout_al<std::allocator<CRef<CGrannyMaterial> > >
  00010	cc		 int	 3
  00011	cc		 int	 3
  00012	cc		 int	 3
  00013	cc		 int	 3
  00014	cc		 int	 3
__ehhandler$??$_Emplace_reallocate@V?$CRef@VCGrannyMaterial@@@@@?$vector@V?$CRef@VCGrannyMaterial@@@@V?$allocator@V?$CRef@VCGrannyMaterial@@@@@std@@@std@@AAEPAV?$CRef@VCGrannyMaterial@@@@QAV2@$$QAV2@@Z:
  00015	90		 npad	 1
  00016	90		 npad	 1
  00017	8b 54 24 08	 mov	 edx, DWORD PTR [esp+8]
  0001b	8d 42 0c	 lea	 eax, DWORD PTR [edx+12]
  0001e	8b 4a c0	 mov	 ecx, DWORD PTR [edx-64]
  00021	33 c8		 xor	 ecx, eax
  00023	e8 00 00 00 00	 call	 @__security_check_cookie@4
  00028	b8 00 00 00 00	 mov	 eax, OFFSET __ehfuncinfo$??$_Emplace_reallocate@V?$CRef@VCGrannyMaterial@@@@@?$vector@V?$CRef@VCGrannyMaterial@@@@V?$allocator@V?$CRef@VCGrannyMaterial@@@@@std@@@std@@AAEPAV?$CRef@VCGrannyMaterial@@@@QAV2@$$QAV2@@Z
  0002d	e9 00 00 00 00	 jmp	 ___CxxFrameHandler3
text$x	ENDS
??$_Emplace_reallocate@V?$CRef@VCGrannyMaterial@@@@@?$vector@V?$CRef@VCGrannyMaterial@@@@V?$allocator@V?$CRef@VCGrannyMaterial@@@@@std@@@std@@AAEPAV?$CRef@VCGrannyMaterial@@@@QAV2@$$QAV2@@Z ENDP ; std::vector<CRef<CGrannyMaterial>,std::allocator<CRef<CGrannyMaterial> > >::_Emplace_reallocate<CRef<CGrannyMaterial> >
; Function compile flags: /Ogtp
; File D:\Program Files\Microsoft Visual Studio\2022\Community\VC\Tools\MSVC\14.43.34808\include\xmemory
; File C:\Marty 5.5\Src-Client\Client\eterlib\Ref.h
; File D:\Program Files\Microsoft Visual Studio\2022\Community\VC\Tools\MSVC\14.43.34808\include\xmemory
;	COMDAT ??$_Uninitialized_copy_n@PAV?$CRef@VCGrannyMaterial@@@@V?$allocator@V?$CRef@VCGrannyMaterial@@@@@std@@@std@@YAPAV?$CRef@VCGrannyMaterial@@@@PAV1@I0AAV?$allocator@V?$CRef@VCGrannyMaterial@@@@@0@@Z
_TEXT	SEGMENT
__Backout$ = -24					; size = 12
__$EHRec$ = -12						; size = 12
__First$ = 8						; size = 4
__Count$ = 12						; size = 4
__Dest$ = 16						; size = 4
__Al$ = 20						; size = 4
??$_Uninitialized_copy_n@PAV?$CRef@VCGrannyMaterial@@@@V?$allocator@V?$CRef@VCGrannyMaterial@@@@@std@@@std@@YAPAV?$CRef@VCGrannyMaterial@@@@PAV1@I0AAV?$allocator@V?$CRef@VCGrannyMaterial@@@@@0@@Z PROC ; std::_Uninitialized_copy_n<CRef<CGrannyMaterial> *,std::allocator<CRef<CGrannyMaterial> > >, COMDAT

; 1873 :     _InIt _First, size_t _Count, _Alloc_ptr_t<_Alloc> _Dest, _Alloc& _Al) {

  00000	55		 push	 ebp
  00001	8b ec		 mov	 ebp, esp
  00003	6a ff		 push	 -1
  00005	68 00 00 00 00	 push	 __ehhandler$??$_Uninitialized_copy_n@PAV?$CRef@VCGrannyMaterial@@@@V?$allocator@V?$CRef@VCGrannyMaterial@@@@@std@@@std@@YAPAV?$CRef@VCGrannyMaterial@@@@PAV1@I0AAV?$allocator@V?$CRef@VCGrannyMaterial@@@@@0@@Z
  0000a	64 a1 00 00 00
	00		 mov	 eax, DWORD PTR fs:0
  00010	50		 push	 eax
  00011	83 ec 0c	 sub	 esp, 12			; 0000000cH
  00014	53		 push	 ebx
  00015	56		 push	 esi
  00016	57		 push	 edi
  00017	a1 00 00 00 00	 mov	 eax, DWORD PTR ___security_cookie
  0001c	33 c5		 xor	 eax, ebp
  0001e	50		 push	 eax
  0001f	8d 45 f4	 lea	 eax, DWORD PTR __$EHRec$[ebp]
  00022	64 a3 00 00 00
	00		 mov	 DWORD PTR fs:0, eax

; 1796 :     _CONSTEXPR20 _Uninitialized_backout_al(pointer _Dest, _Alloc& _Al_) : _First(_Dest), _Last(_Dest), _Al(_Al_) {}

  00028	8b 75 10	 mov	 esi, DWORD PTR __Dest$[ebp]
  0002b	8b 45 14	 mov	 eax, DWORD PTR __Al$[ebp]

; 1874 :     // copy _First + [0, _Count) to raw _Dest, using _Al
; 1875 :     // note: only called internally from elsewhere in the STL
; 1876 :     using _Ptrval = typename _Alloc::value_type*;
; 1877 : 
; 1878 : #ifdef _ENABLE_STL_INTERNAL_CHECK
; 1879 :     auto _UFirst = _STD _Get_unwrapped_n(_STD move(_First), _Count);
; 1880 : #else // ^^^ Checking / No checking vvv
; 1881 :     auto _UFirst = _STD _Get_unwrapped(_STD move(_First));

  0002e	8b 7d 08	 mov	 edi, DWORD PTR __First$[ebp]

; 1796 :     _CONSTEXPR20 _Uninitialized_backout_al(pointer _Dest, _Alloc& _Al_) : _First(_Dest), _Last(_Dest), _Al(_Al_) {}

  00031	89 75 e8	 mov	 DWORD PTR __Backout$[ebp], esi
  00034	89 75 ec	 mov	 DWORD PTR __Backout$[ebp+4], esi
  00037	89 45 f0	 mov	 DWORD PTR __Backout$[ebp+8], eax

; 1882 : #endif // ^^^ No checking ^^^
; 1883 : 
; 1884 :     constexpr bool _Can_memmove =
; 1885 :         conjunction_v<bool_constant<_Iter_copy_cat<decltype(_UFirst), _Ptrval>::_Bitcopy_constructible>,
; 1886 :             _Uses_default_construct<_Alloc, _Ptrval, decltype(*_UFirst)>>;
; 1887 : 
; 1888 :     if constexpr (_Can_memmove) {
; 1889 : #if _HAS_CXX20
; 1890 :         if (!_STD is_constant_evaluated())
; 1891 : #endif // _HAS_CXX20
; 1892 :         {
; 1893 :             _STD _Copy_memmove_n(_UFirst, _Count, _STD _Unfancy(_Dest));
; 1894 :             _Dest += _Count;
; 1895 :             return _Dest;
; 1896 :         }
; 1897 :     }
; 1898 : 
; 1899 :     _Uninitialized_backout_al<_Alloc> _Backout{_Dest, _Al};
; 1900 :     for (; _Count != 0; ++_UFirst, (void) --_Count) {

  0003a	8b 5d 0c	 mov	 ebx, DWORD PTR __Count$[ebp]
  0003d	c7 45 fc 00 00
	00 00		 mov	 DWORD PTR __$EHRec$[ebp+8], 0
  00044	85 db		 test	 ebx, ebx
  00046	74 2c		 je	 SHORT $LN3@Uninitiali
  00048	0f 1f 84 00 00
	00 00 00	 npad	 8
$LL4@Uninitiali:
; File C:\Marty 5.5\Src-Client\Client\eterlib\Ref.h

; 32   : 			m_pObject = NULL;

  00050	c7 06 00 00 00
	00		 mov	 DWORD PTR [esi], 0

; 94   : 			m_pObject = pObject;

  00056	8b 0f		 mov	 ecx, DWORD PTR [edi]
  00058	89 0e		 mov	 DWORD PTR [esi], ecx

; 95   : 
; 96   : 			if (m_pObject)

  0005a	85 c9		 test	 ecx, ecx
  0005c	74 05		 je	 SHORT $LN16@Uninitiali

; 97   : 				m_pObject->AddReference();

  0005e	e8 00 00 00 00	 call	 ?AddReference@CReferenceObject@@QAEXXZ ; CReferenceObject::AddReference
$LN16@Uninitiali:
; File D:\Program Files\Microsoft Visual Studio\2022\Community\VC\Tools\MSVC\14.43.34808\include\xmemory

; 1808 :         ++_Last;

  00063	83 c6 04	 add	 esi, 4

; 1882 : #endif // ^^^ No checking ^^^
; 1883 : 
; 1884 :     constexpr bool _Can_memmove =
; 1885 :         conjunction_v<bool_constant<_Iter_copy_cat<decltype(_UFirst), _Ptrval>::_Bitcopy_constructible>,
; 1886 :             _Uses_default_construct<_Alloc, _Ptrval, decltype(*_UFirst)>>;
; 1887 : 
; 1888 :     if constexpr (_Can_memmove) {
; 1889 : #if _HAS_CXX20
; 1890 :         if (!_STD is_constant_evaluated())
; 1891 : #endif // _HAS_CXX20
; 1892 :         {
; 1893 :             _STD _Copy_memmove_n(_UFirst, _Count, _STD _Unfancy(_Dest));
; 1894 :             _Dest += _Count;
; 1895 :             return _Dest;
; 1896 :         }
; 1897 :     }
; 1898 : 
; 1899 :     _Uninitialized_backout_al<_Alloc> _Backout{_Dest, _Al};
; 1900 :     for (; _Count != 0; ++_UFirst, (void) --_Count) {

  00066	83 c7 04	 add	 edi, 4

; 1808 :         ++_Last;

  00069	89 75 ec	 mov	 DWORD PTR __Backout$[ebp+4], esi

; 1882 : #endif // ^^^ No checking ^^^
; 1883 : 
; 1884 :     constexpr bool _Can_memmove =
; 1885 :         conjunction_v<bool_constant<_Iter_copy_cat<decltype(_UFirst), _Ptrval>::_Bitcopy_constructible>,
; 1886 :             _Uses_default_construct<_Alloc, _Ptrval, decltype(*_UFirst)>>;
; 1887 : 
; 1888 :     if constexpr (_Can_memmove) {
; 1889 : #if _HAS_CXX20
; 1890 :         if (!_STD is_constant_evaluated())
; 1891 : #endif // _HAS_CXX20
; 1892 :         {
; 1893 :             _STD _Copy_memmove_n(_UFirst, _Count, _STD _Unfancy(_Dest));
; 1894 :             _Dest += _Count;
; 1895 :             return _Dest;
; 1896 :         }
; 1897 :     }
; 1898 : 
; 1899 :     _Uninitialized_backout_al<_Alloc> _Backout{_Dest, _Al};
; 1900 :     for (; _Count != 0; ++_UFirst, (void) --_Count) {

  0006c	83 eb 01	 sub	 ebx, 1
  0006f	75 df		 jne	 SHORT $LL4@Uninitiali
  00071	8b 45 14	 mov	 eax, DWORD PTR __Al$[ebp]
$LN3@Uninitiali:

; 1802 :         _STD _Destroy_range(_First, _Last, _Al);

  00074	50		 push	 eax
  00075	56		 push	 esi
  00076	56		 push	 esi
  00077	e8 00 00 00 00	 call	 ??$_Destroy_range@V?$allocator@V?$CRef@VCGrannyMaterial@@@@@std@@@std@@YAXPAV?$CRef@VCGrannyMaterial@@@@QAV1@AAV?$allocator@V?$CRef@VCGrannyMaterial@@@@@0@@Z ; std::_Destroy_range<std::allocator<CRef<CGrannyMaterial> > >
  0007c	83 c4 0c	 add	 esp, 12			; 0000000cH

; 1901 :         _Backout._Emplace_back(*_UFirst);
; 1902 :     }
; 1903 : 
; 1904 :     return _Backout._Release();

  0007f	8b c6		 mov	 eax, esi

; 1905 : }

  00081	8b 4d f4	 mov	 ecx, DWORD PTR __$EHRec$[ebp]
  00084	64 89 0d 00 00
	00 00		 mov	 DWORD PTR fs:0, ecx
  0008b	59		 pop	 ecx
  0008c	5f		 pop	 edi
  0008d	5e		 pop	 esi
  0008e	5b		 pop	 ebx
  0008f	8b e5		 mov	 esp, ebp
  00091	5d		 pop	 ebp
  00092	c3		 ret	 0
_TEXT	ENDS
;	COMDAT text$x
text$x	SEGMENT
__unwindfunclet$??$_Uninitialized_copy_n@PAV?$CRef@VCGrannyMaterial@@@@V?$allocator@V?$CRef@VCGrannyMaterial@@@@@std@@@std@@YAPAV?$CRef@VCGrannyMaterial@@@@PAV1@I0AAV?$allocator@V?$CRef@VCGrannyMaterial@@@@@0@@Z$0:
  00000	8d 4d e8	 lea	 ecx, DWORD PTR __Backout$[ebp]
  00003	e9 00 00 00 00	 jmp	 ??1?$_Uninitialized_backout_al@V?$allocator@V?$CRef@VCGrannyMaterial@@@@@std@@@std@@QAE@XZ ; std::_Uninitialized_backout_al<std::allocator<CRef<CGrannyMaterial> > >::~_Uninitialized_backout_al<std::allocator<CRef<CGrannyMaterial> > >
  00008	cc		 int	 3
  00009	cc		 int	 3
  0000a	cc		 int	 3
  0000b	cc		 int	 3
  0000c	cc		 int	 3
__ehhandler$??$_Uninitialized_copy_n@PAV?$CRef@VCGrannyMaterial@@@@V?$allocator@V?$CRef@VCGrannyMaterial@@@@@std@@@std@@YAPAV?$CRef@VCGrannyMaterial@@@@PAV1@I0AAV?$allocator@V?$CRef@VCGrannyMaterial@@@@@0@@Z:
  0000d	90		 npad	 1
  0000e	90		 npad	 1
  0000f	8b 54 24 08	 mov	 edx, DWORD PTR [esp+8]
  00013	8d 42 0c	 lea	 eax, DWORD PTR [edx+12]
  00016	8b 4a e4	 mov	 ecx, DWORD PTR [edx-28]
  00019	33 c8		 xor	 ecx, eax
  0001b	e8 00 00 00 00	 call	 @__security_check_cookie@4
  00020	b8 00 00 00 00	 mov	 eax, OFFSET __ehfuncinfo$??$_Uninitialized_copy_n@PAV?$CRef@VCGrannyMaterial@@@@V?$allocator@V?$CRef@VCGrannyMaterial@@@@@std@@@std@@YAPAV?$CRef@VCGrannyMaterial@@@@PAV1@I0AAV?$allocator@V?$CRef@VCGrannyMaterial@@@@@0@@Z
  00025	e9 00 00 00 00	 jmp	 ___CxxFrameHandler3
text$x	ENDS
??$_Uninitialized_copy_n@PAV?$CRef@VCGrannyMaterial@@@@V?$allocator@V?$CRef@VCGrannyMaterial@@@@@std@@@std@@YAPAV?$CRef@VCGrannyMaterial@@@@PAV1@I0AAV?$allocator@V?$CRef@VCGrannyMaterial@@@@@0@@Z ENDP ; std::_Uninitialized_copy_n<CRef<CGrannyMaterial> *,std::allocator<CRef<CGrannyMaterial> > >
; Function compile flags: /Ogtp
; File D:\Program Files\Microsoft Visual Studio\2022\Community\VC\Tools\MSVC\14.43.34808\include\vector
; File D:\Program Files\Microsoft Visual Studio\2022\Community\VC\Tools\MSVC\14.43.34808\include\xmemory
; File D:\Program Files\Microsoft Visual Studio\2022\Community\VC\Tools\MSVC\14.43.34808\include\vector
; File D:\Program Files\Microsoft Visual Studio\2022\Community\VC\Tools\MSVC\14.43.34808\include\xmemory
; File D:\Program Files\Microsoft Visual Studio\2022\Community\VC\Tools\MSVC\14.43.34808\include\vector
; File D:\Program Files\Microsoft Visual Studio\2022\Community\VC\Tools\MSVC\14.43.34808\include\xmemory
; File D:\Program Files\Microsoft Visual Studio\2022\Community\VC\Tools\MSVC\14.43.34808\include\vector
; File C:\Marty 5.5\Src-Client\Client\eterlib\Ref.h
; File D:\Program Files\Microsoft Visual Studio\2022\Community\VC\Tools\MSVC\14.43.34808\include\vector
; File D:\Program Files\Microsoft Visual Studio\2022\Community\VC\Tools\MSVC\14.43.34808\include\xutility
; File C:\Marty 5.5\Src-Client\Client\eterlib\Ref.h
; File D:\Program Files\Microsoft Visual Studio\2022\Community\VC\Tools\MSVC\14.43.34808\include\xutility
; File D:\Program Files\Microsoft Visual Studio\2022\Community\VC\Tools\MSVC\14.43.34808\include\vector
; File D:\Program Files\Microsoft Visual Studio\2022\Community\VC\Tools\MSVC\14.43.34808\include\xmemory
; File D:\Program Files\Microsoft Visual Studio\2022\Community\VC\Tools\MSVC\14.43.34808\include\vector
;	COMDAT ??$_Assign_counted_range@PAV?$CRef@VCGrannyMaterial@@@@@?$vector@V?$CRef@VCGrannyMaterial@@@@V?$allocator@V?$CRef@VCGrannyMaterial@@@@@std@@@std@@AAEXPAV?$CRef@VCGrannyMaterial@@@@I@Z
_TEXT	SEGMENT
__Oldsize$1$ = -4					; size = 4
__Newlast$1$ = -4					; size = 4
__First$ = 8						; size = 4
_pOldObject$1$ = 8					; size = 4
__First$1$ = 8						; size = 4
__Newsize$ = 12						; size = 4
$T1 = 12						; size = 4
_pOldObject$1$ = 12					; size = 4
??$_Assign_counted_range@PAV?$CRef@VCGrannyMaterial@@@@@?$vector@V?$CRef@VCGrannyMaterial@@@@V?$allocator@V?$CRef@VCGrannyMaterial@@@@@std@@@std@@AAEXPAV?$CRef@VCGrannyMaterial@@@@I@Z PROC ; std::vector<CRef<CGrannyMaterial>,std::allocator<CRef<CGrannyMaterial> > >::_Assign_counted_range<CRef<CGrannyMaterial> *>, COMDAT
; _this$ = ecx

; 1405 :     _CONSTEXPR20 void _Assign_counted_range(_Iter _First, const size_type _Newsize) {

  00000	55		 push	 ebp
  00001	8b ec		 mov	 ebp, esp
  00003	51		 push	 ecx
  00004	53		 push	 ebx

; 1406 :         // assign elements from counted range _First + [0, _Newsize)
; 1407 :         auto& _Al         = _Getal();
; 1408 :         auto& _My_data    = _Mypair._Myval2;
; 1409 :         pointer& _Myfirst = _My_data._Myfirst;
; 1410 :         pointer& _Mylast  = _My_data._Mylast;
; 1411 :         pointer& _Myend   = _My_data._Myend;
; 1412 : 
; 1413 :         constexpr bool _Nothrow_construct = conjunction_v<is_nothrow_constructible<_Ty, _Iter_ref_t<_Iter>>,
; 1414 :             _Uses_default_construct<_Alloc, _Ty*, _Iter_ref_t<_Iter>>>;
; 1415 : 
; 1416 :         _My_data._Orphan_all();
; 1417 :         const auto _Oldcapacity = static_cast<size_type>(_Myend - _Myfirst);
; 1418 :         if (_Newsize > _Oldcapacity) {

  00005	8b 5d 0c	 mov	 ebx, DWORD PTR __Newsize$[ebp]
  00008	56		 push	 esi
  00009	57		 push	 edi
  0000a	8b f9		 mov	 edi, ecx
  0000c	8b 4f 08	 mov	 ecx, DWORD PTR [edi+8]
  0000f	8b 37		 mov	 esi, DWORD PTR [edi]
  00011	2b ce		 sub	 ecx, esi
  00013	c1 f9 02	 sar	 ecx, 2
  00016	3b d9		 cmp	 ebx, ecx
  00018	0f 86 e2 00 00
	00		 jbe	 $LN5@Assign_cou

; 1688 :         if (_Newsize > max_size()) {

  0001e	81 fb ff ff ff
	3f		 cmp	 ebx, 1073741823		; 3fffffffH
  00024	0f 87 9b 01 00
	00		 ja	 $LN106@Assign_cou

; 1996 :         if (_Oldcapacity > _Max - _Oldcapacity / 2) {

  0002a	8b d1		 mov	 edx, ecx
  0002c	b8 ff ff ff 3f	 mov	 eax, 1073741823		; 3fffffffH
  00031	d1 ea		 shr	 edx, 1
  00033	2b c2		 sub	 eax, edx
  00035	3b c8		 cmp	 ecx, eax
  00037	76 09		 jbe	 SHORT $LN15@Assign_cou

; 1997 :             return _Max; // geometric growth would overflow

  00039	c7 45 0c ff ff
	ff 3f		 mov	 DWORD PTR $T1[ebp], 1073741823 ; 3fffffffH
  00040	eb 0b		 jmp	 SHORT $LN16@Assign_cou
$LN15@Assign_cou:

; 1998 :         }
; 1999 : 
; 2000 :         const size_type _Geometric = _Oldcapacity + _Oldcapacity / 2;

  00042	8d 04 0a	 lea	 eax, DWORD PTR [edx+ecx]

; 2001 : 
; 2002 :         if (_Geometric < _Newsize) {

  00045	3b c3		 cmp	 eax, ebx
  00047	0f 42 c3	 cmovb	 eax, ebx
  0004a	89 45 0c	 mov	 DWORD PTR $T1[ebp], eax
$LN16@Assign_cou:

; 1694 :         if (_Myfirst) { // destroy and deallocate old array

  0004d	85 f6		 test	 esi, esi
  0004f	74 53		 je	 SHORT $LN12@Assign_cou

; 1695 :             _Destroy_range(_Myfirst, _Mylast, _Al);

  00051	57		 push	 edi
  00052	ff 77 04	 push	 DWORD PTR [edi+4]
  00055	56		 push	 esi
  00056	e8 00 00 00 00	 call	 ??$_Destroy_range@V?$allocator@V?$CRef@VCGrannyMaterial@@@@@std@@@std@@YAXPAV?$CRef@VCGrannyMaterial@@@@QAV1@AAV?$allocator@V?$CRef@VCGrannyMaterial@@@@@0@@Z ; std::_Destroy_range<std::allocator<CRef<CGrannyMaterial> > >

; 1696 :             _ASAN_VECTOR_REMOVE;
; 1697 :             _Al.deallocate(_Myfirst, static_cast<size_type>(_Myend - _Myfirst));

  0005b	8b 4f 08	 mov	 ecx, DWORD PTR [edi+8]
  0005e	83 c4 0c	 add	 esp, 12			; 0000000cH
  00061	8b 07		 mov	 eax, DWORD PTR [edi]
  00063	2b c8		 sub	 ecx, eax
; File D:\Program Files\Microsoft Visual Studio\2022\Community\VC\Tools\MSVC\14.43.34808\include\xmemory

; 981  :         _STD _Deallocate<_New_alignof<_Ty>>(_Ptr, sizeof(_Ty) * _Count);

  00065	83 e1 fc	 and	 ecx, -4			; fffffffcH

; 284  :         if (_Bytes >= _Big_allocation_threshold) {

  00068	81 f9 00 10 00
	00		 cmp	 ecx, 4096		; 00001000H
  0006e	72 16		 jb	 SHORT $LN37@Assign_cou

; 205  :     const uintptr_t _Ptr_container   = _Ptr_user[-1];

  00070	8b 50 fc	 mov	 edx, DWORD PTR [eax-4]
  00073	83 c1 23	 add	 ecx, 35			; 00000023H

; 206  : 
; 207  :     // If the following asserts, it likely means that we are performing
; 208  :     // an aligned delete on memory coming from an unaligned allocation.
; 209  :     _STL_ASSERT(_Ptr_user[-2] == _Big_allocation_sentinel, "invalid argument");
; 210  : 
; 211  :     // Extra paranoia on aligned allocation/deallocation; ensure _Ptr_container is
; 212  :     // in range [_Min_back_shift, _Non_user_size]
; 213  : #ifdef _DEBUG
; 214  :     constexpr uintptr_t _Min_back_shift = 2 * sizeof(void*);
; 215  : #else // ^^^ defined(_DEBUG) / !defined(_DEBUG) vvv
; 216  :     constexpr uintptr_t _Min_back_shift = sizeof(void*);
; 217  : #endif // ^^^ !defined(_DEBUG) ^^^
; 218  :     const uintptr_t _Back_shift = reinterpret_cast<uintptr_t>(_Ptr) - _Ptr_container;

  00076	2b c2		 sub	 eax, edx

; 219  :     _STL_VERIFY(_Back_shift >= _Min_back_shift && _Back_shift <= _Non_user_size, "invalid argument");

  00078	83 c0 fc	 add	 eax, -4			; fffffffcH
  0007b	83 f8 1f	 cmp	 eax, 31			; 0000001fH
  0007e	0f 87 4b 01 00
	00		 ja	 $LN34@Assign_cou

; 220  :     _Ptr = reinterpret_cast<void*>(_Ptr_container);

  00084	8b c2		 mov	 eax, edx
$LN37@Assign_cou:

; 289  :         ::operator delete(_Ptr, _Bytes);

  00086	51		 push	 ecx
  00087	50		 push	 eax
  00088	e8 00 00 00 00	 call	 ??3@YAXPAXI@Z		; operator delete
; File D:\Program Files\Microsoft Visual Studio\2022\Community\VC\Tools\MSVC\14.43.34808\include\vector

; 1699 :             _Myfirst = nullptr;

  0008d	c7 07 00 00 00
	00		 mov	 DWORD PTR [edi], 0
; File D:\Program Files\Microsoft Visual Studio\2022\Community\VC\Tools\MSVC\14.43.34808\include\xmemory

; 289  :         ::operator delete(_Ptr, _Bytes);

  00093	83 c4 08	 add	 esp, 8
; File D:\Program Files\Microsoft Visual Studio\2022\Community\VC\Tools\MSVC\14.43.34808\include\vector

; 1700 :             _Mylast  = nullptr;

  00096	c7 47 04 00 00
	00 00		 mov	 DWORD PTR [edi+4], 0

; 1701 :             _Myend   = nullptr;

  0009d	c7 47 08 00 00
	00 00		 mov	 DWORD PTR [edi+8], 0
$LN12@Assign_cou:
; File D:\Program Files\Microsoft Visual Studio\2022\Community\VC\Tools\MSVC\14.43.34808\include\xmemory

; 117  :         if (_Count > _Max_possible) {

  000a4	8b 45 0c	 mov	 eax, DWORD PTR $T1[ebp]
  000a7	3d ff ff ff 3f	 cmp	 eax, 1073741823		; 3fffffffH
  000ac	0f 87 18 01 00
	00		 ja	 $LN107@Assign_cou

; 119  :         }
; 120  :     }
; 121  : 
; 122  :     return _Count * _Ty_size;

  000b2	8d 34 85 00 00
	00 00		 lea	 esi, DWORD PTR [eax*4]

; 227  :     if (_Bytes == 0) {

  000b9	85 f6		 test	 esi, esi
  000bb	75 04		 jne	 SHORT $LN52@Assign_cou

; 228  :         return nullptr;

  000bd	33 c9		 xor	 ecx, ecx
  000bf	eb 1a		 jmp	 SHORT $LN51@Assign_cou
$LN52@Assign_cou:

; 229  :     }
; 230  : 
; 231  : #if _HAS_CXX20 // TRANSITION, GH-1532
; 232  :     if (_STD is_constant_evaluated()) {
; 233  :         return _Traits::_Allocate(_Bytes);
; 234  :     }
; 235  : #endif // _HAS_CXX20
; 236  : 
; 237  : #ifdef __cpp_aligned_new
; 238  :     if constexpr (_Align > __STDCPP_DEFAULT_NEW_ALIGNMENT__) {
; 239  :         size_t _Passed_align = _Align;
; 240  : #if defined(_M_IX86) || defined(_M_X64)
; 241  :         if (_Bytes >= _Big_allocation_threshold) {
; 242  :             // boost the alignment of big allocations to help autovectorization
; 243  :             _Passed_align = (_STD max)(_Align, _Big_allocation_alignment);
; 244  :         }
; 245  : #endif // defined(_M_IX86) || defined(_M_X64)
; 246  :         return _Traits::_Allocate_aligned(_Bytes, _Passed_align);
; 247  :     } else
; 248  : #endif // defined(__cpp_aligned_new)
; 249  :     {
; 250  : #if defined(_M_IX86) || defined(_M_X64)
; 251  :         if (_Bytes >= _Big_allocation_threshold) {

  000c1	56		 push	 esi
  000c2	81 fe 00 10 00
	00		 cmp	 esi, 4096		; 00001000H
  000c8	72 07		 jb	 SHORT $LN53@Assign_cou

; 252  :             // boost the alignment of big allocations to help autovectorization
; 253  :             return _Allocate_manually_vector_aligned<_Traits>(_Bytes);

  000ca	e8 00 00 00 00	 call	 ??$_Allocate_manually_vector_aligned@U_Default_allocate_traits@std@@@std@@YAPAXI@Z ; std::_Allocate_manually_vector_aligned<std::_Default_allocate_traits>
  000cf	eb 05		 jmp	 SHORT $LN104@Assign_cou
$LN53@Assign_cou:

; 136  :         return ::operator new(_Bytes);

  000d1	e8 00 00 00 00	 call	 ??2@YAPAXI@Z		; operator new
$LN104@Assign_cou:
; File D:\Program Files\Microsoft Visual Studio\2022\Community\VC\Tools\MSVC\14.43.34808\include\vector

; 2020 :         _Myfirst              = _Newvec;

  000d6	8b c8		 mov	 ecx, eax
  000d8	83 c4 04	 add	 esp, 4
$LN51@Assign_cou:

; 1419 :             _Clear_and_reserve_geometric(_Newsize);
; 1420 :             if constexpr (_Nothrow_construct) {
; 1421 :                 _Mylast = _STD _Uninitialized_copy_n(_STD move(_First), _Newsize, _Myfirst, _Al);
; 1422 :                 _ASAN_VECTOR_CREATE;
; 1423 :             } else {
; 1424 :                 _ASAN_VECTOR_CREATE_GUARD;
; 1425 :                 _Mylast = _STD _Uninitialized_copy_n(_STD move(_First), _Newsize, _Myfirst, _Al);

  000db	57		 push	 edi
  000dc	51		 push	 ecx

; 2020 :         _Myfirst              = _Newvec;

  000dd	89 0f		 mov	 DWORD PTR [edi], ecx

; 2022 :         _Myend                = _Newvec + _Newcapacity;

  000df	8d 04 0e	 lea	 eax, DWORD PTR [esi+ecx]

; 1419 :             _Clear_and_reserve_geometric(_Newsize);
; 1420 :             if constexpr (_Nothrow_construct) {
; 1421 :                 _Mylast = _STD _Uninitialized_copy_n(_STD move(_First), _Newsize, _Myfirst, _Al);
; 1422 :                 _ASAN_VECTOR_CREATE;
; 1423 :             } else {
; 1424 :                 _ASAN_VECTOR_CREATE_GUARD;
; 1425 :                 _Mylast = _STD _Uninitialized_copy_n(_STD move(_First), _Newsize, _Myfirst, _Al);

  000e2	53		 push	 ebx
  000e3	ff 75 08	 push	 DWORD PTR __First$[ebp]

; 2021 :         _Mylast               = _Newvec;

  000e6	89 4f 04	 mov	 DWORD PTR [edi+4], ecx

; 2022 :         _Myend                = _Newvec + _Newcapacity;

  000e9	89 47 08	 mov	 DWORD PTR [edi+8], eax

; 1419 :             _Clear_and_reserve_geometric(_Newsize);
; 1420 :             if constexpr (_Nothrow_construct) {
; 1421 :                 _Mylast = _STD _Uninitialized_copy_n(_STD move(_First), _Newsize, _Myfirst, _Al);
; 1422 :                 _ASAN_VECTOR_CREATE;
; 1423 :             } else {
; 1424 :                 _ASAN_VECTOR_CREATE_GUARD;
; 1425 :                 _Mylast = _STD _Uninitialized_copy_n(_STD move(_First), _Newsize, _Myfirst, _Al);

  000ec	e8 00 00 00 00	 call	 ??$_Uninitialized_copy_n@PAV?$CRef@VCGrannyMaterial@@@@V?$allocator@V?$CRef@VCGrannyMaterial@@@@@std@@@std@@YAPAV?$CRef@VCGrannyMaterial@@@@PAV1@I0AAV?$allocator@V?$CRef@VCGrannyMaterial@@@@@0@@Z ; std::_Uninitialized_copy_n<CRef<CGrannyMaterial> *,std::allocator<CRef<CGrannyMaterial> > >
  000f1	83 c4 10	 add	 esp, 16			; 00000010H
  000f4	89 47 04	 mov	 DWORD PTR [edi+4], eax
  000f7	5f		 pop	 edi

; 1465 :     }

  000f8	5e		 pop	 esi
  000f9	5b		 pop	 ebx
  000fa	8b e5		 mov	 esp, ebp
  000fc	5d		 pop	 ebp
  000fd	c2 08 00	 ret	 8
$LN5@Assign_cou:

; 1426 :             }
; 1427 :             return;
; 1428 :         }
; 1429 : 
; 1430 :         const auto _Oldsize = static_cast<size_type>(_Mylast - _Myfirst);

  00100	8b 47 04	 mov	 eax, DWORD PTR [edi+4]
  00103	8b c8		 mov	 ecx, eax
  00105	2b ce		 sub	 ecx, esi
  00107	c1 f9 02	 sar	 ecx, 2
  0010a	89 4d fc	 mov	 DWORD PTR __Oldsize$1$[ebp], ecx

; 1431 :         if (_Newsize > _Oldsize) {

  0010d	3b d9		 cmp	 ebx, ecx
  0010f	76 54		 jbe	 SHORT $LN6@Assign_cou

; 1445 :                 for (auto _Mid = _Myfirst; _Mid != _Mylast; ++_Mid, (void) ++_First) {

  00111	8b 5d 08	 mov	 ebx, DWORD PTR __First$[ebp]
  00114	3b f0		 cmp	 esi, eax
  00116	74 30		 je	 SHORT $LN3@Assign_cou
$LL4@Assign_cou:
; File C:\Marty 5.5\Src-Client\Client\eterlib\Ref.h

; 69   : 			m_pObject = pObject;

  00118	8b 0b		 mov	 ecx, DWORD PTR [ebx]
  0011a	8b 06		 mov	 eax, DWORD PTR [esi]
  0011c	89 45 08	 mov	 DWORD PTR _pOldObject$1$[ebp], eax
  0011f	89 0e		 mov	 DWORD PTR [esi], ecx

; 70   : 
; 71   : 			if (m_pObject)

  00121	85 c9		 test	 ecx, ecx
  00123	74 08		 je	 SHORT $LN63@Assign_cou

; 72   : 				m_pObject->AddReference();

  00125	e8 00 00 00 00	 call	 ?AddReference@CReferenceObject@@QAEXXZ ; CReferenceObject::AddReference
  0012a	8b 45 08	 mov	 eax, DWORD PTR _pOldObject$1$[ebp]
$LN63@Assign_cou:

; 73   : 
; 74   : 			if (pOldObject)

  0012d	85 c0		 test	 eax, eax
  0012f	74 07		 je	 SHORT $LN2@Assign_cou

; 75   : 				pOldObject->Release();

  00131	8b c8		 mov	 ecx, eax
  00133	e8 00 00 00 00	 call	 ?Release@CReferenceObject@@QAEXXZ ; CReferenceObject::Release
$LN2@Assign_cou:
; File D:\Program Files\Microsoft Visual Studio\2022\Community\VC\Tools\MSVC\14.43.34808\include\vector

; 1445 :                 for (auto _Mid = _Myfirst; _Mid != _Mylast; ++_Mid, (void) ++_First) {

  00138	8b 47 04	 mov	 eax, DWORD PTR [edi+4]
  0013b	83 c6 04	 add	 esi, 4
  0013e	83 c3 04	 add	 ebx, 4
  00141	3b f0		 cmp	 esi, eax
  00143	75 d3		 jne	 SHORT $LL4@Assign_cou
  00145	8b 4d fc	 mov	 ecx, DWORD PTR __Oldsize$1$[ebp]
$LN3@Assign_cou:

; 1446 :                     *_Mid = *_First;
; 1447 :                 }
; 1448 :             }
; 1449 : 
; 1450 :             if constexpr (_Nothrow_construct) {
; 1451 :                 _ASAN_VECTOR_MODIFY(static_cast<difference_type>(_Newsize - _Oldsize));
; 1452 :                 _Mylast = _STD _Uninitialized_copy_n(_STD move(_First), _Newsize - _Oldsize, _Mylast, _Al);
; 1453 :             } else {
; 1454 :                 _ASAN_VECTOR_EXTEND_GUARD(_Newsize);
; 1455 :                 _Mylast = _STD _Uninitialized_copy_n(_STD move(_First), _Newsize - _Oldsize, _Mylast, _Al);

  00148	57		 push	 edi
  00149	50		 push	 eax
  0014a	8b 45 0c	 mov	 eax, DWORD PTR __Newsize$[ebp]
  0014d	2b c1		 sub	 eax, ecx
  0014f	50		 push	 eax
  00150	53		 push	 ebx
  00151	e8 00 00 00 00	 call	 ??$_Uninitialized_copy_n@PAV?$CRef@VCGrannyMaterial@@@@V?$allocator@V?$CRef@VCGrannyMaterial@@@@@std@@@std@@YAPAV?$CRef@VCGrannyMaterial@@@@PAV1@I0AAV?$allocator@V?$CRef@VCGrannyMaterial@@@@@0@@Z ; std::_Uninitialized_copy_n<CRef<CGrannyMaterial> *,std::allocator<CRef<CGrannyMaterial> > >
  00156	83 c4 10	 add	 esp, 16			; 00000010H
  00159	89 47 04	 mov	 DWORD PTR [edi+4], eax
  0015c	5f		 pop	 edi

; 1465 :     }

  0015d	5e		 pop	 esi
  0015e	5b		 pop	 ebx
  0015f	8b e5		 mov	 esp, ebp
  00161	5d		 pop	 ebp
  00162	c2 08 00	 ret	 8
$LN6@Assign_cou:

; 1456 :                 _ASAN_VECTOR_RELEASE_GUARD;
; 1457 :             }
; 1458 :         } else {
; 1459 :             const pointer _Newlast = _Myfirst + _Newsize;

  00165	8d 04 9e	 lea	 eax, DWORD PTR [esi+ebx*4]
  00168	89 45 fc	 mov	 DWORD PTR __Newlast$1$[ebp], eax

; 1460 :             _STD _Copy_n_unchecked4(_STD move(_First), _Newsize, _Myfirst);

  0016b	8b 45 08	 mov	 eax, DWORD PTR __First$[ebp]
  0016e	89 45 08	 mov	 DWORD PTR __First$1$[ebp], eax
; File D:\Program Files\Microsoft Visual Studio\2022\Community\VC\Tools\MSVC\14.43.34808\include\xutility

; 4828 :     for (; _Count != 0; ++_Dest, (void) ++_First, --_Count) {

  00171	85 db		 test	 ebx, ebx
  00173	74 34		 je	 SHORT $LN68@Assign_cou
$LL69@Assign_cou:
; File C:\Marty 5.5\Src-Client\Client\eterlib\Ref.h

; 69   : 			m_pObject = pObject;

  00175	8b 08		 mov	 ecx, DWORD PTR [eax]
  00177	8b 16		 mov	 edx, DWORD PTR [esi]
  00179	89 55 0c	 mov	 DWORD PTR _pOldObject$1$[ebp], edx
  0017c	89 0e		 mov	 DWORD PTR [esi], ecx

; 70   : 
; 71   : 			if (m_pObject)

  0017e	85 c9		 test	 ecx, ecx
  00180	74 0b		 je	 SHORT $LN74@Assign_cou

; 72   : 				m_pObject->AddReference();

  00182	e8 00 00 00 00	 call	 ?AddReference@CReferenceObject@@QAEXXZ ; CReferenceObject::AddReference
  00187	8b 45 08	 mov	 eax, DWORD PTR __First$1$[ebp]
  0018a	8b 55 0c	 mov	 edx, DWORD PTR _pOldObject$1$[ebp]
$LN74@Assign_cou:

; 73   : 
; 74   : 			if (pOldObject)

  0018d	85 d2		 test	 edx, edx
  0018f	74 0a		 je	 SHORT $LN67@Assign_cou

; 75   : 				pOldObject->Release();

  00191	8b ca		 mov	 ecx, edx
  00193	e8 00 00 00 00	 call	 ?Release@CReferenceObject@@QAEXXZ ; CReferenceObject::Release
  00198	8b 45 08	 mov	 eax, DWORD PTR __First$1$[ebp]
$LN67@Assign_cou:
; File D:\Program Files\Microsoft Visual Studio\2022\Community\VC\Tools\MSVC\14.43.34808\include\xutility

; 4828 :     for (; _Count != 0; ++_Dest, (void) ++_First, --_Count) {

  0019b	83 c0 04	 add	 eax, 4
  0019e	83 c6 04	 add	 esi, 4
  001a1	89 45 08	 mov	 DWORD PTR __First$1$[ebp], eax
  001a4	83 eb 01	 sub	 ebx, 1
  001a7	75 cc		 jne	 SHORT $LL69@Assign_cou
$LN68@Assign_cou:
; File D:\Program Files\Microsoft Visual Studio\2022\Community\VC\Tools\MSVC\14.43.34808\include\vector

; 1461 :             _STD _Destroy_range(_Newlast, _Mylast, _Al);

  001a9	8b 75 fc	 mov	 esi, DWORD PTR __Newlast$1$[ebp]
  001ac	57		 push	 edi
  001ad	ff 77 04	 push	 DWORD PTR [edi+4]
  001b0	56		 push	 esi
  001b1	e8 00 00 00 00	 call	 ??$_Destroy_range@V?$allocator@V?$CRef@VCGrannyMaterial@@@@@std@@@std@@YAXPAV?$CRef@VCGrannyMaterial@@@@QAV1@AAV?$allocator@V?$CRef@VCGrannyMaterial@@@@@0@@Z ; std::_Destroy_range<std::allocator<CRef<CGrannyMaterial> > >
  001b6	83 c4 0c	 add	 esp, 12			; 0000000cH

; 1462 :             _ASAN_VECTOR_MODIFY(static_cast<difference_type>(_Newsize - _Oldsize));
; 1463 :             _Mylast = _Newlast;

  001b9	89 77 04	 mov	 DWORD PTR [edi+4], esi
  001bc	5f		 pop	 edi

; 1465 :     }

  001bd	5e		 pop	 esi
  001be	5b		 pop	 ebx
  001bf	8b e5		 mov	 esp, ebp
  001c1	5d		 pop	 ebp
  001c2	c2 08 00	 ret	 8
$LN106@Assign_cou:

; 1689 :             _Xlength();

  001c5	e8 00 00 00 00	 call	 ?_Xlength@?$vector@V?$CRef@VCGrannyMaterial@@@@V?$allocator@V?$CRef@VCGrannyMaterial@@@@@std@@@std@@CAXXZ ; std::vector<CRef<CGrannyMaterial>,std::allocator<CRef<CGrannyMaterial> > >::_Xlength
$LN107@Assign_cou:
; File D:\Program Files\Microsoft Visual Studio\2022\Community\VC\Tools\MSVC\14.43.34808\include\xmemory

; 118  :             _Throw_bad_array_new_length(); // multiply overflow

  001ca	e8 00 00 00 00	 call	 ?_Throw_bad_array_new_length@std@@YAXXZ ; std::_Throw_bad_array_new_length
$LN34@Assign_cou:

; 219  :     _STL_VERIFY(_Back_shift >= _Min_back_shift && _Back_shift <= _Non_user_size, "invalid argument");

  001cf	e8 00 00 00 00	 call	 __invalid_parameter_noinfo_noreturn
$LN103@Assign_cou:
  001d4	cc		 int	 3
??$_Assign_counted_range@PAV?$CRef@VCGrannyMaterial@@@@@?$vector@V?$CRef@VCGrannyMaterial@@@@V?$allocator@V?$CRef@VCGrannyMaterial@@@@@std@@@std@@AAEXPAV?$CRef@VCGrannyMaterial@@@@I@Z ENDP ; std::vector<CRef<CGrannyMaterial>,std::allocator<CRef<CGrannyMaterial> > >::_Assign_counted_range<CRef<CGrannyMaterial> *>
_TEXT	ENDS
; Function compile flags: /Ogtp
; File D:\Program Files\Microsoft Visual Studio\2022\Community\VC\Tools\MSVC\14.43.34808\include\xmemory
; File C:\Marty 5.5\Src-Client\Client\eterlib\Ref.h
; File D:\Program Files\Microsoft Visual Studio\2022\Community\VC\Tools\MSVC\14.43.34808\include\xmemory
; File C:\Marty 5.5\Src-Client\Client\eterlib\Ref.h
; File D:\Program Files\Microsoft Visual Studio\2022\Community\VC\Tools\MSVC\14.43.34808\include\xmemory
;	COMDAT ??$_Destroy_range@V?$allocator@V?$CRef@VCGrannyMaterial@@@@@std@@@std@@YAXPAV?$CRef@VCGrannyMaterial@@@@QAV1@AAV?$allocator@V?$CRef@VCGrannyMaterial@@@@@0@@Z
_TEXT	SEGMENT
__$EHRec$ = -12						; size = 12
__First$ = 8						; size = 4
__Last$ = 12						; size = 4
__Al$ = 16						; size = 4
??$_Destroy_range@V?$allocator@V?$CRef@VCGrannyMaterial@@@@@std@@@std@@YAXPAV?$CRef@VCGrannyMaterial@@@@QAV1@AAV?$allocator@V?$CRef@VCGrannyMaterial@@@@@0@@Z PROC ; std::_Destroy_range<std::allocator<CRef<CGrannyMaterial> > >, COMDAT

; 1094 : _CONSTEXPR20 void _Destroy_range(_Alloc_ptr_t<_Alloc> _First, const _Alloc_ptr_t<_Alloc> _Last, _Alloc& _Al) noexcept {

  00000	55		 push	 ebp
  00001	8b ec		 mov	 ebp, esp
  00003	6a ff		 push	 -1
  00005	68 00 00 00 00	 push	 __ehhandler$??$_Destroy_range@V?$allocator@V?$CRef@VCGrannyMaterial@@@@@std@@@std@@YAXPAV?$CRef@VCGrannyMaterial@@@@QAV1@AAV?$allocator@V?$CRef@VCGrannyMaterial@@@@@0@@Z
  0000a	64 a1 00 00 00
	00		 mov	 eax, DWORD PTR fs:0
  00010	50		 push	 eax
  00011	56		 push	 esi
  00012	57		 push	 edi
  00013	a1 00 00 00 00	 mov	 eax, DWORD PTR ___security_cookie
  00018	33 c5		 xor	 eax, ebp
  0001a	50		 push	 eax
  0001b	8d 45 f4	 lea	 eax, DWORD PTR __$EHRec$[ebp]
  0001e	64 a3 00 00 00
	00		 mov	 DWORD PTR fs:0, eax

; 1098 :         for (; _First != _Last; ++_First) {

  00024	8b 75 08	 mov	 esi, DWORD PTR __First$[ebp]
  00027	8b 7d 0c	 mov	 edi, DWORD PTR __Last$[ebp]
  0002a	3b f7		 cmp	 esi, edi
  0002c	74 28		 je	 SHORT $LN3@Destroy_ra
  0002e	66 90		 npad	 2
$LL4@Destroy_ra:
; File C:\Marty 5.5\Src-Client\Client\eterlib\Ref.h

; 53   : 			if (m_pObject)

  00030	8b 0e		 mov	 ecx, DWORD PTR [esi]

; 37   : 		{

  00032	c7 45 fc 00 00
	00 00		 mov	 DWORD PTR __$EHRec$[ebp+8], 0

; 53   : 			if (m_pObject)

  00039	85 c9		 test	 ecx, ecx
  0003b	74 0b		 je	 SHORT $LN19@Destroy_ra

; 54   : 			{
; 55   : 				m_pObject->Release();

  0003d	e8 00 00 00 00	 call	 ?Release@CReferenceObject@@QAEXXZ ; CReferenceObject::Release

; 56   : 				m_pObject = NULL;

  00042	c7 06 00 00 00
	00		 mov	 DWORD PTR [esi], 0
$LN19@Destroy_ra:
; File D:\Program Files\Microsoft Visual Studio\2022\Community\VC\Tools\MSVC\14.43.34808\include\xmemory

; 1098 :         for (; _First != _Last; ++_First) {

  00048	83 c6 04	 add	 esi, 4
; File C:\Marty 5.5\Src-Client\Client\eterlib\Ref.h

; 39   : 		}

  0004b	c7 45 fc ff ff
	ff ff		 mov	 DWORD PTR __$EHRec$[ebp+8], -1
; File D:\Program Files\Microsoft Visual Studio\2022\Community\VC\Tools\MSVC\14.43.34808\include\xmemory

; 1098 :         for (; _First != _Last; ++_First) {

  00052	3b f7		 cmp	 esi, edi
  00054	75 da		 jne	 SHORT $LL4@Destroy_ra
$LN3@Destroy_ra:

; 1099 :             allocator_traits<_Alloc>::destroy(_Al, _STD _Unfancy(_First));
; 1100 :         }
; 1101 :     }
; 1102 : }

  00056	8b 4d f4	 mov	 ecx, DWORD PTR __$EHRec$[ebp]
  00059	64 89 0d 00 00
	00 00		 mov	 DWORD PTR fs:0, ecx
  00060	59		 pop	 ecx
  00061	5f		 pop	 edi
  00062	5e		 pop	 esi
  00063	8b e5		 mov	 esp, ebp
  00065	5d		 pop	 ebp
  00066	c3		 ret	 0
  00067	cc		 int	 3
  00068	cc		 int	 3
  00069	cc		 int	 3
  0006a	cc		 int	 3
  0006b	cc		 int	 3
_TEXT	ENDS
;	COMDAT text$x
text$x	SEGMENT
__ehhandler$??$_Destroy_range@V?$allocator@V?$CRef@VCGrannyMaterial@@@@@std@@@std@@YAXPAV?$CRef@VCGrannyMaterial@@@@QAV1@AAV?$allocator@V?$CRef@VCGrannyMaterial@@@@@0@@Z:
  00000	90		 npad	 1
  00001	90		 npad	 1
  00002	8b 54 24 08	 mov	 edx, DWORD PTR [esp+8]
  00006	8d 42 0c	 lea	 eax, DWORD PTR [edx+12]
  00009	8b 4a f4	 mov	 ecx, DWORD PTR [edx-12]
  0000c	33 c8		 xor	 ecx, eax
  0000e	e8 00 00 00 00	 call	 @__security_check_cookie@4
  00013	b8 00 00 00 00	 mov	 eax, OFFSET __ehfuncinfo$??$_Destroy_range@V?$allocator@V?$CRef@VCGrannyMaterial@@@@@std@@@std@@YAXPAV?$CRef@VCGrannyMaterial@@@@QAV1@AAV?$allocator@V?$CRef@VCGrannyMaterial@@@@@0@@Z
  00018	e9 00 00 00 00	 jmp	 ___CxxFrameHandler3
text$x	ENDS
??$_Destroy_range@V?$allocator@V?$CRef@VCGrannyMaterial@@@@@std@@@std@@YAXPAV?$CRef@VCGrannyMaterial@@@@QAV1@AAV?$allocator@V?$CRef@VCGrannyMaterial@@@@@0@@Z ENDP ; std::_Destroy_range<std::allocator<CRef<CGrannyMaterial> > >
; Function compile flags: /Ogtp
; File C:\Marty 5.5\Src-Client\Client\eterlib\Ref.h
;	COMDAT ??1?$CRef@VCGrannyMaterial@@@@QAE@XZ
_TEXT	SEGMENT
__$EHRec$ = -12						; size = 12
??1?$CRef@VCGrannyMaterial@@@@QAE@XZ PROC		; CRef<CGrannyMaterial>::~CRef<CGrannyMaterial>, COMDAT
; _this$ = ecx

; 37   : 		{

  00000	55		 push	 ebp
  00001	8b ec		 mov	 ebp, esp
  00003	6a ff		 push	 -1
  00005	68 00 00 00 00	 push	 __ehhandler$??1?$CRef@VCGrannyMaterial@@@@QAE@XZ
  0000a	64 a1 00 00 00
	00		 mov	 eax, DWORD PTR fs:0
  00010	50		 push	 eax
  00011	56		 push	 esi
  00012	a1 00 00 00 00	 mov	 eax, DWORD PTR ___security_cookie
  00017	33 c5		 xor	 eax, ebp
  00019	50		 push	 eax
  0001a	8d 45 f4	 lea	 eax, DWORD PTR __$EHRec$[ebp]
  0001d	64 a3 00 00 00
	00		 mov	 DWORD PTR fs:0, eax
  00023	8b f1		 mov	 esi, ecx

; 53   : 			if (m_pObject)

  00025	8b 0e		 mov	 ecx, DWORD PTR [esi]
  00027	85 c9		 test	 ecx, ecx
  00029	74 0b		 je	 SHORT $LN5@CRef

; 54   : 			{
; 55   : 				m_pObject->Release();

  0002b	e8 00 00 00 00	 call	 ?Release@CReferenceObject@@QAEXXZ ; CReferenceObject::Release

; 56   : 				m_pObject = NULL;

  00030	c7 06 00 00 00
	00		 mov	 DWORD PTR [esi], 0
$LN5@CRef:

; 38   : 			Clear();
; 39   : 		}

  00036	8b 4d f4	 mov	 ecx, DWORD PTR __$EHRec$[ebp]
  00039	64 89 0d 00 00
	00 00		 mov	 DWORD PTR fs:0, ecx
  00040	59		 pop	 ecx
  00041	5e		 pop	 esi
  00042	8b e5		 mov	 esp, ebp
  00044	5d		 pop	 ebp
  00045	c3		 ret	 0
  00046	cc		 int	 3
  00047	cc		 int	 3
  00048	cc		 int	 3
  00049	cc		 int	 3
  0004a	cc		 int	 3
_TEXT	ENDS
;	COMDAT text$x
text$x	SEGMENT
__ehhandler$??1?$CRef@VCGrannyMaterial@@@@QAE@XZ:
  00000	90		 npad	 1
  00001	90		 npad	 1
  00002	8b 54 24 08	 mov	 edx, DWORD PTR [esp+8]
  00006	8d 42 0c	 lea	 eax, DWORD PTR [edx+12]
  00009	8b 4a f8	 mov	 ecx, DWORD PTR [edx-8]
  0000c	33 c8		 xor	 ecx, eax
  0000e	e8 00 00 00 00	 call	 @__security_check_cookie@4
  00013	b8 00 00 00 00	 mov	 eax, OFFSET __ehfuncinfo$??1?$CRef@VCGrannyMaterial@@@@QAE@XZ
  00018	e9 00 00 00 00	 jmp	 ___CxxFrameHandler3
text$x	ENDS
??1?$CRef@VCGrannyMaterial@@@@QAE@XZ ENDP		; CRef<CGrannyMaterial>::~CRef<CGrannyMaterial>
; Function compile flags: /Ogtp
;	COMDAT ??__F?ms_akSphereMapInstance@CGrannyMaterial@@0PAVCGraphicImageInstance@@A@@YAXXZ
text$yd	SEGMENT
??__F?ms_akSphereMapInstance@CGrannyMaterial@@0PAVCGraphicImageInstance@@A@@YAXXZ PROC ; `dynamic atexit destructor for 'CGrannyMaterial::ms_akSphereMapInstance'', COMDAT
  00000	68 00 00 00 00	 push	 OFFSET ??1CGraphicImageInstance@@UAE@XZ ; CGraphicImageInstance::~CGraphicImageInstance
  00005	6a 0a		 push	 10			; 0000000aH
  00007	6a 28		 push	 40			; 00000028H
  00009	68 00 00 00 00	 push	 OFFSET ?ms_akSphereMapInstance@CGrannyMaterial@@0PAVCGraphicImageInstance@@A ; CGrannyMaterial::ms_akSphereMapInstance
  0000e	e8 00 00 00 00	 call	 ??_M@YGXPAXIIP6EX0@Z@Z
  00013	c3		 ret	 0
??__F?ms_akSphereMapInstance@CGrannyMaterial@@0PAVCGraphicImageInstance@@A@@YAXXZ ENDP ; `dynamic atexit destructor for 'CGrannyMaterial::ms_akSphereMapInstance''
text$yd	ENDS
; Function compile flags: /Ogtp
; File C:\Marty 5.5\Src-Client\Client\eterGrnLib\Material.cpp
;	COMDAT ??__E?ms_akSphereMapInstance@CGrannyMaterial@@0PAVCGraphicImageInstance@@A@@YAXXZ
text$di	SEGMENT
??__E?ms_akSphereMapInstance@CGrannyMaterial@@0PAVCGraphicImageInstance@@A@@YAXXZ PROC ; `dynamic initializer for 'CGrannyMaterial::ms_akSphereMapInstance'', COMDAT

; 9    : CGraphicImageInstance CGrannyMaterial::ms_akSphereMapInstance[SPHEREMAP_NUM];

  00000	68 00 00 00 00	 push	 OFFSET ??1CGraphicImageInstance@@UAE@XZ ; CGraphicImageInstance::~CGraphicImageInstance
  00005	68 00 00 00 00	 push	 OFFSET ??0CGraphicImageInstance@@QAE@XZ ; CGraphicImageInstance::CGraphicImageInstance
  0000a	6a 0a		 push	 10			; 0000000aH
  0000c	6a 28		 push	 40			; 00000028H
  0000e	68 00 00 00 00	 push	 OFFSET ?ms_akSphereMapInstance@CGrannyMaterial@@0PAVCGraphicImageInstance@@A ; CGrannyMaterial::ms_akSphereMapInstance
  00013	e8 00 00 00 00	 call	 ??_L@YGXPAXIIP6EX0@Z1@Z
  00018	68 00 00 00 00	 push	 OFFSET ??__F?ms_akSphereMapInstance@CGrannyMaterial@@0PAVCGraphicImageInstance@@A@@YAXXZ ; `dynamic atexit destructor for 'CGrannyMaterial::ms_akSphereMapInstance''
  0001d	e8 00 00 00 00	 call	 _atexit
  00022	59		 pop	 ecx
  00023	c3		 ret	 0
??__E?ms_akSphereMapInstance@CGrannyMaterial@@0PAVCGraphicImageInstance@@A@@YAXXZ ENDP ; `dynamic initializer for 'CGrannyMaterial::ms_akSphereMapInstance''
text$di	ENDS
; Function compile flags: /Ogtp
; File C:\Marty 5.5\Src-Client\Client\eterbase\Filename.h
; File D:\Program Files\Microsoft Visual Studio\2022\Community\VC\Tools\MSVC\14.43.34808\include\xstring
; File C:\Marty 5.5\Src-Client\Client\eterbase\Filename.h
; File D:\Program Files\Microsoft Visual Studio\2022\Community\VC\Tools\MSVC\14.43.34808\include\xstring
; File C:\Marty 5.5\Src-Client\Client\eterbase\Filename.h
; File D:\Program Files\Microsoft Visual Studio\2022\Community\VC\Tools\MSVC\14.43.34808\include\xstring
; File C:\Marty 5.5\Src-Client\Client\eterbase\Filename.h
; File D:\Program Files\Microsoft Visual Studio\2022\Community\VC\Tools\MSVC\14.43.34808\include\xstring
; File C:\Marty 5.5\Src-Client\Client\eterbase\Filename.h
; File D:\Program Files\Microsoft Visual Studio\2022\Community\VC\Tools\MSVC\14.43.34808\include\xstring
; File C:\Marty 5.5\Src-Client\Client\eterbase\Filename.h
;	COMDAT ?StringPath@CFileNameHelper@@SAXAAV?$basic_string@DU?$char_traits@D@std@@V?$allocator@D@2@@std@@@Z
_TEXT	SEGMENT
_str$ = 8						; size = 4
_nLength$1$ = 8						; size = 4
?StringPath@CFileNameHelper@@SAXAAV?$basic_string@DU?$char_traits@D@std@@V?$allocator@D@2@@std@@@Z PROC ; CFileNameHelper::StringPath, COMDAT

; 224  : 	static void StringPath(string& str) {

  00000	55		 push	 ebp
  00001	8b ec		 mov	 ebp, esp
  00003	56		 push	 esi
  00004	57		 push	 edi

; 225  : 		size_t nLength = str.length();

  00005	8b 7d 08	 mov	 edi, DWORD PTR _str$[ebp]

; 226  : 
; 227  : 		for (size_t i = 0; i<nLength; ++i)

  00008	33 f6		 xor	 esi, esi
  0000a	8b 47 10	 mov	 eax, DWORD PTR [edi+16]
  0000d	89 45 08	 mov	 DWORD PTR _nLength$1$[ebp], eax
  00010	85 c0		 test	 eax, eax
  00012	74 4f		 je	 SHORT $LN3@StringPath
  00014	53		 push	 ebx
$LL4@StringPath:
; File D:\Program Files\Microsoft Visual Studio\2022\Community\VC\Tools\MSVC\14.43.34808\include\xstring

; 457  :         if (_Mysize <= _Off) {

  00015	39 77 10	 cmp	 DWORD PTR [edi+16], esi
  00018	76 4d		 jbe	 SHORT $LN62@StringPath

; 434  :         return _Myres > _Small_string_capacity;

  0001a	8b 4f 14	 mov	 ecx, DWORD PTR [edi+20]

; 416  :         value_type* _Result = _Bx._Buf;

  0001d	8b c7		 mov	 eax, edi

; 434  :         return _Myres > _Small_string_capacity;

  0001f	83 f9 0f	 cmp	 ecx, 15			; 0000000fH

; 417  :         if (_Large_mode_engaged()) {

  00022	76 02		 jbe	 SHORT $LN77@StringPath

; 418  :             _Result = _Unfancy(_Bx._Ptr);

  00024	8b 07		 mov	 eax, DWORD PTR [edi]
$LN77@StringPath:
; File C:\Marty 5.5\Src-Client\Client\eterbase\Filename.h

; 229  : 			if (str.at(i) == '\\')

  00026	80 3c 30 5c	 cmp	 BYTE PTR [eax+esi], 92	; 0000005cH
  0002a	75 0f		 jne	 SHORT $LN5@StringPath
; File D:\Program Files\Microsoft Visual Studio\2022\Community\VC\Tools\MSVC\14.43.34808\include\xstring

; 416  :         value_type* _Result = _Bx._Buf;

  0002c	8b c7		 mov	 eax, edi

; 434  :         return _Myres > _Small_string_capacity;

  0002e	83 f9 0f	 cmp	 ecx, 15			; 0000000fH

; 417  :         if (_Large_mode_engaged()) {

  00031	76 02		 jbe	 SHORT $LN74@StringPath

; 418  :             _Result = _Unfancy(_Bx._Ptr);

  00033	8b 07		 mov	 eax, DWORD PTR [edi]
$LN74@StringPath:
; File C:\Marty 5.5\Src-Client\Client\eterbase\Filename.h

; 230  : 				str.at(i) = '/';

  00035	c6 04 30 2f	 mov	 BYTE PTR [eax+esi], 47	; 0000002fH
  00039	eb 21		 jmp	 SHORT $LN2@StringPath
$LN5@StringPath:
; File D:\Program Files\Microsoft Visual Studio\2022\Community\VC\Tools\MSVC\14.43.34808\include\xstring

; 434  :         return _Myres > _Small_string_capacity;

  0003b	83 f9 0f	 cmp	 ecx, 15			; 0000000fH

; 417  :         if (_Large_mode_engaged()) {

  0003e	76 08		 jbe	 SHORT $LN75@StringPath

; 418  :             _Result = _Unfancy(_Bx._Ptr);

  00040	8b 07		 mov	 eax, DWORD PTR [edi]
  00042	8b 1f		 mov	 ebx, DWORD PTR [edi]
  00044	03 c6		 add	 eax, esi
  00046	eb 05		 jmp	 SHORT $LN76@StringPath
$LN75@StringPath:

; 2235 :         return _Mypair._Myval2._Myptr()[_Off];

  00048	8d 04 37	 lea	 eax, DWORD PTR [edi+esi]

; 416  :         value_type* _Result = _Bx._Buf;

  0004b	8b df		 mov	 ebx, edi
$LN76@StringPath:
; File C:\Marty 5.5\Src-Client\Client\eterbase\Filename.h

; 232  : 				str.at(i) = (char)tolower(str.at(i));

  0004d	0f be 00	 movsx	 eax, BYTE PTR [eax]
  00050	50		 push	 eax
  00051	e8 00 00 00 00	 call	 _tolower
  00056	83 c4 04	 add	 esp, 4
  00059	88 04 33	 mov	 BYTE PTR [ebx+esi], al
$LN2@StringPath:

; 226  : 
; 227  : 		for (size_t i = 0; i<nLength; ++i)

  0005c	46		 inc	 esi
  0005d	3b 75 08	 cmp	 esi, DWORD PTR _nLength$1$[ebp]
  00060	72 b3		 jb	 SHORT $LL4@StringPath
; File D:\Program Files\Microsoft Visual Studio\2022\Community\VC\Tools\MSVC\14.43.34808\include\xstring

; 457  :         if (_Mysize <= _Off) {

  00062	5b		 pop	 ebx
$LN3@StringPath:
  00063	5f		 pop	 edi
; File C:\Marty 5.5\Src-Client\Client\eterbase\Filename.h

; 234  : 	}

  00064	5e		 pop	 esi
  00065	5d		 pop	 ebp
  00066	c3		 ret	 0
$LN62@StringPath:
; File D:\Program Files\Microsoft Visual Studio\2022\Community\VC\Tools\MSVC\14.43.34808\include\xstring

; 458  :             _Xran();

  00067	e8 00 00 00 00	 call	 ?_Xran@?$_String_val@U?$_Simple_types@D@std@@@std@@SAXXZ ; std::_String_val<std::_Simple_types<char> >::_Xran
$LN85@StringPath:
  0006c	cc		 int	 3
?StringPath@CFileNameHelper@@SAXAAV?$basic_string@DU?$char_traits@D@std@@V?$allocator@D@2@@std@@@Z ENDP ; CFileNameHelper::StringPath
_TEXT	ENDS
; Function compile flags: /Ogtp
;	COMDAT ??_GCGrannyMaterialPalette@@UAEPAXI@Z
_TEXT	SEGMENT
___flags$ = 8						; size = 4
??_GCGrannyMaterialPalette@@UAEPAXI@Z PROC		; CGrannyMaterialPalette::`scalar deleting destructor', COMDAT
; _this$ = ecx
  00000	55		 push	 ebp
  00001	8b ec		 mov	 ebp, esp
  00003	56		 push	 esi
  00004	8b f1		 mov	 esi, ecx
  00006	e8 00 00 00 00	 call	 ??1CGrannyMaterialPalette@@UAE@XZ ; CGrannyMaterialPalette::~CGrannyMaterialPalette
  0000b	f6 45 08 01	 test	 BYTE PTR ___flags$[ebp], 1
  0000f	74 0b		 je	 SHORT $LN5@scalar
  00011	6a 10		 push	 16			; 00000010H
  00013	56		 push	 esi
  00014	e8 00 00 00 00	 call	 ??3@YAXPAXI@Z		; operator delete
  00019	83 c4 08	 add	 esp, 8
$LN5@scalar:
  0001c	8b c6		 mov	 eax, esi
  0001e	5e		 pop	 esi
  0001f	5d		 pop	 ebp
  00020	c2 04 00	 ret	 4
??_GCGrannyMaterialPalette@@UAEPAXI@Z ENDP		; CGrannyMaterialPalette::`scalar deleting destructor'
_TEXT	ENDS
; Function compile flags: /Ogtp
; File D:\Program Files\Microsoft Visual Studio\2022\Community\VC\Tools\MSVC\14.43.34808\include\vector
;	COMDAT ?_Xlength@?$vector@V?$CRef@VCGrannyMaterial@@@@V?$allocator@V?$CRef@VCGrannyMaterial@@@@@std@@@std@@CAXXZ
_TEXT	SEGMENT
?_Xlength@?$vector@V?$CRef@VCGrannyMaterial@@@@V?$allocator@V?$CRef@VCGrannyMaterial@@@@@std@@@std@@CAXXZ PROC ; std::vector<CRef<CGrannyMaterial>,std::allocator<CRef<CGrannyMaterial> > >::_Xlength, COMDAT

; 2169 :         _Xlength_error("vector too long");

  00000	68 00 00 00 00	 push	 OFFSET ??_C@_0BA@FOIKENOD@vector?5too?5long@
  00005	e8 00 00 00 00	 call	 ?_Xlength_error@std@@YAXPBD@Z ; std::_Xlength_error
$LN3@Xlength:
  0000a	cc		 int	 3
?_Xlength@?$vector@V?$CRef@VCGrannyMaterial@@@@V?$allocator@V?$CRef@VCGrannyMaterial@@@@@std@@@std@@CAXXZ ENDP ; std::vector<CRef<CGrannyMaterial>,std::allocator<CRef<CGrannyMaterial> > >::_Xlength
_TEXT	ENDS
; Function compile flags: /Ogtp
; File D:\Program Files\Microsoft Visual Studio\2022\Community\VC\Tools\MSVC\14.43.34808\include\vector
; File D:\Program Files\Microsoft Visual Studio\2022\Community\VC\Tools\MSVC\14.43.34808\include\xmemory
; File D:\Program Files\Microsoft Visual Studio\2022\Community\VC\Tools\MSVC\14.43.34808\include\vector
; File D:\Program Files\Microsoft Visual Studio\2022\Community\VC\Tools\MSVC\14.43.34808\include\xmemory
; File D:\Program Files\Microsoft Visual Studio\2022\Community\VC\Tools\MSVC\14.43.34808\include\vector
; File D:\Program Files\Microsoft Visual Studio\2022\Community\VC\Tools\MSVC\14.43.34808\include\xmemory
; File D:\Program Files\Microsoft Visual Studio\2022\Community\VC\Tools\MSVC\14.43.34808\include\vector
;	COMDAT ??1?$vector@V?$CRef@VCGrannyMaterial@@@@V?$allocator@V?$CRef@VCGrannyMaterial@@@@@std@@@std@@QAE@XZ
_TEXT	SEGMENT
??1?$vector@V?$CRef@VCGrannyMaterial@@@@V?$allocator@V?$CRef@VCGrannyMaterial@@@@@std@@@std@@QAE@XZ PROC ; std::vector<CRef<CGrannyMaterial>,std::allocator<CRef<CGrannyMaterial> > >::~vector<CRef<CGrannyMaterial>,std::allocator<CRef<CGrannyMaterial> > >, COMDAT
; _this$ = ecx

; 814  :     _CONSTEXPR20 ~vector() noexcept {

  00000	56		 push	 esi
  00001	8b f1		 mov	 esi, ecx

; 2075 :         if (_Myfirst) { // destroy and deallocate old array

  00003	8b 06		 mov	 eax, DWORD PTR [esi]
  00005	85 c0		 test	 eax, eax
  00007	74 4f		 je	 SHORT $LN5@vector

; 2076 :             _STD _Destroy_range(_Myfirst, _Mylast, _Al);

  00009	56		 push	 esi
  0000a	ff 76 04	 push	 DWORD PTR [esi+4]
  0000d	50		 push	 eax
  0000e	e8 00 00 00 00	 call	 ??$_Destroy_range@V?$allocator@V?$CRef@VCGrannyMaterial@@@@@std@@@std@@YAXPAV?$CRef@VCGrannyMaterial@@@@QAV1@AAV?$allocator@V?$CRef@VCGrannyMaterial@@@@@0@@Z ; std::_Destroy_range<std::allocator<CRef<CGrannyMaterial> > >

; 2077 :             _ASAN_VECTOR_REMOVE;
; 2078 :             _Al.deallocate(_Myfirst, static_cast<size_type>(_Myend - _Myfirst));

  00013	8b 4e 08	 mov	 ecx, DWORD PTR [esi+8]
  00016	83 c4 0c	 add	 esp, 12			; 0000000cH
  00019	8b 06		 mov	 eax, DWORD PTR [esi]
  0001b	2b c8		 sub	 ecx, eax
; File D:\Program Files\Microsoft Visual Studio\2022\Community\VC\Tools\MSVC\14.43.34808\include\xmemory

; 981  :         _STD _Deallocate<_New_alignof<_Ty>>(_Ptr, sizeof(_Ty) * _Count);

  0001d	83 e1 fc	 and	 ecx, -4			; fffffffcH

; 284  :         if (_Bytes >= _Big_allocation_threshold) {

  00020	81 f9 00 10 00
	00		 cmp	 ecx, 4096		; 00001000H
  00026	72 12		 jb	 SHORT $LN24@vector

; 205  :     const uintptr_t _Ptr_container   = _Ptr_user[-1];

  00028	8b 50 fc	 mov	 edx, DWORD PTR [eax-4]
  0002b	83 c1 23	 add	 ecx, 35			; 00000023H

; 206  : 
; 207  :     // If the following asserts, it likely means that we are performing
; 208  :     // an aligned delete on memory coming from an unaligned allocation.
; 209  :     _STL_ASSERT(_Ptr_user[-2] == _Big_allocation_sentinel, "invalid argument");
; 210  : 
; 211  :     // Extra paranoia on aligned allocation/deallocation; ensure _Ptr_container is
; 212  :     // in range [_Min_back_shift, _Non_user_size]
; 213  : #ifdef _DEBUG
; 214  :     constexpr uintptr_t _Min_back_shift = 2 * sizeof(void*);
; 215  : #else // ^^^ defined(_DEBUG) / !defined(_DEBUG) vvv
; 216  :     constexpr uintptr_t _Min_back_shift = sizeof(void*);
; 217  : #endif // ^^^ !defined(_DEBUG) ^^^
; 218  :     const uintptr_t _Back_shift = reinterpret_cast<uintptr_t>(_Ptr) - _Ptr_container;

  0002e	2b c2		 sub	 eax, edx

; 219  :     _STL_VERIFY(_Back_shift >= _Min_back_shift && _Back_shift <= _Non_user_size, "invalid argument");

  00030	83 c0 fc	 add	 eax, -4			; fffffffcH
  00033	83 f8 1f	 cmp	 eax, 31			; 0000001fH
  00036	77 22		 ja	 SHORT $LN21@vector

; 220  :     _Ptr = reinterpret_cast<void*>(_Ptr_container);

  00038	8b c2		 mov	 eax, edx
$LN24@vector:

; 289  :         ::operator delete(_Ptr, _Bytes);

  0003a	51		 push	 ecx
  0003b	50		 push	 eax
  0003c	e8 00 00 00 00	 call	 ??3@YAXPAXI@Z		; operator delete
; File D:\Program Files\Microsoft Visual Studio\2022\Community\VC\Tools\MSVC\14.43.34808\include\vector

; 2080 :             _Myfirst = nullptr;

  00041	c7 06 00 00 00
	00		 mov	 DWORD PTR [esi], 0
; File D:\Program Files\Microsoft Visual Studio\2022\Community\VC\Tools\MSVC\14.43.34808\include\xmemory

; 289  :         ::operator delete(_Ptr, _Bytes);

  00047	83 c4 08	 add	 esp, 8
; File D:\Program Files\Microsoft Visual Studio\2022\Community\VC\Tools\MSVC\14.43.34808\include\vector

; 2081 :             _Mylast  = nullptr;

  0004a	c7 46 04 00 00
	00 00		 mov	 DWORD PTR [esi+4], 0

; 2082 :             _Myend   = nullptr;

  00051	c7 46 08 00 00
	00 00		 mov	 DWORD PTR [esi+8], 0
$LN5@vector:
  00058	5e		 pop	 esi

; 820  :     }

  00059	c3		 ret	 0
$LN21@vector:
; File D:\Program Files\Microsoft Visual Studio\2022\Community\VC\Tools\MSVC\14.43.34808\include\xmemory

; 219  :     _STL_VERIFY(_Back_shift >= _Min_back_shift && _Back_shift <= _Non_user_size, "invalid argument");

  0005a	e8 00 00 00 00	 call	 __invalid_parameter_noinfo_noreturn
$LN32@vector:
  0005f	cc		 int	 3
??1?$vector@V?$CRef@VCGrannyMaterial@@@@V?$allocator@V?$CRef@VCGrannyMaterial@@@@@std@@@std@@QAE@XZ ENDP ; std::vector<CRef<CGrannyMaterial>,std::allocator<CRef<CGrannyMaterial> > >::~vector<CRef<CGrannyMaterial>,std::allocator<CRef<CGrannyMaterial> > >
_TEXT	ENDS
; Function compile flags: /Ogtp
; File C:\Marty 5.5\Src-Client\Client\eterGrnLib\Material.cpp
; File D:\Program Files\Microsoft Visual Studio\2022\Community\VC\Tools\MSVC\14.43.34808\include\vector
; File C:\Marty 5.5\Src-Client\Client\eterGrnLib\Material.cpp
;	COMDAT ?GetMaterialCount@CGrannyMaterialPalette@@QBEKXZ
_TEXT	SEGMENT
?GetMaterialCount@CGrannyMaterialPalette@@QBEKXZ PROC	; CGrannyMaterialPalette::GetMaterialCount, COMDAT
; _this$ = ecx
; File D:\Program Files\Microsoft Visual Studio\2022\Community\VC\Tools\MSVC\14.43.34808\include\vector

; 1900 :         return static_cast<size_type>(_My_data._Mylast - _My_data._Myfirst);

  00000	8b 41 08	 mov	 eax, DWORD PTR [ecx+8]
  00003	2b 41 04	 sub	 eax, DWORD PTR [ecx+4]
  00006	c1 f8 02	 sar	 eax, 2
; File C:\Marty 5.5\Src-Client\Client\eterGrnLib\Material.cpp

; 532  : }

  00009	c3		 ret	 0
?GetMaterialCount@CGrannyMaterialPalette@@QBEKXZ ENDP	; CGrannyMaterialPalette::GetMaterialCount
_TEXT	ENDS
; Function compile flags: /Ogtp
; File C:\Marty 5.5\Src-Client\Client\eterGrnLib\Material.cpp
;	COMDAT ?GetMaterialRef@CGrannyMaterialPalette@@QAEAAVCGrannyMaterial@@K@Z
_TEXT	SEGMENT
_mtrlIndex$ = 8						; size = 4
?GetMaterialRef@CGrannyMaterialPalette@@QAEAAVCGrannyMaterial@@K@Z PROC ; CGrannyMaterialPalette::GetMaterialRef, COMDAT
; _this$ = ecx

; 424  : {

  00000	55		 push	 ebp
  00001	8b ec		 mov	 ebp, esp

; 425  : 	assert(mtrlIndex<m_mtrlVector.size());
; 426  : 	return *m_mtrlVector[mtrlIndex].GetPointer();

  00003	8b 49 04	 mov	 ecx, DWORD PTR [ecx+4]
  00006	8b 45 08	 mov	 eax, DWORD PTR _mtrlIndex$[ebp]
  00009	8b 04 81	 mov	 eax, DWORD PTR [ecx+eax*4]

; 427  : }

  0000c	5d		 pop	 ebp
  0000d	c2 04 00	 ret	 4
?GetMaterialRef@CGrannyMaterialPalette@@QAEAAVCGrannyMaterial@@K@Z ENDP ; CGrannyMaterialPalette::GetMaterialRef
_TEXT	ENDS
; Function compile flags: /Ogtp
; File C:\Marty 5.5\Src-Client\Client\eterGrnLib\Material.cpp
; File D:\Program Files\Microsoft Visual Studio\2022\Community\VC\Tools\MSVC\14.43.34808\include\vector
; File C:\Marty 5.5\Src-Client\Client\eterGrnLib\Material.cpp
; File D:\Program Files\Microsoft Visual Studio\2022\Community\VC\Tools\MSVC\14.43.34808\include\vector
; File C:\Marty 5.5\Src-Client\Client\eterGrnLib\Material.cpp
; File D:\Program Files\Microsoft Visual Studio\2022\Community\VC\Tools\MSVC\14.43.34808\include\vector
; File C:\Marty 5.5\Src-Client\Client\eterGrnLib\Material.cpp
;	COMDAT ?SetSpecularInfo@CGrannyMaterialPalette@@QAEXPBDHM@Z
_TEXT	SEGMENT
_iStage$1 = -8						; size = 4
tv190 = -4						; size = 4
_c_szMtrlName$ = 8					; size = 4
_bEnable$ = 12						; size = 4
_fPower$ = 16						; size = 4
?SetSpecularInfo@CGrannyMaterialPalette@@QAEXPBDHM@Z PROC ; CGrannyMaterialPalette::SetSpecularInfo, COMDAT
; _this$ = ecx

; 484  : {

  00000	55		 push	 ebp
  00001	8b ec		 mov	 ebp, esp
  00003	83 ec 08	 sub	 esp, 8
  00006	53		 push	 ebx
  00007	8b d9		 mov	 ebx, ecx

; 487  : 	if (c_szMtrlName)

  00009	8b 4d 08	 mov	 ecx, DWORD PTR _c_szMtrlName$[ebp]
  0000c	56		 push	 esi
  0000d	57		 push	 edi
  0000e	33 f6		 xor	 esi, esi
; File D:\Program Files\Microsoft Visual Studio\2022\Community\VC\Tools\MSVC\14.43.34808\include\vector

; 1900 :         return static_cast<size_type>(_My_data._Mylast - _My_data._Myfirst);

  00010	8b 7b 08	 mov	 edi, DWORD PTR [ebx+8]
  00013	2b 7b 04	 sub	 edi, DWORD PTR [ebx+4]
  00016	c1 ff 02	 sar	 edi, 2
; File C:\Marty 5.5\Src-Client\Client\eterGrnLib\Material.cpp

; 487  : 	if (c_szMtrlName)

  00019	85 c9		 test	 ecx, ecx
  0001b	74 50		 je	 SHORT $LN8@SetSpecula

; 488  : 	{
; 489  : 		for (i=0; i<size; ++i)

  0001d	85 ff		 test	 edi, edi
  0001f	74 70		 je	 SHORT $LN6@SetSpecula
$LL4@SetSpecula:
; File D:\Program Files\Microsoft Visual Studio\2022\Community\VC\Tools\MSVC\14.43.34808\include\vector

; 1919 :         return _My_data._Myfirst[_Pos];

  00021	8b 43 04	 mov	 eax, DWORD PTR [ebx+4]
; File C:\Marty 5.5\Src-Client\Client\eterGrnLib\Material.cpp

; 494  : 			if (roMtrl->IsIn(c_szMtrlName, &iStage))

  00024	8d 55 f8	 lea	 edx, DWORD PTR _iStage$1[ebp]
  00027	52		 push	 edx
  00028	51		 push	 ecx
; File D:\Program Files\Microsoft Visual Studio\2022\Community\VC\Tools\MSVC\14.43.34808\include\vector

; 1919 :         return _My_data._Myfirst[_Pos];

  00029	89 45 fc	 mov	 DWORD PTR tv190[ebp], eax
; File C:\Marty 5.5\Src-Client\Client\eterGrnLib\Material.cpp

; 494  : 			if (roMtrl->IsIn(c_szMtrlName, &iStage))

  0002c	8b 0c b0	 mov	 ecx, DWORD PTR [eax+esi*4]
  0002f	e8 00 00 00 00	 call	 ?IsIn@CGrannyMaterial@@QAE_NPBDPAH@Z ; CGrannyMaterial::IsIn
  00034	84 c0		 test	 al, al
  00036	75 11		 jne	 SHORT $LN23@SetSpecula

; 488  : 	{
; 489  : 		for (i=0; i<size; ++i)

  00038	8b 4d 08	 mov	 ecx, DWORD PTR _c_szMtrlName$[ebp]
  0003b	46		 inc	 esi
  0003c	3b f7		 cmp	 esi, edi
  0003e	72 e1		 jb	 SHORT $LL4@SetSpecula

; 507  : 		}
; 508  : 	}
; 509  : }

  00040	5f		 pop	 edi
  00041	5e		 pop	 esi
  00042	5b		 pop	 ebx
  00043	8b e5		 mov	 esp, ebp
  00045	5d		 pop	 ebp
  00046	c2 0c 00	 ret	 12			; 0000000cH
$LN23@SetSpecula:

; 495  : 			{
; 496  : 				roMtrl->SetSpecularInfo(bEnable, fPower, 0);

  00049	f3 0f 10 45 10	 movss	 xmm0, DWORD PTR _fPower$[ebp]
  0004e	6a 00		 push	 0
  00050	51		 push	 ecx
  00051	8b 4d fc	 mov	 ecx, DWORD PTR tv190[ebp]
  00054	f3 0f 11 04 24	 movss	 DWORD PTR [esp], xmm0
  00059	ff 75 0c	 push	 DWORD PTR _bEnable$[ebp]
  0005c	8b 0c b1	 mov	 ecx, DWORD PTR [ecx+esi*4]
  0005f	e8 00 00 00 00	 call	 ?SetSpecularInfo@CGrannyMaterial@@QAEXHME@Z ; CGrannyMaterial::SetSpecularInfo
  00064	5f		 pop	 edi

; 507  : 		}
; 508  : 	}
; 509  : }

  00065	5e		 pop	 esi
  00066	5b		 pop	 ebx
  00067	8b e5		 mov	 esp, ebp
  00069	5d		 pop	 ebp
  0006a	c2 0c 00	 ret	 12			; 0000000cH
$LN8@SetSpecula:

; 497  : 				return;
; 498  : 			}
; 499  : 		}
; 500  : 	}
; 501  : 	else
; 502  : 	{
; 503  : 		for (i=0; i<size; ++i)

  0006d	85 ff		 test	 edi, edi
  0006f	74 20		 je	 SHORT $LN6@SetSpecula
$LL7@SetSpecula:

; 504  : 		{
; 505  : 			CGrannyMaterial::TRef& roMtrl=m_mtrlVector[i];
; 506  : 			roMtrl->SetSpecularInfo(bEnable, fPower, 0);

  00071	f3 0f 10 45 10	 movss	 xmm0, DWORD PTR _fPower$[ebp]
  00076	6a 00		 push	 0
  00078	51		 push	 ecx
  00079	8b 4b 04	 mov	 ecx, DWORD PTR [ebx+4]
  0007c	f3 0f 11 04 24	 movss	 DWORD PTR [esp], xmm0
  00081	ff 75 0c	 push	 DWORD PTR _bEnable$[ebp]
  00084	8b 0c b1	 mov	 ecx, DWORD PTR [ecx+esi*4]
  00087	e8 00 00 00 00	 call	 ?SetSpecularInfo@CGrannyMaterial@@QAEXHME@Z ; CGrannyMaterial::SetSpecularInfo
  0008c	46		 inc	 esi
  0008d	3b f7		 cmp	 esi, edi
  0008f	72 e0		 jb	 SHORT $LL7@SetSpecula
$LN6@SetSpecula:
  00091	5f		 pop	 edi

; 507  : 		}
; 508  : 	}
; 509  : }

  00092	5e		 pop	 esi
  00093	5b		 pop	 ebx
  00094	8b e5		 mov	 esp, ebp
  00096	5d		 pop	 ebp
  00097	c2 0c 00	 ret	 12			; 0000000cH
?SetSpecularInfo@CGrannyMaterialPalette@@QAEXPBDHM@Z ENDP ; CGrannyMaterialPalette::SetSpecularInfo
_TEXT	ENDS
; Function compile flags: /Ogtp
; File C:\Marty 5.5\Src-Client\Client\eterGrnLib\Material.cpp
; File D:\Program Files\Microsoft Visual Studio\2022\Community\VC\Tools\MSVC\14.43.34808\include\vector
; File C:\Marty 5.5\Src-Client\Client\eterGrnLib\Material.cpp
; File D:\Program Files\Microsoft Visual Studio\2022\Community\VC\Tools\MSVC\14.43.34808\include\vector
; File C:\Marty 5.5\Src-Client\Client\eterGrnLib\Material.cpp
; File C:\Marty 5.5\Src-Client\Client\eterlib\Ref.h
; File C:\Marty 5.5\Src-Client\Client\eterGrnLib\Material.cpp
; File D:\Program Files\Microsoft Visual Studio\2022\Community\VC\Tools\MSVC\14.43.34808\include\vector
; File C:\Marty 5.5\Src-Client\Client\eterGrnLib\Material.cpp
; File D:\Program Files\Microsoft Visual Studio\2022\Community\VC\Tools\MSVC\14.43.34808\include\vector
; File C:\Marty 5.5\Src-Client\Client\eterGrnLib\Material.cpp
;	COMDAT ?SetMaterialData@CGrannyMaterialPalette@@QAEXPBDABUSMaterialData@@@Z
_TEXT	SEGMENT
$T2 = -16						; size = 4
__$EHRec$ = -12						; size = 12
_c_szMtrlName$ = 8					; size = 4
_iStage$3 = 8						; size = 4
_c_rkMaterialData$ = 12					; size = 4
?SetMaterialData@CGrannyMaterialPalette@@QAEXPBDABUSMaterialData@@@Z PROC ; CGrannyMaterialPalette::SetMaterialData, COMDAT
; _this$ = ecx

; 451  : {

  00000	55		 push	 ebp
  00001	8b ec		 mov	 ebp, esp
  00003	6a ff		 push	 -1
  00005	68 00 00 00 00	 push	 __ehhandler$?SetMaterialData@CGrannyMaterialPalette@@QAEXPBDABUSMaterialData@@@Z
  0000a	64 a1 00 00 00
	00		 mov	 eax, DWORD PTR fs:0
  00010	50		 push	 eax
  00011	51		 push	 ecx
  00012	53		 push	 ebx
  00013	56		 push	 esi
  00014	57		 push	 edi
  00015	a1 00 00 00 00	 mov	 eax, DWORD PTR ___security_cookie
  0001a	33 c5		 xor	 eax, ebp
  0001c	50		 push	 eax
  0001d	8d 45 f4	 lea	 eax, DWORD PTR __$EHRec$[ebp]
  00020	64 a3 00 00 00
	00		 mov	 DWORD PTR fs:0, eax
  00026	8b f9		 mov	 edi, ecx

; 452  : 	if (c_szMtrlName)

  00028	8b 5d 08	 mov	 ebx, DWORD PTR _c_szMtrlName$[ebp]
  0002b	8b 77 04	 mov	 esi, DWORD PTR [edi+4]
  0002e	8b 47 08	 mov	 eax, DWORD PTR [edi+8]
  00031	85 db		 test	 ebx, ebx
  00033	0f 84 c0 00 00
	00		 je	 $LN8@SetMateria
; File D:\Program Files\Microsoft Visual Studio\2022\Community\VC\Tools\MSVC\14.43.34808\include\vector

; 46   :     _CONSTEXPR20 _Vector_const_iterator(_Tptr _Parg, const _Container_base* _Pvector) noexcept : _Ptr(_Parg) {

  00039	3b f0		 cmp	 esi, eax
; File C:\Marty 5.5\Src-Client\Client\eterGrnLib\Material.cpp

; 455  : 		for (i=m_mtrlVector.begin(); i!=m_mtrlVector.end(); ++i)

  0003b	0f 84 e1 00 00
	00		 je	 $LN6@SetMateria
$LL4@SetMateria:

; 456  : 		{
; 457  : 			CGrannyMaterial::TRef& roMtrl=*i;
; 458  : 
; 459  : 			int iStage;
; 460  : 			if (roMtrl->IsIn(c_szMtrlName, &iStage))

  00041	8b 0e		 mov	 ecx, DWORD PTR [esi]
  00043	8d 45 08	 lea	 eax, DWORD PTR _iStage$3[ebp]
  00046	50		 push	 eax
  00047	53		 push	 ebx
  00048	e8 00 00 00 00	 call	 ?IsIn@CGrannyMaterial@@QAE_NPBDPAH@Z ; CGrannyMaterial::IsIn
  0004d	84 c0		 test	 al, al
  0004f	75 1c		 jne	 SHORT $LN95@SetMateria
; File D:\Program Files\Microsoft Visual Studio\2022\Community\VC\Tools\MSVC\14.43.34808\include\vector

; 82   :         ++_Ptr;

  00051	83 c6 04	 add	 esi, 4

; 166  :         return _Ptr == _Right._Ptr;

  00054	3b 77 08	 cmp	 esi, DWORD PTR [edi+8]
; File C:\Marty 5.5\Src-Client\Client\eterGrnLib\Material.cpp

; 455  : 		for (i=m_mtrlVector.begin(); i!=m_mtrlVector.end(); ++i)

  00057	75 e8		 jne	 SHORT $LL4@SetMateria

; 481  : }

  00059	8b 4d f4	 mov	 ecx, DWORD PTR __$EHRec$[ebp]
  0005c	64 89 0d 00 00
	00 00		 mov	 DWORD PTR fs:0, ecx
  00063	59		 pop	 ecx
  00064	5f		 pop	 edi
  00065	5e		 pop	 esi
  00066	5b		 pop	 ebx
  00067	8b e5		 mov	 esp, ebp
  00069	5d		 pop	 ebp
  0006a	c2 08 00	 ret	 8
$LN95@SetMateria:

; 461  : 			{
; 462  : 				CGrannyMaterial* pkNewMtrl=new CGrannyMaterial;

  0006d	6a 38		 push	 56			; 00000038H
  0006f	e8 00 00 00 00	 call	 ??2@YAPAXI@Z		; operator new
  00074	83 c4 04	 add	 esp, 4
  00077	89 45 f0	 mov	 DWORD PTR $T2[ebp], eax
  0007a	c7 45 fc 00 00
	00 00		 mov	 DWORD PTR __$EHRec$[ebp+8], 0
  00081	85 c0		 test	 eax, eax
  00083	74 0b		 je	 SHORT $LN12@SetMateria
  00085	8b c8		 mov	 ecx, eax
  00087	e8 00 00 00 00	 call	 ??0CGrannyMaterial@@QAE@XZ ; CGrannyMaterial::CGrannyMaterial
  0008c	8b d8		 mov	 ebx, eax
  0008e	eb 02		 jmp	 SHORT $LN13@SetMateria
$LN12@SetMateria:
  00090	33 db		 xor	 ebx, ebx
$LN13@SetMateria:

; 463  : 				pkNewMtrl->Copy(*roMtrl.GetPointer());

  00092	ff 36		 push	 DWORD PTR [esi]
  00094	8b cb		 mov	 ecx, ebx
  00096	c7 45 fc ff ff
	ff ff		 mov	 DWORD PTR __$EHRec$[ebp+8], -1
  0009d	e8 00 00 00 00	 call	 ?Copy@CGrannyMaterial@@QAEXAAV1@@Z ; CGrannyMaterial::Copy

; 464  : 				pkNewMtrl->SetImagePointer(iStage, c_rkMaterialData.pImage);

  000a2	8b 7d 0c	 mov	 edi, DWORD PTR _c_rkMaterialData$[ebp]
  000a5	8b cb		 mov	 ecx, ebx
  000a7	ff 37		 push	 DWORD PTR [edi]
  000a9	ff 75 08	 push	 DWORD PTR _iStage$3[ebp]
  000ac	e8 00 00 00 00	 call	 ?SetImagePointer@CGrannyMaterial@@QAEXHPAVCGraphicImage@@@Z ; CGrannyMaterial::SetImagePointer

; 465  : 				pkNewMtrl->SetSpecularInfo(c_rkMaterialData.isSpecularEnable, c_rkMaterialData.fSpecularPower, c_rkMaterialData.bSphereMapIndex);

  000b1	0f b6 47 0c	 movzx	 eax, BYTE PTR [edi+12]
  000b5	f3 0f 10 47 04	 movss	 xmm0, DWORD PTR [edi+4]
  000ba	50		 push	 eax
  000bb	51		 push	 ecx
  000bc	f3 0f 11 04 24	 movss	 DWORD PTR [esp], xmm0
  000c1	8b cb		 mov	 ecx, ebx
  000c3	ff 77 08	 push	 DWORD PTR [edi+8]
  000c6	e8 00 00 00 00	 call	 ?SetSpecularInfo@CGrannyMaterial@@QAEXHME@Z ; CGrannyMaterial::SetSpecularInfo
; File C:\Marty 5.5\Src-Client\Client\eterlib\Ref.h

; 67   : 			CReferenceObject* pOldObject = m_pObject;

  000cb	8b 3e		 mov	 edi, DWORD PTR [esi]

; 68   : 
; 69   : 			m_pObject = pObject;

  000cd	89 1e		 mov	 DWORD PTR [esi], ebx

; 70   : 
; 71   : 			if (m_pObject)

  000cf	85 db		 test	 ebx, ebx
  000d1	74 07		 je	 SHORT $LN60@SetMateria

; 72   : 				m_pObject->AddReference();

  000d3	8b cb		 mov	 ecx, ebx
  000d5	e8 00 00 00 00	 call	 ?AddReference@CReferenceObject@@QAEXXZ ; CReferenceObject::AddReference
$LN60@SetMateria:

; 73   : 
; 74   : 			if (pOldObject)

  000da	85 ff		 test	 edi, edi
  000dc	74 44		 je	 SHORT $LN6@SetMateria

; 75   : 				pOldObject->Release();

  000de	8b cf		 mov	 ecx, edi
  000e0	e8 00 00 00 00	 call	 ?Release@CReferenceObject@@QAEXXZ ; CReferenceObject::Release
; File C:\Marty 5.5\Src-Client\Client\eterGrnLib\Material.cpp

; 481  : }

  000e5	8b 4d f4	 mov	 ecx, DWORD PTR __$EHRec$[ebp]
  000e8	64 89 0d 00 00
	00 00		 mov	 DWORD PTR fs:0, ecx
  000ef	59		 pop	 ecx
  000f0	5f		 pop	 edi
  000f1	5e		 pop	 esi
  000f2	5b		 pop	 ebx
  000f3	8b e5		 mov	 esp, ebp
  000f5	5d		 pop	 ebp
  000f6	c2 08 00	 ret	 8
$LN8@SetMateria:
; File D:\Program Files\Microsoft Visual Studio\2022\Community\VC\Tools\MSVC\14.43.34808\include\vector

; 46   :     _CONSTEXPR20 _Vector_const_iterator(_Tptr _Parg, const _Container_base* _Pvector) noexcept : _Ptr(_Parg) {

  000f9	3b f0		 cmp	 esi, eax
; File C:\Marty 5.5\Src-Client\Client\eterGrnLib\Material.cpp

; 475  : 		for (i=m_mtrlVector.begin(); i!=m_mtrlVector.end(); ++i)

  000fb	74 25		 je	 SHORT $LN6@SetMateria
  000fd	8b 5d 0c	 mov	 ebx, DWORD PTR _c_rkMaterialData$[ebp]
$LL7@SetMateria:

; 476  : 		{
; 477  : 			CGrannyMaterial::TRef& roMtrl=*i;
; 478  : 			roMtrl->SetSpecularInfo(c_rkMaterialData.isSpecularEnable, c_rkMaterialData.fSpecularPower, c_rkMaterialData.bSphereMapIndex);

  00100	0f b6 43 0c	 movzx	 eax, BYTE PTR [ebx+12]
  00104	f3 0f 10 43 04	 movss	 xmm0, DWORD PTR [ebx+4]
  00109	50		 push	 eax
  0010a	51		 push	 ecx
  0010b	8b 0e		 mov	 ecx, DWORD PTR [esi]
  0010d	f3 0f 11 04 24	 movss	 DWORD PTR [esp], xmm0
  00112	ff 73 08	 push	 DWORD PTR [ebx+8]
  00115	e8 00 00 00 00	 call	 ?SetSpecularInfo@CGrannyMaterial@@QAEXHME@Z ; CGrannyMaterial::SetSpecularInfo
; File D:\Program Files\Microsoft Visual Studio\2022\Community\VC\Tools\MSVC\14.43.34808\include\vector

; 82   :         ++_Ptr;

  0011a	83 c6 04	 add	 esi, 4

; 166  :         return _Ptr == _Right._Ptr;

  0011d	3b 77 08	 cmp	 esi, DWORD PTR [edi+8]
; File C:\Marty 5.5\Src-Client\Client\eterGrnLib\Material.cpp

; 475  : 		for (i=m_mtrlVector.begin(); i!=m_mtrlVector.end(); ++i)

  00120	75 de		 jne	 SHORT $LL7@SetMateria
$LN6@SetMateria:

; 481  : }

  00122	8b 4d f4	 mov	 ecx, DWORD PTR __$EHRec$[ebp]
  00125	64 89 0d 00 00
	00 00		 mov	 DWORD PTR fs:0, ecx
  0012c	59		 pop	 ecx
  0012d	5f		 pop	 edi
  0012e	5e		 pop	 esi
  0012f	5b		 pop	 ebx
  00130	8b e5		 mov	 esp, ebp
  00132	5d		 pop	 ebp
  00133	c2 08 00	 ret	 8
_TEXT	ENDS
;	COMDAT text$x
text$x	SEGMENT
__unwindfunclet$?SetMaterialData@CGrannyMaterialPalette@@QAEXPBDABUSMaterialData@@@Z$0:
  00000	6a 38		 push	 56			; 00000038H
  00002	8b 45 f0	 mov	 eax, DWORD PTR $T2[ebp]
  00005	50		 push	 eax
  00006	e8 00 00 00 00	 call	 ??3@YAXPAXI@Z		; operator delete
  0000b	83 c4 08	 add	 esp, 8
  0000e	c3		 ret	 0
  0000f	cc		 int	 3
  00010	cc		 int	 3
  00011	cc		 int	 3
  00012	cc		 int	 3
  00013	cc		 int	 3
__ehhandler$?SetMaterialData@CGrannyMaterialPalette@@QAEXPBDABUSMaterialData@@@Z:
  00014	90		 npad	 1
  00015	90		 npad	 1
  00016	8b 54 24 08	 mov	 edx, DWORD PTR [esp+8]
  0001a	8d 42 0c	 lea	 eax, DWORD PTR [edx+12]
  0001d	8b 4a ec	 mov	 ecx, DWORD PTR [edx-20]
  00020	33 c8		 xor	 ecx, eax
  00022	e8 00 00 00 00	 call	 @__security_check_cookie@4
  00027	b8 00 00 00 00	 mov	 eax, OFFSET __ehfuncinfo$?SetMaterialData@CGrannyMaterialPalette@@QAEXPBDABUSMaterialData@@@Z
  0002c	e9 00 00 00 00	 jmp	 ___CxxFrameHandler3
text$x	ENDS
?SetMaterialData@CGrannyMaterialPalette@@QAEXPBDABUSMaterialData@@@Z ENDP ; CGrannyMaterialPalette::SetMaterialData
; Function compile flags: /Ogtp
; File C:\Marty 5.5\Src-Client\Client\eterGrnLib\Material.cpp
; File D:\Program Files\Microsoft Visual Studio\2022\Community\VC\Tools\MSVC\14.43.34808\include\vector
; File C:\Marty 5.5\Src-Client\Client\eterGrnLib\Material.cpp
; File D:\Program Files\Microsoft Visual Studio\2022\Community\VC\Tools\MSVC\14.43.34808\include\vector
; File C:\Marty 5.5\Src-Client\Client\eterGrnLib\Material.cpp
; File D:\Program Files\Microsoft Visual Studio\2022\Community\VC\Tools\MSVC\14.43.34808\include\vector
; File C:\Marty 5.5\Src-Client\Client\eterGrnLib\Material.cpp
; File D:\Program Files\Microsoft Visual Studio\2022\Community\VC\Tools\MSVC\14.43.34808\include\vector
; File C:\Marty 5.5\Src-Client\Client\eterGrnLib\Material.cpp
; File C:\Marty 5.5\Src-Client\Client\eterlib\Ref.h
; File C:\Marty 5.5\Src-Client\Client\eterGrnLib\Material.cpp
;	COMDAT ?SetMaterialImagePointer@CGrannyMaterialPalette@@QAEXPBDPAVCGraphicImage@@@Z
_TEXT	SEGMENT
_iStage$2 = -20						; size = 4
_this$1$ = -16						; size = 4
__$EHRec$ = -12						; size = 12
_c_szImageName$ = 8					; size = 4
$T3 = 8							; size = 4
_pImage$ = 12						; size = 4
?SetMaterialImagePointer@CGrannyMaterialPalette@@QAEXPBDPAVCGraphicImage@@@Z PROC ; CGrannyMaterialPalette::SetMaterialImagePointer, COMDAT
; _this$ = ecx

; 430  : {

  00000	55		 push	 ebp
  00001	8b ec		 mov	 ebp, esp
  00003	6a ff		 push	 -1
  00005	68 00 00 00 00	 push	 __ehhandler$?SetMaterialImagePointer@CGrannyMaterialPalette@@QAEXPBDPAVCGraphicImage@@@Z
  0000a	64 a1 00 00 00
	00		 mov	 eax, DWORD PTR fs:0
  00010	50		 push	 eax
  00011	83 ec 08	 sub	 esp, 8
  00014	53		 push	 ebx
  00015	56		 push	 esi
  00016	57		 push	 edi
  00017	a1 00 00 00 00	 mov	 eax, DWORD PTR ___security_cookie
  0001c	33 c5		 xor	 eax, ebp
  0001e	50		 push	 eax
  0001f	8d 45 f4	 lea	 eax, DWORD PTR __$EHRec$[ebp]
  00022	64 a3 00 00 00
	00		 mov	 DWORD PTR fs:0, eax
  00028	8b c1		 mov	 eax, ecx
  0002a	89 45 f0	 mov	 DWORD PTR _this$1$[ebp], eax
; File D:\Program Files\Microsoft Visual Studio\2022\Community\VC\Tools\MSVC\14.43.34808\include\vector

; 1900 :         return static_cast<size_type>(_My_data._Mylast - _My_data._Myfirst);

  0002d	8b 78 08	 mov	 edi, DWORD PTR [eax+8]
; File C:\Marty 5.5\Src-Client\Client\eterGrnLib\Material.cpp

; 433  : 	for (i=0; i<size; ++i)

  00030	33 f6		 xor	 esi, esi
; File D:\Program Files\Microsoft Visual Studio\2022\Community\VC\Tools\MSVC\14.43.34808\include\vector

; 1900 :         return static_cast<size_type>(_My_data._Mylast - _My_data._Myfirst);

  00032	2b 78 04	 sub	 edi, DWORD PTR [eax+4]
  00035	c1 ff 02	 sar	 edi, 2
; File C:\Marty 5.5\Src-Client\Client\eterGrnLib\Material.cpp

; 433  : 	for (i=0; i<size; ++i)

  00038	85 ff		 test	 edi, edi
  0003a	0f 84 91 00 00
	00		 je	 $LN20@SetMateria
$LL4@SetMateria:
; File D:\Program Files\Microsoft Visual Studio\2022\Community\VC\Tools\MSVC\14.43.34808\include\vector

; 1919 :         return _My_data._Myfirst[_Pos];

  00040	8b 40 04	 mov	 eax, DWORD PTR [eax+4]
; File C:\Marty 5.5\Src-Client\Client\eterGrnLib\Material.cpp

; 438  : 		if (roMtrl->IsIn(c_szImageName, &iStage))

  00043	8b 0c b0	 mov	 ecx, DWORD PTR [eax+esi*4]
; File D:\Program Files\Microsoft Visual Studio\2022\Community\VC\Tools\MSVC\14.43.34808\include\vector

; 1919 :         return _My_data._Myfirst[_Pos];

  00046	8d 1c b0	 lea	 ebx, DWORD PTR [eax+esi*4]
; File C:\Marty 5.5\Src-Client\Client\eterGrnLib\Material.cpp

; 438  : 		if (roMtrl->IsIn(c_szImageName, &iStage))

  00049	8d 45 ec	 lea	 eax, DWORD PTR _iStage$2[ebp]
  0004c	50		 push	 eax
  0004d	ff 75 08	 push	 DWORD PTR _c_szImageName$[ebp]
  00050	e8 00 00 00 00	 call	 ?IsIn@CGrannyMaterial@@QAE_NPBDPAH@Z ; CGrannyMaterial::IsIn
  00055	84 c0		 test	 al, al
  00057	75 1c		 jne	 SHORT $LN23@SetMateria

; 433  : 	for (i=0; i<size; ++i)

  00059	8b 45 f0	 mov	 eax, DWORD PTR _this$1$[ebp]
  0005c	46		 inc	 esi
  0005d	3b f7		 cmp	 esi, edi
  0005f	72 df		 jb	 SHORT $LL4@SetMateria

; 448  : }

  00061	8b 4d f4	 mov	 ecx, DWORD PTR __$EHRec$[ebp]
  00064	64 89 0d 00 00
	00 00		 mov	 DWORD PTR fs:0, ecx
  0006b	59		 pop	 ecx
  0006c	5f		 pop	 edi
  0006d	5e		 pop	 esi
  0006e	5b		 pop	 ebx
  0006f	8b e5		 mov	 esp, ebp
  00071	5d		 pop	 ebp
  00072	c2 08 00	 ret	 8
$LN23@SetMateria:

; 439  : 		{
; 440  : 			CGrannyMaterial* pkNewMtrl=new CGrannyMaterial;

  00075	6a 38		 push	 56			; 00000038H
  00077	e8 00 00 00 00	 call	 ??2@YAPAXI@Z		; operator new
  0007c	83 c4 04	 add	 esp, 4
  0007f	89 45 08	 mov	 DWORD PTR $T3[ebp], eax
  00082	c7 45 fc 00 00
	00 00		 mov	 DWORD PTR __$EHRec$[ebp+8], 0
  00089	85 c0		 test	 eax, eax
  0008b	74 0b		 je	 SHORT $LN7@SetMateria
  0008d	8b c8		 mov	 ecx, eax
  0008f	e8 00 00 00 00	 call	 ??0CGrannyMaterial@@QAE@XZ ; CGrannyMaterial::CGrannyMaterial
  00094	8b f0		 mov	 esi, eax
  00096	eb 02		 jmp	 SHORT $LN8@SetMateria
$LN7@SetMateria:
  00098	33 f6		 xor	 esi, esi
$LN8@SetMateria:

; 441  : 			pkNewMtrl->Copy(*roMtrl.GetPointer());

  0009a	ff 33		 push	 DWORD PTR [ebx]
  0009c	8b ce		 mov	 ecx, esi
  0009e	c7 45 fc ff ff
	ff ff		 mov	 DWORD PTR __$EHRec$[ebp+8], -1
  000a5	e8 00 00 00 00	 call	 ?Copy@CGrannyMaterial@@QAEXAAV1@@Z ; CGrannyMaterial::Copy

; 442  : 			pkNewMtrl->SetImagePointer(iStage, pImage);

  000aa	ff 75 0c	 push	 DWORD PTR _pImage$[ebp]
  000ad	8b ce		 mov	 ecx, esi
  000af	ff 75 ec	 push	 DWORD PTR _iStage$2[ebp]
  000b2	e8 00 00 00 00	 call	 ?SetImagePointer@CGrannyMaterial@@QAEXHPAVCGraphicImage@@@Z ; CGrannyMaterial::SetImagePointer
; File C:\Marty 5.5\Src-Client\Client\eterlib\Ref.h

; 67   : 			CReferenceObject* pOldObject = m_pObject;

  000b7	8b 3b		 mov	 edi, DWORD PTR [ebx]

; 68   : 
; 69   : 			m_pObject = pObject;

  000b9	89 33		 mov	 DWORD PTR [ebx], esi

; 70   : 
; 71   : 			if (m_pObject)

  000bb	85 f6		 test	 esi, esi
  000bd	74 07		 je	 SHORT $LN19@SetMateria

; 72   : 				m_pObject->AddReference();

  000bf	8b ce		 mov	 ecx, esi
  000c1	e8 00 00 00 00	 call	 ?AddReference@CReferenceObject@@QAEXXZ ; CReferenceObject::AddReference
$LN19@SetMateria:

; 73   : 
; 74   : 			if (pOldObject)

  000c6	85 ff		 test	 edi, edi
  000c8	74 07		 je	 SHORT $LN20@SetMateria

; 75   : 				pOldObject->Release();

  000ca	8b cf		 mov	 ecx, edi
  000cc	e8 00 00 00 00	 call	 ?Release@CReferenceObject@@QAEXXZ ; CReferenceObject::Release
$LN20@SetMateria:
; File C:\Marty 5.5\Src-Client\Client\eterGrnLib\Material.cpp

; 448  : }

  000d1	8b 4d f4	 mov	 ecx, DWORD PTR __$EHRec$[ebp]
  000d4	64 89 0d 00 00
	00 00		 mov	 DWORD PTR fs:0, ecx
  000db	59		 pop	 ecx
  000dc	5f		 pop	 edi
  000dd	5e		 pop	 esi
  000de	5b		 pop	 ebx
  000df	8b e5		 mov	 esp, ebp
  000e1	5d		 pop	 ebp
  000e2	c2 08 00	 ret	 8
_TEXT	ENDS
;	COMDAT text$x
text$x	SEGMENT
__unwindfunclet$?SetMaterialImagePointer@CGrannyMaterialPalette@@QAEXPBDPAVCGraphicImage@@@Z$0:
  00000	6a 38		 push	 56			; 00000038H
  00002	8b 45 08	 mov	 eax, DWORD PTR $T3[ebp]
  00005	50		 push	 eax
  00006	e8 00 00 00 00	 call	 ??3@YAXPAXI@Z		; operator delete
  0000b	83 c4 08	 add	 esp, 8
  0000e	c3		 ret	 0
  0000f	cc		 int	 3
  00010	cc		 int	 3
  00011	cc		 int	 3
  00012	cc		 int	 3
  00013	cc		 int	 3
__ehhandler$?SetMaterialImagePointer@CGrannyMaterialPalette@@QAEXPBDPAVCGraphicImage@@@Z:
  00014	90		 npad	 1
  00015	90		 npad	 1
  00016	8b 54 24 08	 mov	 edx, DWORD PTR [esp+8]
  0001a	8d 42 0c	 lea	 eax, DWORD PTR [edx+12]
  0001d	8b 4a e8	 mov	 ecx, DWORD PTR [edx-24]
  00020	33 c8		 xor	 ecx, eax
  00022	e8 00 00 00 00	 call	 @__security_check_cookie@4
  00027	b8 00 00 00 00	 mov	 eax, OFFSET __ehfuncinfo$?SetMaterialImagePointer@CGrannyMaterialPalette@@QAEXPBDPAVCGraphicImage@@@Z
  0002c	e9 00 00 00 00	 jmp	 ___CxxFrameHandler3
text$x	ENDS
?SetMaterialImagePointer@CGrannyMaterialPalette@@QAEXPBDPAVCGraphicImage@@@Z ENDP ; CGrannyMaterialPalette::SetMaterialImagePointer
; Function compile flags: /Ogtp
; File C:\Marty 5.5\Src-Client\Client\eterGrnLib\Material.cpp
; File D:\Program Files\Microsoft Visual Studio\2022\Community\VC\Tools\MSVC\14.43.34808\include\vector
; File C:\Marty 5.5\Src-Client\Client\eterGrnLib\Material.cpp
; File D:\Program Files\Microsoft Visual Studio\2022\Community\VC\Tools\MSVC\14.43.34808\include\vector
; File C:\Marty 5.5\Src-Client\Client\eterGrnLib\Material.cpp
; File C:\Marty 5.5\Src-Client\Client\eterlib\Ref.h
; File D:\Program Files\Microsoft Visual Studio\2022\Community\VC\Tools\MSVC\14.43.34808\include\vector
; File C:\Marty 5.5\Src-Client\Client\eterGrnLib\Material.cpp
; File D:\Program Files\Microsoft Visual Studio\2022\Community\VC\Tools\MSVC\14.43.34808\include\vector
; File C:\Marty 5.5\Src-Client\Client\eterlib\Ref.h
; File D:\Program Files\Microsoft Visual Studio\2022\Community\VC\Tools\MSVC\14.43.34808\include\vector
; File C:\Marty 5.5\Src-Client\Client\eterlib\Ref.h
; File C:\Marty 5.5\Src-Client\Client\eterGrnLib\Material.cpp
;	COMDAT ?RegisterMaterial@CGrannyMaterialPalette@@QAEKPAUgranny_material@@@Z
_TEXT	SEGMENT
$T2 = -20						; size = 4
_this$1$ = -16						; size = 4
__$EHRec$ = -12						; size = 12
_pgrnMaterial$ = 8					; size = 4
$T3 = 8							; size = 4
?RegisterMaterial@CGrannyMaterialPalette@@QAEKPAUgranny_material@@@Z PROC ; CGrannyMaterialPalette::RegisterMaterial, COMDAT
; _this$ = ecx

; 512  : {

  00000	55		 push	 ebp
  00001	8b ec		 mov	 ebp, esp
  00003	6a ff		 push	 -1
  00005	68 00 00 00 00	 push	 __ehhandler$?RegisterMaterial@CGrannyMaterialPalette@@QAEKPAUgranny_material@@@Z
  0000a	64 a1 00 00 00
	00		 mov	 eax, DWORD PTR fs:0
  00010	50		 push	 eax
  00011	83 ec 08	 sub	 esp, 8
  00014	53		 push	 ebx
  00015	56		 push	 esi
  00016	57		 push	 edi
  00017	a1 00 00 00 00	 mov	 eax, DWORD PTR ___security_cookie
  0001c	33 c5		 xor	 eax, ebp
  0001e	50		 push	 eax
  0001f	8d 45 f4	 lea	 eax, DWORD PTR __$EHRec$[ebp]
  00022	64 a3 00 00 00
	00		 mov	 DWORD PTR fs:0, eax
; File D:\Program Files\Microsoft Visual Studio\2022\Community\VC\Tools\MSVC\14.43.34808\include\vector

; 1900 :         return static_cast<size_type>(_My_data._Mylast - _My_data._Myfirst);

  00028	8b 59 08	 mov	 ebx, DWORD PTR [ecx+8]
  0002b	8d 41 04	 lea	 eax, DWORD PTR [ecx+4]
  0002e	8b 79 04	 mov	 edi, DWORD PTR [ecx+4]
; File C:\Marty 5.5\Src-Client\Client\eterGrnLib\Material.cpp

; 515  : 	for (i=0; i<size; ++i)

  00031	33 f6		 xor	 esi, esi
; File D:\Program Files\Microsoft Visual Studio\2022\Community\VC\Tools\MSVC\14.43.34808\include\vector

; 1900 :         return static_cast<size_type>(_My_data._Mylast - _My_data._Myfirst);

  00033	2b df		 sub	 ebx, edi
  00035	89 45 f0	 mov	 DWORD PTR _this$1$[ebp], eax
  00038	c1 fb 02	 sar	 ebx, 2
; File C:\Marty 5.5\Src-Client\Client\eterGrnLib\Material.cpp

; 515  : 	for (i=0; i<size; ++i)

  0003b	85 db		 test	 ebx, ebx
  0003d	74 17		 je	 SHORT $LN3@RegisterMa
  0003f	90		 npad	 1
$LL4@RegisterMa:

; 516  : 	{
; 517  : 		CGrannyMaterial::TRef& roMtrl=m_mtrlVector[i];
; 518  : 		if (roMtrl->IsEqual(pgrnMaterial))

  00040	ff 75 08	 push	 DWORD PTR _pgrnMaterial$[ebp]
  00043	8b 0f		 mov	 ecx, DWORD PTR [edi]
  00045	e8 00 00 00 00	 call	 ?IsEqual@CGrannyMaterial@@QBE_NPAUgranny_material@@@Z ; CGrannyMaterial::IsEqual
  0004a	84 c0		 test	 al, al
  0004c	75 2b		 jne	 SHORT $LN45@RegisterMa

; 515  : 	for (i=0; i<size; ++i)

  0004e	46		 inc	 esi
  0004f	83 c7 04	 add	 edi, 4
  00052	3b f3		 cmp	 esi, ebx
  00054	72 ea		 jb	 SHORT $LL4@RegisterMa
$LN3@RegisterMa:

; 520  : 	}
; 521  : 
; 522  : 	CGrannyMaterial* pkNewMtrl=new CGrannyMaterial;

  00056	6a 38		 push	 56			; 00000038H
  00058	e8 00 00 00 00	 call	 ??2@YAPAXI@Z		; operator new
  0005d	83 c4 04	 add	 esp, 4
  00060	89 45 ec	 mov	 DWORD PTR $T2[ebp], eax
  00063	c7 45 fc 00 00
	00 00		 mov	 DWORD PTR __$EHRec$[ebp+8], 0
  0006a	85 c0		 test	 eax, eax
  0006c	74 21		 je	 SHORT $LN7@RegisterMa
  0006e	8b c8		 mov	 ecx, eax
  00070	e8 00 00 00 00	 call	 ??0CGrannyMaterial@@QAE@XZ ; CGrannyMaterial::CGrannyMaterial
  00075	8b f0		 mov	 esi, eax
  00077	eb 18		 jmp	 SHORT $LN8@RegisterMa
$LN45@RegisterMa:

; 519  : 			return i;

  00079	8b c6		 mov	 eax, esi

; 527  : }

  0007b	8b 4d f4	 mov	 ecx, DWORD PTR __$EHRec$[ebp]
  0007e	64 89 0d 00 00
	00 00		 mov	 DWORD PTR fs:0, ecx
  00085	59		 pop	 ecx
  00086	5f		 pop	 edi
  00087	5e		 pop	 esi
  00088	5b		 pop	 ebx
  00089	8b e5		 mov	 esp, ebp
  0008b	5d		 pop	 ebp
  0008c	c2 04 00	 ret	 4
$LN7@RegisterMa:

; 520  : 	}
; 521  : 
; 522  : 	CGrannyMaterial* pkNewMtrl=new CGrannyMaterial;

  0008f	33 f6		 xor	 esi, esi
$LN8@RegisterMa:

; 523  : 	pkNewMtrl->CreateFromGrannyMaterialPointer(pgrnMaterial);

  00091	ff 75 08	 push	 DWORD PTR _pgrnMaterial$[ebp]
  00094	8b ce		 mov	 ecx, esi
  00096	c7 45 fc ff ff
	ff ff		 mov	 DWORD PTR __$EHRec$[ebp+8], -1
  0009d	e8 00 00 00 00	 call	 ?CreateFromGrannyMaterialPointer@CGrannyMaterial@@QAE_NPAUgranny_material@@@Z ; CGrannyMaterial::CreateFromGrannyMaterialPointer
; File C:\Marty 5.5\Src-Client\Client\eterlib\Ref.h

; 94   : 			m_pObject = pObject;

  000a2	89 75 08	 mov	 DWORD PTR $T3[ebp], esi
  000a5	85 f6		 test	 esi, esi

; 95   : 
; 96   : 			if (m_pObject)

  000a7	74 07		 je	 SHORT $LN20@RegisterMa

; 97   : 				m_pObject->AddReference();

  000a9	8b ce		 mov	 ecx, esi
  000ab	e8 00 00 00 00	 call	 ?AddReference@CReferenceObject@@QAEXXZ ; CReferenceObject::AddReference
$LN20@RegisterMa:
; File D:\Program Files\Microsoft Visual Studio\2022\Community\VC\Tools\MSVC\14.43.34808\include\vector

; 829  :         if (_Mylast != _My_data._Myend) {

  000b0	8b 7d f0	 mov	 edi, DWORD PTR _this$1$[ebp]
; File C:\Marty 5.5\Src-Client\Client\eterGrnLib\Material.cpp

; 524  : 	m_mtrlVector.push_back(pkNewMtrl);

  000b3	c7 45 fc 01 00
	00 00		 mov	 DWORD PTR __$EHRec$[ebp+8], 1
; File D:\Program Files\Microsoft Visual Studio\2022\Community\VC\Tools\MSVC\14.43.34808\include\vector

; 829  :         if (_Mylast != _My_data._Myend) {

  000ba	8b 47 04	 mov	 eax, DWORD PTR [edi+4]
  000bd	3b 47 08	 cmp	 eax, DWORD PTR [edi+8]
  000c0	74 13		 je	 SHORT $LN25@RegisterMa
; File C:\Marty 5.5\Src-Client\Client\eterlib\Ref.h

; 94   : 			m_pObject = pObject;

  000c2	89 30		 mov	 DWORD PTR [eax], esi

; 95   : 
; 96   : 			if (m_pObject)

  000c4	85 f6		 test	 esi, esi
  000c6	74 07		 je	 SHORT $LN34@RegisterMa

; 97   : 				m_pObject->AddReference();

  000c8	8b ce		 mov	 ecx, esi
  000ca	e8 00 00 00 00	 call	 ?AddReference@CReferenceObject@@QAEXXZ ; CReferenceObject::AddReference
$LN34@RegisterMa:
; File D:\Program Files\Microsoft Visual Studio\2022\Community\VC\Tools\MSVC\14.43.34808\include\vector

; 854  :         ++_Mylast;

  000cf	83 47 04 04	 add	 DWORD PTR [edi+4], 4

; 830  :             return _Emplace_back_with_unused_capacity(_STD forward<_Valty>(_Val)...);

  000d3	eb 0c		 jmp	 SHORT $LN24@RegisterMa
$LN25@RegisterMa:

; 831  :         }
; 832  : 
; 833  :         return *_Emplace_reallocate(_Mylast, _STD forward<_Valty>(_Val)...);

  000d5	8d 4d 08	 lea	 ecx, DWORD PTR $T3[ebp]
  000d8	51		 push	 ecx
  000d9	50		 push	 eax
  000da	8b cf		 mov	 ecx, edi
  000dc	e8 00 00 00 00	 call	 ??$_Emplace_reallocate@V?$CRef@VCGrannyMaterial@@@@@?$vector@V?$CRef@VCGrannyMaterial@@@@V?$allocator@V?$CRef@VCGrannyMaterial@@@@@std@@@std@@AAEPAV?$CRef@VCGrannyMaterial@@@@QAV2@$$QAV2@@Z ; std::vector<CRef<CGrannyMaterial>,std::allocator<CRef<CGrannyMaterial> > >::_Emplace_reallocate<CRef<CGrannyMaterial> >
$LN24@RegisterMa:
; File C:\Marty 5.5\Src-Client\Client\eterlib\Ref.h

; 37   : 		{

  000e1	c7 45 fc 02 00
	00 00		 mov	 DWORD PTR __$EHRec$[ebp+8], 2
  000e8	85 f6		 test	 esi, esi

; 53   : 			if (m_pObject)

  000ea	74 07		 je	 SHORT $LN42@RegisterMa

; 54   : 			{
; 55   : 				m_pObject->Release();

  000ec	8b ce		 mov	 ecx, esi
  000ee	e8 00 00 00 00	 call	 ?Release@CReferenceObject@@QAEXXZ ; CReferenceObject::Release
$LN42@RegisterMa:
; File C:\Marty 5.5\Src-Client\Client\eterGrnLib\Material.cpp

; 526  : 	return size;

  000f3	8b c3		 mov	 eax, ebx

; 527  : }

  000f5	8b 4d f4	 mov	 ecx, DWORD PTR __$EHRec$[ebp]
  000f8	64 89 0d 00 00
	00 00		 mov	 DWORD PTR fs:0, ecx
  000ff	59		 pop	 ecx
  00100	5f		 pop	 edi
  00101	5e		 pop	 esi
  00102	5b		 pop	 ebx
  00103	8b e5		 mov	 esp, ebp
  00105	5d		 pop	 ebp
  00106	c2 04 00	 ret	 4
_TEXT	ENDS
;	COMDAT text$x
text$x	SEGMENT
__unwindfunclet$?RegisterMaterial@CGrannyMaterialPalette@@QAEKPAUgranny_material@@@Z$0:
  00000	6a 38		 push	 56			; 00000038H
  00002	8b 45 ec	 mov	 eax, DWORD PTR $T2[ebp]
  00005	50		 push	 eax
  00006	e8 00 00 00 00	 call	 ??3@YAXPAXI@Z		; operator delete
  0000b	83 c4 08	 add	 esp, 8
  0000e	c3		 ret	 0
__unwindfunclet$?RegisterMaterial@CGrannyMaterialPalette@@QAEKPAUgranny_material@@@Z$1:
  0000f	8d 4d 08	 lea	 ecx, DWORD PTR $T3[ebp]
  00012	e9 00 00 00 00	 jmp	 ??1?$CRef@VCGrannyMaterial@@@@QAE@XZ ; CRef<CGrannyMaterial>::~CRef<CGrannyMaterial>
  00017	cc		 int	 3
  00018	cc		 int	 3
  00019	cc		 int	 3
  0001a	cc		 int	 3
  0001b	cc		 int	 3
__ehhandler$?RegisterMaterial@CGrannyMaterialPalette@@QAEKPAUgranny_material@@@Z:
  0001c	90		 npad	 1
  0001d	90		 npad	 1
  0001e	8b 54 24 08	 mov	 edx, DWORD PTR [esp+8]
  00022	8d 42 0c	 lea	 eax, DWORD PTR [edx+12]
  00025	8b 4a e8	 mov	 ecx, DWORD PTR [edx-24]
  00028	33 c8		 xor	 ecx, eax
  0002a	e8 00 00 00 00	 call	 @__security_check_cookie@4
  0002f	b8 00 00 00 00	 mov	 eax, OFFSET __ehfuncinfo$?RegisterMaterial@CGrannyMaterialPalette@@QAEKPAUgranny_material@@@Z
  00034	e9 00 00 00 00	 jmp	 ___CxxFrameHandler3
text$x	ENDS
?RegisterMaterial@CGrannyMaterialPalette@@QAEKPAUgranny_material@@@Z ENDP ; CGrannyMaterialPalette::RegisterMaterial
; Function compile flags: /Ogtp
; File C:\Marty 5.5\Src-Client\Client\eterGrnLib\Material.cpp
; File D:\Program Files\Microsoft Visual Studio\2022\Community\VC\Tools\MSVC\14.43.34808\include\vector
; File C:\Marty 5.5\Src-Client\Client\eterGrnLib\Material.cpp
;	COMDAT ?Copy@CGrannyMaterialPalette@@QAEXABV1@@Z
_TEXT	SEGMENT
_rkMtrlPalSrc$ = 8					; size = 4
?Copy@CGrannyMaterialPalette@@QAEXABV1@@Z PROC		; CGrannyMaterialPalette::Copy, COMDAT
; _this$ = ecx

; 414  : {

  00000	55		 push	 ebp
  00001	8b ec		 mov	 ebp, esp

; 415  : 	m_mtrlVector=rkMtrlPalSrc.m_mtrlVector;

  00003	8b 45 08	 mov	 eax, DWORD PTR _rkMtrlPalSrc$[ebp]
  00006	83 c1 04	 add	 ecx, 4
  00009	83 c0 04	 add	 eax, 4
; File D:\Program Files\Microsoft Visual Studio\2022\Community\VC\Tools\MSVC\14.43.34808\include\vector

; 1509 :         if (this == _STD addressof(_Right)) {

  0000c	3b c8		 cmp	 ecx, eax
  0000e	74 11		 je	 SHORT $LN3@Copy

; 1510 :             return *this;
; 1511 :         }
; 1512 : 
; 1513 :         auto& _Al       = _Getal();
; 1514 :         auto& _Right_al = _Right._Getal();
; 1515 :         if constexpr (_Choose_pocca_v<_Alty>) {
; 1516 :             if (_Al != _Right_al) {
; 1517 :                 _Tidy();
; 1518 :                 _Mypair._Myval2._Reload_proxy(_GET_PROXY_ALLOCATOR(_Alty, _Al), _GET_PROXY_ALLOCATOR(_Alty, _Right_al));
; 1519 :             }
; 1520 :         }
; 1521 : 
; 1522 :         _Pocca(_Al, _Right_al);
; 1523 :         auto& _Right_data = _Right._Mypair._Myval2;
; 1524 :         _Assign_counted_range(_Right_data._Myfirst, static_cast<size_type>(_Right_data._Mylast - _Right_data._Myfirst));

  00010	8b 10		 mov	 edx, DWORD PTR [eax]
  00012	8b 40 04	 mov	 eax, DWORD PTR [eax+4]
  00015	2b c2		 sub	 eax, edx
  00017	c1 f8 02	 sar	 eax, 2
  0001a	50		 push	 eax
  0001b	52		 push	 edx
  0001c	e8 00 00 00 00	 call	 ??$_Assign_counted_range@PAV?$CRef@VCGrannyMaterial@@@@@?$vector@V?$CRef@VCGrannyMaterial@@@@V?$allocator@V?$CRef@VCGrannyMaterial@@@@@std@@@std@@AAEXPAV?$CRef@VCGrannyMaterial@@@@I@Z ; std::vector<CRef<CGrannyMaterial>,std::allocator<CRef<CGrannyMaterial> > >::_Assign_counted_range<CRef<CGrannyMaterial> *>
$LN3@Copy:
; File C:\Marty 5.5\Src-Client\Client\eterGrnLib\Material.cpp

; 416  : }

  00021	5d		 pop	 ebp
  00022	c2 04 00	 ret	 4
?Copy@CGrannyMaterialPalette@@QAEXABV1@@Z ENDP		; CGrannyMaterialPalette::Copy
_TEXT	ENDS
; Function compile flags: /Ogtp
; File C:\Marty 5.5\Src-Client\Client\eterGrnLib\Material.cpp
; File D:\Program Files\Microsoft Visual Studio\2022\Community\VC\Tools\MSVC\14.43.34808\include\vector
; File C:\Marty 5.5\Src-Client\Client\eterGrnLib\Material.cpp
; File D:\Program Files\Microsoft Visual Studio\2022\Community\VC\Tools\MSVC\14.43.34808\include\vector
; File C:\Marty 5.5\Src-Client\Client\eterGrnLib\Material.cpp
;	COMDAT ?Clear@CGrannyMaterialPalette@@QAEXXZ
_TEXT	SEGMENT
?Clear@CGrannyMaterialPalette@@QAEXXZ PROC		; CGrannyMaterialPalette::Clear, COMDAT
; _this$ = ecx
; File D:\Program Files\Microsoft Visual Studio\2022\Community\VC\Tools\MSVC\14.43.34808\include\vector

; 1797 :         if (_Myfirst == _Mylast) { // already empty, nothing to do

  00000	8b 41 04	 mov	 eax, DWORD PTR [ecx+4]
; File C:\Marty 5.5\Src-Client\Client\eterGrnLib\Material.cpp

; 419  : {

  00003	56		 push	 esi

; 420  : 	m_mtrlVector.clear();

  00004	8d 71 04	 lea	 esi, DWORD PTR [ecx+4]
; File D:\Program Files\Microsoft Visual Studio\2022\Community\VC\Tools\MSVC\14.43.34808\include\vector

; 1797 :         if (_Myfirst == _Mylast) { // already empty, nothing to do

  00007	8b 4e 04	 mov	 ecx, DWORD PTR [esi+4]
  0000a	3b c1		 cmp	 eax, ecx
  0000c	74 10		 je	 SHORT $LN3@Clear

; 1798 :             // This is an optimization for debug mode: we can avoid taking the debug lock to invalidate iterators.
; 1799 :             // Note that when clearing an empty vector, this will preserve past-the-end iterators, which is allowed by
; 1800 :             // N4950 [sequence.reqmts]/54 "a.clear() [...] may invalidate the past-the-end iterator".
; 1801 :             return;
; 1802 :         }
; 1803 : 
; 1804 :         _My_data._Orphan_all();
; 1805 :         _Destroy_range(_Myfirst, _Mylast, _Getal());

  0000e	56		 push	 esi
  0000f	51		 push	 ecx
  00010	50		 push	 eax
  00011	e8 00 00 00 00	 call	 ??$_Destroy_range@V?$allocator@V?$CRef@VCGrannyMaterial@@@@@std@@@std@@YAXPAV?$CRef@VCGrannyMaterial@@@@QAV1@AAV?$allocator@V?$CRef@VCGrannyMaterial@@@@@0@@Z ; std::_Destroy_range<std::allocator<CRef<CGrannyMaterial> > >

; 1806 :         _ASAN_VECTOR_MODIFY(static_cast<difference_type>(_Myfirst - _Mylast)); // negative when destroying elements
; 1807 :         _Mylast = _Myfirst;

  00016	8b 06		 mov	 eax, DWORD PTR [esi]
  00018	83 c4 0c	 add	 esp, 12			; 0000000cH
  0001b	89 46 04	 mov	 DWORD PTR [esi+4], eax
$LN3@Clear:
  0001e	5e		 pop	 esi
; File C:\Marty 5.5\Src-Client\Client\eterGrnLib\Material.cpp

; 421  : }

  0001f	c3		 ret	 0
?Clear@CGrannyMaterialPalette@@QAEXXZ ENDP		; CGrannyMaterialPalette::Clear
_TEXT	ENDS
; Function compile flags: /Ogtp
; File C:\Marty 5.5\Src-Client\Client\eterGrnLib\Material.cpp
;	COMDAT ??1CGrannyMaterialPalette@@UAE@XZ
_TEXT	SEGMENT
??1CGrannyMaterialPalette@@UAE@XZ PROC			; CGrannyMaterialPalette::~CGrannyMaterialPalette, COMDAT
; _this$ = ecx

; 409  : {

  00000	56		 push	 esi
  00001	8b f1		 mov	 esi, ecx
  00003	c7 06 00 00 00
	00		 mov	 DWORD PTR [esi], OFFSET ??_7CGrannyMaterialPalette@@6B@

; 410  : 	Clear();

  00009	e8 00 00 00 00	 call	 ?Clear@CGrannyMaterialPalette@@QAEXXZ ; CGrannyMaterialPalette::Clear

; 411  : }

  0000e	8d 4e 04	 lea	 ecx, DWORD PTR [esi+4]
  00011	5e		 pop	 esi
  00012	e9 00 00 00 00	 jmp	 ??1?$vector@V?$CRef@VCGrannyMaterial@@@@V?$allocator@V?$CRef@VCGrannyMaterial@@@@@std@@@std@@QAE@XZ ; std::vector<CRef<CGrannyMaterial>,std::allocator<CRef<CGrannyMaterial> > >::~vector<CRef<CGrannyMaterial>,std::allocator<CRef<CGrannyMaterial> > >
??1CGrannyMaterialPalette@@UAE@XZ ENDP			; CGrannyMaterialPalette::~CGrannyMaterialPalette
_TEXT	ENDS
; Function compile flags: /Ogtp
; File C:\Marty 5.5\Src-Client\Client\eterGrnLib\Material.cpp
; File D:\Program Files\Microsoft Visual Studio\2022\Community\VC\Tools\MSVC\14.43.34808\include\vector
; File C:\Marty 5.5\Src-Client\Client\eterGrnLib\Material.cpp
;	COMDAT ??0CGrannyMaterialPalette@@QAE@XZ
_TEXT	SEGMENT
_this$ = -4						; size = 4
??0CGrannyMaterialPalette@@QAE@XZ PROC			; CGrannyMaterialPalette::CGrannyMaterialPalette, COMDAT
; _this$ = ecx

; 405  : {

  00000	55		 push	 ebp
  00001	8b ec		 mov	 ebp, esp
  00003	51		 push	 ecx
  00004	c7 01 00 00 00
	00		 mov	 DWORD PTR [ecx], OFFSET ??_7CGrannyMaterialPalette@@6B@

; 406  : }

  0000a	8b c1		 mov	 eax, ecx
  0000c	89 4d fc	 mov	 DWORD PTR _this$[ebp], ecx
; File D:\Program Files\Microsoft Visual Studio\2022\Community\VC\Tools\MSVC\14.43.34808\include\vector

; 400  :     _CONSTEXPR20 _Vector_val() noexcept : _Myfirst(), _Mylast(), _Myend() {}

  0000f	c7 41 04 00 00
	00 00		 mov	 DWORD PTR [ecx+4], 0
  00016	c7 41 08 00 00
	00 00		 mov	 DWORD PTR [ecx+8], 0
  0001d	c7 41 0c 00 00
	00 00		 mov	 DWORD PTR [ecx+12], 0
; File C:\Marty 5.5\Src-Client\Client\eterGrnLib\Material.cpp

; 406  : }

  00024	8b e5		 mov	 esp, ebp
  00026	5d		 pop	 ebp
  00027	c3		 ret	 0
??0CGrannyMaterialPalette@@QAE@XZ ENDP			; CGrannyMaterialPalette::CGrannyMaterialPalette
_TEXT	ENDS
; Function compile flags: /Ogtp
;	COMDAT ??_GCGrannyMaterial@@UAEPAXI@Z
_TEXT	SEGMENT
___flags$ = 8						; size = 4
??_GCGrannyMaterial@@UAEPAXI@Z PROC			; CGrannyMaterial::`scalar deleting destructor', COMDAT
; _this$ = ecx
  00000	55		 push	 ebp
  00001	8b ec		 mov	 ebp, esp
  00003	56		 push	 esi
  00004	8b f1		 mov	 esi, ecx
  00006	e8 00 00 00 00	 call	 ??1CGrannyMaterial@@UAE@XZ ; CGrannyMaterial::~CGrannyMaterial
  0000b	f6 45 08 01	 test	 BYTE PTR ___flags$[ebp], 1
  0000f	74 0b		 je	 SHORT $LN5@scalar
  00011	6a 38		 push	 56			; 00000038H
  00013	56		 push	 esi
  00014	e8 00 00 00 00	 call	 ??3@YAXPAXI@Z		; operator delete
  00019	83 c4 08	 add	 esp, 8
$LN5@scalar:
  0001c	8b c6		 mov	 eax, esi
  0001e	5e		 pop	 esi
  0001f	5d		 pop	 ebp
  00020	c2 04 00	 ret	 4
??_GCGrannyMaterial@@UAEPAXI@Z ENDP			; CGrannyMaterial::`scalar deleting destructor'
_TEXT	ENDS
; Function compile flags: /Ogtp
; File C:\Marty 5.5\Src-Client\Client\eterGrnLib\Material.cpp
;	COMDAT ?__RestoreSpecularRenderState@CGrannyMaterial@@IAEXXZ
_TEXT	SEGMENT
?__RestoreSpecularRenderState@CGrannyMaterial@@IAEXXZ PROC ; CGrannyMaterial::__RestoreSpecularRenderState, COMDAT
; _this$ = ecx

; 364  : {

  00000	56		 push	 esi
  00001	8b f1		 mov	 esi, ecx

; 365  : 	if (TRUE == STATEMANAGER.GetRenderState(D3DRS_ALPHABLENDENABLE))

  00003	8b 0d 00 00 00
	00		 mov	 ecx, DWORD PTR ?ms_singleton@?$CSingleton@VCStateManager@@@@0PAVCStateManager@@A ; CSingleton<CStateManager>::ms_singleton
  00009	6a 1b		 push	 27			; 0000001bH
  0000b	e8 00 00 00 00	 call	 ?GetRenderState@CStateManager@@QAEKW4_D3DRENDERSTATETYPE@@@Z ; CStateManager::GetRenderState
  00010	83 f8 01	 cmp	 eax, 1
  00013	75 08		 jne	 SHORT $LN2@RestoreSpe

; 366  : 	{
; 367  : 		__RestoreDiffuseRenderState();

  00015	8b ce		 mov	 ecx, esi
  00017	5e		 pop	 esi
  00018	e9 00 00 00 00	 jmp	 ?__RestoreDiffuseRenderState@CGrannyMaterial@@IAEXXZ ; CGrannyMaterial::__RestoreDiffuseRenderState
$LN2@RestoreSpe:

; 368  : 		return;
; 369  : 	}
; 370  : 
; 371  : 	STATEMANAGER.RestoreTextureStageState(1, D3DTSS_TEXTURETRANSFORMFLAGS);

  0001d	8b 0d 00 00 00
	00		 mov	 ecx, DWORD PTR ?ms_singleton@?$CSingleton@VCStateManager@@@@0PAVCStateManager@@A ; CSingleton<CStateManager>::ms_singleton
  00023	6a 18		 push	 24			; 00000018H
  00025	6a 01		 push	 1
  00027	e8 00 00 00 00	 call	 ?RestoreTextureStageState@CStateManager@@QAEXKW4_D3DTEXTURESTAGESTATETYPE@@@Z ; CStateManager::RestoreTextureStageState

; 372  : 	STATEMANAGER.RestoreTextureStageState(1, D3DTSS_ADDRESSU);

  0002c	8b 0d 00 00 00
	00		 mov	 ecx, DWORD PTR ?ms_singleton@?$CSingleton@VCStateManager@@@@0PAVCStateManager@@A ; CSingleton<CStateManager>::ms_singleton
  00032	6a 0d		 push	 13			; 0000000dH
  00034	6a 01		 push	 1
  00036	e8 00 00 00 00	 call	 ?RestoreTextureStageState@CStateManager@@QAEXKW4_D3DTEXTURESTAGESTATETYPE@@@Z ; CStateManager::RestoreTextureStageState

; 373  : 	STATEMANAGER.RestoreTextureStageState(1, D3DTSS_ADDRESSV);

  0003b	8b 0d 00 00 00
	00		 mov	 ecx, DWORD PTR ?ms_singleton@?$CSingleton@VCStateManager@@@@0PAVCStateManager@@A ; CSingleton<CStateManager>::ms_singleton
  00041	6a 0e		 push	 14			; 0000000eH
  00043	6a 01		 push	 1
  00045	e8 00 00 00 00	 call	 ?RestoreTextureStageState@CStateManager@@QAEXKW4_D3DTEXTURESTAGESTATETYPE@@@Z ; CStateManager::RestoreTextureStageState

; 374  : 
; 375  : 	STATEMANAGER.RestoreTextureStageState(1, D3DTSS_TEXCOORDINDEX);

  0004a	8b 0d 00 00 00
	00		 mov	 ecx, DWORD PTR ?ms_singleton@?$CSingleton@VCStateManager@@@@0PAVCStateManager@@A ; CSingleton<CStateManager>::ms_singleton
  00050	6a 0b		 push	 11			; 0000000bH
  00052	6a 01		 push	 1
  00054	e8 00 00 00 00	 call	 ?RestoreTextureStageState@CStateManager@@QAEXKW4_D3DTEXTURESTAGESTATETYPE@@@Z ; CStateManager::RestoreTextureStageState

; 376  : 	STATEMANAGER.SetTextureStageState(1, D3DTSS_COLOROP, D3DTOP_DISABLE);

  00059	8b 0d 00 00 00
	00		 mov	 ecx, DWORD PTR ?ms_singleton@?$CSingleton@VCStateManager@@@@0PAVCStateManager@@A ; CSingleton<CStateManager>::ms_singleton
  0005f	6a 01		 push	 1
  00061	6a 01		 push	 1
  00063	6a 01		 push	 1
  00065	e8 00 00 00 00	 call	 ?SetTextureStageState@CStateManager@@QAEXKW4_D3DTEXTURESTAGESTATETYPE@@K@Z ; CStateManager::SetTextureStageState

; 377  : 	STATEMANAGER.SetTextureStageState(1, D3DTSS_ALPHAOP, D3DTOP_DISABLE);

  0006a	8b 0d 00 00 00
	00		 mov	 ecx, DWORD PTR ?ms_singleton@?$CSingleton@VCStateManager@@@@0PAVCStateManager@@A ; CSingleton<CStateManager>::ms_singleton
  00070	6a 01		 push	 1
  00072	6a 04		 push	 4
  00074	6a 01		 push	 1
  00076	e8 00 00 00 00	 call	 ?SetTextureStageState@CStateManager@@QAEXKW4_D3DTEXTURESTAGESTATETYPE@@K@Z ; CStateManager::SetTextureStageState

; 378  : 
; 379  : 	STATEMANAGER.RestoreTextureStageState(0, D3DTSS_COLORARG1);

  0007b	8b 0d 00 00 00
	00		 mov	 ecx, DWORD PTR ?ms_singleton@?$CSingleton@VCStateManager@@@@0PAVCStateManager@@A ; CSingleton<CStateManager>::ms_singleton
  00081	6a 02		 push	 2
  00083	6a 00		 push	 0
  00085	e8 00 00 00 00	 call	 ?RestoreTextureStageState@CStateManager@@QAEXKW4_D3DTEXTURESTAGESTATETYPE@@@Z ; CStateManager::RestoreTextureStageState

; 380  : 	STATEMANAGER.RestoreTextureStageState(0, D3DTSS_COLORARG2);

  0008a	8b 0d 00 00 00
	00		 mov	 ecx, DWORD PTR ?ms_singleton@?$CSingleton@VCStateManager@@@@0PAVCStateManager@@A ; CSingleton<CStateManager>::ms_singleton
  00090	6a 03		 push	 3
  00092	6a 00		 push	 0
  00094	e8 00 00 00 00	 call	 ?RestoreTextureStageState@CStateManager@@QAEXKW4_D3DTEXTURESTAGESTATETYPE@@@Z ; CStateManager::RestoreTextureStageState

; 381  : 	STATEMANAGER.RestoreTextureStageState(0, D3DTSS_COLOROP);

  00099	8b 0d 00 00 00
	00		 mov	 ecx, DWORD PTR ?ms_singleton@?$CSingleton@VCStateManager@@@@0PAVCStateManager@@A ; CSingleton<CStateManager>::ms_singleton
  0009f	6a 01		 push	 1
  000a1	6a 00		 push	 0
  000a3	e8 00 00 00 00	 call	 ?RestoreTextureStageState@CStateManager@@QAEXKW4_D3DTEXTURESTAGESTATETYPE@@@Z ; CStateManager::RestoreTextureStageState

; 382  : 	STATEMANAGER.RestoreTextureStageState(0, D3DTSS_ALPHAARG1);

  000a8	8b 0d 00 00 00
	00		 mov	 ecx, DWORD PTR ?ms_singleton@?$CSingleton@VCStateManager@@@@0PAVCStateManager@@A ; CSingleton<CStateManager>::ms_singleton
  000ae	6a 05		 push	 5
  000b0	6a 00		 push	 0
  000b2	e8 00 00 00 00	 call	 ?RestoreTextureStageState@CStateManager@@QAEXKW4_D3DTEXTURESTAGESTATETYPE@@@Z ; CStateManager::RestoreTextureStageState

; 383  : 	STATEMANAGER.RestoreTextureStageState(0, D3DTSS_ALPHAARG2);

  000b7	8b 0d 00 00 00
	00		 mov	 ecx, DWORD PTR ?ms_singleton@?$CSingleton@VCStateManager@@@@0PAVCStateManager@@A ; CSingleton<CStateManager>::ms_singleton
  000bd	6a 06		 push	 6
  000bf	6a 00		 push	 0
  000c1	e8 00 00 00 00	 call	 ?RestoreTextureStageState@CStateManager@@QAEXKW4_D3DTEXTURESTAGESTATETYPE@@@Z ; CStateManager::RestoreTextureStageState

; 384  : 	STATEMANAGER.RestoreTextureStageState(0, D3DTSS_ALPHAOP);

  000c6	8b 0d 00 00 00
	00		 mov	 ecx, DWORD PTR ?ms_singleton@?$CSingleton@VCStateManager@@@@0PAVCStateManager@@A ; CSingleton<CStateManager>::ms_singleton
  000cc	6a 04		 push	 4
  000ce	6a 00		 push	 0
  000d0	e8 00 00 00 00	 call	 ?RestoreTextureStageState@CStateManager@@QAEXKW4_D3DTEXTURESTAGESTATETYPE@@@Z ; CStateManager::RestoreTextureStageState
  000d5	5e		 pop	 esi

; 385  : }

  000d6	c3		 ret	 0
?__RestoreSpecularRenderState@CGrannyMaterial@@IAEXXZ ENDP ; CGrannyMaterial::__RestoreSpecularRenderState
_TEXT	ENDS
; Function compile flags: /Ogtp
; File C:\Marty 5.5\Src-Client\Client\eterGrnLib\Material.cpp
; File C:\Marty 5.5\Src-Client\Client\eterBase\Singleton.h
; File C:\Marty 5.5\Src-Client\Client\eterGrnLib\Material.cpp
; File C:\Marty 5.5\Src-Client\Client\eterBase\Singleton.h
; File C:\Marty 5.5\Src-Client\Client\eterGrnLib\Material.cpp
; File C:\Marty 5.5\Src-Client\extern\include\d3dx8math.inl
; File C:\Marty 5.5\Src-Client\Client\eterGrnLib\Material.cpp
; File C:\Marty 5.5\Src-Client\extern\include\d3dx8math.inl
; File C:\Marty 5.5\Src-Client\Client\eterGrnLib\Material.cpp
;	COMDAT ?__ApplySpecularRenderState@CGrannyMaterial@@IAEXXZ
_TEXT	SEGMENT
$T1$sroa$326$ = -4					; size = 4
?__ApplySpecularRenderState@CGrannyMaterial@@IAEXXZ PROC ; CGrannyMaterial::__ApplySpecularRenderState, COMDAT
; _this$ = ecx

; 322  : {

  00000	55		 push	 ebp
  00001	8b ec		 mov	 ebp, esp
  00003	51		 push	 ecx
  00004	57		 push	 edi
  00005	8b f9		 mov	 edi, ecx

; 323  : 	if (TRUE == STATEMANAGER.GetRenderState(D3DRS_ALPHABLENDENABLE))

  00007	8b 0d 00 00 00
	00		 mov	 ecx, DWORD PTR ?ms_singleton@?$CSingleton@VCStateManager@@@@0PAVCStateManager@@A ; CSingleton<CStateManager>::ms_singleton
  0000d	6a 1b		 push	 27			; 0000001bH
  0000f	e8 00 00 00 00	 call	 ?GetRenderState@CStateManager@@QAEKW4_D3DRENDERSTATETYPE@@@Z ; CStateManager::GetRenderState
  00014	83 f8 01	 cmp	 eax, 1
  00017	75 0c		 jne	 SHORT $LN2@ApplySpecu

; 324  : 	{
; 325  : 		__ApplyDiffuseRenderState();

  00019	8b cf		 mov	 ecx, edi
  0001b	e8 00 00 00 00	 call	 ?__ApplyDiffuseRenderState@CGrannyMaterial@@IAEXXZ ; CGrannyMaterial::__ApplyDiffuseRenderState
  00020	5f		 pop	 edi

; 361  : }

  00021	8b e5		 mov	 esp, ebp
  00023	5d		 pop	 ebp
  00024	c3		 ret	 0
$LN2@ApplySpecu:

; 326  : 		return;
; 327  : 	}
; 328  : 
; 329  : 	CGraphicTexture* pkTexture=ms_akSphereMapInstance[m_bSphereMapIndex].GetTexturePointer();

  00025	0f b6 47 2c	 movzx	 eax, BYTE PTR [edi+44]
  00029	53		 push	 ebx
  0002a	56		 push	 esi
  0002b	8d 04 80	 lea	 eax, DWORD PTR [eax+eax*4]
  0002e	8d 0c c5 00 00
	00 00		 lea	 ecx, DWORD PTR ?ms_akSphereMapInstance@CGrannyMaterial@@0PAVCGraphicImageInstance@@A[eax*8]
  00035	e8 00 00 00 00	 call	 ?GetTexturePointer@CGraphicImageInstance@@QAEPAVCGraphicTexture@@XZ ; CGraphicImageInstance::GetTexturePointer
; File C:\Marty 5.5\Src-Client\Client\eterBase\Singleton.h

; 27   : 		return (*ms_singleton);

  0003a	8b 35 00 00 00
	00		 mov	 esi, DWORD PTR ?ms_singleton@?$CSingleton@VCStateManager@@@@0PAVCStateManager@@A ; CSingleton<CStateManager>::ms_singleton
; File C:\Marty 5.5\Src-Client\Client\eterGrnLib\Material.cpp

; 331  : 	STATEMANAGER.SetTexture(0, GetD3DTexture(0));

  00040	8b cf		 mov	 ecx, edi
  00042	6a 00		 push	 0
  00044	8b d8		 mov	 ebx, eax
  00046	e8 00 00 00 00	 call	 ?GetD3DTexture@CGrannyMaterial@@QBEPAUIDirect3DTexture8@@H@Z ; CGrannyMaterial::GetD3DTexture
  0004b	50		 push	 eax
  0004c	6a 00		 push	 0
  0004e	8b ce		 mov	 ecx, esi
  00050	e8 00 00 00 00	 call	 ?SetTexture@CStateManager@@QAEXKPAUIDirect3DBaseTexture8@@@Z ; CStateManager::SetTexture

; 332  : 
; 333  : 	if (pkTexture)

  00055	85 db		 test	 ebx, ebx
  00057	74 12		 je	 SHORT $LN3@ApplySpecu
; File C:\Marty 5.5\Src-Client\Client\eterBase\Singleton.h

; 27   : 		return (*ms_singleton);

  00059	8b 35 00 00 00
	00		 mov	 esi, DWORD PTR ?ms_singleton@?$CSingleton@VCStateManager@@@@0PAVCStateManager@@A ; CSingleton<CStateManager>::ms_singleton
; File C:\Marty 5.5\Src-Client\Client\eterGrnLib\Material.cpp

; 334  : 		STATEMANAGER.SetTexture(1, pkTexture->GetD3DTexture());

  0005f	8b cb		 mov	 ecx, ebx
  00061	e8 00 00 00 00	 call	 ?GetD3DTexture@CGraphicTexture@@QBEPAUIDirect3DTexture8@@XZ ; CGraphicTexture::GetD3DTexture
  00066	50		 push	 eax
  00067	8b ce		 mov	 ecx, esi
  00069	eb 08		 jmp	 SHORT $LN70@ApplySpecu
$LN3@ApplySpecu:

; 335  : 	else
; 336  : 		STATEMANAGER.SetTexture(1, NULL);

  0006b	8b 0d 00 00 00
	00		 mov	 ecx, DWORD PTR ?ms_singleton@?$CSingleton@VCStateManager@@@@0PAVCStateManager@@A ; CSingleton<CStateManager>::ms_singleton
  00071	6a 00		 push	 0
$LN70@ApplySpecu:

; 339  : 	STATEMANAGER.SetRenderState(D3DRS_TEXTUREFACTOR, D3DXCOLOR(g_fSpecularColor.r, g_fSpecularColor.g, g_fSpecularColor.b, GetSpecularPower()));//@natanek30

  00073	6a 01		 push	 1
  00075	e8 00 00 00 00	 call	 ?SetTexture@CStateManager@@QAEXKPAUIDirect3DBaseTexture8@@@Z ; CStateManager::SetTexture
  0007a	8b cf		 mov	 ecx, edi
  0007c	e8 00 00 00 00	 call	 ?GetSpecularPower@CGrannyMaterial@@QBEMXZ ; CGrannyMaterial::GetSpecularPower
; File C:\Marty 5.5\Src-Client\extern\include\d3dx8math.inl

; 931  :     DWORD dwR = r >= 1.0f ? 0xff : r <= 0.0f ? 0x00 : (DWORD) (r * 255.0f + 0.5f);

  00081	f3 0f 10 05 00
	00 00 00	 movss	 xmm0, DWORD PTR ?g_fSpecularColor@@3UD3DXCOLOR@@A
  00089	0f 57 c9	 xorps	 xmm1, xmm1
  0008c	0f 2f 05 00 00
	00 00		 comiss	 xmm0, DWORD PTR __real@3f800000
  00093	f3 0f 10 1d 00
	00 00 00	 movss	 xmm3, DWORD PTR __real@437f0000
  0009b	f3 0f 10 25 00
	00 00 00	 movss	 xmm4, DWORD PTR __real@3f000000

; 923  :     a = fa;

  000a3	d9 5d fc	 fstp	 DWORD PTR $T1$sroa$326$[ebp]

; 931  :     DWORD dwR = r >= 1.0f ? 0xff : r <= 0.0f ? 0x00 : (DWORD) (r * 255.0f + 0.5f);

  000a6	72 07		 jb	 SHORT $LN14@ApplySpecu
  000a8	bb ff 00 00 00	 mov	 ebx, 255		; 000000ffH
  000ad	eb 2b		 jmp	 SHORT $LN13@ApplySpecu
$LN14@ApplySpecu:
  000af	0f 2f c8	 comiss	 xmm1, xmm0
  000b2	72 04		 jb	 SHORT $LN12@ApplySpecu
  000b4	33 db		 xor	 ebx, ebx
  000b6	eb 22		 jmp	 SHORT $LN13@ApplySpecu
$LN12@ApplySpecu:
  000b8	f3 0f 59 c3	 mulss	 xmm0, xmm3
  000bc	f3 0f 58 c4	 addss	 xmm0, xmm4
  000c0	e8 00 00 00 00	 call	 __ftol3
  000c5	f3 0f 10 1d 00
	00 00 00	 movss	 xmm3, DWORD PTR __real@437f0000
  000cd	8b d8		 mov	 ebx, eax
  000cf	f3 0f 10 25 00
	00 00 00	 movss	 xmm4, DWORD PTR __real@3f000000
  000d7	0f 57 c9	 xorps	 xmm1, xmm1
$LN13@ApplySpecu:

; 932  :     DWORD dwG = g >= 1.0f ? 0xff : g <= 0.0f ? 0x00 : (DWORD) (g * 255.0f + 0.5f);

  000da	f3 0f 10 05 04
	00 00 00	 movss	 xmm0, DWORD PTR ?g_fSpecularColor@@3UD3DXCOLOR@@A+4
  000e2	0f 2f 05 00 00
	00 00		 comiss	 xmm0, DWORD PTR __real@3f800000
  000e9	72 07		 jb	 SHORT $LN18@ApplySpecu
  000eb	bf ff 00 00 00	 mov	 edi, 255		; 000000ffH
  000f0	eb 18		 jmp	 SHORT $LN17@ApplySpecu
$LN18@ApplySpecu:
  000f2	0f 2f c8	 comiss	 xmm1, xmm0
  000f5	72 04		 jb	 SHORT $LN16@ApplySpecu
  000f7	33 ff		 xor	 edi, edi
  000f9	eb 0f		 jmp	 SHORT $LN17@ApplySpecu
$LN16@ApplySpecu:
  000fb	f3 0f 59 c3	 mulss	 xmm0, xmm3
  000ff	f3 0f 58 c4	 addss	 xmm0, xmm4
  00103	e8 00 00 00 00	 call	 __ftol3
  00108	8b f8		 mov	 edi, eax
$LN17@ApplySpecu:

; 933  :     DWORD dwB = b >= 1.0f ? 0xff : b <= 0.0f ? 0x00 : (DWORD) (b * 255.0f + 0.5f);

  0010a	f3 0f 10 05 08
	00 00 00	 movss	 xmm0, DWORD PTR ?g_fSpecularColor@@3UD3DXCOLOR@@A+8
  00112	0f 57 c9	 xorps	 xmm1, xmm1
  00115	0f 2f 05 00 00
	00 00		 comiss	 xmm0, DWORD PTR __real@3f800000
  0011c	72 07		 jb	 SHORT $LN22@ApplySpecu
  0011e	be ff 00 00 00	 mov	 esi, 255		; 000000ffH
  00123	eb 23		 jmp	 SHORT $LN21@ApplySpecu
$LN22@ApplySpecu:
  00125	0f 2f c8	 comiss	 xmm1, xmm0
  00128	72 04		 jb	 SHORT $LN20@ApplySpecu
  0012a	33 f6		 xor	 esi, esi
  0012c	eb 1a		 jmp	 SHORT $LN21@ApplySpecu
$LN20@ApplySpecu:
  0012e	f3 0f 59 05 00
	00 00 00	 mulss	 xmm0, DWORD PTR __real@437f0000
  00136	f3 0f 58 05 00
	00 00 00	 addss	 xmm0, DWORD PTR __real@3f000000
  0013e	e8 00 00 00 00	 call	 __ftol3
  00143	8b f0		 mov	 esi, eax
  00145	0f 57 c9	 xorps	 xmm1, xmm1
$LN21@ApplySpecu:

; 934  :     DWORD dwA = a >= 1.0f ? 0xff : a <= 0.0f ? 0x00 : (DWORD) (a * 255.0f + 0.5f);

  00148	f3 0f 10 45 fc	 movss	 xmm0, DWORD PTR $T1$sroa$326$[ebp]
  0014d	0f 2f 05 00 00
	00 00		 comiss	 xmm0, DWORD PTR __real@3f800000
  00154	72 07		 jb	 SHORT $LN26@ApplySpecu
  00156	b8 ff 00 00 00	 mov	 eax, 255		; 000000ffH
  0015b	eb 1e		 jmp	 SHORT $LN25@ApplySpecu
$LN26@ApplySpecu:
  0015d	0f 2f c8	 comiss	 xmm1, xmm0
  00160	72 04		 jb	 SHORT $LN24@ApplySpecu
  00162	33 c0		 xor	 eax, eax
  00164	eb 15		 jmp	 SHORT $LN25@ApplySpecu
$LN24@ApplySpecu:
  00166	f3 0f 59 05 00
	00 00 00	 mulss	 xmm0, DWORD PTR __real@437f0000
  0016e	f3 0f 58 05 00
	00 00 00	 addss	 xmm0, DWORD PTR __real@3f000000
  00176	e8 00 00 00 00	 call	 __ftol3
$LN25@ApplySpecu:
; File C:\Marty 5.5\Src-Client\Client\eterGrnLib\Material.cpp

; 339  : 	STATEMANAGER.SetRenderState(D3DRS_TEXTUREFACTOR, D3DXCOLOR(g_fSpecularColor.r, g_fSpecularColor.g, g_fSpecularColor.b, GetSpecularPower()));//@natanek30

  0017b	8b 0d 00 00 00
	00		 mov	 ecx, DWORD PTR ?ms_singleton@?$CSingleton@VCStateManager@@@@0PAVCStateManager@@A ; CSingleton<CStateManager>::ms_singleton
; File C:\Marty 5.5\Src-Client\extern\include\d3dx8math.inl

; 936  :     return (dwA << 24) | (dwR << 16) | (dwG << 8) | dwB;

  00181	c1 e0 08	 shl	 eax, 8
  00184	0b c3		 or	 eax, ebx
  00186	c1 e0 08	 shl	 eax, 8
  00189	0b c7		 or	 eax, edi
  0018b	c1 e0 08	 shl	 eax, 8
  0018e	0b c6		 or	 eax, esi
; File C:\Marty 5.5\Src-Client\Client\eterGrnLib\Material.cpp

; 339  : 	STATEMANAGER.SetRenderState(D3DRS_TEXTUREFACTOR, D3DXCOLOR(g_fSpecularColor.r, g_fSpecularColor.g, g_fSpecularColor.b, GetSpecularPower()));//@natanek30

  00190	50		 push	 eax
  00191	6a 3c		 push	 60			; 0000003cH
  00193	e8 00 00 00 00	 call	 ?SetRenderState@CStateManager@@QAEXW4_D3DRENDERSTATETYPE@@K@Z ; CStateManager::SetRenderState

; 340  : 
; 341  : 
; 342  : 
; 343  : 	STATEMANAGER.SaveTextureStageState(1, D3DTSS_TEXCOORDINDEX, D3DTSS_TCI_CAMERASPACEREFLECTIONVECTOR);

  00198	8b 0d 00 00 00
	00		 mov	 ecx, DWORD PTR ?ms_singleton@?$CSingleton@VCStateManager@@@@0PAVCStateManager@@A ; CSingleton<CStateManager>::ms_singleton
  0019e	68 00 00 03 00	 push	 196608			; 00030000H
  001a3	6a 0b		 push	 11			; 0000000bH
  001a5	6a 01		 push	 1
  001a7	e8 00 00 00 00	 call	 ?SaveTextureStageState@CStateManager@@QAEXKW4_D3DTEXTURESTAGESTATETYPE@@K@Z ; CStateManager::SaveTextureStageState

; 344  : 	STATEMANAGER.SaveTextureStageState(0, D3DTSS_COLORARG1,	D3DTA_TEXTURE);

  001ac	8b 0d 00 00 00
	00		 mov	 ecx, DWORD PTR ?ms_singleton@?$CSingleton@VCStateManager@@@@0PAVCStateManager@@A ; CSingleton<CStateManager>::ms_singleton
  001b2	6a 02		 push	 2
  001b4	6a 02		 push	 2
  001b6	6a 00		 push	 0
  001b8	e8 00 00 00 00	 call	 ?SaveTextureStageState@CStateManager@@QAEXKW4_D3DTEXTURESTAGESTATETYPE@@K@Z ; CStateManager::SaveTextureStageState

; 345  : 	STATEMANAGER.SaveTextureStageState(0, D3DTSS_COLORARG2,	D3DTA_DIFFUSE);

  001bd	8b 0d 00 00 00
	00		 mov	 ecx, DWORD PTR ?ms_singleton@?$CSingleton@VCStateManager@@@@0PAVCStateManager@@A ; CSingleton<CStateManager>::ms_singleton
  001c3	6a 00		 push	 0
  001c5	6a 03		 push	 3
  001c7	6a 00		 push	 0
  001c9	e8 00 00 00 00	 call	 ?SaveTextureStageState@CStateManager@@QAEXKW4_D3DTEXTURESTAGESTATETYPE@@K@Z ; CStateManager::SaveTextureStageState

; 346  : 	STATEMANAGER.SaveTextureStageState(0, D3DTSS_COLOROP,	D3DTOP_MODULATE);

  001ce	8b 0d 00 00 00
	00		 mov	 ecx, DWORD PTR ?ms_singleton@?$CSingleton@VCStateManager@@@@0PAVCStateManager@@A ; CSingleton<CStateManager>::ms_singleton
  001d4	6a 04		 push	 4
  001d6	6a 01		 push	 1
  001d8	6a 00		 push	 0
  001da	e8 00 00 00 00	 call	 ?SaveTextureStageState@CStateManager@@QAEXKW4_D3DTEXTURESTAGESTATETYPE@@K@Z ; CStateManager::SaveTextureStageState

; 347  : 	STATEMANAGER.SaveTextureStageState(0, D3DTSS_ALPHAARG1,	D3DTA_TEXTURE);

  001df	8b 0d 00 00 00
	00		 mov	 ecx, DWORD PTR ?ms_singleton@?$CSingleton@VCStateManager@@@@0PAVCStateManager@@A ; CSingleton<CStateManager>::ms_singleton
  001e5	6a 02		 push	 2
  001e7	6a 05		 push	 5
  001e9	6a 00		 push	 0
  001eb	e8 00 00 00 00	 call	 ?SaveTextureStageState@CStateManager@@QAEXKW4_D3DTEXTURESTAGESTATETYPE@@K@Z ; CStateManager::SaveTextureStageState

; 348  : 	STATEMANAGER.SaveTextureStageState(0, D3DTSS_ALPHAARG2,	D3DTA_TFACTOR);

  001f0	8b 0d 00 00 00
	00		 mov	 ecx, DWORD PTR ?ms_singleton@?$CSingleton@VCStateManager@@@@0PAVCStateManager@@A ; CSingleton<CStateManager>::ms_singleton
  001f6	6a 03		 push	 3
  001f8	6a 06		 push	 6
  001fa	6a 00		 push	 0
  001fc	e8 00 00 00 00	 call	 ?SaveTextureStageState@CStateManager@@QAEXKW4_D3DTEXTURESTAGESTATETYPE@@K@Z ; CStateManager::SaveTextureStageState

; 349  : 	STATEMANAGER.SaveTextureStageState(0, D3DTSS_ALPHAOP,	D3DTOP_MODULATE);

  00201	8b 0d 00 00 00
	00		 mov	 ecx, DWORD PTR ?ms_singleton@?$CSingleton@VCStateManager@@@@0PAVCStateManager@@A ; CSingleton<CStateManager>::ms_singleton
  00207	6a 04		 push	 4
  00209	6a 04		 push	 4
  0020b	6a 00		 push	 0
  0020d	e8 00 00 00 00	 call	 ?SaveTextureStageState@CStateManager@@QAEXKW4_D3DTEXTURESTAGESTATETYPE@@K@Z ; CStateManager::SaveTextureStageState

; 350  : 
; 351  : 	STATEMANAGER.SetTextureStageState(1, D3DTSS_COLORARG1,	D3DTA_CURRENT);

  00212	8b 0d 00 00 00
	00		 mov	 ecx, DWORD PTR ?ms_singleton@?$CSingleton@VCStateManager@@@@0PAVCStateManager@@A ; CSingleton<CStateManager>::ms_singleton
  00218	6a 01		 push	 1
  0021a	6a 02		 push	 2
  0021c	6a 01		 push	 1
  0021e	e8 00 00 00 00	 call	 ?SetTextureStageState@CStateManager@@QAEXKW4_D3DTEXTURESTAGESTATETYPE@@K@Z ; CStateManager::SetTextureStageState

; 352  : 	STATEMANAGER.SetTextureStageState(1, D3DTSS_COLORARG2,	D3DTA_TEXTURE);

  00223	8b 0d 00 00 00
	00		 mov	 ecx, DWORD PTR ?ms_singleton@?$CSingleton@VCStateManager@@@@0PAVCStateManager@@A ; CSingleton<CStateManager>::ms_singleton
  00229	6a 02		 push	 2
  0022b	6a 03		 push	 3
  0022d	6a 01		 push	 1
  0022f	e8 00 00 00 00	 call	 ?SetTextureStageState@CStateManager@@QAEXKW4_D3DTEXTURESTAGESTATETYPE@@K@Z ; CStateManager::SetTextureStageState

; 353  : 	STATEMANAGER.SetTextureStageState(1, D3DTSS_COLOROP,	D3DTOP_MODULATEALPHA_ADDCOLOR);

  00234	8b 0d 00 00 00
	00		 mov	 ecx, DWORD PTR ?ms_singleton@?$CSingleton@VCStateManager@@@@0PAVCStateManager@@A ; CSingleton<CStateManager>::ms_singleton
  0023a	6a 12		 push	 18			; 00000012H
  0023c	6a 01		 push	 1
  0023e	6a 01		 push	 1
  00240	e8 00 00 00 00	 call	 ?SetTextureStageState@CStateManager@@QAEXKW4_D3DTEXTURESTAGESTATETYPE@@K@Z ; CStateManager::SetTextureStageState

; 354  : 	STATEMANAGER.SetTextureStageState(1, D3DTSS_ALPHAARG1,	D3DTA_CURRENT);

  00245	8b 0d 00 00 00
	00		 mov	 ecx, DWORD PTR ?ms_singleton@?$CSingleton@VCStateManager@@@@0PAVCStateManager@@A ; CSingleton<CStateManager>::ms_singleton
  0024b	6a 01		 push	 1
  0024d	6a 05		 push	 5
  0024f	6a 01		 push	 1
  00251	e8 00 00 00 00	 call	 ?SetTextureStageState@CStateManager@@QAEXKW4_D3DTEXTURESTAGESTATETYPE@@K@Z ; CStateManager::SetTextureStageState

; 355  : 	STATEMANAGER.SetTextureStageState(1, D3DTSS_ALPHAOP,	D3DTOP_SELECTARG1);

  00256	8b 0d 00 00 00
	00		 mov	 ecx, DWORD PTR ?ms_singleton@?$CSingleton@VCStateManager@@@@0PAVCStateManager@@A ; CSingleton<CStateManager>::ms_singleton
  0025c	6a 02		 push	 2
  0025e	6a 04		 push	 4
  00260	6a 01		 push	 1
  00262	e8 00 00 00 00	 call	 ?SetTextureStageState@CStateManager@@QAEXKW4_D3DTEXTURESTAGESTATETYPE@@K@Z ; CStateManager::SetTextureStageState

; 356  : 
; 357  : 	STATEMANAGER.SetTransform(D3DTS_TEXTURE1, &ms_matSpecular);

  00267	8b 0d 00 00 00
	00		 mov	 ecx, DWORD PTR ?ms_singleton@?$CSingleton@VCStateManager@@@@0PAVCStateManager@@A ; CSingleton<CStateManager>::ms_singleton
  0026d	68 00 00 00 00	 push	 OFFSET ?ms_matSpecular@CGrannyMaterial@@0UD3DXMATRIX@@A ; CGrannyMaterial::ms_matSpecular
  00272	6a 11		 push	 17			; 00000011H
  00274	e8 00 00 00 00	 call	 ?SetTransform@CStateManager@@QAEXW4_D3DTRANSFORMSTATETYPE@@PBU_D3DMATRIX@@@Z ; CStateManager::SetTransform

; 358  : 	STATEMANAGER.SaveTextureStageState(1, D3DTSS_TEXTURETRANSFORMFLAGS, D3DTTFF_COUNT2);

  00279	8b 0d 00 00 00
	00		 mov	 ecx, DWORD PTR ?ms_singleton@?$CSingleton@VCStateManager@@@@0PAVCStateManager@@A ; CSingleton<CStateManager>::ms_singleton
  0027f	6a 02		 push	 2
  00281	6a 18		 push	 24			; 00000018H
  00283	6a 01		 push	 1
  00285	e8 00 00 00 00	 call	 ?SaveTextureStageState@CStateManager@@QAEXKW4_D3DTEXTURESTAGESTATETYPE@@K@Z ; CStateManager::SaveTextureStageState

; 359  : 	STATEMANAGER.SaveTextureStageState(1, D3DTSS_ADDRESSU, D3DTADDRESS_WRAP);

  0028a	6a 01		 push	 1
  0028c	6a 0d		 push	 13			; 0000000dH
  0028e	8b 0d 00 00 00
	00		 mov	 ecx, DWORD PTR ?ms_singleton@?$CSingleton@VCStateManager@@@@0PAVCStateManager@@A ; CSingleton<CStateManager>::ms_singleton
  00294	6a 01		 push	 1
  00296	e8 00 00 00 00	 call	 ?SaveTextureStageState@CStateManager@@QAEXKW4_D3DTEXTURESTAGESTATETYPE@@K@Z ; CStateManager::SaveTextureStageState

; 360  : 	STATEMANAGER.SaveTextureStageState(1, D3DTSS_ADDRESSV, D3DTADDRESS_WRAP);

  0029b	8b 0d 00 00 00
	00		 mov	 ecx, DWORD PTR ?ms_singleton@?$CSingleton@VCStateManager@@@@0PAVCStateManager@@A ; CSingleton<CStateManager>::ms_singleton
  002a1	6a 01		 push	 1
  002a3	6a 0e		 push	 14			; 0000000eH
  002a5	6a 01		 push	 1
  002a7	e8 00 00 00 00	 call	 ?SaveTextureStageState@CStateManager@@QAEXKW4_D3DTEXTURESTAGESTATETYPE@@K@Z ; CStateManager::SaveTextureStageState
  002ac	5e		 pop	 esi
  002ad	5b		 pop	 ebx
  002ae	5f		 pop	 edi

; 361  : }

  002af	8b e5		 mov	 esp, ebp
  002b1	5d		 pop	 ebp
  002b2	c3		 ret	 0
?__ApplySpecularRenderState@CGrannyMaterial@@IAEXXZ ENDP ; CGrannyMaterial::__ApplySpecularRenderState
_TEXT	ENDS
; Function compile flags: /Ogtp
; File C:\Marty 5.5\Src-Client\Client\eterGrnLib\Material.cpp
;	COMDAT ?__RestoreDiffuseRenderState@CGrannyMaterial@@IAEXXZ
_TEXT	SEGMENT
?__RestoreDiffuseRenderState@CGrannyMaterial@@IAEXXZ PROC ; CGrannyMaterial::__RestoreDiffuseRenderState, COMDAT
; _this$ = ecx

; 315  : 	if (m_bTwoSideRender)

  00000	80 79 24 00	 cmp	 BYTE PTR [ecx+36], 0
  00004	74 10		 je	 SHORT $LN2@RestoreDif

; 316  : 	{
; 317  : 		STATEMANAGER.SetRenderState(D3DRS_CULLMODE, m_dwLastCullRenderStateForTwoSideRendering);

  00006	ff 71 28	 push	 DWORD PTR [ecx+40]
  00009	8b 0d 00 00 00
	00		 mov	 ecx, DWORD PTR ?ms_singleton@?$CSingleton@VCStateManager@@@@0PAVCStateManager@@A ; CSingleton<CStateManager>::ms_singleton
  0000f	6a 16		 push	 22			; 00000016H
  00011	e8 00 00 00 00	 call	 ?SetRenderState@CStateManager@@QAEXW4_D3DRENDERSTATETYPE@@K@Z ; CStateManager::SetRenderState
$LN2@RestoreDif:

; 318  : 	}
; 319  : }

  00016	c3		 ret	 0
?__RestoreDiffuseRenderState@CGrannyMaterial@@IAEXXZ ENDP ; CGrannyMaterial::__RestoreDiffuseRenderState
_TEXT	ENDS
; Function compile flags: /Ogtp
; File C:\Marty 5.5\Src-Client\Client\eterGrnLib\Material.cpp
; File C:\Marty 5.5\Src-Client\Client\eterBase\Singleton.h
; File C:\Marty 5.5\Src-Client\Client\eterGrnLib\Material.cpp
;	COMDAT ?__ApplyDiffuseRenderState@CGrannyMaterial@@IAEXXZ
_TEXT	SEGMENT
?__ApplyDiffuseRenderState@CGrannyMaterial@@IAEXXZ PROC	; CGrannyMaterial::__ApplyDiffuseRenderState, COMDAT
; _this$ = ecx

; 303  : {

  00000	56		 push	 esi
; File C:\Marty 5.5\Src-Client\Client\eterBase\Singleton.h

; 27   : 		return (*ms_singleton);

  00001	8b 35 00 00 00
	00		 mov	 esi, DWORD PTR ?ms_singleton@?$CSingleton@VCStateManager@@@@0PAVCStateManager@@A ; CSingleton<CStateManager>::ms_singleton
; File C:\Marty 5.5\Src-Client\Client\eterGrnLib\Material.cpp

; 303  : {

  00007	57		 push	 edi

; 304  : 	STATEMANAGER.SetTexture(0, GetD3DTexture(0));

  00008	6a 00		 push	 0
  0000a	8b f9		 mov	 edi, ecx
  0000c	e8 00 00 00 00	 call	 ?GetD3DTexture@CGrannyMaterial@@QBEPAUIDirect3DTexture8@@H@Z ; CGrannyMaterial::GetD3DTexture
  00011	50		 push	 eax
  00012	6a 00		 push	 0
  00014	8b ce		 mov	 ecx, esi
  00016	e8 00 00 00 00	 call	 ?SetTexture@CStateManager@@QAEXKPAUIDirect3DBaseTexture8@@@Z ; CStateManager::SetTexture

; 305  : 
; 306  : 	if (m_bTwoSideRender)

  0001b	80 7f 24 00	 cmp	 BYTE PTR [edi+36], 0
  0001f	74 1f		 je	 SHORT $LN2@ApplyDiffu

; 307  : 	{
; 308  : 		m_dwLastCullRenderStateForTwoSideRendering = STATEMANAGER.GetRenderState(D3DRS_CULLMODE);

  00021	8b 0d 00 00 00
	00		 mov	 ecx, DWORD PTR ?ms_singleton@?$CSingleton@VCStateManager@@@@0PAVCStateManager@@A ; CSingleton<CStateManager>::ms_singleton
  00027	6a 16		 push	 22			; 00000016H
  00029	e8 00 00 00 00	 call	 ?GetRenderState@CStateManager@@QAEKW4_D3DRENDERSTATETYPE@@@Z ; CStateManager::GetRenderState

; 309  : 		STATEMANAGER.SetRenderState(D3DRS_CULLMODE, D3DCULL_NONE);

  0002e	6a 01		 push	 1
  00030	89 47 28	 mov	 DWORD PTR [edi+40], eax
  00033	8b 0d 00 00 00
	00		 mov	 ecx, DWORD PTR ?ms_singleton@?$CSingleton@VCStateManager@@@@0PAVCStateManager@@A ; CSingleton<CStateManager>::ms_singleton
  00039	6a 16		 push	 22			; 00000016H
  0003b	e8 00 00 00 00	 call	 ?SetRenderState@CStateManager@@QAEXW4_D3DRENDERSTATETYPE@@K@Z ; CStateManager::SetRenderState
$LN2@ApplyDiffu:

; 310  : 	}
; 311  : }

  00040	5f		 pop	 edi
  00041	5e		 pop	 esi
  00042	c3		 ret	 0
?__ApplyDiffuseRenderState@CGrannyMaterial@@IAEXXZ ENDP	; CGrannyMaterial::__ApplyDiffuseRenderState
_TEXT	ENDS
; Function compile flags: /Ogtp
; File C:\Marty 5.5\Src-Client\Client\eterGrnLib\Material.cpp
; File D:\Program Files\Microsoft Visual Studio\2022\Community\VC\Tools\MSVC\14.43.34808\include\xstring
; File C:\Marty 5.5\Src-Client\Client\eterGrnLib\Material.cpp
;	COMDAT ?__GetImagePointer@CGrannyMaterial@@IAEPAVCGraphicImage@@PBD@Z
_TEXT	SEGMENT
_localFileName$1 = -260					; size = 256
__$ArrayPad$ = -4					; size = 4
_fileName$ = 8						; size = 4
?__GetImagePointer@CGrannyMaterial@@IAEPAVCGraphicImage@@PBD@Z PROC ; CGrannyMaterial::__GetImagePointer, COMDAT
; _this$ = ecx

; 203  : {

  00000	55		 push	 ebp
  00001	8b ec		 mov	 ebp, esp
  00003	81 ec 04 01 00
	00		 sub	 esp, 260		; 00000104H
  00009	a1 00 00 00 00	 mov	 eax, DWORD PTR ___security_cookie
  0000e	33 c5		 xor	 eax, ebp
  00010	89 45 fc	 mov	 DWORD PTR __$ArrayPad$[ebp], eax
  00013	53		 push	 ebx

; 204  : 	assert(*fileName != '\0');
; 205  : 
; 206  : 	CResourceManager& rkResMgr = CResourceManager::Instance();

  00014	8b 1d 00 00 00
	00		 mov	 ebx, DWORD PTR ?ms_singleton@?$CSingleton@VCResourceManager@@@@0PAVCResourceManager@@A ; CSingleton<CResourceManager>::ms_singleton
  0001a	56		 push	 esi
  0001b	57		 push	 edi
  0001c	8b 7d 08	 mov	 edi, DWORD PTR _fileName$[ebp]

; 207  : 
; 208  : 	// SUPPORT_LOCAL_TEXTURE
; 209  : 	int fileName_len = strlen(fileName);

  0001f	8b f7		 mov	 esi, edi
  00021	8d 4e 01	 lea	 ecx, DWORD PTR [esi+1]
$LL15@GetImagePo:
  00024	8a 06		 mov	 al, BYTE PTR [esi]
  00026	46		 inc	 esi
  00027	84 c0		 test	 al, al
  00029	75 f9		 jne	 SHORT $LL15@GetImagePo
  0002b	2b f1		 sub	 esi, ecx

; 210  : 	if (fileName_len > 2 && fileName[1] != ':')

  0002d	83 fe 02	 cmp	 esi, 2
  00030	7e 49		 jle	 SHORT $LN3@GetImagePo
  00032	80 7f 01 3a	 cmp	 BYTE PTR [edi+1], 58	; 0000003aH
  00036	74 43		 je	 SHORT $LN3@GetImagePo

; 211  : 	{
; 212  : 		char localFileName[256];
; 213  : 		const std::string& modelLocalPath = GetModelLocalPath();

  00038	e8 00 00 00 00	 call	 ?GetModelLocalPath@@YAABV?$basic_string@DU?$char_traits@D@std@@V?$allocator@D@2@@std@@XZ ; GetModelLocalPath

; 214  : 
; 215  : 		int localFileName_len = modelLocalPath.length() + 1 + fileName_len;

  0003d	8b 40 10	 mov	 eax, DWORD PTR [eax+16]
  00040	40		 inc	 eax
  00041	03 c6		 add	 eax, esi

; 216  : 		if (localFileName_len < sizeof(localFileName) - 1)

  00043	3d ff 00 00 00	 cmp	 eax, 255		; 000000ffH
  00048	73 31		 jae	 SHORT $LN3@GetImagePo

; 218  : 			_snprintf(localFileName, sizeof(localFileName), "%s%s", GetModelLocalPath().c_str(), fileName);

  0004a	e8 00 00 00 00	 call	 ?GetModelLocalPath@@YAABV?$basic_string@DU?$char_traits@D@std@@V?$allocator@D@2@@std@@XZ ; GetModelLocalPath
; File D:\Program Files\Microsoft Visual Studio\2022\Community\VC\Tools\MSVC\14.43.34808\include\xstring

; 434  :         return _Myres > _Small_string_capacity;

  0004f	83 78 14 0f	 cmp	 DWORD PTR [eax+20], 15	; 0000000fH

; 426  :         if (_Large_mode_engaged()) {

  00053	76 02		 jbe	 SHORT $LN9@GetImagePo

; 427  :             _Result = _Unfancy(_Bx._Ptr);

  00055	8b 00		 mov	 eax, DWORD PTR [eax]
$LN9@GetImagePo:
; File C:\Marty 5.5\Src-Client\Client\eterGrnLib\Material.cpp

; 218  : 			_snprintf(localFileName, sizeof(localFileName), "%s%s", GetModelLocalPath().c_str(), fileName);

  00057	57		 push	 edi
  00058	50		 push	 eax
  00059	68 00 00 00 00	 push	 OFFSET ??_C@_04HDOCAJNK@?$CFs?$CFs@
  0005e	8d 85 fc fe ff
	ff		 lea	 eax, DWORD PTR _localFileName$1[ebp]
  00064	68 00 01 00 00	 push	 256			; 00000100H
  00069	50		 push	 eax
  0006a	e8 00 00 00 00	 call	 __snprintf
  0006f	83 c4 14	 add	 esp, 20			; 00000014H

; 219  : 			CResource* pResource = rkResMgr.GetResourcePointer(localFileName);

  00072	8d 85 fc fe ff
	ff		 lea	 eax, DWORD PTR _localFileName$1[ebp]
  00078	50		 push	 eax

; 220  : 			return static_cast<CGraphicImage*>(pResource);

  00079	eb 01		 jmp	 SHORT $LN21@GetImagePo
$LN3@GetImagePo:

; 221  : 		}
; 222  : 	}
; 223  : 	// END_OF_SUPPORT_LOCAL_TEXTURE
; 224  : 
; 225  : 
; 226  : 	CResource* pResource = rkResMgr.GetResourcePointer(fileName);

  0007b	57		 push	 edi
$LN21@GetImagePo:

; 227  : 	return static_cast<CGraphicImage*>(pResource);
; 228  : }

  0007c	8b cb		 mov	 ecx, ebx
  0007e	e8 00 00 00 00	 call	 ?GetResourcePointer@CResourceManager@@QAEPAVCResource@@PBD@Z ; CResourceManager::GetResourcePointer
  00083	8b 4d fc	 mov	 ecx, DWORD PTR __$ArrayPad$[ebp]
  00086	5f		 pop	 edi
  00087	5e		 pop	 esi
  00088	33 cd		 xor	 ecx, ebp
  0008a	5b		 pop	 ebx
  0008b	e8 00 00 00 00	 call	 @__security_check_cookie@4
  00090	8b e5		 mov	 esp, ebp
  00092	5d		 pop	 ebp
  00093	c2 04 00	 ret	 4
?__GetImagePointer@CGrannyMaterial@@IAEPAVCGraphicImage@@PBD@Z ENDP ; CGrannyMaterial::__GetImagePointer
_TEXT	ENDS
; Function compile flags: /Ogtp
; File C:\Marty 5.5\Src-Client\Client\eterGrnLib\Material.cpp
;	COMDAT ?GetSpecularPower@CGrannyMaterial@@QBEMXZ
_TEXT	SEGMENT
?GetSpecularPower@CGrannyMaterial@@QBEMXZ PROC		; CGrannyMaterial::GetSpecularPower, COMDAT
; _this$ = ecx

; 194  : 	return m_fSpecularPower;

  00000	d9 41 1c	 fld	 DWORD PTR [ecx+28]

; 195  : }

  00003	c3		 ret	 0
?GetSpecularPower@CGrannyMaterial@@QBEMXZ ENDP		; CGrannyMaterial::GetSpecularPower
_TEXT	ENDS
; Function compile flags: /Ogtp
; File C:\Marty 5.5\Src-Client\Client\eterGrnLib\Material.cpp
; File C:\Marty 5.5\Src-Client\Client\eterlib\Ref.h
; File C:\Marty 5.5\Src-Client\Client\eterGrnLib\Material.cpp
;	COMDAT ?GetD3DTexture@CGrannyMaterial@@QBEPAUIDirect3DTexture8@@H@Z
_TEXT	SEGMENT
_iStage$ = 8						; size = 4
?GetD3DTexture@CGrannyMaterial@@QBEPAUIDirect3DTexture8@@H@Z PROC ; CGrannyMaterial::GetD3DTexture, COMDAT
; _this$ = ecx

; 143  : {

  00000	55		 push	 ebp
  00001	8b ec		 mov	 ebp, esp
; File C:\Marty 5.5\Src-Client\Client\eterlib\Ref.h

; 62   : 			return m_pObject == NULL ? true : false;

  00003	8b 45 08	 mov	 eax, DWORD PTR _iStage$[ebp]
  00006	8b 4c 81 10	 mov	 ecx, DWORD PTR [ecx+eax*4+16]
  0000a	85 c9		 test	 ecx, ecx
; File C:\Marty 5.5\Src-Client\Client\eterGrnLib\Material.cpp

; 146  : 	if (ratImage.IsNull())

  0000c	75 06		 jne	 SHORT $LN2@GetD3DText

; 147  : 		return NULL;

  0000e	33 c0		 xor	 eax, eax

; 152  : }

  00010	5d		 pop	 ebp
  00011	c2 04 00	 ret	 4
$LN2@GetD3DText:

; 148  : 
; 149  : 	CGraphicImage * pImage = ratImage.GetPointer();
; 150  : 	const CGraphicTexture * pTexture = pImage->GetTexturePointer();

  00014	e8 00 00 00 00	 call	 ?GetTexturePointer@CGraphicImage@@QAEPAVCGraphicTexture@@XZ ; CGraphicImage::GetTexturePointer

; 151  : 	return pTexture->GetD3DTexture();

  00019	8b c8		 mov	 ecx, eax
  0001b	e8 00 00 00 00	 call	 ?GetD3DTexture@CGraphicTexture@@QBEPAUIDirect3DTexture8@@XZ ; CGraphicTexture::GetD3DTexture

; 152  : }

  00020	5d		 pop	 ebp
  00021	c2 04 00	 ret	 4
?GetD3DTexture@CGrannyMaterial@@QBEPAUIDirect3DTexture8@@H@Z ENDP ; CGrannyMaterial::GetD3DTexture
_TEXT	ENDS
; Function compile flags: /Ogtp
; File C:\Marty 5.5\Src-Client\Client\eterGrnLib\Material.cpp
; File C:\Marty 5.5\Src-Client\Client\eterlib\Ref.h
; File C:\Marty 5.5\Src-Client\Client\eterGrnLib\Material.cpp
;	COMDAT ?GetOpacityTexture@CGrannyMaterial@@QBEPBVCGraphicTexture@@XZ
_TEXT	SEGMENT
?GetOpacityTexture@CGrannyMaterial@@QBEPBVCGraphicTexture@@XZ PROC ; CGrannyMaterial::GetOpacityTexture, COMDAT
; _this$ = ecx
; File C:\Marty 5.5\Src-Client\Client\eterlib\Ref.h

; 62   : 			return m_pObject == NULL ? true : false;

  00000	8b 49 14	 mov	 ecx, DWORD PTR [ecx+20]
  00003	85 c9		 test	 ecx, ecx
; File C:\Marty 5.5\Src-Client\Client\eterGrnLib\Material.cpp

; 175  : 	if (m_roImage[1].IsNull())

  00005	75 03		 jne	 SHORT $LN2@GetOpacity

; 176  : 		return NULL;

  00007	33 c0		 xor	 eax, eax

; 179  : }

  00009	c3		 ret	 0
$LN2@GetOpacity:

; 177  : 
; 178  : 	return m_roImage[1].GetPointer()->GetTexturePointer();

  0000a	e9 00 00 00 00	 jmp	 ?GetTexturePointer@CGraphicImage@@QAEPAVCGraphicTexture@@XZ ; CGraphicImage::GetTexturePointer
?GetOpacityTexture@CGrannyMaterial@@QBEPBVCGraphicTexture@@XZ ENDP ; CGrannyMaterial::GetOpacityTexture
_TEXT	ENDS
; Function compile flags: /Ogtp
; File C:\Marty 5.5\Src-Client\Client\eterGrnLib\Material.cpp
; File C:\Marty 5.5\Src-Client\Client\eterlib\Ref.h
; File C:\Marty 5.5\Src-Client\Client\eterGrnLib\Material.cpp
;	COMDAT ?GetDiffuseTexture@CGrannyMaterial@@QBEPBVCGraphicTexture@@XZ
_TEXT	SEGMENT
?GetDiffuseTexture@CGrannyMaterial@@QBEPBVCGraphicTexture@@XZ PROC ; CGrannyMaterial::GetDiffuseTexture, COMDAT
; _this$ = ecx
; File C:\Marty 5.5\Src-Client\Client\eterlib\Ref.h

; 62   : 			return m_pObject == NULL ? true : false;

  00000	8b 49 10	 mov	 ecx, DWORD PTR [ecx+16]
  00003	85 c9		 test	 ecx, ecx
; File C:\Marty 5.5\Src-Client\Client\eterGrnLib\Material.cpp

; 167  : 	if (m_roImage[0].IsNull())

  00005	75 03		 jne	 SHORT $LN2@GetDiffuse

; 168  : 		return NULL;

  00007	33 c0		 xor	 eax, eax

; 171  : }

  00009	c3		 ret	 0
$LN2@GetDiffuse:

; 169  : 
; 170  : 	return m_roImage[0].GetPointer()->GetTexturePointer();

  0000a	e9 00 00 00 00	 jmp	 ?GetTexturePointer@CGraphicImage@@QAEPAVCGraphicTexture@@XZ ; CGraphicImage::GetTexturePointer
?GetDiffuseTexture@CGrannyMaterial@@QBEPBVCGraphicTexture@@XZ ENDP ; CGrannyMaterial::GetDiffuseTexture
_TEXT	ENDS
; Function compile flags: /Ogtp
; File C:\Marty 5.5\Src-Client\Client\eterGrnLib\Material.cpp
; File C:\Marty 5.5\Src-Client\Client\eterlib\Ref.h
; File C:\Marty 5.5\Src-Client\Client\eterGrnLib\Material.cpp
;	COMDAT ?GetImagePointer@CGrannyMaterial@@QBEPAVCGraphicImage@@H@Z
_TEXT	SEGMENT
_iStage$ = 8						; size = 4
?GetImagePointer@CGrannyMaterial@@QBEPAVCGraphicImage@@H@Z PROC ; CGrannyMaterial::GetImagePointer, COMDAT
; _this$ = ecx

; 155  : {

  00000	55		 push	 ebp
  00001	8b ec		 mov	 ebp, esp
; File C:\Marty 5.5\Src-Client\Client\eterlib\Ref.h

; 62   : 			return m_pObject == NULL ? true : false;

  00003	8b 45 08	 mov	 eax, DWORD PTR _iStage$[ebp]
; File C:\Marty 5.5\Src-Client\Client\eterGrnLib\Material.cpp

; 159  : 		return NULL;

  00006	8b 44 81 10	 mov	 eax, DWORD PTR [ecx+eax*4+16]

; 160  : 
; 161  : 	CGraphicImage * pImage = ratImage.GetPointer();
; 162  : 	return pImage;
; 163  : }

  0000a	5d		 pop	 ebp
  0000b	c2 04 00	 ret	 4
?GetImagePointer@CGrannyMaterial@@QBEPAVCGraphicImage@@H@Z ENDP ; CGrannyMaterial::GetImagePointer
_TEXT	ENDS
; Function compile flags: /Ogtp
; File C:\Marty 5.5\Src-Client\Client\eterGrnLib\Material.cpp
;	COMDAT ?GetType@CGrannyMaterial@@QBE?AW4EType@1@XZ
_TEXT	SEGMENT
?GetType@CGrannyMaterial@@QBE?AW4EType@1@XZ PROC	; CGrannyMaterial::GetType, COMDAT
; _this$ = ecx

; 74   : 	return m_eType;

  00000	8b 41 18	 mov	 eax, DWORD PTR [ecx+24]

; 75   : }

  00003	c3		 ret	 0
?GetType@CGrannyMaterial@@QBE?AW4EType@1@XZ ENDP	; CGrannyMaterial::GetType
_TEXT	ENDS
; Function compile flags: /Ogtp
; File C:\Marty 5.5\Src-Client\Client\eterGrnLib\Material.cpp
; File C:\Marty 5.5\Src-Client\Client\eterlib\Ref.h
; File C:\Marty 5.5\Src-Client\Client\eterGrnLib\Material.cpp
; File C:\Marty 5.5\Src-Client\Client\eterlib\Ref.h
; File C:\Marty 5.5\Src-Client\Client\eterGrnLib\Material.cpp
;	COMDAT ?SetImagePointer@CGrannyMaterial@@QAEXHPAVCGraphicImage@@@Z
_TEXT	SEGMENT
_iStage$ = 8						; size = 4
_pImage$ = 12						; size = 4
?SetImagePointer@CGrannyMaterial@@QAEXHPAVCGraphicImage@@@Z PROC ; CGrannyMaterial::SetImagePointer, COMDAT
; _this$ = ecx

; 78   : {

  00000	55		 push	 ebp
  00001	8b ec		 mov	 ebp, esp

; 79   : 	assert(iStage<2 && "CGrannyMaterial::SetImagePointer");
; 80   : 	m_roImage[iStage]=pImage;

  00003	8b 45 08	 mov	 eax, DWORD PTR _iStage$[ebp]
; File C:\Marty 5.5\Src-Client\Client\eterlib\Ref.h

; 69   : 			m_pObject = pObject;

  00006	8b 55 0c	 mov	 edx, DWORD PTR _pImage$[ebp]
; File C:\Marty 5.5\Src-Client\Client\eterGrnLib\Material.cpp

; 78   : {

  00009	56		 push	 esi
; File C:\Marty 5.5\Src-Client\Client\eterlib\Ref.h

; 67   : 			CReferenceObject* pOldObject = m_pObject;

  0000a	8b 74 81 10	 mov	 esi, DWORD PTR [ecx+eax*4+16]

; 69   : 			m_pObject = pObject;

  0000e	89 54 81 10	 mov	 DWORD PTR [ecx+eax*4+16], edx

; 70   : 
; 71   : 			if (m_pObject)

  00012	85 d2		 test	 edx, edx
  00014	74 07		 je	 SHORT $LN6@SetImagePo

; 72   : 				m_pObject->AddReference();

  00016	8b ca		 mov	 ecx, edx
  00018	e8 00 00 00 00	 call	 ?AddReference@CReferenceObject@@QAEXXZ ; CReferenceObject::AddReference
$LN6@SetImagePo:

; 73   : 
; 74   : 			if (pOldObject)

  0001d	85 f6		 test	 esi, esi
  0001f	74 07		 je	 SHORT $LN7@SetImagePo

; 75   : 				pOldObject->Release();

  00021	8b ce		 mov	 ecx, esi
  00023	e8 00 00 00 00	 call	 ?Release@CReferenceObject@@QAEXXZ ; CReferenceObject::Release
$LN7@SetImagePo:
  00028	5e		 pop	 esi
; File C:\Marty 5.5\Src-Client\Client\eterGrnLib\Material.cpp

; 81   : }

  00029	5d		 pop	 ebp
  0002a	c2 08 00	 ret	 8
?SetImagePointer@CGrannyMaterial@@QAEXHPAVCGraphicImage@@@Z ENDP ; CGrannyMaterial::SetImagePointer
_TEXT	ENDS
; Function compile flags: /Ogtp
; File C:\Marty 5.5\Src-Client\Client\eterGrnLib\Material.cpp
; File C:\Marty 5.5\Src-Client\Client\eterlib\Ref.h
; File C:\Marty 5.5\Src-Client\Client\eterGrnLib\Material.cpp
; File C:\Marty 5.5\Src-Client\Client\eterlib\Ref.h
; File C:\Marty 5.5\Src-Client\Client\eterGrnLib\Material.cpp
;	COMDAT ?CreateFromGrannyMaterialPointer@CGrannyMaterial@@QAE_NPAUgranny_material@@@Z
_TEXT	SEGMENT
_twoSideResult$1 = -88					; size = 8
_pgrnOpacityTexture$1$ = -80				; size = 4
_pgrnDiffuseTexture$1$ = -76				; size = 4
_twoSided$2 = -72					; size = 4
_TwoSidedFieldType$3 = -68				; size = 64
__$ArrayPad$ = -4					; size = 4
_pgrnMaterial$ = 8					; size = 4
?CreateFromGrannyMaterialPointer@CGrannyMaterial@@QAE_NPAUgranny_material@@@Z PROC ; CGrannyMaterial::CreateFromGrannyMaterialPointer, COMDAT
; _this$ = ecx

; 231  : {

  00000	55		 push	 ebp
  00001	8b ec		 mov	 ebp, esp
  00003	83 ec 58	 sub	 esp, 88			; 00000058H
  00006	a1 00 00 00 00	 mov	 eax, DWORD PTR ___security_cookie
  0000b	33 c5		 xor	 eax, ebp
  0000d	89 45 fc	 mov	 DWORD PTR __$ArrayPad$[ebp], eax
  00010	53		 push	 ebx
  00011	8b 5d 08	 mov	 ebx, DWORD PTR _pgrnMaterial$[ebp]
  00014	57		 push	 edi
  00015	8b f9		 mov	 edi, ecx

; 232  : 	m_pgrnMaterial = pgrnMaterial;

  00017	89 5f 0c	 mov	 DWORD PTR [edi+12], ebx

; 233  : 
; 234  : 	granny_texture * pgrnDiffuseTexture = NULL;
; 235  : 	granny_texture * pgrnOpacityTexture = NULL;
; 236  : 
; 237  : 	if (pgrnMaterial)

  0001a	85 db		 test	 ebx, ebx
  0001c	0f 84 1b 01 00
	00		 je	 $LN17@CreateFrom

; 238  : 	{
; 239  : 		if (pgrnMaterial->MapCount > 1 && !_strnicmp(pgrnMaterial->Name, "Blend", 5))

  00022	83 7b 04 01	 cmp	 DWORD PTR [ebx+4], 1
  00026	56		 push	 esi
  00027	7e 2f		 jle	 SHORT $LN22@CreateFrom
  00029	6a 05		 push	 5
  0002b	68 00 00 00 00	 push	 OFFSET ??_C@_05BPEPCAMP@Blend@
  00030	ff 33		 push	 DWORD PTR [ebx]
  00032	e8 00 00 00 00	 call	 __strnicmp
  00037	83 c4 0c	 add	 esp, 12			; 0000000cH
  0003a	85 c0		 test	 eax, eax
  0003c	75 1a		 jne	 SHORT $LN22@CreateFrom

; 240  : 		{
; 241  : 			pgrnDiffuseTexture = GrannyGetMaterialTextureByType(pgrnMaterial->Maps[0].Material, GrannyDiffuseColorTexture);

  0003e	8b 43 08	 mov	 eax, DWORD PTR [ebx+8]
  00041	8b 35 00 00 00
	00		 mov	 esi, DWORD PTR __imp__GrannyGetMaterialTextureByType@8
  00047	6a 02		 push	 2
  00049	ff 70 04	 push	 DWORD PTR [eax+4]
  0004c	ff d6		 call	 esi

; 242  : 			pgrnOpacityTexture = GrannyGetMaterialTextureByType(pgrnMaterial->Maps[1].Material, GrannyDiffuseColorTexture);

  0004e	8b 4b 08	 mov	 ecx, DWORD PTR [ebx+8]
  00051	6a 02		 push	 2
  00053	ff 71 0c	 push	 DWORD PTR [ecx+12]

; 243  : 		}

  00056	eb 12		 jmp	 SHORT $LN34@CreateFrom
$LN22@CreateFrom:

; 244  : 		else
; 245  : 		{
; 246  : 			pgrnDiffuseTexture = GrannyGetMaterialTextureByType(m_pgrnMaterial, GrannyDiffuseColorTexture);

  00058	8b 35 00 00 00
	00		 mov	 esi, DWORD PTR __imp__GrannyGetMaterialTextureByType@8
  0005e	6a 02		 push	 2
  00060	ff 77 0c	 push	 DWORD PTR [edi+12]
  00063	ff d6		 call	 esi

; 247  : 			pgrnOpacityTexture = GrannyGetMaterialTextureByType(m_pgrnMaterial, GrannyOpacityTexture);

  00065	6a 05		 push	 5
  00067	ff 77 0c	 push	 DWORD PTR [edi+12]
$LN34@CreateFrom:

; 248  : 		}
; 249  : 
; 250  : 		{
; 251  : 			granny_int32 twoSided = 0;

  0006a	89 45 b4	 mov	 DWORD PTR _pgrnDiffuseTexture$1$[ebp], eax
  0006d	ff d6		 call	 esi
  0006f	89 45 b0	 mov	 DWORD PTR _pgrnOpacityTexture$1$[ebp], eax
  00072	0f 57 c0	 xorps	 xmm0, xmm0

; 252  : 			granny_data_type_definition TwoSidedFieldType[] =
; 253  : 			{
; 254  : 				{GrannyInt32Member, "Two-sided"},
; 255  : 				{GrannyEndMember},
; 256  : 			};
; 257  : #if GrannyProductMinorVersion==4
; 258  : 			granny_variant twoSideResult = GrannyFindMatchingMember(pgrnMaterial->ExtendedData.Type, pgrnMaterial->ExtendedData.Object, "Two-sided");
; 259  : 
; 260  : 			if (NULL != twoSideResult.Type)
; 261  : 				GrannyConvertSingleObject(twoSideResult.Type, twoSideResult.Object, TwoSidedFieldType, &twoSided);
; 262  : #elif GrannyProductMinorVersion==7
; 263  : 			granny_variant twoSideResult;
; 264  : 			bool findMatchResult = GrannyFindMatchingMember(pgrnMaterial->ExtendedData.Type, pgrnMaterial->ExtendedData.Object, "Two-sided", &twoSideResult);
; 265  : 			if (NULL != twoSideResult.Type && findMatchResult)
; 266  : 				GrannyConvertSingleObject(twoSideResult.Type, twoSideResult.Object, TwoSidedFieldType, &twoSided);
; 267  : #elif GrannyProductMinorVersion==11 || GrannyProductMinorVersion==9 || GrannyProductMinorVersion==8
; 268  : 			granny_variant twoSideResult;
; 269  : 			bool gfmm_bool = GrannyFindMatchingMember(pgrnMaterial->ExtendedData.Type, pgrnMaterial->ExtendedData.Object, "Two-sided", &twoSideResult);

  00075	8d 45 a8	 lea	 eax, DWORD PTR _twoSideResult$1[ebp]
  00078	c7 45 b8 00 00
	00 00		 mov	 DWORD PTR _twoSided$2[ebp], 0
  0007f	50		 push	 eax
  00080	68 00 00 00 00	 push	 OFFSET ??_C@_09HNLEFIID@Two?9sided@
  00085	ff 73 14	 push	 DWORD PTR [ebx+20]
  00088	c7 45 bc 13 00
	00 00		 mov	 DWORD PTR _TwoSidedFieldType$3[ebp], 19 ; 00000013H
  0008f	ff 73 10	 push	 DWORD PTR [ebx+16]
  00092	c7 45 c0 00 00
	00 00		 mov	 DWORD PTR _TwoSidedFieldType$3[ebp+4], OFFSET ??_C@_09HNLEFIID@Two?9sided@
  00099	0f 11 45 c4	 movups	 XMMWORD PTR _TwoSidedFieldType$3[ebp+8], xmm0
  0009d	c7 45 dc 00 00
	00 00		 mov	 DWORD PTR _TwoSidedFieldType$3[ebp+32], 0
  000a4	66 0f d6 45 d4	 movq	 QWORD PTR _TwoSidedFieldType$3[ebp+24], xmm0
  000a9	0f 11 45 e0	 movups	 XMMWORD PTR _TwoSidedFieldType$3[ebp+36], xmm0
  000ad	c7 45 f8 00 00
	00 00		 mov	 DWORD PTR _TwoSidedFieldType$3[ebp+60], 0
  000b4	66 0f d6 45 f0	 movq	 QWORD PTR _TwoSidedFieldType$3[ebp+52], xmm0
  000b9	ff 15 00 00 00
	00		 call	 DWORD PTR __imp__GrannyFindMatchingMember@16

; 270  : 			if (NULL != twoSideResult.Type)

  000bf	8b 45 a8	 mov	 eax, DWORD PTR _twoSideResult$1[ebp]
  000c2	85 c0		 test	 eax, eax
  000c4	74 14		 je	 SHORT $LN5@CreateFrom

; 271  : 				GrannyConvertSingleObject(twoSideResult.Type, twoSideResult.Object, TwoSidedFieldType, &twoSided, 0);

  000c6	6a 00		 push	 0
  000c8	8d 4d b8	 lea	 ecx, DWORD PTR _twoSided$2[ebp]
  000cb	51		 push	 ecx
  000cc	8d 4d bc	 lea	 ecx, DWORD PTR _TwoSidedFieldType$3[ebp]
  000cf	51		 push	 ecx
  000d0	ff 75 ac	 push	 DWORD PTR _twoSideResult$1[ebp+4]
  000d3	50		 push	 eax
  000d4	ff 15 00 00 00
	00		 call	 DWORD PTR __imp__GrannyConvertSingleObject@20
$LN5@CreateFrom:

; 272  : #else
; 273  : #error "unknown granny version"
; 274  : #endif
; 275  : 
; 276  : 			m_bTwoSideRender = 1 == twoSided;

  000da	83 7d b8 01	 cmp	 DWORD PTR _twoSided$2[ebp], 1
  000de	0f 94 c0	 sete	 al
  000e1	88 47 24	 mov	 BYTE PTR [edi+36], al

; 277  : 		}
; 278  : 	}
; 279  : 
; 280  : 	if (pgrnDiffuseTexture)

  000e4	8b 45 b4	 mov	 eax, DWORD PTR _pgrnDiffuseTexture$1$[ebp]
  000e7	85 c0		 test	 eax, eax
  000e9	74 25		 je	 SHORT $LN13@CreateFrom

; 281  : 		m_roImage[0].SetPointer(__GetImagePointer(pgrnDiffuseTexture->FromFileName));

  000eb	ff 30		 push	 DWORD PTR [eax]
  000ed	8b cf		 mov	 ecx, edi
  000ef	e8 00 00 00 00	 call	 ?__GetImagePointer@CGrannyMaterial@@IAEPAVCGraphicImage@@PBD@Z ; CGrannyMaterial::__GetImagePointer
; File C:\Marty 5.5\Src-Client\Client\eterlib\Ref.h

; 67   : 			CReferenceObject* pOldObject = m_pObject;

  000f4	8b 77 10	 mov	 esi, DWORD PTR [edi+16]

; 68   : 
; 69   : 			m_pObject = pObject;

  000f7	89 47 10	 mov	 DWORD PTR [edi+16], eax

; 70   : 
; 71   : 			if (m_pObject)

  000fa	85 c0		 test	 eax, eax
  000fc	74 07		 je	 SHORT $LN12@CreateFrom

; 72   : 				m_pObject->AddReference();

  000fe	8b c8		 mov	 ecx, eax
  00100	e8 00 00 00 00	 call	 ?AddReference@CReferenceObject@@QAEXXZ ; CReferenceObject::AddReference
$LN12@CreateFrom:

; 73   : 
; 74   : 			if (pOldObject)

  00105	85 f6		 test	 esi, esi
  00107	74 07		 je	 SHORT $LN13@CreateFrom

; 75   : 				pOldObject->Release();

  00109	8b ce		 mov	 ecx, esi
  0010b	e8 00 00 00 00	 call	 ?Release@CReferenceObject@@QAEXXZ ; CReferenceObject::Release
$LN13@CreateFrom:
; File C:\Marty 5.5\Src-Client\Client\eterGrnLib\Material.cpp

; 283  : 	if (pgrnOpacityTexture)

  00110	8b 45 b0	 mov	 eax, DWORD PTR _pgrnOpacityTexture$1$[ebp]
  00113	85 c0		 test	 eax, eax
  00115	74 25		 je	 SHORT $LN33@CreateFrom

; 284  : 		m_roImage[1].SetPointer(__GetImagePointer(pgrnOpacityTexture->FromFileName));

  00117	ff 30		 push	 DWORD PTR [eax]
  00119	8b cf		 mov	 ecx, edi
  0011b	e8 00 00 00 00	 call	 ?__GetImagePointer@CGrannyMaterial@@IAEPAVCGraphicImage@@PBD@Z ; CGrannyMaterial::__GetImagePointer
; File C:\Marty 5.5\Src-Client\Client\eterlib\Ref.h

; 67   : 			CReferenceObject* pOldObject = m_pObject;

  00120	8b 77 14	 mov	 esi, DWORD PTR [edi+20]

; 68   : 
; 69   : 			m_pObject = pObject;

  00123	89 47 14	 mov	 DWORD PTR [edi+20], eax

; 70   : 
; 71   : 			if (m_pObject)

  00126	85 c0		 test	 eax, eax
  00128	74 07		 je	 SHORT $LN16@CreateFrom

; 72   : 				m_pObject->AddReference();

  0012a	8b c8		 mov	 ecx, eax
  0012c	e8 00 00 00 00	 call	 ?AddReference@CReferenceObject@@QAEXXZ ; CReferenceObject::AddReference
$LN16@CreateFrom:

; 73   : 
; 74   : 			if (pOldObject)

  00131	85 f6		 test	 esi, esi
  00133	74 07		 je	 SHORT $LN33@CreateFrom

; 75   : 				pOldObject->Release();

  00135	8b ce		 mov	 ecx, esi
  00137	e8 00 00 00 00	 call	 ?Release@CReferenceObject@@QAEXXZ ; CReferenceObject::Release
$LN33@CreateFrom:
  0013c	5e		 pop	 esi
$LN17@CreateFrom:
; File C:\Marty 5.5\Src-Client\Client\eterGrnLib\Material.cpp

; 292  : }

  0013d	8b 4d fc	 mov	 ecx, DWORD PTR __$ArrayPad$[ebp]
  00140	33 c0		 xor	 eax, eax
  00142	39 47 14	 cmp	 DWORD PTR [edi+20], eax
  00145	0f 95 c0	 setne	 al
  00148	33 cd		 xor	 ecx, ebp
  0014a	89 47 18	 mov	 DWORD PTR [edi+24], eax
  0014d	b0 01		 mov	 al, 1
  0014f	5f		 pop	 edi
  00150	5b		 pop	 ebx
  00151	e8 00 00 00 00	 call	 @__security_check_cookie@4
  00156	8b e5		 mov	 esp, ebp
  00158	5d		 pop	 ebp
  00159	c2 04 00	 ret	 4
?CreateFromGrannyMaterialPointer@CGrannyMaterial@@QAE_NPAUgranny_material@@@Z ENDP ; CGrannyMaterial::CreateFromGrannyMaterialPointer
_TEXT	ENDS
; Function compile flags: /Ogtp
; File C:\Marty 5.5\Src-Client\Client\eterGrnLib\Material.cpp
; File C:\Marty 5.5\Src-Client\Client\eterlib\Ref.h
; File C:\Marty 5.5\Src-Client\Client\eterGrnLib\Material.cpp
;	COMDAT ?Initialize@CGrannyMaterial@@IAEXXZ
_TEXT	SEGMENT
?Initialize@CGrannyMaterial@@IAEXXZ PROC		; CGrannyMaterial::Initialize, COMDAT
; _this$ = ecx

; 295  : {

  00000	56		 push	 esi
  00001	8b f1		 mov	 esi, ecx
; File C:\Marty 5.5\Src-Client\Client\eterlib\Ref.h

; 67   : 			CReferenceObject* pOldObject = m_pObject;

  00003	8b 4e 10	 mov	 ecx, DWORD PTR [esi+16]

; 68   : 
; 69   : 			m_pObject = pObject;

  00006	c7 46 10 00 00
	00 00		 mov	 DWORD PTR [esi+16], 0

; 70   : 
; 71   : 			if (m_pObject)
; 72   : 				m_pObject->AddReference();
; 73   : 
; 74   : 			if (pOldObject)

  0000d	85 c9		 test	 ecx, ecx
  0000f	74 05		 je	 SHORT $LN7@Initialize

; 75   : 				pOldObject->Release();

  00011	e8 00 00 00 00	 call	 ?Release@CReferenceObject@@QAEXXZ ; CReferenceObject::Release
$LN7@Initialize:

; 67   : 			CReferenceObject* pOldObject = m_pObject;

  00016	8b 4e 14	 mov	 ecx, DWORD PTR [esi+20]

; 68   : 
; 69   : 			m_pObject = pObject;

  00019	c7 46 14 00 00
	00 00		 mov	 DWORD PTR [esi+20], 0

; 70   : 
; 71   : 			if (m_pObject)
; 72   : 				m_pObject->AddReference();
; 73   : 
; 74   : 			if (pOldObject)

  00020	85 c9		 test	 ecx, ecx
  00022	74 05		 je	 SHORT $LN13@Initialize

; 75   : 				pOldObject->Release();

  00024	e8 00 00 00 00	 call	 ?Release@CReferenceObject@@QAEXXZ ; CReferenceObject::Release
$LN13@Initialize:
; File C:\Marty 5.5\Src-Client\Client\eterGrnLib\Material.cpp

; 299  : 	SetSpecularInfo(FALSE, 0.0f, 0);

  00029	6a 00		 push	 0
  0002b	51		 push	 ecx
  0002c	c7 04 24 00 00
	00 00		 mov	 DWORD PTR [esp], 0
  00033	8b ce		 mov	 ecx, esi
  00035	6a 00		 push	 0
  00037	e8 00 00 00 00	 call	 ?SetSpecularInfo@CGrannyMaterial@@QAEXHME@Z ; CGrannyMaterial::SetSpecularInfo
  0003c	5e		 pop	 esi

; 300  : }

  0003d	c3		 ret	 0
?Initialize@CGrannyMaterial@@IAEXXZ ENDP		; CGrannyMaterial::Initialize
_TEXT	ENDS
; Function compile flags: /Ogtp
; File C:\Marty 5.5\Src-Client\Client\eterGrnLib\Material.cpp
;	COMDAT ?RestoreRenderState@CGrannyMaterial@@QAEXXZ
_TEXT	SEGMENT
?RestoreRenderState@CGrannyMaterial@@QAEXXZ PROC	; CGrannyMaterial::RestoreRenderState, COMDAT
; _this$ = ecx

; 47   : {

  00000	8b c1		 mov	 eax, ecx

; 48   : 	assert(m_pfnRestoreRenderState!=NULL && "CGrannyMaterial::RestoreRenderState");
; 49   : 	(this->*m_pfnRestoreRenderState)();

  00002	8b 40 34	 mov	 eax, DWORD PTR [eax+52]
  00005	ff e0		 jmp	 eax
?RestoreRenderState@CGrannyMaterial@@QAEXXZ ENDP	; CGrannyMaterial::RestoreRenderState
_TEXT	ENDS
; Function compile flags: /Ogtp
; File C:\Marty 5.5\Src-Client\Client\eterGrnLib\Material.cpp
;	COMDAT ?ApplyRenderState@CGrannyMaterial@@QAEXXZ
_TEXT	SEGMENT
?ApplyRenderState@CGrannyMaterial@@QAEXXZ PROC		; CGrannyMaterial::ApplyRenderState, COMDAT
; _this$ = ecx

; 41   : {

  00000	8b c1		 mov	 eax, ecx

; 42   : 	assert(m_pfnApplyRenderState!=NULL && "CGrannyMaterial::SaveRenderState");
; 43   : 	(this->*m_pfnApplyRenderState)();

  00002	8b 40 30	 mov	 eax, DWORD PTR [eax+48]
  00005	ff e0		 jmp	 eax
?ApplyRenderState@CGrannyMaterial@@QAEXXZ ENDP		; CGrannyMaterial::ApplyRenderState
_TEXT	ENDS
; Function compile flags: /Ogtp
; File C:\Marty 5.5\Src-Client\Client\eterGrnLib\Material.cpp
;	COMDAT ?SetSpecularInfo@CGrannyMaterial@@QAEXHME@Z
_TEXT	SEGMENT
_bFlag$ = 8						; size = 4
_fPower$ = 12						; size = 4
_uSphereMapIndex$ = 16					; size = 1
?SetSpecularInfo@CGrannyMaterial@@QAEXHME@Z PROC	; CGrannyMaterial::SetSpecularInfo, COMDAT
; _this$ = ecx

; 116  : {

  00000	55		 push	 ebp
  00001	8b ec		 mov	 ebp, esp

; 117  : 	m_fSpecularPower = fPower;
; 118  : 	m_bSphereMapIndex = uSphereMapIndex;

  00003	8a 45 10	 mov	 al, BYTE PTR _uSphereMapIndex$[ebp]

; 119  : 	m_bSpecularEnable = bFlag;

  00006	8b 55 08	 mov	 edx, DWORD PTR _bFlag$[ebp]

; 120  : 
; 121  : 	if (bFlag)
; 122  : 	{
; 123  : 		m_pfnApplyRenderState = &CGrannyMaterial::__ApplySpecularRenderState;
; 124  : 		m_pfnRestoreRenderState = &CGrannyMaterial::__RestoreSpecularRenderState;
; 125  : 	}
; 126  : 	else
; 127  : 	{
; 128  : 		m_pfnApplyRenderState = &CGrannyMaterial::__ApplyDiffuseRenderState;
; 129  : 		m_pfnRestoreRenderState = &CGrannyMaterial::__RestoreDiffuseRenderState;
; 130  : 	}
; 131  : }

  00009	85 d2		 test	 edx, edx
  0000b	f3 0f 10 45 0c	 movss	 xmm0, DWORD PTR _fPower$[ebp]
  00010	88 41 2c	 mov	 BYTE PTR [ecx+44], al
  00013	b8 00 00 00 00	 mov	 eax, OFFSET ?__ApplySpecularRenderState@CGrannyMaterial@@IAEXXZ ; CGrannyMaterial::__ApplySpecularRenderState
  00018	56		 push	 esi
  00019	be 00 00 00 00	 mov	 esi, OFFSET ?__ApplyDiffuseRenderState@CGrannyMaterial@@IAEXXZ ; CGrannyMaterial::__ApplyDiffuseRenderState
  0001e	f3 0f 11 41 1c	 movss	 DWORD PTR [ecx+28], xmm0
  00023	0f 44 c6	 cmove	 eax, esi
  00026	89 51 20	 mov	 DWORD PTR [ecx+32], edx
  00029	89 41 30	 mov	 DWORD PTR [ecx+48], eax
  0002c	be 00 00 00 00	 mov	 esi, OFFSET ?__RestoreDiffuseRenderState@CGrannyMaterial@@IAEXXZ ; CGrannyMaterial::__RestoreDiffuseRenderState
  00031	b8 00 00 00 00	 mov	 eax, OFFSET ?__RestoreSpecularRenderState@CGrannyMaterial@@IAEXXZ ; CGrannyMaterial::__RestoreSpecularRenderState
  00036	0f 44 c6	 cmove	 eax, esi
  00039	89 41 34	 mov	 DWORD PTR [ecx+52], eax
  0003c	5e		 pop	 esi
  0003d	5d		 pop	 ebp
  0003e	c2 0c 00	 ret	 12			; 0000000cH
?SetSpecularInfo@CGrannyMaterial@@QAEXHME@Z ENDP	; CGrannyMaterial::SetSpecularInfo
_TEXT	ENDS
; Function compile flags: /Ogtp
; File C:\Marty 5.5\Src-Client\Client\eterGrnLib\Material.cpp
; File D:\Program Files\Microsoft Visual Studio\2022\Community\VC\Tools\MSVC\14.43.34808\include\__msvc_string_view.hpp
; File C:\Marty 5.5\Src-Client\Client\eterGrnLib\Material.cpp
; File D:\Program Files\Microsoft Visual Studio\2022\Community\VC\Tools\MSVC\14.43.34808\include\xstring
; File D:\Program Files\Microsoft Visual Studio\2022\Community\VC\Tools\MSVC\14.43.34808\include\__msvc_string_view.hpp
; File D:\Program Files\Microsoft Visual Studio\2022\Community\VC\Tools\MSVC\14.43.34808\include\xstring
; File C:\Marty 5.5\Src-Client\Client\eterGrnLib\Material.cpp
; File D:\Program Files\Microsoft Visual Studio\2022\Community\VC\Tools\MSVC\14.43.34808\include\__msvc_string_view.hpp
; File D:\Program Files\Microsoft Visual Studio\2022\Community\VC\Tools\MSVC\14.43.34808\include\xstring
; File D:\Program Files\Microsoft Visual Studio\2022\Community\VC\Tools\MSVC\14.43.34808\include\__msvc_string_view.hpp
; File D:\Program Files\Microsoft Visual Studio\2022\Community\VC\Tools\MSVC\14.43.34808\include\xstring
; File C:\Marty 5.5\Src-Client\Client\eterGrnLib\Material.cpp
; File D:\Program Files\Microsoft Visual Studio\2022\Community\VC\Tools\MSVC\14.43.34808\include\xstring
; File D:\Program Files\Microsoft Visual Studio\2022\Community\VC\Tools\MSVC\14.43.34808\include\__msvc_string_view.hpp
; File D:\Program Files\Microsoft Visual Studio\2022\Community\VC\Tools\MSVC\14.43.34808\include\xstring
; File C:\Marty 5.5\Src-Client\Client\eterGrnLib\Material.cpp
; File D:\Program Files\Microsoft Visual Studio\2022\Community\VC\Tools\MSVC\14.43.34808\include\xstring
; File D:\Program Files\Microsoft Visual Studio\2022\Community\VC\Tools\MSVC\14.43.34808\include\__msvc_string_view.hpp
; File C:\Marty 5.5\Src-Client\Client\eterGrnLib\Material.cpp
; File D:\Program Files\Microsoft Visual Studio\2022\Community\VC\Tools\MSVC\14.43.34808\include\xstring
; File D:\Program Files\Microsoft Visual Studio\2022\Community\VC\Tools\MSVC\14.43.34808\include\xmemory
; File C:\Marty 5.5\Src-Client\Client\eterGrnLib\Material.cpp
; File D:\Program Files\Microsoft Visual Studio\2022\Community\VC\Tools\MSVC\14.43.34808\include\xstring
; File D:\Program Files\Microsoft Visual Studio\2022\Community\VC\Tools\MSVC\14.43.34808\include\xmemory
; File C:\Marty 5.5\Src-Client\Client\eterGrnLib\Material.cpp
; File D:\Program Files\Microsoft Visual Studio\2022\Community\VC\Tools\MSVC\14.43.34808\include\__msvc_string_view.hpp
; File D:\Program Files\Microsoft Visual Studio\2022\Community\VC\Tools\MSVC\14.43.34808\include\xstring
; File D:\Program Files\Microsoft Visual Studio\2022\Community\VC\Tools\MSVC\14.43.34808\include\__msvc_string_view.hpp
; File D:\Program Files\Microsoft Visual Studio\2022\Community\VC\Tools\MSVC\14.43.34808\include\xstring
; File C:\Marty 5.5\Src-Client\Client\eterGrnLib\Material.cpp
; File D:\Program Files\Microsoft Visual Studio\2022\Community\VC\Tools\MSVC\14.43.34808\include\xstring
; File D:\Program Files\Microsoft Visual Studio\2022\Community\VC\Tools\MSVC\14.43.34808\include\__msvc_string_view.hpp
; File D:\Program Files\Microsoft Visual Studio\2022\Community\VC\Tools\MSVC\14.43.34808\include\xstring
; File C:\Marty 5.5\Src-Client\Client\eterGrnLib\Material.cpp
; File D:\Program Files\Microsoft Visual Studio\2022\Community\VC\Tools\MSVC\14.43.34808\include\xstring
; File D:\Program Files\Microsoft Visual Studio\2022\Community\VC\Tools\MSVC\14.43.34808\include\__msvc_string_view.hpp
; File C:\Marty 5.5\Src-Client\Client\eterGrnLib\Material.cpp
; File D:\Program Files\Microsoft Visual Studio\2022\Community\VC\Tools\MSVC\14.43.34808\include\xstring
; File D:\Program Files\Microsoft Visual Studio\2022\Community\VC\Tools\MSVC\14.43.34808\include\xmemory
; File D:\Program Files\Microsoft Visual Studio\2022\Community\VC\Tools\MSVC\14.43.34808\include\xstring
; File D:\Program Files\Microsoft Visual Studio\2022\Community\VC\Tools\MSVC\14.43.34808\include\xmemory
; File C:\Marty 5.5\Src-Client\Client\eterGrnLib\Material.cpp
; File D:\Program Files\Microsoft Visual Studio\2022\Community\VC\Tools\MSVC\14.43.34808\include\xstring
; File D:\Program Files\Microsoft Visual Studio\2022\Community\VC\Tools\MSVC\14.43.34808\include\xmemory
; File D:\Program Files\Microsoft Visual Studio\2022\Community\VC\Tools\MSVC\14.43.34808\include\xstring
; File D:\Program Files\Microsoft Visual Studio\2022\Community\VC\Tools\MSVC\14.43.34808\include\xmemory
; File C:\Marty 5.5\Src-Client\Client\eterGrnLib\Material.cpp
; File D:\Program Files\Microsoft Visual Studio\2022\Community\VC\Tools\MSVC\14.43.34808\include\xmemory
; File C:\Marty 5.5\Src-Client\Client\eterGrnLib\Material.cpp
;	COMDAT ?IsIn@CGrannyMaterial@@QAE_NPBDPAH@Z
_TEXT	SEGMENT
_this$GSCopy$1$ = -100					; size = 4
_piStage$GSCopy$1$ = -96				; size = 4
$T2 = -89						; size = 1
_strOpacityFileName$3 = -88				; size = 24
_strDiffuseFileName$4 = -64				; size = 24
_strImageName$ = -40					; size = 24
__$ArrayPad$ = -16					; size = 4
__$EHRec$ = -12						; size = 12
_c_szImageName$ = 8					; size = 4
_piStage$ = 12						; size = 4
?IsIn@CGrannyMaterial@@QAE_NPBDPAH@Z PROC		; CGrannyMaterial::IsIn, COMDAT
; _this$ = ecx

; 84   : {

  00000	55		 push	 ebp
  00001	8b ec		 mov	 ebp, esp
  00003	6a ff		 push	 -1
  00005	68 00 00 00 00	 push	 __ehhandler$?IsIn@CGrannyMaterial@@QAE_NPBDPAH@Z
  0000a	64 a1 00 00 00
	00		 mov	 eax, DWORD PTR fs:0
  00010	50		 push	 eax
  00011	83 ec 58	 sub	 esp, 88			; 00000058H
  00014	a1 00 00 00 00	 mov	 eax, DWORD PTR ___security_cookie
  00019	33 c5		 xor	 eax, ebp
  0001b	89 45 f0	 mov	 DWORD PTR __$ArrayPad$[ebp], eax
  0001e	56		 push	 esi
  0001f	57		 push	 edi
  00020	50		 push	 eax
  00021	8d 45 f4	 lea	 eax, DWORD PTR __$EHRec$[ebp]
  00024	64 a3 00 00 00
	00		 mov	 DWORD PTR fs:0, eax
  0002a	8b f9		 mov	 edi, ecx
  0002c	89 7d 9c	 mov	 DWORD PTR _this$GSCopy$1$[ebp], edi
  0002f	8b 55 08	 mov	 edx, DWORD PTR _c_szImageName$[ebp]
  00032	0f 57 c0	 xorps	 xmm0, xmm0
  00035	8b 45 0c	 mov	 eax, DWORD PTR _piStage$[ebp]
; File D:\Program Files\Microsoft Visual Studio\2022\Community\VC\Tools\MSVC\14.43.34808\include\__msvc_string_view.hpp

; 433  :         return _CSTD strlen(reinterpret_cast<const char*>(_First));

  00038	8b ca		 mov	 ecx, edx
; File C:\Marty 5.5\Src-Client\Client\eterGrnLib\Material.cpp

; 84   : {

  0003a	89 45 a0	 mov	 DWORD PTR _piStage$GSCopy$1$[ebp], eax
; File D:\Program Files\Microsoft Visual Studio\2022\Community\VC\Tools\MSVC\14.43.34808\include\xstring

; 474  :         _CONSTEXPR20 _Bxty() noexcept : _Buf() {} // user-provided, for fancy pointers

  0003d	0f 11 45 d8	 movups	 XMMWORD PTR _strImageName$[ebp], xmm0

; 498  :     size_type _Mysize = 0; // current length of string (size)

  00041	c7 45 e8 00 00
	00 00		 mov	 DWORD PTR _strImageName$[ebp+16], 0

; 499  :     size_type _Myres  = 0; // current storage reserved for string (capacity)

  00048	c7 45 ec 00 00
	00 00		 mov	 DWORD PTR _strImageName$[ebp+20], 0
; File D:\Program Files\Microsoft Visual Studio\2022\Community\VC\Tools\MSVC\14.43.34808\include\__msvc_string_view.hpp

; 433  :         return _CSTD strlen(reinterpret_cast<const char*>(_First));

  0004f	8d 71 01	 lea	 esi, DWORD PTR [ecx+1]
$LL340@IsIn:
  00052	8a 01		 mov	 al, BYTE PTR [ecx]
  00054	41		 inc	 ecx
  00055	84 c0		 test	 al, al
  00057	75 f9		 jne	 SHORT $LL340@IsIn
  00059	2b ce		 sub	 ecx, esi
; File D:\Program Files\Microsoft Visual Studio\2022\Community\VC\Tools\MSVC\14.43.34808\include\xstring

; 745  :         _Construct<_Construct_strategy::_From_ptr>(_Ptr, _Convert_size<size_type>(_Traits::length(_Ptr)));

  0005b	51		 push	 ecx
  0005c	52		 push	 edx
  0005d	8d 4d d8	 lea	 ecx, DWORD PTR _strImageName$[ebp]
  00060	e8 00 00 00 00	 call	 ??$_Construct@$00PBD@?$basic_string@DU?$char_traits@D@std@@V?$allocator@D@2@@std@@AAEXQBDI@Z ; std::basic_string<char,std::char_traits<char>,std::allocator<char> >::_Construct<1,char const *>
; File C:\Marty 5.5\Src-Client\Client\eterGrnLib\Material.cpp

; 86   : 	CFileNameHelper::StringPath(strImageName);

  00065	8d 45 d8	 lea	 eax, DWORD PTR _strImageName$[ebp]
  00068	c7 45 fc 00 00
	00 00		 mov	 DWORD PTR __$EHRec$[ebp+8], 0
  0006f	50		 push	 eax
  00070	e8 00 00 00 00	 call	 ?StringPath@CFileNameHelper@@SAXAAV?$basic_string@DU?$char_traits@D@std@@V?$allocator@D@2@@std@@@Z ; CFileNameHelper::StringPath
  00075	83 c4 04	 add	 esp, 4

; 87   : 
; 88   : 	granny_texture * pgrnDiffuseTexture = GrannyGetMaterialTextureByType(m_pgrnMaterial, GrannyDiffuseColorTexture);

  00078	6a 02		 push	 2
  0007a	ff 77 0c	 push	 DWORD PTR [edi+12]
  0007d	ff 15 00 00 00
	00		 call	 DWORD PTR __imp__GrannyGetMaterialTextureByType@8

; 89   : 	if (pgrnDiffuseTexture)

  00083	8b 7d d8	 mov	 edi, DWORD PTR _strImageName$[ebp]
  00086	85 c0		 test	 eax, eax
  00088	0f 84 48 01 00
	00		 je	 $LN217@IsIn

; 90   : 	{
; 91   : 		std::string strDiffuseFileName = pgrnDiffuseTexture->FromFileName;

  0008e	8b 10		 mov	 edx, DWORD PTR [eax]
  00090	0f 57 c0	 xorps	 xmm0, xmm0
; File D:\Program Files\Microsoft Visual Studio\2022\Community\VC\Tools\MSVC\14.43.34808\include\__msvc_string_view.hpp

; 433  :         return _CSTD strlen(reinterpret_cast<const char*>(_First));

  00093	8b ca		 mov	 ecx, edx
; File D:\Program Files\Microsoft Visual Studio\2022\Community\VC\Tools\MSVC\14.43.34808\include\xstring

; 498  :     size_type _Mysize = 0; // current length of string (size)

  00095	c7 45 d0 00 00
	00 00		 mov	 DWORD PTR _strDiffuseFileName$4[ebp+16], 0

; 474  :         _CONSTEXPR20 _Bxty() noexcept : _Buf() {} // user-provided, for fancy pointers

  0009c	0f 11 45 c0	 movups	 XMMWORD PTR _strDiffuseFileName$4[ebp], xmm0

; 499  :     size_type _Myres  = 0; // current storage reserved for string (capacity)

  000a0	c7 45 d4 00 00
	00 00		 mov	 DWORD PTR _strDiffuseFileName$4[ebp+20], 0
; File D:\Program Files\Microsoft Visual Studio\2022\Community\VC\Tools\MSVC\14.43.34808\include\__msvc_string_view.hpp

; 433  :         return _CSTD strlen(reinterpret_cast<const char*>(_First));

  000a7	8d 71 01	 lea	 esi, DWORD PTR [ecx+1]
  000aa	66 0f 1f 44 00
	00		 npad	 6
$LL341@IsIn:
  000b0	8a 01		 mov	 al, BYTE PTR [ecx]
  000b2	41		 inc	 ecx
  000b3	84 c0		 test	 al, al
  000b5	75 f9		 jne	 SHORT $LL341@IsIn
  000b7	2b ce		 sub	 ecx, esi
; File D:\Program Files\Microsoft Visual Studio\2022\Community\VC\Tools\MSVC\14.43.34808\include\xstring

; 745  :         _Construct<_Construct_strategy::_From_ptr>(_Ptr, _Convert_size<size_type>(_Traits::length(_Ptr)));

  000b9	51		 push	 ecx
  000ba	52		 push	 edx
  000bb	8d 4d c0	 lea	 ecx, DWORD PTR _strDiffuseFileName$4[ebp]
  000be	e8 00 00 00 00	 call	 ??$_Construct@$00PBD@?$basic_string@DU?$char_traits@D@std@@V?$allocator@D@2@@std@@AAEXQBDI@Z ; std::basic_string<char,std::char_traits<char>,std::allocator<char> >::_Construct<1,char const *>
; File C:\Marty 5.5\Src-Client\Client\eterGrnLib\Material.cpp

; 92   : 		CFileNameHelper::StringPath(strDiffuseFileName);

  000c3	8d 45 c0	 lea	 eax, DWORD PTR _strDiffuseFileName$4[ebp]
  000c6	c6 45 fc 01	 mov	 BYTE PTR __$EHRec$[ebp+8], 1
  000ca	50		 push	 eax
  000cb	e8 00 00 00 00	 call	 ?StringPath@CFileNameHelper@@SAXAAV?$basic_string@DU?$char_traits@D@std@@V?$allocator@D@2@@std@@@Z ; CFileNameHelper::StringPath
; File D:\Program Files\Microsoft Visual Studio\2022\Community\VC\Tools\MSVC\14.43.34808\include\xstring

; 434  :         return _Myres > _Small_string_capacity;

  000d0	8b 45 d4	 mov	 eax, DWORD PTR _strDiffuseFileName$4[ebp+20]

; 425  :         const value_type* _Result = _Bx._Buf;

  000d3	8d 4d d8	 lea	 ecx, DWORD PTR _strImageName$[ebp]
; File D:\Program Files\Microsoft Visual Studio\2022\Community\VC\Tools\MSVC\14.43.34808\include\__msvc_string_view.hpp

; 578  :     if (_Left_size != _Right_size) {

  000d6	8b 75 d0	 mov	 esi, DWORD PTR _strDiffuseFileName$4[ebp+16]
; File D:\Program Files\Microsoft Visual Studio\2022\Community\VC\Tools\MSVC\14.43.34808\include\xstring

; 425  :         const value_type* _Result = _Bx._Buf;

  000d9	8d 55 c0	 lea	 edx, DWORD PTR _strDiffuseFileName$4[ebp]
; File C:\Marty 5.5\Src-Client\Client\eterGrnLib\Material.cpp

; 92   : 		CFileNameHelper::StringPath(strDiffuseFileName);

  000dc	83 c4 04	 add	 esp, 4
; File D:\Program Files\Microsoft Visual Studio\2022\Community\VC\Tools\MSVC\14.43.34808\include\xstring

; 434  :         return _Myres > _Small_string_capacity;

  000df	83 7d ec 0f	 cmp	 DWORD PTR _strImageName$[ebp+20], 15 ; 0000000fH

; 426  :         if (_Large_mode_engaged()) {

  000e3	0f 47 cf	 cmova	 ecx, edi
  000e6	8b 7d c0	 mov	 edi, DWORD PTR _strDiffuseFileName$4[ebp]

; 434  :         return _Myres > _Small_string_capacity;

  000e9	83 f8 0f	 cmp	 eax, 15			; 0000000fH

; 426  :         if (_Large_mode_engaged()) {

  000ec	0f 47 d7	 cmova	 edx, edi
; File D:\Program Files\Microsoft Visual Studio\2022\Community\VC\Tools\MSVC\14.43.34808\include\__msvc_string_view.hpp

; 578  :     if (_Left_size != _Right_size) {

  000ef	3b 75 e8	 cmp	 esi, DWORD PTR _strImageName$[ebp+16]
  000f2	0f 85 a7 00 00
	00		 jne	 $LN3@IsIn

; 579  :         return false;
; 580  :     }
; 581  : 
; 582  :     if (_Left_size == 0u) {

  000f8	85 f6		 test	 esi, esi
  000fa	74 5d		 je	 SHORT $LN338@IsIn

; 413  :         return _CSTD memcmp(_First1, _First2, _Count);

  000fc	83 ee 04	 sub	 esi, 4
  000ff	72 11		 jb	 SHORT $LN344@IsIn
$LL345@IsIn:
  00101	8b 02		 mov	 eax, DWORD PTR [edx]
  00103	3b 01		 cmp	 eax, DWORD PTR [ecx]
  00105	75 10		 jne	 SHORT $LN343@IsIn
  00107	83 c2 04	 add	 edx, 4
  0010a	83 c1 04	 add	 ecx, 4
  0010d	83 ee 04	 sub	 esi, 4
  00110	73 ef		 jae	 SHORT $LL345@IsIn
$LN344@IsIn:
  00112	83 fe fc	 cmp	 esi, -4			; fffffffcH
  00115	74 34		 je	 SHORT $LN342@IsIn
$LN343@IsIn:
  00117	8a 02		 mov	 al, BYTE PTR [edx]
  00119	3a 01		 cmp	 al, BYTE PTR [ecx]
  0011b	75 27		 jne	 SHORT $LN346@IsIn
  0011d	83 fe fd	 cmp	 esi, -3			; fffffffdH
  00120	74 29		 je	 SHORT $LN342@IsIn
  00122	8a 42 01	 mov	 al, BYTE PTR [edx+1]
  00125	3a 41 01	 cmp	 al, BYTE PTR [ecx+1]
  00128	75 1a		 jne	 SHORT $LN346@IsIn
  0012a	83 fe fe	 cmp	 esi, -2			; fffffffeH
  0012d	74 1c		 je	 SHORT $LN342@IsIn
  0012f	8a 42 02	 mov	 al, BYTE PTR [edx+2]
  00132	3a 41 02	 cmp	 al, BYTE PTR [ecx+2]
  00135	75 0d		 jne	 SHORT $LN346@IsIn
  00137	83 fe ff	 cmp	 esi, -1
  0013a	74 0f		 je	 SHORT $LN342@IsIn
  0013c	8a 42 03	 mov	 al, BYTE PTR [edx+3]
  0013f	3a 41 03	 cmp	 al, BYTE PTR [ecx+3]
  00142	74 07		 je	 SHORT $LN342@IsIn
$LN346@IsIn:
  00144	1b c0		 sbb	 eax, eax
  00146	83 c8 01	 or	 eax, 1
  00149	eb 02		 jmp	 SHORT $LN347@IsIn
$LN342@IsIn:
  0014b	33 c0		 xor	 eax, eax
$LN347@IsIn:

; 586  :     return _Traits::compare(_Left, _Right, _Left_size) == 0;

  0014d	85 c0		 test	 eax, eax
  0014f	0f 94 c0	 sete	 al
; File C:\Marty 5.5\Src-Client\Client\eterGrnLib\Material.cpp

; 93   : 		if (strDiffuseFileName == strImageName)

  00152	84 c0		 test	 al, al
  00154	8b 45 d4	 mov	 eax, DWORD PTR _strDiffuseFileName$4[ebp+20]
  00157	74 46		 je	 SHORT $LN3@IsIn
$LN338@IsIn:

; 94   : 		{
; 95   : 			*piStage=0;

  00159	8b 4d a0	 mov	 ecx, DWORD PTR _piStage$GSCopy$1$[ebp]
  0015c	c7 01 00 00 00
	00		 mov	 DWORD PTR [ecx], 0
; File D:\Program Files\Microsoft Visual Studio\2022\Community\VC\Tools\MSVC\14.43.34808\include\xstring

; 434  :         return _Myres > _Small_string_capacity;

  00162	83 f8 0f	 cmp	 eax, 15			; 0000000fH

; 3047 :         if (_My_data._Large_mode_engaged()) {

  00165	0f 86 86 01 00
	00		 jbe	 $LN254@IsIn

; 828  :         _Al.deallocate(_Old_ptr, _Capacity + 1); // +1 for null terminator

  0016b	8d 48 01	 lea	 ecx, DWORD PTR [eax+1]
; File D:\Program Files\Microsoft Visual Studio\2022\Community\VC\Tools\MSVC\14.43.34808\include\xmemory

; 981  :         _STD _Deallocate<_New_alignof<_Ty>>(_Ptr, sizeof(_Ty) * _Count);

  0016e	8b c7		 mov	 eax, edi

; 284  :         if (_Bytes >= _Big_allocation_threshold) {

  00170	81 f9 00 10 00
	00		 cmp	 ecx, 4096		; 00001000H
  00176	72 14		 jb	 SHORT $LN191@IsIn

; 205  :     const uintptr_t _Ptr_container   = _Ptr_user[-1];

  00178	8b 78 fc	 mov	 edi, DWORD PTR [eax-4]
  0017b	83 c1 23	 add	 ecx, 35			; 00000023H
  0017e	2b c7		 sub	 eax, edi

; 219  :     _STL_VERIFY(_Back_shift >= _Min_back_shift && _Back_shift <= _Non_user_size, "invalid argument");

  00180	83 c0 fc	 add	 eax, -4			; fffffffcH
  00183	83 f8 1f	 cmp	 eax, 31			; 0000001fH
  00186	0f 87 ed 01 00
	00		 ja	 $LN58@IsIn
$LN191@IsIn:

; 289  :         ::operator delete(_Ptr, _Bytes);

  0018c	51		 push	 ecx
  0018d	57		 push	 edi
  0018e	e8 00 00 00 00	 call	 ??3@YAXPAXI@Z		; operator delete
  00193	83 c4 08	 add	 esp, 8
  00196	c6 45 a7 01	 mov	 BYTE PTR $T2[ebp], 1
  0019a	e9 88 01 00 00	 jmp	 $LN11@IsIn
$LN3@IsIn:
; File C:\Marty 5.5\Src-Client\Client\eterGrnLib\Material.cpp

; 98   : 	}

  0019f	c6 45 fc 00	 mov	 BYTE PTR __$EHRec$[ebp+8], 0
; File D:\Program Files\Microsoft Visual Studio\2022\Community\VC\Tools\MSVC\14.43.34808\include\xstring

; 434  :         return _Myres > _Small_string_capacity;

  001a3	83 f8 0f	 cmp	 eax, 15			; 0000000fH

; 3047 :         if (_My_data._Large_mode_engaged()) {

  001a6	76 2b		 jbe	 SHORT $LN357@IsIn

; 828  :         _Al.deallocate(_Old_ptr, _Capacity + 1); // +1 for null terminator

  001a8	8d 48 01	 lea	 ecx, DWORD PTR [eax+1]
; File D:\Program Files\Microsoft Visual Studio\2022\Community\VC\Tools\MSVC\14.43.34808\include\xmemory

; 981  :         _STD _Deallocate<_New_alignof<_Ty>>(_Ptr, sizeof(_Ty) * _Count);

  001ab	8b c7		 mov	 eax, edi

; 284  :         if (_Bytes >= _Big_allocation_threshold) {

  001ad	81 f9 00 10 00
	00		 cmp	 ecx, 4096		; 00001000H
  001b3	72 14		 jb	 SHORT $LN228@IsIn

; 205  :     const uintptr_t _Ptr_container   = _Ptr_user[-1];

  001b5	8b 78 fc	 mov	 edi, DWORD PTR [eax-4]
  001b8	83 c1 23	 add	 ecx, 35			; 00000023H
  001bb	2b c7		 sub	 eax, edi

; 219  :     _STL_VERIFY(_Back_shift >= _Min_back_shift && _Back_shift <= _Non_user_size, "invalid argument");

  001bd	83 c0 fc	 add	 eax, -4			; fffffffcH
  001c0	83 f8 1f	 cmp	 eax, 31			; 0000001fH
  001c3	0f 87 b0 01 00
	00		 ja	 $LN58@IsIn
$LN228@IsIn:

; 289  :         ::operator delete(_Ptr, _Bytes);

  001c9	51		 push	 ecx
  001ca	57		 push	 edi
  001cb	e8 00 00 00 00	 call	 ??3@YAXPAXI@Z		; operator delete
  001d0	83 c4 08	 add	 esp, 8
$LN357@IsIn:
; File C:\Marty 5.5\Src-Client\Client\eterGrnLib\Material.cpp

; 100  :     granny_texture * pgrnOpacityTexture = GrannyGetMaterialTextureByType(m_pgrnMaterial, GrannyOpacityTexture);

  001d3	8b 7d d8	 mov	 edi, DWORD PTR _strImageName$[ebp]
$LN217@IsIn:
  001d6	8b 45 9c	 mov	 eax, DWORD PTR _this$GSCopy$1$[ebp]
  001d9	6a 05		 push	 5
  001db	ff 70 0c	 push	 DWORD PTR [eax+12]
  001de	ff 15 00 00 00
	00		 call	 DWORD PTR __imp__GrannyGetMaterialTextureByType@8

; 101  : 	if (pgrnOpacityTexture)

  001e4	85 c0		 test	 eax, eax
  001e6	0f 84 37 01 00
	00		 je	 $LN291@IsIn

; 102  : 	{
; 103  : 		std::string strOpacityFileName = pgrnOpacityTexture->FromFileName;

  001ec	8b 10		 mov	 edx, DWORD PTR [eax]
  001ee	0f 57 c0	 xorps	 xmm0, xmm0
; File D:\Program Files\Microsoft Visual Studio\2022\Community\VC\Tools\MSVC\14.43.34808\include\__msvc_string_view.hpp

; 433  :         return _CSTD strlen(reinterpret_cast<const char*>(_First));

  001f1	8b ca		 mov	 ecx, edx
; File D:\Program Files\Microsoft Visual Studio\2022\Community\VC\Tools\MSVC\14.43.34808\include\xstring

; 498  :     size_type _Mysize = 0; // current length of string (size)

  001f3	c7 45 b8 00 00
	00 00		 mov	 DWORD PTR _strOpacityFileName$3[ebp+16], 0

; 474  :         _CONSTEXPR20 _Bxty() noexcept : _Buf() {} // user-provided, for fancy pointers

  001fa	0f 11 45 a8	 movups	 XMMWORD PTR _strOpacityFileName$3[ebp], xmm0

; 499  :     size_type _Myres  = 0; // current storage reserved for string (capacity)

  001fe	c7 45 bc 00 00
	00 00		 mov	 DWORD PTR _strOpacityFileName$3[ebp+20], 0
; File D:\Program Files\Microsoft Visual Studio\2022\Community\VC\Tools\MSVC\14.43.34808\include\__msvc_string_view.hpp

; 433  :         return _CSTD strlen(reinterpret_cast<const char*>(_First));

  00205	8d 71 01	 lea	 esi, DWORD PTR [ecx+1]
$LL348@IsIn:
  00208	8a 01		 mov	 al, BYTE PTR [ecx]
  0020a	41		 inc	 ecx
  0020b	84 c0		 test	 al, al
  0020d	75 f9		 jne	 SHORT $LL348@IsIn
  0020f	2b ce		 sub	 ecx, esi
; File D:\Program Files\Microsoft Visual Studio\2022\Community\VC\Tools\MSVC\14.43.34808\include\xstring

; 745  :         _Construct<_Construct_strategy::_From_ptr>(_Ptr, _Convert_size<size_type>(_Traits::length(_Ptr)));

  00211	51		 push	 ecx
  00212	52		 push	 edx
  00213	8d 4d a8	 lea	 ecx, DWORD PTR _strOpacityFileName$3[ebp]
  00216	e8 00 00 00 00	 call	 ??$_Construct@$00PBD@?$basic_string@DU?$char_traits@D@std@@V?$allocator@D@2@@std@@AAEXQBDI@Z ; std::basic_string<char,std::char_traits<char>,std::allocator<char> >::_Construct<1,char const *>
; File C:\Marty 5.5\Src-Client\Client\eterGrnLib\Material.cpp

; 104  : 		CFileNameHelper::StringPath(strOpacityFileName);

  0021b	8d 45 a8	 lea	 eax, DWORD PTR _strOpacityFileName$3[ebp]
  0021e	c6 45 fc 02	 mov	 BYTE PTR __$EHRec$[ebp+8], 2
  00222	50		 push	 eax
  00223	e8 00 00 00 00	 call	 ?StringPath@CFileNameHelper@@SAXAAV?$basic_string@DU?$char_traits@D@std@@V?$allocator@D@2@@std@@@Z ; CFileNameHelper::StringPath
; File D:\Program Files\Microsoft Visual Studio\2022\Community\VC\Tools\MSVC\14.43.34808\include\xstring

; 434  :         return _Myres > _Small_string_capacity;

  00228	8b 45 bc	 mov	 eax, DWORD PTR _strOpacityFileName$3[ebp+20]

; 425  :         const value_type* _Result = _Bx._Buf;

  0022b	8d 4d d8	 lea	 ecx, DWORD PTR _strImageName$[ebp]
; File D:\Program Files\Microsoft Visual Studio\2022\Community\VC\Tools\MSVC\14.43.34808\include\__msvc_string_view.hpp

; 578  :     if (_Left_size != _Right_size) {

  0022e	8b 75 b8	 mov	 esi, DWORD PTR _strOpacityFileName$3[ebp+16]
; File D:\Program Files\Microsoft Visual Studio\2022\Community\VC\Tools\MSVC\14.43.34808\include\xstring

; 425  :         const value_type* _Result = _Bx._Buf;

  00231	8d 55 a8	 lea	 edx, DWORD PTR _strOpacityFileName$3[ebp]
; File C:\Marty 5.5\Src-Client\Client\eterGrnLib\Material.cpp

; 104  : 		CFileNameHelper::StringPath(strOpacityFileName);

  00234	83 c4 04	 add	 esp, 4
; File D:\Program Files\Microsoft Visual Studio\2022\Community\VC\Tools\MSVC\14.43.34808\include\xstring

; 434  :         return _Myres > _Small_string_capacity;

  00237	83 7d ec 0f	 cmp	 DWORD PTR _strImageName$[ebp+20], 15 ; 0000000fH

; 426  :         if (_Large_mode_engaged()) {

  0023b	0f 47 cf	 cmova	 ecx, edi
  0023e	8b 7d a8	 mov	 edi, DWORD PTR _strOpacityFileName$3[ebp]

; 434  :         return _Myres > _Small_string_capacity;

  00241	83 f8 0f	 cmp	 eax, 15			; 0000000fH

; 426  :         if (_Large_mode_engaged()) {

  00244	0f 47 d7	 cmova	 edx, edi
; File D:\Program Files\Microsoft Visual Studio\2022\Community\VC\Tools\MSVC\14.43.34808\include\__msvc_string_view.hpp

; 578  :     if (_Left_size != _Right_size) {

  00247	3b 75 e8	 cmp	 esi, DWORD PTR _strImageName$[ebp+16]
  0024a	0f 85 a7 00 00
	00		 jne	 $LN5@IsIn

; 579  :         return false;
; 580  :     }
; 581  : 
; 582  :     if (_Left_size == 0u) {

  00250	85 f6		 test	 esi, esi
  00252	74 64		 je	 SHORT $LN339@IsIn

; 413  :         return _CSTD memcmp(_First1, _First2, _Count);

  00254	83 ee 04	 sub	 esi, 4
  00257	72 18		 jb	 SHORT $LN351@IsIn
  00259	0f 1f 80 00 00
	00 00		 npad	 7
$LL352@IsIn:
  00260	8b 02		 mov	 eax, DWORD PTR [edx]
  00262	3b 01		 cmp	 eax, DWORD PTR [ecx]
  00264	75 10		 jne	 SHORT $LN350@IsIn
  00266	83 c2 04	 add	 edx, 4
  00269	83 c1 04	 add	 ecx, 4
  0026c	83 ee 04	 sub	 esi, 4
  0026f	73 ef		 jae	 SHORT $LL352@IsIn
$LN351@IsIn:
  00271	83 fe fc	 cmp	 esi, -4			; fffffffcH
  00274	74 34		 je	 SHORT $LN349@IsIn
$LN350@IsIn:
  00276	8a 02		 mov	 al, BYTE PTR [edx]
  00278	3a 01		 cmp	 al, BYTE PTR [ecx]
  0027a	75 27		 jne	 SHORT $LN353@IsIn
  0027c	83 fe fd	 cmp	 esi, -3			; fffffffdH
  0027f	74 29		 je	 SHORT $LN349@IsIn
  00281	8a 42 01	 mov	 al, BYTE PTR [edx+1]
  00284	3a 41 01	 cmp	 al, BYTE PTR [ecx+1]
  00287	75 1a		 jne	 SHORT $LN353@IsIn
  00289	83 fe fe	 cmp	 esi, -2			; fffffffeH
  0028c	74 1c		 je	 SHORT $LN349@IsIn
  0028e	8a 42 02	 mov	 al, BYTE PTR [edx+2]
  00291	3a 41 02	 cmp	 al, BYTE PTR [ecx+2]
  00294	75 0d		 jne	 SHORT $LN353@IsIn
  00296	83 fe ff	 cmp	 esi, -1
  00299	74 0f		 je	 SHORT $LN349@IsIn
  0029b	8a 42 03	 mov	 al, BYTE PTR [edx+3]
  0029e	3a 41 03	 cmp	 al, BYTE PTR [ecx+3]
  002a1	74 07		 je	 SHORT $LN349@IsIn
$LN353@IsIn:
  002a3	1b c0		 sbb	 eax, eax
  002a5	83 c8 01	 or	 eax, 1
  002a8	eb 02		 jmp	 SHORT $LN354@IsIn
$LN349@IsIn:
  002aa	33 c0		 xor	 eax, eax
$LN354@IsIn:

; 586  :     return _Traits::compare(_Left, _Right, _Left_size) == 0;

  002ac	85 c0		 test	 eax, eax
  002ae	0f 94 c0	 sete	 al
; File C:\Marty 5.5\Src-Client\Client\eterGrnLib\Material.cpp

; 105  : 		if (strOpacityFileName == strImageName)

  002b1	84 c0		 test	 al, al
  002b3	8b 45 bc	 mov	 eax, DWORD PTR _strOpacityFileName$3[ebp+20]
  002b6	74 3f		 je	 SHORT $LN5@IsIn
$LN339@IsIn:

; 106  : 		{
; 107  : 			*piStage=1;

  002b8	8b 4d a0	 mov	 ecx, DWORD PTR _piStage$GSCopy$1$[ebp]
  002bb	c7 01 01 00 00
	00		 mov	 DWORD PTR [ecx], 1
; File D:\Program Files\Microsoft Visual Studio\2022\Community\VC\Tools\MSVC\14.43.34808\include\xstring

; 434  :         return _Myres > _Small_string_capacity;

  002c1	83 f8 0f	 cmp	 eax, 15			; 0000000fH

; 3047 :         if (_My_data._Large_mode_engaged()) {

  002c4	76 2b		 jbe	 SHORT $LN254@IsIn

; 828  :         _Al.deallocate(_Old_ptr, _Capacity + 1); // +1 for null terminator

  002c6	8d 48 01	 lea	 ecx, DWORD PTR [eax+1]
; File D:\Program Files\Microsoft Visual Studio\2022\Community\VC\Tools\MSVC\14.43.34808\include\xmemory

; 981  :         _STD _Deallocate<_New_alignof<_Ty>>(_Ptr, sizeof(_Ty) * _Count);

  002c9	8b c7		 mov	 eax, edi

; 284  :         if (_Bytes >= _Big_allocation_threshold) {

  002cb	81 f9 00 10 00
	00		 cmp	 ecx, 4096		; 00001000H
  002d1	72 14		 jb	 SHORT $LN265@IsIn

; 205  :     const uintptr_t _Ptr_container   = _Ptr_user[-1];

  002d3	8b 78 fc	 mov	 edi, DWORD PTR [eax-4]
  002d6	83 c1 23	 add	 ecx, 35			; 00000023H
  002d9	2b c7		 sub	 eax, edi

; 219  :     _STL_VERIFY(_Back_shift >= _Min_back_shift && _Back_shift <= _Non_user_size, "invalid argument");

  002db	83 c0 fc	 add	 eax, -4			; fffffffcH
  002de	83 f8 1f	 cmp	 eax, 31			; 0000001fH
  002e1	0f 87 92 00 00
	00		 ja	 $LN58@IsIn
$LN265@IsIn:

; 289  :         ::operator delete(_Ptr, _Bytes);

  002e7	51		 push	 ecx
  002e8	57		 push	 edi
  002e9	e8 00 00 00 00	 call	 ??3@YAXPAXI@Z		; operator delete
  002ee	83 c4 08	 add	 esp, 8
$LN254@IsIn:
  002f1	c6 45 a7 01	 mov	 BYTE PTR $T2[ebp], 1
  002f5	eb 30		 jmp	 SHORT $LN11@IsIn
$LN5@IsIn:
; File D:\Program Files\Microsoft Visual Studio\2022\Community\VC\Tools\MSVC\14.43.34808\include\xstring

; 434  :         return _Myres > _Small_string_capacity;

  002f7	83 f8 0f	 cmp	 eax, 15			; 0000000fH

; 3047 :         if (_My_data._Large_mode_engaged()) {

  002fa	76 27		 jbe	 SHORT $LN291@IsIn

; 828  :         _Al.deallocate(_Old_ptr, _Capacity + 1); // +1 for null terminator

  002fc	8d 48 01	 lea	 ecx, DWORD PTR [eax+1]
; File D:\Program Files\Microsoft Visual Studio\2022\Community\VC\Tools\MSVC\14.43.34808\include\xmemory

; 981  :         _STD _Deallocate<_New_alignof<_Ty>>(_Ptr, sizeof(_Ty) * _Count);

  002ff	8b c7		 mov	 eax, edi

; 284  :         if (_Bytes >= _Big_allocation_threshold) {

  00301	81 f9 00 10 00
	00		 cmp	 ecx, 4096		; 00001000H
  00307	72 10		 jb	 SHORT $LN302@IsIn

; 205  :     const uintptr_t _Ptr_container   = _Ptr_user[-1];

  00309	8b 78 fc	 mov	 edi, DWORD PTR [eax-4]
  0030c	83 c1 23	 add	 ecx, 35			; 00000023H
  0030f	2b c7		 sub	 eax, edi

; 219  :     _STL_VERIFY(_Back_shift >= _Min_back_shift && _Back_shift <= _Non_user_size, "invalid argument");

  00311	83 c0 fc	 add	 eax, -4			; fffffffcH
  00314	83 f8 1f	 cmp	 eax, 31			; 0000001fH
  00317	77 60		 ja	 SHORT $LN58@IsIn
$LN302@IsIn:

; 289  :         ::operator delete(_Ptr, _Bytes);

  00319	51		 push	 ecx
  0031a	57		 push	 edi
  0031b	e8 00 00 00 00	 call	 ??3@YAXPAXI@Z		; operator delete
  00320	83 c4 08	 add	 esp, 8
$LN291@IsIn:
; File C:\Marty 5.5\Src-Client\Client\eterGrnLib\Material.cpp

; 112  : 	return false;

  00323	c6 45 a7 00	 mov	 BYTE PTR $T2[ebp], 0
$LN11@IsIn:
; File D:\Program Files\Microsoft Visual Studio\2022\Community\VC\Tools\MSVC\14.43.34808\include\xstring

; 434  :         return _Myres > _Small_string_capacity;

  00327	8b 45 ec	 mov	 eax, DWORD PTR _strImageName$[ebp+20]
  0032a	83 f8 0f	 cmp	 eax, 15			; 0000000fH

; 3047 :         if (_My_data._Large_mode_engaged()) {

  0032d	76 2a		 jbe	 SHORT $LN50@IsIn
; File D:\Program Files\Microsoft Visual Studio\2022\Community\VC\Tools\MSVC\14.43.34808\include\xmemory

; 981  :         _STD _Deallocate<_New_alignof<_Ty>>(_Ptr, sizeof(_Ty) * _Count);

  0032f	8b 55 d8	 mov	 edx, DWORD PTR _strImageName$[ebp]
; File D:\Program Files\Microsoft Visual Studio\2022\Community\VC\Tools\MSVC\14.43.34808\include\xstring

; 828  :         _Al.deallocate(_Old_ptr, _Capacity + 1); // +1 for null terminator

  00332	8d 48 01	 lea	 ecx, DWORD PTR [eax+1]
; File D:\Program Files\Microsoft Visual Studio\2022\Community\VC\Tools\MSVC\14.43.34808\include\xmemory

; 981  :         _STD _Deallocate<_New_alignof<_Ty>>(_Ptr, sizeof(_Ty) * _Count);

  00335	8b c2		 mov	 eax, edx

; 284  :         if (_Bytes >= _Big_allocation_threshold) {

  00337	81 f9 00 10 00
	00		 cmp	 ecx, 4096		; 00001000H
  0033d	72 10		 jb	 SHORT $LN61@IsIn

; 205  :     const uintptr_t _Ptr_container   = _Ptr_user[-1];

  0033f	8b 50 fc	 mov	 edx, DWORD PTR [eax-4]
  00342	83 c1 23	 add	 ecx, 35			; 00000023H
  00345	2b c2		 sub	 eax, edx

; 219  :     _STL_VERIFY(_Back_shift >= _Min_back_shift && _Back_shift <= _Non_user_size, "invalid argument");

  00347	83 c0 fc	 add	 eax, -4			; fffffffcH
  0034a	83 f8 1f	 cmp	 eax, 31			; 0000001fH
  0034d	77 2a		 ja	 SHORT $LN58@IsIn
$LN61@IsIn:

; 289  :         ::operator delete(_Ptr, _Bytes);

  0034f	51		 push	 ecx
  00350	52		 push	 edx
  00351	e8 00 00 00 00	 call	 ??3@YAXPAXI@Z		; operator delete
  00356	83 c4 08	 add	 esp, 8
$LN50@IsIn:
; File C:\Marty 5.5\Src-Client\Client\eterGrnLib\Material.cpp

; 112  : 	return false;

  00359	8a 45 a7	 mov	 al, BYTE PTR $T2[ebp]

; 113  : }

  0035c	8b 4d f4	 mov	 ecx, DWORD PTR __$EHRec$[ebp]
  0035f	64 89 0d 00 00
	00 00		 mov	 DWORD PTR fs:0, ecx
  00366	59		 pop	 ecx
  00367	5f		 pop	 edi
  00368	5e		 pop	 esi
  00369	8b 4d f0	 mov	 ecx, DWORD PTR __$ArrayPad$[ebp]
  0036c	33 cd		 xor	 ecx, ebp
  0036e	e8 00 00 00 00	 call	 @__security_check_cookie@4
  00373	8b e5		 mov	 esp, ebp
  00375	5d		 pop	 ebp
  00376	c2 08 00	 ret	 8
$LN58@IsIn:
; File D:\Program Files\Microsoft Visual Studio\2022\Community\VC\Tools\MSVC\14.43.34808\include\xmemory

; 219  :     _STL_VERIFY(_Back_shift >= _Min_back_shift && _Back_shift <= _Non_user_size, "invalid argument");

  00379	e8 00 00 00 00	 call	 __invalid_parameter_noinfo_noreturn
$LN359@IsIn:
  0037e	cc		 int	 3
_TEXT	ENDS
;	COMDAT text$x
text$x	SEGMENT
__unwindfunclet$?IsIn@CGrannyMaterial@@QAE_NPBDPAH@Z$0:
  00000	8d 4d d8	 lea	 ecx, DWORD PTR _strImageName$[ebp]
  00003	e9 00 00 00 00	 jmp	 ??1?$basic_string@DU?$char_traits@D@std@@V?$allocator@D@2@@std@@QAE@XZ ; std::basic_string<char,std::char_traits<char>,std::allocator<char> >::~basic_string<char,std::char_traits<char>,std::allocator<char> >
__unwindfunclet$?IsIn@CGrannyMaterial@@QAE_NPBDPAH@Z$1:
  00008	8d 4d c0	 lea	 ecx, DWORD PTR _strDiffuseFileName$4[ebp]
  0000b	e9 00 00 00 00	 jmp	 ??1?$basic_string@DU?$char_traits@D@std@@V?$allocator@D@2@@std@@QAE@XZ ; std::basic_string<char,std::char_traits<char>,std::allocator<char> >::~basic_string<char,std::char_traits<char>,std::allocator<char> >
__unwindfunclet$?IsIn@CGrannyMaterial@@QAE_NPBDPAH@Z$2:
  00010	8d 4d a8	 lea	 ecx, DWORD PTR _strOpacityFileName$3[ebp]
  00013	e9 00 00 00 00	 jmp	 ??1?$basic_string@DU?$char_traits@D@std@@V?$allocator@D@2@@std@@QAE@XZ ; std::basic_string<char,std::char_traits<char>,std::allocator<char> >::~basic_string<char,std::char_traits<char>,std::allocator<char> >
  00018	cc		 int	 3
  00019	cc		 int	 3
  0001a	cc		 int	 3
  0001b	cc		 int	 3
  0001c	cc		 int	 3
__ehhandler$?IsIn@CGrannyMaterial@@QAE_NPBDPAH@Z:
  0001d	90		 npad	 1
  0001e	90		 npad	 1
  0001f	8b 54 24 08	 mov	 edx, DWORD PTR [esp+8]
  00023	8d 42 0c	 lea	 eax, DWORD PTR [edx+12]
  00026	8b 4a 9c	 mov	 ecx, DWORD PTR [edx-100]
  00029	33 c8		 xor	 ecx, eax
  0002b	e8 00 00 00 00	 call	 @__security_check_cookie@4
  00030	8b 4a fc	 mov	 ecx, DWORD PTR [edx-4]
  00033	33 c8		 xor	 ecx, eax
  00035	e8 00 00 00 00	 call	 @__security_check_cookie@4
  0003a	b8 00 00 00 00	 mov	 eax, OFFSET __ehfuncinfo$?IsIn@CGrannyMaterial@@QAE_NPBDPAH@Z
  0003f	e9 00 00 00 00	 jmp	 ___CxxFrameHandler3
text$x	ENDS
?IsIn@CGrannyMaterial@@QAE_NPBDPAH@Z ENDP		; CGrannyMaterial::IsIn
; Function compile flags: /Ogtp
; File C:\Marty 5.5\Src-Client\Client\eterGrnLib\Material.cpp
;	COMDAT ?IsEqual@CGrannyMaterial@@QBE_NPAUgranny_material@@@Z
_TEXT	SEGMENT
_pgrnMaterial$ = 8					; size = 4
?IsEqual@CGrannyMaterial@@QBE_NPAUgranny_material@@@Z PROC ; CGrannyMaterial::IsEqual, COMDAT
; _this$ = ecx

; 134  : {

  00000	55		 push	 ebp
  00001	8b ec		 mov	 ebp, esp

; 135  : 	if (m_pgrnMaterial==pgrnMaterial)

  00003	8b 41 0c	 mov	 eax, DWORD PTR [ecx+12]
  00006	3b 45 08	 cmp	 eax, DWORD PTR _pgrnMaterial$[ebp]
  00009	0f 94 c0	 sete	 al

; 136  : 		return true;
; 137  : 
; 138  : 	return false;
; 139  : }

  0000c	5d		 pop	 ebp
  0000d	c2 04 00	 ret	 4
?IsEqual@CGrannyMaterial@@QBE_NPAUgranny_material@@@Z ENDP ; CGrannyMaterial::IsEqual
_TEXT	ENDS
; Function compile flags: /Ogtp
; File C:\Marty 5.5\Src-Client\Client\eterGrnLib\Material.cpp
; File C:\Marty 5.5\Src-Client\Client\eterlib\Ref.h
; File C:\Marty 5.5\Src-Client\Client\eterGrnLib\Material.cpp
;	COMDAT ?Copy@CGrannyMaterial@@QAEXAAV1@@Z
_TEXT	SEGMENT
_rkMtrl$ = 8						; size = 4
?Copy@CGrannyMaterial@@QAEXAAV1@@Z PROC			; CGrannyMaterial::Copy, COMDAT
; _this$ = ecx

; 53   : {

  00000	55		 push	 ebp
  00001	8b ec		 mov	 ebp, esp
  00003	53		 push	 ebx
  00004	56		 push	 esi
  00005	8b f1		 mov	 esi, ecx
  00007	57		 push	 edi

; 54   : 	m_pgrnMaterial = rkMtrl.m_pgrnMaterial;

  00008	8b 7d 08	 mov	 edi, DWORD PTR _rkMtrl$[ebp]
  0000b	8b 47 0c	 mov	 eax, DWORD PTR [edi+12]
  0000e	89 46 0c	 mov	 DWORD PTR [esi+12], eax
; File C:\Marty 5.5\Src-Client\Client\eterlib\Ref.h

; 69   : 			m_pObject = pObject;

  00011	8b 4f 10	 mov	 ecx, DWORD PTR [edi+16]
  00014	8b 5e 10	 mov	 ebx, DWORD PTR [esi+16]
  00017	89 4e 10	 mov	 DWORD PTR [esi+16], ecx

; 70   : 
; 71   : 			if (m_pObject)

  0001a	85 c9		 test	 ecx, ecx
  0001c	74 05		 je	 SHORT $LN6@Copy

; 72   : 				m_pObject->AddReference();

  0001e	e8 00 00 00 00	 call	 ?AddReference@CReferenceObject@@QAEXXZ ; CReferenceObject::AddReference
$LN6@Copy:

; 73   : 
; 74   : 			if (pOldObject)

  00023	85 db		 test	 ebx, ebx
  00025	74 07		 je	 SHORT $LN7@Copy

; 75   : 				pOldObject->Release();

  00027	8b cb		 mov	 ecx, ebx
  00029	e8 00 00 00 00	 call	 ?Release@CReferenceObject@@QAEXXZ ; CReferenceObject::Release
$LN7@Copy:

; 69   : 			m_pObject = pObject;

  0002e	8b 4f 14	 mov	 ecx, DWORD PTR [edi+20]
  00031	8b 5e 14	 mov	 ebx, DWORD PTR [esi+20]
  00034	89 4e 14	 mov	 DWORD PTR [esi+20], ecx

; 70   : 
; 71   : 			if (m_pObject)

  00037	85 c9		 test	 ecx, ecx
  00039	74 05		 je	 SHORT $LN12@Copy

; 72   : 				m_pObject->AddReference();

  0003b	e8 00 00 00 00	 call	 ?AddReference@CReferenceObject@@QAEXXZ ; CReferenceObject::AddReference
$LN12@Copy:

; 73   : 
; 74   : 			if (pOldObject)

  00040	85 db		 test	 ebx, ebx
  00042	74 07		 je	 SHORT $LN15@Copy

; 75   : 				pOldObject->Release();

  00044	8b cb		 mov	 ecx, ebx
  00046	e8 00 00 00 00	 call	 ?Release@CReferenceObject@@QAEXXZ ; CReferenceObject::Release
$LN15@Copy:
; File C:\Marty 5.5\Src-Client\Client\eterGrnLib\Material.cpp

; 58   : }

  0004b	8b 47 18	 mov	 eax, DWORD PTR [edi+24]
  0004e	5f		 pop	 edi
  0004f	89 46 18	 mov	 DWORD PTR [esi+24], eax
  00052	5e		 pop	 esi
  00053	5b		 pop	 ebx
  00054	5d		 pop	 ebp
  00055	c2 04 00	 ret	 4
?Copy@CGrannyMaterial@@QAEXAAV1@@Z ENDP			; CGrannyMaterial::Copy
_TEXT	ENDS
; Function compile flags: /Ogtp
; File C:\Marty 5.5\Src-Client\Client\eterGrnLib\Material.cpp
;	COMDAT ??1CGrannyMaterial@@UAE@XZ
_TEXT	SEGMENT
__$EHRec$ = -12						; size = 12
??1CGrannyMaterial@@UAE@XZ PROC				; CGrannyMaterial::~CGrannyMaterial, COMDAT
; _this$ = ecx

; 69   : {

  00000	55		 push	 ebp
  00001	8b ec		 mov	 ebp, esp
  00003	6a ff		 push	 -1
  00005	68 00 00 00 00	 push	 __ehhandler$??1CGrannyMaterial@@UAE@XZ
  0000a	64 a1 00 00 00
	00		 mov	 eax, DWORD PTR fs:0
  00010	50		 push	 eax
  00011	56		 push	 esi
  00012	a1 00 00 00 00	 mov	 eax, DWORD PTR ___security_cookie
  00017	33 c5		 xor	 eax, ebp
  00019	50		 push	 eax
  0001a	8d 45 f4	 lea	 eax, DWORD PTR __$EHRec$[ebp]
  0001d	64 a3 00 00 00
	00		 mov	 DWORD PTR fs:0, eax
  00023	8b f1		 mov	 esi, ecx

; 70   : }

  00025	68 00 00 00 00	 push	 OFFSET ??1?$CRef@VCGraphicImage@@@@QAE@XZ ; CRef<CGraphicImage>::~CRef<CGraphicImage>
  0002a	6a 02		 push	 2
  0002c	6a 04		 push	 4
  0002e	8d 46 10	 lea	 eax, DWORD PTR [esi+16]
  00031	c7 06 00 00 00
	00		 mov	 DWORD PTR [esi], OFFSET ??_7CGrannyMaterial@@6B@
  00037	50		 push	 eax
  00038	e8 00 00 00 00	 call	 ??_M@YGXPAXIIP6EX0@Z@Z
  0003d	8b ce		 mov	 ecx, esi
  0003f	e8 00 00 00 00	 call	 ??1CReferenceObject@@UAE@XZ ; CReferenceObject::~CReferenceObject
  00044	8b 4d f4	 mov	 ecx, DWORD PTR __$EHRec$[ebp]
  00047	64 89 0d 00 00
	00 00		 mov	 DWORD PTR fs:0, ecx
  0004e	59		 pop	 ecx
  0004f	5e		 pop	 esi
  00050	8b e5		 mov	 esp, ebp
  00052	5d		 pop	 ebp
  00053	c3		 ret	 0
  00054	cc		 int	 3
  00055	cc		 int	 3
  00056	cc		 int	 3
  00057	cc		 int	 3
  00058	cc		 int	 3
_TEXT	ENDS
;	COMDAT text$x
text$x	SEGMENT
__ehhandler$??1CGrannyMaterial@@UAE@XZ:
  00000	90		 npad	 1
  00001	90		 npad	 1
  00002	8b 54 24 08	 mov	 edx, DWORD PTR [esp+8]
  00006	8d 42 0c	 lea	 eax, DWORD PTR [edx+12]
  00009	8b 4a f8	 mov	 ecx, DWORD PTR [edx-8]
  0000c	33 c8		 xor	 ecx, eax
  0000e	e8 00 00 00 00	 call	 @__security_check_cookie@4
  00013	b8 00 00 00 00	 mov	 eax, OFFSET __ehfuncinfo$??1CGrannyMaterial@@UAE@XZ
  00018	e9 00 00 00 00	 jmp	 ___CxxFrameHandler3
text$x	ENDS
??1CGrannyMaterial@@UAE@XZ ENDP				; CGrannyMaterial::~CGrannyMaterial
; Function compile flags: /Ogtp
; File C:\Marty 5.5\Src-Client\Client\eterGrnLib\Material.cpp
;	COMDAT ??0CGrannyMaterial@@QAE@XZ
_TEXT	SEGMENT
_this$ = -16						; size = 4
__$EHRec$ = -12						; size = 12
??0CGrannyMaterial@@QAE@XZ PROC				; CGrannyMaterial::CGrannyMaterial, COMDAT
; _this$ = ecx

; 61   : {

  00000	55		 push	 ebp
  00001	8b ec		 mov	 ebp, esp
  00003	6a ff		 push	 -1
  00005	68 00 00 00 00	 push	 __ehhandler$??0CGrannyMaterial@@QAE@XZ
  0000a	64 a1 00 00 00
	00		 mov	 eax, DWORD PTR fs:0
  00010	50		 push	 eax
  00011	51		 push	 ecx
  00012	56		 push	 esi
  00013	a1 00 00 00 00	 mov	 eax, DWORD PTR ___security_cookie
  00018	33 c5		 xor	 eax, ebp
  0001a	50		 push	 eax
  0001b	8d 45 f4	 lea	 eax, DWORD PTR __$EHRec$[ebp]
  0001e	64 a3 00 00 00
	00		 mov	 DWORD PTR fs:0, eax
  00024	8b f1		 mov	 esi, ecx
  00026	89 75 f0	 mov	 DWORD PTR _this$[ebp], esi
  00029	e8 00 00 00 00	 call	 ??0CReferenceObject@@QAE@XZ ; CReferenceObject::CReferenceObject
  0002e	68 00 00 00 00	 push	 OFFSET ??1?$CRef@VCGraphicImage@@@@QAE@XZ ; CRef<CGraphicImage>::~CRef<CGraphicImage>
  00033	68 00 00 00 00	 push	 OFFSET ??0?$CRef@VCGraphicImage@@@@QAE@XZ ; CRef<CGraphicImage>::CRef<CGraphicImage>
  00038	6a 02		 push	 2
  0003a	6a 04		 push	 4
  0003c	8d 46 10	 lea	 eax, DWORD PTR [esi+16]
  0003f	c7 45 fc 00 00
	00 00		 mov	 DWORD PTR __$EHRec$[ebp+8], 0
  00046	50		 push	 eax
  00047	c7 06 00 00 00
	00		 mov	 DWORD PTR [esi], OFFSET ??_7CGrannyMaterial@@6B@
  0004d	e8 00 00 00 00	 call	 ??_L@YGXPAXIIP6EX0@Z1@Z

; 62   : 	m_bTwoSideRender = false;
; 63   : 	m_dwLastCullRenderStateForTwoSideRendering = D3DCULL_CW;
; 64   : 
; 65   : 	Initialize();

  00052	8b ce		 mov	 ecx, esi
  00054	c6 45 fc 01	 mov	 BYTE PTR __$EHRec$[ebp+8], 1
  00058	c6 46 24 00	 mov	 BYTE PTR [esi+36], 0
  0005c	c7 46 28 02 00
	00 00		 mov	 DWORD PTR [esi+40], 2
  00063	e8 00 00 00 00	 call	 ?Initialize@CGrannyMaterial@@IAEXXZ ; CGrannyMaterial::Initialize

; 66   : }

  00068	8b c6		 mov	 eax, esi
  0006a	8b 4d f4	 mov	 ecx, DWORD PTR __$EHRec$[ebp]
  0006d	64 89 0d 00 00
	00 00		 mov	 DWORD PTR fs:0, ecx
  00074	59		 pop	 ecx
  00075	5e		 pop	 esi
  00076	8b e5		 mov	 esp, ebp
  00078	5d		 pop	 ebp
  00079	c3		 ret	 0
_TEXT	ENDS
;	COMDAT text$x
text$x	SEGMENT
__unwindfunclet$??0CGrannyMaterial@@QAE@XZ$0:
  00000	8b 4d f0	 mov	 ecx, DWORD PTR _this$[ebp]
  00003	e9 00 00 00 00	 jmp	 ??1CReferenceObject@@UAE@XZ ; CReferenceObject::~CReferenceObject
__unwindfunclet$??0CGrannyMaterial@@QAE@XZ$1:
  00008	68 00 00 00 00	 push	 OFFSET ??1?$CRef@VCGraphicImage@@@@QAE@XZ ; CRef<CGraphicImage>::~CRef<CGraphicImage>
  0000d	6a 02		 push	 2
  0000f	6a 04		 push	 4
  00011	8b 45 f0	 mov	 eax, DWORD PTR _this$[ebp]
  00014	83 c0 10	 add	 eax, 16			; 00000010H
  00017	50		 push	 eax
  00018	e8 00 00 00 00	 call	 ??_M@YGXPAXIIP6EX0@Z@Z
  0001d	c3		 ret	 0
  0001e	cc		 int	 3
  0001f	cc		 int	 3
  00020	cc		 int	 3
  00021	cc		 int	 3
  00022	cc		 int	 3
__ehhandler$??0CGrannyMaterial@@QAE@XZ:
  00023	90		 npad	 1
  00024	90		 npad	 1
  00025	8b 54 24 08	 mov	 edx, DWORD PTR [esp+8]
  00029	8d 42 0c	 lea	 eax, DWORD PTR [edx+12]
  0002c	8b 4a f4	 mov	 ecx, DWORD PTR [edx-12]
  0002f	33 c8		 xor	 ecx, eax
  00031	e8 00 00 00 00	 call	 @__security_check_cookie@4
  00036	b8 00 00 00 00	 mov	 eax, OFFSET __ehfuncinfo$??0CGrannyMaterial@@QAE@XZ
  0003b	e9 00 00 00 00	 jmp	 ___CxxFrameHandler3
text$x	ENDS
??0CGrannyMaterial@@QAE@XZ ENDP				; CGrannyMaterial::CGrannyMaterial
; Function compile flags: /Ogtp
; File C:\Marty 5.5\Src-Client\Client\eterGrnLib\Material.cpp
;	COMDAT ?TranslateSpecularMatrix@CGrannyMaterial@@SAXMMM@Z
_TEXT	SEGMENT
_fAddX$ = 8						; size = 4
_fAddY$ = 12						; size = 4
_fAddZ$ = 16						; size = 4
?TranslateSpecularMatrix@CGrannyMaterial@@SAXMMM@Z PROC	; CGrannyMaterial::TranslateSpecularMatrix, COMDAT

; 17   : {

  00000	55		 push	 ebp
  00001	8b ec		 mov	 ebp, esp

; 18   : 	static float SPECULAR_TRANSLATE_MAX = 1000000.0f;
; 19   : 
; 20   : 	ms_v3SpecularTrans.x+=fAddX;

  00003	f3 0f 10 55 08	 movss	 xmm2, DWORD PTR _fAddX$[ebp]
  00008	f3 0f 58 15 00
	00 00 00	 addss	 xmm2, DWORD PTR ?ms_v3SpecularTrans@CGrannyMaterial@@0UD3DXVECTOR3@@A

; 21   : 	ms_v3SpecularTrans.y+=fAddY;

  00010	f3 0f 10 4d 0c	 movss	 xmm1, DWORD PTR _fAddY$[ebp]

; 22   : 	ms_v3SpecularTrans.z+=fAddZ;

  00015	f3 0f 10 45 10	 movss	 xmm0, DWORD PTR _fAddZ$[ebp]
  0001a	f3 0f 58 0d 04
	00 00 00	 addss	 xmm1, DWORD PTR ?ms_v3SpecularTrans@CGrannyMaterial@@0UD3DXVECTOR3@@A+4
  00022	f3 0f 58 05 08
	00 00 00	 addss	 xmm0, DWORD PTR ?ms_v3SpecularTrans@CGrannyMaterial@@0UD3DXVECTOR3@@A+8
  0002a	f3 0f 10 1d 00
	00 00 00	 movss	 xmm3, DWORD PTR ?SPECULAR_TRANSLATE_MAX@?1??TranslateSpecularMatrix@CGrannyMaterial@@SAXMMM@Z@4MA
  00032	0f 2f d3	 comiss	 xmm2, xmm3
  00035	f3 0f 11 15 00
	00 00 00	 movss	 DWORD PTR ?ms_v3SpecularTrans@CGrannyMaterial@@0UD3DXVECTOR3@@A, xmm2
  0003d	f3 0f 11 0d 04
	00 00 00	 movss	 DWORD PTR ?ms_v3SpecularTrans@CGrannyMaterial@@0UD3DXVECTOR3@@A+4, xmm1
  00045	f3 0f 11 05 08
	00 00 00	 movss	 DWORD PTR ?ms_v3SpecularTrans@CGrannyMaterial@@0UD3DXVECTOR3@@A+8, xmm0

; 23   : 
; 24   : 	if (ms_v3SpecularTrans.x>=SPECULAR_TRANSLATE_MAX)

  0004d	72 0b		 jb	 SHORT $LN2@TranslateS

; 25   : 		ms_v3SpecularTrans.x=0.0f;

  0004f	0f 57 d2	 xorps	 xmm2, xmm2
  00052	f3 0f 11 15 00
	00 00 00	 movss	 DWORD PTR ?ms_v3SpecularTrans@CGrannyMaterial@@0UD3DXVECTOR3@@A, xmm2
$LN2@TranslateS:

; 26   : 
; 27   : 	if (ms_v3SpecularTrans.y>=SPECULAR_TRANSLATE_MAX)

  0005a	0f 2f cb	 comiss	 xmm1, xmm3
  0005d	72 0b		 jb	 SHORT $LN3@TranslateS

; 28   : 		ms_v3SpecularTrans.y=0.0f;

  0005f	0f 57 c9	 xorps	 xmm1, xmm1
  00062	f3 0f 11 0d 04
	00 00 00	 movss	 DWORD PTR ?ms_v3SpecularTrans@CGrannyMaterial@@0UD3DXVECTOR3@@A+4, xmm1
$LN3@TranslateS:

; 29   : 
; 30   : 	if (ms_v3SpecularTrans.z>=SPECULAR_TRANSLATE_MAX)

  0006a	0f 2f c3	 comiss	 xmm0, xmm3
  0006d	72 0b		 jb	 SHORT $LN4@TranslateS

; 31   : 		ms_v3SpecularTrans.z=0.0f;

  0006f	0f 57 c0	 xorps	 xmm0, xmm0
  00072	f3 0f 11 05 08
	00 00 00	 movss	 DWORD PTR ?ms_v3SpecularTrans@CGrannyMaterial@@0UD3DXVECTOR3@@A+8, xmm0
$LN4@TranslateS:

; 32   : 
; 33   : 	D3DXMatrixTranslation(&ms_matSpecular,

  0007a	83 ec 0c	 sub	 esp, 12			; 0000000cH
  0007d	f3 0f 11 44 24
	08		 movss	 DWORD PTR [esp+8], xmm0
  00083	f3 0f 11 4c 24
	04		 movss	 DWORD PTR [esp+4], xmm1
  00089	f3 0f 11 14 24	 movss	 DWORD PTR [esp], xmm2
  0008e	68 00 00 00 00	 push	 OFFSET ?ms_matSpecular@CGrannyMaterial@@0UD3DXMATRIX@@A ; CGrannyMaterial::ms_matSpecular
  00093	e8 00 00 00 00	 call	 _D3DXMatrixTranslation@16

; 34   : 		ms_v3SpecularTrans.x,
; 35   : 		ms_v3SpecularTrans.y,
; 36   : 		ms_v3SpecularTrans.z
; 37   : 	);
; 38   : }

  00098	5d		 pop	 ebp
  00099	c3		 ret	 0
?TranslateSpecularMatrix@CGrannyMaterial@@SAXMMM@Z ENDP	; CGrannyMaterial::TranslateSpecularMatrix
_TEXT	ENDS
; Function compile flags: /Ogtp
; File C:\Marty 5.5\Src-Client\Client\eterGrnLib\Material.cpp
;	COMDAT ?DestroySphereMap@CGrannyMaterial@@SAXXZ
_TEXT	SEGMENT
?DestroySphereMap@CGrannyMaterial@@SAXXZ PROC		; CGrannyMaterial::DestroySphereMap, COMDAT

; 395  : {

  00000	56		 push	 esi
  00001	57		 push	 edi

; 396  : 	for (UINT uMapIndex=0; uMapIndex<SPHEREMAP_NUM; ++uMapIndex)

  00002	be 00 00 00 00	 mov	 esi, OFFSET ?ms_akSphereMapInstance@CGrannyMaterial@@0PAVCGraphicImageInstance@@A ; CGrannyMaterial::ms_akSphereMapInstance
  00007	bf 0a 00 00 00	 mov	 edi, 10			; 0000000aH
  0000c	0f 1f 40 00	 npad	 4
$LL4@DestroySph:

; 397  : 		ms_akSphereMapInstance[uMapIndex].Destroy();

  00010	8b ce		 mov	 ecx, esi
  00012	e8 00 00 00 00	 call	 ?Destroy@CGraphicImageInstance@@QAEXXZ ; CGraphicImageInstance::Destroy
  00017	83 c6 28	 add	 esi, 40			; 00000028H
  0001a	83 ef 01	 sub	 edi, 1
  0001d	75 f1		 jne	 SHORT $LL4@DestroySph

; 396  : 	for (UINT uMapIndex=0; uMapIndex<SPHEREMAP_NUM; ++uMapIndex)

  0001f	5f		 pop	 edi
  00020	5e		 pop	 esi

; 398  : }

  00021	c3		 ret	 0
?DestroySphereMap@CGrannyMaterial@@SAXXZ ENDP		; CGrannyMaterial::DestroySphereMap
_TEXT	ENDS
; Function compile flags: /Ogtp
; File C:\Marty 5.5\Src-Client\Client\eterGrnLib\Material.cpp
;	COMDAT ?CreateSphereMap@CGrannyMaterial@@SAXIPBD@Z
_TEXT	SEGMENT
_uMapIndex$ = 8						; size = 4
_c_szSphereMapImageFileName$ = 12			; size = 4
?CreateSphereMap@CGrannyMaterial@@SAXIPBD@Z PROC	; CGrannyMaterial::CreateSphereMap, COMDAT

; 388  : {

  00000	55		 push	 ebp
  00001	8b ec		 mov	 ebp, esp

; 389  : 	CResourceManager& rkResMgr = CResourceManager::Instance();
; 390  : 	CGraphicImage * pImage = (CGraphicImage *)rkResMgr.GetResourcePointer(c_szSphereMapImageFileName);

  00003	ff 75 0c	 push	 DWORD PTR _c_szSphereMapImageFileName$[ebp]
  00006	8b 0d 00 00 00
	00		 mov	 ecx, DWORD PTR ?ms_singleton@?$CSingleton@VCResourceManager@@@@0PAVCResourceManager@@A ; CSingleton<CResourceManager>::ms_singleton
  0000c	e8 00 00 00 00	 call	 ?GetResourcePointer@CResourceManager@@QAEPAVCResource@@PBD@Z ; CResourceManager::GetResourcePointer

; 391  : 	ms_akSphereMapInstance[uMapIndex].SetImagePointer(pImage);

  00011	50		 push	 eax
  00012	8b 45 08	 mov	 eax, DWORD PTR _uMapIndex$[ebp]
  00015	8d 04 80	 lea	 eax, DWORD PTR [eax+eax*4]
  00018	8d 0c c5 00 00
	00 00		 lea	 ecx, DWORD PTR ?ms_akSphereMapInstance@CGrannyMaterial@@0PAVCGraphicImageInstance@@A[eax*8]
  0001f	e8 00 00 00 00	 call	 ?SetImagePointer@CGraphicImageInstance@@QAEXPAVCGraphicImage@@@Z ; CGraphicImageInstance::SetImagePointer

; 392  : }

  00024	5d		 pop	 ebp
  00025	c3		 ret	 0
?CreateSphereMap@CGrannyMaterial@@SAXIPBD@Z ENDP	; CGrannyMaterial::CreateSphereMap
_TEXT	ENDS
; Function compile flags: /Ogtp
; File C:\Marty 5.5\Src-Client\Client\eterlib\Ref.h
;	COMDAT ??1?$CRef@VCGraphicImage@@@@QAE@XZ
_TEXT	SEGMENT
__$EHRec$ = -12						; size = 12
??1?$CRef@VCGraphicImage@@@@QAE@XZ PROC			; CRef<CGraphicImage>::~CRef<CGraphicImage>, COMDAT
; _this$ = ecx

; 37   : 		{

  00000	55		 push	 ebp
  00001	8b ec		 mov	 ebp, esp
  00003	6a ff		 push	 -1
  00005	68 00 00 00 00	 push	 __ehhandler$??1?$CRef@VCGraphicImage@@@@QAE@XZ
  0000a	64 a1 00 00 00
	00		 mov	 eax, DWORD PTR fs:0
  00010	50		 push	 eax
  00011	56		 push	 esi
  00012	a1 00 00 00 00	 mov	 eax, DWORD PTR ___security_cookie
  00017	33 c5		 xor	 eax, ebp
  00019	50		 push	 eax
  0001a	8d 45 f4	 lea	 eax, DWORD PTR __$EHRec$[ebp]
  0001d	64 a3 00 00 00
	00		 mov	 DWORD PTR fs:0, eax
  00023	8b f1		 mov	 esi, ecx

; 53   : 			if (m_pObject)

  00025	8b 0e		 mov	 ecx, DWORD PTR [esi]
  00027	85 c9		 test	 ecx, ecx
  00029	74 0b		 je	 SHORT $LN5@CRef

; 54   : 			{
; 55   : 				m_pObject->Release();

  0002b	e8 00 00 00 00	 call	 ?Release@CReferenceObject@@QAEXXZ ; CReferenceObject::Release

; 56   : 				m_pObject = NULL;

  00030	c7 06 00 00 00
	00		 mov	 DWORD PTR [esi], 0
$LN5@CRef:

; 38   : 			Clear();
; 39   : 		}

  00036	8b 4d f4	 mov	 ecx, DWORD PTR __$EHRec$[ebp]
  00039	64 89 0d 00 00
	00 00		 mov	 DWORD PTR fs:0, ecx
  00040	59		 pop	 ecx
  00041	5e		 pop	 esi
  00042	8b e5		 mov	 esp, ebp
  00044	5d		 pop	 ebp
  00045	c3		 ret	 0
  00046	cc		 int	 3
  00047	cc		 int	 3
  00048	cc		 int	 3
  00049	cc		 int	 3
  0004a	cc		 int	 3
_TEXT	ENDS
;	COMDAT text$x
text$x	SEGMENT
__ehhandler$??1?$CRef@VCGraphicImage@@@@QAE@XZ:
  00000	90		 npad	 1
  00001	90		 npad	 1
  00002	8b 54 24 08	 mov	 edx, DWORD PTR [esp+8]
  00006	8d 42 0c	 lea	 eax, DWORD PTR [edx+12]
  00009	8b 4a f8	 mov	 ecx, DWORD PTR [edx-8]
  0000c	33 c8		 xor	 ecx, eax
  0000e	e8 00 00 00 00	 call	 @__security_check_cookie@4
  00013	b8 00 00 00 00	 mov	 eax, OFFSET __ehfuncinfo$??1?$CRef@VCGraphicImage@@@@QAE@XZ
  00018	e9 00 00 00 00	 jmp	 ___CxxFrameHandler3
text$x	ENDS
??1?$CRef@VCGraphicImage@@@@QAE@XZ ENDP			; CRef<CGraphicImage>::~CRef<CGraphicImage>
; Function compile flags: /Ogtp
; File C:\Marty 5.5\Src-Client\Client\eterlib\Ref.h
;	COMDAT ??0?$CRef@VCGraphicImage@@@@QAE@XZ
_TEXT	SEGMENT
??0?$CRef@VCGraphicImage@@@@QAE@XZ PROC			; CRef<CGraphicImage>::CRef<CGraphicImage>, COMDAT
; _this$ = ecx

; 20   : 		CRef() : m_pObject(NULL)

  00000	c7 01 00 00 00
	00		 mov	 DWORD PTR [ecx], 0

; 22   : 		}

  00006	8b c1		 mov	 eax, ecx
  00008	c3		 ret	 0
??0?$CRef@VCGraphicImage@@@@QAE@XZ ENDP			; CRef<CGraphicImage>::CRef<CGraphicImage>
_TEXT	ENDS
; Function compile flags: /Ogtp
; File C:\Marty 5.5\Src-Client\extern\include\d3dx8math.h
;	COMDAT ??0D3DXMATRIX@@QAE@XZ
_TEXT	SEGMENT
??0D3DXMATRIX@@QAE@XZ PROC				; D3DXMATRIX::D3DXMATRIX, COMDAT
; _this$ = ecx

; 177  :     D3DXMATRIX() {};

  00000	8b c1		 mov	 eax, ecx
  00002	c3		 ret	 0
??0D3DXMATRIX@@QAE@XZ ENDP				; D3DXMATRIX::D3DXMATRIX
_TEXT	ENDS
; Function compile flags: /Ogtp
; File D:\Program Files\Microsoft Visual Studio\2022\Community\VC\Tools\MSVC\14.43.34808\include\xmemory
;	COMDAT ??$_Allocate_manually_vector_aligned@U_Default_allocate_traits@std@@@std@@YAPAXI@Z
_TEXT	SEGMENT
__Bytes$ = 8						; size = 4
??$_Allocate_manually_vector_aligned@U_Default_allocate_traits@std@@@std@@YAPAXI@Z PROC ; std::_Allocate_manually_vector_aligned<std::_Default_allocate_traits>, COMDAT

; 182  : __declspec(allocator) void* _Allocate_manually_vector_aligned(const size_t _Bytes) {

  00000	55		 push	 ebp
  00001	8b ec		 mov	 ebp, esp

; 183  :     // allocate _Bytes manually aligned to at least _Big_allocation_alignment
; 184  :     const size_t _Block_size = _Non_user_size + _Bytes;

  00003	8b 45 08	 mov	 eax, DWORD PTR __Bytes$[ebp]
  00006	8d 48 23	 lea	 ecx, DWORD PTR [eax+35]

; 185  :     if (_Block_size <= _Bytes) {

  00009	3b c8		 cmp	 ecx, eax
  0000b	0f 86 00 00 00
	00		 jbe	 ?_Throw_bad_array_new_length@std@@YAXXZ ; std::_Throw_bad_array_new_length

; 136  :         return ::operator new(_Bytes);

  00011	51		 push	 ecx
  00012	e8 00 00 00 00	 call	 ??2@YAPAXI@Z		; operator new

; 186  :         _Throw_bad_array_new_length(); // add overflow
; 187  :     }
; 188  : 
; 189  :     const uintptr_t _Ptr_container = reinterpret_cast<uintptr_t>(_Traits::_Allocate(_Block_size));

  00017	8b c8		 mov	 ecx, eax

; 136  :         return ::operator new(_Bytes);

  00019	83 c4 04	 add	 esp, 4

; 190  :     _STL_VERIFY(_Ptr_container != 0, "invalid argument"); // validate even in release since we're doing p[-1]

  0001c	85 c9		 test	 ecx, ecx
  0001e	74 0b		 je	 SHORT $LN7@Allocate_m

; 191  :     void* const _Ptr = reinterpret_cast<void*>((_Ptr_container + _Non_user_size) & ~(_Big_allocation_alignment - 1));

  00020	8d 41 23	 lea	 eax, DWORD PTR [ecx+35]
  00023	83 e0 e0	 and	 eax, -32		; ffffffe0H

; 192  :     static_cast<uintptr_t*>(_Ptr)[-1] = _Ptr_container;

  00026	89 48 fc	 mov	 DWORD PTR [eax-4], ecx

; 193  : 
; 194  : #ifdef _DEBUG
; 195  :     static_cast<uintptr_t*>(_Ptr)[-2] = _Big_allocation_sentinel;
; 196  : #endif // defined(_DEBUG)
; 197  :     return _Ptr;
; 198  : }

  00029	5d		 pop	 ebp
  0002a	c3		 ret	 0
$LN7@Allocate_m:

; 190  :     _STL_VERIFY(_Ptr_container != 0, "invalid argument"); // validate even in release since we're doing p[-1]

  0002b	e9 00 00 00 00	 jmp	 __invalid_parameter_noinfo_noreturn
??$_Allocate_manually_vector_aligned@U_Default_allocate_traits@std@@@std@@YAPAXI@Z ENDP ; std::_Allocate_manually_vector_aligned<std::_Default_allocate_traits>
_TEXT	ENDS
; Function compile flags: /Ogtp
; File D:\Program Files\Microsoft Visual Studio\2022\Community\VC\Tools\MSVC\14.43.34808\include\xstring
; File D:\Program Files\Microsoft Visual Studio\2022\Community\VC\Tools\MSVC\14.43.34808\include\__msvc_string_view.hpp
; File D:\Program Files\Microsoft Visual Studio\2022\Community\VC\Tools\MSVC\14.43.34808\include\xstring
; File D:\Program Files\Microsoft Visual Studio\2022\Community\VC\Tools\MSVC\14.43.34808\include\__msvc_string_view.hpp
; File D:\Program Files\Microsoft Visual Studio\2022\Community\VC\Tools\MSVC\14.43.34808\include\xstring
; File D:\Program Files\Microsoft Visual Studio\2022\Community\VC\Tools\MSVC\14.43.34808\include\__msvc_string_view.hpp
; File D:\Program Files\Microsoft Visual Studio\2022\Community\VC\Tools\MSVC\14.43.34808\include\xstring
; File D:\Program Files\Microsoft Visual Studio\2022\Community\VC\Tools\MSVC\14.43.34808\include\xmemory
; File D:\Program Files\Microsoft Visual Studio\2022\Community\VC\Tools\MSVC\14.43.34808\include\xstring
; File D:\Program Files\Microsoft Visual Studio\2022\Community\VC\Tools\MSVC\14.43.34808\include\xmemory
; File D:\Program Files\Microsoft Visual Studio\2022\Community\VC\Tools\MSVC\14.43.34808\include\xstring
; File D:\Program Files\Microsoft Visual Studio\2022\Community\VC\Tools\MSVC\14.43.34808\include\__msvc_string_view.hpp
; File D:\Program Files\Microsoft Visual Studio\2022\Community\VC\Tools\MSVC\14.43.34808\include\xstring
; File D:\Program Files\Microsoft Visual Studio\2022\Community\VC\Tools\MSVC\14.43.34808\include\__msvc_string_view.hpp
; File D:\Program Files\Microsoft Visual Studio\2022\Community\VC\Tools\MSVC\14.43.34808\include\xstring
; File D:\Program Files\Microsoft Visual Studio\2022\Community\VC\Tools\MSVC\14.43.34808\include\__msvc_string_view.hpp
; File D:\Program Files\Microsoft Visual Studio\2022\Community\VC\Tools\MSVC\14.43.34808\include\xstring
; File D:\Program Files\Microsoft Visual Studio\2022\Community\VC\Tools\MSVC\14.43.34808\include\__msvc_string_view.hpp
; File D:\Program Files\Microsoft Visual Studio\2022\Community\VC\Tools\MSVC\14.43.34808\include\xstring
;	COMDAT ??$_Construct@$00PBD@?$basic_string@DU?$char_traits@D@std@@V?$allocator@D@2@@std@@AAEXQBDI@Z
_TEXT	SEGMENT
__Arg$ = 8						; size = 4
__Count$ = 12						; size = 4
$T1 = 12						; size = 4
??$_Construct@$00PBD@?$basic_string@DU?$char_traits@D@std@@V?$allocator@D@2@@std@@AAEXQBDI@Z PROC ; std::basic_string<char,std::char_traits<char>,std::allocator<char> >::_Construct<1,char const *>, COMDAT
; _this$ = ecx

; 847  :     _CONSTEXPR20 void _Construct(const _Char_or_ptr _Arg, _CRT_GUARDOVERFLOW const size_type _Count) {

  00000	55		 push	 ebp
  00001	8b ec		 mov	 ebp, esp
  00003	53		 push	 ebx
  00004	56		 push	 esi

; 848  :         auto& _My_data = _Mypair._Myval2;
; 849  :         _STL_INTERNAL_CHECK(!_My_data._Large_mode_engaged());
; 850  : 
; 851  :         if constexpr (_Strat == _Construct_strategy::_From_char) {
; 852  :             _STL_INTERNAL_STATIC_ASSERT(is_same_v<_Char_or_ptr, _Elem>);
; 853  :         } else {
; 854  :             _STL_INTERNAL_STATIC_ASSERT(_Is_elem_cptr<_Char_or_ptr>::value);
; 855  :         }
; 856  : 
; 857  :         if (_Count > max_size()) {

  00005	8b 75 0c	 mov	 esi, DWORD PTR __Count$[ebp]
  00008	8b d9		 mov	 ebx, ecx
  0000a	81 fe ff ff ff
	7f		 cmp	 esi, 2147483647		; 7fffffffH
  00010	0f 87 95 00 00
	00		 ja	 $LN40@Construct

; 859  :         }
; 860  : 
; 861  :         auto& _Al       = _Getal();
; 862  :         auto&& _Alproxy = _GET_PROXY_ALLOCATOR(_Alty, _Al);
; 863  :         _Container_proxy_ptr<_Alty> _Proxy(_Alproxy, _My_data);
; 864  : 
; 865  :         if (_Count <= _Small_string_capacity) {

  00016	83 fe 0f	 cmp	 esi, 15			; 0000000fH
  00019	77 21		 ja	 SHORT $LN3@Construct
; File D:\Program Files\Microsoft Visual Studio\2022\Community\VC\Tools\MSVC\14.43.34808\include\__msvc_string_view.hpp

; 95   :         _CSTD memcpy(_First1, _First2, _Count * sizeof(_Elem));

  0001b	56		 push	 esi
  0001c	ff 75 08	 push	 DWORD PTR __Arg$[ebp]
; File D:\Program Files\Microsoft Visual Studio\2022\Community\VC\Tools\MSVC\14.43.34808\include\xstring

; 866  :             _My_data._Mysize = _Count;

  0001f	89 73 10	 mov	 DWORD PTR [ebx+16], esi
; File D:\Program Files\Microsoft Visual Studio\2022\Community\VC\Tools\MSVC\14.43.34808\include\__msvc_string_view.hpp

; 95   :         _CSTD memcpy(_First1, _First2, _Count * sizeof(_Elem));

  00022	53		 push	 ebx
; File D:\Program Files\Microsoft Visual Studio\2022\Community\VC\Tools\MSVC\14.43.34808\include\xstring

; 867  :             _My_data._Myres  = _Small_string_capacity;

  00023	c7 43 14 0f 00
	00 00		 mov	 DWORD PTR [ebx+20], 15	; 0000000fH
; File D:\Program Files\Microsoft Visual Studio\2022\Community\VC\Tools\MSVC\14.43.34808\include\__msvc_string_view.hpp

; 95   :         _CSTD memcpy(_First1, _First2, _Count * sizeof(_Elem));

  0002a	e8 00 00 00 00	 call	 _memcpy
  0002f	83 c4 0c	 add	 esp, 12			; 0000000cH
; File D:\Program Files\Microsoft Visual Studio\2022\Community\VC\Tools\MSVC\14.43.34808\include\xstring

; 874  :                 _Traits::assign(_My_data._Bx._Buf[_Count], _Elem());

  00032	c6 04 1e 00	 mov	 BYTE PTR [esi+ebx], 0
  00036	5e		 pop	 esi

; 899  :         } else { // _Strat == _Construct_strategy::_From_string
; 900  :             _Traits::copy(_Unfancy(_New_ptr), _Arg, _Count + 1);
; 901  :         }
; 902  : 
; 903  :         _ASAN_STRING_CREATE(*this);
; 904  :         _Proxy._Release();
; 905  :     }

  00037	5b		 pop	 ebx
  00038	5d		 pop	 ebp
  00039	c2 08 00	 ret	 8
$LN3@Construct:
  0003c	57		 push	 edi

; 2942 :         const size_type _Masked = _Requested | _Alloc_mask;

  0003d	8b fe		 mov	 edi, esi
  0003f	83 cf 0f	 or	 edi, 15			; 0000000fH
  00042	81 ff ff ff ff
	7f		 cmp	 edi, 2147483647		; 7fffffffH

; 2943 :         if (_Masked > _Max) { // the mask overflows, settle for max_size()

  00048	76 12		 jbe	 SHORT $LN9@Construct

; 2944 :             return _Max;

  0004a	b8 00 00 00 80	 mov	 eax, -2147483648	; 80000000H
  0004f	bf ff ff ff 7f	 mov	 edi, 2147483647		; 7fffffffH
; File D:\Program Files\Microsoft Visual Studio\2022\Community\VC\Tools\MSVC\14.43.34808\include\xmemory

; 253  :             return _Allocate_manually_vector_aligned<_Traits>(_Bytes);

  00054	50		 push	 eax
  00055	e8 00 00 00 00	 call	 ??$_Allocate_manually_vector_aligned@U_Default_allocate_traits@std@@@std@@YAPAXI@Z ; std::_Allocate_manually_vector_aligned<std::_Default_allocate_traits>
  0005a	eb 26		 jmp	 SHORT $LN38@Construct
$LN9@Construct:
; File D:\Program Files\Microsoft Visual Studio\2022\Community\VC\Tools\MSVC\14.43.34808\include\xstring

; 2951 :         return (_STD max)(_Masked, _Old + _Old / 2);

  0005c	b8 16 00 00 00	 mov	 eax, 22			; 00000016H
  00061	3b f8		 cmp	 edi, eax
  00063	0f 42 f8	 cmovb	 edi, eax

; 801  :         ++_Capacity; // Take null terminator into consideration

  00066	8d 47 01	 lea	 eax, DWORD PTR [edi+1]
; File D:\Program Files\Microsoft Visual Studio\2022\Community\VC\Tools\MSVC\14.43.34808\include\xmemory

; 227  :     if (_Bytes == 0) {

  00069	85 c0		 test	 eax, eax
  0006b	74 18		 je	 SHORT $LN37@Construct
$LN23@Construct:

; 228  :         return nullptr;
; 229  :     }
; 230  : 
; 231  : #if _HAS_CXX20 // TRANSITION, GH-1532
; 232  :     if (_STD is_constant_evaluated()) {
; 233  :         return _Traits::_Allocate(_Bytes);
; 234  :     }
; 235  : #endif // _HAS_CXX20
; 236  : 
; 237  : #ifdef __cpp_aligned_new
; 238  :     if constexpr (_Align > __STDCPP_DEFAULT_NEW_ALIGNMENT__) {
; 239  :         size_t _Passed_align = _Align;
; 240  : #if defined(_M_IX86) || defined(_M_X64)
; 241  :         if (_Bytes >= _Big_allocation_threshold) {
; 242  :             // boost the alignment of big allocations to help autovectorization
; 243  :             _Passed_align = (_STD max)(_Align, _Big_allocation_alignment);
; 244  :         }
; 245  : #endif // defined(_M_IX86) || defined(_M_X64)
; 246  :         return _Traits::_Allocate_aligned(_Bytes, _Passed_align);
; 247  :     } else
; 248  : #endif // defined(__cpp_aligned_new)
; 249  :     {
; 250  : #if defined(_M_IX86) || defined(_M_X64)
; 251  :         if (_Bytes >= _Big_allocation_threshold) {

  0006d	3d 00 10 00 00	 cmp	 eax, 4096		; 00001000H
  00072	72 08		 jb	 SHORT $LN24@Construct

; 253  :             return _Allocate_manually_vector_aligned<_Traits>(_Bytes);

  00074	50		 push	 eax
  00075	e8 00 00 00 00	 call	 ??$_Allocate_manually_vector_aligned@U_Default_allocate_traits@std@@@std@@YAPAXI@Z ; std::_Allocate_manually_vector_aligned<std::_Default_allocate_traits>
  0007a	eb 06		 jmp	 SHORT $LN38@Construct
$LN24@Construct:

; 136  :         return ::operator new(_Bytes);

  0007c	50		 push	 eax
  0007d	e8 00 00 00 00	 call	 ??2@YAPAXI@Z		; operator new
$LN38@Construct:
; File D:\Program Files\Microsoft Visual Studio\2022\Community\VC\Tools\MSVC\14.43.34808\include\xstring

; 889  :         _Construct_in_place(_My_data._Bx._Ptr, _New_ptr);

  00082	83 c4 04	 add	 esp, 4
$LN37@Construct:
; File D:\Program Files\Microsoft Visual Studio\2022\Community\VC\Tools\MSVC\14.43.34808\include\__msvc_string_view.hpp

; 95   :         _CSTD memcpy(_First1, _First2, _Count * sizeof(_Elem));

  00085	56		 push	 esi
  00086	ff 75 08	 push	 DWORD PTR __Arg$[ebp]
; File D:\Program Files\Microsoft Visual Studio\2022\Community\VC\Tools\MSVC\14.43.34808\include\xstring

; 889  :         _Construct_in_place(_My_data._Bx._Ptr, _New_ptr);

  00089	89 45 0c	 mov	 DWORD PTR $T1[ebp], eax
; File D:\Program Files\Microsoft Visual Studio\2022\Community\VC\Tools\MSVC\14.43.34808\include\__msvc_string_view.hpp

; 95   :         _CSTD memcpy(_First1, _First2, _Count * sizeof(_Elem));

  0008c	50		 push	 eax
; File D:\Program Files\Microsoft Visual Studio\2022\Community\VC\Tools\MSVC\14.43.34808\include\xstring

; 889  :         _Construct_in_place(_My_data._Bx._Ptr, _New_ptr);

  0008d	89 03		 mov	 DWORD PTR [ebx], eax

; 890  : 
; 891  :         _My_data._Mysize = _Count;

  0008f	89 73 10	 mov	 DWORD PTR [ebx+16], esi

; 892  :         _My_data._Myres  = _New_capacity;

  00092	89 7b 14	 mov	 DWORD PTR [ebx+20], edi
; File D:\Program Files\Microsoft Visual Studio\2022\Community\VC\Tools\MSVC\14.43.34808\include\__msvc_string_view.hpp

; 95   :         _CSTD memcpy(_First1, _First2, _Count * sizeof(_Elem));

  00095	e8 00 00 00 00	 call	 _memcpy
; File D:\Program Files\Microsoft Visual Studio\2022\Community\VC\Tools\MSVC\14.43.34808\include\xstring

; 898  :             _Traits::assign(_Unfancy(_New_ptr)[_Count], _Elem());

  0009a	8b 45 0c	 mov	 eax, DWORD PTR $T1[ebp]
; File D:\Program Files\Microsoft Visual Studio\2022\Community\VC\Tools\MSVC\14.43.34808\include\__msvc_string_view.hpp

; 95   :         _CSTD memcpy(_First1, _First2, _Count * sizeof(_Elem));

  0009d	83 c4 0c	 add	 esp, 12			; 0000000cH
; File D:\Program Files\Microsoft Visual Studio\2022\Community\VC\Tools\MSVC\14.43.34808\include\xstring

; 898  :             _Traits::assign(_Unfancy(_New_ptr)[_Count], _Elem());

  000a0	5f		 pop	 edi
  000a1	c6 04 30 00	 mov	 BYTE PTR [eax+esi], 0
  000a5	5e		 pop	 esi

; 899  :         } else { // _Strat == _Construct_strategy::_From_string
; 900  :             _Traits::copy(_Unfancy(_New_ptr), _Arg, _Count + 1);
; 901  :         }
; 902  : 
; 903  :         _ASAN_STRING_CREATE(*this);
; 904  :         _Proxy._Release();
; 905  :     }

  000a6	5b		 pop	 ebx
  000a7	5d		 pop	 ebp
  000a8	c2 08 00	 ret	 8
$LN40@Construct:

; 858  :             _Xlen_string(); // result too long

  000ab	e8 00 00 00 00	 call	 ?_Xlen_string@std@@YAXXZ ; std::_Xlen_string
$LN36@Construct:
  000b0	cc		 int	 3
??$_Construct@$00PBD@?$basic_string@DU?$char_traits@D@std@@V?$allocator@D@2@@std@@AAEXQBDI@Z ENDP ; std::basic_string<char,std::char_traits<char>,std::allocator<char> >::_Construct<1,char const *>
_TEXT	ENDS
; Function compile flags: /Ogtp
; File D:\Program Files\Microsoft Visual Studio\2022\Community\VC\Tools\MSVC\14.43.34808\include\xstring
; File D:\Program Files\Microsoft Visual Studio\2022\Community\VC\Tools\MSVC\14.43.34808\include\xmemory
; File D:\Program Files\Microsoft Visual Studio\2022\Community\VC\Tools\MSVC\14.43.34808\include\xstring
; File D:\Program Files\Microsoft Visual Studio\2022\Community\VC\Tools\MSVC\14.43.34808\include\xmemory
; File D:\Program Files\Microsoft Visual Studio\2022\Community\VC\Tools\MSVC\14.43.34808\include\xstring
; File D:\Program Files\Microsoft Visual Studio\2022\Community\VC\Tools\MSVC\14.43.34808\include\xmemory
; File D:\Program Files\Microsoft Visual Studio\2022\Community\VC\Tools\MSVC\14.43.34808\include\xstring
;	COMDAT ??1?$basic_string@DU?$char_traits@D@std@@V?$allocator@D@2@@std@@QAE@XZ
_TEXT	SEGMENT
??1?$basic_string@DU?$char_traits@D@std@@V?$allocator@D@2@@std@@QAE@XZ PROC ; std::basic_string<char,std::char_traits<char>,std::allocator<char> >::~basic_string<char,std::char_traits<char>,std::allocator<char> >, COMDAT
; _this$ = ecx

; 1358 :     _CONSTEXPR20 ~basic_string() noexcept {

  00000	56		 push	 esi
  00001	8b f1		 mov	 esi, ecx

; 434  :         return _Myres > _Small_string_capacity;

  00003	8b 4e 14	 mov	 ecx, DWORD PTR [esi+20]
  00006	83 f9 0f	 cmp	 ecx, 15			; 0000000fH

; 3047 :         if (_My_data._Large_mode_engaged()) {

  00009	76 27		 jbe	 SHORT $LN19@basic_stri
; File D:\Program Files\Microsoft Visual Studio\2022\Community\VC\Tools\MSVC\14.43.34808\include\xmemory

; 981  :         _STD _Deallocate<_New_alignof<_Ty>>(_Ptr, sizeof(_Ty) * _Count);

  0000b	8b 06		 mov	 eax, DWORD PTR [esi]
; File D:\Program Files\Microsoft Visual Studio\2022\Community\VC\Tools\MSVC\14.43.34808\include\xstring

; 828  :         _Al.deallocate(_Old_ptr, _Capacity + 1); // +1 for null terminator

  0000d	41		 inc	 ecx
; File D:\Program Files\Microsoft Visual Studio\2022\Community\VC\Tools\MSVC\14.43.34808\include\xmemory

; 284  :         if (_Bytes >= _Big_allocation_threshold) {

  0000e	81 f9 00 10 00
	00		 cmp	 ecx, 4096		; 00001000H
  00014	72 12		 jb	 SHORT $LN30@basic_stri

; 205  :     const uintptr_t _Ptr_container   = _Ptr_user[-1];

  00016	8b 50 fc	 mov	 edx, DWORD PTR [eax-4]
  00019	83 c1 23	 add	 ecx, 35			; 00000023H

; 206  : 
; 207  :     // If the following asserts, it likely means that we are performing
; 208  :     // an aligned delete on memory coming from an unaligned allocation.
; 209  :     _STL_ASSERT(_Ptr_user[-2] == _Big_allocation_sentinel, "invalid argument");
; 210  : 
; 211  :     // Extra paranoia on aligned allocation/deallocation; ensure _Ptr_container is
; 212  :     // in range [_Min_back_shift, _Non_user_size]
; 213  : #ifdef _DEBUG
; 214  :     constexpr uintptr_t _Min_back_shift = 2 * sizeof(void*);
; 215  : #else // ^^^ defined(_DEBUG) / !defined(_DEBUG) vvv
; 216  :     constexpr uintptr_t _Min_back_shift = sizeof(void*);
; 217  : #endif // ^^^ !defined(_DEBUG) ^^^
; 218  :     const uintptr_t _Back_shift = reinterpret_cast<uintptr_t>(_Ptr) - _Ptr_container;

  0001c	2b c2		 sub	 eax, edx

; 219  :     _STL_VERIFY(_Back_shift >= _Min_back_shift && _Back_shift <= _Non_user_size, "invalid argument");

  0001e	83 c0 fc	 add	 eax, -4			; fffffffcH
  00021	83 f8 1f	 cmp	 eax, 31			; 0000001fH
  00024	77 1f		 ja	 SHORT $LN27@basic_stri

; 220  :     _Ptr = reinterpret_cast<void*>(_Ptr_container);

  00026	8b c2		 mov	 eax, edx
$LN30@basic_stri:

; 289  :         ::operator delete(_Ptr, _Bytes);

  00028	51		 push	 ecx
  00029	50		 push	 eax
  0002a	e8 00 00 00 00	 call	 ??3@YAXPAXI@Z		; operator delete
  0002f	83 c4 08	 add	 esp, 8
$LN19@basic_stri:
; File D:\Program Files\Microsoft Visual Studio\2022\Community\VC\Tools\MSVC\14.43.34808\include\xstring

; 3054 :         _My_data._Mysize = 0;

  00032	c7 46 10 00 00
	00 00		 mov	 DWORD PTR [esi+16], 0

; 3055 :         _My_data._Myres  = _Small_string_capacity;

  00039	c7 46 14 0f 00
	00 00		 mov	 DWORD PTR [esi+20], 15	; 0000000fH

; 3056 :         // the _Traits::assign is last so the codegen doesn't think the char write can alias this
; 3057 :         _Traits::assign(_My_data._Bx._Buf[0], _Elem());

  00040	c6 06 00	 mov	 BYTE PTR [esi], 0
  00043	5e		 pop	 esi

; 1366 :     }

  00044	c3		 ret	 0
$LN27@basic_stri:
; File D:\Program Files\Microsoft Visual Studio\2022\Community\VC\Tools\MSVC\14.43.34808\include\xmemory

; 219  :     _STL_VERIFY(_Back_shift >= _Min_back_shift && _Back_shift <= _Non_user_size, "invalid argument");

  00045	e8 00 00 00 00	 call	 __invalid_parameter_noinfo_noreturn
$LN39@basic_stri:
  0004a	cc		 int	 3
??1?$basic_string@DU?$char_traits@D@std@@V?$allocator@D@2@@std@@QAE@XZ ENDP ; std::basic_string<char,std::char_traits<char>,std::allocator<char> >::~basic_string<char,std::char_traits<char>,std::allocator<char> >
_TEXT	ENDS
; Function compile flags: /Ogtp
; File D:\Program Files\Microsoft Visual Studio\2022\Community\VC\Tools\MSVC\14.43.34808\include\xstring
;	COMDAT ?_Xran@?$_String_val@U?$_Simple_types@D@std@@@std@@SAXXZ
_TEXT	SEGMENT
?_Xran@?$_String_val@U?$_Simple_types@D@std@@@std@@SAXXZ PROC ; std::_String_val<std::_Simple_types<char> >::_Xran, COMDAT

; 463  :         _Xout_of_range("invalid string position");

  00000	68 00 00 00 00	 push	 OFFSET ??_C@_0BI@CFPLBAOH@invalid?5string?5position@
  00005	e8 00 00 00 00	 call	 ?_Xout_of_range@std@@YAXPBD@Z ; std::_Xout_of_range
$LN3@Xran:
  0000a	cc		 int	 3
?_Xran@?$_String_val@U?$_Simple_types@D@std@@@std@@SAXXZ ENDP ; std::_String_val<std::_Simple_types<char> >::_Xran
_TEXT	ENDS
; Function compile flags: /Ogtp
; File D:\Program Files\Microsoft Visual Studio\2022\Community\VC\Tools\MSVC\14.43.34808\include\xstring
;	COMDAT ?_Xlen_string@std@@YAXXZ
_TEXT	SEGMENT
?_Xlen_string@std@@YAXXZ PROC				; std::_Xlen_string, COMDAT

; 512  :     _Xlength_error("string too long");

  00000	68 00 00 00 00	 push	 OFFSET ??_C@_0BA@JFNIOLAK@string?5too?5long@
  00005	e8 00 00 00 00	 call	 ?_Xlength_error@std@@YAXPBD@Z ; std::_Xlength_error
$LN3@Xlen_strin:
  0000a	cc		 int	 3
?_Xlen_string@std@@YAXXZ ENDP				; std::_Xlen_string
_TEXT	ENDS
; Function compile flags: /Ogtp
; File D:\Program Files\Microsoft Visual Studio\2022\Community\VC\Tools\MSVC\14.43.34808\include\xmemory
;	COMDAT ?_Throw_bad_array_new_length@std@@YAXXZ
_TEXT	SEGMENT
$T1 = -12						; size = 12
?_Throw_bad_array_new_length@std@@YAXXZ PROC		; std::_Throw_bad_array_new_length, COMDAT

; 107  : [[noreturn]] inline void _Throw_bad_array_new_length() {

  00000	55		 push	 ebp
  00001	8b ec		 mov	 ebp, esp
  00003	83 ec 0c	 sub	 esp, 12			; 0000000cH

; 108  :     _THROW(bad_array_new_length{});

  00006	8d 4d f4	 lea	 ecx, DWORD PTR $T1[ebp]
  00009	e8 00 00 00 00	 call	 ??0bad_array_new_length@std@@QAE@XZ ; std::bad_array_new_length::bad_array_new_length
  0000e	68 00 00 00 00	 push	 OFFSET __TI3?AVbad_array_new_length@std@@
  00013	8d 45 f4	 lea	 eax, DWORD PTR $T1[ebp]
  00016	50		 push	 eax
  00017	e8 00 00 00 00	 call	 __CxxThrowException@8
$LN3@Throw_bad_:
  0001c	cc		 int	 3
?_Throw_bad_array_new_length@std@@YAXXZ ENDP		; std::_Throw_bad_array_new_length
_TEXT	ENDS
; Function compile flags: /Ogtp
; File D:\Program Files\Microsoft Visual Studio\2022\Community\VC\Tools\MSVC\14.43.34808\include\vcruntime_exception.h
;	COMDAT ??_Gbad_array_new_length@std@@UAEPAXI@Z
_TEXT	SEGMENT
___flags$ = 8						; size = 4
??_Gbad_array_new_length@std@@UAEPAXI@Z PROC		; std::bad_array_new_length::`scalar deleting destructor', COMDAT
; _this$ = ecx
  00000	55		 push	 ebp
  00001	8b ec		 mov	 ebp, esp

; 90   :     {

  00003	56		 push	 esi
  00004	8b f1		 mov	 esi, ecx

; 91   :         __std_exception_destroy(&_Data);

  00006	8d 46 04	 lea	 eax, DWORD PTR [esi+4]
  00009	c7 06 00 00 00
	00		 mov	 DWORD PTR [esi], OFFSET ??_7exception@std@@6B@
  0000f	50		 push	 eax
  00010	e8 00 00 00 00	 call	 ___std_exception_destroy
  00015	83 c4 04	 add	 esp, 4
  00018	f6 45 08 01	 test	 BYTE PTR ___flags$[ebp], 1
  0001c	74 0b		 je	 SHORT $LN18@scalar
  0001e	6a 0c		 push	 12			; 0000000cH
  00020	56		 push	 esi
  00021	e8 00 00 00 00	 call	 ??3@YAXPAXI@Z		; operator delete
  00026	83 c4 08	 add	 esp, 8
$LN18@scalar:
  00029	8b c6		 mov	 eax, esi
  0002b	5e		 pop	 esi
  0002c	5d		 pop	 ebp
  0002d	c2 04 00	 ret	 4
??_Gbad_array_new_length@std@@UAEPAXI@Z ENDP		; std::bad_array_new_length::`scalar deleting destructor'
_TEXT	ENDS
; Function compile flags: /Ogtp
; File D:\Program Files\Microsoft Visual Studio\2022\Community\VC\Tools\MSVC\14.43.34808\include\vcruntime_exception.h
;	COMDAT ??0bad_array_new_length@std@@QAE@ABV01@@Z
_TEXT	SEGMENT
___that$ = 8						; size = 4
??0bad_array_new_length@std@@QAE@ABV01@@Z PROC		; std::bad_array_new_length::bad_array_new_length, COMDAT
; _this$ = ecx
  00000	55		 push	 ebp
  00001	8b ec		 mov	 ebp, esp

; 73   :     {

  00003	56		 push	 esi
  00004	8b f1		 mov	 esi, ecx
  00006	0f 57 c0	 xorps	 xmm0, xmm0

; 72   :         : _Data()

  00009	8d 46 04	 lea	 eax, DWORD PTR [esi+4]

; 74   :         __std_exception_copy(&_Other._Data, &_Data);

  0000c	50		 push	 eax
  0000d	c7 06 00 00 00
	00		 mov	 DWORD PTR [esi], OFFSET ??_7exception@std@@6B@
  00013	66 0f d6 00	 movq	 QWORD PTR [eax], xmm0
  00017	8b 45 08	 mov	 eax, DWORD PTR ___that$[ebp]
  0001a	83 c0 04	 add	 eax, 4
  0001d	50		 push	 eax
  0001e	e8 00 00 00 00	 call	 ___std_exception_copy
  00023	83 c4 08	 add	 esp, 8
  00026	c7 06 00 00 00
	00		 mov	 DWORD PTR [esi], OFFSET ??_7bad_array_new_length@std@@6B@
  0002c	8b c6		 mov	 eax, esi
  0002e	5e		 pop	 esi
  0002f	5d		 pop	 ebp
  00030	c2 04 00	 ret	 4
??0bad_array_new_length@std@@QAE@ABV01@@Z ENDP		; std::bad_array_new_length::bad_array_new_length
_TEXT	ENDS
; Function compile flags: /Ogtp
; File D:\Program Files\Microsoft Visual Studio\2022\Community\VC\Tools\MSVC\14.43.34808\include\vcruntime_exception.h
;	COMDAT ??1bad_array_new_length@std@@UAE@XZ
_TEXT	SEGMENT
??1bad_array_new_length@std@@UAE@XZ PROC		; std::bad_array_new_length::~bad_array_new_length, COMDAT
; _this$ = ecx

; 91   :         __std_exception_destroy(&_Data);

  00000	8d 41 04	 lea	 eax, DWORD PTR [ecx+4]
  00003	c7 01 00 00 00
	00		 mov	 DWORD PTR [ecx], OFFSET ??_7exception@std@@6B@
  00009	50		 push	 eax
  0000a	e8 00 00 00 00	 call	 ___std_exception_destroy
  0000f	59		 pop	 ecx
  00010	c3		 ret	 0
??1bad_array_new_length@std@@UAE@XZ ENDP		; std::bad_array_new_length::~bad_array_new_length
_TEXT	ENDS
; Function compile flags: /Ogtp
; File D:\Program Files\Microsoft Visual Studio\2022\Community\VC\Tools\MSVC\14.43.34808\include\vcruntime_exception.h
;	COMDAT ??0bad_array_new_length@std@@QAE@XZ
_TEXT	SEGMENT
??0bad_array_new_length@std@@QAE@XZ PROC		; std::bad_array_new_length::bad_array_new_length, COMDAT
; _this$ = ecx

; 144  :     {

  00000	0f 57 c0	 xorps	 xmm0, xmm0

; 145  :     }

  00003	8b c1		 mov	 eax, ecx

; 66   :         : _Data()

  00005	66 0f d6 41 04	 movq	 QWORD PTR [ecx+4], xmm0

; 67   :     {
; 68   :         _Data._What = _Message;

  0000a	c7 41 04 00 00
	00 00		 mov	 DWORD PTR [ecx+4], OFFSET ??_C@_0BF@KINCDENJ@bad?5array?5new?5length@

; 144  :     {

  00011	c7 01 00 00 00
	00		 mov	 DWORD PTR [ecx], OFFSET ??_7bad_array_new_length@std@@6B@

; 145  :     }

  00017	c3		 ret	 0
??0bad_array_new_length@std@@QAE@XZ ENDP		; std::bad_array_new_length::bad_array_new_length
_TEXT	ENDS
; Function compile flags: /Ogtp
; File D:\Program Files\Microsoft Visual Studio\2022\Community\VC\Tools\MSVC\14.43.34808\include\vcruntime_exception.h
;	COMDAT ??_Gbad_alloc@std@@UAEPAXI@Z
_TEXT	SEGMENT
___flags$ = 8						; size = 4
??_Gbad_alloc@std@@UAEPAXI@Z PROC			; std::bad_alloc::`scalar deleting destructor', COMDAT
; _this$ = ecx
  00000	55		 push	 ebp
  00001	8b ec		 mov	 ebp, esp

; 90   :     {

  00003	56		 push	 esi
  00004	8b f1		 mov	 esi, ecx

; 91   :         __std_exception_destroy(&_Data);

  00006	8d 46 04	 lea	 eax, DWORD PTR [esi+4]
  00009	c7 06 00 00 00
	00		 mov	 DWORD PTR [esi], OFFSET ??_7exception@std@@6B@
  0000f	50		 push	 eax
  00010	e8 00 00 00 00	 call	 ___std_exception_destroy
  00015	83 c4 04	 add	 esp, 4
  00018	f6 45 08 01	 test	 BYTE PTR ___flags$[ebp], 1
  0001c	74 0b		 je	 SHORT $LN13@scalar
  0001e	6a 0c		 push	 12			; 0000000cH
  00020	56		 push	 esi
  00021	e8 00 00 00 00	 call	 ??3@YAXPAXI@Z		; operator delete
  00026	83 c4 08	 add	 esp, 8
$LN13@scalar:
  00029	8b c6		 mov	 eax, esi
  0002b	5e		 pop	 esi
  0002c	5d		 pop	 ebp
  0002d	c2 04 00	 ret	 4
??_Gbad_alloc@std@@UAEPAXI@Z ENDP			; std::bad_alloc::`scalar deleting destructor'
_TEXT	ENDS
; Function compile flags: /Ogtp
; File D:\Program Files\Microsoft Visual Studio\2022\Community\VC\Tools\MSVC\14.43.34808\include\vcruntime_exception.h
;	COMDAT ??0bad_alloc@std@@QAE@ABV01@@Z
_TEXT	SEGMENT
___that$ = 8						; size = 4
??0bad_alloc@std@@QAE@ABV01@@Z PROC			; std::bad_alloc::bad_alloc, COMDAT
; _this$ = ecx
  00000	55		 push	 ebp
  00001	8b ec		 mov	 ebp, esp

; 73   :     {

  00003	56		 push	 esi
  00004	8b f1		 mov	 esi, ecx
  00006	0f 57 c0	 xorps	 xmm0, xmm0

; 72   :         : _Data()

  00009	8d 46 04	 lea	 eax, DWORD PTR [esi+4]

; 74   :         __std_exception_copy(&_Other._Data, &_Data);

  0000c	50		 push	 eax
  0000d	c7 06 00 00 00
	00		 mov	 DWORD PTR [esi], OFFSET ??_7exception@std@@6B@
  00013	66 0f d6 00	 movq	 QWORD PTR [eax], xmm0
  00017	8b 45 08	 mov	 eax, DWORD PTR ___that$[ebp]
  0001a	83 c0 04	 add	 eax, 4
  0001d	50		 push	 eax
  0001e	e8 00 00 00 00	 call	 ___std_exception_copy
  00023	83 c4 08	 add	 esp, 8
  00026	c7 06 00 00 00
	00		 mov	 DWORD PTR [esi], OFFSET ??_7bad_alloc@std@@6B@
  0002c	8b c6		 mov	 eax, esi
  0002e	5e		 pop	 esi
  0002f	5d		 pop	 ebp
  00030	c2 04 00	 ret	 4
??0bad_alloc@std@@QAE@ABV01@@Z ENDP			; std::bad_alloc::bad_alloc
_TEXT	ENDS
; Function compile flags: /Ogtp
; File D:\Program Files\Microsoft Visual Studio\2022\Community\VC\Tools\MSVC\14.43.34808\include\vcruntime_exception.h
;	COMDAT ??_Gexception@std@@UAEPAXI@Z
_TEXT	SEGMENT
___flags$ = 8						; size = 4
??_Gexception@std@@UAEPAXI@Z PROC			; std::exception::`scalar deleting destructor', COMDAT
; _this$ = ecx
  00000	55		 push	 ebp
  00001	8b ec		 mov	 ebp, esp

; 90   :     {

  00003	56		 push	 esi
  00004	8b f1		 mov	 esi, ecx

; 91   :         __std_exception_destroy(&_Data);

  00006	8d 46 04	 lea	 eax, DWORD PTR [esi+4]
  00009	c7 06 00 00 00
	00		 mov	 DWORD PTR [esi], OFFSET ??_7exception@std@@6B@
  0000f	50		 push	 eax
  00010	e8 00 00 00 00	 call	 ___std_exception_destroy
  00015	83 c4 04	 add	 esp, 4
  00018	f6 45 08 01	 test	 BYTE PTR ___flags$[ebp], 1
  0001c	74 0b		 je	 SHORT $LN8@scalar
  0001e	6a 0c		 push	 12			; 0000000cH
  00020	56		 push	 esi
  00021	e8 00 00 00 00	 call	 ??3@YAXPAXI@Z		; operator delete
  00026	83 c4 08	 add	 esp, 8
$LN8@scalar:
  00029	8b c6		 mov	 eax, esi
  0002b	5e		 pop	 esi
  0002c	5d		 pop	 ebp
  0002d	c2 04 00	 ret	 4
??_Gexception@std@@UAEPAXI@Z ENDP			; std::exception::`scalar deleting destructor'
_TEXT	ENDS
; Function compile flags: /Ogtp
; File D:\Program Files\Microsoft Visual Studio\2022\Community\VC\Tools\MSVC\14.43.34808\include\vcruntime_exception.h
;	COMDAT ?what@exception@std@@UBEPBDXZ
_TEXT	SEGMENT
?what@exception@std@@UBEPBDXZ PROC			; std::exception::what, COMDAT
; _this$ = ecx

; 96   :         return _Data._What ? _Data._What : "Unknown exception";

  00000	8b 49 04	 mov	 ecx, DWORD PTR [ecx+4]
  00003	b8 00 00 00 00	 mov	 eax, OFFSET ??_C@_0BC@EOODALEL@Unknown?5exception@
  00008	85 c9		 test	 ecx, ecx
  0000a	0f 45 c1	 cmovne	 eax, ecx

; 97   :     }

  0000d	c3		 ret	 0
?what@exception@std@@UBEPBDXZ ENDP			; std::exception::what
_TEXT	ENDS
; Function compile flags: /Ogtp
; File D:\Program Files\Microsoft Visual Studio\2022\Community\VC\Tools\MSVC\14.43.34808\include\vcruntime_exception.h
;	COMDAT ??1exception@std@@UAE@XZ
_TEXT	SEGMENT
??1exception@std@@UAE@XZ PROC				; std::exception::~exception, COMDAT
; _this$ = ecx

; 91   :         __std_exception_destroy(&_Data);

  00000	8d 41 04	 lea	 eax, DWORD PTR [ecx+4]
  00003	c7 01 00 00 00
	00		 mov	 DWORD PTR [ecx], OFFSET ??_7exception@std@@6B@
  00009	50		 push	 eax
  0000a	e8 00 00 00 00	 call	 ___std_exception_destroy
  0000f	59		 pop	 ecx

; 92   :     }

  00010	c3		 ret	 0
??1exception@std@@UAE@XZ ENDP				; std::exception::~exception
_TEXT	ENDS
; Function compile flags: /Ogtp
; File D:\Program Files\Microsoft Visual Studio\2022\Community\VC\Tools\MSVC\14.43.34808\include\vcruntime_exception.h
;	COMDAT ??0exception@std@@QAE@ABV01@@Z
_TEXT	SEGMENT
__Other$ = 8						; size = 4
??0exception@std@@QAE@ABV01@@Z PROC			; std::exception::exception, COMDAT
; _this$ = ecx

; 73   :     {

  00000	55		 push	 ebp
  00001	8b ec		 mov	 ebp, esp
  00003	56		 push	 esi
  00004	8b f1		 mov	 esi, ecx
  00006	0f 57 c0	 xorps	 xmm0, xmm0
  00009	8d 46 04	 lea	 eax, DWORD PTR [esi+4]

; 74   :         __std_exception_copy(&_Other._Data, &_Data);

  0000c	50		 push	 eax
  0000d	c7 06 00 00 00
	00		 mov	 DWORD PTR [esi], OFFSET ??_7exception@std@@6B@
  00013	66 0f d6 00	 movq	 QWORD PTR [eax], xmm0
  00017	8b 45 08	 mov	 eax, DWORD PTR __Other$[ebp]
  0001a	83 c0 04	 add	 eax, 4
  0001d	50		 push	 eax
  0001e	e8 00 00 00 00	 call	 ___std_exception_copy
  00023	83 c4 08	 add	 esp, 8

; 75   :     }

  00026	8b c6		 mov	 eax, esi
  00028	5e		 pop	 esi
  00029	5d		 pop	 ebp
  0002a	c2 04 00	 ret	 4
??0exception@std@@QAE@ABV01@@Z ENDP			; std::exception::exception
_TEXT	ENDS
; Function compile flags: /Ogtp
; File D:\Windows Kits\10\Include\10.0.26100.0\ucrt\stdio.h
;	COMDAT __snprintf
_TEXT	SEGMENT
__Buffer$ = 8						; size = 4
__BufferCount$ = 12					; size = 4
__Format$ = 16						; size = 4
__snprintf PROC						; COMDAT

; 1947 :     {

  00000	55		 push	 ebp
  00001	8b ec		 mov	 ebp, esp

; 1392 :         int const _Result = __stdio_common_vsprintf(

  00003	8d 45 14	 lea	 eax, DWORD PTR __Format$[ebp+4]
  00006	50		 push	 eax
  00007	6a 00		 push	 0
  00009	ff 75 10	 push	 DWORD PTR __Format$[ebp]
  0000c	ff 75 0c	 push	 DWORD PTR __BufferCount$[ebp]
  0000f	ff 75 08	 push	 DWORD PTR __Buffer$[ebp]
  00012	e8 00 00 00 00	 call	 ___local_stdio_printf_options
  00017	8b 08		 mov	 ecx, DWORD PTR [eax]
  00019	ff 70 04	 push	 DWORD PTR [eax+4]
  0001c	83 c9 01	 or	 ecx, 1
  0001f	51		 push	 ecx
  00020	e8 00 00 00 00	 call	 ___stdio_common_vsprintf

; 1393 :             _CRT_INTERNAL_LOCAL_PRINTF_OPTIONS | _CRT_INTERNAL_PRINTF_LEGACY_VSPRINTF_NULL_TERMINATION,
; 1394 :             _Buffer, _BufferCount, _Format, _Locale, _ArgList);
; 1395 : 
; 1396 :         return _Result < 0 ? -1 : _Result;

  00025	83 c9 ff	 or	 ecx, -1
  00028	83 c4 1c	 add	 esp, 28			; 0000001cH
  0002b	85 c0		 test	 eax, eax
  0002d	0f 48 c1	 cmovs	 eax, ecx

; 1948 :         int _Result;
; 1949 :         va_list _ArgList;
; 1950 :         __crt_va_start(_ArgList, _Format);
; 1951 :         _Result = _vsnprintf(_Buffer, _BufferCount, _Format, _ArgList);
; 1952 :         __crt_va_end(_ArgList);
; 1953 :         return _Result;
; 1954 :     }

  00030	5d		 pop	 ebp
  00031	c3		 ret	 0
__snprintf ENDP
_TEXT	ENDS
; Function compile flags: /Ogtp
; File D:\Windows Kits\10\Include\10.0.26100.0\ucrt\corecrt_stdio_config.h
;	COMDAT ___local_stdio_printf_options
_TEXT	SEGMENT
___local_stdio_printf_options PROC			; COMDAT

; 91   :         static unsigned __int64 _OptionsStorage;
; 92   :         return &_OptionsStorage;

  00000	b8 00 00 00 00	 mov	 eax, OFFSET ?_OptionsStorage@?1??__local_stdio_printf_options@@9@4_KA ; `__local_stdio_printf_options'::`2'::_OptionsStorage

; 93   :     }

  00005	c3		 ret	 0
___local_stdio_printf_options ENDP
_TEXT	ENDS
; Function compile flags: /Ogtp
;	COMDAT ??_H@YGXPAXIIP6EPAX0@Z@Z
_TEXT	SEGMENT
___t$ = 8						; size = 4
___s$ = 12						; size = 4
___n$ = 16						; size = 4
___f$ = 20						; size = 4
??_H@YGXPAXIIP6EPAX0@Z@Z PROC				; `vector constructor iterator', COMDAT
  00000	55		 push	 ebp
  00001	8b ec		 mov	 ebp, esp
  00003	56		 push	 esi
  00004	8b 75 10	 mov	 esi, DWORD PTR ___n$[ebp]
  00007	85 f6		 test	 esi, esi
  00009	74 16		 je	 SHORT $LN6@vector
  0000b	53		 push	 ebx
  0000c	8b 5d 14	 mov	 ebx, DWORD PTR ___f$[ebp]
  0000f	57		 push	 edi
  00010	8b 7d 08	 mov	 edi, DWORD PTR ___t$[ebp]
$LL2@vector:
  00013	8b cf		 mov	 ecx, edi
  00015	ff d3		 call	 ebx
  00017	03 7d 0c	 add	 edi, DWORD PTR ___s$[ebp]
  0001a	83 ee 01	 sub	 esi, 1
  0001d	75 f4		 jne	 SHORT $LL2@vector
  0001f	5f		 pop	 edi
  00020	5b		 pop	 ebx
$LN6@vector:
  00021	5e		 pop	 esi
  00022	5d		 pop	 ebp
  00023	c2 10 00	 ret	 16			; 00000010H
??_H@YGXPAXIIP6EPAX0@Z@Z ENDP				; `vector constructor iterator'
_TEXT	ENDS
END
