; Listing generated by Microsoft (R) Optimizing Compiler Version 19.43.34808.0 

	TITLE	C:\Marty 5.5\Src-Client\Client\eterGrnLib\Distribute\ModelInstanceCollisionDetection.obj
	.686P
	.XMM
	include listing.inc
	.model	flat

INCLUDELIB LIBCMT
INCLUDELIB OLDNAMES

CONST	SEGMENT
?_Fake_alloc@std@@3U_Fake_allocator@1@B	ORG $+1		; std::_Fake_alloc
CONST	ENDS
PUBLIC	??0exception@std@@QAE@ABV01@@Z			; std::exception::exception
PUBLIC	??1exception@std@@UAE@XZ			; std::exception::~exception
PUBLIC	?what@exception@std@@UBEPBDXZ			; std::exception::what
PUBLIC	??_Gexception@std@@UAEPAXI@Z			; std::exception::`scalar deleting destructor'
PUBLIC	??0bad_alloc@std@@QAE@ABV01@@Z			; std::bad_alloc::bad_alloc
PUBLIC	??_Gbad_alloc@std@@UAEPAXI@Z			; std::bad_alloc::`scalar deleting destructor'
PUBLIC	??0bad_array_new_length@std@@QAE@XZ		; std::bad_array_new_length::bad_array_new_length
PUBLIC	??1bad_array_new_length@std@@UAE@XZ		; std::bad_array_new_length::~bad_array_new_length
PUBLIC	??0bad_array_new_length@std@@QAE@ABV01@@Z	; std::bad_array_new_length::bad_array_new_length
PUBLIC	??_Gbad_array_new_length@std@@UAEPAXI@Z		; std::bad_array_new_length::`scalar deleting destructor'
PUBLIC	?_Throw_bad_array_new_length@std@@YAXXZ		; std::_Throw_bad_array_new_length
PUBLIC	??$_Allocate_manually_vector_aligned@U_Default_allocate_traits@std@@@std@@YAPAXI@Z ; std::_Allocate_manually_vector_aligned<std::_Default_allocate_traits>
PUBLIC	?GetMeshMatrixPointer@CGrannyModelInstance@@QBE_NHPAPBUD3DXMATRIX@@@Z ; CGrannyModelInstance::GetMeshMatrixPointer
PUBLIC	?Intersect@CGrannyModelInstance@@QAE_NPBUD3DXMATRIX@@PAM11@Z ; CGrannyModelInstance::Intersect
PUBLIC	?MakeBoundBox@CGrannyModelInstance@@QAEXPAUSBoundBox@@PBM11PAUD3DXVECTOR3@@2@Z ; CGrannyModelInstance::MakeBoundBox
PUBLIC	?GetBoundBox@CGrannyModelInstance@@QAEXPAUD3DXVECTOR3@@0@Z ; CGrannyModelInstance::GetBoundBox
PUBLIC	??1?$stl_stack_pool@USBoundBox@@@@UAE@XZ	; stl_stack_pool<SBoundBox>::~stl_stack_pool<SBoundBox>
PUBLIC	??1?$vector@USBoundBox@@V?$allocator@USBoundBox@@@std@@@std@@QAE@XZ ; std::vector<SBoundBox,std::allocator<SBoundBox> >::~vector<SBoundBox,std::allocator<SBoundBox> >
PUBLIC	?_Xlength@?$vector@USBoundBox@@V?$allocator@USBoundBox@@@std@@@std@@CAXXZ ; std::vector<SBoundBox,std::allocator<SBoundBox> >::_Xlength
PUBLIC	??_G?$stl_stack_pool@USBoundBox@@@@UAEPAXI@Z	; stl_stack_pool<SBoundBox>::`scalar deleting destructor'
PUBLIC	??$_Resize_reallocate@U_Value_init_tag@std@@@?$vector@USBoundBox@@V?$allocator@USBoundBox@@@std@@@std@@AAEXIABU_Value_init_tag@1@@Z ; std::vector<SBoundBox,std::allocator<SBoundBox> >::_Resize_reallocate<std::_Value_init_tag>
PUBLIC	??$_Copy_memmove@PAUSBoundBox@@PAU1@@std@@YAPAUSBoundBox@@PAU1@00@Z ; std::_Copy_memmove<SBoundBox *,SBoundBox *>
PUBLIC	??$_Copy_memmove_tail@PAUSBoundBox@@@std@@YAPAUSBoundBox@@QBDQAU1@II@Z ; std::_Copy_memmove_tail<SBoundBox *>
PUBLIC	??_7exception@std@@6B@				; std::exception::`vftable'
PUBLIC	??_C@_0BC@EOODALEL@Unknown?5exception@		; `string'
PUBLIC	??_7bad_alloc@std@@6B@				; std::bad_alloc::`vftable'
PUBLIC	??_7bad_array_new_length@std@@6B@		; std::bad_array_new_length::`vftable'
PUBLIC	??_C@_0BF@KINCDENJ@bad?5array?5new?5length@	; `string'
PUBLIC	??_R0?AVexception@std@@@8			; std::exception `RTTI Type Descriptor'
PUBLIC	__CT??_R0?AVexception@std@@@8??0exception@std@@QAE@ABV01@@Z12
PUBLIC	__TI3?AVbad_array_new_length@std@@
PUBLIC	__CTA3?AVbad_array_new_length@std@@
PUBLIC	??_R0?AVbad_array_new_length@std@@@8		; std::bad_array_new_length `RTTI Type Descriptor'
PUBLIC	__CT??_R0?AVbad_array_new_length@std@@@8??0bad_array_new_length@std@@QAE@ABV01@@Z12
PUBLIC	??_R0?AVbad_alloc@std@@@8			; std::bad_alloc `RTTI Type Descriptor'
PUBLIC	__CT??_R0?AVbad_alloc@std@@@8??0bad_alloc@std@@QAE@ABV01@@Z12
PUBLIC	??_R4exception@std@@6B@				; std::exception::`RTTI Complete Object Locator'
PUBLIC	??_R3exception@std@@8				; std::exception::`RTTI Class Hierarchy Descriptor'
PUBLIC	??_R2exception@std@@8				; std::exception::`RTTI Base Class Array'
PUBLIC	??_R1A@?0A@EA@exception@std@@8			; std::exception::`RTTI Base Class Descriptor at (0,-1,0,64)'
PUBLIC	??_R4bad_array_new_length@std@@6B@		; std::bad_array_new_length::`RTTI Complete Object Locator'
PUBLIC	??_R3bad_array_new_length@std@@8		; std::bad_array_new_length::`RTTI Class Hierarchy Descriptor'
PUBLIC	??_R2bad_array_new_length@std@@8		; std::bad_array_new_length::`RTTI Base Class Array'
PUBLIC	??_R1A@?0A@EA@bad_array_new_length@std@@8	; std::bad_array_new_length::`RTTI Base Class Descriptor at (0,-1,0,64)'
PUBLIC	??_R1A@?0A@EA@bad_alloc@std@@8			; std::bad_alloc::`RTTI Base Class Descriptor at (0,-1,0,64)'
PUBLIC	??_R3bad_alloc@std@@8				; std::bad_alloc::`RTTI Class Hierarchy Descriptor'
PUBLIC	??_R2bad_alloc@std@@8				; std::bad_alloc::`RTTI Base Class Array'
PUBLIC	??_R4bad_alloc@std@@6B@				; std::bad_alloc::`RTTI Complete Object Locator'
PUBLIC	??_7?$stl_stack_pool@USBoundBox@@@@6B@		; stl_stack_pool<SBoundBox>::`vftable'
PUBLIC	??_C@_0BA@FOIKENOD@vector?5too?5long@		; `string'
PUBLIC	??_R4?$stl_stack_pool@USBoundBox@@@@6B@		; stl_stack_pool<SBoundBox>::`RTTI Complete Object Locator'
PUBLIC	??_R0?AV?$stl_stack_pool@USBoundBox@@@@@8	; stl_stack_pool<SBoundBox> `RTTI Type Descriptor'
PUBLIC	??_R3?$stl_stack_pool@USBoundBox@@@@8		; stl_stack_pool<SBoundBox>::`RTTI Class Hierarchy Descriptor'
PUBLIC	??_R2?$stl_stack_pool@USBoundBox@@@@8		; stl_stack_pool<SBoundBox>::`RTTI Base Class Array'
PUBLIC	??_R1A@?0A@EA@?$stl_stack_pool@USBoundBox@@@@8	; stl_stack_pool<SBoundBox>::`RTTI Base Class Descriptor at (0,-1,0,64)'
PUBLIC	__real@4b189680
PUBLIC	__real@cb189680
EXTRN	??2@YAPAXI@Z:PROC				; operator new
EXTRN	??3@YAXPAXI@Z:PROC				; operator delete
EXTRN	_atexit:PROC
EXTRN	__Init_thread_header:PROC
EXTRN	__Init_thread_abort:PROC
EXTRN	__Init_thread_footer:PROC
EXTRN	__imp__GrannyGetWorldPose4x4@8:PROC
EXTRN	__invalid_parameter_noinfo_noreturn:PROC
EXTRN	___std_exception_copy:PROC
EXTRN	___std_exception_destroy:PROC
EXTRN	??_Eexception@std@@UAEPAXI@Z:PROC		; std::exception::`vector deleting destructor'
EXTRN	??_Ebad_alloc@std@@UAEPAXI@Z:PROC		; std::bad_alloc::`vector deleting destructor'
EXTRN	??_Ebad_array_new_length@std@@UAEPAXI@Z:PROC	; std::bad_array_new_length::`vector deleting destructor'
EXTRN	?_Xlength_error@std@@YAXPBD@Z:PROC		; std::_Xlength_error
EXTRN	?IntersectCube@CGraphicCollisionObject@@IAE_NPBUD3DXMATRIX@@MMMMMMAAUD3DXVECTOR3@@1PAM22@Z:PROC ; CGraphicCollisionObject::IntersectCube
EXTRN	?GetMeshCount@CGrannyModel@@QBEHXZ:PROC		; CGrannyModel::GetMeshCount
EXTRN	?GetGrannyModelPointer@CGrannyModel@@QAEPAUgranny_model@@XZ:PROC ; CGrannyModel::GetGrannyModelPointer
EXTRN	?__GetMeshBoneIndices@CGrannyModelInstance@@IBEPBHI@Z:PROC ; CGrannyModelInstance::__GetMeshBoneIndices
EXTRN	?__GetWorldPosePtr@CGrannyModelInstance@@IBEPAUworld_pose@granny@@XZ:PROC ; CGrannyModelInstance::__GetWorldPosePtr
EXTRN	??_E?$stl_stack_pool@USBoundBox@@@@UAEPAXI@Z:PROC ; stl_stack_pool<SBoundBox>::`vector deleting destructor'
EXTRN	@__security_check_cookie@4:PROC
EXTRN	__CxxThrowException@8:PROC
EXTRN	___CxxFrameHandler3:PROC
EXTRN	_memmove:PROC
EXTRN	_memset:PROC
EXTRN	__Init_thread_epoch:DWORD
EXTRN	??_7type_info@@6B@:QWORD			; type_info::`vftable'
EXTRN	?ms_vtPickRayOrig@CGraphicBase@@1UD3DXVECTOR3@@A:BYTE ; CGraphicBase::ms_vtPickRayOrig
EXTRN	?ms_vtPickRayDir@CGraphicBase@@1UD3DXVECTOR3@@A:BYTE ; CGraphicBase::ms_vtPickRayDir
EXTRN	___security_cookie:DWORD
EXTRN	__fltused:DWORD
EXTRN	__tls_array:DWORD
EXTRN	__tls_index:DWORD
;	COMDAT ?$TSS0@?1??Intersect@CGrannyModelInstance@@QAE_NPBUD3DXMATRIX@@PAM11@Z@4HA
_BSS	SEGMENT
?$TSS0@?1??Intersect@CGrannyModelInstance@@QAE_NPBUD3DXMATRIX@@PAM11@Z@4HA DD 01H DUP (?) ; `CGrannyModelInstance::Intersect'::`2'::$TSS0
_BSS	ENDS
;	COMDAT __real@cb189680
CONST	SEGMENT
__real@cb189680 DD 0cb189680r			; -1e+07
CONST	ENDS
;	COMDAT __real@4b189680
CONST	SEGMENT
__real@4b189680 DD 04b189680r			; 1e+07
CONST	ENDS
;	COMDAT ??_R1A@?0A@EA@?$stl_stack_pool@USBoundBox@@@@8
rdata$r	SEGMENT
??_R1A@?0A@EA@?$stl_stack_pool@USBoundBox@@@@8 DD FLAT:??_R0?AV?$stl_stack_pool@USBoundBox@@@@@8 ; stl_stack_pool<SBoundBox>::`RTTI Base Class Descriptor at (0,-1,0,64)'
	DD	00H
	DD	00H
	DD	0ffffffffH
	DD	00H
	DD	040H
	DD	FLAT:??_R3?$stl_stack_pool@USBoundBox@@@@8
rdata$r	ENDS
;	COMDAT ??_R2?$stl_stack_pool@USBoundBox@@@@8
rdata$r	SEGMENT
??_R2?$stl_stack_pool@USBoundBox@@@@8 DD FLAT:??_R1A@?0A@EA@?$stl_stack_pool@USBoundBox@@@@8 ; stl_stack_pool<SBoundBox>::`RTTI Base Class Array'
rdata$r	ENDS
;	COMDAT ??_R3?$stl_stack_pool@USBoundBox@@@@8
rdata$r	SEGMENT
??_R3?$stl_stack_pool@USBoundBox@@@@8 DD 00H		; stl_stack_pool<SBoundBox>::`RTTI Class Hierarchy Descriptor'
	DD	00H
	DD	01H
	DD	FLAT:??_R2?$stl_stack_pool@USBoundBox@@@@8
rdata$r	ENDS
;	COMDAT ??_R0?AV?$stl_stack_pool@USBoundBox@@@@@8
data$rs	SEGMENT
??_R0?AV?$stl_stack_pool@USBoundBox@@@@@8 DD FLAT:??_7type_info@@6B@ ; stl_stack_pool<SBoundBox> `RTTI Type Descriptor'
	DD	00H
	DB	'.?AV?$stl_stack_pool@USBoundBox@@@@', 00H
data$rs	ENDS
;	COMDAT ??_R4?$stl_stack_pool@USBoundBox@@@@6B@
rdata$r	SEGMENT
??_R4?$stl_stack_pool@USBoundBox@@@@6B@ DD 00H		; stl_stack_pool<SBoundBox>::`RTTI Complete Object Locator'
	DD	00H
	DD	00H
	DD	FLAT:??_R0?AV?$stl_stack_pool@USBoundBox@@@@@8
	DD	FLAT:??_R3?$stl_stack_pool@USBoundBox@@@@8
rdata$r	ENDS
;	COMDAT ??_C@_0BA@FOIKENOD@vector?5too?5long@
CONST	SEGMENT
??_C@_0BA@FOIKENOD@vector?5too?5long@ DB 'vector too long', 00H ; `string'
CONST	ENDS
;	COMDAT ?s_boundBoxPool@?1??Intersect@CGrannyModelInstance@@QAE_NPBUD3DXMATRIX@@PAM11@Z@4V?$stl_stack_pool@USBoundBox@@@@A
_DATA	SEGMENT
?s_boundBoxPool@?1??Intersect@CGrannyModelInstance@@QAE_NPBUD3DXMATRIX@@PAM11@Z@4V?$stl_stack_pool@USBoundBox@@@@A DD FLAT:??_7?$stl_stack_pool@USBoundBox@@@@6B@ ; `CGrannyModelInstance::Intersect'::`2'::s_boundBoxPool
	DD	00H
	DD	00H
	DD	00H
	DD	00H
_DATA	ENDS
;	COMDAT ??_7?$stl_stack_pool@USBoundBox@@@@6B@
CONST	SEGMENT
??_7?$stl_stack_pool@USBoundBox@@@@6B@ DD FLAT:??_R4?$stl_stack_pool@USBoundBox@@@@6B@ ; stl_stack_pool<SBoundBox>::`vftable'
	DD	FLAT:??_E?$stl_stack_pool@USBoundBox@@@@UAEPAXI@Z
CONST	ENDS
;	COMDAT ??_R4bad_alloc@std@@6B@
rdata$r	SEGMENT
??_R4bad_alloc@std@@6B@ DD 00H				; std::bad_alloc::`RTTI Complete Object Locator'
	DD	00H
	DD	00H
	DD	FLAT:??_R0?AVbad_alloc@std@@@8
	DD	FLAT:??_R3bad_alloc@std@@8
rdata$r	ENDS
;	COMDAT ??_R2bad_alloc@std@@8
rdata$r	SEGMENT
??_R2bad_alloc@std@@8 DD FLAT:??_R1A@?0A@EA@bad_alloc@std@@8 ; std::bad_alloc::`RTTI Base Class Array'
	DD	FLAT:??_R1A@?0A@EA@exception@std@@8
rdata$r	ENDS
;	COMDAT ??_R3bad_alloc@std@@8
rdata$r	SEGMENT
??_R3bad_alloc@std@@8 DD 00H				; std::bad_alloc::`RTTI Class Hierarchy Descriptor'
	DD	00H
	DD	02H
	DD	FLAT:??_R2bad_alloc@std@@8
rdata$r	ENDS
;	COMDAT ??_R1A@?0A@EA@bad_alloc@std@@8
rdata$r	SEGMENT
??_R1A@?0A@EA@bad_alloc@std@@8 DD FLAT:??_R0?AVbad_alloc@std@@@8 ; std::bad_alloc::`RTTI Base Class Descriptor at (0,-1,0,64)'
	DD	01H
	DD	00H
	DD	0ffffffffH
	DD	00H
	DD	040H
	DD	FLAT:??_R3bad_alloc@std@@8
rdata$r	ENDS
;	COMDAT ??_R1A@?0A@EA@bad_array_new_length@std@@8
rdata$r	SEGMENT
??_R1A@?0A@EA@bad_array_new_length@std@@8 DD FLAT:??_R0?AVbad_array_new_length@std@@@8 ; std::bad_array_new_length::`RTTI Base Class Descriptor at (0,-1,0,64)'
	DD	02H
	DD	00H
	DD	0ffffffffH
	DD	00H
	DD	040H
	DD	FLAT:??_R3bad_array_new_length@std@@8
rdata$r	ENDS
;	COMDAT ??_R2bad_array_new_length@std@@8
rdata$r	SEGMENT
??_R2bad_array_new_length@std@@8 DD FLAT:??_R1A@?0A@EA@bad_array_new_length@std@@8 ; std::bad_array_new_length::`RTTI Base Class Array'
	DD	FLAT:??_R1A@?0A@EA@bad_alloc@std@@8
	DD	FLAT:??_R1A@?0A@EA@exception@std@@8
rdata$r	ENDS
;	COMDAT ??_R3bad_array_new_length@std@@8
rdata$r	SEGMENT
??_R3bad_array_new_length@std@@8 DD 00H			; std::bad_array_new_length::`RTTI Class Hierarchy Descriptor'
	DD	00H
	DD	03H
	DD	FLAT:??_R2bad_array_new_length@std@@8
rdata$r	ENDS
;	COMDAT ??_R4bad_array_new_length@std@@6B@
rdata$r	SEGMENT
??_R4bad_array_new_length@std@@6B@ DD 00H		; std::bad_array_new_length::`RTTI Complete Object Locator'
	DD	00H
	DD	00H
	DD	FLAT:??_R0?AVbad_array_new_length@std@@@8
	DD	FLAT:??_R3bad_array_new_length@std@@8
rdata$r	ENDS
;	COMDAT ??_R1A@?0A@EA@exception@std@@8
rdata$r	SEGMENT
??_R1A@?0A@EA@exception@std@@8 DD FLAT:??_R0?AVexception@std@@@8 ; std::exception::`RTTI Base Class Descriptor at (0,-1,0,64)'
	DD	00H
	DD	00H
	DD	0ffffffffH
	DD	00H
	DD	040H
	DD	FLAT:??_R3exception@std@@8
rdata$r	ENDS
;	COMDAT ??_R2exception@std@@8
rdata$r	SEGMENT
??_R2exception@std@@8 DD FLAT:??_R1A@?0A@EA@exception@std@@8 ; std::exception::`RTTI Base Class Array'
rdata$r	ENDS
;	COMDAT ??_R3exception@std@@8
rdata$r	SEGMENT
??_R3exception@std@@8 DD 00H				; std::exception::`RTTI Class Hierarchy Descriptor'
	DD	00H
	DD	01H
	DD	FLAT:??_R2exception@std@@8
rdata$r	ENDS
;	COMDAT ??_R4exception@std@@6B@
rdata$r	SEGMENT
??_R4exception@std@@6B@ DD 00H				; std::exception::`RTTI Complete Object Locator'
	DD	00H
	DD	00H
	DD	FLAT:??_R0?AVexception@std@@@8
	DD	FLAT:??_R3exception@std@@8
rdata$r	ENDS
;	COMDAT __CT??_R0?AVbad_alloc@std@@@8??0bad_alloc@std@@QAE@ABV01@@Z12
xdata$x	SEGMENT
__CT??_R0?AVbad_alloc@std@@@8??0bad_alloc@std@@QAE@ABV01@@Z12 DD 010H
	DD	FLAT:??_R0?AVbad_alloc@std@@@8
	DD	00H
	DD	0ffffffffH
	ORG $+4
	DD	0cH
	DD	FLAT:??0bad_alloc@std@@QAE@ABV01@@Z
xdata$x	ENDS
;	COMDAT ??_R0?AVbad_alloc@std@@@8
data$r	SEGMENT
??_R0?AVbad_alloc@std@@@8 DD FLAT:??_7type_info@@6B@	; std::bad_alloc `RTTI Type Descriptor'
	DD	00H
	DB	'.?AVbad_alloc@std@@', 00H
data$r	ENDS
;	COMDAT __CT??_R0?AVbad_array_new_length@std@@@8??0bad_array_new_length@std@@QAE@ABV01@@Z12
xdata$x	SEGMENT
__CT??_R0?AVbad_array_new_length@std@@@8??0bad_array_new_length@std@@QAE@ABV01@@Z12 DD 00H
	DD	FLAT:??_R0?AVbad_array_new_length@std@@@8
	DD	00H
	DD	0ffffffffH
	ORG $+4
	DD	0cH
	DD	FLAT:??0bad_array_new_length@std@@QAE@ABV01@@Z
xdata$x	ENDS
;	COMDAT ??_R0?AVbad_array_new_length@std@@@8
data$r	SEGMENT
??_R0?AVbad_array_new_length@std@@@8 DD FLAT:??_7type_info@@6B@ ; std::bad_array_new_length `RTTI Type Descriptor'
	DD	00H
	DB	'.?AVbad_array_new_length@std@@', 00H
data$r	ENDS
;	COMDAT __CTA3?AVbad_array_new_length@std@@
xdata$x	SEGMENT
__CTA3?AVbad_array_new_length@std@@ DD 03H
	DD	FLAT:__CT??_R0?AVbad_array_new_length@std@@@8??0bad_array_new_length@std@@QAE@ABV01@@Z12
	DD	FLAT:__CT??_R0?AVbad_alloc@std@@@8??0bad_alloc@std@@QAE@ABV01@@Z12
	DD	FLAT:__CT??_R0?AVexception@std@@@8??0exception@std@@QAE@ABV01@@Z12
xdata$x	ENDS
;	COMDAT __TI3?AVbad_array_new_length@std@@
xdata$x	SEGMENT
__TI3?AVbad_array_new_length@std@@ DD 00H
	DD	FLAT:??1bad_array_new_length@std@@UAE@XZ
	DD	00H
	DD	FLAT:__CTA3?AVbad_array_new_length@std@@
xdata$x	ENDS
;	COMDAT __CT??_R0?AVexception@std@@@8??0exception@std@@QAE@ABV01@@Z12
xdata$x	SEGMENT
__CT??_R0?AVexception@std@@@8??0exception@std@@QAE@ABV01@@Z12 DD 00H
	DD	FLAT:??_R0?AVexception@std@@@8
	DD	00H
	DD	0ffffffffH
	ORG $+4
	DD	0cH
	DD	FLAT:??0exception@std@@QAE@ABV01@@Z
xdata$x	ENDS
;	COMDAT ??_R0?AVexception@std@@@8
data$r	SEGMENT
??_R0?AVexception@std@@@8 DD FLAT:??_7type_info@@6B@	; std::exception `RTTI Type Descriptor'
	DD	00H
	DB	'.?AVexception@std@@', 00H
data$r	ENDS
;	COMDAT ??_C@_0BF@KINCDENJ@bad?5array?5new?5length@
CONST	SEGMENT
??_C@_0BF@KINCDENJ@bad?5array?5new?5length@ DB 'bad array new length', 00H ; `string'
CONST	ENDS
;	COMDAT ??_7bad_array_new_length@std@@6B@
CONST	SEGMENT
??_7bad_array_new_length@std@@6B@ DD FLAT:??_R4bad_array_new_length@std@@6B@ ; std::bad_array_new_length::`vftable'
	DD	FLAT:??_Ebad_array_new_length@std@@UAEPAXI@Z
	DD	FLAT:?what@exception@std@@UBEPBDXZ
CONST	ENDS
;	COMDAT ??_7bad_alloc@std@@6B@
CONST	SEGMENT
??_7bad_alloc@std@@6B@ DD FLAT:??_R4bad_alloc@std@@6B@	; std::bad_alloc::`vftable'
	DD	FLAT:??_Ebad_alloc@std@@UAEPAXI@Z
	DD	FLAT:?what@exception@std@@UBEPBDXZ
CONST	ENDS
;	COMDAT ??_C@_0BC@EOODALEL@Unknown?5exception@
CONST	SEGMENT
??_C@_0BC@EOODALEL@Unknown?5exception@ DB 'Unknown exception', 00H ; `string'
CONST	ENDS
;	COMDAT ??_7exception@std@@6B@
CONST	SEGMENT
??_7exception@std@@6B@ DD FLAT:??_R4exception@std@@6B@	; std::exception::`vftable'
	DD	FLAT:??_Eexception@std@@UAEPAXI@Z
	DD	FLAT:?what@exception@std@@UBEPBDXZ
CONST	ENDS
;	COMDAT xdata$x
xdata$x	SEGMENT
__unwindtable$??0?$stl_stack_pool@USBoundBox@@@@QAE@H@Z DD 0ffffffffH
	DD	FLAT:__unwindfunclet$??0?$stl_stack_pool@USBoundBox@@@@QAE@H@Z$0
__ehfuncinfo$??0?$stl_stack_pool@USBoundBox@@@@QAE@H@Z DD 019930522H
	DD	01H
	DD	FLAT:__unwindtable$??0?$stl_stack_pool@USBoundBox@@@@QAE@H@Z
	DD	2 DUP(00H)
	DD	2 DUP(00H)
	DD	00H
	DD	01H
xdata$x	ENDS
;	COMDAT xdata$x
xdata$x	SEGMENT
__unwindtable$?Intersect@CGrannyModelInstance@@QAE_NPBUD3DXMATRIX@@PAM11@Z DD 0ffffffffH
	DD	FLAT:__unwindfunclet$?Intersect@CGrannyModelInstance@@QAE_NPBUD3DXMATRIX@@PAM11@Z$0
	DD	00H
	DD	FLAT:__unwindfunclet$?Intersect@CGrannyModelInstance@@QAE_NPBUD3DXMATRIX@@PAM11@Z$1
__ehfuncinfo$?Intersect@CGrannyModelInstance@@QAE_NPBUD3DXMATRIX@@PAM11@Z DD 019930522H
	DD	02H
	DD	FLAT:__unwindtable$?Intersect@CGrannyModelInstance@@QAE_NPBUD3DXMATRIX@@PAM11@Z
	DD	2 DUP(00H)
	DD	2 DUP(00H)
	DD	00H
	DD	01H
xdata$x	ENDS
; Function compile flags: /Ogtp
; File D:\Program Files\Microsoft Visual Studio\2022\Community\VC\Tools\MSVC\14.43.34808\include\xutility
;	COMDAT ??$_Copy_memmove_tail@PAUSBoundBox@@@std@@YAPAUSBoundBox@@QBDQAU1@II@Z
_TEXT	SEGMENT
__First_ch$ = 8						; size = 4
__Dest$ = 12						; size = 4
__Byte_count$ = 16					; size = 4
__Object_count$ = 20					; size = 4
??$_Copy_memmove_tail@PAUSBoundBox@@@std@@YAPAUSBoundBox@@QBDQAU1@II@Z PROC ; std::_Copy_memmove_tail<SBoundBox *>, COMDAT

; 4763 :     const char* const _First_ch, const _OutCtgIt _Dest, const size_t _Byte_count, const size_t _Object_count) {

  00000	55		 push	 ebp
  00001	8b ec		 mov	 ebp, esp
  00003	56		 push	 esi

; 4764 :     _STL_INTERNAL_CHECK(_Byte_count == _Object_count * sizeof(*_Dest));
; 4765 :     const auto _Dest_ptr = _STD _To_address(_Dest);
; 4766 :     const auto _Dest_ch  = const_cast<char*>(reinterpret_cast<const volatile char*>(_Dest_ptr));
; 4767 :     _CSTD memmove(_Dest_ch, _First_ch, _Byte_count);

  00004	8b 75 0c	 mov	 esi, DWORD PTR __Dest$[ebp]
  00007	57		 push	 edi
  00008	8b 7d 10	 mov	 edi, DWORD PTR __Byte_count$[ebp]
  0000b	57		 push	 edi
  0000c	ff 75 08	 push	 DWORD PTR __First_ch$[ebp]
  0000f	56		 push	 esi
  00010	e8 00 00 00 00	 call	 _memmove
  00015	83 c4 0c	 add	 esp, 12			; 0000000cH

; 4768 :     if constexpr (is_pointer_v<_OutCtgIt>) {
; 4769 :         (void) _Object_count;
; 4770 :         // CodeQL [SM02986] This cast is correct: we're bypassing pointer arithmetic for performance.
; 4771 :         return reinterpret_cast<_OutCtgIt>(_Dest_ch + _Byte_count);

  00018	8d 04 3e	 lea	 eax, DWORD PTR [esi+edi]
  0001b	5f		 pop	 edi
  0001c	5e		 pop	 esi

; 4772 :     } else {
; 4773 :         return _Dest + static_cast<_Iter_diff_t<_OutCtgIt>>(_Object_count);
; 4774 :     }
; 4775 : }

  0001d	5d		 pop	 ebp
  0001e	c3		 ret	 0
??$_Copy_memmove_tail@PAUSBoundBox@@@std@@YAPAUSBoundBox@@QBDQAU1@II@Z ENDP ; std::_Copy_memmove_tail<SBoundBox *>
_TEXT	ENDS
; Function compile flags: /Ogtp
; File D:\Program Files\Microsoft Visual Studio\2022\Community\VC\Tools\MSVC\14.43.34808\include\xutility
;	COMDAT ??$_Copy_memmove@PAUSBoundBox@@PAU1@@std@@YAPAUSBoundBox@@PAU1@00@Z
_TEXT	SEGMENT
__First$ = 8						; size = 4
__Last$ = 12						; size = 4
__Dest$ = 16						; size = 4
??$_Copy_memmove@PAUSBoundBox@@PAU1@@std@@YAPAUSBoundBox@@PAU1@00@Z PROC ; std::_Copy_memmove<SBoundBox *,SBoundBox *>, COMDAT

; 4778 : _OutCtgIt _Copy_memmove(_CtgIt _First, _CtgIt _Last, _OutCtgIt _Dest) {

  00000	55		 push	 ebp
  00001	8b ec		 mov	 ebp, esp

; 4779 :     _STL_INTERNAL_CHECK(_First <= _Last);
; 4780 :     const auto _First_ptr    = _STD _To_address(_First);
; 4781 :     const auto _Last_ptr     = _STD _To_address(_Last);
; 4782 :     const auto _Object_count = static_cast<size_t>(_Last_ptr - _First_ptr);

  00003	8b 55 08	 mov	 edx, DWORD PTR __First$[ebp]
  00006	8b 4d 0c	 mov	 ecx, DWORD PTR __Last$[ebp]
  00009	2b ca		 sub	 ecx, edx
  0000b	8b c1		 mov	 eax, ecx
  0000d	c1 f8 05	 sar	 eax, 5

; 4783 :     const auto _First_ch     = const_cast<const char*>(reinterpret_cast<const volatile char*>(_First_ptr));
; 4784 :     const auto _Last_ch      = const_cast<const char*>(reinterpret_cast<const volatile char*>(_Last_ptr));
; 4785 :     const auto _Byte_count   = static_cast<size_t>(_Last_ch - _First_ch);
; 4786 :     return _STD _Copy_memmove_tail(_First_ch, _STD move(_Dest), _Byte_count, _Object_count);

  00010	50		 push	 eax
  00011	51		 push	 ecx
  00012	ff 75 10	 push	 DWORD PTR __Dest$[ebp]
  00015	52		 push	 edx
  00016	e8 00 00 00 00	 call	 ??$_Copy_memmove_tail@PAUSBoundBox@@@std@@YAPAUSBoundBox@@QBDQAU1@II@Z ; std::_Copy_memmove_tail<SBoundBox *>
  0001b	83 c4 10	 add	 esp, 16			; 00000010H

; 4787 : }

  0001e	5d		 pop	 ebp
  0001f	c3		 ret	 0
??$_Copy_memmove@PAUSBoundBox@@PAU1@@std@@YAPAUSBoundBox@@PAU1@00@Z ENDP ; std::_Copy_memmove<SBoundBox *,SBoundBox *>
_TEXT	ENDS
; Function compile flags: /Ogtp
; File D:\Program Files\Microsoft Visual Studio\2022\Community\VC\Tools\MSVC\14.43.34808\include\vector
; File D:\Program Files\Microsoft Visual Studio\2022\Community\VC\Tools\MSVC\14.43.34808\include\xmemory
; File D:\Program Files\Microsoft Visual Studio\2022\Community\VC\Tools\MSVC\14.43.34808\include\vector
; File D:\Program Files\Microsoft Visual Studio\2022\Community\VC\Tools\MSVC\14.43.34808\include\xmemory
; File D:\Program Files\Microsoft Visual Studio\2022\Community\VC\Tools\MSVC\14.43.34808\include\vector
; File D:\Program Files\Microsoft Visual Studio\2022\Community\VC\Tools\MSVC\14.43.34808\include\xmemory
; File D:\Program Files\Microsoft Visual Studio\2022\Community\VC\Tools\MSVC\14.43.34808\include\vector
; File D:\Program Files\Microsoft Visual Studio\2022\Community\VC\Tools\MSVC\14.43.34808\include\xmemory
; File D:\Program Files\Microsoft Visual Studio\2022\Community\VC\Tools\MSVC\14.43.34808\include\vector
; File D:\Program Files\Microsoft Visual Studio\2022\Community\VC\Tools\MSVC\14.43.34808\include\xmemory
; File D:\Program Files\Microsoft Visual Studio\2022\Community\VC\Tools\MSVC\14.43.34808\include\vector
; File D:\Program Files\Microsoft Visual Studio\2022\Community\VC\Tools\MSVC\14.43.34808\include\xmemory
; File D:\Program Files\Microsoft Visual Studio\2022\Community\VC\Tools\MSVC\14.43.34808\include\vector
; File D:\Program Files\Microsoft Visual Studio\2022\Community\VC\Tools\MSVC\14.43.34808\include\xmemory
; File D:\Program Files\Microsoft Visual Studio\2022\Community\VC\Tools\MSVC\14.43.34808\include\vector
; File D:\Program Files\Microsoft Visual Studio\2022\Community\VC\Tools\MSVC\14.43.34808\include\xmemory
; File D:\Program Files\Microsoft Visual Studio\2022\Community\VC\Tools\MSVC\14.43.34808\include\vector
;	COMDAT ??$_Resize_reallocate@U_Value_init_tag@std@@@?$vector@USBoundBox@@V?$allocator@USBoundBox@@@std@@@std@@AAEXIABU_Value_init_tag@1@@Z
_TEXT	SEGMENT
__Oldsize$1$ = -4					; size = 4
__Newsize$ = 8						; size = 4
$T2 = 8							; size = 4
__Val$ = 12						; size = 4
??$_Resize_reallocate@U_Value_init_tag@std@@@?$vector@USBoundBox@@V?$allocator@USBoundBox@@@std@@@std@@AAEXIABU_Value_init_tag@1@@Z PROC ; std::vector<SBoundBox,std::allocator<SBoundBox> >::_Resize_reallocate<std::_Value_init_tag>, COMDAT
; _this$ = ecx

; 1537 :     _CONSTEXPR20 void _Resize_reallocate(const size_type _Newsize, const _Ty2& _Val) {

  00000	55		 push	 ebp
  00001	8b ec		 mov	 ebp, esp
  00003	51		 push	 ecx
  00004	53		 push	 ebx
  00005	56		 push	 esi

; 1538 :         if (_Newsize > max_size()) {

  00006	8b 75 08	 mov	 esi, DWORD PTR __Newsize$[ebp]
  00009	57		 push	 edi
  0000a	8b f9		 mov	 edi, ecx
  0000c	81 fe ff ff ff
	07		 cmp	 esi, 134217727		; 07ffffffH
  00012	0f 87 ef 00 00
	00		 ja	 $LN120@Resize_rea

; 1540 :         }
; 1541 : 
; 1542 :         auto& _Al         = _Getal();
; 1543 :         auto& _My_data    = _Mypair._Myval2;
; 1544 :         pointer& _Myfirst = _My_data._Myfirst;
; 1545 :         pointer& _Mylast  = _My_data._Mylast;
; 1546 : 
; 1547 :         const auto _Oldsize    = static_cast<size_type>(_Mylast - _Myfirst);

  00018	8b 4f 04	 mov	 ecx, DWORD PTR [edi+4]

; 1996 :         if (_Oldcapacity > _Max - _Oldcapacity / 2) {

  0001b	b8 ff ff ff 07	 mov	 eax, 134217727		; 07ffffffH

; 1540 :         }
; 1541 : 
; 1542 :         auto& _Al         = _Getal();
; 1543 :         auto& _My_data    = _Mypair._Myval2;
; 1544 :         pointer& _Myfirst = _My_data._Myfirst;
; 1545 :         pointer& _Mylast  = _My_data._Mylast;
; 1546 : 
; 1547 :         const auto _Oldsize    = static_cast<size_type>(_Mylast - _Myfirst);

  00020	2b 0f		 sub	 ecx, DWORD PTR [edi]
  00022	c1 f9 05	 sar	 ecx, 5
  00025	89 4d fc	 mov	 DWORD PTR __Oldsize$1$[ebp], ecx

; 1909 :         return static_cast<size_type>(_My_data._Myend - _My_data._Myfirst);

  00028	8b 4f 08	 mov	 ecx, DWORD PTR [edi+8]
  0002b	2b 0f		 sub	 ecx, DWORD PTR [edi]
  0002d	c1 f9 05	 sar	 ecx, 5

; 1996 :         if (_Oldcapacity > _Max - _Oldcapacity / 2) {

  00030	8b d1		 mov	 edx, ecx
  00032	d1 ea		 shr	 edx, 1
  00034	2b c2		 sub	 eax, edx
  00036	3b c8		 cmp	 ecx, eax
  00038	76 0f		 jbe	 SHORT $LN6@Resize_rea

; 1997 :             return _Max; // geometric growth would overflow

  0003a	bb e0 ff ff ff	 mov	 ebx, -32		; ffffffe0H
  0003f	8b c3		 mov	 eax, ebx
; File D:\Program Files\Microsoft Visual Studio\2022\Community\VC\Tools\MSVC\14.43.34808\include\xmemory

; 253  :             return _Allocate_manually_vector_aligned<_Traits>(_Bytes);

  00041	50		 push	 eax
  00042	e8 00 00 00 00	 call	 ??$_Allocate_manually_vector_aligned@U_Default_allocate_traits@std@@@std@@YAPAXI@Z ; std::_Allocate_manually_vector_aligned<std::_Default_allocate_traits>
  00047	eb 37		 jmp	 SHORT $LN118@Resize_rea
$LN6@Resize_rea:
; File D:\Program Files\Microsoft Visual Studio\2022\Community\VC\Tools\MSVC\14.43.34808\include\vector

; 2000 :         const size_type _Geometric = _Oldcapacity + _Oldcapacity / 2;

  00049	8d 1c 0a	 lea	 ebx, DWORD PTR [edx+ecx]

; 2001 : 
; 2002 :         if (_Geometric < _Newsize) {

  0004c	3b de		 cmp	 ebx, esi
  0004e	73 0d		 jae	 SHORT $LN7@Resize_rea

; 2003 :             return _Newsize; // geometric growth would be insufficient

  00050	8b de		 mov	 ebx, esi
$LN17@Resize_rea:
; File D:\Program Files\Microsoft Visual Studio\2022\Community\VC\Tools\MSVC\14.43.34808\include\xmemory

; 122  :     return _Count * _Ty_size;

  00052	c1 e3 05	 shl	 ebx, 5

; 986  :         return static_cast<_Ty*>(_STD _Allocate<_New_alignof<_Ty>>(_Get_size_of_n<sizeof(_Ty)>(_Count)));

  00055	8b c3		 mov	 eax, ebx

; 227  :     if (_Bytes == 0) {

  00057	85 c0		 test	 eax, eax
  00059	75 10		 jne	 SHORT $LN21@Resize_rea

; 228  :         return nullptr;

  0005b	eb 26		 jmp	 SHORT $LN117@Resize_rea
$LN7@Resize_rea:

; 117  :         if (_Count > _Max_possible) {

  0005d	81 fb ff ff ff
	07		 cmp	 ebx, 134217727		; 07ffffffH
  00063	0f 87 a3 00 00
	00		 ja	 $LN121@Resize_rea
  00069	eb e7		 jmp	 SHORT $LN17@Resize_rea
$LN21@Resize_rea:

; 251  :         if (_Bytes >= _Big_allocation_threshold) {

  0006b	3d 00 10 00 00	 cmp	 eax, 4096		; 00001000H
  00070	72 08		 jb	 SHORT $LN22@Resize_rea

; 253  :             return _Allocate_manually_vector_aligned<_Traits>(_Bytes);

  00072	50		 push	 eax
  00073	e8 00 00 00 00	 call	 ??$_Allocate_manually_vector_aligned@U_Default_allocate_traits@std@@@std@@YAPAXI@Z ; std::_Allocate_manually_vector_aligned<std::_Default_allocate_traits>
  00078	eb 06		 jmp	 SHORT $LN118@Resize_rea
$LN22@Resize_rea:

; 136  :         return ::operator new(_Bytes);

  0007a	50		 push	 eax
  0007b	e8 00 00 00 00	 call	 ??2@YAPAXI@Z		; operator new
$LN118@Resize_rea:
; File D:\Program Files\Microsoft Visual Studio\2022\Community\VC\Tools\MSVC\14.43.34808\include\vector

; 1551 :         const pointer _Appended_first = _Newvec + _Oldsize;

  00080	83 c4 04	 add	 esp, 4
$LN117@Resize_rea:
  00083	8b 55 fc	 mov	 edx, DWORD PTR __Oldsize$1$[ebp]

; 1560 :             _Appended_last = _Uninitialized_value_construct_n(_Appended_first, _Newsize - _Oldsize, _Al);

  00086	8b ce		 mov	 ecx, esi
  00088	c1 e2 05	 shl	 edx, 5
  0008b	03 d0		 add	 edx, eax
  0008d	89 45 08	 mov	 DWORD PTR $T2[ebp], eax
  00090	2b 4d fc	 sub	 ecx, DWORD PTR __Oldsize$1$[ebp]
; File D:\Program Files\Microsoft Visual Studio\2022\Community\VC\Tools\MSVC\14.43.34808\include\xmemory

; 2056 :     for (; 0 < _Count; --_Count) {

  00093	74 12		 je	 SHORT $LN31@Resize_rea
; File D:\Program Files\Microsoft Visual Studio\2022\Community\VC\Tools\MSVC\14.43.34808\include\vector

; 1560 :             _Appended_last = _Uninitialized_value_construct_n(_Appended_first, _Newsize - _Oldsize, _Al);

  00095	c1 e1 05	 shl	 ecx, 5
  00098	51		 push	 ecx
  00099	6a 00		 push	 0
  0009b	52		 push	 edx
  0009c	e8 00 00 00 00	 call	 _memset
  000a1	8b 45 08	 mov	 eax, DWORD PTR $T2[ebp]
  000a4	83 c4 0c	 add	 esp, 12			; 0000000cH
$LN31@Resize_rea:
; File D:\Program Files\Microsoft Visual Studio\2022\Community\VC\Tools\MSVC\14.43.34808\include\xmemory

; 1955 :             _STD _Copy_memmove(_UFirst, _ULast, _STD _Unfancy(_Dest));

  000a7	50		 push	 eax
  000a8	ff 77 04	 push	 DWORD PTR [edi+4]
  000ab	ff 37		 push	 DWORD PTR [edi]
  000ad	e8 00 00 00 00	 call	 ??$_Copy_memmove@PAUSBoundBox@@PAU1@@std@@YAPAUSBoundBox@@PAU1@00@Z ; std::_Copy_memmove<SBoundBox *,SBoundBox *>
; File D:\Program Files\Microsoft Visual Studio\2022\Community\VC\Tools\MSVC\14.43.34808\include\vector

; 2054 :         if (_Myfirst) { // destroy and deallocate old array

  000b2	8b 07		 mov	 eax, DWORD PTR [edi]
; File D:\Program Files\Microsoft Visual Studio\2022\Community\VC\Tools\MSVC\14.43.34808\include\xmemory

; 1955 :             _STD _Copy_memmove(_UFirst, _ULast, _STD _Unfancy(_Dest));

  000b4	83 c4 0c	 add	 esp, 12			; 0000000cH
; File D:\Program Files\Microsoft Visual Studio\2022\Community\VC\Tools\MSVC\14.43.34808\include\vector

; 2054 :         if (_Myfirst) { // destroy and deallocate old array

  000b7	85 c0		 test	 eax, eax
  000b9	74 2c		 je	 SHORT $LN63@Resize_rea

; 2055 :             _STD _Destroy_range(_Myfirst, _Mylast, _Al);
; 2056 :             _ASAN_VECTOR_REMOVE;
; 2057 :             _Al.deallocate(_Myfirst, static_cast<size_type>(_Myend - _Myfirst));

  000bb	8b 4f 08	 mov	 ecx, DWORD PTR [edi+8]
  000be	2b c8		 sub	 ecx, eax
; File D:\Program Files\Microsoft Visual Studio\2022\Community\VC\Tools\MSVC\14.43.34808\include\xmemory

; 981  :         _STD _Deallocate<_New_alignof<_Ty>>(_Ptr, sizeof(_Ty) * _Count);

  000c0	83 e1 e0	 and	 ecx, -32		; ffffffe0H

; 284  :         if (_Bytes >= _Big_allocation_threshold) {

  000c3	81 f9 00 10 00
	00		 cmp	 ecx, 4096		; 00001000H
  000c9	72 12		 jb	 SHORT $LN74@Resize_rea

; 205  :     const uintptr_t _Ptr_container   = _Ptr_user[-1];

  000cb	8b 50 fc	 mov	 edx, DWORD PTR [eax-4]
  000ce	83 c1 23	 add	 ecx, 35			; 00000023H

; 206  : 
; 207  :     // If the following asserts, it likely means that we are performing
; 208  :     // an aligned delete on memory coming from an unaligned allocation.
; 209  :     _STL_ASSERT(_Ptr_user[-2] == _Big_allocation_sentinel, "invalid argument");
; 210  : 
; 211  :     // Extra paranoia on aligned allocation/deallocation; ensure _Ptr_container is
; 212  :     // in range [_Min_back_shift, _Non_user_size]
; 213  : #ifdef _DEBUG
; 214  :     constexpr uintptr_t _Min_back_shift = 2 * sizeof(void*);
; 215  : #else // ^^^ defined(_DEBUG) / !defined(_DEBUG) vvv
; 216  :     constexpr uintptr_t _Min_back_shift = sizeof(void*);
; 217  : #endif // ^^^ !defined(_DEBUG) ^^^
; 218  :     const uintptr_t _Back_shift = reinterpret_cast<uintptr_t>(_Ptr) - _Ptr_container;

  000d1	2b c2		 sub	 eax, edx

; 219  :     _STL_VERIFY(_Back_shift >= _Min_back_shift && _Back_shift <= _Non_user_size, "invalid argument");

  000d3	83 c0 fc	 add	 eax, -4			; fffffffcH
  000d6	83 f8 1f	 cmp	 eax, 31			; 0000001fH
  000d9	77 27		 ja	 SHORT $LN71@Resize_rea

; 220  :     _Ptr = reinterpret_cast<void*>(_Ptr_container);

  000db	8b c2		 mov	 eax, edx
$LN74@Resize_rea:

; 289  :         ::operator delete(_Ptr, _Bytes);

  000dd	51		 push	 ecx
  000de	50		 push	 eax
  000df	e8 00 00 00 00	 call	 ??3@YAXPAXI@Z		; operator delete
  000e4	83 c4 08	 add	 esp, 8
$LN63@Resize_rea:
; File D:\Program Files\Microsoft Visual Studio\2022\Community\VC\Tools\MSVC\14.43.34808\include\vector

; 2060 :         _Myfirst = _Newvec;

  000e7	8b 45 08	 mov	 eax, DWORD PTR $T2[ebp]

; 2061 :         _Mylast  = _Newvec + _Newsize;

  000ea	c1 e6 05	 shl	 esi, 5
  000ed	89 07		 mov	 DWORD PTR [edi], eax
  000ef	03 f0		 add	 esi, eax
  000f1	89 77 04	 mov	 DWORD PTR [edi+4], esi

; 2062 :         _Myend   = _Newvec + _Newcapacity;

  000f4	03 c3		 add	 eax, ebx
  000f6	89 47 08	 mov	 DWORD PTR [edi+8], eax

; 1571 :     }

  000f9	5f		 pop	 edi
  000fa	5e		 pop	 esi
  000fb	5b		 pop	 ebx
  000fc	8b e5		 mov	 esp, ebp
  000fe	5d		 pop	 ebp
  000ff	c2 08 00	 ret	 8
$LN71@Resize_rea:
; File D:\Program Files\Microsoft Visual Studio\2022\Community\VC\Tools\MSVC\14.43.34808\include\xmemory

; 219  :     _STL_VERIFY(_Back_shift >= _Min_back_shift && _Back_shift <= _Non_user_size, "invalid argument");

  00102	e8 00 00 00 00	 call	 __invalid_parameter_noinfo_noreturn
$LN120@Resize_rea:
; File D:\Program Files\Microsoft Visual Studio\2022\Community\VC\Tools\MSVC\14.43.34808\include\vector

; 1539 :             _Xlength();

  00107	e8 00 00 00 00	 call	 ?_Xlength@?$vector@USBoundBox@@V?$allocator@USBoundBox@@@std@@@std@@CAXXZ ; std::vector<SBoundBox,std::allocator<SBoundBox> >::_Xlength
$LN121@Resize_rea:
; File D:\Program Files\Microsoft Visual Studio\2022\Community\VC\Tools\MSVC\14.43.34808\include\xmemory

; 118  :             _Throw_bad_array_new_length(); // multiply overflow

  0010c	e8 00 00 00 00	 call	 ?_Throw_bad_array_new_length@std@@YAXXZ ; std::_Throw_bad_array_new_length
$LN116@Resize_rea:
  00111	cc		 int	 3
??$_Resize_reallocate@U_Value_init_tag@std@@@?$vector@USBoundBox@@V?$allocator@USBoundBox@@@std@@@std@@AAEXIABU_Value_init_tag@1@@Z ENDP ; std::vector<SBoundBox,std::allocator<SBoundBox> >::_Resize_reallocate<std::_Value_init_tag>
_TEXT	ENDS
; Function compile flags: /Ogtp
;	COMDAT ??__Fs_boundBoxPool@?1??Intersect@CGrannyModelInstance@@QAE_NPBUD3DXMATRIX@@PAM11@Z@YAXXZ
text$yd	SEGMENT
??__Fs_boundBoxPool@?1??Intersect@CGrannyModelInstance@@QAE_NPBUD3DXMATRIX@@PAM11@Z@YAXXZ PROC ; `CGrannyModelInstance::Intersect'::`2'::`dynamic atexit destructor for 's_boundBoxPool'', COMDAT
  00000	b9 00 00 00 00	 mov	 ecx, OFFSET ?s_boundBoxPool@?1??Intersect@CGrannyModelInstance@@QAE_NPBUD3DXMATRIX@@PAM11@Z@4V?$stl_stack_pool@USBoundBox@@@@A
  00005	e9 00 00 00 00	 jmp	 ??1?$stl_stack_pool@USBoundBox@@@@UAE@XZ ; stl_stack_pool<SBoundBox>::~stl_stack_pool<SBoundBox>
??__Fs_boundBoxPool@?1??Intersect@CGrannyModelInstance@@QAE_NPBUD3DXMATRIX@@PAM11@Z@YAXXZ ENDP ; `CGrannyModelInstance::Intersect'::`2'::`dynamic atexit destructor for 's_boundBoxPool''
text$yd	ENDS
; Function compile flags: /Ogtp
;	COMDAT ??_G?$stl_stack_pool@USBoundBox@@@@UAEPAXI@Z
_TEXT	SEGMENT
___flags$ = 8						; size = 4
??_G?$stl_stack_pool@USBoundBox@@@@UAEPAXI@Z PROC	; stl_stack_pool<SBoundBox>::`scalar deleting destructor', COMDAT
; _this$ = ecx
  00000	55		 push	 ebp
  00001	8b ec		 mov	 ebp, esp
  00003	56		 push	 esi
  00004	8b f1		 mov	 esi, ecx
  00006	e8 00 00 00 00	 call	 ??1?$stl_stack_pool@USBoundBox@@@@UAE@XZ ; stl_stack_pool<SBoundBox>::~stl_stack_pool<SBoundBox>
  0000b	f6 45 08 01	 test	 BYTE PTR ___flags$[ebp], 1
  0000f	74 0b		 je	 SHORT $LN5@scalar
  00011	6a 14		 push	 20			; 00000014H
  00013	56		 push	 esi
  00014	e8 00 00 00 00	 call	 ??3@YAXPAXI@Z		; operator delete
  00019	83 c4 08	 add	 esp, 8
$LN5@scalar:
  0001c	8b c6		 mov	 eax, esi
  0001e	5e		 pop	 esi
  0001f	5d		 pop	 ebp
  00020	c2 04 00	 ret	 4
??_G?$stl_stack_pool@USBoundBox@@@@UAEPAXI@Z ENDP	; stl_stack_pool<SBoundBox>::`scalar deleting destructor'
_TEXT	ENDS
; Function compile flags: /Ogtp
; File D:\Program Files\Microsoft Visual Studio\2022\Community\VC\Tools\MSVC\14.43.34808\include\vector
;	COMDAT ?_Xlength@?$vector@USBoundBox@@V?$allocator@USBoundBox@@@std@@@std@@CAXXZ
_TEXT	SEGMENT
?_Xlength@?$vector@USBoundBox@@V?$allocator@USBoundBox@@@std@@@std@@CAXXZ PROC ; std::vector<SBoundBox,std::allocator<SBoundBox> >::_Xlength, COMDAT

; 2169 :         _Xlength_error("vector too long");

  00000	68 00 00 00 00	 push	 OFFSET ??_C@_0BA@FOIKENOD@vector?5too?5long@
  00005	e8 00 00 00 00	 call	 ?_Xlength_error@std@@YAXPBD@Z ; std::_Xlength_error
$LN3@Xlength:
  0000a	cc		 int	 3
?_Xlength@?$vector@USBoundBox@@V?$allocator@USBoundBox@@@std@@@std@@CAXXZ ENDP ; std::vector<SBoundBox,std::allocator<SBoundBox> >::_Xlength
_TEXT	ENDS
; Function compile flags: /Ogtp
; File D:\Program Files\Microsoft Visual Studio\2022\Community\VC\Tools\MSVC\14.43.34808\include\vector
; File D:\Program Files\Microsoft Visual Studio\2022\Community\VC\Tools\MSVC\14.43.34808\include\xmemory
; File D:\Program Files\Microsoft Visual Studio\2022\Community\VC\Tools\MSVC\14.43.34808\include\vector
; File D:\Program Files\Microsoft Visual Studio\2022\Community\VC\Tools\MSVC\14.43.34808\include\xmemory
; File D:\Program Files\Microsoft Visual Studio\2022\Community\VC\Tools\MSVC\14.43.34808\include\vector
; File D:\Program Files\Microsoft Visual Studio\2022\Community\VC\Tools\MSVC\14.43.34808\include\xmemory
; File D:\Program Files\Microsoft Visual Studio\2022\Community\VC\Tools\MSVC\14.43.34808\include\vector
;	COMDAT ??1?$vector@USBoundBox@@V?$allocator@USBoundBox@@@std@@@std@@QAE@XZ
_TEXT	SEGMENT
??1?$vector@USBoundBox@@V?$allocator@USBoundBox@@@std@@@std@@QAE@XZ PROC ; std::vector<SBoundBox,std::allocator<SBoundBox> >::~vector<SBoundBox,std::allocator<SBoundBox> >, COMDAT
; _this$ = ecx

; 814  :     _CONSTEXPR20 ~vector() noexcept {

  00000	56		 push	 esi
  00001	8b f1		 mov	 esi, ecx

; 2075 :         if (_Myfirst) { // destroy and deallocate old array

  00003	8b 06		 mov	 eax, DWORD PTR [esi]
  00005	85 c0		 test	 eax, eax
  00007	74 40		 je	 SHORT $LN5@vector

; 2076 :             _STD _Destroy_range(_Myfirst, _Mylast, _Al);
; 2077 :             _ASAN_VECTOR_REMOVE;
; 2078 :             _Al.deallocate(_Myfirst, static_cast<size_type>(_Myend - _Myfirst));

  00009	8b 4e 08	 mov	 ecx, DWORD PTR [esi+8]
  0000c	2b c8		 sub	 ecx, eax
; File D:\Program Files\Microsoft Visual Studio\2022\Community\VC\Tools\MSVC\14.43.34808\include\xmemory

; 981  :         _STD _Deallocate<_New_alignof<_Ty>>(_Ptr, sizeof(_Ty) * _Count);

  0000e	83 e1 e0	 and	 ecx, -32		; ffffffe0H

; 284  :         if (_Bytes >= _Big_allocation_threshold) {

  00011	81 f9 00 10 00
	00		 cmp	 ecx, 4096		; 00001000H
  00017	72 12		 jb	 SHORT $LN24@vector

; 205  :     const uintptr_t _Ptr_container   = _Ptr_user[-1];

  00019	8b 50 fc	 mov	 edx, DWORD PTR [eax-4]
  0001c	83 c1 23	 add	 ecx, 35			; 00000023H

; 206  : 
; 207  :     // If the following asserts, it likely means that we are performing
; 208  :     // an aligned delete on memory coming from an unaligned allocation.
; 209  :     _STL_ASSERT(_Ptr_user[-2] == _Big_allocation_sentinel, "invalid argument");
; 210  : 
; 211  :     // Extra paranoia on aligned allocation/deallocation; ensure _Ptr_container is
; 212  :     // in range [_Min_back_shift, _Non_user_size]
; 213  : #ifdef _DEBUG
; 214  :     constexpr uintptr_t _Min_back_shift = 2 * sizeof(void*);
; 215  : #else // ^^^ defined(_DEBUG) / !defined(_DEBUG) vvv
; 216  :     constexpr uintptr_t _Min_back_shift = sizeof(void*);
; 217  : #endif // ^^^ !defined(_DEBUG) ^^^
; 218  :     const uintptr_t _Back_shift = reinterpret_cast<uintptr_t>(_Ptr) - _Ptr_container;

  0001f	2b c2		 sub	 eax, edx

; 219  :     _STL_VERIFY(_Back_shift >= _Min_back_shift && _Back_shift <= _Non_user_size, "invalid argument");

  00021	83 c0 fc	 add	 eax, -4			; fffffffcH
  00024	83 f8 1f	 cmp	 eax, 31			; 0000001fH
  00027	77 22		 ja	 SHORT $LN21@vector

; 220  :     _Ptr = reinterpret_cast<void*>(_Ptr_container);

  00029	8b c2		 mov	 eax, edx
$LN24@vector:

; 289  :         ::operator delete(_Ptr, _Bytes);

  0002b	51		 push	 ecx
  0002c	50		 push	 eax
  0002d	e8 00 00 00 00	 call	 ??3@YAXPAXI@Z		; operator delete
; File D:\Program Files\Microsoft Visual Studio\2022\Community\VC\Tools\MSVC\14.43.34808\include\vector

; 2080 :             _Myfirst = nullptr;

  00032	c7 06 00 00 00
	00		 mov	 DWORD PTR [esi], 0
; File D:\Program Files\Microsoft Visual Studio\2022\Community\VC\Tools\MSVC\14.43.34808\include\xmemory

; 289  :         ::operator delete(_Ptr, _Bytes);

  00038	83 c4 08	 add	 esp, 8
; File D:\Program Files\Microsoft Visual Studio\2022\Community\VC\Tools\MSVC\14.43.34808\include\vector

; 2081 :             _Mylast  = nullptr;

  0003b	c7 46 04 00 00
	00 00		 mov	 DWORD PTR [esi+4], 0

; 2082 :             _Myend   = nullptr;

  00042	c7 46 08 00 00
	00 00		 mov	 DWORD PTR [esi+8], 0
$LN5@vector:
  00049	5e		 pop	 esi

; 820  :     }

  0004a	c3		 ret	 0
$LN21@vector:
; File D:\Program Files\Microsoft Visual Studio\2022\Community\VC\Tools\MSVC\14.43.34808\include\xmemory

; 219  :     _STL_VERIFY(_Back_shift >= _Min_back_shift && _Back_shift <= _Non_user_size, "invalid argument");

  0004b	e8 00 00 00 00	 call	 __invalid_parameter_noinfo_noreturn
$LN32@vector:
  00050	cc		 int	 3
??1?$vector@USBoundBox@@V?$allocator@USBoundBox@@@std@@@std@@QAE@XZ ENDP ; std::vector<SBoundBox,std::allocator<SBoundBox> >::~vector<SBoundBox,std::allocator<SBoundBox> >
_TEXT	ENDS
; Function compile flags: /Ogtp
; File C:\Marty 5.5\Src-Client\Client\eterBase\Stl.h
; File D:\Program Files\Microsoft Visual Studio\2022\Community\VC\Tools\MSVC\14.43.34808\include\vector
; File D:\Program Files\Microsoft Visual Studio\2022\Community\VC\Tools\MSVC\14.43.34808\include\xmemory
; File D:\Program Files\Microsoft Visual Studio\2022\Community\VC\Tools\MSVC\14.43.34808\include\vector
; File D:\Program Files\Microsoft Visual Studio\2022\Community\VC\Tools\MSVC\14.43.34808\include\xmemory
; File D:\Program Files\Microsoft Visual Studio\2022\Community\VC\Tools\MSVC\14.43.34808\include\vector
; File C:\Marty 5.5\Src-Client\Client\eterBase\Stl.h
; File D:\Program Files\Microsoft Visual Studio\2022\Community\VC\Tools\MSVC\14.43.34808\include\xmemory
; File C:\Marty 5.5\Src-Client\Client\eterBase\Stl.h
;	COMDAT ??1?$stl_stack_pool@USBoundBox@@@@UAE@XZ
_TEXT	SEGMENT
??1?$stl_stack_pool@USBoundBox@@@@UAE@XZ PROC		; stl_stack_pool<SBoundBox>::~stl_stack_pool<SBoundBox>, COMDAT
; _this$ = ecx

; 273  : 		{

  00000	56		 push	 esi
  00001	8b f1		 mov	 esi, ecx
  00003	c7 06 00 00 00
	00		 mov	 DWORD PTR [esi], OFFSET ??_7?$stl_stack_pool@USBoundBox@@@@6B@
; File D:\Program Files\Microsoft Visual Studio\2022\Community\VC\Tools\MSVC\14.43.34808\include\vector

; 2075 :         if (_Myfirst) { // destroy and deallocate old array

  00009	8b 46 08	 mov	 eax, DWORD PTR [esi+8]
  0000c	85 c0		 test	 eax, eax
  0000e	74 41		 je	 SHORT $LN8@stl_stack_

; 2076 :             _STD _Destroy_range(_Myfirst, _Mylast, _Al);
; 2077 :             _ASAN_VECTOR_REMOVE;
; 2078 :             _Al.deallocate(_Myfirst, static_cast<size_type>(_Myend - _Myfirst));

  00010	8b 4e 10	 mov	 ecx, DWORD PTR [esi+16]
  00013	2b c8		 sub	 ecx, eax
; File D:\Program Files\Microsoft Visual Studio\2022\Community\VC\Tools\MSVC\14.43.34808\include\xmemory

; 981  :         _STD _Deallocate<_New_alignof<_Ty>>(_Ptr, sizeof(_Ty) * _Count);

  00015	83 e1 e0	 and	 ecx, -32		; ffffffe0H

; 284  :         if (_Bytes >= _Big_allocation_threshold) {

  00018	81 f9 00 10 00
	00		 cmp	 ecx, 4096		; 00001000H
  0001e	72 12		 jb	 SHORT $LN27@stl_stack_

; 205  :     const uintptr_t _Ptr_container   = _Ptr_user[-1];

  00020	8b 50 fc	 mov	 edx, DWORD PTR [eax-4]
  00023	83 c1 23	 add	 ecx, 35			; 00000023H

; 206  : 
; 207  :     // If the following asserts, it likely means that we are performing
; 208  :     // an aligned delete on memory coming from an unaligned allocation.
; 209  :     _STL_ASSERT(_Ptr_user[-2] == _Big_allocation_sentinel, "invalid argument");
; 210  : 
; 211  :     // Extra paranoia on aligned allocation/deallocation; ensure _Ptr_container is
; 212  :     // in range [_Min_back_shift, _Non_user_size]
; 213  : #ifdef _DEBUG
; 214  :     constexpr uintptr_t _Min_back_shift = 2 * sizeof(void*);
; 215  : #else // ^^^ defined(_DEBUG) / !defined(_DEBUG) vvv
; 216  :     constexpr uintptr_t _Min_back_shift = sizeof(void*);
; 217  : #endif // ^^^ !defined(_DEBUG) ^^^
; 218  :     const uintptr_t _Back_shift = reinterpret_cast<uintptr_t>(_Ptr) - _Ptr_container;

  00026	2b c2		 sub	 eax, edx

; 219  :     _STL_VERIFY(_Back_shift >= _Min_back_shift && _Back_shift <= _Non_user_size, "invalid argument");

  00028	83 c0 fc	 add	 eax, -4			; fffffffcH
  0002b	83 f8 1f	 cmp	 eax, 31			; 0000001fH
  0002e	77 23		 ja	 SHORT $LN24@stl_stack_

; 220  :     _Ptr = reinterpret_cast<void*>(_Ptr_container);

  00030	8b c2		 mov	 eax, edx
$LN27@stl_stack_:

; 289  :         ::operator delete(_Ptr, _Bytes);

  00032	51		 push	 ecx
  00033	50		 push	 eax
  00034	e8 00 00 00 00	 call	 ??3@YAXPAXI@Z		; operator delete
; File D:\Program Files\Microsoft Visual Studio\2022\Community\VC\Tools\MSVC\14.43.34808\include\vector

; 2080 :             _Myfirst = nullptr;

  00039	c7 46 08 00 00
	00 00		 mov	 DWORD PTR [esi+8], 0
; File D:\Program Files\Microsoft Visual Studio\2022\Community\VC\Tools\MSVC\14.43.34808\include\xmemory

; 289  :         ::operator delete(_Ptr, _Bytes);

  00040	83 c4 08	 add	 esp, 8
; File D:\Program Files\Microsoft Visual Studio\2022\Community\VC\Tools\MSVC\14.43.34808\include\vector

; 2081 :             _Mylast  = nullptr;

  00043	c7 46 0c 00 00
	00 00		 mov	 DWORD PTR [esi+12], 0

; 2082 :             _Myend   = nullptr;

  0004a	c7 46 10 00 00
	00 00		 mov	 DWORD PTR [esi+16], 0
$LN8@stl_stack_:
  00051	5e		 pop	 esi
; File C:\Marty 5.5\Src-Client\Client\eterBase\Stl.h

; 274  : 		}

  00052	c3		 ret	 0
$LN24@stl_stack_:
; File D:\Program Files\Microsoft Visual Studio\2022\Community\VC\Tools\MSVC\14.43.34808\include\xmemory

; 219  :     _STL_VERIFY(_Back_shift >= _Min_back_shift && _Back_shift <= _Non_user_size, "invalid argument");

  00053	e8 00 00 00 00	 call	 __invalid_parameter_noinfo_noreturn
$LN36@stl_stack_:
  00058	cc		 int	 3
??1?$stl_stack_pool@USBoundBox@@@@UAE@XZ ENDP		; stl_stack_pool<SBoundBox>::~stl_stack_pool<SBoundBox>
_TEXT	ENDS
; Function compile flags: /Ogtp
; File C:\Marty 5.5\Src-Client\Client\eterGrnLib\ModelInstanceCollisionDetection.cpp
;	COMDAT ?GetBoundBox@CGrannyModelInstance@@QAEXPAUD3DXVECTOR3@@0@Z
_TEXT	SEGMENT
_BoundBox$ = -52					; size = 32
_meshCount$1$ = -20					; size = 4
_boneIndices$1$ = -16					; size = 4
_m$1$ = -12						; size = 4
_this$1$ = -8						; size = 4
_pgrnMesh$1$ = -4					; size = 4
_vtMin$ = 8						; size = 4
_vtMax$ = 12						; size = 4
?GetBoundBox@CGrannyModelInstance@@QAEXPAUD3DXVECTOR3@@0@Z PROC ; CGrannyModelInstance::GetBoundBox, COMDAT
; _this$ = ecx

; 182  : {

  00000	55		 push	 ebp
  00001	8b ec		 mov	 ebp, esp
  00003	83 ec 34	 sub	 esp, 52			; 00000034H
  00006	53		 push	 ebx
  00007	8b d9		 mov	 ebx, ecx
  00009	89 5d f8	 mov	 DWORD PTR _this$1$[ebp], ebx

; 183  : 	if (!m_pgrnModelInstance)

  0000c	83 7b 08 00	 cmp	 DWORD PTR [ebx+8], 0
  00010	0f 84 cc 00 00
	00		 je	 $LN3@GetBoundBo

; 184  : 		return;
; 185  : 
; 186  : 	TBoundBox BoundBox;
; 187  : 
; 188  : 	vtMin->x = vtMin->y = vtMin->z = +100000.0f;

  00016	8b 45 08	 mov	 eax, DWORD PTR _vtMin$[ebp]
  00019	57		 push	 edi
  0001a	c7 40 08 00 50
	c3 47		 mov	 DWORD PTR [eax+8], 1203982336 ; 47c35000H
  00021	c7 40 04 00 50
	c3 47		 mov	 DWORD PTR [eax+4], 1203982336 ; 47c35000H
  00028	c7 00 00 50 c3
	47		 mov	 DWORD PTR [eax], 1203982336 ; 47c35000H

; 189  : 	vtMax->x = vtMax->y = vtMax->z = -100000.0f;

  0002e	8b 45 0c	 mov	 eax, DWORD PTR _vtMax$[ebp]
  00031	c7 40 08 00 50
	c3 c7		 mov	 DWORD PTR [eax+8], -943501312 ; c7c35000H
  00038	c7 40 04 00 50
	c3 c7		 mov	 DWORD PTR [eax+4], -943501312 ; c7c35000H
  0003f	c7 00 00 50 c3
	c7		 mov	 DWORD PTR [eax], -943501312 ; c7c35000H

; 190  : 
; 191  : 	int meshCount = m_pModel->GetMeshCount();

  00045	8b 4b 04	 mov	 ecx, DWORD PTR [ebx+4]
  00048	e8 00 00 00 00	 call	 ?GetMeshCount@CGrannyModel@@QBEHXZ ; CGrannyModel::GetMeshCount
  0004d	33 ff		 xor	 edi, edi
  0004f	89 45 ec	 mov	 DWORD PTR _meshCount$1$[ebp], eax
  00052	89 7d f4	 mov	 DWORD PTR _m$1$[ebp], edi

; 192  : 	for (int m = 0; m < meshCount; ++m)

  00055	85 c0		 test	 eax, eax
  00057	0f 8e 84 00 00
	00		 jle	 $LN23@GetBoundBo
  0005d	56		 push	 esi
  0005e	66 90		 npad	 2
$LL4@GetBoundBo:

; 193  : 	{
; 194  : 		//const CGrannyMesh* pMesh = m_pModel->GetMeshPointer(m);
; 195  : 		const granny_mesh* pgrnMesh = m_pModel->GetGrannyModelPointer()->MeshBindings[m].Mesh;

  00060	8b 4b 04	 mov	 ecx, DWORD PTR [ebx+4]
  00063	e8 00 00 00 00	 call	 ?GetGrannyModelPointer@CGrannyModel@@QAEPAUgranny_model@@XZ ; CGrannyModel::GetGrannyModelPointer

; 196  : 
; 197  : 		// WORK
; 198  : 		const granny_int32x* boneIndices = __GetMeshBoneIndices(m);

  00068	57		 push	 edi
  00069	8b cb		 mov	 ecx, ebx
  0006b	8b 40 50	 mov	 eax, DWORD PTR [eax+80]
  0006e	8b 04 b8	 mov	 eax, DWORD PTR [eax+edi*4]
  00071	89 45 fc	 mov	 DWORD PTR _pgrnMesh$1$[ebp], eax
  00074	e8 00 00 00 00	 call	 ?__GetMeshBoneIndices@CGrannyModelInstance@@IBEPBHI@Z ; CGrannyModelInstance::__GetMeshBoneIndices
  00079	8b d0		 mov	 edx, eax

; 199  : 		// END_OF_WORK
; 200  : 		for (int b = 0; b < pgrnMesh->BoneBindingCount; ++b)

  0007b	33 f6		 xor	 esi, esi
  0007d	8b 45 fc	 mov	 eax, DWORD PTR _pgrnMesh$1$[ebp]
  00080	89 55 f0	 mov	 DWORD PTR _boneIndices$1$[ebp], edx
  00083	39 70 1c	 cmp	 DWORD PTR [eax+28], esi
  00086	7e 4f		 jle	 SHORT $LN2@GetBoundBo

; 193  : 	{
; 194  : 		//const CGrannyMesh* pMesh = m_pModel->GetMeshPointer(m);
; 195  : 		const granny_mesh* pgrnMesh = m_pModel->GetGrannyModelPointer()->MeshBindings[m].Mesh;

  00088	8b 7d f8	 mov	 edi, DWORD PTR _this$1$[ebp]
  0008b	33 db		 xor	 ebx, ebx
  0008d	0f 1f 00	 npad	 3
$LL7@GetBoundBo:

; 201  : 		{
; 202  : 			const granny_bone_binding& rgrnBoneBinding = pgrnMesh->BoneBindings[b];

  00090	8b 48 20	 mov	 ecx, DWORD PTR [eax+32]

; 203  : 
; 204  : 			MakeBoundBox(&BoundBox,

  00093	8d 43 10	 lea	 eax, DWORD PTR [ebx+16]
  00096	ff 75 0c	 push	 DWORD PTR _vtMax$[ebp]
  00099	03 c1		 add	 eax, ecx
  0009b	ff 75 08	 push	 DWORD PTR _vtMin$[ebp]
  0009e	50		 push	 eax
  0009f	8d 41 04	 lea	 eax, DWORD PTR [ecx+4]
  000a2	8b cf		 mov	 ecx, edi
  000a4	03 c3		 add	 eax, ebx
  000a6	50		 push	 eax
  000a7	ff 34 b2	 push	 DWORD PTR [edx+esi*4]
  000aa	e8 00 00 00 00	 call	 ?__GetWorldPosePtr@CGrannyModelInstance@@IBEPAUworld_pose@granny@@XZ ; CGrannyModelInstance::__GetWorldPosePtr
  000af	50		 push	 eax
  000b0	ff 15 00 00 00
	00		 call	 DWORD PTR __imp__GrannyGetWorldPose4x4@8
  000b6	50		 push	 eax
  000b7	8d 45 cc	 lea	 eax, DWORD PTR _BoundBox$[ebp]
  000ba	8b cf		 mov	 ecx, edi
  000bc	50		 push	 eax
  000bd	e8 00 00 00 00	 call	 ?MakeBoundBox@CGrannyModelInstance@@QAEXPAUSBoundBox@@PBM11PAUD3DXVECTOR3@@2@Z ; CGrannyModelInstance::MakeBoundBox
  000c2	8b 45 fc	 mov	 eax, DWORD PTR _pgrnMesh$1$[ebp]
  000c5	46		 inc	 esi
  000c6	8b 55 f0	 mov	 edx, DWORD PTR _boneIndices$1$[ebp]
  000c9	83 c3 24	 add	 ebx, 36			; 00000024H
  000cc	3b 70 1c	 cmp	 esi, DWORD PTR [eax+28]
  000cf	7c bf		 jl	 SHORT $LL7@GetBoundBo
  000d1	8b 7d f4	 mov	 edi, DWORD PTR _m$1$[ebp]
  000d4	8b 5d f8	 mov	 ebx, DWORD PTR _this$1$[ebp]
$LN2@GetBoundBo:

; 192  : 	for (int m = 0; m < meshCount; ++m)

  000d7	47		 inc	 edi
  000d8	89 7d f4	 mov	 DWORD PTR _m$1$[ebp], edi
  000db	3b 7d ec	 cmp	 edi, DWORD PTR _meshCount$1$[ebp]
  000de	7c 80		 jl	 SHORT $LL4@GetBoundBo
  000e0	5e		 pop	 esi
$LN23@GetBoundBo:
  000e1	5f		 pop	 edi
$LN3@GetBoundBo:
  000e2	5b		 pop	 ebx

; 205  : 						 GrannyGetWorldPose4x4(__GetWorldPosePtr(), boneIndices[b]),
; 206  : 						 rgrnBoneBinding.OBBMin, rgrnBoneBinding.OBBMax, vtMin, vtMax);
; 207  : 		}
; 208  : 	}
; 209  : }

  000e3	8b e5		 mov	 esp, ebp
  000e5	5d		 pop	 ebp
  000e6	c2 08 00	 ret	 8
?GetBoundBox@CGrannyModelInstance@@QAEXPAUD3DXVECTOR3@@0@Z ENDP ; CGrannyModelInstance::GetBoundBox
_TEXT	ENDS
; Function compile flags: /Ogtp
; File C:\Marty 5.5\Src-Client\Client\eterGrnLib\ModelInstanceCollisionDetection.cpp
;	COMDAT ?MakeBoundBox@CGrannyModelInstance@@QAEXPAUSBoundBox@@PBM11PAUD3DXVECTOR3@@2@Z
_TEXT	SEGMENT
_pBoundBox$ = 8						; size = 4
_mat$ = 12						; size = 4
_OBBMin$ = 16						; size = 4
_OBBMax$ = 20						; size = 4
_vtMin$ = 24						; size = 4
_vtMax$ = 28						; size = 4
?MakeBoundBox@CGrannyModelInstance@@QAEXPAUSBoundBox@@PBM11PAUD3DXVECTOR3@@2@Z PROC ; CGrannyModelInstance::MakeBoundBox, COMDAT
; _this$ = ecx

; 11   : {

  00000	55		 push	 ebp
  00001	8b ec		 mov	 ebp, esp

; 12   : 	pBoundBox->sx = OBBMin[0] * mat[0] + OBBMin[1] * mat[4] + OBBMin[2] * mat[8] + mat[12];

  00003	8b 4d 0c	 mov	 ecx, DWORD PTR _mat$[ebp]
  00006	8b 45 10	 mov	 eax, DWORD PTR _OBBMin$[ebp]
  00009	8b 55 08	 mov	 edx, DWORD PTR _pBoundBox$[ebp]
  0000c	f3 0f 10 01	 movss	 xmm0, DWORD PTR [ecx]
  00010	f3 0f 59 00	 mulss	 xmm0, DWORD PTR [eax]
  00014	f3 0f 10 50 04	 movss	 xmm2, DWORD PTR [eax+4]
  00019	f3 0f 59 51 10	 mulss	 xmm2, DWORD PTR [ecx+16]
  0001e	f3 0f 58 d0	 addss	 xmm2, xmm0
  00022	f3 0f 10 40 08	 movss	 xmm0, DWORD PTR [eax+8]
  00027	f3 0f 59 41 20	 mulss	 xmm0, DWORD PTR [ecx+32]
  0002c	f3 0f 58 d0	 addss	 xmm2, xmm0
  00030	f3 0f 58 51 30	 addss	 xmm2, DWORD PTR [ecx+48]
  00035	f3 0f 11 12	 movss	 DWORD PTR [edx], xmm2

; 13   : 	pBoundBox->sy = OBBMin[0] * mat[1] + OBBMin[1] * mat[5] + OBBMin[2] * mat[9] + mat[13];

  00039	f3 0f 10 48 04	 movss	 xmm1, DWORD PTR [eax+4]
  0003e	f3 0f 59 49 14	 mulss	 xmm1, DWORD PTR [ecx+20]
  00043	f3 0f 10 00	 movss	 xmm0, DWORD PTR [eax]
  00047	f3 0f 59 41 04	 mulss	 xmm0, DWORD PTR [ecx+4]
  0004c	f3 0f 58 c8	 addss	 xmm1, xmm0
  00050	f3 0f 10 41 24	 movss	 xmm0, DWORD PTR [ecx+36]
  00055	f3 0f 59 40 08	 mulss	 xmm0, DWORD PTR [eax+8]
  0005a	f3 0f 58 c8	 addss	 xmm1, xmm0
  0005e	f3 0f 58 49 34	 addss	 xmm1, DWORD PTR [ecx+52]
  00063	f3 0f 11 4a 04	 movss	 DWORD PTR [edx+4], xmm1

; 14   : 	pBoundBox->sz = OBBMin[0] * mat[2] + OBBMin[1] * mat[6] + OBBMin[2] * mat[10] + mat[14];

  00068	f3 0f 10 48 04	 movss	 xmm1, DWORD PTR [eax+4]
  0006d	f3 0f 59 49 18	 mulss	 xmm1, DWORD PTR [ecx+24]
  00072	f3 0f 10 00	 movss	 xmm0, DWORD PTR [eax]
  00076	f3 0f 59 41 08	 mulss	 xmm0, DWORD PTR [ecx+8]
  0007b	f3 0f 58 c8	 addss	 xmm1, xmm0
  0007f	f3 0f 10 41 28	 movss	 xmm0, DWORD PTR [ecx+40]
  00084	f3 0f 59 40 08	 mulss	 xmm0, DWORD PTR [eax+8]

; 15   : 
; 16   : 	pBoundBox->ex = OBBMax[0] * mat[0] + OBBMax[1] * mat[4] + OBBMax[2] * mat[8] + mat[12];

  00089	8b 45 14	 mov	 eax, DWORD PTR _OBBMax$[ebp]
  0008c	f3 0f 58 c8	 addss	 xmm1, xmm0
  00090	f3 0f 58 49 38	 addss	 xmm1, DWORD PTR [ecx+56]
  00095	f3 0f 11 4a 08	 movss	 DWORD PTR [edx+8], xmm1
  0009a	f3 0f 10 40 04	 movss	 xmm0, DWORD PTR [eax+4]
  0009f	f3 0f 59 41 10	 mulss	 xmm0, DWORD PTR [ecx+16]
  000a4	f3 0f 10 09	 movss	 xmm1, DWORD PTR [ecx]
  000a8	f3 0f 59 08	 mulss	 xmm1, DWORD PTR [eax]
  000ac	f3 0f 58 c8	 addss	 xmm1, xmm0
  000b0	f3 0f 10 40 08	 movss	 xmm0, DWORD PTR [eax+8]
  000b5	f3 0f 59 41 20	 mulss	 xmm0, DWORD PTR [ecx+32]
  000ba	f3 0f 58 c8	 addss	 xmm1, xmm0
  000be	f3 0f 58 49 30	 addss	 xmm1, DWORD PTR [ecx+48]
  000c3	f3 0f 11 4a 0c	 movss	 DWORD PTR [edx+12], xmm1

; 17   : 	pBoundBox->ey = OBBMax[0] * mat[1] + OBBMax[1] * mat[5] + OBBMax[2] * mat[9] + mat[13];

  000c8	f3 0f 10 49 04	 movss	 xmm1, DWORD PTR [ecx+4]
  000cd	f3 0f 59 08	 mulss	 xmm1, DWORD PTR [eax]
  000d1	f3 0f 10 41 14	 movss	 xmm0, DWORD PTR [ecx+20]
  000d6	f3 0f 59 40 04	 mulss	 xmm0, DWORD PTR [eax+4]
  000db	f3 0f 58 c8	 addss	 xmm1, xmm0
  000df	f3 0f 10 41 24	 movss	 xmm0, DWORD PTR [ecx+36]
  000e4	f3 0f 59 40 08	 mulss	 xmm0, DWORD PTR [eax+8]
  000e9	f3 0f 58 c8	 addss	 xmm1, xmm0
  000ed	f3 0f 58 49 34	 addss	 xmm1, DWORD PTR [ecx+52]
  000f2	f3 0f 11 4a 10	 movss	 DWORD PTR [edx+16], xmm1

; 18   : 	pBoundBox->ez = OBBMax[0] * mat[2] + OBBMax[1] * mat[6] + OBBMax[2] * mat[10] + mat[14];

  000f7	f3 0f 10 49 08	 movss	 xmm1, DWORD PTR [ecx+8]
  000fc	f3 0f 59 08	 mulss	 xmm1, DWORD PTR [eax]
  00100	f3 0f 10 41 18	 movss	 xmm0, DWORD PTR [ecx+24]
  00105	f3 0f 59 40 04	 mulss	 xmm0, DWORD PTR [eax+4]
  0010a	f3 0f 58 c8	 addss	 xmm1, xmm0
  0010e	f3 0f 10 41 28	 movss	 xmm0, DWORD PTR [ecx+40]
  00113	f3 0f 59 40 08	 mulss	 xmm0, DWORD PTR [eax+8]

; 19   : 
; 20   : 	vtMin->x = min(vtMin->x, pBoundBox->sx);

  00118	8b 45 18	 mov	 eax, DWORD PTR _vtMin$[ebp]
  0011b	f3 0f 58 c8	 addss	 xmm1, xmm0
  0011f	f3 0f 58 49 38	 addss	 xmm1, DWORD PTR [ecx+56]
  00124	f3 0f 11 4a 14	 movss	 DWORD PTR [edx+20], xmm1
  00129	f3 0f 10 00	 movss	 xmm0, DWORD PTR [eax]
  0012d	f3 0f 5d c2	 minss	 xmm0, xmm2
  00131	f3 0f 11 00	 movss	 DWORD PTR [eax], xmm0

; 21   : 	vtMin->x = min(vtMin->x, pBoundBox->ex);

  00135	f3 0f 10 4a 0c	 movss	 xmm1, DWORD PTR [edx+12]
  0013a	0f 2f c8	 comiss	 xmm1, xmm0
  0013d	77 03		 ja	 SHORT $LN6@MakeBoundB
  0013f	0f 28 c1	 movaps	 xmm0, xmm1
$LN6@MakeBoundB:
  00142	f3 0f 11 00	 movss	 DWORD PTR [eax], xmm0

; 22   : 	vtMin->y = min(vtMin->y, pBoundBox->sy);

  00146	f3 0f 10 40 04	 movss	 xmm0, DWORD PTR [eax+4]
  0014b	f3 0f 5d 42 04	 minss	 xmm0, DWORD PTR [edx+4]
  00150	f3 0f 11 40 04	 movss	 DWORD PTR [eax+4], xmm0

; 23   : 	vtMin->y = min(vtMin->y, pBoundBox->ey);

  00155	f3 0f 10 4a 10	 movss	 xmm1, DWORD PTR [edx+16]
  0015a	0f 2f c8	 comiss	 xmm1, xmm0
  0015d	77 03		 ja	 SHORT $LN10@MakeBoundB
  0015f	0f 28 c1	 movaps	 xmm0, xmm1
$LN10@MakeBoundB:
  00162	f3 0f 11 40 04	 movss	 DWORD PTR [eax+4], xmm0

; 24   : 	vtMin->z = min(vtMin->z, pBoundBox->sz);

  00167	f3 0f 10 40 08	 movss	 xmm0, DWORD PTR [eax+8]
  0016c	f3 0f 5d 42 08	 minss	 xmm0, DWORD PTR [edx+8]
  00171	f3 0f 11 40 08	 movss	 DWORD PTR [eax+8], xmm0

; 25   : 	vtMin->z = min(vtMin->z, pBoundBox->ez);

  00176	f3 0f 10 4a 14	 movss	 xmm1, DWORD PTR [edx+20]
  0017b	0f 2f c8	 comiss	 xmm1, xmm0
  0017e	77 03		 ja	 SHORT $LN14@MakeBoundB
  00180	0f 28 c1	 movaps	 xmm0, xmm1
$LN14@MakeBoundB:
  00183	f3 0f 11 40 08	 movss	 DWORD PTR [eax+8], xmm0

; 26   : 
; 27   : 	vtMax->x = max(vtMax->x, pBoundBox->sx);

  00188	8b 45 1c	 mov	 eax, DWORD PTR _vtMax$[ebp]
  0018b	f3 0f 10 00	 movss	 xmm0, DWORD PTR [eax]
  0018f	f3 0f 5f 02	 maxss	 xmm0, DWORD PTR [edx]
  00193	f3 0f 11 00	 movss	 DWORD PTR [eax], xmm0

; 28   : 	vtMax->x = max(vtMax->x, pBoundBox->ex);

  00197	f3 0f 10 4a 0c	 movss	 xmm1, DWORD PTR [edx+12]
  0019c	0f 2f c1	 comiss	 xmm0, xmm1
  0019f	77 03		 ja	 SHORT $LN18@MakeBoundB
  001a1	0f 28 c1	 movaps	 xmm0, xmm1
$LN18@MakeBoundB:
  001a4	f3 0f 11 00	 movss	 DWORD PTR [eax], xmm0

; 29   : 	vtMax->y = max(vtMax->y, pBoundBox->sy);

  001a8	f3 0f 10 40 04	 movss	 xmm0, DWORD PTR [eax+4]
  001ad	f3 0f 5f 42 04	 maxss	 xmm0, DWORD PTR [edx+4]
  001b2	f3 0f 11 40 04	 movss	 DWORD PTR [eax+4], xmm0

; 30   : 	vtMax->y = max(vtMax->y, pBoundBox->ey);

  001b7	f3 0f 10 4a 10	 movss	 xmm1, DWORD PTR [edx+16]
  001bc	0f 2f c1	 comiss	 xmm0, xmm1
  001bf	77 03		 ja	 SHORT $LN22@MakeBoundB
  001c1	0f 28 c1	 movaps	 xmm0, xmm1
$LN22@MakeBoundB:
  001c4	f3 0f 11 40 04	 movss	 DWORD PTR [eax+4], xmm0

; 31   : 	vtMax->z = max(vtMax->z, pBoundBox->sz);

  001c9	f3 0f 10 40 08	 movss	 xmm0, DWORD PTR [eax+8]
  001ce	f3 0f 5f 42 08	 maxss	 xmm0, DWORD PTR [edx+8]
  001d3	f3 0f 11 40 08	 movss	 DWORD PTR [eax+8], xmm0

; 32   : 	vtMax->z = max(vtMax->z, pBoundBox->ez);

  001d8	f3 0f 10 4a 14	 movss	 xmm1, DWORD PTR [edx+20]
  001dd	0f 2f c1	 comiss	 xmm0, xmm1
  001e0	76 09		 jbe	 SHORT $LN25@MakeBoundB
  001e2	f3 0f 11 40 08	 movss	 DWORD PTR [eax+8], xmm0

; 33   : }

  001e7	5d		 pop	 ebp
  001e8	c2 18 00	 ret	 24			; 00000018H
$LN25@MakeBoundB:

; 32   : 	vtMax->z = max(vtMax->z, pBoundBox->ez);

  001eb	f3 0f 11 48 08	 movss	 DWORD PTR [eax+8], xmm1

; 33   : }

  001f0	5d		 pop	 ebp
  001f1	c2 18 00	 ret	 24			; 00000018H
?MakeBoundBox@CGrannyModelInstance@@QAEXPAUSBoundBox@@PBM11PAUD3DXVECTOR3@@2@Z ENDP ; CGrannyModelInstance::MakeBoundBox
_TEXT	ENDS
; Function compile flags: /Ogtp
; File C:\Marty 5.5\Src-Client\Client\eterGrnLib\ModelInstanceCollisionDetection.cpp
; File D:\Program Files\Microsoft Visual Studio\2022\Community\VC\Tools\MSVC\14.43.34808\include\vector
; File C:\Marty 5.5\Src-Client\Client\eterGrnLib\ModelInstanceCollisionDetection.cpp
; File D:\Program Files\Microsoft Visual Studio\2022\Community\VC\Tools\MSVC\14.43.34808\include\vector
; File C:\Marty 5.5\Src-Client\Client\eterBase\Stl.h
; File D:\Program Files\Microsoft Visual Studio\2022\Community\VC\Tools\MSVC\14.43.34808\include\vector
; File C:\Marty 5.5\Src-Client\Client\eterBase\Stl.h
; File D:\Program Files\Microsoft Visual Studio\2022\Community\VC\Tools\MSVC\14.43.34808\include\vector
; File C:\Marty 5.5\Src-Client\Client\eterBase\Stl.h
; File C:\Marty 5.5\Src-Client\Client\eterGrnLib\ModelInstanceCollisionDetection.cpp
; File D:\Program Files\Microsoft Visual Studio\2022\Community\VC\Tools\MSVC\14.43.34808\include\vector
; File C:\Marty 5.5\Src-Client\Client\eterBase\Stl.h
; File D:\Program Files\Microsoft Visual Studio\2022\Community\VC\Tools\MSVC\14.43.34808\include\vector
; File C:\Marty 5.5\Src-Client\Client\eterGrnLib\ModelInstanceCollisionDetection.cpp
;	COMDAT ?Intersect@CGrannyModelInstance@@QAE_NPBUD3DXMATRIX@@PAM11@Z
_TEXT	SEGMENT
_vtMin$ = -64						; size = 12
_vtMax$ = -52						; size = 12
_u$ = -40						; size = 4
_v$ = -36						; size = 4
_t$ = -32						; size = 4
_meshCount$1$ = -28					; size = 4
_pgrnMesh$1$ = -24					; size = 4
tv549 = -20						; size = 4
_this$1$ = -16						; size = 4
__$EHRec$ = -12						; size = 12
_c_pMatrix$ = 8						; size = 4
___formal$ = 12						; size = 4
___formal$ = 16						; size = 4
_pt$ = 20						; size = 4
_b$1$ = 20						; size = 4
$T3 = 23						; size = 1
?Intersect@CGrannyModelInstance@@QAE_NPBUD3DXMATRIX@@PAM11@Z PROC ; CGrannyModelInstance::Intersect, COMDAT
; _this$ = ecx

; 37   : {

  00000	55		 push	 ebp
  00001	8b ec		 mov	 ebp, esp
  00003	6a ff		 push	 -1
  00005	68 00 00 00 00	 push	 __ehhandler$?Intersect@CGrannyModelInstance@@QAE_NPBUD3DXMATRIX@@PAM11@Z
  0000a	64 a1 00 00 00
	00		 mov	 eax, DWORD PTR fs:0
  00010	50		 push	 eax
  00011	83 ec 34	 sub	 esp, 52			; 00000034H
  00014	53		 push	 ebx
  00015	56		 push	 esi
  00016	57		 push	 edi
  00017	a1 00 00 00 00	 mov	 eax, DWORD PTR ___security_cookie
  0001c	33 c5		 xor	 eax, ebp
  0001e	50		 push	 eax
  0001f	8d 45 f4	 lea	 eax, DWORD PTR __$EHRec$[ebp]
  00022	64 a3 00 00 00
	00		 mov	 DWORD PTR fs:0, eax
  00028	8b f1		 mov	 esi, ecx
  0002a	89 75 f0	 mov	 DWORD PTR _this$1$[ebp], esi

; 38   : 	if (!m_pgrnModelInstance)

  0002d	83 7e 08 00	 cmp	 DWORD PTR [esi+8], 0
  00031	0f 84 ce 01 00
	00		 je	 $LN73@Intersect

; 39   : 		return false;
; 40   : 
; 41   : 	float u, v, t;
; 42   : 	bool ret = false;
; 43   : 	*pt = 100000000.0f;

  00037	8b 45 14	 mov	 eax, DWORD PTR _pt$[ebp]

; 50   : 	static stl_stack_pool<TBoundBox> s_boundBoxPool(1024);

  0003a	8b 0d 00 00 00
	00		 mov	 ecx, DWORD PTR __tls_index
  00040	f3 0f 10 05 00
	00 00 00	 movss	 xmm0, DWORD PTR __real@4b189680
  00048	f3 0f 11 45 c8	 movss	 DWORD PTR _vtMin$[ebp+8], xmm0
  0004d	c7 00 20 bc be
	4c		 mov	 DWORD PTR [eax], 1287568416 ; 4cbebc20H
  00053	64 a1 00 00 00
	00		 mov	 eax, DWORD PTR fs:__tls_array
  00059	f3 0f 11 45 c4	 movss	 DWORD PTR _vtMin$[ebp+4], xmm0
  0005e	f3 0f 11 45 c0	 movss	 DWORD PTR _vtMin$[ebp], xmm0
  00063	f3 0f 10 05 00
	00 00 00	 movss	 xmm0, DWORD PTR __real@cb189680
  0006b	8b 0c 88	 mov	 ecx, DWORD PTR [eax+ecx*4]
  0006e	a1 00 00 00 00	 mov	 eax, DWORD PTR ?$TSS0@?1??Intersect@CGrannyModelInstance@@QAE_NPBUD3DXMATRIX@@PAM11@Z@4HA
  00073	f3 0f 11 45 d4	 movss	 DWORD PTR _vtMax$[ebp+8], xmm0
  00078	f3 0f 11 45 d0	 movss	 DWORD PTR _vtMax$[ebp+4], xmm0
  0007d	f3 0f 11 45 cc	 movss	 DWORD PTR _vtMax$[ebp], xmm0
  00082	3b 81 00 00 00
	00		 cmp	 eax, DWORD PTR __Init_thread_epoch[ecx]
  00088	0f 8f 8d 01 00
	00		 jg	 $LN78@Intersect
$LN2@Intersect:

; 51   : 	s_boundBoxPool.clear();

  0008e	c7 05 04 00 00
	00 00 00 00 00	 mov	 DWORD PTR ?s_boundBoxPool@?1??Intersect@CGrannyModelInstance@@QAE_NPBUD3DXMATRIX@@PAM11@Z@4V?$stl_stack_pool@USBoundBox@@@@A+4, 0

; 52   : 
; 53   : 	int meshCount = m_pModel->GetMeshCount();

  00098	8b 4e 04	 mov	 ecx, DWORD PTR [esi+4]
  0009b	e8 00 00 00 00	 call	 ?GetMeshCount@CGrannyModel@@QBEHXZ ; CGrannyModel::GetMeshCount
  000a0	33 db		 xor	 ebx, ebx
  000a2	89 45 e4	 mov	 DWORD PTR _meshCount$1$[ebp], eax

; 54   : 
; 55   : 	for (int m = 0; m < meshCount; ++m)

  000a5	85 c0		 test	 eax, eax
  000a7	0f 8e d5 00 00
	00		 jle	 $LN75@Intersect
  000ad	0f 1f 00	 npad	 3
$LL5@Intersect:

; 56   : 	{
; 57   : 		//const CGrannyMesh * pMesh = m_pModel->GetMeshPointer(m);
; 58   : 		const granny_mesh * pgrnMesh = m_pModel->GetGrannyModelPointer()->MeshBindings[m].Mesh;

  000b0	8b 4e 04	 mov	 ecx, DWORD PTR [esi+4]
  000b3	e8 00 00 00 00	 call	 ?GetGrannyModelPointer@CGrannyModel@@QAEPAUgranny_model@@XZ ; CGrannyModel::GetGrannyModelPointer

; 59   : 
; 60   : 		for (int b = 0; b < pgrnMesh->BoneBindingCount; ++b)

  000b8	c7 45 14 00 00
	00 00		 mov	 DWORD PTR _b$1$[ebp], 0
  000bf	8b 40 50	 mov	 eax, DWORD PTR [eax+80]
  000c2	8b 04 98	 mov	 eax, DWORD PTR [eax+ebx*4]
  000c5	89 45 e8	 mov	 DWORD PTR _pgrnMesh$1$[ebp], eax
  000c8	83 78 1c 00	 cmp	 DWORD PTR [eax+28], 0
  000cc	0f 8e 9a 00 00
	00		 jle	 $LN3@Intersect

; 56   : 	{
; 57   : 		//const CGrannyMesh * pMesh = m_pModel->GetMeshPointer(m);
; 58   : 		const granny_mesh * pgrnMesh = m_pModel->GetGrannyModelPointer()->MeshBindings[m].Mesh;

  000d2	33 c9		 xor	 ecx, ecx
  000d4	89 4d ec	 mov	 DWORD PTR tv549[ebp], ecx
  000d7	66 0f 1f 84 00
	00 00 00 00	 npad	 9
$LL8@Intersect:

; 62   : 			const granny_bone_binding& rgrnBoneBinding = pgrnMesh->BoneBindings[b];

  000e0	8b 78 20	 mov	 edi, DWORD PTR [eax+32]
; File D:\Program Files\Microsoft Visual Studio\2022\Community\VC\Tools\MSVC\14.43.34808\include\vector

; 1900 :         return static_cast<size_type>(_My_data._Mylast - _My_data._Myfirst);

  000e3	a1 0c 00 00 00	 mov	 eax, DWORD PTR ?s_boundBoxPool@?1??Intersect@CGrannyModelInstance@@QAE_NPBUD3DXMATRIX@@PAM11@Z@4V?$stl_stack_pool@USBoundBox@@@@A+12
; File C:\Marty 5.5\Src-Client\Client\eterGrnLib\ModelInstanceCollisionDetection.cpp

; 62   : 			const granny_bone_binding& rgrnBoneBinding = pgrnMesh->BoneBindings[b];

  000e8	03 f9		 add	 edi, ecx
; File D:\Program Files\Microsoft Visual Studio\2022\Community\VC\Tools\MSVC\14.43.34808\include\vector

; 1900 :         return static_cast<size_type>(_My_data._Mylast - _My_data._Myfirst);

  000ea	8b 0d 08 00 00
	00		 mov	 ecx, DWORD PTR ?s_boundBoxPool@?1??Intersect@CGrannyModelInstance@@QAE_NPBUD3DXMATRIX@@PAM11@Z@4V?$stl_stack_pool@USBoundBox@@@@A+8
  000f0	2b c1		 sub	 eax, ecx
; File C:\Marty 5.5\Src-Client\Client\eterBase\Stl.h

; 293  : 			if (m_pos >= max)

  000f2	8b 35 04 00 00
	00		 mov	 esi, DWORD PTR ?s_boundBoxPool@?1??Intersect@CGrannyModelInstance@@QAE_NPBUD3DXMATRIX@@PAM11@Z@4V?$stl_stack_pool@USBoundBox@@@@A+4
; File D:\Program Files\Microsoft Visual Studio\2022\Community\VC\Tools\MSVC\14.43.34808\include\vector

; 1900 :         return static_cast<size_type>(_My_data._Mylast - _My_data._Myfirst);

  000f8	c1 f8 05	 sar	 eax, 5
; File C:\Marty 5.5\Src-Client\Client\eterBase\Stl.h

; 293  : 			if (m_pos >= max)

  000fb	3b f0		 cmp	 esi, eax
  000fd	7c 02		 jl	 SHORT $LN52@Intersect

; 294  : 			{
; 295  : 				assert(!"stl_stack_pool::alloc OUT of memory");
; 296  : 				m_pos = 0;

  000ff	33 f6		 xor	 esi, esi
$LN52@Intersect:

; 299  : 			return &m_dataVector[m_pos++];

  00101	8d 46 01	 lea	 eax, DWORD PTR [esi+1]
; File D:\Program Files\Microsoft Visual Studio\2022\Community\VC\Tools\MSVC\14.43.34808\include\vector

; 1919 :         return _My_data._Myfirst[_Pos];

  00104	c1 e6 05	 shl	 esi, 5
  00107	03 f1		 add	 esi, ecx
; File C:\Marty 5.5\Src-Client\Client\eterBase\Stl.h

; 299  : 			return &m_dataVector[m_pos++];

  00109	a3 04 00 00 00	 mov	 DWORD PTR ?s_boundBoxPool@?1??Intersect@CGrannyModelInstance@@QAE_NPBUD3DXMATRIX@@PAM11@Z@4V?$stl_stack_pool@USBoundBox@@@@A+4, eax
; File C:\Marty 5.5\Src-Client\Client\eterGrnLib\ModelInstanceCollisionDetection.cpp

; 67   : 			float * Transform = GrannyGetWorldPose4x4(__GetWorldPosePtr(), __GetMeshBoneIndices(m)[b]);

  0010e	8b 4d f0	 mov	 ecx, DWORD PTR _this$1$[ebp]
  00111	53		 push	 ebx
  00112	e8 00 00 00 00	 call	 ?__GetMeshBoneIndices@CGrannyModelInstance@@IBEPBHI@Z ; CGrannyModelInstance::__GetMeshBoneIndices
  00117	8b 4d 14	 mov	 ecx, DWORD PTR _b$1$[ebp]
  0011a	8b 04 88	 mov	 eax, DWORD PTR [eax+ecx*4]
  0011d	8b 4d f0	 mov	 ecx, DWORD PTR _this$1$[ebp]
  00120	50		 push	 eax
  00121	e8 00 00 00 00	 call	 ?__GetWorldPosePtr@CGrannyModelInstance@@IBEPAUworld_pose@granny@@XZ ; CGrannyModelInstance::__GetWorldPosePtr
  00126	50		 push	 eax
  00127	ff 15 00 00 00
	00		 call	 DWORD PTR __imp__GrannyGetWorldPose4x4@8

; 68   : 			// END_OF_WORK
; 69   : 
; 70   : 			MakeBoundBox(pBoundBox,

  0012d	8d 4d cc	 lea	 ecx, DWORD PTR _vtMax$[ebp]
  00130	51		 push	 ecx
  00131	8d 4d c0	 lea	 ecx, DWORD PTR _vtMin$[ebp]
  00134	51		 push	 ecx
  00135	8d 4f 10	 lea	 ecx, DWORD PTR [edi+16]
  00138	51		 push	 ecx
  00139	8d 4f 04	 lea	 ecx, DWORD PTR [edi+4]
  0013c	51		 push	 ecx
  0013d	8b 4d f0	 mov	 ecx, DWORD PTR _this$1$[ebp]
  00140	50		 push	 eax
  00141	56		 push	 esi
  00142	e8 00 00 00 00	 call	 ?MakeBoundBox@CGrannyModelInstance@@QAEXPAUSBoundBox@@PBM11PAUD3DXVECTOR3@@2@Z ; CGrannyModelInstance::MakeBoundBox

; 71   : 						 Transform,
; 72   : 						 rgrnBoneBinding.OBBMin,
; 73   : 						 rgrnBoneBinding.OBBMax,
; 74   : 						 &vtMin,
; 75   : 						 &vtMax);
; 76   : 
; 77   : 			pBoundBox->meshIndex = m;
; 78   : 			pBoundBox->boneIndex = b;

  00147	8b 55 14	 mov	 edx, DWORD PTR _b$1$[ebp]
  0014a	8b 45 e8	 mov	 eax, DWORD PTR _pgrnMesh$1$[ebp]
  0014d	8b 4d ec	 mov	 ecx, DWORD PTR tv549[ebp]
  00150	89 56 1c	 mov	 DWORD PTR [esi+28], edx
  00153	83 c1 24	 add	 ecx, 36			; 00000024H
  00156	42		 inc	 edx
  00157	89 5e 18	 mov	 DWORD PTR [esi+24], ebx
  0015a	89 55 14	 mov	 DWORD PTR _b$1$[ebp], edx
  0015d	89 4d ec	 mov	 DWORD PTR tv549[ebp], ecx
  00160	3b 50 1c	 cmp	 edx, DWORD PTR [eax+28]
  00163	0f 8c 77 ff ff
	ff		 jl	 $LL8@Intersect
  00169	8b 75 f0	 mov	 esi, DWORD PTR _this$1$[ebp]
$LN3@Intersect:

; 54   : 
; 55   : 	for (int m = 0; m < meshCount; ++m)

  0016c	43		 inc	 ebx
  0016d	3b 5d e4	 cmp	 ebx, DWORD PTR _meshCount$1$[ebp]
  00170	0f 8c 3a ff ff
	ff		 jl	 $LL5@Intersect
  00176	f3 0f 10 45 c8	 movss	 xmm0, DWORD PTR _vtMin$[ebp+8]
  0017b	f3 0f 10 4d d4	 movss	 xmm1, DWORD PTR _vtMax$[ebp+8]
  00180	eb 10		 jmp	 SHORT $LN4@Intersect
$LN75@Intersect:
  00182	f3 0f 10 05 00
	00 00 00	 movss	 xmm0, DWORD PTR __real@4b189680
  0018a	f3 0f 10 0d 00
	00 00 00	 movss	 xmm1, DWORD PTR __real@cb189680
$LN4@Intersect:

; 79   : 		}
; 80   : 	}
; 81   : 
; 82   : 	if (!IntersectCube(c_pMatrix,

  00192	8d 45 e0	 lea	 eax, DWORD PTR _t$[ebp]
  00195	8b ce		 mov	 ecx, esi
  00197	50		 push	 eax
  00198	8d 45 dc	 lea	 eax, DWORD PTR _v$[ebp]
  0019b	50		 push	 eax
  0019c	8d 45 d8	 lea	 eax, DWORD PTR _u$[ebp]
  0019f	50		 push	 eax
  001a0	68 00 00 00 00	 push	 OFFSET ?ms_vtPickRayDir@CGraphicBase@@1UD3DXVECTOR3@@A ; CGraphicBase::ms_vtPickRayDir
  001a5	68 00 00 00 00	 push	 OFFSET ?ms_vtPickRayOrig@CGraphicBase@@1UD3DXVECTOR3@@A ; CGraphicBase::ms_vtPickRayOrig
  001aa	83 ec 18	 sub	 esp, 24			; 00000018H
  001ad	f3 0f 11 4c 24
	14		 movss	 DWORD PTR [esp+20], xmm1
  001b3	f3 0f 10 4d d0	 movss	 xmm1, DWORD PTR _vtMax$[ebp+4]
  001b8	f3 0f 11 4c 24
	10		 movss	 DWORD PTR [esp+16], xmm1
  001be	f3 0f 10 4d cc	 movss	 xmm1, DWORD PTR _vtMax$[ebp]
  001c3	f3 0f 11 4c 24
	0c		 movss	 DWORD PTR [esp+12], xmm1
  001c9	f3 0f 11 44 24
	08		 movss	 DWORD PTR [esp+8], xmm0
  001cf	f3 0f 10 45 c4	 movss	 xmm0, DWORD PTR _vtMin$[ebp+4]
  001d4	f3 0f 11 44 24
	04		 movss	 DWORD PTR [esp+4], xmm0
  001da	f3 0f 10 45 c0	 movss	 xmm0, DWORD PTR _vtMin$[ebp]
  001df	f3 0f 11 04 24	 movss	 DWORD PTR [esp], xmm0
  001e4	ff 75 08	 push	 DWORD PTR _c_pMatrix$[ebp]
  001e7	e8 00 00 00 00	 call	 ?IntersectCube@CGraphicCollisionObject@@IAE_NPBUD3DXMATRIX@@MMMMMMAAUD3DXVECTOR3@@1PAM22@Z ; CGraphicCollisionObject::IntersectCube
  001ec	84 c0		 test	 al, al
  001ee	0f 95 c0	 setne	 al

; 89   : 	}
; 90   : 
; 91   : 	return true;
; 92   : 
; 93   : /*
; 94   : 	TBoundBox* boundBoxs = s_boundBoxPool.base();
; 95   : 	for (int i = 0; i < s_boundBoxPool.size(); ++i)
; 96   : 	{
; 97   : 		TBoundBox& rcurBoundBox=boundBoxs[i];
; 98   : 
; 99   : 		if (!IntersectBoundBox(c_pMatrix, rcurBoundBox, &u, &v, &t))
; 100  : 			continue;
; 101  : 
; 102  : 		granny_matrix_4x4* pgrnMatCompositeBuffer = GrannyGetWorldPoseComposite4x4Array(m_pgrnWorldPose);
; 103  : 		const CGrannyMesh* c_pMesh = m_pModel->GetMeshPointer(rcurBoundBox.meshIndex);
; 104  : 		const granny_mesh* c_pgrnMesh = c_pMesh->GetGrannyMeshPointer();
; 105  : 
; 106  : 		if (!GrannyMeshIsRigid(c_pgrnMesh))
; 107  : 		{
; 108  : 			//continue;
; 109  : 			ret = true;
; 110  : 		}
; 111  : 		else
; 112  : 		{
; 113  : 			D3DXMATRIX matMesh;
; 114  : 			int* toBoneIndices = c_pMesh->GetBoneIndices();
; 115  : 			D3DXMatrixMultiply(&matMesh, (D3DXMATRIX*) pgrnMatCompositeBuffer[toBoneIndices[0]], c_pMatrix);
; 116  : 
; 117  : 			granny_tri_material_group* pgrnTriGroups = GrannyGetMeshTriangleGroups(c_pgrnMesh);
; 118  : 			int mtrlCount = c_pMesh->GetGrannyMeshPointer()->MaterialBindingCount;
; 119  : 			int vtxCount = GrannyGetMeshVertexCount(c_pgrnMesh);
; 120  : 			int groupCount = GrannyGetMeshTriangleGroupCount(c_pgrnMesh);
; 121  : 
; 122  : 			TIndex*	modelIndices;
; 123  : 			TPNTVertex*	modelVertices;
; 124  : 
; 125  : 			if (m_pModel->LockVertices((void**)&modelIndices, (void**)&modelVertices))
; 126  : 			{
; 127  : 				TIndex* meshIndices = modelIndices + c_pMesh->GetIndexBasePosition();
; 128  : 				TPNTVertex* meshVertices = modelVertices + c_pMesh->GetVertexBasePosition();
; 129  : 
; 130  : 				for (int i = 0; i < groupCount; ++i)
; 131  : 				{
; 132  : 					granny_tri_material_group& rgrnTriGroup = pgrnTriGroups[i];
; 133  : 
; 134  : 					if (rgrnTriGroup.MaterialIndex < 0 || rgrnTriGroup.MaterialIndex >= mtrlCount)
; 135  : 						continue;
; 136  : 
; 137  : 					if (IntersectMesh(&matMesh,
; 138  : 									  meshVertices,
; 139  : 									  sizeof(TPNTVertex),
; 140  : 									  vtxCount,
; 141  : 									  meshIndices,
; 142  : 									  GrannyGetMeshIndexCount(c_pgrnMesh),
; 143  : 									  ms_vtPickRayOrig,
; 144  : 									  ms_vtPickRayDir,
; 145  : 									  &u, &v, &t))
; 146  : 					{
; 147  : 						ret = true;
; 148  : 						break;
; 149  : 					}
; 150  : 				}
; 151  : 
; 152  : 				m_pModel->UnlockVertices();
; 153  : 			}
; 154  : 		}
; 155  : 
; 156  : 		if (ret)
; 157  : 		{
; 158  : 			*pu = u;
; 159  : 			*pv = v;
; 160  : 			*pt = -t;
; 161  : 
; 162  : 			if (c_szModelName)
; 163  : 			{
; 164  : 				if (!strncmp(c_pgrnMesh->Name, c_szModelName, strlen(c_szModelName)))
; 165  : 					return ret;
; 166  : 
; 167  : 				ret = false;
; 168  : 				continue;
; 169  : 			}
; 170  : 
; 171  : 			return ret;
; 172  : 		}
; 173  : 	}
; 174  : 
; 175  : 	return (ret);
; 176  : */
; 177  : }

  001f1	8b 4d f4	 mov	 ecx, DWORD PTR __$EHRec$[ebp]
  001f4	64 89 0d 00 00
	00 00		 mov	 DWORD PTR fs:0, ecx
  001fb	59		 pop	 ecx
  001fc	5f		 pop	 edi
  001fd	5e		 pop	 esi
  001fe	5b		 pop	 ebx
  001ff	8b e5		 mov	 esp, ebp
  00201	5d		 pop	 ebp
  00202	c2 10 00	 ret	 16			; 00000010H
$LN73@Intersect:

; 83   : 					   vtMin.x, vtMin.y, vtMin.z,
; 84   : 					   vtMax.x, vtMax.y, vtMax.z,
; 85   : 					   ms_vtPickRayOrig, ms_vtPickRayDir,
; 86   : 					   &u, &v, &t))
; 87   : 	{
; 88   : 		return ret;

  00205	32 c0		 xor	 al, al

; 89   : 	}
; 90   : 
; 91   : 	return true;
; 92   : 
; 93   : /*
; 94   : 	TBoundBox* boundBoxs = s_boundBoxPool.base();
; 95   : 	for (int i = 0; i < s_boundBoxPool.size(); ++i)
; 96   : 	{
; 97   : 		TBoundBox& rcurBoundBox=boundBoxs[i];
; 98   : 
; 99   : 		if (!IntersectBoundBox(c_pMatrix, rcurBoundBox, &u, &v, &t))
; 100  : 			continue;
; 101  : 
; 102  : 		granny_matrix_4x4* pgrnMatCompositeBuffer = GrannyGetWorldPoseComposite4x4Array(m_pgrnWorldPose);
; 103  : 		const CGrannyMesh* c_pMesh = m_pModel->GetMeshPointer(rcurBoundBox.meshIndex);
; 104  : 		const granny_mesh* c_pgrnMesh = c_pMesh->GetGrannyMeshPointer();
; 105  : 
; 106  : 		if (!GrannyMeshIsRigid(c_pgrnMesh))
; 107  : 		{
; 108  : 			//continue;
; 109  : 			ret = true;
; 110  : 		}
; 111  : 		else
; 112  : 		{
; 113  : 			D3DXMATRIX matMesh;
; 114  : 			int* toBoneIndices = c_pMesh->GetBoneIndices();
; 115  : 			D3DXMatrixMultiply(&matMesh, (D3DXMATRIX*) pgrnMatCompositeBuffer[toBoneIndices[0]], c_pMatrix);
; 116  : 
; 117  : 			granny_tri_material_group* pgrnTriGroups = GrannyGetMeshTriangleGroups(c_pgrnMesh);
; 118  : 			int mtrlCount = c_pMesh->GetGrannyMeshPointer()->MaterialBindingCount;
; 119  : 			int vtxCount = GrannyGetMeshVertexCount(c_pgrnMesh);
; 120  : 			int groupCount = GrannyGetMeshTriangleGroupCount(c_pgrnMesh);
; 121  : 
; 122  : 			TIndex*	modelIndices;
; 123  : 			TPNTVertex*	modelVertices;
; 124  : 
; 125  : 			if (m_pModel->LockVertices((void**)&modelIndices, (void**)&modelVertices))
; 126  : 			{
; 127  : 				TIndex* meshIndices = modelIndices + c_pMesh->GetIndexBasePosition();
; 128  : 				TPNTVertex* meshVertices = modelVertices + c_pMesh->GetVertexBasePosition();
; 129  : 
; 130  : 				for (int i = 0; i < groupCount; ++i)
; 131  : 				{
; 132  : 					granny_tri_material_group& rgrnTriGroup = pgrnTriGroups[i];
; 133  : 
; 134  : 					if (rgrnTriGroup.MaterialIndex < 0 || rgrnTriGroup.MaterialIndex >= mtrlCount)
; 135  : 						continue;
; 136  : 
; 137  : 					if (IntersectMesh(&matMesh,
; 138  : 									  meshVertices,
; 139  : 									  sizeof(TPNTVertex),
; 140  : 									  vtxCount,
; 141  : 									  meshIndices,
; 142  : 									  GrannyGetMeshIndexCount(c_pgrnMesh),
; 143  : 									  ms_vtPickRayOrig,
; 144  : 									  ms_vtPickRayDir,
; 145  : 									  &u, &v, &t))
; 146  : 					{
; 147  : 						ret = true;
; 148  : 						break;
; 149  : 					}
; 150  : 				}
; 151  : 
; 152  : 				m_pModel->UnlockVertices();
; 153  : 			}
; 154  : 		}
; 155  : 
; 156  : 		if (ret)
; 157  : 		{
; 158  : 			*pu = u;
; 159  : 			*pv = v;
; 160  : 			*pt = -t;
; 161  : 
; 162  : 			if (c_szModelName)
; 163  : 			{
; 164  : 				if (!strncmp(c_pgrnMesh->Name, c_szModelName, strlen(c_szModelName)))
; 165  : 					return ret;
; 166  : 
; 167  : 				ret = false;
; 168  : 				continue;
; 169  : 			}
; 170  : 
; 171  : 			return ret;
; 172  : 		}
; 173  : 	}
; 174  : 
; 175  : 	return (ret);
; 176  : */
; 177  : }

  00207	8b 4d f4	 mov	 ecx, DWORD PTR __$EHRec$[ebp]
  0020a	64 89 0d 00 00
	00 00		 mov	 DWORD PTR fs:0, ecx
  00211	59		 pop	 ecx
  00212	5f		 pop	 edi
  00213	5e		 pop	 esi
  00214	5b		 pop	 ebx
  00215	8b e5		 mov	 esp, ebp
  00217	5d		 pop	 ebp
  00218	c2 10 00	 ret	 16			; 00000010H
$LN78@Intersect:

; 50   : 	static stl_stack_pool<TBoundBox> s_boundBoxPool(1024);

  0021b	68 00 00 00 00	 push	 OFFSET ?$TSS0@?1??Intersect@CGrannyModelInstance@@QAE_NPBUD3DXMATRIX@@PAM11@Z@4HA
  00220	e8 00 00 00 00	 call	 __Init_thread_header
  00225	83 c4 04	 add	 esp, 4
  00228	83 3d 00 00 00
	00 ff		 cmp	 DWORD PTR ?$TSS0@?1??Intersect@CGrannyModelInstance@@QAE_NPBUD3DXMATRIX@@PAM11@Z@4HA, -1
  0022f	0f 85 59 fe ff
	ff		 jne	 $LN2@Intersect
; File D:\Program Files\Microsoft Visual Studio\2022\Community\VC\Tools\MSVC\14.43.34808\include\vector

; 1593 :                 _Resize_reallocate(_Newsize, _Val);

  00235	8d 45 17	 lea	 eax, DWORD PTR $T3[ebp]
; File C:\Marty 5.5\Src-Client\Client\eterBase\Stl.h

; 267  : 		{

  00238	c7 45 fc 01 00
	00 00		 mov	 DWORD PTR __$EHRec$[ebp+8], 1
; File D:\Program Files\Microsoft Visual Studio\2022\Community\VC\Tools\MSVC\14.43.34808\include\vector

; 1593 :                 _Resize_reallocate(_Newsize, _Val);

  0023f	50		 push	 eax
  00240	68 00 04 00 00	 push	 1024			; 00000400H
  00245	b9 08 00 00 00	 mov	 ecx, OFFSET ?s_boundBoxPool@?1??Intersect@CGrannyModelInstance@@QAE_NPBUD3DXMATRIX@@PAM11@Z@4V?$stl_stack_pool@USBoundBox@@@@A+8
  0024a	e8 00 00 00 00	 call	 ??$_Resize_reallocate@U_Value_init_tag@std@@@?$vector@USBoundBox@@V?$allocator@USBoundBox@@@std@@@std@@AAEXIABU_Value_init_tag@1@@Z ; std::vector<SBoundBox,std::allocator<SBoundBox> >::_Resize_reallocate<std::_Value_init_tag>
; File C:\Marty 5.5\Src-Client\Client\eterGrnLib\ModelInstanceCollisionDetection.cpp

; 50   : 	static stl_stack_pool<TBoundBox> s_boundBoxPool(1024);

  0024f	68 00 00 00 00	 push	 OFFSET ??__Fs_boundBoxPool@?1??Intersect@CGrannyModelInstance@@QAE_NPBUD3DXMATRIX@@PAM11@Z@YAXXZ ; `CGrannyModelInstance::Intersect'::`2'::`dynamic atexit destructor for 's_boundBoxPool''
  00254	e8 00 00 00 00	 call	 _atexit
  00259	68 00 00 00 00	 push	 OFFSET ?$TSS0@?1??Intersect@CGrannyModelInstance@@QAE_NPBUD3DXMATRIX@@PAM11@Z@4HA
  0025e	c7 45 fc ff ff
	ff ff		 mov	 DWORD PTR __$EHRec$[ebp+8], -1
  00265	e8 00 00 00 00	 call	 __Init_thread_footer
  0026a	83 c4 08	 add	 esp, 8
  0026d	e9 1c fe ff ff	 jmp	 $LN2@Intersect
_TEXT	ENDS
;	COMDAT text$x
text$x	SEGMENT
__unwindfunclet$?Intersect@CGrannyModelInstance@@QAE_NPBUD3DXMATRIX@@PAM11@Z$0:
  00000	68 00 00 00 00	 push	 OFFSET ?$TSS0@?1??Intersect@CGrannyModelInstance@@QAE_NPBUD3DXMATRIX@@PAM11@Z@4HA
  00005	e8 00 00 00 00	 call	 __Init_thread_abort
  0000a	59		 pop	 ecx
  0000b	c3		 ret	 0
__unwindfunclet$?Intersect@CGrannyModelInstance@@QAE_NPBUD3DXMATRIX@@PAM11@Z$1:
  0000c	b9 08 00 00 00	 mov	 ecx, OFFSET ?s_boundBoxPool@?1??Intersect@CGrannyModelInstance@@QAE_NPBUD3DXMATRIX@@PAM11@Z@4V?$stl_stack_pool@USBoundBox@@@@A+8
  00011	e9 00 00 00 00	 jmp	 ??1?$vector@USBoundBox@@V?$allocator@USBoundBox@@@std@@@std@@QAE@XZ ; std::vector<SBoundBox,std::allocator<SBoundBox> >::~vector<SBoundBox,std::allocator<SBoundBox> >
  00016	cc		 int	 3
  00017	cc		 int	 3
  00018	cc		 int	 3
  00019	cc		 int	 3
  0001a	cc		 int	 3
__ehhandler$?Intersect@CGrannyModelInstance@@QAE_NPBUD3DXMATRIX@@PAM11@Z:
  0001b	90		 npad	 1
  0001c	90		 npad	 1
  0001d	8b 54 24 08	 mov	 edx, DWORD PTR [esp+8]
  00021	8d 42 0c	 lea	 eax, DWORD PTR [edx+12]
  00024	8b 4a bc	 mov	 ecx, DWORD PTR [edx-68]
  00027	33 c8		 xor	 ecx, eax
  00029	e8 00 00 00 00	 call	 @__security_check_cookie@4
  0002e	b8 00 00 00 00	 mov	 eax, OFFSET __ehfuncinfo$?Intersect@CGrannyModelInstance@@QAE_NPBUD3DXMATRIX@@PAM11@Z
  00033	e9 00 00 00 00	 jmp	 ___CxxFrameHandler3
text$x	ENDS
?Intersect@CGrannyModelInstance@@QAE_NPBUD3DXMATRIX@@PAM11@Z ENDP ; CGrannyModelInstance::Intersect
; Function compile flags: /Ogtp
; File C:\Marty 5.5\Src-Client\Client\eterGrnLib\ModelInstanceCollisionDetection.cpp
;	COMDAT ?GetMeshMatrixPointer@CGrannyModelInstance@@QBE_NHPAPBUD3DXMATRIX@@@Z
_TEXT	SEGMENT
_iMesh$ = 8						; size = 4
_c_ppMatrix$ = 12					; size = 4
?GetMeshMatrixPointer@CGrannyModelInstance@@QBE_NHPAPBUD3DXMATRIX@@@Z PROC ; CGrannyModelInstance::GetMeshMatrixPointer, COMDAT
; _this$ = ecx

; 212  : {

  00000	55		 push	 ebp
  00001	8b ec		 mov	 ebp, esp
  00003	56		 push	 esi
  00004	8b f1		 mov	 esi, ecx

; 213  : 	if (!m_pgrnModelInstance)

  00006	83 7e 08 00	 cmp	 DWORD PTR [esi+8], 0
  0000a	74 32		 je	 SHORT $LN5@GetMeshMat

; 214  : 		return false;
; 215  : 
; 216  : 	int meshCount = m_pModel->GetMeshCount();

  0000c	8b 4e 04	 mov	 ecx, DWORD PTR [esi+4]
  0000f	e8 00 00 00 00	 call	 ?GetMeshCount@CGrannyModel@@QBEHXZ ; CGrannyModel::GetMeshCount

; 217  : 
; 218  : 	if (meshCount <= 0)

  00014	85 c0		 test	 eax, eax
  00016	7e 26		 jle	 SHORT $LN5@GetMeshMat

; 220  : 
; 221  : 	// WORK
; 222  : 	//const CGrannyMesh * pMesh = m_pModel->GetMeshPointer(iMesh);
; 223  : 	*c_ppMatrix = (D3DXMATRIX *)GrannyGetWorldPose4x4(__GetWorldPosePtr(), __GetMeshBoneIndices(iMesh)[0]);

  00018	ff 75 08	 push	 DWORD PTR _iMesh$[ebp]
  0001b	8b ce		 mov	 ecx, esi
  0001d	e8 00 00 00 00	 call	 ?__GetMeshBoneIndices@CGrannyModelInstance@@IBEPBHI@Z ; CGrannyModelInstance::__GetMeshBoneIndices
  00022	8b ce		 mov	 ecx, esi
  00024	ff 30		 push	 DWORD PTR [eax]
  00026	e8 00 00 00 00	 call	 ?__GetWorldPosePtr@CGrannyModelInstance@@IBEPAUworld_pose@granny@@XZ ; CGrannyModelInstance::__GetWorldPosePtr
  0002b	50		 push	 eax
  0002c	ff 15 00 00 00
	00		 call	 DWORD PTR __imp__GrannyGetWorldPose4x4@8
  00032	8b 4d 0c	 mov	 ecx, DWORD PTR _c_ppMatrix$[ebp]
  00035	5e		 pop	 esi
  00036	89 01		 mov	 DWORD PTR [ecx], eax

; 224  : 	// END_OF_WORK
; 225  : 
; 226  : 	return true;

  00038	b0 01		 mov	 al, 1

; 227  : }

  0003a	5d		 pop	 ebp
  0003b	c2 08 00	 ret	 8
$LN5@GetMeshMat:

; 219  : 		return false;

  0003e	32 c0		 xor	 al, al
  00040	5e		 pop	 esi

; 227  : }

  00041	5d		 pop	 ebp
  00042	c2 08 00	 ret	 8
?GetMeshMatrixPointer@CGrannyModelInstance@@QBE_NHPAPBUD3DXMATRIX@@@Z ENDP ; CGrannyModelInstance::GetMeshMatrixPointer
_TEXT	ENDS
; Function compile flags: /Ogtp
; File D:\Program Files\Microsoft Visual Studio\2022\Community\VC\Tools\MSVC\14.43.34808\include\xmemory
;	COMDAT ??$_Allocate_manually_vector_aligned@U_Default_allocate_traits@std@@@std@@YAPAXI@Z
_TEXT	SEGMENT
__Bytes$ = 8						; size = 4
??$_Allocate_manually_vector_aligned@U_Default_allocate_traits@std@@@std@@YAPAXI@Z PROC ; std::_Allocate_manually_vector_aligned<std::_Default_allocate_traits>, COMDAT

; 182  : __declspec(allocator) void* _Allocate_manually_vector_aligned(const size_t _Bytes) {

  00000	55		 push	 ebp
  00001	8b ec		 mov	 ebp, esp

; 183  :     // allocate _Bytes manually aligned to at least _Big_allocation_alignment
; 184  :     const size_t _Block_size = _Non_user_size + _Bytes;

  00003	8b 45 08	 mov	 eax, DWORD PTR __Bytes$[ebp]
  00006	8d 48 23	 lea	 ecx, DWORD PTR [eax+35]

; 185  :     if (_Block_size <= _Bytes) {

  00009	3b c8		 cmp	 ecx, eax
  0000b	0f 86 00 00 00
	00		 jbe	 ?_Throw_bad_array_new_length@std@@YAXXZ ; std::_Throw_bad_array_new_length

; 136  :         return ::operator new(_Bytes);

  00011	51		 push	 ecx
  00012	e8 00 00 00 00	 call	 ??2@YAPAXI@Z		; operator new

; 186  :         _Throw_bad_array_new_length(); // add overflow
; 187  :     }
; 188  : 
; 189  :     const uintptr_t _Ptr_container = reinterpret_cast<uintptr_t>(_Traits::_Allocate(_Block_size));

  00017	8b c8		 mov	 ecx, eax

; 136  :         return ::operator new(_Bytes);

  00019	83 c4 04	 add	 esp, 4

; 190  :     _STL_VERIFY(_Ptr_container != 0, "invalid argument"); // validate even in release since we're doing p[-1]

  0001c	85 c9		 test	 ecx, ecx
  0001e	74 0b		 je	 SHORT $LN7@Allocate_m

; 191  :     void* const _Ptr = reinterpret_cast<void*>((_Ptr_container + _Non_user_size) & ~(_Big_allocation_alignment - 1));

  00020	8d 41 23	 lea	 eax, DWORD PTR [ecx+35]
  00023	83 e0 e0	 and	 eax, -32		; ffffffe0H

; 192  :     static_cast<uintptr_t*>(_Ptr)[-1] = _Ptr_container;

  00026	89 48 fc	 mov	 DWORD PTR [eax-4], ecx

; 193  : 
; 194  : #ifdef _DEBUG
; 195  :     static_cast<uintptr_t*>(_Ptr)[-2] = _Big_allocation_sentinel;
; 196  : #endif // defined(_DEBUG)
; 197  :     return _Ptr;
; 198  : }

  00029	5d		 pop	 ebp
  0002a	c3		 ret	 0
$LN7@Allocate_m:

; 190  :     _STL_VERIFY(_Ptr_container != 0, "invalid argument"); // validate even in release since we're doing p[-1]

  0002b	e9 00 00 00 00	 jmp	 __invalid_parameter_noinfo_noreturn
??$_Allocate_manually_vector_aligned@U_Default_allocate_traits@std@@@std@@YAPAXI@Z ENDP ; std::_Allocate_manually_vector_aligned<std::_Default_allocate_traits>
_TEXT	ENDS
; Function compile flags: /Ogtp
; File D:\Program Files\Microsoft Visual Studio\2022\Community\VC\Tools\MSVC\14.43.34808\include\xmemory
;	COMDAT ?_Throw_bad_array_new_length@std@@YAXXZ
_TEXT	SEGMENT
$T1 = -12						; size = 12
?_Throw_bad_array_new_length@std@@YAXXZ PROC		; std::_Throw_bad_array_new_length, COMDAT

; 107  : [[noreturn]] inline void _Throw_bad_array_new_length() {

  00000	55		 push	 ebp
  00001	8b ec		 mov	 ebp, esp
  00003	83 ec 0c	 sub	 esp, 12			; 0000000cH

; 108  :     _THROW(bad_array_new_length{});

  00006	8d 4d f4	 lea	 ecx, DWORD PTR $T1[ebp]
  00009	e8 00 00 00 00	 call	 ??0bad_array_new_length@std@@QAE@XZ ; std::bad_array_new_length::bad_array_new_length
  0000e	68 00 00 00 00	 push	 OFFSET __TI3?AVbad_array_new_length@std@@
  00013	8d 45 f4	 lea	 eax, DWORD PTR $T1[ebp]
  00016	50		 push	 eax
  00017	e8 00 00 00 00	 call	 __CxxThrowException@8
$LN3@Throw_bad_:
  0001c	cc		 int	 3
?_Throw_bad_array_new_length@std@@YAXXZ ENDP		; std::_Throw_bad_array_new_length
_TEXT	ENDS
; Function compile flags: /Ogtp
; File D:\Program Files\Microsoft Visual Studio\2022\Community\VC\Tools\MSVC\14.43.34808\include\vcruntime_exception.h
;	COMDAT ??_Gbad_array_new_length@std@@UAEPAXI@Z
_TEXT	SEGMENT
___flags$ = 8						; size = 4
??_Gbad_array_new_length@std@@UAEPAXI@Z PROC		; std::bad_array_new_length::`scalar deleting destructor', COMDAT
; _this$ = ecx
  00000	55		 push	 ebp
  00001	8b ec		 mov	 ebp, esp

; 90   :     {

  00003	56		 push	 esi
  00004	8b f1		 mov	 esi, ecx

; 91   :         __std_exception_destroy(&_Data);

  00006	8d 46 04	 lea	 eax, DWORD PTR [esi+4]
  00009	c7 06 00 00 00
	00		 mov	 DWORD PTR [esi], OFFSET ??_7exception@std@@6B@
  0000f	50		 push	 eax
  00010	e8 00 00 00 00	 call	 ___std_exception_destroy
  00015	83 c4 04	 add	 esp, 4
  00018	f6 45 08 01	 test	 BYTE PTR ___flags$[ebp], 1
  0001c	74 0b		 je	 SHORT $LN18@scalar
  0001e	6a 0c		 push	 12			; 0000000cH
  00020	56		 push	 esi
  00021	e8 00 00 00 00	 call	 ??3@YAXPAXI@Z		; operator delete
  00026	83 c4 08	 add	 esp, 8
$LN18@scalar:
  00029	8b c6		 mov	 eax, esi
  0002b	5e		 pop	 esi
  0002c	5d		 pop	 ebp
  0002d	c2 04 00	 ret	 4
??_Gbad_array_new_length@std@@UAEPAXI@Z ENDP		; std::bad_array_new_length::`scalar deleting destructor'
_TEXT	ENDS
; Function compile flags: /Ogtp
; File D:\Program Files\Microsoft Visual Studio\2022\Community\VC\Tools\MSVC\14.43.34808\include\vcruntime_exception.h
;	COMDAT ??0bad_array_new_length@std@@QAE@ABV01@@Z
_TEXT	SEGMENT
___that$ = 8						; size = 4
??0bad_array_new_length@std@@QAE@ABV01@@Z PROC		; std::bad_array_new_length::bad_array_new_length, COMDAT
; _this$ = ecx
  00000	55		 push	 ebp
  00001	8b ec		 mov	 ebp, esp

; 73   :     {

  00003	56		 push	 esi
  00004	8b f1		 mov	 esi, ecx
  00006	0f 57 c0	 xorps	 xmm0, xmm0

; 72   :         : _Data()

  00009	8d 46 04	 lea	 eax, DWORD PTR [esi+4]

; 74   :         __std_exception_copy(&_Other._Data, &_Data);

  0000c	50		 push	 eax
  0000d	c7 06 00 00 00
	00		 mov	 DWORD PTR [esi], OFFSET ??_7exception@std@@6B@
  00013	66 0f d6 00	 movq	 QWORD PTR [eax], xmm0
  00017	8b 45 08	 mov	 eax, DWORD PTR ___that$[ebp]
  0001a	83 c0 04	 add	 eax, 4
  0001d	50		 push	 eax
  0001e	e8 00 00 00 00	 call	 ___std_exception_copy
  00023	83 c4 08	 add	 esp, 8
  00026	c7 06 00 00 00
	00		 mov	 DWORD PTR [esi], OFFSET ??_7bad_array_new_length@std@@6B@
  0002c	8b c6		 mov	 eax, esi
  0002e	5e		 pop	 esi
  0002f	5d		 pop	 ebp
  00030	c2 04 00	 ret	 4
??0bad_array_new_length@std@@QAE@ABV01@@Z ENDP		; std::bad_array_new_length::bad_array_new_length
_TEXT	ENDS
; Function compile flags: /Ogtp
; File D:\Program Files\Microsoft Visual Studio\2022\Community\VC\Tools\MSVC\14.43.34808\include\vcruntime_exception.h
;	COMDAT ??1bad_array_new_length@std@@UAE@XZ
_TEXT	SEGMENT
??1bad_array_new_length@std@@UAE@XZ PROC		; std::bad_array_new_length::~bad_array_new_length, COMDAT
; _this$ = ecx

; 91   :         __std_exception_destroy(&_Data);

  00000	8d 41 04	 lea	 eax, DWORD PTR [ecx+4]
  00003	c7 01 00 00 00
	00		 mov	 DWORD PTR [ecx], OFFSET ??_7exception@std@@6B@
  00009	50		 push	 eax
  0000a	e8 00 00 00 00	 call	 ___std_exception_destroy
  0000f	59		 pop	 ecx
  00010	c3		 ret	 0
??1bad_array_new_length@std@@UAE@XZ ENDP		; std::bad_array_new_length::~bad_array_new_length
_TEXT	ENDS
; Function compile flags: /Ogtp
; File D:\Program Files\Microsoft Visual Studio\2022\Community\VC\Tools\MSVC\14.43.34808\include\vcruntime_exception.h
;	COMDAT ??0bad_array_new_length@std@@QAE@XZ
_TEXT	SEGMENT
??0bad_array_new_length@std@@QAE@XZ PROC		; std::bad_array_new_length::bad_array_new_length, COMDAT
; _this$ = ecx

; 144  :     {

  00000	0f 57 c0	 xorps	 xmm0, xmm0

; 145  :     }

  00003	8b c1		 mov	 eax, ecx

; 66   :         : _Data()

  00005	66 0f d6 41 04	 movq	 QWORD PTR [ecx+4], xmm0

; 67   :     {
; 68   :         _Data._What = _Message;

  0000a	c7 41 04 00 00
	00 00		 mov	 DWORD PTR [ecx+4], OFFSET ??_C@_0BF@KINCDENJ@bad?5array?5new?5length@

; 144  :     {

  00011	c7 01 00 00 00
	00		 mov	 DWORD PTR [ecx], OFFSET ??_7bad_array_new_length@std@@6B@

; 145  :     }

  00017	c3		 ret	 0
??0bad_array_new_length@std@@QAE@XZ ENDP		; std::bad_array_new_length::bad_array_new_length
_TEXT	ENDS
; Function compile flags: /Ogtp
; File D:\Program Files\Microsoft Visual Studio\2022\Community\VC\Tools\MSVC\14.43.34808\include\vcruntime_exception.h
;	COMDAT ??_Gbad_alloc@std@@UAEPAXI@Z
_TEXT	SEGMENT
___flags$ = 8						; size = 4
??_Gbad_alloc@std@@UAEPAXI@Z PROC			; std::bad_alloc::`scalar deleting destructor', COMDAT
; _this$ = ecx
  00000	55		 push	 ebp
  00001	8b ec		 mov	 ebp, esp

; 90   :     {

  00003	56		 push	 esi
  00004	8b f1		 mov	 esi, ecx

; 91   :         __std_exception_destroy(&_Data);

  00006	8d 46 04	 lea	 eax, DWORD PTR [esi+4]
  00009	c7 06 00 00 00
	00		 mov	 DWORD PTR [esi], OFFSET ??_7exception@std@@6B@
  0000f	50		 push	 eax
  00010	e8 00 00 00 00	 call	 ___std_exception_destroy
  00015	83 c4 04	 add	 esp, 4
  00018	f6 45 08 01	 test	 BYTE PTR ___flags$[ebp], 1
  0001c	74 0b		 je	 SHORT $LN13@scalar
  0001e	6a 0c		 push	 12			; 0000000cH
  00020	56		 push	 esi
  00021	e8 00 00 00 00	 call	 ??3@YAXPAXI@Z		; operator delete
  00026	83 c4 08	 add	 esp, 8
$LN13@scalar:
  00029	8b c6		 mov	 eax, esi
  0002b	5e		 pop	 esi
  0002c	5d		 pop	 ebp
  0002d	c2 04 00	 ret	 4
??_Gbad_alloc@std@@UAEPAXI@Z ENDP			; std::bad_alloc::`scalar deleting destructor'
_TEXT	ENDS
; Function compile flags: /Ogtp
; File D:\Program Files\Microsoft Visual Studio\2022\Community\VC\Tools\MSVC\14.43.34808\include\vcruntime_exception.h
;	COMDAT ??0bad_alloc@std@@QAE@ABV01@@Z
_TEXT	SEGMENT
___that$ = 8						; size = 4
??0bad_alloc@std@@QAE@ABV01@@Z PROC			; std::bad_alloc::bad_alloc, COMDAT
; _this$ = ecx
  00000	55		 push	 ebp
  00001	8b ec		 mov	 ebp, esp

; 73   :     {

  00003	56		 push	 esi
  00004	8b f1		 mov	 esi, ecx
  00006	0f 57 c0	 xorps	 xmm0, xmm0

; 72   :         : _Data()

  00009	8d 46 04	 lea	 eax, DWORD PTR [esi+4]

; 74   :         __std_exception_copy(&_Other._Data, &_Data);

  0000c	50		 push	 eax
  0000d	c7 06 00 00 00
	00		 mov	 DWORD PTR [esi], OFFSET ??_7exception@std@@6B@
  00013	66 0f d6 00	 movq	 QWORD PTR [eax], xmm0
  00017	8b 45 08	 mov	 eax, DWORD PTR ___that$[ebp]
  0001a	83 c0 04	 add	 eax, 4
  0001d	50		 push	 eax
  0001e	e8 00 00 00 00	 call	 ___std_exception_copy
  00023	83 c4 08	 add	 esp, 8
  00026	c7 06 00 00 00
	00		 mov	 DWORD PTR [esi], OFFSET ??_7bad_alloc@std@@6B@
  0002c	8b c6		 mov	 eax, esi
  0002e	5e		 pop	 esi
  0002f	5d		 pop	 ebp
  00030	c2 04 00	 ret	 4
??0bad_alloc@std@@QAE@ABV01@@Z ENDP			; std::bad_alloc::bad_alloc
_TEXT	ENDS
; Function compile flags: /Ogtp
; File D:\Program Files\Microsoft Visual Studio\2022\Community\VC\Tools\MSVC\14.43.34808\include\vcruntime_exception.h
;	COMDAT ??_Gexception@std@@UAEPAXI@Z
_TEXT	SEGMENT
___flags$ = 8						; size = 4
??_Gexception@std@@UAEPAXI@Z PROC			; std::exception::`scalar deleting destructor', COMDAT
; _this$ = ecx
  00000	55		 push	 ebp
  00001	8b ec		 mov	 ebp, esp

; 90   :     {

  00003	56		 push	 esi
  00004	8b f1		 mov	 esi, ecx

; 91   :         __std_exception_destroy(&_Data);

  00006	8d 46 04	 lea	 eax, DWORD PTR [esi+4]
  00009	c7 06 00 00 00
	00		 mov	 DWORD PTR [esi], OFFSET ??_7exception@std@@6B@
  0000f	50		 push	 eax
  00010	e8 00 00 00 00	 call	 ___std_exception_destroy
  00015	83 c4 04	 add	 esp, 4
  00018	f6 45 08 01	 test	 BYTE PTR ___flags$[ebp], 1
  0001c	74 0b		 je	 SHORT $LN8@scalar
  0001e	6a 0c		 push	 12			; 0000000cH
  00020	56		 push	 esi
  00021	e8 00 00 00 00	 call	 ??3@YAXPAXI@Z		; operator delete
  00026	83 c4 08	 add	 esp, 8
$LN8@scalar:
  00029	8b c6		 mov	 eax, esi
  0002b	5e		 pop	 esi
  0002c	5d		 pop	 ebp
  0002d	c2 04 00	 ret	 4
??_Gexception@std@@UAEPAXI@Z ENDP			; std::exception::`scalar deleting destructor'
_TEXT	ENDS
; Function compile flags: /Ogtp
; File D:\Program Files\Microsoft Visual Studio\2022\Community\VC\Tools\MSVC\14.43.34808\include\vcruntime_exception.h
;	COMDAT ?what@exception@std@@UBEPBDXZ
_TEXT	SEGMENT
?what@exception@std@@UBEPBDXZ PROC			; std::exception::what, COMDAT
; _this$ = ecx

; 96   :         return _Data._What ? _Data._What : "Unknown exception";

  00000	8b 49 04	 mov	 ecx, DWORD PTR [ecx+4]
  00003	b8 00 00 00 00	 mov	 eax, OFFSET ??_C@_0BC@EOODALEL@Unknown?5exception@
  00008	85 c9		 test	 ecx, ecx
  0000a	0f 45 c1	 cmovne	 eax, ecx

; 97   :     }

  0000d	c3		 ret	 0
?what@exception@std@@UBEPBDXZ ENDP			; std::exception::what
_TEXT	ENDS
; Function compile flags: /Ogtp
; File D:\Program Files\Microsoft Visual Studio\2022\Community\VC\Tools\MSVC\14.43.34808\include\vcruntime_exception.h
;	COMDAT ??1exception@std@@UAE@XZ
_TEXT	SEGMENT
??1exception@std@@UAE@XZ PROC				; std::exception::~exception, COMDAT
; _this$ = ecx

; 91   :         __std_exception_destroy(&_Data);

  00000	8d 41 04	 lea	 eax, DWORD PTR [ecx+4]
  00003	c7 01 00 00 00
	00		 mov	 DWORD PTR [ecx], OFFSET ??_7exception@std@@6B@
  00009	50		 push	 eax
  0000a	e8 00 00 00 00	 call	 ___std_exception_destroy
  0000f	59		 pop	 ecx

; 92   :     }

  00010	c3		 ret	 0
??1exception@std@@UAE@XZ ENDP				; std::exception::~exception
_TEXT	ENDS
; Function compile flags: /Ogtp
; File D:\Program Files\Microsoft Visual Studio\2022\Community\VC\Tools\MSVC\14.43.34808\include\vcruntime_exception.h
;	COMDAT ??0exception@std@@QAE@ABV01@@Z
_TEXT	SEGMENT
__Other$ = 8						; size = 4
??0exception@std@@QAE@ABV01@@Z PROC			; std::exception::exception, COMDAT
; _this$ = ecx

; 73   :     {

  00000	55		 push	 ebp
  00001	8b ec		 mov	 ebp, esp
  00003	56		 push	 esi
  00004	8b f1		 mov	 esi, ecx
  00006	0f 57 c0	 xorps	 xmm0, xmm0
  00009	8d 46 04	 lea	 eax, DWORD PTR [esi+4]

; 74   :         __std_exception_copy(&_Other._Data, &_Data);

  0000c	50		 push	 eax
  0000d	c7 06 00 00 00
	00		 mov	 DWORD PTR [esi], OFFSET ??_7exception@std@@6B@
  00013	66 0f d6 00	 movq	 QWORD PTR [eax], xmm0
  00017	8b 45 08	 mov	 eax, DWORD PTR __Other$[ebp]
  0001a	83 c0 04	 add	 eax, 4
  0001d	50		 push	 eax
  0001e	e8 00 00 00 00	 call	 ___std_exception_copy
  00023	83 c4 08	 add	 esp, 8

; 75   :     }

  00026	8b c6		 mov	 eax, esi
  00028	5e		 pop	 esi
  00029	5d		 pop	 ebp
  0002a	c2 04 00	 ret	 4
??0exception@std@@QAE@ABV01@@Z ENDP			; std::exception::exception
_TEXT	ENDS
END
