; Listing generated by Microsoft (R) Optimizing Compiler Version 19.43.34808.0 

	TITLE	C:\Marty 5.5\Src-Client\Client\eterGrnLib\Distribute\ModelInstanceUpdate.obj
	.686P
	.XMM
	include listing.inc
	.model	flat

INCLUDELIB LIBCMT
INCLUDELIB OLDNAMES

PUBLIC	?Update@CGrannyModelInstance@@QAEXK@Z		; CGrannyModelInstance::Update
PUBLIC	?UpdateLocalTime@CGrannyModelInstance@@QAEXM@Z	; CGrannyModelInstance::UpdateLocalTime
PUBLIC	?UpdateTransform@CGrannyModelInstance@@QAEXPAUD3DXMATRIX@@M@Z ; CGrannyModelInstance::UpdateTransform
PUBLIC	?UpdateSkeleton@CGrannyModelInstance@@QAEXPBUD3DXMATRIX@@M@Z ; CGrannyModelInstance::UpdateSkeleton
PUBLIC	?Deform@CGrannyModelInstance@@QAEXPBUD3DXMATRIX@@@Z ; CGrannyModelInstance::Deform
PUBLIC	?UpdateWorldPose@CGrannyModelInstance@@IAEXXZ	; CGrannyModelInstance::UpdateWorldPose
PUBLIC	?UpdateWorldMatrices@CGrannyModelInstance@@IAEXPBUD3DXMATRIX@@@Z ; CGrannyModelInstance::UpdateWorldMatrices
PUBLIC	?DeformPNTVertices@CGrannyModelInstance@@IAEXPAX@Z ; CGrannyModelInstance::DeformPNTVertices
PUBLIC	??1CGrannyLocalPose@@UAE@XZ			; CGrannyLocalPose::~CGrannyLocalPose
PUBLIC	??_GCGrannyLocalPose@@UAEPAXI@Z			; CGrannyLocalPose::`scalar deleting destructor'
PUBLIC	??_C@_0EC@DKCFBIDP@CGrannyModelIstance?3?3UpdateTran@ ; `string'
PUBLIC	??_C@_0CI@PBPMOHGO@GRANNY?5DEFORM?5DYNAMIC?5BUFFER?5LO@ ; `string'
PUBLIC	??_7CGrannyLocalPose@@6B@			; CGrannyLocalPose::`vftable'
PUBLIC	??_R4CGrannyLocalPose@@6B@			; CGrannyLocalPose::`RTTI Complete Object Locator'
PUBLIC	??_R0?AVCGrannyLocalPose@@@8			; CGrannyLocalPose `RTTI Type Descriptor'
PUBLIC	??_R3CGrannyLocalPose@@8			; CGrannyLocalPose::`RTTI Class Hierarchy Descriptor'
PUBLIC	??_R2CGrannyLocalPose@@8			; CGrannyLocalPose::`RTTI Base Class Array'
PUBLIC	??_R1A@?0A@EA@CGrannyLocalPose@@8		; CGrannyLocalPose::`RTTI Base Class Descriptor at (0,-1,0,64)'
PUBLIC	__real@42f00000
EXTRN	??3@YAXPAXI@Z:PROC				; operator delete
EXTRN	_atexit:PROC
EXTRN	__Init_thread_header:PROC
EXTRN	__Init_thread_footer:PROC
EXTRN	__imp__GrannyGetSourceSkeleton@4:PROC
EXTRN	__imp__GrannySetModelClock@8:PROC
EXTRN	__imp__GrannyFreeCompletedModelControls@4:PROC
EXTRN	__imp__GrannySampleModelAnimationsAccelerated@20:PROC
EXTRN	__imp__GrannyUpdateModelMatrix@20:PROC
EXTRN	__imp__GrannyNewLocalPose@4:PROC
EXTRN	__imp__GrannyFreeLocalPose@4:PROC
EXTRN	__imp__GrannyGetWorldPoseComposite4x4Array@4:PROC
EXTRN	?TraceError@@YAXPBDZZ:PROC			; TraceError
EXTRN	_D3DXMatrixMultiply@12:PROC
EXTRN	?LockRange@CGraphicVertexBuffer@@QBE_NIPAPAX@Z:PROC ; CGraphicVertexBuffer::LockRange
EXTRN	?Unlock@CGraphicVertexBuffer@@QAE_NXZ:PROC	; CGraphicVertexBuffer::Unlock
EXTRN	?CanDeformPNTVertices@CGrannyMesh@@QBE_NXZ:PROC	; CGrannyMesh::CanDeformPNTVertices
EXTRN	?GetDeformVertexCount@CGrannyModel@@QBEHXZ:PROC	; CGrannyModel::GetDeformVertexCount
EXTRN	?CanDeformPNTVertices@CGrannyModel@@QBE_NXZ:PROC ; CGrannyModel::CanDeformPNTVertices
EXTRN	?DeformPNTVertices@CGrannyModel@@QBEXPAXPAUD3DXMATRIX@@ABV?$vector@PAUmesh_binding@granny@@V?$allocator@PAUmesh_binding@granny@@@std@@@std@@@Z:PROC ; CGrannyModel::DeformPNTVertices
EXTRN	?GetMeshCount@CGrannyModel@@QBEHXZ:PROC		; CGrannyModel::GetMeshCount
EXTRN	?GetMeshPointer@CGrannyModel@@QAEPAVCGrannyMesh@@H@Z:PROC ; CGrannyModel::GetMeshPointer
EXTRN	?IsEmpty@CGrannyModelInstance@@QAE_NXZ:PROC	; CGrannyModelInstance::IsEmpty
EXTRN	?GetLocalTime@CGrannyModelInstance@@QAEMXZ:PROC	; CGrannyModelInstance::GetLocalTime
EXTRN	?GetBoneMatrixPointer@CGrannyModelInstance@@QBEPBMH@Z:PROC ; CGrannyModelInstance::GetBoneMatrixPointer
EXTRN	?__GetMeshBoneIndices@CGrannyModelInstance@@IBEPBHI@Z:PROC ; CGrannyModelInstance::__GetMeshBoneIndices
EXTRN	?__GetDeformableVertexBufferRef@CGrannyModelInstance@@IAEAAVCGraphicVertexBuffer@@XZ:PROC ; CGrannyModelInstance::__GetDeformableVertexBufferRef
EXTRN	?__GetWorldPosePtr@CGrannyModelInstance@@IBEPAUworld_pose@granny@@XZ:PROC ; CGrannyModelInstance::__GetWorldPosePtr
EXTRN	??_ECGrannyLocalPose@@UAEPAXI@Z:PROC		; CGrannyLocalPose::`vector deleting destructor'
EXTRN	__ftol3:PROC
EXTRN	__Init_thread_epoch:DWORD
EXTRN	??_7type_info@@6B@:QWORD			; type_info::`vftable'
EXTRN	__fltused:DWORD
EXTRN	__tls_array:DWORD
EXTRN	__tls_index:DWORD
;	COMDAT ?$TSS0@?1??UpdateWorldPose@CGrannyModelInstance@@IAEXXZ@4HA
_BSS	SEGMENT
?$TSS0@?1??UpdateWorldPose@CGrannyModelInstance@@IAEXXZ@4HA DD 01H DUP (?) ; `CGrannyModelInstance::UpdateWorldPose'::`2'::$TSS0
_BSS	ENDS
;	COMDAT __real@42f00000
CONST	SEGMENT
__real@42f00000 DD 042f00000r			; 120
CONST	ENDS
;	COMDAT ??_R1A@?0A@EA@CGrannyLocalPose@@8
rdata$r	SEGMENT
??_R1A@?0A@EA@CGrannyLocalPose@@8 DD FLAT:??_R0?AVCGrannyLocalPose@@@8 ; CGrannyLocalPose::`RTTI Base Class Descriptor at (0,-1,0,64)'
	DD	00H
	DD	00H
	DD	0ffffffffH
	DD	00H
	DD	040H
	DD	FLAT:??_R3CGrannyLocalPose@@8
rdata$r	ENDS
;	COMDAT ??_R2CGrannyLocalPose@@8
rdata$r	SEGMENT
??_R2CGrannyLocalPose@@8 DD FLAT:??_R1A@?0A@EA@CGrannyLocalPose@@8 ; CGrannyLocalPose::`RTTI Base Class Array'
rdata$r	ENDS
;	COMDAT ??_R3CGrannyLocalPose@@8
rdata$r	SEGMENT
??_R3CGrannyLocalPose@@8 DD 00H				; CGrannyLocalPose::`RTTI Class Hierarchy Descriptor'
	DD	00H
	DD	01H
	DD	FLAT:??_R2CGrannyLocalPose@@8
rdata$r	ENDS
;	COMDAT ??_R0?AVCGrannyLocalPose@@@8
data$rs	SEGMENT
??_R0?AVCGrannyLocalPose@@@8 DD FLAT:??_7type_info@@6B@	; CGrannyLocalPose `RTTI Type Descriptor'
	DD	00H
	DB	'.?AVCGrannyLocalPose@@', 00H
data$rs	ENDS
;	COMDAT ??_R4CGrannyLocalPose@@6B@
rdata$r	SEGMENT
??_R4CGrannyLocalPose@@6B@ DD 00H			; CGrannyLocalPose::`RTTI Complete Object Locator'
	DD	00H
	DD	00H
	DD	FLAT:??_R0?AVCGrannyLocalPose@@@8
	DD	FLAT:??_R3CGrannyLocalPose@@8
rdata$r	ENDS
;	COMDAT ?s_SharedLocalPose@?1??UpdateWorldPose@CGrannyModelInstance@@IAEXXZ@4VCGrannyLocalPose@@A
_DATA	SEGMENT
?s_SharedLocalPose@?1??UpdateWorldPose@CGrannyModelInstance@@IAEXXZ@4VCGrannyLocalPose@@A DD FLAT:??_7CGrannyLocalPose@@6B@ ; `CGrannyModelInstance::UpdateWorldPose'::`2'::s_SharedLocalPose
	DD	00H
	DD	00H
_DATA	ENDS
;	COMDAT ??_7CGrannyLocalPose@@6B@
CONST	SEGMENT
??_7CGrannyLocalPose@@6B@ DD FLAT:??_R4CGrannyLocalPose@@6B@ ; CGrannyLocalPose::`vftable'
	DD	FLAT:??_ECGrannyLocalPose@@UAEPAXI@Z
CONST	ENDS
;	COMDAT ??_C@_0CI@PBPMOHGO@GRANNY?5DEFORM?5DYNAMIC?5BUFFER?5LO@
CONST	SEGMENT
??_C@_0CI@PBPMOHGO@GRANNY?5DEFORM?5DYNAMIC?5BUFFER?5LO@ DB 'GRANNY DEFORM'
	DB	' DYNAMIC BUFFER LOCK ERROR', 00H		; `string'
CONST	ENDS
;	COMDAT ??_C@_0EC@DKCFBIDP@CGrannyModelIstance?3?3UpdateTran@
CONST	SEGMENT
??_C@_0EC@DKCFBIDP@CGrannyModelIstance?3?3UpdateTran@ DB 'CGrannyModelIst'
	DB	'ance::UpdateTransform - m_pgrnModelInstance = NULL', 00H ; `string'
CONST	ENDS
; Function compile flags: /Ogtp
; File C:\Marty 5.5\Src-Client\Client\eterGrnLib\ModelInstanceUpdate.cpp
;	COMDAT ??__Fs_SharedLocalPose@?1??UpdateWorldPose@CGrannyModelInstance@@IAEXXZ@YAXXZ
text$yd	SEGMENT
??__Fs_SharedLocalPose@?1??UpdateWorldPose@CGrannyModelInstance@@IAEXXZ@YAXXZ PROC ; `CGrannyModelInstance::UpdateWorldPose'::`2'::`dynamic atexit destructor for 's_SharedLocalPose'', COMDAT

; 106  : 			if (m_pgrnLocalPose)

  00000	a1 04 00 00 00	 mov	 eax, DWORD PTR ?s_SharedLocalPose@?1??UpdateWorldPose@CGrannyModelInstance@@IAEXXZ@4VCGrannyLocalPose@@A+4
  00005	c7 05 00 00 00
	00 00 00 00 00	 mov	 DWORD PTR ?s_SharedLocalPose@?1??UpdateWorldPose@CGrannyModelInstance@@IAEXXZ@4VCGrannyLocalPose@@A, OFFSET ??_7CGrannyLocalPose@@6B@
  0000f	85 c0		 test	 eax, eax
  00011	74 07		 je	 SHORT $LN4@dynamic

; 107  : 				GrannyFreeLocalPose(m_pgrnLocalPose);

  00013	50		 push	 eax
  00014	ff 15 00 00 00
	00		 call	 DWORD PTR __imp__GrannyFreeLocalPose@4
$LN4@dynamic:
  0001a	c3		 ret	 0
??__Fs_SharedLocalPose@?1??UpdateWorldPose@CGrannyModelInstance@@IAEXXZ@YAXXZ ENDP ; `CGrannyModelInstance::UpdateWorldPose'::`2'::`dynamic atexit destructor for 's_SharedLocalPose''
text$yd	ENDS
; Function compile flags: /Ogtp
; File C:\Marty 5.5\Src-Client\Client\eterGrnLib\ModelInstanceUpdate.cpp
;	COMDAT ??_GCGrannyLocalPose@@UAEPAXI@Z
_TEXT	SEGMENT
___flags$ = 8						; size = 4
??_GCGrannyLocalPose@@UAEPAXI@Z PROC			; CGrannyLocalPose::`scalar deleting destructor', COMDAT
; _this$ = ecx
  00000	55		 push	 ebp
  00001	8b ec		 mov	 ebp, esp

; 105  : 		{

  00003	56		 push	 esi
  00004	8b f1		 mov	 esi, ecx

; 106  : 			if (m_pgrnLocalPose)

  00006	8b 46 04	 mov	 eax, DWORD PTR [esi+4]
  00009	c7 06 00 00 00
	00		 mov	 DWORD PTR [esi], OFFSET ??_7CGrannyLocalPose@@6B@
  0000f	85 c0		 test	 eax, eax
  00011	74 07		 je	 SHORT $LN6@scalar

; 107  : 				GrannyFreeLocalPose(m_pgrnLocalPose);

  00013	50		 push	 eax
  00014	ff 15 00 00 00
	00		 call	 DWORD PTR __imp__GrannyFreeLocalPose@4
$LN6@scalar:
  0001a	f6 45 08 01	 test	 BYTE PTR ___flags$[ebp], 1
  0001e	74 0b		 je	 SHORT $LN9@scalar
  00020	6a 0c		 push	 12			; 0000000cH
  00022	56		 push	 esi
  00023	e8 00 00 00 00	 call	 ??3@YAXPAXI@Z		; operator delete
  00028	83 c4 08	 add	 esp, 8
$LN9@scalar:
  0002b	8b c6		 mov	 eax, esi
  0002d	5e		 pop	 esi
  0002e	5d		 pop	 ebp
  0002f	c2 04 00	 ret	 4
??_GCGrannyLocalPose@@UAEPAXI@Z ENDP			; CGrannyLocalPose::`scalar deleting destructor'
_TEXT	ENDS
; Function compile flags: /Ogtp
; File C:\Marty 5.5\Src-Client\Client\eterGrnLib\ModelInstanceUpdate.cpp
;	COMDAT ??1CGrannyLocalPose@@UAE@XZ
_TEXT	SEGMENT
??1CGrannyLocalPose@@UAE@XZ PROC			; CGrannyLocalPose::~CGrannyLocalPose, COMDAT
; _this$ = ecx

; 106  : 			if (m_pgrnLocalPose)

  00000	8b 41 04	 mov	 eax, DWORD PTR [ecx+4]
  00003	c7 01 00 00 00
	00		 mov	 DWORD PTR [ecx], OFFSET ??_7CGrannyLocalPose@@6B@
  00009	85 c0		 test	 eax, eax
  0000b	74 07		 je	 SHORT $LN2@CGrannyLoc

; 107  : 				GrannyFreeLocalPose(m_pgrnLocalPose);

  0000d	50		 push	 eax
  0000e	ff 15 00 00 00
	00		 call	 DWORD PTR __imp__GrannyFreeLocalPose@4
$LN2@CGrannyLoc:

; 108  : 		}

  00014	c3		 ret	 0
??1CGrannyLocalPose@@UAE@XZ ENDP			; CGrannyLocalPose::~CGrannyLocalPose
_TEXT	ENDS
; Function compile flags: /Ogtp
; File C:\Marty 5.5\Src-Client\Client\eterGrnLib\ModelInstanceUpdate.cpp
;	COMDAT ?DeformPNTVertices@CGrannyModelInstance@@IAEXPAX@Z
_TEXT	SEGMENT
_pvDest$ = 8						; size = 4
?DeformPNTVertices@CGrannyModelInstance@@IAEXPAX@Z PROC	; CGrannyModelInstance::DeformPNTVertices, COMDAT
; _this$ = ecx

; 221  : {

  00000	55		 push	 ebp
  00001	8b ec		 mov	 ebp, esp
  00003	56		 push	 esi

; 222  : 	assert(m_pModel != NULL);
; 223  : 	assert(m_pModel->CanDeformPNTVertices());
; 224  : 
; 225  : 	// WORK
; 226  : 	m_pModel->DeformPNTVertices(pvDest, (D3DXMATRIX *) GrannyGetWorldPoseComposite4x4Array(__GetWorldPosePtr()), m_vct_pgrnMeshBinding);

  00004	8b 71 04	 mov	 esi, DWORD PTR [ecx+4]
  00007	8d 41 40	 lea	 eax, DWORD PTR [ecx+64]
  0000a	50		 push	 eax
  0000b	e8 00 00 00 00	 call	 ?__GetWorldPosePtr@CGrannyModelInstance@@IBEPAUworld_pose@granny@@XZ ; CGrannyModelInstance::__GetWorldPosePtr
  00010	50		 push	 eax
  00011	ff 15 00 00 00
	00		 call	 DWORD PTR __imp__GrannyGetWorldPoseComposite4x4Array@4
  00017	50		 push	 eax
  00018	ff 75 08	 push	 DWORD PTR _pvDest$[ebp]
  0001b	8b ce		 mov	 ecx, esi
  0001d	e8 00 00 00 00	 call	 ?DeformPNTVertices@CGrannyModel@@QBEXPAXPAUD3DXMATRIX@@ABV?$vector@PAUmesh_binding@granny@@V?$allocator@PAUmesh_binding@granny@@@std@@@std@@@Z ; CGrannyModel::DeformPNTVertices
  00022	5e		 pop	 esi

; 227  : 	// END_OF_WORK
; 228  : }

  00023	5d		 pop	 ebp
  00024	c2 04 00	 ret	 4
?DeformPNTVertices@CGrannyModelInstance@@IAEXPAX@Z ENDP	; CGrannyModelInstance::DeformPNTVertices
_TEXT	ENDS
; Function compile flags: /Ogtp
; File C:\Marty 5.5\Src-Client\Client\eterGrnLib\ModelInstanceUpdate.cpp
;	COMDAT ?UpdateWorldMatrices@CGrannyModelInstance@@IAEXPBUD3DXMATRIX@@@Z
_TEXT	SEGMENT
_meshCount$1$ = -20					; size = 4
_boneMatrices$1$ = -16					; size = 4
_boneIndices$1$ = -12					; size = 4
_this$1$ = -8						; size = 4
tv181 = -4						; size = 4
_c_pWorldMatrix$ = 8					; size = 4
?UpdateWorldMatrices@CGrannyModelInstance@@IAEXPBUD3DXMATRIX@@@Z PROC ; CGrannyModelInstance::UpdateWorldMatrices, COMDAT
; _this$ = ecx

; 167  : {

  00000	55		 push	 ebp
  00001	8b ec		 mov	 ebp, esp
  00003	83 ec 14	 sub	 esp, 20			; 00000014H
  00006	57		 push	 edi
  00007	8b f9		 mov	 edi, ecx
  00009	89 7d f8	 mov	 DWORD PTR _this$1$[ebp], edi

; 168  : 	// NO_MESH_BUG_FIX
; 169  : 	if (!m_meshMatrices)

  0000c	83 7f 14 00	 cmp	 DWORD PTR [edi+20], 0
  00010	0f 84 9e 00 00
	00		 je	 $LN3@UpdateWorl

; 170  : 		return;
; 171  : 	// END_OF_NO_MESH_BUG_FIX
; 172  : 
; 173  : 	assert(m_pModel != NULL);
; 174  : 	assert(ms_lpd3dMatStack != NULL);
; 175  : 
; 176  : 	int meshCount = m_pModel->GetMeshCount();

  00016	8b 4f 04	 mov	 ecx, DWORD PTR [edi+4]
  00019	53		 push	 ebx
  0001a	56		 push	 esi
  0001b	e8 00 00 00 00	 call	 ?GetMeshCount@CGrannyModel@@QBEHXZ ; CGrannyModel::GetMeshCount
  00020	8b f0		 mov	 esi, eax

; 177  : 
; 178  : 	granny_matrix_4x4 * pgrnMatCompositeBuffer = GrannyGetWorldPoseComposite4x4Array(__GetWorldPosePtr());

  00022	8b cf		 mov	 ecx, edi
  00024	89 75 ec	 mov	 DWORD PTR _meshCount$1$[ebp], esi
  00027	e8 00 00 00 00	 call	 ?__GetWorldPosePtr@CGrannyModelInstance@@IBEPAUworld_pose@granny@@XZ ; CGrannyModelInstance::__GetWorldPosePtr
  0002c	50		 push	 eax
  0002d	ff 15 00 00 00
	00		 call	 DWORD PTR __imp__GrannyGetWorldPoseComposite4x4Array@4
  00033	33 db		 xor	 ebx, ebx

; 179  : 	D3DXMATRIX * boneMatrices = (D3DXMATRIX *) pgrnMatCompositeBuffer;

  00035	89 45 f0	 mov	 DWORD PTR _boneMatrices$1$[ebp], eax

; 180  : 
; 181  : 	for (int i = 0; i < meshCount; ++i)

  00038	85 f6		 test	 esi, esi
  0003a	7e 76		 jle	 SHORT $LN16@UpdateWorl

; 170  : 		return;
; 171  : 	// END_OF_NO_MESH_BUG_FIX
; 172  : 
; 173  : 	assert(m_pModel != NULL);
; 174  : 	assert(ms_lpd3dMatStack != NULL);
; 175  : 
; 176  : 	int meshCount = m_pModel->GetMeshCount();

  0003c	33 c0		 xor	 eax, eax
  0003e	89 45 fc	 mov	 DWORD PTR tv181[ebp], eax
$LL4@UpdateWorl:

; 182  : 	{
; 183  : 		D3DXMATRIX & rWorldMatrix = m_meshMatrices[i];

  00041	8b 77 14	 mov	 esi, DWORD PTR [edi+20]

; 184  : 
; 185  : 		const CGrannyMesh * pMesh = m_pModel->GetMeshPointer(i);

  00044	8b 4f 04	 mov	 ecx, DWORD PTR [edi+4]
  00047	03 f0		 add	 esi, eax
  00049	53		 push	 ebx
  0004a	e8 00 00 00 00	 call	 ?GetMeshPointer@CGrannyModel@@QAEPAVCGrannyMesh@@H@Z ; CGrannyModel::GetMeshPointer

; 186  : 
; 187  : 		// WORK
; 188  : 
; 189  : #if GrannyProductMinorVersion==4
; 190  : 		int * boneIndices = __GetMeshBoneIndices(i);
; 191  : #elif GrannyProductMinorVersion==11 || GrannyProductMinorVersion==9 || GrannyProductMinorVersion==8 || GrannyProductMinorVersion==7
; 192  : 		const granny_int32x * boneIndices = __GetMeshBoneIndices(i);

  0004f	8b 4d f8	 mov	 ecx, DWORD PTR _this$1$[ebp]
  00052	8b f8		 mov	 edi, eax
  00054	53		 push	 ebx
  00055	e8 00 00 00 00	 call	 ?__GetMeshBoneIndices@CGrannyModelInstance@@IBEPBHI@Z ; CGrannyModelInstance::__GetMeshBoneIndices

; 193  : #else
; 194  : #error "unknown granny version"
; 195  : #endif
; 196  : 		// END_OF_WORK
; 197  : 
; 198  : 		if (pMesh->CanDeformPNTVertices())

  0005a	8b cf		 mov	 ecx, edi
  0005c	89 45 f4	 mov	 DWORD PTR _boneIndices$1$[ebp], eax
  0005f	e8 00 00 00 00	 call	 ?CanDeformPNTVertices@CGrannyMesh@@QBE_NXZ ; CGrannyMesh::CanDeformPNTVertices
  00064	84 c0		 test	 al, al
  00066	74 23		 je	 SHORT $LN6@UpdateWorl

; 199  : 		{
; 200  : 			rWorldMatrix = *c_pWorldMatrix;

  00068	8b 45 08	 mov	 eax, DWORD PTR _c_pWorldMatrix$[ebp]
  0006b	0f 10 00	 movups	 xmm0, XMMWORD PTR [eax]
  0006e	0f 11 06	 movups	 XMMWORD PTR [esi], xmm0
  00071	0f 10 40 10	 movups	 xmm0, XMMWORD PTR [eax+16]
  00075	0f 11 46 10	 movups	 XMMWORD PTR [esi+16], xmm0
  00079	0f 10 40 20	 movups	 xmm0, XMMWORD PTR [eax+32]
  0007d	0f 11 46 20	 movups	 XMMWORD PTR [esi+32], xmm0
  00081	0f 10 40 30	 movups	 xmm0, XMMWORD PTR [eax+48]
  00085	0f 11 46 30	 movups	 XMMWORD PTR [esi+48], xmm0

; 201  : 		}

  00089	eb 15		 jmp	 SHORT $LN2@UpdateWorl
$LN6@UpdateWorl:

; 202  : 		else
; 203  : 		{
; 204  : #if GrannyProductMinorVersion==4
; 205  : 			int iBone = *boneIndices;
; 206  : #elif GrannyProductMinorVersion==11 || GrannyProductMinorVersion==11 || GrannyProductMinorVersion==9 || GrannyProductMinorVersion==8 || GrannyProductMinorVersion==7
; 207  : 			const granny_int32x iBone = *boneIndices;
; 208  : #else
; 209  : #error "unknown granny version"
; 210  : #endif
; 211  : 			D3DXMatrixMultiply(&rWorldMatrix, &boneMatrices[iBone], c_pWorldMatrix);

  0008b	8b 45 f4	 mov	 eax, DWORD PTR _boneIndices$1$[ebp]
  0008e	ff 75 08	 push	 DWORD PTR _c_pWorldMatrix$[ebp]
  00091	8b 00		 mov	 eax, DWORD PTR [eax]
  00093	c1 e0 06	 shl	 eax, 6
  00096	03 45 f0	 add	 eax, DWORD PTR _boneMatrices$1$[ebp]
  00099	50		 push	 eax
  0009a	56		 push	 esi
  0009b	e8 00 00 00 00	 call	 _D3DXMatrixMultiply@12
$LN2@UpdateWorl:

; 180  : 
; 181  : 	for (int i = 0; i < meshCount; ++i)

  000a0	8b 45 fc	 mov	 eax, DWORD PTR tv181[ebp]
  000a3	43		 inc	 ebx
  000a4	8b 7d f8	 mov	 edi, DWORD PTR _this$1$[ebp]
  000a7	83 c0 40	 add	 eax, 64			; 00000040H
  000aa	89 45 fc	 mov	 DWORD PTR tv181[ebp], eax
  000ad	3b 5d ec	 cmp	 ebx, DWORD PTR _meshCount$1$[ebp]
  000b0	7c 8f		 jl	 SHORT $LL4@UpdateWorl
$LN16@UpdateWorl:
  000b2	5e		 pop	 esi
  000b3	5b		 pop	 ebx
$LN3@UpdateWorl:
  000b4	5f		 pop	 edi

; 212  : 		}
; 213  : 	}
; 214  : 
; 215  : #ifdef _TEST
; 216  : 	TEST_matWorld = *c_pWorldMatrix;
; 217  : #endif
; 218  : }

  000b5	8b e5		 mov	 esp, ebp
  000b7	5d		 pop	 ebp
  000b8	c2 04 00	 ret	 4
?UpdateWorldMatrices@CGrannyModelInstance@@IAEXPBUD3DXMATRIX@@@Z ENDP ; CGrannyModelInstance::UpdateWorldMatrices
_TEXT	ENDS
; Function compile flags: /Ogtp
; File C:\Marty 5.5\Src-Client\Client\eterGrnLib\ModelInstanceUpdate.cpp
;	COMDAT ?UpdateWorldPose@CGrannyModelInstance@@IAEXXZ
_TEXT	SEGMENT
_pAttachBoneMatrix$1$ = -8				; size = 4
$T1 = -4						; size = 4
?UpdateWorldPose@CGrannyModelInstance@@IAEXXZ PROC	; CGrannyModelInstance::UpdateWorldPose, COMDAT
; _this$ = ecx

; 141  : {

  00000	55		 push	 ebp
  00001	8b ec		 mov	 ebp, esp
  00003	83 ec 08	 sub	 esp, 8
  00006	53		 push	 ebx
  00007	8b d9		 mov	 ebx, ecx

; 142  : 	// WEP	= m_iParentBoneIndex != 0 -> UpdateWorldPose(O)
; 143  : 	// LOD	= UpdateWorldPose(O)
; 144  : 	// Hair	= UpdateWorldPose(X)
; 145  : 
; 146  : 	if (m_ppkSkeletonInst)

  00009	8b 43 74	 mov	 eax, DWORD PTR [ebx+116]
  0000c	85 c0		 test	 eax, eax
  0000e	74 08		 je	 SHORT $LN4@UpdateWorl

; 147  : 		if (*m_ppkSkeletonInst!=this)

  00010	39 18		 cmp	 DWORD PTR [eax], ebx
  00012	0f 85 a2 00 00
	00		 jne	 $LN1@UpdateWorl
$LN4@UpdateWorl:

; 148  : 			return;
; 149  : 
; 150  : 	static CGrannyLocalPose s_SharedLocalPose;

  00018	64 a1 00 00 00
	00		 mov	 eax, DWORD PTR fs:__tls_array
  0001e	8b 0d 00 00 00
	00		 mov	 ecx, DWORD PTR __tls_index
  00024	8b 0c 88	 mov	 ecx, DWORD PTR [eax+ecx*4]
  00027	a1 00 00 00 00	 mov	 eax, DWORD PTR ?$TSS0@?1??UpdateWorldPose@CGrannyModelInstance@@IAEXXZ@4HA
  0002c	3b 81 00 00 00
	00		 cmp	 eax, DWORD PTR __Init_thread_epoch[ecx]
  00032	0f 8f 87 00 00
	00		 jg	 $LN22@UpdateWorl
$LN2@UpdateWorl:
  00038	56		 push	 esi
  00039	57		 push	 edi

; 151  : 
; 152  : 	granny_skeleton * pgrnSkeleton = GrannyGetSourceSkeleton(m_pgrnModelInstance);

  0003a	ff 73 08	 push	 DWORD PTR [ebx+8]
  0003d	ff 15 00 00 00
	00		 call	 DWORD PTR __imp__GrannyGetSourceSkeleton@4
  00043	8b f8		 mov	 edi, eax

; 112  : 			if (m_pgrnLocalPose)

  00045	a1 04 00 00 00	 mov	 eax, DWORD PTR ?s_SharedLocalPose@?1??UpdateWorldPose@CGrannyModelInstance@@IAEXXZ@4VCGrannyLocalPose@@A+4
  0004a	89 45 fc	 mov	 DWORD PTR $T1[ebp], eax

; 153  : 	granny_local_pose * pgrnLocalPose = s_SharedLocalPose.Get(pgrnSkeleton->BoneCount);

  0004d	8b 77 04	 mov	 esi, DWORD PTR [edi+4]

; 112  : 			if (m_pgrnLocalPose)

  00050	85 c0		 test	 eax, eax
  00052	74 0f		 je	 SHORT $LN12@UpdateWorl

; 113  : 			{
; 114  : 				if (m_boneCount >= boneCount)

  00054	39 35 08 00 00
	00		 cmp	 DWORD PTR ?s_SharedLocalPose@?1??UpdateWorldPose@CGrannyModelInstance@@IAEXXZ@4VCGrannyLocalPose@@A+8, esi
  0005a	7d 1c		 jge	 SHORT $LN11@UpdateWorl

; 115  : 					return m_pgrnLocalPose;
; 116  : 
; 117  : 				GrannyFreeLocalPose(m_pgrnLocalPose);

  0005c	50		 push	 eax
  0005d	ff 15 00 00 00
	00		 call	 DWORD PTR __imp__GrannyFreeLocalPose@4
$LN12@UpdateWorl:

; 118  : 			}
; 119  : 
; 120  : 			m_boneCount = boneCount;
; 121  : 			m_pgrnLocalPose = GrannyNewLocalPose(m_boneCount);

  00063	56		 push	 esi
  00064	89 35 08 00 00
	00		 mov	 DWORD PTR ?s_SharedLocalPose@?1??UpdateWorldPose@CGrannyModelInstance@@IAEXXZ@4VCGrannyLocalPose@@A+8, esi
  0006a	ff 15 00 00 00
	00		 call	 DWORD PTR __imp__GrannyNewLocalPose@4
  00070	89 45 fc	 mov	 DWORD PTR $T1[ebp], eax
  00073	a3 04 00 00 00	 mov	 DWORD PTR ?s_SharedLocalPose@?1??UpdateWorldPose@CGrannyModelInstance@@IAEXXZ@4VCGrannyLocalPose@@A+4, eax
$LN11@UpdateWorl:

; 154  : 
; 155  : 	const float * pAttachBoneMatrix = (mc_pParentInstance) ? mc_pParentInstance->GetBoneMatrixPointer(m_iParentBoneIndex) : NULL;

  00078	8b 4b 18	 mov	 ecx, DWORD PTR [ebx+24]
  0007b	85 c9		 test	 ecx, ecx
  0007d	74 0d		 je	 SHORT $LN6@UpdateWorl
  0007f	ff 73 1c	 push	 DWORD PTR [ebx+28]
  00082	e8 00 00 00 00	 call	 ?GetBoneMatrixPointer@CGrannyModelInstance@@QBEPBMH@Z ; CGrannyModelInstance::GetBoneMatrixPointer
  00087	89 45 f8	 mov	 DWORD PTR _pAttachBoneMatrix$1$[ebp], eax
  0008a	eb 07		 jmp	 SHORT $LN7@UpdateWorl
$LN6@UpdateWorl:
  0008c	c7 45 f8 00 00
	00 00		 mov	 DWORD PTR _pAttachBoneMatrix$1$[ebp], 0
$LN7@UpdateWorl:

; 156  : 
; 157  : 	GrannySampleModelAnimationsAccelerated(m_pgrnModelInstance, pgrnSkeleton->BoneCount, pAttachBoneMatrix, pgrnLocalPose, __GetWorldPosePtr());

  00093	8b 77 04	 mov	 esi, DWORD PTR [edi+4]
  00096	8b cb		 mov	 ecx, ebx
  00098	8b 7b 08	 mov	 edi, DWORD PTR [ebx+8]
  0009b	e8 00 00 00 00	 call	 ?__GetWorldPosePtr@CGrannyModelInstance@@IBEPAUworld_pose@granny@@XZ ; CGrannyModelInstance::__GetWorldPosePtr
  000a0	50		 push	 eax
  000a1	ff 75 fc	 push	 DWORD PTR $T1[ebp]
  000a4	ff 75 f8	 push	 DWORD PTR _pAttachBoneMatrix$1$[ebp]
  000a7	56		 push	 esi
  000a8	57		 push	 edi
  000a9	ff 15 00 00 00
	00		 call	 DWORD PTR __imp__GrannySampleModelAnimationsAccelerated@20

; 158  : 	/*
; 159  : 	GrannySampleModelAnimations(m_pgrnModelInstance, 0, pgrnSkeleton->BoneCount, pgrnLocalPose);
; 160  : 	GrannyBuildWorldPose(pgrnSkeleton, 0, pgrnSkeleton->BoneCount, pgrnLocalPose, pAttachBoneMatrix, m_pgrnWorldPose);
; 161  : 	*/
; 162  : 	GrannyFreeCompletedModelControls(m_pgrnModelInstance);

  000af	ff 73 08	 push	 DWORD PTR [ebx+8]
  000b2	ff 15 00 00 00
	00		 call	 DWORD PTR __imp__GrannyFreeCompletedModelControls@4
  000b8	5f		 pop	 edi
  000b9	5e		 pop	 esi
$LN1@UpdateWorl:
  000ba	5b		 pop	 ebx

; 163  : 
; 164  : }

  000bb	8b e5		 mov	 esp, ebp
  000bd	5d		 pop	 ebp
  000be	c3		 ret	 0
$LN22@UpdateWorl:

; 148  : 			return;
; 149  : 
; 150  : 	static CGrannyLocalPose s_SharedLocalPose;

  000bf	68 00 00 00 00	 push	 OFFSET ?$TSS0@?1??UpdateWorldPose@CGrannyModelInstance@@IAEXXZ@4HA
  000c4	e8 00 00 00 00	 call	 __Init_thread_header
  000c9	83 c4 04	 add	 esp, 4
  000cc	83 3d 00 00 00
	00 ff		 cmp	 DWORD PTR ?$TSS0@?1??UpdateWorldPose@CGrannyModelInstance@@IAEXXZ@4HA, -1
  000d3	0f 85 5f ff ff
	ff		 jne	 $LN2@UpdateWorl
  000d9	68 00 00 00 00	 push	 OFFSET ??__Fs_SharedLocalPose@?1??UpdateWorldPose@CGrannyModelInstance@@IAEXXZ@YAXXZ ; `CGrannyModelInstance::UpdateWorldPose'::`2'::`dynamic atexit destructor for 's_SharedLocalPose''
  000de	e8 00 00 00 00	 call	 _atexit
  000e3	68 00 00 00 00	 push	 OFFSET ?$TSS0@?1??UpdateWorldPose@CGrannyModelInstance@@IAEXXZ@4HA
  000e8	e8 00 00 00 00	 call	 __Init_thread_footer
  000ed	83 c4 08	 add	 esp, 8
  000f0	e9 43 ff ff ff	 jmp	 $LN2@UpdateWorl
?UpdateWorldPose@CGrannyModelInstance@@IAEXXZ ENDP	; CGrannyModelInstance::UpdateWorldPose
_TEXT	ENDS
; Function compile flags: /Ogtp
; File C:\Marty 5.5\Src-Client\Client\eterGrnLib\ModelInstanceUpdate.cpp
;	COMDAT ?Deform@CGrannyModelInstance@@QAEXPBUD3DXMATRIX@@@Z
_TEXT	SEGMENT
_c_pWorldMatrix$ = 8					; size = 4
_pntVertices$1 = 8					; size = 4
?Deform@CGrannyModelInstance@@QAEXPBUD3DXMATRIX@@@Z PROC ; CGrannyModelInstance::Deform, COMDAT
; _this$ = ecx

; 65   : {

  00000	55		 push	 ebp
  00001	8b ec		 mov	 ebp, esp
  00003	56		 push	 esi
  00004	8b f1		 mov	 esi, ecx

; 66   : 	if (IsEmpty())

  00006	e8 00 00 00 00	 call	 ?IsEmpty@CGrannyModelInstance@@QAE_NXZ ; CGrannyModelInstance::IsEmpty
  0000b	84 c0		 test	 al, al
  0000d	75 64		 jne	 SHORT $LN5@Deform

; 67   : 		return;
; 68   : 
; 69   : 	// DELETED
; 70   : 	//m_pgrnWorldPose = m_pgrnWorldPoseReal;
; 71   : 	/////////////////////////////////////////////
; 72   : 
; 73   : 	UpdateWorldPose();

  0000f	8b ce		 mov	 ecx, esi
  00011	e8 00 00 00 00	 call	 ?UpdateWorldPose@CGrannyModelInstance@@IAEXXZ ; CGrannyModelInstance::UpdateWorldPose

; 74   : 	UpdateWorldMatrices(c_pWorldMatrix);

  00016	ff 75 08	 push	 DWORD PTR _c_pWorldMatrix$[ebp]
  00019	8b ce		 mov	 ecx, esi
  0001b	e8 00 00 00 00	 call	 ?UpdateWorldMatrices@CGrannyModelInstance@@IAEXPBUD3DXMATRIX@@@Z ; CGrannyModelInstance::UpdateWorldMatrices

; 75   : 
; 76   : 	if (m_pModel->CanDeformPNTVertices())

  00020	8b 4e 04	 mov	 ecx, DWORD PTR [esi+4]
  00023	e8 00 00 00 00	 call	 ?CanDeformPNTVertices@CGrannyModel@@QBE_NXZ ; CGrannyModel::CanDeformPNTVertices
  00028	84 c0		 test	 al, al
  0002a	74 47		 je	 SHORT $LN5@Deform

; 77   : 	{
; 78   : 		// WORK
; 79   : 		CGraphicVertexBuffer& rkDeformableVertexBuffer = __GetDeformableVertexBufferRef();

  0002c	57		 push	 edi
  0002d	8b ce		 mov	 ecx, esi
  0002f	e8 00 00 00 00	 call	 ?__GetDeformableVertexBufferRef@CGrannyModelInstance@@IAEAAVCGraphicVertexBuffer@@XZ ; CGrannyModelInstance::__GetDeformableVertexBufferRef

; 80   : 		TPNTVertex* pntVertices;
; 81   : 		if (rkDeformableVertexBuffer.LockRange(m_pModel->GetDeformVertexCount(), (void **)&pntVertices))

  00034	8b 4e 04	 mov	 ecx, DWORD PTR [esi+4]
  00037	8b f8		 mov	 edi, eax
  00039	8d 45 08	 lea	 eax, DWORD PTR _pntVertices$1[ebp]
  0003c	50		 push	 eax
  0003d	e8 00 00 00 00	 call	 ?GetDeformVertexCount@CGrannyModel@@QBEHXZ ; CGrannyModel::GetDeformVertexCount
  00042	50		 push	 eax
  00043	8b cf		 mov	 ecx, edi
  00045	e8 00 00 00 00	 call	 ?LockRange@CGraphicVertexBuffer@@QBE_NIPAPAX@Z ; CGraphicVertexBuffer::LockRange
  0004a	84 c0		 test	 al, al
  0004c	74 17		 je	 SHORT $LN4@Deform

; 82   : 		{
; 83   : 			DeformPNTVertices(pntVertices);

  0004e	ff 75 08	 push	 DWORD PTR _pntVertices$1[ebp]
  00051	8b ce		 mov	 ecx, esi
  00053	e8 00 00 00 00	 call	 ?DeformPNTVertices@CGrannyModelInstance@@IAEXPAX@Z ; CGrannyModelInstance::DeformPNTVertices

; 84   : 			rkDeformableVertexBuffer.Unlock();

  00058	8b cf		 mov	 ecx, edi
  0005a	e8 00 00 00 00	 call	 ?Unlock@CGraphicVertexBuffer@@QAE_NXZ ; CGraphicVertexBuffer::Unlock
  0005f	5f		 pop	 edi
  00060	5e		 pop	 esi

; 89   : 		}
; 90   : 		// END_OF_WORK
; 91   : 	}
; 92   : }

  00061	5d		 pop	 ebp
  00062	c2 04 00	 ret	 4
$LN4@Deform:

; 85   : 		}
; 86   : 		else
; 87   : 		{
; 88   : 			TraceError("GRANNY DEFORM DYNAMIC BUFFER LOCK ERROR");

  00065	68 00 00 00 00	 push	 OFFSET ??_C@_0CI@PBPMOHGO@GRANNY?5DEFORM?5DYNAMIC?5BUFFER?5LO@
  0006a	e8 00 00 00 00	 call	 ?TraceError@@YAXPBDZZ	; TraceError
  0006f	83 c4 04	 add	 esp, 4
  00072	5f		 pop	 edi
$LN5@Deform:
  00073	5e		 pop	 esi

; 89   : 		}
; 90   : 		// END_OF_WORK
; 91   : 	}
; 92   : }

  00074	5d		 pop	 ebp
  00075	c2 04 00	 ret	 4
?Deform@CGrannyModelInstance@@QAEXPBUD3DXMATRIX@@@Z ENDP ; CGrannyModelInstance::Deform
_TEXT	ENDS
; Function compile flags: /Ogtp
; File C:\Marty 5.5\Src-Client\Client\eterGrnLib\ModelInstanceUpdate.cpp
;	COMDAT ?UpdateSkeleton@CGrannyModelInstance@@QAEXPBUD3DXMATRIX@@M@Z
_TEXT	SEGMENT
_c_pWorldMatrix$ = 8					; size = 4
___formal$ = 12						; size = 4
?UpdateSkeleton@CGrannyModelInstance@@QAEXPBUD3DXMATRIX@@M@Z PROC ; CGrannyModelInstance::UpdateSkeleton, COMDAT
; _this$ = ecx

; 132  : {

  00000	55		 push	 ebp
  00001	8b ec		 mov	 ebp, esp
  00003	56		 push	 esi
  00004	8b f1		 mov	 esi, ecx

; 133  : 	// DELETED
; 134  : 	//m_pgrnWorldPose = m_pgrnWorldPoseReal;
; 135  : 	///////////////////////////////////////////
; 136  : 	UpdateWorldPose();

  00006	e8 00 00 00 00	 call	 ?UpdateWorldPose@CGrannyModelInstance@@IAEXXZ ; CGrannyModelInstance::UpdateWorldPose

; 137  : 	UpdateWorldMatrices(c_pWorldMatrix);

  0000b	ff 75 08	 push	 DWORD PTR _c_pWorldMatrix$[ebp]
  0000e	8b ce		 mov	 ecx, esi
  00010	e8 00 00 00 00	 call	 ?UpdateWorldMatrices@CGrannyModelInstance@@IAEXPBUD3DXMATRIX@@@Z ; CGrannyModelInstance::UpdateWorldMatrices
  00015	5e		 pop	 esi

; 138  : }

  00016	5d		 pop	 ebp
  00017	c2 08 00	 ret	 8
?UpdateSkeleton@CGrannyModelInstance@@QAEXPBUD3DXMATRIX@@M@Z ENDP ; CGrannyModelInstance::UpdateSkeleton
_TEXT	ENDS
; Function compile flags: /Ogtp
; File C:\Marty 5.5\Src-Client\Client\eterGrnLib\ModelInstanceUpdate.cpp
;	COMDAT ?UpdateTransform@CGrannyModelInstance@@QAEXPAUD3DXMATRIX@@M@Z
_TEXT	SEGMENT
_pMatrix$ = 8						; size = 4
_fSecondsElapsed$ = 12					; size = 4
?UpdateTransform@CGrannyModelInstance@@QAEXPAUD3DXMATRIX@@M@Z PROC ; CGrannyModelInstance::UpdateTransform, COMDAT
; _this$ = ecx

; 47   : {

  00000	55		 push	 ebp
  00001	8b ec		 mov	 ebp, esp

; 48   : 	if (!m_pgrnModelInstance)

  00003	8b 49 08	 mov	 ecx, DWORD PTR [ecx+8]
  00006	85 c9		 test	 ecx, ecx
  00008	75 11		 jne	 SHORT $LN2@UpdateTran

; 49   : 	{
; 50   : 		TraceError("CGrannyModelIstance::UpdateTransform - m_pgrnModelInstance = NULL");

  0000a	68 00 00 00 00	 push	 OFFSET ??_C@_0EC@DKCFBIDP@CGrannyModelIstance?3?3UpdateTran@
  0000f	e8 00 00 00 00	 call	 ?TraceError@@YAXPBDZZ	; TraceError
  00014	83 c4 04	 add	 esp, 4

; 57   : #else
; 58   : #error "unknown granny version"
; 59   : #endif
; 60   : 	//Tracef("%f %f %f",pMatrix->_41,pMatrix->_42,pMatrix->_43);
; 61   : 
; 62   : }

  00017	5d		 pop	 ebp
  00018	c2 08 00	 ret	 8
$LN2@UpdateTran:

; 51   : 		return;
; 52   : 	}
; 53   : #if GrannyProductMinorVersion==4
; 54   : 	GrannyUpdateModelMatrix(m_pgrnModelInstance, fSecondsElapsed, (const float *) pMatrix, (float *) pMatrix);
; 55   : #elif GrannyProductMinorVersion==11 || GrannyProductMinorVersion==9 || GrannyProductMinorVersion==8 || GrannyProductMinorVersion==7
; 56   : 	GrannyUpdateModelMatrix(m_pgrnModelInstance, fSecondsElapsed, (const float *) pMatrix, (float *) pMatrix, false);

  0001b	8b 45 08	 mov	 eax, DWORD PTR _pMatrix$[ebp]
  0001e	f3 0f 10 45 0c	 movss	 xmm0, DWORD PTR _fSecondsElapsed$[ebp]
  00023	6a 00		 push	 0
  00025	50		 push	 eax
  00026	50		 push	 eax
  00027	51		 push	 ecx
  00028	f3 0f 11 04 24	 movss	 DWORD PTR [esp], xmm0
  0002d	51		 push	 ecx
  0002e	ff 15 00 00 00
	00		 call	 DWORD PTR __imp__GrannyUpdateModelMatrix@20

; 57   : #else
; 58   : #error "unknown granny version"
; 59   : #endif
; 60   : 	//Tracef("%f %f %f",pMatrix->_41,pMatrix->_42,pMatrix->_43);
; 61   : 
; 62   : }

  00034	5d		 pop	 ebp
  00035	c2 08 00	 ret	 8
?UpdateTransform@CGrannyModelInstance@@QAEXPAUD3DXMATRIX@@M@Z ENDP ; CGrannyModelInstance::UpdateTransform
_TEXT	ENDS
; Function compile flags: /Ogtp
; File C:\Marty 5.5\Src-Client\Client\eterGrnLib\ModelInstanceUpdate.cpp
;	COMDAT ?UpdateLocalTime@CGrannyModelInstance@@QAEXM@Z
_TEXT	SEGMENT
_fElapsedTime$ = 8					; size = 4
?UpdateLocalTime@CGrannyModelInstance@@QAEXM@Z PROC	; CGrannyModelInstance::UpdateLocalTime, COMDAT
; _this$ = ecx

; 41   : {

  00000	55		 push	 ebp
  00001	8b ec		 mov	 ebp, esp

; 42   : 	m_fSecondsElapsed = fElapsedTime;

  00003	f3 0f 10 45 08	 movss	 xmm0, DWORD PTR _fElapsedTime$[ebp]
  00008	f3 0f 11 41 24	 movss	 DWORD PTR [ecx+36], xmm0

; 43   : 	m_fLocalTime += fElapsedTime;

  0000d	f3 0f 58 41 20	 addss	 xmm0, DWORD PTR [ecx+32]
  00012	f3 0f 11 41 20	 movss	 DWORD PTR [ecx+32], xmm0

; 44   : }

  00017	5d		 pop	 ebp
  00018	c2 04 00	 ret	 4
?UpdateLocalTime@CGrannyModelInstance@@QAEXM@Z ENDP	; CGrannyModelInstance::UpdateLocalTime
_TEXT	ENDS
; Function compile flags: /Ogtp
; File C:\Marty 5.5\Src-Client\Client\eterGrnLib\ModelInstanceUpdate.cpp
;	COMDAT ?Update@CGrannyModelInstance@@QAEXK@Z
_TEXT	SEGMENT
_dwAniFPS$ = 8						; size = 4
_c_dwCurUpdateFrame$1$ = 8				; size = 4
tv95 = 8						; size = 4
?Update@CGrannyModelInstance@@QAEXK@Z PROC		; CGrannyModelInstance::Update, COMDAT
; _this$ = ecx

; 8    : {

  00000	55		 push	 ebp
  00001	8b ec		 mov	 ebp, esp
  00003	56		 push	 esi

; 9    : 	if (!dwAniFPS)

  00004	8b 75 08	 mov	 esi, DWORD PTR _dwAniFPS$[ebp]
  00007	57		 push	 edi
  00008	8b f9		 mov	 edi, ecx
  0000a	85 f6		 test	 esi, esi
  0000c	74 66		 je	 SHORT $LN1@Update

; 10   : 		return;
; 11   : 
; 12   : 	const DWORD c_dwCurUpdateFrame = (DWORD) (GetLocalTime() * ANIFPS_MAX);

  0000e	53		 push	 ebx
  0000f	e8 00 00 00 00	 call	 ?GetLocalTime@CGrannyModelInstance@@QAEMXZ ; CGrannyModelInstance::GetLocalTime
  00014	d8 0d 00 00 00
	00		 fmul	 DWORD PTR __real@42f00000
  0001a	d9 5d 08	 fstp	 DWORD PTR tv95[ebp]
  0001d	f3 0f 10 45 08	 movss	 xmm0, DWORD PTR tv95[ebp]
  00022	e8 00 00 00 00	 call	 __ftol3
  00027	8b c8		 mov	 ecx, eax

; 13   : 	const DWORD ANIFPS_STEP = ANIFPS_MAX/dwAniFPS;

  00029	33 d2		 xor	 edx, edx
  0002b	b8 78 00 00 00	 mov	 eax, 120		; 00000078H
  00030	89 4d 08	 mov	 DWORD PTR _c_dwCurUpdateFrame$1$[ebp], ecx
  00033	f7 f6		 div	 esi
  00035	8b d8		 mov	 ebx, eax

; 14   : 	if (c_dwCurUpdateFrame>ANIFPS_STEP && c_dwCurUpdateFrame/ANIFPS_STEP==m_dwOldUpdateFrame/ANIFPS_STEP)

  00037	3b cb		 cmp	 ecx, ebx
  00039	76 17		 jbe	 SHORT $LN5@Update
  0003b	8b 47 28	 mov	 eax, DWORD PTR [edi+40]
  0003e	33 d2		 xor	 edx, edx
  00040	f7 f3		 div	 ebx
  00042	33 d2		 xor	 edx, edx
  00044	8b c8		 mov	 ecx, eax
  00046	8b 45 08	 mov	 eax, DWORD PTR _c_dwCurUpdateFrame$1$[ebp]
  00049	f7 f3		 div	 ebx
  0004b	3b c1		 cmp	 eax, ecx
  0004d	74 24		 je	 SHORT $LN9@Update
  0004f	8b 4d 08	 mov	 ecx, DWORD PTR _c_dwCurUpdateFrame$1$[ebp]
$LN5@Update:

; 15   : 		return;
; 16   : 
; 17   : 	m_dwOldUpdateFrame=c_dwCurUpdateFrame;
; 18   : 	GrannyFreeCompletedModelControls(m_pgrnModelInstance); //@natanek101

  00052	ff 77 08	 push	 DWORD PTR [edi+8]
  00055	89 4f 28	 mov	 DWORD PTR [edi+40], ecx
  00058	ff 15 00 00 00
	00		 call	 DWORD PTR __imp__GrannyFreeCompletedModelControls@4

; 19   : 
; 20   : 
; 21   : 
; 22   : 	//DWORD t1=timeGetTime();
; 23   : 	GrannySetModelClock(m_pgrnModelInstance, GetLocalTime());

  0005e	8b 77 08	 mov	 esi, DWORD PTR [edi+8]
  00061	8b cf		 mov	 ecx, edi
  00063	e8 00 00 00 00	 call	 ?GetLocalTime@CGrannyModelInstance@@QAEMXZ ; CGrannyModelInstance::GetLocalTime
  00068	51		 push	 ecx
  00069	d9 1c 24	 fstp	 DWORD PTR [esp]
  0006c	56		 push	 esi
  0006d	ff 15 00 00 00
	00		 call	 DWORD PTR __imp__GrannySetModelClock@8
$LN9@Update:
  00073	5b		 pop	 ebx
$LN1@Update:
  00074	5f		 pop	 edi

; 24   : 	//DWORD t2=timeGetTime();
; 25   : 
; 26   : #ifdef __PERFORMANCE_CHECKER__
; 27   : 	{
; 28   : 		static FILE* fp=fopen("perf_grn_setmodelclock.txt", "w");
; 29   : 
; 30   : 		if (t2-t1>3)
; 31   : 		{
; 32   : 			fprintf(fp, "%f:%x:- GrannySetModelClock(time=%f) = %dms\n", timeGetTime()/1000.0f, this, GetLocalTime(), t2-t1);
; 33   : 			fflush(fp);
; 34   : 		}
; 35   : 	}
; 36   : #endif
; 37   : 
; 38   : }

  00075	5e		 pop	 esi
  00076	5d		 pop	 ebp
  00077	c2 04 00	 ret	 4
?Update@CGrannyModelInstance@@QAEXK@Z ENDP		; CGrannyModelInstance::Update
_TEXT	ENDS
END
