; Listing generated by Microsoft (R) Optimizing Compiler Version 19.43.34808.0 

	TITLE	C:\Marty 5.5\Src-Client\Client\EterLib\Distribute\CollisionData.obj
	.686P
	.XMM
	include listing.inc
	.model	flat

INCLUDELIB LIBCMT
INCLUDELIB OLDNAMES

PUBLIC	??_G?$CDynamicPool@VCPlaneCollisionInstance@@@@UAEPAXI@Z ; CDynamicPool<CPlaneCollisionInstance>::`scalar deleting destructor'
PUBLIC	??_7?$CDynamicPool@VCAABBCollisionInstance@@@@6B@ ; CDynamicPool<CAABBCollisionInstance>::`vftable'
PUBLIC	??_G?$CDynamicPool@VCAABBCollisionInstance@@@@UAEPAXI@Z ; CDynamicPool<CAABBCollisionInstance>::`scalar deleting destructor'
PUBLIC	??_7?$CDynamicPool@VCOBBCollisionInstance@@@@6B@ ; CDynamicPool<COBBCollisionInstance>::`vftable'
PUBLIC	??_G?$CDynamicPool@VCOBBCollisionInstance@@@@UAEPAXI@Z ; CDynamicPool<COBBCollisionInstance>::`scalar deleting destructor'
PUBLIC	?_Fake_alloc@std@@3U_Fake_allocator@1@B		; std::_Fake_alloc
PUBLIC	??_R4?$CDynamicPool@VCSphereCollisionInstance@@@@6B@ ; CDynamicPool<CSphereCollisionInstance>::`RTTI Complete Object Locator'
PUBLIC	??_R0?AV?$CDynamicPool@VCSphereCollisionInstance@@@@@8 ; CDynamicPool<CSphereCollisionInstance> `RTTI Type Descriptor'
PUBLIC	??_R3?$CDynamicPool@VCSphereCollisionInstance@@@@8 ; CDynamicPool<CSphereCollisionInstance>::`RTTI Class Hierarchy Descriptor'
PUBLIC	??_R2?$CDynamicPool@VCSphereCollisionInstance@@@@8 ; CDynamicPool<CSphereCollisionInstance>::`RTTI Base Class Array'
PUBLIC	??_R1A@?0A@EA@?$CDynamicPool@VCSphereCollisionInstance@@@@8 ; CDynamicPool<CSphereCollisionInstance>::`RTTI Base Class Descriptor at (0,-1,0,64)'
PUBLIC	??_R4?$CDynamicPool@VCCylinderCollisionInstance@@@@6B@ ; CDynamicPool<CCylinderCollisionInstance>::`RTTI Complete Object Locator'
PUBLIC	??_R0?AV?$CDynamicPool@VCCylinderCollisionInstance@@@@@8 ; CDynamicPool<CCylinderCollisionInstance> `RTTI Type Descriptor'
PUBLIC	??_R3?$CDynamicPool@VCCylinderCollisionInstance@@@@8 ; CDynamicPool<CCylinderCollisionInstance>::`RTTI Class Hierarchy Descriptor'
PUBLIC	??_R2?$CDynamicPool@VCCylinderCollisionInstance@@@@8 ; CDynamicPool<CCylinderCollisionInstance>::`RTTI Base Class Array'
PUBLIC	??_R1A@?0A@EA@?$CDynamicPool@VCCylinderCollisionInstance@@@@8 ; CDynamicPool<CCylinderCollisionInstance>::`RTTI Base Class Descriptor at (0,-1,0,64)'
PUBLIC	??_R4?$CDynamicPool@VCPlaneCollisionInstance@@@@6B@ ; CDynamicPool<CPlaneCollisionInstance>::`RTTI Complete Object Locator'
PUBLIC	??_R0?AV?$CDynamicPool@VCPlaneCollisionInstance@@@@@8 ; CDynamicPool<CPlaneCollisionInstance> `RTTI Type Descriptor'
PUBLIC	??_R3?$CDynamicPool@VCPlaneCollisionInstance@@@@8 ; CDynamicPool<CPlaneCollisionInstance>::`RTTI Class Hierarchy Descriptor'
PUBLIC	??_R2?$CDynamicPool@VCPlaneCollisionInstance@@@@8 ; CDynamicPool<CPlaneCollisionInstance>::`RTTI Base Class Array'
PUBLIC	??_R1A@?0A@EA@?$CDynamicPool@VCPlaneCollisionInstance@@@@8 ; CDynamicPool<CPlaneCollisionInstance>::`RTTI Base Class Descriptor at (0,-1,0,64)'
PUBLIC	??_R4?$CDynamicPool@VCAABBCollisionInstance@@@@6B@ ; CDynamicPool<CAABBCollisionInstance>::`RTTI Complete Object Locator'
PUBLIC	??_R0?AV?$CDynamicPool@VCAABBCollisionInstance@@@@@8 ; CDynamicPool<CAABBCollisionInstance> `RTTI Type Descriptor'
PUBLIC	??_R3?$CDynamicPool@VCAABBCollisionInstance@@@@8 ; CDynamicPool<CAABBCollisionInstance>::`RTTI Class Hierarchy Descriptor'
PUBLIC	??_R2?$CDynamicPool@VCAABBCollisionInstance@@@@8 ; CDynamicPool<CAABBCollisionInstance>::`RTTI Base Class Array'
PUBLIC	??_R1A@?0A@EA@?$CDynamicPool@VCAABBCollisionInstance@@@@8 ; CDynamicPool<CAABBCollisionInstance>::`RTTI Base Class Descriptor at (0,-1,0,64)'
PUBLIC	??_R4?$CDynamicPool@VCOBBCollisionInstance@@@@6B@ ; CDynamicPool<COBBCollisionInstance>::`RTTI Complete Object Locator'
PUBLIC	??_R0?AV?$CDynamicPool@VCOBBCollisionInstance@@@@@8 ; CDynamicPool<COBBCollisionInstance> `RTTI Type Descriptor'
PUBLIC	??_R3?$CDynamicPool@VCOBBCollisionInstance@@@@8	; CDynamicPool<COBBCollisionInstance>::`RTTI Class Hierarchy Descriptor'
PUBLIC	??_R2?$CDynamicPool@VCOBBCollisionInstance@@@@8	; CDynamicPool<COBBCollisionInstance>::`RTTI Base Class Array'
PUBLIC	??_R1A@?0A@EA@?$CDynamicPool@VCOBBCollisionInstance@@@@8 ; CDynamicPool<COBBCollisionInstance>::`RTTI Base Class Descriptor at (0,-1,0,64)'
PUBLIC	??_7?$CDynamicPool@VCSphereCollisionInstance@@@@6B@ ; CDynamicPool<CSphereCollisionInstance>::`vftable'
PUBLIC	??_G?$CDynamicPool@VCSphereCollisionInstance@@@@UAEPAXI@Z ; CDynamicPool<CSphereCollisionInstance>::`scalar deleting destructor'
PUBLIC	??_7?$CDynamicPool@VCCylinderCollisionInstance@@@@6B@ ; CDynamicPool<CCylinderCollisionInstance>::`vftable'
PUBLIC	??_G?$CDynamicPool@VCCylinderCollisionInstance@@@@UAEPAXI@Z ; CDynamicPool<CCylinderCollisionInstance>::`scalar deleting destructor'
PUBLIC	??_7?$CDynamicPool@VCPlaneCollisionInstance@@@@6B@ ; CDynamicPool<CPlaneCollisionInstance>::`vftable'
EXTRN	??_E?$CDynamicPool@VCPlaneCollisionInstance@@@@UAEPAXI@Z:PROC ; CDynamicPool<CPlaneCollisionInstance>::`vector deleting destructor'
EXTRN	??_E?$CDynamicPool@VCAABBCollisionInstance@@@@UAEPAXI@Z:PROC ; CDynamicPool<CAABBCollisionInstance>::`vector deleting destructor'
EXTRN	??_E?$CDynamicPool@VCOBBCollisionInstance@@@@UAEPAXI@Z:PROC ; CDynamicPool<COBBCollisionInstance>::`vector deleting destructor'
EXTRN	??_7type_info@@6B@:QWORD			; type_info::`vftable'
EXTRN	??_E?$CDynamicPool@VCSphereCollisionInstance@@@@UAEPAXI@Z:PROC ; CDynamicPool<CSphereCollisionInstance>::`vector deleting destructor'
EXTRN	??_E?$CDynamicPool@VCCylinderCollisionInstance@@@@UAEPAXI@Z:PROC ; CDynamicPool<CCylinderCollisionInstance>::`vector deleting destructor'
;	COMDAT ??_7?$CDynamicPool@VCPlaneCollisionInstance@@@@6B@
CONST	SEGMENT
??_7?$CDynamicPool@VCPlaneCollisionInstance@@@@6B@ DD FLAT:??_R4?$CDynamicPool@VCPlaneCollisionInstance@@@@6B@ ; CDynamicPool<CPlaneCollisionInstance>::`vftable'
	DD	FLAT:??_E?$CDynamicPool@VCPlaneCollisionInstance@@@@UAEPAXI@Z
CONST	ENDS
;	COMDAT ??_7?$CDynamicPool@VCCylinderCollisionInstance@@@@6B@
CONST	SEGMENT
??_7?$CDynamicPool@VCCylinderCollisionInstance@@@@6B@ DD FLAT:??_R4?$CDynamicPool@VCCylinderCollisionInstance@@@@6B@ ; CDynamicPool<CCylinderCollisionInstance>::`vftable'
	DD	FLAT:??_E?$CDynamicPool@VCCylinderCollisionInstance@@@@UAEPAXI@Z
CONST	ENDS
;	COMDAT ??_7?$CDynamicPool@VCSphereCollisionInstance@@@@6B@
CONST	SEGMENT
??_7?$CDynamicPool@VCSphereCollisionInstance@@@@6B@ DD FLAT:??_R4?$CDynamicPool@VCSphereCollisionInstance@@@@6B@ ; CDynamicPool<CSphereCollisionInstance>::`vftable'
	DD	FLAT:??_E?$CDynamicPool@VCSphereCollisionInstance@@@@UAEPAXI@Z
CONST	ENDS
;	COMDAT ??_R1A@?0A@EA@?$CDynamicPool@VCOBBCollisionInstance@@@@8
rdata$r	SEGMENT
??_R1A@?0A@EA@?$CDynamicPool@VCOBBCollisionInstance@@@@8 DD FLAT:??_R0?AV?$CDynamicPool@VCOBBCollisionInstance@@@@@8 ; CDynamicPool<COBBCollisionInstance>::`RTTI Base Class Descriptor at (0,-1,0,64)'
	DD	00H
	DD	00H
	DD	0ffffffffH
	DD	00H
	DD	040H
	DD	FLAT:??_R3?$CDynamicPool@VCOBBCollisionInstance@@@@8
rdata$r	ENDS
;	COMDAT ??_R2?$CDynamicPool@VCOBBCollisionInstance@@@@8
rdata$r	SEGMENT
??_R2?$CDynamicPool@VCOBBCollisionInstance@@@@8 DD FLAT:??_R1A@?0A@EA@?$CDynamicPool@VCOBBCollisionInstance@@@@8 ; CDynamicPool<COBBCollisionInstance>::`RTTI Base Class Array'
rdata$r	ENDS
;	COMDAT ??_R3?$CDynamicPool@VCOBBCollisionInstance@@@@8
rdata$r	SEGMENT
??_R3?$CDynamicPool@VCOBBCollisionInstance@@@@8 DD 00H	; CDynamicPool<COBBCollisionInstance>::`RTTI Class Hierarchy Descriptor'
	DD	00H
	DD	01H
	DD	FLAT:??_R2?$CDynamicPool@VCOBBCollisionInstance@@@@8
rdata$r	ENDS
;	COMDAT ??_R0?AV?$CDynamicPool@VCOBBCollisionInstance@@@@@8
data$rs	SEGMENT
??_R0?AV?$CDynamicPool@VCOBBCollisionInstance@@@@@8 DD FLAT:??_7type_info@@6B@ ; CDynamicPool<COBBCollisionInstance> `RTTI Type Descriptor'
	DD	00H
	DB	'.?AV?$CDynamicPool@VCOBBCollisionInstance@@@@', 00H
data$rs	ENDS
;	COMDAT ??_R4?$CDynamicPool@VCOBBCollisionInstance@@@@6B@
rdata$r	SEGMENT
??_R4?$CDynamicPool@VCOBBCollisionInstance@@@@6B@ DD 00H ; CDynamicPool<COBBCollisionInstance>::`RTTI Complete Object Locator'
	DD	00H
	DD	00H
	DD	FLAT:??_R0?AV?$CDynamicPool@VCOBBCollisionInstance@@@@@8
	DD	FLAT:??_R3?$CDynamicPool@VCOBBCollisionInstance@@@@8
rdata$r	ENDS
;	COMDAT ??_R1A@?0A@EA@?$CDynamicPool@VCAABBCollisionInstance@@@@8
rdata$r	SEGMENT
??_R1A@?0A@EA@?$CDynamicPool@VCAABBCollisionInstance@@@@8 DD FLAT:??_R0?AV?$CDynamicPool@VCAABBCollisionInstance@@@@@8 ; CDynamicPool<CAABBCollisionInstance>::`RTTI Base Class Descriptor at (0,-1,0,64)'
	DD	00H
	DD	00H
	DD	0ffffffffH
	DD	00H
	DD	040H
	DD	FLAT:??_R3?$CDynamicPool@VCAABBCollisionInstance@@@@8
rdata$r	ENDS
;	COMDAT ??_R2?$CDynamicPool@VCAABBCollisionInstance@@@@8
rdata$r	SEGMENT
??_R2?$CDynamicPool@VCAABBCollisionInstance@@@@8 DD FLAT:??_R1A@?0A@EA@?$CDynamicPool@VCAABBCollisionInstance@@@@8 ; CDynamicPool<CAABBCollisionInstance>::`RTTI Base Class Array'
rdata$r	ENDS
;	COMDAT ??_R3?$CDynamicPool@VCAABBCollisionInstance@@@@8
rdata$r	SEGMENT
??_R3?$CDynamicPool@VCAABBCollisionInstance@@@@8 DD 00H	; CDynamicPool<CAABBCollisionInstance>::`RTTI Class Hierarchy Descriptor'
	DD	00H
	DD	01H
	DD	FLAT:??_R2?$CDynamicPool@VCAABBCollisionInstance@@@@8
rdata$r	ENDS
;	COMDAT ??_R0?AV?$CDynamicPool@VCAABBCollisionInstance@@@@@8
data$rs	SEGMENT
??_R0?AV?$CDynamicPool@VCAABBCollisionInstance@@@@@8 DD FLAT:??_7type_info@@6B@ ; CDynamicPool<CAABBCollisionInstance> `RTTI Type Descriptor'
	DD	00H
	DB	'.?AV?$CDynamicPool@VCAABBCollisionInstance@@@@', 00H
data$rs	ENDS
;	COMDAT ??_R4?$CDynamicPool@VCAABBCollisionInstance@@@@6B@
rdata$r	SEGMENT
??_R4?$CDynamicPool@VCAABBCollisionInstance@@@@6B@ DD 00H ; CDynamicPool<CAABBCollisionInstance>::`RTTI Complete Object Locator'
	DD	00H
	DD	00H
	DD	FLAT:??_R0?AV?$CDynamicPool@VCAABBCollisionInstance@@@@@8
	DD	FLAT:??_R3?$CDynamicPool@VCAABBCollisionInstance@@@@8
rdata$r	ENDS
;	COMDAT ??_R1A@?0A@EA@?$CDynamicPool@VCPlaneCollisionInstance@@@@8
rdata$r	SEGMENT
??_R1A@?0A@EA@?$CDynamicPool@VCPlaneCollisionInstance@@@@8 DD FLAT:??_R0?AV?$CDynamicPool@VCPlaneCollisionInstance@@@@@8 ; CDynamicPool<CPlaneCollisionInstance>::`RTTI Base Class Descriptor at (0,-1,0,64)'
	DD	00H
	DD	00H
	DD	0ffffffffH
	DD	00H
	DD	040H
	DD	FLAT:??_R3?$CDynamicPool@VCPlaneCollisionInstance@@@@8
rdata$r	ENDS
;	COMDAT ??_R2?$CDynamicPool@VCPlaneCollisionInstance@@@@8
rdata$r	SEGMENT
??_R2?$CDynamicPool@VCPlaneCollisionInstance@@@@8 DD FLAT:??_R1A@?0A@EA@?$CDynamicPool@VCPlaneCollisionInstance@@@@8 ; CDynamicPool<CPlaneCollisionInstance>::`RTTI Base Class Array'
rdata$r	ENDS
;	COMDAT ??_R3?$CDynamicPool@VCPlaneCollisionInstance@@@@8
rdata$r	SEGMENT
??_R3?$CDynamicPool@VCPlaneCollisionInstance@@@@8 DD 00H ; CDynamicPool<CPlaneCollisionInstance>::`RTTI Class Hierarchy Descriptor'
	DD	00H
	DD	01H
	DD	FLAT:??_R2?$CDynamicPool@VCPlaneCollisionInstance@@@@8
rdata$r	ENDS
;	COMDAT ??_R0?AV?$CDynamicPool@VCPlaneCollisionInstance@@@@@8
data$rs	SEGMENT
??_R0?AV?$CDynamicPool@VCPlaneCollisionInstance@@@@@8 DD FLAT:??_7type_info@@6B@ ; CDynamicPool<CPlaneCollisionInstance> `RTTI Type Descriptor'
	DD	00H
	DB	'.?AV?$CDynamicPool@VCPlaneCollisionInstance@@@@', 00H
data$rs	ENDS
;	COMDAT ??_R4?$CDynamicPool@VCPlaneCollisionInstance@@@@6B@
rdata$r	SEGMENT
??_R4?$CDynamicPool@VCPlaneCollisionInstance@@@@6B@ DD 00H ; CDynamicPool<CPlaneCollisionInstance>::`RTTI Complete Object Locator'
	DD	00H
	DD	00H
	DD	FLAT:??_R0?AV?$CDynamicPool@VCPlaneCollisionInstance@@@@@8
	DD	FLAT:??_R3?$CDynamicPool@VCPlaneCollisionInstance@@@@8
rdata$r	ENDS
;	COMDAT ??_R1A@?0A@EA@?$CDynamicPool@VCCylinderCollisionInstance@@@@8
rdata$r	SEGMENT
??_R1A@?0A@EA@?$CDynamicPool@VCCylinderCollisionInstance@@@@8 DD FLAT:??_R0?AV?$CDynamicPool@VCCylinderCollisionInstance@@@@@8 ; CDynamicPool<CCylinderCollisionInstance>::`RTTI Base Class Descriptor at (0,-1,0,64)'
	DD	00H
	DD	00H
	DD	0ffffffffH
	DD	00H
	DD	040H
	DD	FLAT:??_R3?$CDynamicPool@VCCylinderCollisionInstance@@@@8
rdata$r	ENDS
;	COMDAT ??_R2?$CDynamicPool@VCCylinderCollisionInstance@@@@8
rdata$r	SEGMENT
??_R2?$CDynamicPool@VCCylinderCollisionInstance@@@@8 DD FLAT:??_R1A@?0A@EA@?$CDynamicPool@VCCylinderCollisionInstance@@@@8 ; CDynamicPool<CCylinderCollisionInstance>::`RTTI Base Class Array'
rdata$r	ENDS
;	COMDAT ??_R3?$CDynamicPool@VCCylinderCollisionInstance@@@@8
rdata$r	SEGMENT
??_R3?$CDynamicPool@VCCylinderCollisionInstance@@@@8 DD 00H ; CDynamicPool<CCylinderCollisionInstance>::`RTTI Class Hierarchy Descriptor'
	DD	00H
	DD	01H
	DD	FLAT:??_R2?$CDynamicPool@VCCylinderCollisionInstance@@@@8
rdata$r	ENDS
;	COMDAT ??_R0?AV?$CDynamicPool@VCCylinderCollisionInstance@@@@@8
data$rs	SEGMENT
??_R0?AV?$CDynamicPool@VCCylinderCollisionInstance@@@@@8 DD FLAT:??_7type_info@@6B@ ; CDynamicPool<CCylinderCollisionInstance> `RTTI Type Descriptor'
	DD	00H
	DB	'.?AV?$CDynamicPool@VCCylinderCollisionInstance@@@@', 00H
data$rs	ENDS
;	COMDAT ??_R4?$CDynamicPool@VCCylinderCollisionInstance@@@@6B@
rdata$r	SEGMENT
??_R4?$CDynamicPool@VCCylinderCollisionInstance@@@@6B@ DD 00H ; CDynamicPool<CCylinderCollisionInstance>::`RTTI Complete Object Locator'
	DD	00H
	DD	00H
	DD	FLAT:??_R0?AV?$CDynamicPool@VCCylinderCollisionInstance@@@@@8
	DD	FLAT:??_R3?$CDynamicPool@VCCylinderCollisionInstance@@@@8
rdata$r	ENDS
;	COMDAT ??_R1A@?0A@EA@?$CDynamicPool@VCSphereCollisionInstance@@@@8
rdata$r	SEGMENT
??_R1A@?0A@EA@?$CDynamicPool@VCSphereCollisionInstance@@@@8 DD FLAT:??_R0?AV?$CDynamicPool@VCSphereCollisionInstance@@@@@8 ; CDynamicPool<CSphereCollisionInstance>::`RTTI Base Class Descriptor at (0,-1,0,64)'
	DD	00H
	DD	00H
	DD	0ffffffffH
	DD	00H
	DD	040H
	DD	FLAT:??_R3?$CDynamicPool@VCSphereCollisionInstance@@@@8
rdata$r	ENDS
;	COMDAT ??_R2?$CDynamicPool@VCSphereCollisionInstance@@@@8
rdata$r	SEGMENT
??_R2?$CDynamicPool@VCSphereCollisionInstance@@@@8 DD FLAT:??_R1A@?0A@EA@?$CDynamicPool@VCSphereCollisionInstance@@@@8 ; CDynamicPool<CSphereCollisionInstance>::`RTTI Base Class Array'
rdata$r	ENDS
;	COMDAT ??_R3?$CDynamicPool@VCSphereCollisionInstance@@@@8
rdata$r	SEGMENT
??_R3?$CDynamicPool@VCSphereCollisionInstance@@@@8 DD 00H ; CDynamicPool<CSphereCollisionInstance>::`RTTI Class Hierarchy Descriptor'
	DD	00H
	DD	01H
	DD	FLAT:??_R2?$CDynamicPool@VCSphereCollisionInstance@@@@8
rdata$r	ENDS
;	COMDAT ??_R0?AV?$CDynamicPool@VCSphereCollisionInstance@@@@@8
data$rs	SEGMENT
??_R0?AV?$CDynamicPool@VCSphereCollisionInstance@@@@@8 DD FLAT:??_7type_info@@6B@ ; CDynamicPool<CSphereCollisionInstance> `RTTI Type Descriptor'
	DD	00H
	DB	'.?AV?$CDynamicPool@VCSphereCollisionInstance@@@@', 00H
data$rs	ENDS
;	COMDAT ??_R4?$CDynamicPool@VCSphereCollisionInstance@@@@6B@
rdata$r	SEGMENT
??_R4?$CDynamicPool@VCSphereCollisionInstance@@@@6B@ DD 00H ; CDynamicPool<CSphereCollisionInstance>::`RTTI Complete Object Locator'
	DD	00H
	DD	00H
	DD	FLAT:??_R0?AV?$CDynamicPool@VCSphereCollisionInstance@@@@@8
	DD	FLAT:??_R3?$CDynamicPool@VCSphereCollisionInstance@@@@8
rdata$r	ENDS
;	COMDAT ?_Fake_alloc@std@@3U_Fake_allocator@1@B
CONST	SEGMENT
?_Fake_alloc@std@@3U_Fake_allocator@1@B	ORG $+1		; std::_Fake_alloc
CONST	ENDS
;	COMDAT ??_7?$CDynamicPool@VCOBBCollisionInstance@@@@6B@
CONST	SEGMENT
??_7?$CDynamicPool@VCOBBCollisionInstance@@@@6B@ DD FLAT:??_R4?$CDynamicPool@VCOBBCollisionInstance@@@@6B@ ; CDynamicPool<COBBCollisionInstance>::`vftable'
	DD	FLAT:??_E?$CDynamicPool@VCOBBCollisionInstance@@@@UAEPAXI@Z
CONST	ENDS
;	COMDAT ??_7?$CDynamicPool@VCAABBCollisionInstance@@@@6B@
CONST	SEGMENT
??_7?$CDynamicPool@VCAABBCollisionInstance@@@@6B@ DD FLAT:??_R4?$CDynamicPool@VCAABBCollisionInstance@@@@6B@ ; CDynamicPool<CAABBCollisionInstance>::`vftable'
	DD	FLAT:??_E?$CDynamicPool@VCAABBCollisionInstance@@@@UAEPAXI@Z
CONST	ENDS
PUBLIC	??_H@YGXPAXIIP6EPAX0@Z@Z			; `vector constructor iterator'
PUBLIC	??0D3DXVECTOR3@@QAE@XZ				; D3DXVECTOR3::D3DXVECTOR3
PUBLIC	??0D3DXMATRIX@@QAE@XZ				; D3DXMATRIX::D3DXMATRIX
PUBLIC	??0exception@std@@QAE@ABV01@@Z			; std::exception::exception
PUBLIC	??1exception@std@@UAE@XZ			; std::exception::~exception
PUBLIC	?what@exception@std@@UBEPBDXZ			; std::exception::what
PUBLIC	??_Gexception@std@@UAEPAXI@Z			; std::exception::`scalar deleting destructor'
PUBLIC	??0bad_alloc@std@@QAE@ABV01@@Z			; std::bad_alloc::bad_alloc
PUBLIC	??_Gbad_alloc@std@@UAEPAXI@Z			; std::bad_alloc::`scalar deleting destructor'
PUBLIC	??0bad_array_new_length@std@@QAE@XZ		; std::bad_array_new_length::bad_array_new_length
PUBLIC	??1bad_array_new_length@std@@UAE@XZ		; std::bad_array_new_length::~bad_array_new_length
PUBLIC	??0bad_array_new_length@std@@QAE@ABV01@@Z	; std::bad_array_new_length::bad_array_new_length
PUBLIC	??_Gbad_array_new_length@std@@UAEPAXI@Z		; std::bad_array_new_length::`scalar deleting destructor'
PUBLIC	?_Throw_bad_array_new_length@std@@YAXXZ		; std::_Throw_bad_array_new_length
PUBLIC	??$_Allocate_manually_vector_aligned@U_Default_allocate_traits@std@@@std@@YAPAXI@Z ; std::_Allocate_manually_vector_aligned<std::_Default_allocate_traits>
PUBLIC	?DestroyCollisionInstanceSystem@@YAXXZ		; DestroyCollisionInstanceSystem
PUBLIC	?Destroy@CBaseCollisionInstance@@QAEXXZ		; CBaseCollisionInstance::Destroy
PUBLIC	?BuildCollisionInstance@CBaseCollisionInstance@@SAPAV1@PBVCStaticCollisionData@@PBUD3DXMATRIX@@@Z ; CBaseCollisionInstance::BuildCollisionInstance
PUBLIC	?GetAttribute@CSphereCollisionInstance@@QAEAAUSSphereData@@XZ ; CSphereCollisionInstance::GetAttribute
PUBLIC	?GetAttribute@CSphereCollisionInstance@@QBEABUSSphereData@@XZ ; CSphereCollisionInstance::GetAttribute
PUBLIC	?Render@CSphereCollisionInstance@@UAEXW4_D3DFILLMODE@@@Z ; CSphereCollisionInstance::Render
PUBLIC	?OnDestroy@CSphereCollisionInstance@@MAEXXZ	; CSphereCollisionInstance::OnDestroy
PUBLIC	?OnMovementCollisionDynamicSphere@CSphereCollisionInstance@@MBE_NABUCDynamicSphereInstance@@@Z ; CSphereCollisionInstance::OnMovementCollisionDynamicSphere
PUBLIC	?OnCollisionDynamicSphere@CSphereCollisionInstance@@MBE_NABUCDynamicSphereInstance@@@Z ; CSphereCollisionInstance::OnCollisionDynamicSphere
PUBLIC	?OnGetCollisionMovementAdjust@CSphereCollisionInstance@@MBE?AUD3DXVECTOR3@@ABUCDynamicSphereInstance@@@Z ; CSphereCollisionInstance::OnGetCollisionMovementAdjust
PUBLIC	?GetAttribute@CPlaneCollisionInstance@@QAEAAUSPlaneData@@XZ ; CPlaneCollisionInstance::GetAttribute
PUBLIC	?GetAttribute@CPlaneCollisionInstance@@QBEABUSPlaneData@@XZ ; CPlaneCollisionInstance::GetAttribute
PUBLIC	?Render@CPlaneCollisionInstance@@UAEXW4_D3DFILLMODE@@@Z ; CPlaneCollisionInstance::Render
PUBLIC	?OnDestroy@CPlaneCollisionInstance@@MAEXXZ	; CPlaneCollisionInstance::OnDestroy
PUBLIC	?OnMovementCollisionDynamicSphere@CPlaneCollisionInstance@@MBE_NABUCDynamicSphereInstance@@@Z ; CPlaneCollisionInstance::OnMovementCollisionDynamicSphere
PUBLIC	?OnCollisionDynamicSphere@CPlaneCollisionInstance@@MBE_NABUCDynamicSphereInstance@@@Z ; CPlaneCollisionInstance::OnCollisionDynamicSphere
PUBLIC	?OnGetCollisionMovementAdjust@CPlaneCollisionInstance@@MBE?AUD3DXVECTOR3@@ABUCDynamicSphereInstance@@@Z ; CPlaneCollisionInstance::OnGetCollisionMovementAdjust
PUBLIC	?GetAttribute@CAABBCollisionInstance@@QAEAAUSAABBData@@XZ ; CAABBCollisionInstance::GetAttribute
PUBLIC	?GetAttribute@CAABBCollisionInstance@@QBEABUSAABBData@@XZ ; CAABBCollisionInstance::GetAttribute
PUBLIC	?Render@CAABBCollisionInstance@@UAEXW4_D3DFILLMODE@@@Z ; CAABBCollisionInstance::Render
PUBLIC	?OnDestroy@CAABBCollisionInstance@@MAEXXZ	; CAABBCollisionInstance::OnDestroy
PUBLIC	?OnMovementCollisionDynamicSphere@CAABBCollisionInstance@@MBE_NABUCDynamicSphereInstance@@@Z ; CAABBCollisionInstance::OnMovementCollisionDynamicSphere
PUBLIC	?OnCollisionDynamicSphere@CAABBCollisionInstance@@MBE_NABUCDynamicSphereInstance@@@Z ; CAABBCollisionInstance::OnCollisionDynamicSphere
PUBLIC	?OnGetCollisionMovementAdjust@CAABBCollisionInstance@@MBE?AUD3DXVECTOR3@@ABUCDynamicSphereInstance@@@Z ; CAABBCollisionInstance::OnGetCollisionMovementAdjust
PUBLIC	?GetAttribute@COBBCollisionInstance@@QAEAAUSOBBData@@XZ ; COBBCollisionInstance::GetAttribute
PUBLIC	?GetAttribute@COBBCollisionInstance@@QBEABUSOBBData@@XZ ; COBBCollisionInstance::GetAttribute
PUBLIC	?Render@COBBCollisionInstance@@UAEXW4_D3DFILLMODE@@@Z ; COBBCollisionInstance::Render
PUBLIC	?OnDestroy@COBBCollisionInstance@@MAEXXZ	; COBBCollisionInstance::OnDestroy
PUBLIC	?OnMovementCollisionDynamicSphere@COBBCollisionInstance@@MBE_NABUCDynamicSphereInstance@@@Z ; COBBCollisionInstance::OnMovementCollisionDynamicSphere
PUBLIC	?OnCollisionDynamicSphere@COBBCollisionInstance@@MBE_NABUCDynamicSphereInstance@@@Z ; COBBCollisionInstance::OnCollisionDynamicSphere
PUBLIC	?OnGetCollisionMovementAdjust@COBBCollisionInstance@@MBE?AUD3DXVECTOR3@@ABUCDynamicSphereInstance@@@Z ; COBBCollisionInstance::OnGetCollisionMovementAdjust
PUBLIC	?GetAttribute@CCylinderCollisionInstance@@QAEAAUSCylinderData@@XZ ; CCylinderCollisionInstance::GetAttribute
PUBLIC	?GetAttribute@CCylinderCollisionInstance@@QBEABUSCylinderData@@XZ ; CCylinderCollisionInstance::GetAttribute
PUBLIC	?Render@CCylinderCollisionInstance@@UAEXW4_D3DFILLMODE@@@Z ; CCylinderCollisionInstance::Render
PUBLIC	?OnDestroy@CCylinderCollisionInstance@@MAEXXZ	; CCylinderCollisionInstance::OnDestroy
PUBLIC	?OnMovementCollisionDynamicSphere@CCylinderCollisionInstance@@MBE_NABUCDynamicSphereInstance@@@Z ; CCylinderCollisionInstance::OnMovementCollisionDynamicSphere
PUBLIC	?OnCollisionDynamicSphere@CCylinderCollisionInstance@@MBE_NABUCDynamicSphereInstance@@@Z ; CCylinderCollisionInstance::OnCollisionDynamicSphere
PUBLIC	?OnGetCollisionMovementAdjust@CCylinderCollisionInstance@@MBE?AUD3DXVECTOR3@@ABUCDynamicSphereInstance@@@Z ; CCylinderCollisionInstance::OnGetCollisionMovementAdjust
PUBLIC	?CollideCylinderVSDynamicSphere@CCylinderCollisionInstance@@IBE_NABUSCylinderData@@ABUCDynamicSphereInstance@@@Z ; CCylinderCollisionInstance::CollideCylinderVSDynamicSphere
PUBLIC	?square_distance_between_linesegment_and_point@@YAMABUD3DXVECTOR3@@00@Z ; square_distance_between_linesegment_and_point
PUBLIC	??1?$CDynamicPool@VCSphereCollisionInstance@@@@UAE@XZ ; CDynamicPool<CSphereCollisionInstance>::~CDynamicPool<CSphereCollisionInstance>
PUBLIC	?_Xlength@?$vector@PAVCSphereCollisionInstance@@V?$allocator@PAVCSphereCollisionInstance@@@std@@@std@@CAXXZ ; std::vector<CSphereCollisionInstance *,std::allocator<CSphereCollisionInstance *> >::_Xlength
PUBLIC	??1?$CDynamicPool@VCCylinderCollisionInstance@@@@UAE@XZ ; CDynamicPool<CCylinderCollisionInstance>::~CDynamicPool<CCylinderCollisionInstance>
PUBLIC	?_Xlength@?$vector@PAVCCylinderCollisionInstance@@V?$allocator@PAVCCylinderCollisionInstance@@@std@@@std@@CAXXZ ; std::vector<CCylinderCollisionInstance *,std::allocator<CCylinderCollisionInstance *> >::_Xlength
PUBLIC	??1?$CDynamicPool@VCPlaneCollisionInstance@@@@UAE@XZ ; CDynamicPool<CPlaneCollisionInstance>::~CDynamicPool<CPlaneCollisionInstance>
PUBLIC	?_Xlength@?$vector@PAVCPlaneCollisionInstance@@V?$allocator@PAVCPlaneCollisionInstance@@@std@@@std@@CAXXZ ; std::vector<CPlaneCollisionInstance *,std::allocator<CPlaneCollisionInstance *> >::_Xlength
PUBLIC	??1?$CDynamicPool@VCAABBCollisionInstance@@@@UAE@XZ ; CDynamicPool<CAABBCollisionInstance>::~CDynamicPool<CAABBCollisionInstance>
PUBLIC	?Alloc@?$CDynamicPool@VCAABBCollisionInstance@@@@QAEPAVCAABBCollisionInstance@@XZ ; CDynamicPool<CAABBCollisionInstance>::Alloc
PUBLIC	?_Xlength@?$vector@PAVCAABBCollisionInstance@@V?$allocator@PAVCAABBCollisionInstance@@@std@@@std@@CAXXZ ; std::vector<CAABBCollisionInstance *,std::allocator<CAABBCollisionInstance *> >::_Xlength
PUBLIC	??1?$CDynamicPool@VCOBBCollisionInstance@@@@UAE@XZ ; CDynamicPool<COBBCollisionInstance>::~CDynamicPool<COBBCollisionInstance>
PUBLIC	?_Xlength@?$vector@PAVCOBBCollisionInstance@@V?$allocator@PAVCOBBCollisionInstance@@@std@@@std@@CAXXZ ; std::vector<COBBCollisionInstance *,std::allocator<COBBCollisionInstance *> >::_Xlength
PUBLIC	??$_Emplace_reallocate@ABQAVCOBBCollisionInstance@@@?$vector@PAVCOBBCollisionInstance@@V?$allocator@PAVCOBBCollisionInstance@@@std@@@std@@AAEPAPAVCOBBCollisionInstance@@QAPAV2@ABQAV2@@Z ; std::vector<COBBCollisionInstance *,std::allocator<COBBCollisionInstance *> >::_Emplace_reallocate<COBBCollisionInstance * const &>
PUBLIC	??$_Emplace_reallocate@ABQAVCAABBCollisionInstance@@@?$vector@PAVCAABBCollisionInstance@@V?$allocator@PAVCAABBCollisionInstance@@@std@@@std@@AAEPAPAVCAABBCollisionInstance@@QAPAV2@ABQAV2@@Z ; std::vector<CAABBCollisionInstance *,std::allocator<CAABBCollisionInstance *> >::_Emplace_reallocate<CAABBCollisionInstance * const &>
PUBLIC	??$_Emplace_reallocate@ABQAVCPlaneCollisionInstance@@@?$vector@PAVCPlaneCollisionInstance@@V?$allocator@PAVCPlaneCollisionInstance@@@std@@@std@@AAEPAPAVCPlaneCollisionInstance@@QAPAV2@ABQAV2@@Z ; std::vector<CPlaneCollisionInstance *,std::allocator<CPlaneCollisionInstance *> >::_Emplace_reallocate<CPlaneCollisionInstance * const &>
PUBLIC	??$_Emplace_reallocate@ABQAVCCylinderCollisionInstance@@@?$vector@PAVCCylinderCollisionInstance@@V?$allocator@PAVCCylinderCollisionInstance@@@std@@@std@@AAEPAPAVCCylinderCollisionInstance@@QAPAV2@ABQAV2@@Z ; std::vector<CCylinderCollisionInstance *,std::allocator<CCylinderCollisionInstance *> >::_Emplace_reallocate<CCylinderCollisionInstance * const &>
PUBLIC	??$_Emplace_reallocate@ABQAVCSphereCollisionInstance@@@?$vector@PAVCSphereCollisionInstance@@V?$allocator@PAVCSphereCollisionInstance@@@std@@@std@@AAEPAPAVCSphereCollisionInstance@@QAPAV2@ABQAV2@@Z ; std::vector<CSphereCollisionInstance *,std::allocator<CSphereCollisionInstance *> >::_Emplace_reallocate<CSphereCollisionInstance * const &>
PUBLIC	??$_Copy_memmove@PAPAVCOBBCollisionInstance@@PAPAV1@@std@@YAPAPAVCOBBCollisionInstance@@PAPAV1@00@Z ; std::_Copy_memmove<COBBCollisionInstance * *,COBBCollisionInstance * *>
PUBLIC	??$_Copy_memmove@PAPAVCAABBCollisionInstance@@PAPAV1@@std@@YAPAPAVCAABBCollisionInstance@@PAPAV1@00@Z ; std::_Copy_memmove<CAABBCollisionInstance * *,CAABBCollisionInstance * *>
PUBLIC	??$_Copy_memmove@PAPAVCPlaneCollisionInstance@@PAPAV1@@std@@YAPAPAVCPlaneCollisionInstance@@PAPAV1@00@Z ; std::_Copy_memmove<CPlaneCollisionInstance * *,CPlaneCollisionInstance * *>
PUBLIC	??$_Copy_memmove@PAPAVCCylinderCollisionInstance@@PAPAV1@@std@@YAPAPAVCCylinderCollisionInstance@@PAPAV1@00@Z ; std::_Copy_memmove<CCylinderCollisionInstance * *,CCylinderCollisionInstance * *>
PUBLIC	??$_Copy_memmove@PAPAVCSphereCollisionInstance@@PAPAV1@@std@@YAPAPAVCSphereCollisionInstance@@PAPAV1@00@Z ; std::_Copy_memmove<CSphereCollisionInstance * *,CSphereCollisionInstance * *>
PUBLIC	??$_Copy_memmove_tail@PAPAVCOBBCollisionInstance@@@std@@YAPAPAVCOBBCollisionInstance@@QBDQAPAV1@II@Z ; std::_Copy_memmove_tail<COBBCollisionInstance * *>
PUBLIC	??$_Copy_memmove_tail@PAPAVCAABBCollisionInstance@@@std@@YAPAPAVCAABBCollisionInstance@@QBDQAPAV1@II@Z ; std::_Copy_memmove_tail<CAABBCollisionInstance * *>
PUBLIC	??$_Copy_memmove_tail@PAPAVCPlaneCollisionInstance@@@std@@YAPAPAVCPlaneCollisionInstance@@QBDQAPAV1@II@Z ; std::_Copy_memmove_tail<CPlaneCollisionInstance * *>
PUBLIC	??$_Copy_memmove_tail@PAPAVCCylinderCollisionInstance@@@std@@YAPAPAVCCylinderCollisionInstance@@QBDQAPAV1@II@Z ; std::_Copy_memmove_tail<CCylinderCollisionInstance * *>
PUBLIC	??$_Copy_memmove_tail@PAPAVCSphereCollisionInstance@@@std@@YAPAPAVCSphereCollisionInstance@@QBDQAPAV1@II@Z ; std::_Copy_memmove_tail<CSphereCollisionInstance * *>
PUBLIC	??_7exception@std@@6B@				; std::exception::`vftable'
PUBLIC	??_C@_0BC@EOODALEL@Unknown?5exception@		; `string'
PUBLIC	??_7bad_alloc@std@@6B@				; std::bad_alloc::`vftable'
PUBLIC	??_7bad_array_new_length@std@@6B@		; std::bad_array_new_length::`vftable'
PUBLIC	??_C@_0BF@KINCDENJ@bad?5array?5new?5length@	; `string'
PUBLIC	??_R0?AVexception@std@@@8			; std::exception `RTTI Type Descriptor'
PUBLIC	__CT??_R0?AVexception@std@@@8??0exception@std@@QAE@ABV01@@Z12
PUBLIC	__TI3?AVbad_array_new_length@std@@
PUBLIC	__CTA3?AVbad_array_new_length@std@@
PUBLIC	??_R0?AVbad_array_new_length@std@@@8		; std::bad_array_new_length `RTTI Type Descriptor'
PUBLIC	__CT??_R0?AVbad_array_new_length@std@@@8??0bad_array_new_length@std@@QAE@ABV01@@Z12
PUBLIC	??_R0?AVbad_alloc@std@@@8			; std::bad_alloc `RTTI Type Descriptor'
PUBLIC	__CT??_R0?AVbad_alloc@std@@@8??0bad_alloc@std@@QAE@ABV01@@Z12
PUBLIC	??_R4exception@std@@6B@				; std::exception::`RTTI Complete Object Locator'
PUBLIC	??_R3exception@std@@8				; std::exception::`RTTI Class Hierarchy Descriptor'
PUBLIC	??_R2exception@std@@8				; std::exception::`RTTI Base Class Array'
PUBLIC	??_R1A@?0A@EA@exception@std@@8			; std::exception::`RTTI Base Class Descriptor at (0,-1,0,64)'
PUBLIC	??_R4bad_array_new_length@std@@6B@		; std::bad_array_new_length::`RTTI Complete Object Locator'
PUBLIC	??_R3bad_array_new_length@std@@8		; std::bad_array_new_length::`RTTI Class Hierarchy Descriptor'
PUBLIC	??_R2bad_array_new_length@std@@8		; std::bad_array_new_length::`RTTI Base Class Array'
PUBLIC	??_R1A@?0A@EA@bad_array_new_length@std@@8	; std::bad_array_new_length::`RTTI Base Class Descriptor at (0,-1,0,64)'
PUBLIC	??_R1A@?0A@EA@bad_alloc@std@@8			; std::bad_alloc::`RTTI Base Class Descriptor at (0,-1,0,64)'
PUBLIC	??_R3bad_alloc@std@@8				; std::bad_alloc::`RTTI Class Hierarchy Descriptor'
PUBLIC	??_R2bad_alloc@std@@8				; std::bad_alloc::`RTTI Base Class Array'
PUBLIC	??_R4bad_alloc@std@@6B@				; std::bad_alloc::`RTTI Complete Object Locator'
PUBLIC	??_7CBaseCollisionInstance@@6B@			; CBaseCollisionInstance::`vftable'
PUBLIC	??_7CSphereCollisionInstance@@6B@		; CSphereCollisionInstance::`vftable'
PUBLIC	??_7CPlaneCollisionInstance@@6B@		; CPlaneCollisionInstance::`vftable'
PUBLIC	??_7CAABBCollisionInstance@@6B@			; CAABBCollisionInstance::`vftable'
PUBLIC	??_7COBBCollisionInstance@@6B@			; COBBCollisionInstance::`vftable'
PUBLIC	??_7CCylinderCollisionInstance@@6B@		; CCylinderCollisionInstance::`vftable'
PUBLIC	?ms_singleton@?$CSingleton@VCStateManager@@@@0PAVCStateManager@@A ; CSingleton<CStateManager>::ms_singleton
PUBLIC	?gs_sci@@3V?$CDynamicPool@VCSphereCollisionInstance@@@@A ; gs_sci
PUBLIC	?gs_cci@@3V?$CDynamicPool@VCCylinderCollisionInstance@@@@A ; gs_cci
PUBLIC	?gs_pci@@3V?$CDynamicPool@VCPlaneCollisionInstance@@@@A ; gs_pci
PUBLIC	?gs_aci@@3V?$CDynamicPool@VCAABBCollisionInstance@@@@A ; gs_aci
PUBLIC	?gs_oci@@3V?$CDynamicPool@VCOBBCollisionInstance@@@@A ; gs_oci
PUBLIC	??_C@_0BA@FOIKENOD@vector?5too?5long@		; `string'
PUBLIC	??_R4CBaseCollisionInstance@@6B@		; CBaseCollisionInstance::`RTTI Complete Object Locator'
PUBLIC	??_R0?AVCBaseCollisionInstance@@@8		; CBaseCollisionInstance `RTTI Type Descriptor'
PUBLIC	??_R3CBaseCollisionInstance@@8			; CBaseCollisionInstance::`RTTI Class Hierarchy Descriptor'
PUBLIC	??_R2CBaseCollisionInstance@@8			; CBaseCollisionInstance::`RTTI Base Class Array'
PUBLIC	??_R1A@?0A@EA@CBaseCollisionInstance@@8		; CBaseCollisionInstance::`RTTI Base Class Descriptor at (0,-1,0,64)'
PUBLIC	??_R4CSphereCollisionInstance@@6B@		; CSphereCollisionInstance::`RTTI Complete Object Locator'
PUBLIC	??_R0?AVCSphereCollisionInstance@@@8		; CSphereCollisionInstance `RTTI Type Descriptor'
PUBLIC	??_R3CSphereCollisionInstance@@8		; CSphereCollisionInstance::`RTTI Class Hierarchy Descriptor'
PUBLIC	??_R2CSphereCollisionInstance@@8		; CSphereCollisionInstance::`RTTI Base Class Array'
PUBLIC	??_R1A@?0A@EA@CSphereCollisionInstance@@8	; CSphereCollisionInstance::`RTTI Base Class Descriptor at (0,-1,0,64)'
PUBLIC	??_R4CPlaneCollisionInstance@@6B@		; CPlaneCollisionInstance::`RTTI Complete Object Locator'
PUBLIC	??_R0?AVCPlaneCollisionInstance@@@8		; CPlaneCollisionInstance `RTTI Type Descriptor'
PUBLIC	??_R3CPlaneCollisionInstance@@8			; CPlaneCollisionInstance::`RTTI Class Hierarchy Descriptor'
PUBLIC	??_R2CPlaneCollisionInstance@@8			; CPlaneCollisionInstance::`RTTI Base Class Array'
PUBLIC	??_R1A@?0A@EA@CPlaneCollisionInstance@@8	; CPlaneCollisionInstance::`RTTI Base Class Descriptor at (0,-1,0,64)'
PUBLIC	??_R4CAABBCollisionInstance@@6B@		; CAABBCollisionInstance::`RTTI Complete Object Locator'
PUBLIC	??_R0?AVCAABBCollisionInstance@@@8		; CAABBCollisionInstance `RTTI Type Descriptor'
PUBLIC	??_R3CAABBCollisionInstance@@8			; CAABBCollisionInstance::`RTTI Class Hierarchy Descriptor'
PUBLIC	??_R2CAABBCollisionInstance@@8			; CAABBCollisionInstance::`RTTI Base Class Array'
PUBLIC	??_R1A@?0A@EA@CAABBCollisionInstance@@8		; CAABBCollisionInstance::`RTTI Base Class Descriptor at (0,-1,0,64)'
PUBLIC	??_R4COBBCollisionInstance@@6B@			; COBBCollisionInstance::`RTTI Complete Object Locator'
PUBLIC	??_R0?AVCOBBCollisionInstance@@@8		; COBBCollisionInstance `RTTI Type Descriptor'
PUBLIC	??_R3COBBCollisionInstance@@8			; COBBCollisionInstance::`RTTI Class Hierarchy Descriptor'
PUBLIC	??_R2COBBCollisionInstance@@8			; COBBCollisionInstance::`RTTI Base Class Array'
PUBLIC	??_R1A@?0A@EA@COBBCollisionInstance@@8		; COBBCollisionInstance::`RTTI Base Class Descriptor at (0,-1,0,64)'
PUBLIC	??_R4CCylinderCollisionInstance@@6B@		; CCylinderCollisionInstance::`RTTI Complete Object Locator'
PUBLIC	??_R0?AVCCylinderCollisionInstance@@@8		; CCylinderCollisionInstance `RTTI Type Descriptor'
PUBLIC	??_R3CCylinderCollisionInstance@@8		; CCylinderCollisionInstance::`RTTI Class Hierarchy Descriptor'
PUBLIC	??_R2CCylinderCollisionInstance@@8		; CCylinderCollisionInstance::`RTTI Base Class Array'
PUBLIC	??_R1A@?0A@EA@CCylinderCollisionInstance@@8	; CCylinderCollisionInstance::`RTTI Base Class Descriptor at (0,-1,0,64)'
PUBLIC	__real@00000000
PUBLIC	__real@38d1b717
PUBLIC	__real@3f000000
PUBLIC	__real@3f1a36e2eb1c432d
PUBLIC	__real@3f800000
PUBLIC	__real@40800000
PUBLIC	__real@bf1a36e2eb1c432d
PUBLIC	__xmm@7fffffffffffffff7fffffffffffffff
PUBLIC	__xmm@80000000800000008000000080000000
EXTRN	__purecall:PROC
EXTRN	??2@YAPAXI@Z:PROC				; operator new
EXTRN	??3@YAXPAXI@Z:PROC				; operator delete
EXTRN	_atexit:PROC
EXTRN	__Init_thread_header:PROC
EXTRN	__Init_thread_abort:PROC
EXTRN	__Init_thread_footer:PROC
EXTRN	__invalid_parameter_noinfo_noreturn:PROC
EXTRN	_D3DXVec3Normalize@8:PROC
EXTRN	_D3DXVec3TransformCoord@12:PROC
EXTRN	_D3DXMatrixMultiply@12:PROC
EXTRN	_D3DXMatrixTranslation@16:PROC
EXTRN	_D3DXMatrixRotationQuaternion@8:PROC
EXTRN	?_Xlength_error@std@@YAXPBD@Z:PROC		; std::_Xlength_error
EXTRN	___std_exception_copy:PROC
EXTRN	___std_exception_destroy:PROC
EXTRN	??_Eexception@std@@UAEPAXI@Z:PROC		; std::exception::`vector deleting destructor'
EXTRN	??_Ebad_alloc@std@@UAEPAXI@Z:PROC		; std::bad_alloc::`vector deleting destructor'
EXTRN	??_Ebad_array_new_length@std@@UAEPAXI@Z:PROC	; std::bad_array_new_length::`vector deleting destructor'
EXTRN	??0CScreen@@QAE@XZ:PROC				; CScreen::CScreen
EXTRN	??1CScreen@@UAE@XZ:PROC				; CScreen::~CScreen
EXTRN	?RenderBar3d@CScreen@@QAEXPBUD3DXVECTOR3@@@Z:PROC ; CScreen::RenderBar3d
EXTRN	?RenderCube@CScreen@@QAEXMMMMMM@Z:PROC		; CScreen::RenderCube
EXTRN	?RenderCube@CScreen@@QAEXMMMMMMUD3DXMATRIX@@@Z:PROC ; CScreen::RenderCube
EXTRN	?RenderSphere@CScreen@@QAEXPBUD3DXMATRIX@@MMMMW4_D3DFILLMODE@@@Z:PROC ; CScreen::RenderSphere
EXTRN	?RenderCylinder@CScreen@@QAEXPBUD3DXMATRIX@@MMMMMW4_D3DFILLMODE@@@Z:PROC ; CScreen::RenderCylinder
EXTRN	?IntersectLineSegments@@YAXABUD3DXVECTOR3@@000AAU1@1@Z:PROC ; IntersectLineSegments
EXTRN	?SetRenderState@CStateManager@@QAEXW4_D3DRENDERSTATETYPE@@K@Z:PROC ; CStateManager::SetRenderState
EXTRN	@__security_check_cookie@4:PROC
EXTRN	__CxxThrowException@8:PROC
EXTRN	___CxxFrameHandler3:PROC
EXTRN	__libm_sse2_sqrt_precise:PROC
EXTRN	_memmove:PROC
EXTRN	__Init_thread_epoch:DWORD
EXTRN	___security_cookie:DWORD
EXTRN	__fltused:DWORD
EXTRN	__tls_array:DWORD
EXTRN	__tls_index:DWORD
;	COMDAT ?ms_singleton@?$CSingleton@VCStateManager@@@@0PAVCStateManager@@A
_BSS	SEGMENT
?ms_singleton@?$CSingleton@VCStateManager@@@@0PAVCStateManager@@A DD 01H DUP (?) ; CSingleton<CStateManager>::ms_singleton
_BSS	ENDS
;	COMDAT ?s@?1??Render@CSphereCollisionInstance@@UAEXW4_D3DFILLMODE@@@Z@4VCScreen@@A
_BSS	SEGMENT
?s@?1??Render@CSphereCollisionInstance@@UAEXW4_D3DFILLMODE@@@Z@4VCScreen@@A DD 01H DUP (?) ; `CSphereCollisionInstance::Render'::`2'::s
_BSS	ENDS
;	COMDAT ?$TSS0@?1??Render@CSphereCollisionInstance@@UAEXW4_D3DFILLMODE@@@Z@4HA
_BSS	SEGMENT
?$TSS0@?1??Render@CSphereCollisionInstance@@UAEXW4_D3DFILLMODE@@@Z@4HA DD 01H DUP (?) ; `CSphereCollisionInstance::Render'::`2'::$TSS0
_BSS	ENDS
;	COMDAT ?s@?1??Render@CPlaneCollisionInstance@@UAEXW4_D3DFILLMODE@@@Z@4VCScreen@@A
_BSS	SEGMENT
?s@?1??Render@CPlaneCollisionInstance@@UAEXW4_D3DFILLMODE@@@Z@4VCScreen@@A DD 01H DUP (?) ; `CPlaneCollisionInstance::Render'::`2'::s
_BSS	ENDS
;	COMDAT ?$TSS0@?1??Render@CPlaneCollisionInstance@@UAEXW4_D3DFILLMODE@@@Z@4HA
_BSS	SEGMENT
?$TSS0@?1??Render@CPlaneCollisionInstance@@UAEXW4_D3DFILLMODE@@@Z@4HA DD 01H DUP (?) ; `CPlaneCollisionInstance::Render'::`2'::$TSS0
_BSS	ENDS
;	COMDAT ?s@?1??Render@CCylinderCollisionInstance@@UAEXW4_D3DFILLMODE@@@Z@4VCScreen@@A
_BSS	SEGMENT
?s@?1??Render@CCylinderCollisionInstance@@UAEXW4_D3DFILLMODE@@@Z@4VCScreen@@A DD 01H DUP (?) ; `CCylinderCollisionInstance::Render'::`2'::s
_BSS	ENDS
;	COMDAT ?$TSS0@?1??Render@CCylinderCollisionInstance@@UAEXW4_D3DFILLMODE@@@Z@4HA
_BSS	SEGMENT
?$TSS0@?1??Render@CCylinderCollisionInstance@@UAEXW4_D3DFILLMODE@@@Z@4HA DD 01H DUP (?) ; `CCylinderCollisionInstance::Render'::`2'::$TSS0
_BSS	ENDS
;	COMDAT ?s@?1??Render@CAABBCollisionInstance@@UAEXW4_D3DFILLMODE@@@Z@4VCScreen@@A
_BSS	SEGMENT
?s@?1??Render@CAABBCollisionInstance@@UAEXW4_D3DFILLMODE@@@Z@4VCScreen@@A DD 01H DUP (?) ; `CAABBCollisionInstance::Render'::`2'::s
_BSS	ENDS
;	COMDAT ?$TSS0@?1??Render@CAABBCollisionInstance@@UAEXW4_D3DFILLMODE@@@Z@4HA
_BSS	SEGMENT
?$TSS0@?1??Render@CAABBCollisionInstance@@UAEXW4_D3DFILLMODE@@@Z@4HA DD 01H DUP (?) ; `CAABBCollisionInstance::Render'::`2'::$TSS0
_BSS	ENDS
;	COMDAT ?s@?1??Render@COBBCollisionInstance@@UAEXW4_D3DFILLMODE@@@Z@4VCScreen@@A
_BSS	SEGMENT
?s@?1??Render@COBBCollisionInstance@@UAEXW4_D3DFILLMODE@@@Z@4VCScreen@@A DD 01H DUP (?) ; `COBBCollisionInstance::Render'::`2'::s
_BSS	ENDS
;	COMDAT ?$TSS0@?1??Render@COBBCollisionInstance@@UAEXW4_D3DFILLMODE@@@Z@4HA
_BSS	SEGMENT
?$TSS0@?1??Render@COBBCollisionInstance@@UAEXW4_D3DFILLMODE@@@Z@4HA DD 01H DUP (?) ; `COBBCollisionInstance::Render'::`2'::$TSS0
_BSS	ENDS
CRT$XCU	SEGMENT
?gs_sci$initializer$@@3P6AXXZA DD FLAT:??__Egs_sci@@YAXXZ ; gs_sci$initializer$
CRT$XCU	ENDS
;	COMDAT __xmm@80000000800000008000000080000000
CONST	SEGMENT
__xmm@80000000800000008000000080000000 DB 00H, 00H, 00H, 080H, 00H, 00H, 00H
	DB	080H, 00H, 00H, 00H, 080H, 00H, 00H, 00H, 080H
CONST	ENDS
;	COMDAT __xmm@7fffffffffffffff7fffffffffffffff
CONST	SEGMENT
__xmm@7fffffffffffffff7fffffffffffffff DB 0ffH, 0ffH, 0ffH, 0ffH, 0ffH, 0ffH
	DB	0ffH, 07fH, 0ffH, 0ffH, 0ffH, 0ffH, 0ffH, 0ffH, 0ffH, 07fH
CONST	ENDS
;	COMDAT __real@bf1a36e2eb1c432d
CONST	SEGMENT
__real@bf1a36e2eb1c432d DQ 0bf1a36e2eb1c432dr	; -0.0001
CONST	ENDS
;	COMDAT __real@40800000
CONST	SEGMENT
__real@40800000 DD 040800000r			; 4
CONST	ENDS
;	COMDAT __real@3f800000
CONST	SEGMENT
__real@3f800000 DD 03f800000r			; 1
CONST	ENDS
;	COMDAT __real@3f1a36e2eb1c432d
CONST	SEGMENT
__real@3f1a36e2eb1c432d DQ 03f1a36e2eb1c432dr	; 0.0001
CONST	ENDS
;	COMDAT __real@3f000000
CONST	SEGMENT
__real@3f000000 DD 03f000000r			; 0.5
CONST	ENDS
;	COMDAT __real@38d1b717
CONST	SEGMENT
__real@38d1b717 DD 038d1b717r			; 0.0001
CONST	ENDS
;	COMDAT __real@00000000
CONST	SEGMENT
__real@00000000 DD 000000000r			; 0
CONST	ENDS
;	COMDAT ??_R1A@?0A@EA@CCylinderCollisionInstance@@8
rdata$r	SEGMENT
??_R1A@?0A@EA@CCylinderCollisionInstance@@8 DD FLAT:??_R0?AVCCylinderCollisionInstance@@@8 ; CCylinderCollisionInstance::`RTTI Base Class Descriptor at (0,-1,0,64)'
	DD	01H
	DD	00H
	DD	0ffffffffH
	DD	00H
	DD	040H
	DD	FLAT:??_R3CCylinderCollisionInstance@@8
rdata$r	ENDS
;	COMDAT ??_R2CCylinderCollisionInstance@@8
rdata$r	SEGMENT
??_R2CCylinderCollisionInstance@@8 DD FLAT:??_R1A@?0A@EA@CCylinderCollisionInstance@@8 ; CCylinderCollisionInstance::`RTTI Base Class Array'
	DD	FLAT:??_R1A@?0A@EA@CBaseCollisionInstance@@8
rdata$r	ENDS
;	COMDAT ??_R3CCylinderCollisionInstance@@8
rdata$r	SEGMENT
??_R3CCylinderCollisionInstance@@8 DD 00H		; CCylinderCollisionInstance::`RTTI Class Hierarchy Descriptor'
	DD	00H
	DD	02H
	DD	FLAT:??_R2CCylinderCollisionInstance@@8
rdata$r	ENDS
;	COMDAT ??_R0?AVCCylinderCollisionInstance@@@8
data$rs	SEGMENT
??_R0?AVCCylinderCollisionInstance@@@8 DD FLAT:??_7type_info@@6B@ ; CCylinderCollisionInstance `RTTI Type Descriptor'
	DD	00H
	DB	'.?AVCCylinderCollisionInstance@@', 00H
data$rs	ENDS
;	COMDAT ??_R4CCylinderCollisionInstance@@6B@
rdata$r	SEGMENT
??_R4CCylinderCollisionInstance@@6B@ DD 00H		; CCylinderCollisionInstance::`RTTI Complete Object Locator'
	DD	00H
	DD	00H
	DD	FLAT:??_R0?AVCCylinderCollisionInstance@@@8
	DD	FLAT:??_R3CCylinderCollisionInstance@@8
rdata$r	ENDS
;	COMDAT ??_R1A@?0A@EA@COBBCollisionInstance@@8
rdata$r	SEGMENT
??_R1A@?0A@EA@COBBCollisionInstance@@8 DD FLAT:??_R0?AVCOBBCollisionInstance@@@8 ; COBBCollisionInstance::`RTTI Base Class Descriptor at (0,-1,0,64)'
	DD	01H
	DD	00H
	DD	0ffffffffH
	DD	00H
	DD	040H
	DD	FLAT:??_R3COBBCollisionInstance@@8
rdata$r	ENDS
;	COMDAT ??_R2COBBCollisionInstance@@8
rdata$r	SEGMENT
??_R2COBBCollisionInstance@@8 DD FLAT:??_R1A@?0A@EA@COBBCollisionInstance@@8 ; COBBCollisionInstance::`RTTI Base Class Array'
	DD	FLAT:??_R1A@?0A@EA@CBaseCollisionInstance@@8
rdata$r	ENDS
;	COMDAT ??_R3COBBCollisionInstance@@8
rdata$r	SEGMENT
??_R3COBBCollisionInstance@@8 DD 00H			; COBBCollisionInstance::`RTTI Class Hierarchy Descriptor'
	DD	00H
	DD	02H
	DD	FLAT:??_R2COBBCollisionInstance@@8
rdata$r	ENDS
;	COMDAT ??_R0?AVCOBBCollisionInstance@@@8
data$rs	SEGMENT
??_R0?AVCOBBCollisionInstance@@@8 DD FLAT:??_7type_info@@6B@ ; COBBCollisionInstance `RTTI Type Descriptor'
	DD	00H
	DB	'.?AVCOBBCollisionInstance@@', 00H
data$rs	ENDS
;	COMDAT ??_R4COBBCollisionInstance@@6B@
rdata$r	SEGMENT
??_R4COBBCollisionInstance@@6B@ DD 00H			; COBBCollisionInstance::`RTTI Complete Object Locator'
	DD	00H
	DD	00H
	DD	FLAT:??_R0?AVCOBBCollisionInstance@@@8
	DD	FLAT:??_R3COBBCollisionInstance@@8
rdata$r	ENDS
;	COMDAT ??_R1A@?0A@EA@CAABBCollisionInstance@@8
rdata$r	SEGMENT
??_R1A@?0A@EA@CAABBCollisionInstance@@8 DD FLAT:??_R0?AVCAABBCollisionInstance@@@8 ; CAABBCollisionInstance::`RTTI Base Class Descriptor at (0,-1,0,64)'
	DD	01H
	DD	00H
	DD	0ffffffffH
	DD	00H
	DD	040H
	DD	FLAT:??_R3CAABBCollisionInstance@@8
rdata$r	ENDS
;	COMDAT ??_R2CAABBCollisionInstance@@8
rdata$r	SEGMENT
??_R2CAABBCollisionInstance@@8 DD FLAT:??_R1A@?0A@EA@CAABBCollisionInstance@@8 ; CAABBCollisionInstance::`RTTI Base Class Array'
	DD	FLAT:??_R1A@?0A@EA@CBaseCollisionInstance@@8
rdata$r	ENDS
;	COMDAT ??_R3CAABBCollisionInstance@@8
rdata$r	SEGMENT
??_R3CAABBCollisionInstance@@8 DD 00H			; CAABBCollisionInstance::`RTTI Class Hierarchy Descriptor'
	DD	00H
	DD	02H
	DD	FLAT:??_R2CAABBCollisionInstance@@8
rdata$r	ENDS
;	COMDAT ??_R0?AVCAABBCollisionInstance@@@8
data$rs	SEGMENT
??_R0?AVCAABBCollisionInstance@@@8 DD FLAT:??_7type_info@@6B@ ; CAABBCollisionInstance `RTTI Type Descriptor'
	DD	00H
	DB	'.?AVCAABBCollisionInstance@@', 00H
data$rs	ENDS
;	COMDAT ??_R4CAABBCollisionInstance@@6B@
rdata$r	SEGMENT
??_R4CAABBCollisionInstance@@6B@ DD 00H			; CAABBCollisionInstance::`RTTI Complete Object Locator'
	DD	00H
	DD	00H
	DD	FLAT:??_R0?AVCAABBCollisionInstance@@@8
	DD	FLAT:??_R3CAABBCollisionInstance@@8
rdata$r	ENDS
;	COMDAT ??_R1A@?0A@EA@CPlaneCollisionInstance@@8
rdata$r	SEGMENT
??_R1A@?0A@EA@CPlaneCollisionInstance@@8 DD FLAT:??_R0?AVCPlaneCollisionInstance@@@8 ; CPlaneCollisionInstance::`RTTI Base Class Descriptor at (0,-1,0,64)'
	DD	01H
	DD	00H
	DD	0ffffffffH
	DD	00H
	DD	040H
	DD	FLAT:??_R3CPlaneCollisionInstance@@8
rdata$r	ENDS
;	COMDAT ??_R2CPlaneCollisionInstance@@8
rdata$r	SEGMENT
??_R2CPlaneCollisionInstance@@8 DD FLAT:??_R1A@?0A@EA@CPlaneCollisionInstance@@8 ; CPlaneCollisionInstance::`RTTI Base Class Array'
	DD	FLAT:??_R1A@?0A@EA@CBaseCollisionInstance@@8
rdata$r	ENDS
;	COMDAT ??_R3CPlaneCollisionInstance@@8
rdata$r	SEGMENT
??_R3CPlaneCollisionInstance@@8 DD 00H			; CPlaneCollisionInstance::`RTTI Class Hierarchy Descriptor'
	DD	00H
	DD	02H
	DD	FLAT:??_R2CPlaneCollisionInstance@@8
rdata$r	ENDS
;	COMDAT ??_R0?AVCPlaneCollisionInstance@@@8
data$rs	SEGMENT
??_R0?AVCPlaneCollisionInstance@@@8 DD FLAT:??_7type_info@@6B@ ; CPlaneCollisionInstance `RTTI Type Descriptor'
	DD	00H
	DB	'.?AVCPlaneCollisionInstance@@', 00H
data$rs	ENDS
;	COMDAT ??_R4CPlaneCollisionInstance@@6B@
rdata$r	SEGMENT
??_R4CPlaneCollisionInstance@@6B@ DD 00H		; CPlaneCollisionInstance::`RTTI Complete Object Locator'
	DD	00H
	DD	00H
	DD	FLAT:??_R0?AVCPlaneCollisionInstance@@@8
	DD	FLAT:??_R3CPlaneCollisionInstance@@8
rdata$r	ENDS
;	COMDAT ??_R1A@?0A@EA@CSphereCollisionInstance@@8
rdata$r	SEGMENT
??_R1A@?0A@EA@CSphereCollisionInstance@@8 DD FLAT:??_R0?AVCSphereCollisionInstance@@@8 ; CSphereCollisionInstance::`RTTI Base Class Descriptor at (0,-1,0,64)'
	DD	01H
	DD	00H
	DD	0ffffffffH
	DD	00H
	DD	040H
	DD	FLAT:??_R3CSphereCollisionInstance@@8
rdata$r	ENDS
;	COMDAT ??_R2CSphereCollisionInstance@@8
rdata$r	SEGMENT
??_R2CSphereCollisionInstance@@8 DD FLAT:??_R1A@?0A@EA@CSphereCollisionInstance@@8 ; CSphereCollisionInstance::`RTTI Base Class Array'
	DD	FLAT:??_R1A@?0A@EA@CBaseCollisionInstance@@8
rdata$r	ENDS
;	COMDAT ??_R3CSphereCollisionInstance@@8
rdata$r	SEGMENT
??_R3CSphereCollisionInstance@@8 DD 00H			; CSphereCollisionInstance::`RTTI Class Hierarchy Descriptor'
	DD	00H
	DD	02H
	DD	FLAT:??_R2CSphereCollisionInstance@@8
rdata$r	ENDS
;	COMDAT ??_R0?AVCSphereCollisionInstance@@@8
data$rs	SEGMENT
??_R0?AVCSphereCollisionInstance@@@8 DD FLAT:??_7type_info@@6B@ ; CSphereCollisionInstance `RTTI Type Descriptor'
	DD	00H
	DB	'.?AVCSphereCollisionInstance@@', 00H
data$rs	ENDS
;	COMDAT ??_R4CSphereCollisionInstance@@6B@
rdata$r	SEGMENT
??_R4CSphereCollisionInstance@@6B@ DD 00H		; CSphereCollisionInstance::`RTTI Complete Object Locator'
	DD	00H
	DD	00H
	DD	FLAT:??_R0?AVCSphereCollisionInstance@@@8
	DD	FLAT:??_R3CSphereCollisionInstance@@8
rdata$r	ENDS
;	COMDAT ??_R1A@?0A@EA@CBaseCollisionInstance@@8
rdata$r	SEGMENT
??_R1A@?0A@EA@CBaseCollisionInstance@@8 DD FLAT:??_R0?AVCBaseCollisionInstance@@@8 ; CBaseCollisionInstance::`RTTI Base Class Descriptor at (0,-1,0,64)'
	DD	00H
	DD	00H
	DD	0ffffffffH
	DD	00H
	DD	040H
	DD	FLAT:??_R3CBaseCollisionInstance@@8
rdata$r	ENDS
;	COMDAT ??_R2CBaseCollisionInstance@@8
rdata$r	SEGMENT
??_R2CBaseCollisionInstance@@8 DD FLAT:??_R1A@?0A@EA@CBaseCollisionInstance@@8 ; CBaseCollisionInstance::`RTTI Base Class Array'
rdata$r	ENDS
;	COMDAT ??_R3CBaseCollisionInstance@@8
rdata$r	SEGMENT
??_R3CBaseCollisionInstance@@8 DD 00H			; CBaseCollisionInstance::`RTTI Class Hierarchy Descriptor'
	DD	00H
	DD	01H
	DD	FLAT:??_R2CBaseCollisionInstance@@8
rdata$r	ENDS
;	COMDAT ??_R0?AVCBaseCollisionInstance@@@8
data$rs	SEGMENT
??_R0?AVCBaseCollisionInstance@@@8 DD FLAT:??_7type_info@@6B@ ; CBaseCollisionInstance `RTTI Type Descriptor'
	DD	00H
	DB	'.?AVCBaseCollisionInstance@@', 00H
data$rs	ENDS
;	COMDAT ??_R4CBaseCollisionInstance@@6B@
rdata$r	SEGMENT
??_R4CBaseCollisionInstance@@6B@ DD 00H			; CBaseCollisionInstance::`RTTI Complete Object Locator'
	DD	00H
	DD	00H
	DD	FLAT:??_R0?AVCBaseCollisionInstance@@@8
	DD	FLAT:??_R3CBaseCollisionInstance@@8
rdata$r	ENDS
;	COMDAT ??_C@_0BA@FOIKENOD@vector?5too?5long@
CONST	SEGMENT
??_C@_0BA@FOIKENOD@vector?5too?5long@ DB 'vector too long', 00H ; `string'
CONST	ENDS
_DATA	SEGMENT
?gs_sci@@3V?$CDynamicPool@VCSphereCollisionInstance@@@@A DD FLAT:??_7?$CDynamicPool@VCSphereCollisionInstance@@@@6B@ ; gs_sci
	DD	00H
	DD	00H
	DD	00H
	DD	00H
	DD	00H
	DD	00H
	DD	00H
	DD	00H
?gs_cci@@3V?$CDynamicPool@VCCylinderCollisionInstance@@@@A DD FLAT:??_7?$CDynamicPool@VCCylinderCollisionInstance@@@@6B@ ; gs_cci
	DD	00H
	DD	00H
	DD	00H
	DD	00H
	DD	00H
	DD	00H
	DD	00H
	DD	00H
?gs_pci@@3V?$CDynamicPool@VCPlaneCollisionInstance@@@@A DD FLAT:??_7?$CDynamicPool@VCPlaneCollisionInstance@@@@6B@ ; gs_pci
	DD	00H
	DD	00H
	DD	00H
	DD	00H
	DD	00H
	DD	00H
	DD	00H
	DD	00H
?gs_aci@@3V?$CDynamicPool@VCAABBCollisionInstance@@@@A DD FLAT:??_7?$CDynamicPool@VCAABBCollisionInstance@@@@6B@ ; gs_aci
	DD	00H
	DD	00H
	DD	00H
	DD	00H
	DD	00H
	DD	00H
	DD	00H
	DD	00H
?gs_oci@@3V?$CDynamicPool@VCOBBCollisionInstance@@@@A DD FLAT:??_7?$CDynamicPool@VCOBBCollisionInstance@@@@6B@ ; gs_oci
	DD	00H
	DD	00H
	DD	00H
	DD	00H
	DD	00H
	DD	00H
	DD	00H
	DD	00H
_DATA	ENDS
;	COMDAT ??_7CCylinderCollisionInstance@@6B@
CONST	SEGMENT
??_7CCylinderCollisionInstance@@6B@ DD FLAT:??_R4CCylinderCollisionInstance@@6B@ ; CCylinderCollisionInstance::`vftable'
	DD	FLAT:?Render@CCylinderCollisionInstance@@UAEXW4_D3DFILLMODE@@@Z
	DD	FLAT:?OnGetCollisionMovementAdjust@CCylinderCollisionInstance@@MBE?AUD3DXVECTOR3@@ABUCDynamicSphereInstance@@@Z
	DD	FLAT:?OnMovementCollisionDynamicSphere@CCylinderCollisionInstance@@MBE_NABUCDynamicSphereInstance@@@Z
	DD	FLAT:?OnCollisionDynamicSphere@CCylinderCollisionInstance@@MBE_NABUCDynamicSphereInstance@@@Z
	DD	FLAT:?OnDestroy@CCylinderCollisionInstance@@MAEXXZ
CONST	ENDS
;	COMDAT ??_7COBBCollisionInstance@@6B@
CONST	SEGMENT
??_7COBBCollisionInstance@@6B@ DD FLAT:??_R4COBBCollisionInstance@@6B@ ; COBBCollisionInstance::`vftable'
	DD	FLAT:?Render@COBBCollisionInstance@@UAEXW4_D3DFILLMODE@@@Z
	DD	FLAT:?OnGetCollisionMovementAdjust@COBBCollisionInstance@@MBE?AUD3DXVECTOR3@@ABUCDynamicSphereInstance@@@Z
	DD	FLAT:?OnMovementCollisionDynamicSphere@COBBCollisionInstance@@MBE_NABUCDynamicSphereInstance@@@Z
	DD	FLAT:?OnCollisionDynamicSphere@COBBCollisionInstance@@MBE_NABUCDynamicSphereInstance@@@Z
	DD	FLAT:?OnDestroy@COBBCollisionInstance@@MAEXXZ
CONST	ENDS
;	COMDAT ??_7CAABBCollisionInstance@@6B@
CONST	SEGMENT
??_7CAABBCollisionInstance@@6B@ DD FLAT:??_R4CAABBCollisionInstance@@6B@ ; CAABBCollisionInstance::`vftable'
	DD	FLAT:?Render@CAABBCollisionInstance@@UAEXW4_D3DFILLMODE@@@Z
	DD	FLAT:?OnGetCollisionMovementAdjust@CAABBCollisionInstance@@MBE?AUD3DXVECTOR3@@ABUCDynamicSphereInstance@@@Z
	DD	FLAT:?OnMovementCollisionDynamicSphere@CAABBCollisionInstance@@MBE_NABUCDynamicSphereInstance@@@Z
	DD	FLAT:?OnCollisionDynamicSphere@CAABBCollisionInstance@@MBE_NABUCDynamicSphereInstance@@@Z
	DD	FLAT:?OnDestroy@CAABBCollisionInstance@@MAEXXZ
CONST	ENDS
;	COMDAT ??_7CPlaneCollisionInstance@@6B@
CONST	SEGMENT
??_7CPlaneCollisionInstance@@6B@ DD FLAT:??_R4CPlaneCollisionInstance@@6B@ ; CPlaneCollisionInstance::`vftable'
	DD	FLAT:?Render@CPlaneCollisionInstance@@UAEXW4_D3DFILLMODE@@@Z
	DD	FLAT:?OnGetCollisionMovementAdjust@CPlaneCollisionInstance@@MBE?AUD3DXVECTOR3@@ABUCDynamicSphereInstance@@@Z
	DD	FLAT:?OnMovementCollisionDynamicSphere@CPlaneCollisionInstance@@MBE_NABUCDynamicSphereInstance@@@Z
	DD	FLAT:?OnCollisionDynamicSphere@CPlaneCollisionInstance@@MBE_NABUCDynamicSphereInstance@@@Z
	DD	FLAT:?OnDestroy@CPlaneCollisionInstance@@MAEXXZ
CONST	ENDS
;	COMDAT ??_7CSphereCollisionInstance@@6B@
CONST	SEGMENT
??_7CSphereCollisionInstance@@6B@ DD FLAT:??_R4CSphereCollisionInstance@@6B@ ; CSphereCollisionInstance::`vftable'
	DD	FLAT:?Render@CSphereCollisionInstance@@UAEXW4_D3DFILLMODE@@@Z
	DD	FLAT:?OnGetCollisionMovementAdjust@CSphereCollisionInstance@@MBE?AUD3DXVECTOR3@@ABUCDynamicSphereInstance@@@Z
	DD	FLAT:?OnMovementCollisionDynamicSphere@CSphereCollisionInstance@@MBE_NABUCDynamicSphereInstance@@@Z
	DD	FLAT:?OnCollisionDynamicSphere@CSphereCollisionInstance@@MBE_NABUCDynamicSphereInstance@@@Z
	DD	FLAT:?OnDestroy@CSphereCollisionInstance@@MAEXXZ
CONST	ENDS
;	COMDAT ??_7CBaseCollisionInstance@@6B@
CONST	SEGMENT
??_7CBaseCollisionInstance@@6B@ DD FLAT:??_R4CBaseCollisionInstance@@6B@ ; CBaseCollisionInstance::`vftable'
	DD	FLAT:__purecall
	DD	FLAT:__purecall
	DD	FLAT:__purecall
	DD	FLAT:__purecall
	DD	FLAT:__purecall
CONST	ENDS
;	COMDAT ??_R4bad_alloc@std@@6B@
rdata$r	SEGMENT
??_R4bad_alloc@std@@6B@ DD 00H				; std::bad_alloc::`RTTI Complete Object Locator'
	DD	00H
	DD	00H
	DD	FLAT:??_R0?AVbad_alloc@std@@@8
	DD	FLAT:??_R3bad_alloc@std@@8
rdata$r	ENDS
;	COMDAT ??_R2bad_alloc@std@@8
rdata$r	SEGMENT
??_R2bad_alloc@std@@8 DD FLAT:??_R1A@?0A@EA@bad_alloc@std@@8 ; std::bad_alloc::`RTTI Base Class Array'
	DD	FLAT:??_R1A@?0A@EA@exception@std@@8
rdata$r	ENDS
;	COMDAT ??_R3bad_alloc@std@@8
rdata$r	SEGMENT
??_R3bad_alloc@std@@8 DD 00H				; std::bad_alloc::`RTTI Class Hierarchy Descriptor'
	DD	00H
	DD	02H
	DD	FLAT:??_R2bad_alloc@std@@8
rdata$r	ENDS
;	COMDAT ??_R1A@?0A@EA@bad_alloc@std@@8
rdata$r	SEGMENT
??_R1A@?0A@EA@bad_alloc@std@@8 DD FLAT:??_R0?AVbad_alloc@std@@@8 ; std::bad_alloc::`RTTI Base Class Descriptor at (0,-1,0,64)'
	DD	01H
	DD	00H
	DD	0ffffffffH
	DD	00H
	DD	040H
	DD	FLAT:??_R3bad_alloc@std@@8
rdata$r	ENDS
;	COMDAT ??_R1A@?0A@EA@bad_array_new_length@std@@8
rdata$r	SEGMENT
??_R1A@?0A@EA@bad_array_new_length@std@@8 DD FLAT:??_R0?AVbad_array_new_length@std@@@8 ; std::bad_array_new_length::`RTTI Base Class Descriptor at (0,-1,0,64)'
	DD	02H
	DD	00H
	DD	0ffffffffH
	DD	00H
	DD	040H
	DD	FLAT:??_R3bad_array_new_length@std@@8
rdata$r	ENDS
;	COMDAT ??_R2bad_array_new_length@std@@8
rdata$r	SEGMENT
??_R2bad_array_new_length@std@@8 DD FLAT:??_R1A@?0A@EA@bad_array_new_length@std@@8 ; std::bad_array_new_length::`RTTI Base Class Array'
	DD	FLAT:??_R1A@?0A@EA@bad_alloc@std@@8
	DD	FLAT:??_R1A@?0A@EA@exception@std@@8
rdata$r	ENDS
;	COMDAT ??_R3bad_array_new_length@std@@8
rdata$r	SEGMENT
??_R3bad_array_new_length@std@@8 DD 00H			; std::bad_array_new_length::`RTTI Class Hierarchy Descriptor'
	DD	00H
	DD	03H
	DD	FLAT:??_R2bad_array_new_length@std@@8
rdata$r	ENDS
;	COMDAT ??_R4bad_array_new_length@std@@6B@
rdata$r	SEGMENT
??_R4bad_array_new_length@std@@6B@ DD 00H		; std::bad_array_new_length::`RTTI Complete Object Locator'
	DD	00H
	DD	00H
	DD	FLAT:??_R0?AVbad_array_new_length@std@@@8
	DD	FLAT:??_R3bad_array_new_length@std@@8
rdata$r	ENDS
;	COMDAT ??_R1A@?0A@EA@exception@std@@8
rdata$r	SEGMENT
??_R1A@?0A@EA@exception@std@@8 DD FLAT:??_R0?AVexception@std@@@8 ; std::exception::`RTTI Base Class Descriptor at (0,-1,0,64)'
	DD	00H
	DD	00H
	DD	0ffffffffH
	DD	00H
	DD	040H
	DD	FLAT:??_R3exception@std@@8
rdata$r	ENDS
;	COMDAT ??_R2exception@std@@8
rdata$r	SEGMENT
??_R2exception@std@@8 DD FLAT:??_R1A@?0A@EA@exception@std@@8 ; std::exception::`RTTI Base Class Array'
rdata$r	ENDS
;	COMDAT ??_R3exception@std@@8
rdata$r	SEGMENT
??_R3exception@std@@8 DD 00H				; std::exception::`RTTI Class Hierarchy Descriptor'
	DD	00H
	DD	01H
	DD	FLAT:??_R2exception@std@@8
rdata$r	ENDS
;	COMDAT ??_R4exception@std@@6B@
rdata$r	SEGMENT
??_R4exception@std@@6B@ DD 00H				; std::exception::`RTTI Complete Object Locator'
	DD	00H
	DD	00H
	DD	FLAT:??_R0?AVexception@std@@@8
	DD	FLAT:??_R3exception@std@@8
rdata$r	ENDS
;	COMDAT __CT??_R0?AVbad_alloc@std@@@8??0bad_alloc@std@@QAE@ABV01@@Z12
xdata$x	SEGMENT
__CT??_R0?AVbad_alloc@std@@@8??0bad_alloc@std@@QAE@ABV01@@Z12 DD 010H
	DD	FLAT:??_R0?AVbad_alloc@std@@@8
	DD	00H
	DD	0ffffffffH
	ORG $+4
	DD	0cH
	DD	FLAT:??0bad_alloc@std@@QAE@ABV01@@Z
xdata$x	ENDS
;	COMDAT ??_R0?AVbad_alloc@std@@@8
data$r	SEGMENT
??_R0?AVbad_alloc@std@@@8 DD FLAT:??_7type_info@@6B@	; std::bad_alloc `RTTI Type Descriptor'
	DD	00H
	DB	'.?AVbad_alloc@std@@', 00H
data$r	ENDS
;	COMDAT __CT??_R0?AVbad_array_new_length@std@@@8??0bad_array_new_length@std@@QAE@ABV01@@Z12
xdata$x	SEGMENT
__CT??_R0?AVbad_array_new_length@std@@@8??0bad_array_new_length@std@@QAE@ABV01@@Z12 DD 00H
	DD	FLAT:??_R0?AVbad_array_new_length@std@@@8
	DD	00H
	DD	0ffffffffH
	ORG $+4
	DD	0cH
	DD	FLAT:??0bad_array_new_length@std@@QAE@ABV01@@Z
xdata$x	ENDS
;	COMDAT ??_R0?AVbad_array_new_length@std@@@8
data$r	SEGMENT
??_R0?AVbad_array_new_length@std@@@8 DD FLAT:??_7type_info@@6B@ ; std::bad_array_new_length `RTTI Type Descriptor'
	DD	00H
	DB	'.?AVbad_array_new_length@std@@', 00H
data$r	ENDS
;	COMDAT __CTA3?AVbad_array_new_length@std@@
xdata$x	SEGMENT
__CTA3?AVbad_array_new_length@std@@ DD 03H
	DD	FLAT:__CT??_R0?AVbad_array_new_length@std@@@8??0bad_array_new_length@std@@QAE@ABV01@@Z12
	DD	FLAT:__CT??_R0?AVbad_alloc@std@@@8??0bad_alloc@std@@QAE@ABV01@@Z12
	DD	FLAT:__CT??_R0?AVexception@std@@@8??0exception@std@@QAE@ABV01@@Z12
xdata$x	ENDS
;	COMDAT __TI3?AVbad_array_new_length@std@@
xdata$x	SEGMENT
__TI3?AVbad_array_new_length@std@@ DD 00H
	DD	FLAT:??1bad_array_new_length@std@@UAE@XZ
	DD	00H
	DD	FLAT:__CTA3?AVbad_array_new_length@std@@
xdata$x	ENDS
;	COMDAT __CT??_R0?AVexception@std@@@8??0exception@std@@QAE@ABV01@@Z12
xdata$x	SEGMENT
__CT??_R0?AVexception@std@@@8??0exception@std@@QAE@ABV01@@Z12 DD 00H
	DD	FLAT:??_R0?AVexception@std@@@8
	DD	00H
	DD	0ffffffffH
	ORG $+4
	DD	0cH
	DD	FLAT:??0exception@std@@QAE@ABV01@@Z
xdata$x	ENDS
;	COMDAT ??_R0?AVexception@std@@@8
data$r	SEGMENT
??_R0?AVexception@std@@@8 DD FLAT:??_7type_info@@6B@	; std::exception `RTTI Type Descriptor'
	DD	00H
	DB	'.?AVexception@std@@', 00H
data$r	ENDS
;	COMDAT ??_C@_0BF@KINCDENJ@bad?5array?5new?5length@
CONST	SEGMENT
??_C@_0BF@KINCDENJ@bad?5array?5new?5length@ DB 'bad array new length', 00H ; `string'
CONST	ENDS
;	COMDAT ??_7bad_array_new_length@std@@6B@
CONST	SEGMENT
??_7bad_array_new_length@std@@6B@ DD FLAT:??_R4bad_array_new_length@std@@6B@ ; std::bad_array_new_length::`vftable'
	DD	FLAT:??_Ebad_array_new_length@std@@UAEPAXI@Z
	DD	FLAT:?what@exception@std@@UBEPBDXZ
CONST	ENDS
;	COMDAT ??_7bad_alloc@std@@6B@
CONST	SEGMENT
??_7bad_alloc@std@@6B@ DD FLAT:??_R4bad_alloc@std@@6B@	; std::bad_alloc::`vftable'
	DD	FLAT:??_Ebad_alloc@std@@UAEPAXI@Z
	DD	FLAT:?what@exception@std@@UBEPBDXZ
CONST	ENDS
;	COMDAT ??_C@_0BC@EOODALEL@Unknown?5exception@
CONST	SEGMENT
??_C@_0BC@EOODALEL@Unknown?5exception@ DB 'Unknown exception', 00H ; `string'
CONST	ENDS
;	COMDAT ??_7exception@std@@6B@
CONST	SEGMENT
??_7exception@std@@6B@ DD FLAT:??_R4exception@std@@6B@	; std::exception::`vftable'
	DD	FLAT:??_Eexception@std@@UAEPAXI@Z
	DD	FLAT:?what@exception@std@@UBEPBDXZ
CONST	ENDS
;	COMDAT xdata$x
xdata$x	SEGMENT
__unwindtable$?Render@CCylinderCollisionInstance@@UAEXW4_D3DFILLMODE@@@Z DD 0ffffffffH
	DD	FLAT:__unwindfunclet$?Render@CCylinderCollisionInstance@@UAEXW4_D3DFILLMODE@@@Z$0
__ehfuncinfo$?Render@CCylinderCollisionInstance@@UAEXW4_D3DFILLMODE@@@Z DD 019930522H
	DD	01H
	DD	FLAT:__unwindtable$?Render@CCylinderCollisionInstance@@UAEXW4_D3DFILLMODE@@@Z
	DD	2 DUP(00H)
	DD	2 DUP(00H)
	DD	00H
	DD	01H
xdata$x	ENDS
;	COMDAT xdata$x
xdata$x	SEGMENT
__unwindtable$?Render@COBBCollisionInstance@@UAEXW4_D3DFILLMODE@@@Z DD 0ffffffffH
	DD	FLAT:__unwindfunclet$?Render@COBBCollisionInstance@@UAEXW4_D3DFILLMODE@@@Z$0
__ehfuncinfo$?Render@COBBCollisionInstance@@UAEXW4_D3DFILLMODE@@@Z DD 019930522H
	DD	01H
	DD	FLAT:__unwindtable$?Render@COBBCollisionInstance@@UAEXW4_D3DFILLMODE@@@Z
	DD	2 DUP(00H)
	DD	2 DUP(00H)
	DD	00H
	DD	01H
xdata$x	ENDS
;	COMDAT xdata$x
xdata$x	SEGMENT
__unwindtable$?Render@CAABBCollisionInstance@@UAEXW4_D3DFILLMODE@@@Z DD 0ffffffffH
	DD	FLAT:__unwindfunclet$?Render@CAABBCollisionInstance@@UAEXW4_D3DFILLMODE@@@Z$0
__ehfuncinfo$?Render@CAABBCollisionInstance@@UAEXW4_D3DFILLMODE@@@Z DD 019930522H
	DD	01H
	DD	FLAT:__unwindtable$?Render@CAABBCollisionInstance@@UAEXW4_D3DFILLMODE@@@Z
	DD	2 DUP(00H)
	DD	2 DUP(00H)
	DD	00H
	DD	01H
xdata$x	ENDS
;	COMDAT xdata$x
xdata$x	SEGMENT
__unwindtable$?Render@CPlaneCollisionInstance@@UAEXW4_D3DFILLMODE@@@Z DD 0ffffffffH
	DD	FLAT:__unwindfunclet$?Render@CPlaneCollisionInstance@@UAEXW4_D3DFILLMODE@@@Z$0
__ehfuncinfo$?Render@CPlaneCollisionInstance@@UAEXW4_D3DFILLMODE@@@Z DD 019930522H
	DD	01H
	DD	FLAT:__unwindtable$?Render@CPlaneCollisionInstance@@UAEXW4_D3DFILLMODE@@@Z
	DD	2 DUP(00H)
	DD	2 DUP(00H)
	DD	00H
	DD	01H
xdata$x	ENDS
;	COMDAT xdata$x
xdata$x	SEGMENT
__unwindtable$?Render@CSphereCollisionInstance@@UAEXW4_D3DFILLMODE@@@Z DD 0ffffffffH
	DD	FLAT:__unwindfunclet$?Render@CSphereCollisionInstance@@UAEXW4_D3DFILLMODE@@@Z$0
__ehfuncinfo$?Render@CSphereCollisionInstance@@UAEXW4_D3DFILLMODE@@@Z DD 019930522H
	DD	01H
	DD	FLAT:__unwindtable$?Render@CSphereCollisionInstance@@UAEXW4_D3DFILLMODE@@@Z
	DD	2 DUP(00H)
	DD	2 DUP(00H)
	DD	00H
	DD	01H
xdata$x	ENDS
CRT$XCU	SEGMENT
?gs_cci$initializer$@@3P6AXXZA DD FLAT:??__Egs_cci@@YAXXZ ; gs_cci$initializer$
CRT$XCU	ENDS
CRT$XCU	SEGMENT
?gs_pci$initializer$@@3P6AXXZA DD FLAT:??__Egs_pci@@YAXXZ ; gs_pci$initializer$
CRT$XCU	ENDS
CRT$XCU	SEGMENT
?gs_aci$initializer$@@3P6AXXZA DD FLAT:??__Egs_aci@@YAXXZ ; gs_aci$initializer$
CRT$XCU	ENDS
CRT$XCU	SEGMENT
?gs_oci$initializer$@@3P6AXXZA DD FLAT:??__Egs_oci@@YAXXZ ; gs_oci$initializer$
CRT$XCU	ENDS
; Function compile flags: /Ogtp
; File D:\Program Files\Microsoft Visual Studio\2022\Community\VC\Tools\MSVC\14.43.34808\include\xutility
;	COMDAT ??$_Copy_memmove_tail@PAPAVCSphereCollisionInstance@@@std@@YAPAPAVCSphereCollisionInstance@@QBDQAPAV1@II@Z
_TEXT	SEGMENT
__First_ch$ = 8						; size = 4
__Dest$ = 12						; size = 4
__Byte_count$ = 16					; size = 4
__Object_count$ = 20					; size = 4
??$_Copy_memmove_tail@PAPAVCSphereCollisionInstance@@@std@@YAPAPAVCSphereCollisionInstance@@QBDQAPAV1@II@Z PROC ; std::_Copy_memmove_tail<CSphereCollisionInstance * *>, COMDAT

; 4763 :     const char* const _First_ch, const _OutCtgIt _Dest, const size_t _Byte_count, const size_t _Object_count) {

  00000	55		 push	 ebp
  00001	8b ec		 mov	 ebp, esp
  00003	56		 push	 esi

; 4764 :     _STL_INTERNAL_CHECK(_Byte_count == _Object_count * sizeof(*_Dest));
; 4765 :     const auto _Dest_ptr = _STD _To_address(_Dest);
; 4766 :     const auto _Dest_ch  = const_cast<char*>(reinterpret_cast<const volatile char*>(_Dest_ptr));
; 4767 :     _CSTD memmove(_Dest_ch, _First_ch, _Byte_count);

  00004	8b 75 0c	 mov	 esi, DWORD PTR __Dest$[ebp]
  00007	57		 push	 edi
  00008	8b 7d 10	 mov	 edi, DWORD PTR __Byte_count$[ebp]
  0000b	57		 push	 edi
  0000c	ff 75 08	 push	 DWORD PTR __First_ch$[ebp]
  0000f	56		 push	 esi
  00010	e8 00 00 00 00	 call	 _memmove
  00015	83 c4 0c	 add	 esp, 12			; 0000000cH

; 4768 :     if constexpr (is_pointer_v<_OutCtgIt>) {
; 4769 :         (void) _Object_count;
; 4770 :         // CodeQL [SM02986] This cast is correct: we're bypassing pointer arithmetic for performance.
; 4771 :         return reinterpret_cast<_OutCtgIt>(_Dest_ch + _Byte_count);

  00018	8d 04 3e	 lea	 eax, DWORD PTR [esi+edi]
  0001b	5f		 pop	 edi
  0001c	5e		 pop	 esi

; 4772 :     } else {
; 4773 :         return _Dest + static_cast<_Iter_diff_t<_OutCtgIt>>(_Object_count);
; 4774 :     }
; 4775 : }

  0001d	5d		 pop	 ebp
  0001e	c3		 ret	 0
??$_Copy_memmove_tail@PAPAVCSphereCollisionInstance@@@std@@YAPAPAVCSphereCollisionInstance@@QBDQAPAV1@II@Z ENDP ; std::_Copy_memmove_tail<CSphereCollisionInstance * *>
_TEXT	ENDS
; Function compile flags: /Ogtp
; File D:\Program Files\Microsoft Visual Studio\2022\Community\VC\Tools\MSVC\14.43.34808\include\xutility
;	COMDAT ??$_Copy_memmove_tail@PAPAVCCylinderCollisionInstance@@@std@@YAPAPAVCCylinderCollisionInstance@@QBDQAPAV1@II@Z
_TEXT	SEGMENT
__First_ch$ = 8						; size = 4
__Dest$ = 12						; size = 4
__Byte_count$ = 16					; size = 4
__Object_count$ = 20					; size = 4
??$_Copy_memmove_tail@PAPAVCCylinderCollisionInstance@@@std@@YAPAPAVCCylinderCollisionInstance@@QBDQAPAV1@II@Z PROC ; std::_Copy_memmove_tail<CCylinderCollisionInstance * *>, COMDAT

; 4763 :     const char* const _First_ch, const _OutCtgIt _Dest, const size_t _Byte_count, const size_t _Object_count) {

  00000	55		 push	 ebp
  00001	8b ec		 mov	 ebp, esp
  00003	56		 push	 esi

; 4764 :     _STL_INTERNAL_CHECK(_Byte_count == _Object_count * sizeof(*_Dest));
; 4765 :     const auto _Dest_ptr = _STD _To_address(_Dest);
; 4766 :     const auto _Dest_ch  = const_cast<char*>(reinterpret_cast<const volatile char*>(_Dest_ptr));
; 4767 :     _CSTD memmove(_Dest_ch, _First_ch, _Byte_count);

  00004	8b 75 0c	 mov	 esi, DWORD PTR __Dest$[ebp]
  00007	57		 push	 edi
  00008	8b 7d 10	 mov	 edi, DWORD PTR __Byte_count$[ebp]
  0000b	57		 push	 edi
  0000c	ff 75 08	 push	 DWORD PTR __First_ch$[ebp]
  0000f	56		 push	 esi
  00010	e8 00 00 00 00	 call	 _memmove
  00015	83 c4 0c	 add	 esp, 12			; 0000000cH

; 4768 :     if constexpr (is_pointer_v<_OutCtgIt>) {
; 4769 :         (void) _Object_count;
; 4770 :         // CodeQL [SM02986] This cast is correct: we're bypassing pointer arithmetic for performance.
; 4771 :         return reinterpret_cast<_OutCtgIt>(_Dest_ch + _Byte_count);

  00018	8d 04 3e	 lea	 eax, DWORD PTR [esi+edi]
  0001b	5f		 pop	 edi
  0001c	5e		 pop	 esi

; 4772 :     } else {
; 4773 :         return _Dest + static_cast<_Iter_diff_t<_OutCtgIt>>(_Object_count);
; 4774 :     }
; 4775 : }

  0001d	5d		 pop	 ebp
  0001e	c3		 ret	 0
??$_Copy_memmove_tail@PAPAVCCylinderCollisionInstance@@@std@@YAPAPAVCCylinderCollisionInstance@@QBDQAPAV1@II@Z ENDP ; std::_Copy_memmove_tail<CCylinderCollisionInstance * *>
_TEXT	ENDS
; Function compile flags: /Ogtp
; File D:\Program Files\Microsoft Visual Studio\2022\Community\VC\Tools\MSVC\14.43.34808\include\xutility
;	COMDAT ??$_Copy_memmove_tail@PAPAVCPlaneCollisionInstance@@@std@@YAPAPAVCPlaneCollisionInstance@@QBDQAPAV1@II@Z
_TEXT	SEGMENT
__First_ch$ = 8						; size = 4
__Dest$ = 12						; size = 4
__Byte_count$ = 16					; size = 4
__Object_count$ = 20					; size = 4
??$_Copy_memmove_tail@PAPAVCPlaneCollisionInstance@@@std@@YAPAPAVCPlaneCollisionInstance@@QBDQAPAV1@II@Z PROC ; std::_Copy_memmove_tail<CPlaneCollisionInstance * *>, COMDAT

; 4763 :     const char* const _First_ch, const _OutCtgIt _Dest, const size_t _Byte_count, const size_t _Object_count) {

  00000	55		 push	 ebp
  00001	8b ec		 mov	 ebp, esp
  00003	56		 push	 esi

; 4764 :     _STL_INTERNAL_CHECK(_Byte_count == _Object_count * sizeof(*_Dest));
; 4765 :     const auto _Dest_ptr = _STD _To_address(_Dest);
; 4766 :     const auto _Dest_ch  = const_cast<char*>(reinterpret_cast<const volatile char*>(_Dest_ptr));
; 4767 :     _CSTD memmove(_Dest_ch, _First_ch, _Byte_count);

  00004	8b 75 0c	 mov	 esi, DWORD PTR __Dest$[ebp]
  00007	57		 push	 edi
  00008	8b 7d 10	 mov	 edi, DWORD PTR __Byte_count$[ebp]
  0000b	57		 push	 edi
  0000c	ff 75 08	 push	 DWORD PTR __First_ch$[ebp]
  0000f	56		 push	 esi
  00010	e8 00 00 00 00	 call	 _memmove
  00015	83 c4 0c	 add	 esp, 12			; 0000000cH

; 4768 :     if constexpr (is_pointer_v<_OutCtgIt>) {
; 4769 :         (void) _Object_count;
; 4770 :         // CodeQL [SM02986] This cast is correct: we're bypassing pointer arithmetic for performance.
; 4771 :         return reinterpret_cast<_OutCtgIt>(_Dest_ch + _Byte_count);

  00018	8d 04 3e	 lea	 eax, DWORD PTR [esi+edi]
  0001b	5f		 pop	 edi
  0001c	5e		 pop	 esi

; 4772 :     } else {
; 4773 :         return _Dest + static_cast<_Iter_diff_t<_OutCtgIt>>(_Object_count);
; 4774 :     }
; 4775 : }

  0001d	5d		 pop	 ebp
  0001e	c3		 ret	 0
??$_Copy_memmove_tail@PAPAVCPlaneCollisionInstance@@@std@@YAPAPAVCPlaneCollisionInstance@@QBDQAPAV1@II@Z ENDP ; std::_Copy_memmove_tail<CPlaneCollisionInstance * *>
_TEXT	ENDS
; Function compile flags: /Ogtp
; File D:\Program Files\Microsoft Visual Studio\2022\Community\VC\Tools\MSVC\14.43.34808\include\xutility
;	COMDAT ??$_Copy_memmove_tail@PAPAVCAABBCollisionInstance@@@std@@YAPAPAVCAABBCollisionInstance@@QBDQAPAV1@II@Z
_TEXT	SEGMENT
__First_ch$ = 8						; size = 4
__Dest$ = 12						; size = 4
__Byte_count$ = 16					; size = 4
__Object_count$ = 20					; size = 4
??$_Copy_memmove_tail@PAPAVCAABBCollisionInstance@@@std@@YAPAPAVCAABBCollisionInstance@@QBDQAPAV1@II@Z PROC ; std::_Copy_memmove_tail<CAABBCollisionInstance * *>, COMDAT

; 4763 :     const char* const _First_ch, const _OutCtgIt _Dest, const size_t _Byte_count, const size_t _Object_count) {

  00000	55		 push	 ebp
  00001	8b ec		 mov	 ebp, esp
  00003	56		 push	 esi

; 4764 :     _STL_INTERNAL_CHECK(_Byte_count == _Object_count * sizeof(*_Dest));
; 4765 :     const auto _Dest_ptr = _STD _To_address(_Dest);
; 4766 :     const auto _Dest_ch  = const_cast<char*>(reinterpret_cast<const volatile char*>(_Dest_ptr));
; 4767 :     _CSTD memmove(_Dest_ch, _First_ch, _Byte_count);

  00004	8b 75 0c	 mov	 esi, DWORD PTR __Dest$[ebp]
  00007	57		 push	 edi
  00008	8b 7d 10	 mov	 edi, DWORD PTR __Byte_count$[ebp]
  0000b	57		 push	 edi
  0000c	ff 75 08	 push	 DWORD PTR __First_ch$[ebp]
  0000f	56		 push	 esi
  00010	e8 00 00 00 00	 call	 _memmove
  00015	83 c4 0c	 add	 esp, 12			; 0000000cH

; 4768 :     if constexpr (is_pointer_v<_OutCtgIt>) {
; 4769 :         (void) _Object_count;
; 4770 :         // CodeQL [SM02986] This cast is correct: we're bypassing pointer arithmetic for performance.
; 4771 :         return reinterpret_cast<_OutCtgIt>(_Dest_ch + _Byte_count);

  00018	8d 04 3e	 lea	 eax, DWORD PTR [esi+edi]
  0001b	5f		 pop	 edi
  0001c	5e		 pop	 esi

; 4772 :     } else {
; 4773 :         return _Dest + static_cast<_Iter_diff_t<_OutCtgIt>>(_Object_count);
; 4774 :     }
; 4775 : }

  0001d	5d		 pop	 ebp
  0001e	c3		 ret	 0
??$_Copy_memmove_tail@PAPAVCAABBCollisionInstance@@@std@@YAPAPAVCAABBCollisionInstance@@QBDQAPAV1@II@Z ENDP ; std::_Copy_memmove_tail<CAABBCollisionInstance * *>
_TEXT	ENDS
; Function compile flags: /Ogtp
; File D:\Program Files\Microsoft Visual Studio\2022\Community\VC\Tools\MSVC\14.43.34808\include\xutility
;	COMDAT ??$_Copy_memmove_tail@PAPAVCOBBCollisionInstance@@@std@@YAPAPAVCOBBCollisionInstance@@QBDQAPAV1@II@Z
_TEXT	SEGMENT
__First_ch$ = 8						; size = 4
__Dest$ = 12						; size = 4
__Byte_count$ = 16					; size = 4
__Object_count$ = 20					; size = 4
??$_Copy_memmove_tail@PAPAVCOBBCollisionInstance@@@std@@YAPAPAVCOBBCollisionInstance@@QBDQAPAV1@II@Z PROC ; std::_Copy_memmove_tail<COBBCollisionInstance * *>, COMDAT

; 4763 :     const char* const _First_ch, const _OutCtgIt _Dest, const size_t _Byte_count, const size_t _Object_count) {

  00000	55		 push	 ebp
  00001	8b ec		 mov	 ebp, esp
  00003	56		 push	 esi

; 4764 :     _STL_INTERNAL_CHECK(_Byte_count == _Object_count * sizeof(*_Dest));
; 4765 :     const auto _Dest_ptr = _STD _To_address(_Dest);
; 4766 :     const auto _Dest_ch  = const_cast<char*>(reinterpret_cast<const volatile char*>(_Dest_ptr));
; 4767 :     _CSTD memmove(_Dest_ch, _First_ch, _Byte_count);

  00004	8b 75 0c	 mov	 esi, DWORD PTR __Dest$[ebp]
  00007	57		 push	 edi
  00008	8b 7d 10	 mov	 edi, DWORD PTR __Byte_count$[ebp]
  0000b	57		 push	 edi
  0000c	ff 75 08	 push	 DWORD PTR __First_ch$[ebp]
  0000f	56		 push	 esi
  00010	e8 00 00 00 00	 call	 _memmove
  00015	83 c4 0c	 add	 esp, 12			; 0000000cH

; 4768 :     if constexpr (is_pointer_v<_OutCtgIt>) {
; 4769 :         (void) _Object_count;
; 4770 :         // CodeQL [SM02986] This cast is correct: we're bypassing pointer arithmetic for performance.
; 4771 :         return reinterpret_cast<_OutCtgIt>(_Dest_ch + _Byte_count);

  00018	8d 04 3e	 lea	 eax, DWORD PTR [esi+edi]
  0001b	5f		 pop	 edi
  0001c	5e		 pop	 esi

; 4772 :     } else {
; 4773 :         return _Dest + static_cast<_Iter_diff_t<_OutCtgIt>>(_Object_count);
; 4774 :     }
; 4775 : }

  0001d	5d		 pop	 ebp
  0001e	c3		 ret	 0
??$_Copy_memmove_tail@PAPAVCOBBCollisionInstance@@@std@@YAPAPAVCOBBCollisionInstance@@QBDQAPAV1@II@Z ENDP ; std::_Copy_memmove_tail<COBBCollisionInstance * *>
_TEXT	ENDS
; Function compile flags: /Ogtp
; File D:\Program Files\Microsoft Visual Studio\2022\Community\VC\Tools\MSVC\14.43.34808\include\xutility
;	COMDAT ??$_Copy_memmove@PAPAVCSphereCollisionInstance@@PAPAV1@@std@@YAPAPAVCSphereCollisionInstance@@PAPAV1@00@Z
_TEXT	SEGMENT
__First$ = 8						; size = 4
__Last$ = 12						; size = 4
__Dest$ = 16						; size = 4
??$_Copy_memmove@PAPAVCSphereCollisionInstance@@PAPAV1@@std@@YAPAPAVCSphereCollisionInstance@@PAPAV1@00@Z PROC ; std::_Copy_memmove<CSphereCollisionInstance * *,CSphereCollisionInstance * *>, COMDAT

; 4778 : _OutCtgIt _Copy_memmove(_CtgIt _First, _CtgIt _Last, _OutCtgIt _Dest) {

  00000	55		 push	 ebp
  00001	8b ec		 mov	 ebp, esp

; 4779 :     _STL_INTERNAL_CHECK(_First <= _Last);
; 4780 :     const auto _First_ptr    = _STD _To_address(_First);
; 4781 :     const auto _Last_ptr     = _STD _To_address(_Last);
; 4782 :     const auto _Object_count = static_cast<size_t>(_Last_ptr - _First_ptr);

  00003	8b 55 08	 mov	 edx, DWORD PTR __First$[ebp]
  00006	8b 4d 0c	 mov	 ecx, DWORD PTR __Last$[ebp]
  00009	2b ca		 sub	 ecx, edx
  0000b	8b c1		 mov	 eax, ecx
  0000d	c1 f8 02	 sar	 eax, 2

; 4783 :     const auto _First_ch     = const_cast<const char*>(reinterpret_cast<const volatile char*>(_First_ptr));
; 4784 :     const auto _Last_ch      = const_cast<const char*>(reinterpret_cast<const volatile char*>(_Last_ptr));
; 4785 :     const auto _Byte_count   = static_cast<size_t>(_Last_ch - _First_ch);
; 4786 :     return _STD _Copy_memmove_tail(_First_ch, _STD move(_Dest), _Byte_count, _Object_count);

  00010	50		 push	 eax
  00011	51		 push	 ecx
  00012	ff 75 10	 push	 DWORD PTR __Dest$[ebp]
  00015	52		 push	 edx
  00016	e8 00 00 00 00	 call	 ??$_Copy_memmove_tail@PAPAVCSphereCollisionInstance@@@std@@YAPAPAVCSphereCollisionInstance@@QBDQAPAV1@II@Z ; std::_Copy_memmove_tail<CSphereCollisionInstance * *>
  0001b	83 c4 10	 add	 esp, 16			; 00000010H

; 4787 : }

  0001e	5d		 pop	 ebp
  0001f	c3		 ret	 0
??$_Copy_memmove@PAPAVCSphereCollisionInstance@@PAPAV1@@std@@YAPAPAVCSphereCollisionInstance@@PAPAV1@00@Z ENDP ; std::_Copy_memmove<CSphereCollisionInstance * *,CSphereCollisionInstance * *>
_TEXT	ENDS
; Function compile flags: /Ogtp
; File D:\Program Files\Microsoft Visual Studio\2022\Community\VC\Tools\MSVC\14.43.34808\include\xutility
;	COMDAT ??$_Copy_memmove@PAPAVCCylinderCollisionInstance@@PAPAV1@@std@@YAPAPAVCCylinderCollisionInstance@@PAPAV1@00@Z
_TEXT	SEGMENT
__First$ = 8						; size = 4
__Last$ = 12						; size = 4
__Dest$ = 16						; size = 4
??$_Copy_memmove@PAPAVCCylinderCollisionInstance@@PAPAV1@@std@@YAPAPAVCCylinderCollisionInstance@@PAPAV1@00@Z PROC ; std::_Copy_memmove<CCylinderCollisionInstance * *,CCylinderCollisionInstance * *>, COMDAT

; 4778 : _OutCtgIt _Copy_memmove(_CtgIt _First, _CtgIt _Last, _OutCtgIt _Dest) {

  00000	55		 push	 ebp
  00001	8b ec		 mov	 ebp, esp

; 4779 :     _STL_INTERNAL_CHECK(_First <= _Last);
; 4780 :     const auto _First_ptr    = _STD _To_address(_First);
; 4781 :     const auto _Last_ptr     = _STD _To_address(_Last);
; 4782 :     const auto _Object_count = static_cast<size_t>(_Last_ptr - _First_ptr);

  00003	8b 55 08	 mov	 edx, DWORD PTR __First$[ebp]
  00006	8b 4d 0c	 mov	 ecx, DWORD PTR __Last$[ebp]
  00009	2b ca		 sub	 ecx, edx
  0000b	8b c1		 mov	 eax, ecx
  0000d	c1 f8 02	 sar	 eax, 2

; 4783 :     const auto _First_ch     = const_cast<const char*>(reinterpret_cast<const volatile char*>(_First_ptr));
; 4784 :     const auto _Last_ch      = const_cast<const char*>(reinterpret_cast<const volatile char*>(_Last_ptr));
; 4785 :     const auto _Byte_count   = static_cast<size_t>(_Last_ch - _First_ch);
; 4786 :     return _STD _Copy_memmove_tail(_First_ch, _STD move(_Dest), _Byte_count, _Object_count);

  00010	50		 push	 eax
  00011	51		 push	 ecx
  00012	ff 75 10	 push	 DWORD PTR __Dest$[ebp]
  00015	52		 push	 edx
  00016	e8 00 00 00 00	 call	 ??$_Copy_memmove_tail@PAPAVCCylinderCollisionInstance@@@std@@YAPAPAVCCylinderCollisionInstance@@QBDQAPAV1@II@Z ; std::_Copy_memmove_tail<CCylinderCollisionInstance * *>
  0001b	83 c4 10	 add	 esp, 16			; 00000010H

; 4787 : }

  0001e	5d		 pop	 ebp
  0001f	c3		 ret	 0
??$_Copy_memmove@PAPAVCCylinderCollisionInstance@@PAPAV1@@std@@YAPAPAVCCylinderCollisionInstance@@PAPAV1@00@Z ENDP ; std::_Copy_memmove<CCylinderCollisionInstance * *,CCylinderCollisionInstance * *>
_TEXT	ENDS
; Function compile flags: /Ogtp
; File D:\Program Files\Microsoft Visual Studio\2022\Community\VC\Tools\MSVC\14.43.34808\include\xutility
;	COMDAT ??$_Copy_memmove@PAPAVCPlaneCollisionInstance@@PAPAV1@@std@@YAPAPAVCPlaneCollisionInstance@@PAPAV1@00@Z
_TEXT	SEGMENT
__First$ = 8						; size = 4
__Last$ = 12						; size = 4
__Dest$ = 16						; size = 4
??$_Copy_memmove@PAPAVCPlaneCollisionInstance@@PAPAV1@@std@@YAPAPAVCPlaneCollisionInstance@@PAPAV1@00@Z PROC ; std::_Copy_memmove<CPlaneCollisionInstance * *,CPlaneCollisionInstance * *>, COMDAT

; 4778 : _OutCtgIt _Copy_memmove(_CtgIt _First, _CtgIt _Last, _OutCtgIt _Dest) {

  00000	55		 push	 ebp
  00001	8b ec		 mov	 ebp, esp

; 4779 :     _STL_INTERNAL_CHECK(_First <= _Last);
; 4780 :     const auto _First_ptr    = _STD _To_address(_First);
; 4781 :     const auto _Last_ptr     = _STD _To_address(_Last);
; 4782 :     const auto _Object_count = static_cast<size_t>(_Last_ptr - _First_ptr);

  00003	8b 55 08	 mov	 edx, DWORD PTR __First$[ebp]
  00006	8b 4d 0c	 mov	 ecx, DWORD PTR __Last$[ebp]
  00009	2b ca		 sub	 ecx, edx
  0000b	8b c1		 mov	 eax, ecx
  0000d	c1 f8 02	 sar	 eax, 2

; 4783 :     const auto _First_ch     = const_cast<const char*>(reinterpret_cast<const volatile char*>(_First_ptr));
; 4784 :     const auto _Last_ch      = const_cast<const char*>(reinterpret_cast<const volatile char*>(_Last_ptr));
; 4785 :     const auto _Byte_count   = static_cast<size_t>(_Last_ch - _First_ch);
; 4786 :     return _STD _Copy_memmove_tail(_First_ch, _STD move(_Dest), _Byte_count, _Object_count);

  00010	50		 push	 eax
  00011	51		 push	 ecx
  00012	ff 75 10	 push	 DWORD PTR __Dest$[ebp]
  00015	52		 push	 edx
  00016	e8 00 00 00 00	 call	 ??$_Copy_memmove_tail@PAPAVCPlaneCollisionInstance@@@std@@YAPAPAVCPlaneCollisionInstance@@QBDQAPAV1@II@Z ; std::_Copy_memmove_tail<CPlaneCollisionInstance * *>
  0001b	83 c4 10	 add	 esp, 16			; 00000010H

; 4787 : }

  0001e	5d		 pop	 ebp
  0001f	c3		 ret	 0
??$_Copy_memmove@PAPAVCPlaneCollisionInstance@@PAPAV1@@std@@YAPAPAVCPlaneCollisionInstance@@PAPAV1@00@Z ENDP ; std::_Copy_memmove<CPlaneCollisionInstance * *,CPlaneCollisionInstance * *>
_TEXT	ENDS
; Function compile flags: /Ogtp
; File D:\Program Files\Microsoft Visual Studio\2022\Community\VC\Tools\MSVC\14.43.34808\include\xutility
;	COMDAT ??$_Copy_memmove@PAPAVCAABBCollisionInstance@@PAPAV1@@std@@YAPAPAVCAABBCollisionInstance@@PAPAV1@00@Z
_TEXT	SEGMENT
__First$ = 8						; size = 4
__Last$ = 12						; size = 4
__Dest$ = 16						; size = 4
??$_Copy_memmove@PAPAVCAABBCollisionInstance@@PAPAV1@@std@@YAPAPAVCAABBCollisionInstance@@PAPAV1@00@Z PROC ; std::_Copy_memmove<CAABBCollisionInstance * *,CAABBCollisionInstance * *>, COMDAT

; 4778 : _OutCtgIt _Copy_memmove(_CtgIt _First, _CtgIt _Last, _OutCtgIt _Dest) {

  00000	55		 push	 ebp
  00001	8b ec		 mov	 ebp, esp

; 4779 :     _STL_INTERNAL_CHECK(_First <= _Last);
; 4780 :     const auto _First_ptr    = _STD _To_address(_First);
; 4781 :     const auto _Last_ptr     = _STD _To_address(_Last);
; 4782 :     const auto _Object_count = static_cast<size_t>(_Last_ptr - _First_ptr);

  00003	8b 55 08	 mov	 edx, DWORD PTR __First$[ebp]
  00006	8b 4d 0c	 mov	 ecx, DWORD PTR __Last$[ebp]
  00009	2b ca		 sub	 ecx, edx
  0000b	8b c1		 mov	 eax, ecx
  0000d	c1 f8 02	 sar	 eax, 2

; 4783 :     const auto _First_ch     = const_cast<const char*>(reinterpret_cast<const volatile char*>(_First_ptr));
; 4784 :     const auto _Last_ch      = const_cast<const char*>(reinterpret_cast<const volatile char*>(_Last_ptr));
; 4785 :     const auto _Byte_count   = static_cast<size_t>(_Last_ch - _First_ch);
; 4786 :     return _STD _Copy_memmove_tail(_First_ch, _STD move(_Dest), _Byte_count, _Object_count);

  00010	50		 push	 eax
  00011	51		 push	 ecx
  00012	ff 75 10	 push	 DWORD PTR __Dest$[ebp]
  00015	52		 push	 edx
  00016	e8 00 00 00 00	 call	 ??$_Copy_memmove_tail@PAPAVCAABBCollisionInstance@@@std@@YAPAPAVCAABBCollisionInstance@@QBDQAPAV1@II@Z ; std::_Copy_memmove_tail<CAABBCollisionInstance * *>
  0001b	83 c4 10	 add	 esp, 16			; 00000010H

; 4787 : }

  0001e	5d		 pop	 ebp
  0001f	c3		 ret	 0
??$_Copy_memmove@PAPAVCAABBCollisionInstance@@PAPAV1@@std@@YAPAPAVCAABBCollisionInstance@@PAPAV1@00@Z ENDP ; std::_Copy_memmove<CAABBCollisionInstance * *,CAABBCollisionInstance * *>
_TEXT	ENDS
; Function compile flags: /Ogtp
; File D:\Program Files\Microsoft Visual Studio\2022\Community\VC\Tools\MSVC\14.43.34808\include\xutility
;	COMDAT ??$_Copy_memmove@PAPAVCOBBCollisionInstance@@PAPAV1@@std@@YAPAPAVCOBBCollisionInstance@@PAPAV1@00@Z
_TEXT	SEGMENT
__First$ = 8						; size = 4
__Last$ = 12						; size = 4
__Dest$ = 16						; size = 4
??$_Copy_memmove@PAPAVCOBBCollisionInstance@@PAPAV1@@std@@YAPAPAVCOBBCollisionInstance@@PAPAV1@00@Z PROC ; std::_Copy_memmove<COBBCollisionInstance * *,COBBCollisionInstance * *>, COMDAT

; 4778 : _OutCtgIt _Copy_memmove(_CtgIt _First, _CtgIt _Last, _OutCtgIt _Dest) {

  00000	55		 push	 ebp
  00001	8b ec		 mov	 ebp, esp

; 4779 :     _STL_INTERNAL_CHECK(_First <= _Last);
; 4780 :     const auto _First_ptr    = _STD _To_address(_First);
; 4781 :     const auto _Last_ptr     = _STD _To_address(_Last);
; 4782 :     const auto _Object_count = static_cast<size_t>(_Last_ptr - _First_ptr);

  00003	8b 55 08	 mov	 edx, DWORD PTR __First$[ebp]
  00006	8b 4d 0c	 mov	 ecx, DWORD PTR __Last$[ebp]
  00009	2b ca		 sub	 ecx, edx
  0000b	8b c1		 mov	 eax, ecx
  0000d	c1 f8 02	 sar	 eax, 2

; 4783 :     const auto _First_ch     = const_cast<const char*>(reinterpret_cast<const volatile char*>(_First_ptr));
; 4784 :     const auto _Last_ch      = const_cast<const char*>(reinterpret_cast<const volatile char*>(_Last_ptr));
; 4785 :     const auto _Byte_count   = static_cast<size_t>(_Last_ch - _First_ch);
; 4786 :     return _STD _Copy_memmove_tail(_First_ch, _STD move(_Dest), _Byte_count, _Object_count);

  00010	50		 push	 eax
  00011	51		 push	 ecx
  00012	ff 75 10	 push	 DWORD PTR __Dest$[ebp]
  00015	52		 push	 edx
  00016	e8 00 00 00 00	 call	 ??$_Copy_memmove_tail@PAPAVCOBBCollisionInstance@@@std@@YAPAPAVCOBBCollisionInstance@@QBDQAPAV1@II@Z ; std::_Copy_memmove_tail<COBBCollisionInstance * *>
  0001b	83 c4 10	 add	 esp, 16			; 00000010H

; 4787 : }

  0001e	5d		 pop	 ebp
  0001f	c3		 ret	 0
??$_Copy_memmove@PAPAVCOBBCollisionInstance@@PAPAV1@@std@@YAPAPAVCOBBCollisionInstance@@PAPAV1@00@Z ENDP ; std::_Copy_memmove<COBBCollisionInstance * *,COBBCollisionInstance * *>
_TEXT	ENDS
; Function compile flags: /Ogtp
; File D:\Program Files\Microsoft Visual Studio\2022\Community\VC\Tools\MSVC\14.43.34808\include\vector
; File D:\Program Files\Microsoft Visual Studio\2022\Community\VC\Tools\MSVC\14.43.34808\include\xmemory
; File D:\Program Files\Microsoft Visual Studio\2022\Community\VC\Tools\MSVC\14.43.34808\include\vector
; File D:\Program Files\Microsoft Visual Studio\2022\Community\VC\Tools\MSVC\14.43.34808\include\xmemory
; File D:\Program Files\Microsoft Visual Studio\2022\Community\VC\Tools\MSVC\14.43.34808\include\vector
; File D:\Program Files\Microsoft Visual Studio\2022\Community\VC\Tools\MSVC\14.43.34808\include\xmemory
; File D:\Program Files\Microsoft Visual Studio\2022\Community\VC\Tools\MSVC\14.43.34808\include\vector
; File D:\Program Files\Microsoft Visual Studio\2022\Community\VC\Tools\MSVC\14.43.34808\include\xmemory
; File D:\Program Files\Microsoft Visual Studio\2022\Community\VC\Tools\MSVC\14.43.34808\include\vector
; File D:\Program Files\Microsoft Visual Studio\2022\Community\VC\Tools\MSVC\14.43.34808\include\xmemory
; File D:\Program Files\Microsoft Visual Studio\2022\Community\VC\Tools\MSVC\14.43.34808\include\vector
; File D:\Program Files\Microsoft Visual Studio\2022\Community\VC\Tools\MSVC\14.43.34808\include\xmemory
; File D:\Program Files\Microsoft Visual Studio\2022\Community\VC\Tools\MSVC\14.43.34808\include\vector
; File D:\Program Files\Microsoft Visual Studio\2022\Community\VC\Tools\MSVC\14.43.34808\include\xmemory
; File D:\Program Files\Microsoft Visual Studio\2022\Community\VC\Tools\MSVC\14.43.34808\include\vector
; File D:\Program Files\Microsoft Visual Studio\2022\Community\VC\Tools\MSVC\14.43.34808\include\xmemory
; File D:\Program Files\Microsoft Visual Studio\2022\Community\VC\Tools\MSVC\14.43.34808\include\vector
;	COMDAT ??$_Emplace_reallocate@ABQAVCSphereCollisionInstance@@@?$vector@PAVCSphereCollisionInstance@@V?$allocator@PAVCSphereCollisionInstance@@@std@@@std@@AAEPAPAVCSphereCollisionInstance@@QAPAV2@ABQAV2@@Z
_TEXT	SEGMENT
__Newsize$1$ = -12					; size = 4
tv652 = -8						; size = 4
tv650 = -4						; size = 4
__Whereptr$ = 8						; size = 4
_<_Val_0>$ = 12						; size = 4
??$_Emplace_reallocate@ABQAVCSphereCollisionInstance@@@?$vector@PAVCSphereCollisionInstance@@V?$allocator@PAVCSphereCollisionInstance@@@std@@@std@@AAEPAPAVCSphereCollisionInstance@@QAPAV2@ABQAV2@@Z PROC ; std::vector<CSphereCollisionInstance *,std::allocator<CSphereCollisionInstance *> >::_Emplace_reallocate<CSphereCollisionInstance * const &>, COMDAT
; _this$ = ecx

; 860  :     _CONSTEXPR20 pointer _Emplace_reallocate(const pointer _Whereptr, _Valty&&... _Val) {

  00000	55		 push	 ebp
  00001	8b ec		 mov	 ebp, esp
  00003	83 ec 0c	 sub	 esp, 12			; 0000000cH
  00006	53		 push	 ebx

; 861  :         // reallocate and insert by perfectly forwarding _Val at _Whereptr
; 862  :         _Alty& _Al        = _Getal();
; 863  :         auto& _My_data    = _Mypair._Myval2;
; 864  :         pointer& _Myfirst = _My_data._Myfirst;
; 865  :         pointer& _Mylast  = _My_data._Mylast;
; 866  : 
; 867  :         _STL_INTERNAL_CHECK(_Mylast == _My_data._Myend); // check that we have no unused capacity
; 868  : 
; 869  :         const auto _Whereoff = static_cast<size_type>(_Whereptr - _Myfirst);

  00007	8b 5d 08	 mov	 ebx, DWORD PTR __Whereptr$[ebp]
  0000a	56		 push	 esi
  0000b	8b f1		 mov	 esi, ecx
  0000d	57		 push	 edi
  0000e	8b 0e		 mov	 ecx, DWORD PTR [esi]
  00010	2b d9		 sub	 ebx, ecx

; 870  :         const auto _Oldsize  = static_cast<size_type>(_Mylast - _Myfirst);

  00012	8b 46 04	 mov	 eax, DWORD PTR [esi+4]
  00015	2b c1		 sub	 eax, ecx
  00017	c1 fb 02	 sar	 ebx, 2
  0001a	c1 f8 02	 sar	 eax, 2

; 871  : 
; 872  :         if (_Oldsize == max_size()) {

  0001d	3d ff ff ff 3f	 cmp	 eax, 1073741823		; 3fffffffH
  00022	0f 84 09 01 00
	00		 je	 $LN123@Emplace_re

; 1909 :         return static_cast<size_type>(_My_data._Myend - _My_data._Myfirst);

  00028	8b 56 08	 mov	 edx, DWORD PTR [esi+8]

; 874  :         }
; 875  : 
; 876  :         const size_type _Newsize = _Oldsize + 1;

  0002b	8d 78 01	 lea	 edi, DWORD PTR [eax+1]

; 1909 :         return static_cast<size_type>(_My_data._Myend - _My_data._Myfirst);

  0002e	2b d1		 sub	 edx, ecx

; 874  :         }
; 875  : 
; 876  :         const size_type _Newsize = _Oldsize + 1;

  00030	89 7d f4	 mov	 DWORD PTR __Newsize$1$[ebp], edi

; 1909 :         return static_cast<size_type>(_My_data._Myend - _My_data._Myfirst);

  00033	c1 fa 02	 sar	 edx, 2

; 1996 :         if (_Oldcapacity > _Max - _Oldcapacity / 2) {

  00036	b8 ff ff ff 3f	 mov	 eax, 1073741823		; 3fffffffH
  0003b	8b ca		 mov	 ecx, edx
  0003d	d1 e9		 shr	 ecx, 1
  0003f	2b c1		 sub	 eax, ecx
  00041	3b d0		 cmp	 edx, eax
  00043	76 14		 jbe	 SHORT $LN8@Emplace_re

; 1997 :             return _Max; // geometric growth would overflow

  00045	b8 fc ff ff ff	 mov	 eax, -4			; fffffffcH
  0004a	c7 45 f8 fc ff
	ff ff		 mov	 DWORD PTR tv652[ebp], -4 ; fffffffcH
; File D:\Program Files\Microsoft Visual Studio\2022\Community\VC\Tools\MSVC\14.43.34808\include\xmemory

; 253  :             return _Allocate_manually_vector_aligned<_Traits>(_Bytes);

  00051	50		 push	 eax
  00052	e8 00 00 00 00	 call	 ??$_Allocate_manually_vector_aligned@U_Default_allocate_traits@std@@@std@@YAPAXI@Z ; std::_Allocate_manually_vector_aligned<std::_Default_allocate_traits>
  00057	eb 3d		 jmp	 SHORT $LN121@Emplace_re
$LN8@Emplace_re:
; File D:\Program Files\Microsoft Visual Studio\2022\Community\VC\Tools\MSVC\14.43.34808\include\vector

; 2000 :         const size_type _Geometric = _Oldcapacity + _Oldcapacity / 2;

  00059	8d 04 11	 lea	 eax, DWORD PTR [ecx+edx]
; File D:\Program Files\Microsoft Visual Studio\2022\Community\VC\Tools\MSVC\14.43.34808\include\xmemory

; 117  :         if (_Count > _Max_possible) {

  0005c	8b cf		 mov	 ecx, edi
  0005e	3b c7		 cmp	 eax, edi
  00060	0f 43 c8	 cmovae	 ecx, eax
  00063	81 f9 ff ff ff
	3f		 cmp	 ecx, 1073741823		; 3fffffffH
  00069	0f 87 c7 00 00
	00		 ja	 $LN124@Emplace_re

; 119  :         }
; 120  :     }
; 121  : 
; 122  :     return _Count * _Ty_size;

  0006f	8d 04 8d 00 00
	00 00		 lea	 eax, DWORD PTR [ecx*4]
  00076	89 45 f8	 mov	 DWORD PTR tv652[ebp], eax

; 227  :     if (_Bytes == 0) {

  00079	85 c0		 test	 eax, eax
  0007b	75 04		 jne	 SHORT $LN23@Emplace_re

; 228  :         return nullptr;

  0007d	33 ff		 xor	 edi, edi
  0007f	eb 1a		 jmp	 SHORT $LN22@Emplace_re
$LN23@Emplace_re:

; 229  :     }
; 230  : 
; 231  : #if _HAS_CXX20 // TRANSITION, GH-1532
; 232  :     if (_STD is_constant_evaluated()) {
; 233  :         return _Traits::_Allocate(_Bytes);
; 234  :     }
; 235  : #endif // _HAS_CXX20
; 236  : 
; 237  : #ifdef __cpp_aligned_new
; 238  :     if constexpr (_Align > __STDCPP_DEFAULT_NEW_ALIGNMENT__) {
; 239  :         size_t _Passed_align = _Align;
; 240  : #if defined(_M_IX86) || defined(_M_X64)
; 241  :         if (_Bytes >= _Big_allocation_threshold) {
; 242  :             // boost the alignment of big allocations to help autovectorization
; 243  :             _Passed_align = (_STD max)(_Align, _Big_allocation_alignment);
; 244  :         }
; 245  : #endif // defined(_M_IX86) || defined(_M_X64)
; 246  :         return _Traits::_Allocate_aligned(_Bytes, _Passed_align);
; 247  :     } else
; 248  : #endif // defined(__cpp_aligned_new)
; 249  :     {
; 250  : #if defined(_M_IX86) || defined(_M_X64)
; 251  :         if (_Bytes >= _Big_allocation_threshold) {

  00081	3d 00 10 00 00	 cmp	 eax, 4096		; 00001000H
  00086	72 08		 jb	 SHORT $LN24@Emplace_re

; 253  :             return _Allocate_manually_vector_aligned<_Traits>(_Bytes);

  00088	50		 push	 eax
  00089	e8 00 00 00 00	 call	 ??$_Allocate_manually_vector_aligned@U_Default_allocate_traits@std@@@std@@YAPAXI@Z ; std::_Allocate_manually_vector_aligned<std::_Default_allocate_traits>
  0008e	eb 06		 jmp	 SHORT $LN121@Emplace_re
$LN24@Emplace_re:

; 136  :         return ::operator new(_Bytes);

  00090	50		 push	 eax
  00091	e8 00 00 00 00	 call	 ??2@YAPAXI@Z		; operator new
$LN121@Emplace_re:
; File D:\Program Files\Microsoft Visual Studio\2022\Community\VC\Tools\MSVC\14.43.34808\include\vector

; 885  :         _Alty_traits::construct(_Al, _STD _Unfancy(_Newvec + _Whereoff), _STD forward<_Valty>(_Val)...);

  00096	8b f8		 mov	 edi, eax
  00098	83 c4 04	 add	 esp, 4
$LN22@Emplace_re:
  0009b	8b 45 0c	 mov	 eax, DWORD PTR _<_Val_0>$[ebp]
  0009e	8d 0c 9f	 lea	 ecx, DWORD PTR [edi+ebx*4]

; 886  :         _Constructed_first = _Newvec + _Whereoff;
; 887  : 
; 888  :         if (_Whereptr == _Mylast) { // at back, provide strong guarantee

  000a1	8b 5d 08	 mov	 ebx, DWORD PTR __Whereptr$[ebp]
  000a4	89 4d fc	 mov	 DWORD PTR tv650[ebp], ecx
  000a7	8b 00		 mov	 eax, DWORD PTR [eax]
  000a9	89 01		 mov	 DWORD PTR [ecx], eax
  000ab	8b 46 04	 mov	 eax, DWORD PTR [esi+4]
  000ae	8b 0e		 mov	 ecx, DWORD PTR [esi]
  000b0	3b d8		 cmp	 ebx, eax
  000b2	75 07		 jne	 SHORT $LN3@Emplace_re

; 894  :         } else { // provide basic guarantee

  000b4	8b 5d fc	 mov	 ebx, DWORD PTR tv650[ebp]
; File D:\Program Files\Microsoft Visual Studio\2022\Community\VC\Tools\MSVC\14.43.34808\include\xmemory

; 1955 :             _STD _Copy_memmove(_UFirst, _ULast, _STD _Unfancy(_Dest));

  000b7	8b d7		 mov	 edx, edi
; File D:\Program Files\Microsoft Visual Studio\2022\Community\VC\Tools\MSVC\14.43.34808\include\vector

; 894  :         } else { // provide basic guarantee

  000b9	eb 16		 jmp	 SHORT $LN52@Emplace_re
$LN3@Emplace_re:
; File D:\Program Files\Microsoft Visual Studio\2022\Community\VC\Tools\MSVC\14.43.34808\include\xmemory

; 1955 :             _STD _Copy_memmove(_UFirst, _ULast, _STD _Unfancy(_Dest));

  000bb	57		 push	 edi
  000bc	53		 push	 ebx
  000bd	51		 push	 ecx
  000be	e8 00 00 00 00	 call	 ??$_Copy_memmove@PAPAVCSphereCollisionInstance@@PAPAV1@@std@@YAPAPAVCSphereCollisionInstance@@PAPAV1@00@Z ; std::_Copy_memmove<CSphereCollisionInstance * *,CSphereCollisionInstance * *>
  000c3	8b 46 04	 mov	 eax, DWORD PTR [esi+4]
  000c6	8b cb		 mov	 ecx, ebx
; File D:\Program Files\Microsoft Visual Studio\2022\Community\VC\Tools\MSVC\14.43.34808\include\vector

; 897  :             _STD _Uninitialized_move(_Whereptr, _Mylast, _Newvec + _Whereoff + 1, _Al);

  000c8	8b 5d fc	 mov	 ebx, DWORD PTR tv650[ebp]
; File D:\Program Files\Microsoft Visual Studio\2022\Community\VC\Tools\MSVC\14.43.34808\include\xmemory

; 1955 :             _STD _Copy_memmove(_UFirst, _ULast, _STD _Unfancy(_Dest));

  000cb	83 c4 0c	 add	 esp, 12			; 0000000cH
; File D:\Program Files\Microsoft Visual Studio\2022\Community\VC\Tools\MSVC\14.43.34808\include\vector

; 897  :             _STD _Uninitialized_move(_Whereptr, _Mylast, _Newvec + _Whereoff + 1, _Al);

  000ce	8d 53 04	 lea	 edx, DWORD PTR [ebx+4]
$LN52@Emplace_re:

; 898  :         }
; 899  : 
; 900  :         _Guard._New_begin = nullptr;

  000d1	52		 push	 edx
  000d2	50		 push	 eax
  000d3	51		 push	 ecx
  000d4	e8 00 00 00 00	 call	 ??$_Copy_memmove@PAPAVCSphereCollisionInstance@@PAPAV1@@std@@YAPAPAVCSphereCollisionInstance@@PAPAV1@00@Z ; std::_Copy_memmove<CSphereCollisionInstance * *,CSphereCollisionInstance * *>

; 2054 :         if (_Myfirst) { // destroy and deallocate old array

  000d9	8b 06		 mov	 eax, DWORD PTR [esi]

; 898  :         }
; 899  : 
; 900  :         _Guard._New_begin = nullptr;

  000db	83 c4 0c	 add	 esp, 12			; 0000000cH

; 2054 :         if (_Myfirst) { // destroy and deallocate old array

  000de	85 c0		 test	 eax, eax
  000e0	74 2c		 je	 SHORT $LN72@Emplace_re

; 2055 :             _STD _Destroy_range(_Myfirst, _Mylast, _Al);
; 2056 :             _ASAN_VECTOR_REMOVE;
; 2057 :             _Al.deallocate(_Myfirst, static_cast<size_type>(_Myend - _Myfirst));

  000e2	8b 4e 08	 mov	 ecx, DWORD PTR [esi+8]
  000e5	2b c8		 sub	 ecx, eax
; File D:\Program Files\Microsoft Visual Studio\2022\Community\VC\Tools\MSVC\14.43.34808\include\xmemory

; 981  :         _STD _Deallocate<_New_alignof<_Ty>>(_Ptr, sizeof(_Ty) * _Count);

  000e7	83 e1 fc	 and	 ecx, -4			; fffffffcH

; 284  :         if (_Bytes >= _Big_allocation_threshold) {

  000ea	81 f9 00 10 00
	00		 cmp	 ecx, 4096		; 00001000H
  000f0	72 12		 jb	 SHORT $LN83@Emplace_re

; 205  :     const uintptr_t _Ptr_container   = _Ptr_user[-1];

  000f2	8b 50 fc	 mov	 edx, DWORD PTR [eax-4]
  000f5	83 c1 23	 add	 ecx, 35			; 00000023H

; 206  : 
; 207  :     // If the following asserts, it likely means that we are performing
; 208  :     // an aligned delete on memory coming from an unaligned allocation.
; 209  :     _STL_ASSERT(_Ptr_user[-2] == _Big_allocation_sentinel, "invalid argument");
; 210  : 
; 211  :     // Extra paranoia on aligned allocation/deallocation; ensure _Ptr_container is
; 212  :     // in range [_Min_back_shift, _Non_user_size]
; 213  : #ifdef _DEBUG
; 214  :     constexpr uintptr_t _Min_back_shift = 2 * sizeof(void*);
; 215  : #else // ^^^ defined(_DEBUG) / !defined(_DEBUG) vvv
; 216  :     constexpr uintptr_t _Min_back_shift = sizeof(void*);
; 217  : #endif // ^^^ !defined(_DEBUG) ^^^
; 218  :     const uintptr_t _Back_shift = reinterpret_cast<uintptr_t>(_Ptr) - _Ptr_container;

  000f8	2b c2		 sub	 eax, edx

; 219  :     _STL_VERIFY(_Back_shift >= _Min_back_shift && _Back_shift <= _Non_user_size, "invalid argument");

  000fa	83 c0 fc	 add	 eax, -4			; fffffffcH
  000fd	83 f8 1f	 cmp	 eax, 31			; 0000001fH
  00100	77 2a		 ja	 SHORT $LN80@Emplace_re

; 220  :     _Ptr = reinterpret_cast<void*>(_Ptr_container);

  00102	8b c2		 mov	 eax, edx
$LN83@Emplace_re:

; 289  :         ::operator delete(_Ptr, _Bytes);

  00104	51		 push	 ecx
  00105	50		 push	 eax
  00106	e8 00 00 00 00	 call	 ??3@YAXPAXI@Z		; operator delete
  0010b	83 c4 08	 add	 esp, 8
$LN72@Emplace_re:
; File D:\Program Files\Microsoft Visual Studio\2022\Community\VC\Tools\MSVC\14.43.34808\include\vector

; 2061 :         _Mylast  = _Newvec + _Newsize;

  0010e	8b 45 f4	 mov	 eax, DWORD PTR __Newsize$1$[ebp]
  00111	89 3e		 mov	 DWORD PTR [esi], edi
  00113	8d 0c 87	 lea	 ecx, DWORD PTR [edi+eax*4]

; 901  :         _Change_array(_Newvec, _Newsize, _Newcapacity);
; 902  :         return _Newvec + _Whereoff;

  00116	8b c3		 mov	 eax, ebx

; 2061 :         _Mylast  = _Newvec + _Newsize;

  00118	89 4e 04	 mov	 DWORD PTR [esi+4], ecx

; 2062 :         _Myend   = _Newvec + _Newcapacity;

  0011b	8b 4d f8	 mov	 ecx, DWORD PTR tv652[ebp]
  0011e	03 cf		 add	 ecx, edi

; 903  :     }

  00120	5f		 pop	 edi

; 2062 :         _Myend   = _Newvec + _Newcapacity;

  00121	89 4e 08	 mov	 DWORD PTR [esi+8], ecx

; 903  :     }

  00124	5e		 pop	 esi
  00125	5b		 pop	 ebx
  00126	8b e5		 mov	 esp, ebp
  00128	5d		 pop	 ebp
  00129	c2 08 00	 ret	 8
$LN80@Emplace_re:
; File D:\Program Files\Microsoft Visual Studio\2022\Community\VC\Tools\MSVC\14.43.34808\include\xmemory

; 219  :     _STL_VERIFY(_Back_shift >= _Min_back_shift && _Back_shift <= _Non_user_size, "invalid argument");

  0012c	e8 00 00 00 00	 call	 __invalid_parameter_noinfo_noreturn
$LN123@Emplace_re:
; File D:\Program Files\Microsoft Visual Studio\2022\Community\VC\Tools\MSVC\14.43.34808\include\vector

; 873  :             _Xlength();

  00131	e8 00 00 00 00	 call	 ?_Xlength@?$vector@PAVCSphereCollisionInstance@@V?$allocator@PAVCSphereCollisionInstance@@@std@@@std@@CAXXZ ; std::vector<CSphereCollisionInstance *,std::allocator<CSphereCollisionInstance *> >::_Xlength
$LN124@Emplace_re:
; File D:\Program Files\Microsoft Visual Studio\2022\Community\VC\Tools\MSVC\14.43.34808\include\xmemory

; 118  :             _Throw_bad_array_new_length(); // multiply overflow

  00136	e8 00 00 00 00	 call	 ?_Throw_bad_array_new_length@std@@YAXXZ ; std::_Throw_bad_array_new_length
$LN120@Emplace_re:
  0013b	cc		 int	 3
??$_Emplace_reallocate@ABQAVCSphereCollisionInstance@@@?$vector@PAVCSphereCollisionInstance@@V?$allocator@PAVCSphereCollisionInstance@@@std@@@std@@AAEPAPAVCSphereCollisionInstance@@QAPAV2@ABQAV2@@Z ENDP ; std::vector<CSphereCollisionInstance *,std::allocator<CSphereCollisionInstance *> >::_Emplace_reallocate<CSphereCollisionInstance * const &>
_TEXT	ENDS
; Function compile flags: /Ogtp
; File D:\Program Files\Microsoft Visual Studio\2022\Community\VC\Tools\MSVC\14.43.34808\include\vector
; File D:\Program Files\Microsoft Visual Studio\2022\Community\VC\Tools\MSVC\14.43.34808\include\xmemory
; File D:\Program Files\Microsoft Visual Studio\2022\Community\VC\Tools\MSVC\14.43.34808\include\vector
; File D:\Program Files\Microsoft Visual Studio\2022\Community\VC\Tools\MSVC\14.43.34808\include\xmemory
; File D:\Program Files\Microsoft Visual Studio\2022\Community\VC\Tools\MSVC\14.43.34808\include\vector
; File D:\Program Files\Microsoft Visual Studio\2022\Community\VC\Tools\MSVC\14.43.34808\include\xmemory
; File D:\Program Files\Microsoft Visual Studio\2022\Community\VC\Tools\MSVC\14.43.34808\include\vector
; File D:\Program Files\Microsoft Visual Studio\2022\Community\VC\Tools\MSVC\14.43.34808\include\xmemory
; File D:\Program Files\Microsoft Visual Studio\2022\Community\VC\Tools\MSVC\14.43.34808\include\vector
; File D:\Program Files\Microsoft Visual Studio\2022\Community\VC\Tools\MSVC\14.43.34808\include\xmemory
; File D:\Program Files\Microsoft Visual Studio\2022\Community\VC\Tools\MSVC\14.43.34808\include\vector
; File D:\Program Files\Microsoft Visual Studio\2022\Community\VC\Tools\MSVC\14.43.34808\include\xmemory
; File D:\Program Files\Microsoft Visual Studio\2022\Community\VC\Tools\MSVC\14.43.34808\include\vector
; File D:\Program Files\Microsoft Visual Studio\2022\Community\VC\Tools\MSVC\14.43.34808\include\xmemory
; File D:\Program Files\Microsoft Visual Studio\2022\Community\VC\Tools\MSVC\14.43.34808\include\vector
; File D:\Program Files\Microsoft Visual Studio\2022\Community\VC\Tools\MSVC\14.43.34808\include\xmemory
; File D:\Program Files\Microsoft Visual Studio\2022\Community\VC\Tools\MSVC\14.43.34808\include\vector
;	COMDAT ??$_Emplace_reallocate@ABQAVCCylinderCollisionInstance@@@?$vector@PAVCCylinderCollisionInstance@@V?$allocator@PAVCCylinderCollisionInstance@@@std@@@std@@AAEPAPAVCCylinderCollisionInstance@@QAPAV2@ABQAV2@@Z
_TEXT	SEGMENT
__Newsize$1$ = -12					; size = 4
tv652 = -8						; size = 4
tv650 = -4						; size = 4
__Whereptr$ = 8						; size = 4
_<_Val_0>$ = 12						; size = 4
??$_Emplace_reallocate@ABQAVCCylinderCollisionInstance@@@?$vector@PAVCCylinderCollisionInstance@@V?$allocator@PAVCCylinderCollisionInstance@@@std@@@std@@AAEPAPAVCCylinderCollisionInstance@@QAPAV2@ABQAV2@@Z PROC ; std::vector<CCylinderCollisionInstance *,std::allocator<CCylinderCollisionInstance *> >::_Emplace_reallocate<CCylinderCollisionInstance * const &>, COMDAT
; _this$ = ecx

; 860  :     _CONSTEXPR20 pointer _Emplace_reallocate(const pointer _Whereptr, _Valty&&... _Val) {

  00000	55		 push	 ebp
  00001	8b ec		 mov	 ebp, esp
  00003	83 ec 0c	 sub	 esp, 12			; 0000000cH
  00006	53		 push	 ebx

; 861  :         // reallocate and insert by perfectly forwarding _Val at _Whereptr
; 862  :         _Alty& _Al        = _Getal();
; 863  :         auto& _My_data    = _Mypair._Myval2;
; 864  :         pointer& _Myfirst = _My_data._Myfirst;
; 865  :         pointer& _Mylast  = _My_data._Mylast;
; 866  : 
; 867  :         _STL_INTERNAL_CHECK(_Mylast == _My_data._Myend); // check that we have no unused capacity
; 868  : 
; 869  :         const auto _Whereoff = static_cast<size_type>(_Whereptr - _Myfirst);

  00007	8b 5d 08	 mov	 ebx, DWORD PTR __Whereptr$[ebp]
  0000a	56		 push	 esi
  0000b	8b f1		 mov	 esi, ecx
  0000d	57		 push	 edi
  0000e	8b 0e		 mov	 ecx, DWORD PTR [esi]
  00010	2b d9		 sub	 ebx, ecx

; 870  :         const auto _Oldsize  = static_cast<size_type>(_Mylast - _Myfirst);

  00012	8b 46 04	 mov	 eax, DWORD PTR [esi+4]
  00015	2b c1		 sub	 eax, ecx
  00017	c1 fb 02	 sar	 ebx, 2
  0001a	c1 f8 02	 sar	 eax, 2

; 871  : 
; 872  :         if (_Oldsize == max_size()) {

  0001d	3d ff ff ff 3f	 cmp	 eax, 1073741823		; 3fffffffH
  00022	0f 84 09 01 00
	00		 je	 $LN123@Emplace_re

; 1909 :         return static_cast<size_type>(_My_data._Myend - _My_data._Myfirst);

  00028	8b 56 08	 mov	 edx, DWORD PTR [esi+8]

; 874  :         }
; 875  : 
; 876  :         const size_type _Newsize = _Oldsize + 1;

  0002b	8d 78 01	 lea	 edi, DWORD PTR [eax+1]

; 1909 :         return static_cast<size_type>(_My_data._Myend - _My_data._Myfirst);

  0002e	2b d1		 sub	 edx, ecx

; 874  :         }
; 875  : 
; 876  :         const size_type _Newsize = _Oldsize + 1;

  00030	89 7d f4	 mov	 DWORD PTR __Newsize$1$[ebp], edi

; 1909 :         return static_cast<size_type>(_My_data._Myend - _My_data._Myfirst);

  00033	c1 fa 02	 sar	 edx, 2

; 1996 :         if (_Oldcapacity > _Max - _Oldcapacity / 2) {

  00036	b8 ff ff ff 3f	 mov	 eax, 1073741823		; 3fffffffH
  0003b	8b ca		 mov	 ecx, edx
  0003d	d1 e9		 shr	 ecx, 1
  0003f	2b c1		 sub	 eax, ecx
  00041	3b d0		 cmp	 edx, eax
  00043	76 14		 jbe	 SHORT $LN8@Emplace_re

; 1997 :             return _Max; // geometric growth would overflow

  00045	b8 fc ff ff ff	 mov	 eax, -4			; fffffffcH
  0004a	c7 45 f8 fc ff
	ff ff		 mov	 DWORD PTR tv652[ebp], -4 ; fffffffcH
; File D:\Program Files\Microsoft Visual Studio\2022\Community\VC\Tools\MSVC\14.43.34808\include\xmemory

; 253  :             return _Allocate_manually_vector_aligned<_Traits>(_Bytes);

  00051	50		 push	 eax
  00052	e8 00 00 00 00	 call	 ??$_Allocate_manually_vector_aligned@U_Default_allocate_traits@std@@@std@@YAPAXI@Z ; std::_Allocate_manually_vector_aligned<std::_Default_allocate_traits>
  00057	eb 3d		 jmp	 SHORT $LN121@Emplace_re
$LN8@Emplace_re:
; File D:\Program Files\Microsoft Visual Studio\2022\Community\VC\Tools\MSVC\14.43.34808\include\vector

; 2000 :         const size_type _Geometric = _Oldcapacity + _Oldcapacity / 2;

  00059	8d 04 11	 lea	 eax, DWORD PTR [ecx+edx]
; File D:\Program Files\Microsoft Visual Studio\2022\Community\VC\Tools\MSVC\14.43.34808\include\xmemory

; 117  :         if (_Count > _Max_possible) {

  0005c	8b cf		 mov	 ecx, edi
  0005e	3b c7		 cmp	 eax, edi
  00060	0f 43 c8	 cmovae	 ecx, eax
  00063	81 f9 ff ff ff
	3f		 cmp	 ecx, 1073741823		; 3fffffffH
  00069	0f 87 c7 00 00
	00		 ja	 $LN124@Emplace_re

; 119  :         }
; 120  :     }
; 121  : 
; 122  :     return _Count * _Ty_size;

  0006f	8d 04 8d 00 00
	00 00		 lea	 eax, DWORD PTR [ecx*4]
  00076	89 45 f8	 mov	 DWORD PTR tv652[ebp], eax

; 227  :     if (_Bytes == 0) {

  00079	85 c0		 test	 eax, eax
  0007b	75 04		 jne	 SHORT $LN23@Emplace_re

; 228  :         return nullptr;

  0007d	33 ff		 xor	 edi, edi
  0007f	eb 1a		 jmp	 SHORT $LN22@Emplace_re
$LN23@Emplace_re:

; 229  :     }
; 230  : 
; 231  : #if _HAS_CXX20 // TRANSITION, GH-1532
; 232  :     if (_STD is_constant_evaluated()) {
; 233  :         return _Traits::_Allocate(_Bytes);
; 234  :     }
; 235  : #endif // _HAS_CXX20
; 236  : 
; 237  : #ifdef __cpp_aligned_new
; 238  :     if constexpr (_Align > __STDCPP_DEFAULT_NEW_ALIGNMENT__) {
; 239  :         size_t _Passed_align = _Align;
; 240  : #if defined(_M_IX86) || defined(_M_X64)
; 241  :         if (_Bytes >= _Big_allocation_threshold) {
; 242  :             // boost the alignment of big allocations to help autovectorization
; 243  :             _Passed_align = (_STD max)(_Align, _Big_allocation_alignment);
; 244  :         }
; 245  : #endif // defined(_M_IX86) || defined(_M_X64)
; 246  :         return _Traits::_Allocate_aligned(_Bytes, _Passed_align);
; 247  :     } else
; 248  : #endif // defined(__cpp_aligned_new)
; 249  :     {
; 250  : #if defined(_M_IX86) || defined(_M_X64)
; 251  :         if (_Bytes >= _Big_allocation_threshold) {

  00081	3d 00 10 00 00	 cmp	 eax, 4096		; 00001000H
  00086	72 08		 jb	 SHORT $LN24@Emplace_re

; 253  :             return _Allocate_manually_vector_aligned<_Traits>(_Bytes);

  00088	50		 push	 eax
  00089	e8 00 00 00 00	 call	 ??$_Allocate_manually_vector_aligned@U_Default_allocate_traits@std@@@std@@YAPAXI@Z ; std::_Allocate_manually_vector_aligned<std::_Default_allocate_traits>
  0008e	eb 06		 jmp	 SHORT $LN121@Emplace_re
$LN24@Emplace_re:

; 136  :         return ::operator new(_Bytes);

  00090	50		 push	 eax
  00091	e8 00 00 00 00	 call	 ??2@YAPAXI@Z		; operator new
$LN121@Emplace_re:
; File D:\Program Files\Microsoft Visual Studio\2022\Community\VC\Tools\MSVC\14.43.34808\include\vector

; 885  :         _Alty_traits::construct(_Al, _STD _Unfancy(_Newvec + _Whereoff), _STD forward<_Valty>(_Val)...);

  00096	8b f8		 mov	 edi, eax
  00098	83 c4 04	 add	 esp, 4
$LN22@Emplace_re:
  0009b	8b 45 0c	 mov	 eax, DWORD PTR _<_Val_0>$[ebp]
  0009e	8d 0c 9f	 lea	 ecx, DWORD PTR [edi+ebx*4]

; 886  :         _Constructed_first = _Newvec + _Whereoff;
; 887  : 
; 888  :         if (_Whereptr == _Mylast) { // at back, provide strong guarantee

  000a1	8b 5d 08	 mov	 ebx, DWORD PTR __Whereptr$[ebp]
  000a4	89 4d fc	 mov	 DWORD PTR tv650[ebp], ecx
  000a7	8b 00		 mov	 eax, DWORD PTR [eax]
  000a9	89 01		 mov	 DWORD PTR [ecx], eax
  000ab	8b 46 04	 mov	 eax, DWORD PTR [esi+4]
  000ae	8b 0e		 mov	 ecx, DWORD PTR [esi]
  000b0	3b d8		 cmp	 ebx, eax
  000b2	75 07		 jne	 SHORT $LN3@Emplace_re

; 894  :         } else { // provide basic guarantee

  000b4	8b 5d fc	 mov	 ebx, DWORD PTR tv650[ebp]
; File D:\Program Files\Microsoft Visual Studio\2022\Community\VC\Tools\MSVC\14.43.34808\include\xmemory

; 1955 :             _STD _Copy_memmove(_UFirst, _ULast, _STD _Unfancy(_Dest));

  000b7	8b d7		 mov	 edx, edi
; File D:\Program Files\Microsoft Visual Studio\2022\Community\VC\Tools\MSVC\14.43.34808\include\vector

; 894  :         } else { // provide basic guarantee

  000b9	eb 16		 jmp	 SHORT $LN52@Emplace_re
$LN3@Emplace_re:
; File D:\Program Files\Microsoft Visual Studio\2022\Community\VC\Tools\MSVC\14.43.34808\include\xmemory

; 1955 :             _STD _Copy_memmove(_UFirst, _ULast, _STD _Unfancy(_Dest));

  000bb	57		 push	 edi
  000bc	53		 push	 ebx
  000bd	51		 push	 ecx
  000be	e8 00 00 00 00	 call	 ??$_Copy_memmove@PAPAVCCylinderCollisionInstance@@PAPAV1@@std@@YAPAPAVCCylinderCollisionInstance@@PAPAV1@00@Z ; std::_Copy_memmove<CCylinderCollisionInstance * *,CCylinderCollisionInstance * *>
  000c3	8b 46 04	 mov	 eax, DWORD PTR [esi+4]
  000c6	8b cb		 mov	 ecx, ebx
; File D:\Program Files\Microsoft Visual Studio\2022\Community\VC\Tools\MSVC\14.43.34808\include\vector

; 897  :             _STD _Uninitialized_move(_Whereptr, _Mylast, _Newvec + _Whereoff + 1, _Al);

  000c8	8b 5d fc	 mov	 ebx, DWORD PTR tv650[ebp]
; File D:\Program Files\Microsoft Visual Studio\2022\Community\VC\Tools\MSVC\14.43.34808\include\xmemory

; 1955 :             _STD _Copy_memmove(_UFirst, _ULast, _STD _Unfancy(_Dest));

  000cb	83 c4 0c	 add	 esp, 12			; 0000000cH
; File D:\Program Files\Microsoft Visual Studio\2022\Community\VC\Tools\MSVC\14.43.34808\include\vector

; 897  :             _STD _Uninitialized_move(_Whereptr, _Mylast, _Newvec + _Whereoff + 1, _Al);

  000ce	8d 53 04	 lea	 edx, DWORD PTR [ebx+4]
$LN52@Emplace_re:

; 898  :         }
; 899  : 
; 900  :         _Guard._New_begin = nullptr;

  000d1	52		 push	 edx
  000d2	50		 push	 eax
  000d3	51		 push	 ecx
  000d4	e8 00 00 00 00	 call	 ??$_Copy_memmove@PAPAVCCylinderCollisionInstance@@PAPAV1@@std@@YAPAPAVCCylinderCollisionInstance@@PAPAV1@00@Z ; std::_Copy_memmove<CCylinderCollisionInstance * *,CCylinderCollisionInstance * *>

; 2054 :         if (_Myfirst) { // destroy and deallocate old array

  000d9	8b 06		 mov	 eax, DWORD PTR [esi]

; 898  :         }
; 899  : 
; 900  :         _Guard._New_begin = nullptr;

  000db	83 c4 0c	 add	 esp, 12			; 0000000cH

; 2054 :         if (_Myfirst) { // destroy and deallocate old array

  000de	85 c0		 test	 eax, eax
  000e0	74 2c		 je	 SHORT $LN72@Emplace_re

; 2055 :             _STD _Destroy_range(_Myfirst, _Mylast, _Al);
; 2056 :             _ASAN_VECTOR_REMOVE;
; 2057 :             _Al.deallocate(_Myfirst, static_cast<size_type>(_Myend - _Myfirst));

  000e2	8b 4e 08	 mov	 ecx, DWORD PTR [esi+8]
  000e5	2b c8		 sub	 ecx, eax
; File D:\Program Files\Microsoft Visual Studio\2022\Community\VC\Tools\MSVC\14.43.34808\include\xmemory

; 981  :         _STD _Deallocate<_New_alignof<_Ty>>(_Ptr, sizeof(_Ty) * _Count);

  000e7	83 e1 fc	 and	 ecx, -4			; fffffffcH

; 284  :         if (_Bytes >= _Big_allocation_threshold) {

  000ea	81 f9 00 10 00
	00		 cmp	 ecx, 4096		; 00001000H
  000f0	72 12		 jb	 SHORT $LN83@Emplace_re

; 205  :     const uintptr_t _Ptr_container   = _Ptr_user[-1];

  000f2	8b 50 fc	 mov	 edx, DWORD PTR [eax-4]
  000f5	83 c1 23	 add	 ecx, 35			; 00000023H

; 206  : 
; 207  :     // If the following asserts, it likely means that we are performing
; 208  :     // an aligned delete on memory coming from an unaligned allocation.
; 209  :     _STL_ASSERT(_Ptr_user[-2] == _Big_allocation_sentinel, "invalid argument");
; 210  : 
; 211  :     // Extra paranoia on aligned allocation/deallocation; ensure _Ptr_container is
; 212  :     // in range [_Min_back_shift, _Non_user_size]
; 213  : #ifdef _DEBUG
; 214  :     constexpr uintptr_t _Min_back_shift = 2 * sizeof(void*);
; 215  : #else // ^^^ defined(_DEBUG) / !defined(_DEBUG) vvv
; 216  :     constexpr uintptr_t _Min_back_shift = sizeof(void*);
; 217  : #endif // ^^^ !defined(_DEBUG) ^^^
; 218  :     const uintptr_t _Back_shift = reinterpret_cast<uintptr_t>(_Ptr) - _Ptr_container;

  000f8	2b c2		 sub	 eax, edx

; 219  :     _STL_VERIFY(_Back_shift >= _Min_back_shift && _Back_shift <= _Non_user_size, "invalid argument");

  000fa	83 c0 fc	 add	 eax, -4			; fffffffcH
  000fd	83 f8 1f	 cmp	 eax, 31			; 0000001fH
  00100	77 2a		 ja	 SHORT $LN80@Emplace_re

; 220  :     _Ptr = reinterpret_cast<void*>(_Ptr_container);

  00102	8b c2		 mov	 eax, edx
$LN83@Emplace_re:

; 289  :         ::operator delete(_Ptr, _Bytes);

  00104	51		 push	 ecx
  00105	50		 push	 eax
  00106	e8 00 00 00 00	 call	 ??3@YAXPAXI@Z		; operator delete
  0010b	83 c4 08	 add	 esp, 8
$LN72@Emplace_re:
; File D:\Program Files\Microsoft Visual Studio\2022\Community\VC\Tools\MSVC\14.43.34808\include\vector

; 2061 :         _Mylast  = _Newvec + _Newsize;

  0010e	8b 45 f4	 mov	 eax, DWORD PTR __Newsize$1$[ebp]
  00111	89 3e		 mov	 DWORD PTR [esi], edi
  00113	8d 0c 87	 lea	 ecx, DWORD PTR [edi+eax*4]

; 901  :         _Change_array(_Newvec, _Newsize, _Newcapacity);
; 902  :         return _Newvec + _Whereoff;

  00116	8b c3		 mov	 eax, ebx

; 2061 :         _Mylast  = _Newvec + _Newsize;

  00118	89 4e 04	 mov	 DWORD PTR [esi+4], ecx

; 2062 :         _Myend   = _Newvec + _Newcapacity;

  0011b	8b 4d f8	 mov	 ecx, DWORD PTR tv652[ebp]
  0011e	03 cf		 add	 ecx, edi

; 903  :     }

  00120	5f		 pop	 edi

; 2062 :         _Myend   = _Newvec + _Newcapacity;

  00121	89 4e 08	 mov	 DWORD PTR [esi+8], ecx

; 903  :     }

  00124	5e		 pop	 esi
  00125	5b		 pop	 ebx
  00126	8b e5		 mov	 esp, ebp
  00128	5d		 pop	 ebp
  00129	c2 08 00	 ret	 8
$LN80@Emplace_re:
; File D:\Program Files\Microsoft Visual Studio\2022\Community\VC\Tools\MSVC\14.43.34808\include\xmemory

; 219  :     _STL_VERIFY(_Back_shift >= _Min_back_shift && _Back_shift <= _Non_user_size, "invalid argument");

  0012c	e8 00 00 00 00	 call	 __invalid_parameter_noinfo_noreturn
$LN123@Emplace_re:
; File D:\Program Files\Microsoft Visual Studio\2022\Community\VC\Tools\MSVC\14.43.34808\include\vector

; 873  :             _Xlength();

  00131	e8 00 00 00 00	 call	 ?_Xlength@?$vector@PAVCCylinderCollisionInstance@@V?$allocator@PAVCCylinderCollisionInstance@@@std@@@std@@CAXXZ ; std::vector<CCylinderCollisionInstance *,std::allocator<CCylinderCollisionInstance *> >::_Xlength
$LN124@Emplace_re:
; File D:\Program Files\Microsoft Visual Studio\2022\Community\VC\Tools\MSVC\14.43.34808\include\xmemory

; 118  :             _Throw_bad_array_new_length(); // multiply overflow

  00136	e8 00 00 00 00	 call	 ?_Throw_bad_array_new_length@std@@YAXXZ ; std::_Throw_bad_array_new_length
$LN120@Emplace_re:
  0013b	cc		 int	 3
??$_Emplace_reallocate@ABQAVCCylinderCollisionInstance@@@?$vector@PAVCCylinderCollisionInstance@@V?$allocator@PAVCCylinderCollisionInstance@@@std@@@std@@AAEPAPAVCCylinderCollisionInstance@@QAPAV2@ABQAV2@@Z ENDP ; std::vector<CCylinderCollisionInstance *,std::allocator<CCylinderCollisionInstance *> >::_Emplace_reallocate<CCylinderCollisionInstance * const &>
_TEXT	ENDS
; Function compile flags: /Ogtp
; File D:\Program Files\Microsoft Visual Studio\2022\Community\VC\Tools\MSVC\14.43.34808\include\vector
; File D:\Program Files\Microsoft Visual Studio\2022\Community\VC\Tools\MSVC\14.43.34808\include\xmemory
; File D:\Program Files\Microsoft Visual Studio\2022\Community\VC\Tools\MSVC\14.43.34808\include\vector
; File D:\Program Files\Microsoft Visual Studio\2022\Community\VC\Tools\MSVC\14.43.34808\include\xmemory
; File D:\Program Files\Microsoft Visual Studio\2022\Community\VC\Tools\MSVC\14.43.34808\include\vector
; File D:\Program Files\Microsoft Visual Studio\2022\Community\VC\Tools\MSVC\14.43.34808\include\xmemory
; File D:\Program Files\Microsoft Visual Studio\2022\Community\VC\Tools\MSVC\14.43.34808\include\vector
; File D:\Program Files\Microsoft Visual Studio\2022\Community\VC\Tools\MSVC\14.43.34808\include\xmemory
; File D:\Program Files\Microsoft Visual Studio\2022\Community\VC\Tools\MSVC\14.43.34808\include\vector
; File D:\Program Files\Microsoft Visual Studio\2022\Community\VC\Tools\MSVC\14.43.34808\include\xmemory
; File D:\Program Files\Microsoft Visual Studio\2022\Community\VC\Tools\MSVC\14.43.34808\include\vector
; File D:\Program Files\Microsoft Visual Studio\2022\Community\VC\Tools\MSVC\14.43.34808\include\xmemory
; File D:\Program Files\Microsoft Visual Studio\2022\Community\VC\Tools\MSVC\14.43.34808\include\vector
; File D:\Program Files\Microsoft Visual Studio\2022\Community\VC\Tools\MSVC\14.43.34808\include\xmemory
; File D:\Program Files\Microsoft Visual Studio\2022\Community\VC\Tools\MSVC\14.43.34808\include\vector
; File D:\Program Files\Microsoft Visual Studio\2022\Community\VC\Tools\MSVC\14.43.34808\include\xmemory
; File D:\Program Files\Microsoft Visual Studio\2022\Community\VC\Tools\MSVC\14.43.34808\include\vector
;	COMDAT ??$_Emplace_reallocate@ABQAVCPlaneCollisionInstance@@@?$vector@PAVCPlaneCollisionInstance@@V?$allocator@PAVCPlaneCollisionInstance@@@std@@@std@@AAEPAPAVCPlaneCollisionInstance@@QAPAV2@ABQAV2@@Z
_TEXT	SEGMENT
__Newsize$1$ = -12					; size = 4
tv652 = -8						; size = 4
tv650 = -4						; size = 4
__Whereptr$ = 8						; size = 4
_<_Val_0>$ = 12						; size = 4
??$_Emplace_reallocate@ABQAVCPlaneCollisionInstance@@@?$vector@PAVCPlaneCollisionInstance@@V?$allocator@PAVCPlaneCollisionInstance@@@std@@@std@@AAEPAPAVCPlaneCollisionInstance@@QAPAV2@ABQAV2@@Z PROC ; std::vector<CPlaneCollisionInstance *,std::allocator<CPlaneCollisionInstance *> >::_Emplace_reallocate<CPlaneCollisionInstance * const &>, COMDAT
; _this$ = ecx

; 860  :     _CONSTEXPR20 pointer _Emplace_reallocate(const pointer _Whereptr, _Valty&&... _Val) {

  00000	55		 push	 ebp
  00001	8b ec		 mov	 ebp, esp
  00003	83 ec 0c	 sub	 esp, 12			; 0000000cH
  00006	53		 push	 ebx

; 861  :         // reallocate and insert by perfectly forwarding _Val at _Whereptr
; 862  :         _Alty& _Al        = _Getal();
; 863  :         auto& _My_data    = _Mypair._Myval2;
; 864  :         pointer& _Myfirst = _My_data._Myfirst;
; 865  :         pointer& _Mylast  = _My_data._Mylast;
; 866  : 
; 867  :         _STL_INTERNAL_CHECK(_Mylast == _My_data._Myend); // check that we have no unused capacity
; 868  : 
; 869  :         const auto _Whereoff = static_cast<size_type>(_Whereptr - _Myfirst);

  00007	8b 5d 08	 mov	 ebx, DWORD PTR __Whereptr$[ebp]
  0000a	56		 push	 esi
  0000b	8b f1		 mov	 esi, ecx
  0000d	57		 push	 edi
  0000e	8b 0e		 mov	 ecx, DWORD PTR [esi]
  00010	2b d9		 sub	 ebx, ecx

; 870  :         const auto _Oldsize  = static_cast<size_type>(_Mylast - _Myfirst);

  00012	8b 46 04	 mov	 eax, DWORD PTR [esi+4]
  00015	2b c1		 sub	 eax, ecx
  00017	c1 fb 02	 sar	 ebx, 2
  0001a	c1 f8 02	 sar	 eax, 2

; 871  : 
; 872  :         if (_Oldsize == max_size()) {

  0001d	3d ff ff ff 3f	 cmp	 eax, 1073741823		; 3fffffffH
  00022	0f 84 09 01 00
	00		 je	 $LN123@Emplace_re

; 1909 :         return static_cast<size_type>(_My_data._Myend - _My_data._Myfirst);

  00028	8b 56 08	 mov	 edx, DWORD PTR [esi+8]

; 874  :         }
; 875  : 
; 876  :         const size_type _Newsize = _Oldsize + 1;

  0002b	8d 78 01	 lea	 edi, DWORD PTR [eax+1]

; 1909 :         return static_cast<size_type>(_My_data._Myend - _My_data._Myfirst);

  0002e	2b d1		 sub	 edx, ecx

; 874  :         }
; 875  : 
; 876  :         const size_type _Newsize = _Oldsize + 1;

  00030	89 7d f4	 mov	 DWORD PTR __Newsize$1$[ebp], edi

; 1909 :         return static_cast<size_type>(_My_data._Myend - _My_data._Myfirst);

  00033	c1 fa 02	 sar	 edx, 2

; 1996 :         if (_Oldcapacity > _Max - _Oldcapacity / 2) {

  00036	b8 ff ff ff 3f	 mov	 eax, 1073741823		; 3fffffffH
  0003b	8b ca		 mov	 ecx, edx
  0003d	d1 e9		 shr	 ecx, 1
  0003f	2b c1		 sub	 eax, ecx
  00041	3b d0		 cmp	 edx, eax
  00043	76 14		 jbe	 SHORT $LN8@Emplace_re

; 1997 :             return _Max; // geometric growth would overflow

  00045	b8 fc ff ff ff	 mov	 eax, -4			; fffffffcH
  0004a	c7 45 f8 fc ff
	ff ff		 mov	 DWORD PTR tv652[ebp], -4 ; fffffffcH
; File D:\Program Files\Microsoft Visual Studio\2022\Community\VC\Tools\MSVC\14.43.34808\include\xmemory

; 253  :             return _Allocate_manually_vector_aligned<_Traits>(_Bytes);

  00051	50		 push	 eax
  00052	e8 00 00 00 00	 call	 ??$_Allocate_manually_vector_aligned@U_Default_allocate_traits@std@@@std@@YAPAXI@Z ; std::_Allocate_manually_vector_aligned<std::_Default_allocate_traits>
  00057	eb 3d		 jmp	 SHORT $LN121@Emplace_re
$LN8@Emplace_re:
; File D:\Program Files\Microsoft Visual Studio\2022\Community\VC\Tools\MSVC\14.43.34808\include\vector

; 2000 :         const size_type _Geometric = _Oldcapacity + _Oldcapacity / 2;

  00059	8d 04 11	 lea	 eax, DWORD PTR [ecx+edx]
; File D:\Program Files\Microsoft Visual Studio\2022\Community\VC\Tools\MSVC\14.43.34808\include\xmemory

; 117  :         if (_Count > _Max_possible) {

  0005c	8b cf		 mov	 ecx, edi
  0005e	3b c7		 cmp	 eax, edi
  00060	0f 43 c8	 cmovae	 ecx, eax
  00063	81 f9 ff ff ff
	3f		 cmp	 ecx, 1073741823		; 3fffffffH
  00069	0f 87 c7 00 00
	00		 ja	 $LN124@Emplace_re

; 119  :         }
; 120  :     }
; 121  : 
; 122  :     return _Count * _Ty_size;

  0006f	8d 04 8d 00 00
	00 00		 lea	 eax, DWORD PTR [ecx*4]
  00076	89 45 f8	 mov	 DWORD PTR tv652[ebp], eax

; 227  :     if (_Bytes == 0) {

  00079	85 c0		 test	 eax, eax
  0007b	75 04		 jne	 SHORT $LN23@Emplace_re

; 228  :         return nullptr;

  0007d	33 ff		 xor	 edi, edi
  0007f	eb 1a		 jmp	 SHORT $LN22@Emplace_re
$LN23@Emplace_re:

; 229  :     }
; 230  : 
; 231  : #if _HAS_CXX20 // TRANSITION, GH-1532
; 232  :     if (_STD is_constant_evaluated()) {
; 233  :         return _Traits::_Allocate(_Bytes);
; 234  :     }
; 235  : #endif // _HAS_CXX20
; 236  : 
; 237  : #ifdef __cpp_aligned_new
; 238  :     if constexpr (_Align > __STDCPP_DEFAULT_NEW_ALIGNMENT__) {
; 239  :         size_t _Passed_align = _Align;
; 240  : #if defined(_M_IX86) || defined(_M_X64)
; 241  :         if (_Bytes >= _Big_allocation_threshold) {
; 242  :             // boost the alignment of big allocations to help autovectorization
; 243  :             _Passed_align = (_STD max)(_Align, _Big_allocation_alignment);
; 244  :         }
; 245  : #endif // defined(_M_IX86) || defined(_M_X64)
; 246  :         return _Traits::_Allocate_aligned(_Bytes, _Passed_align);
; 247  :     } else
; 248  : #endif // defined(__cpp_aligned_new)
; 249  :     {
; 250  : #if defined(_M_IX86) || defined(_M_X64)
; 251  :         if (_Bytes >= _Big_allocation_threshold) {

  00081	3d 00 10 00 00	 cmp	 eax, 4096		; 00001000H
  00086	72 08		 jb	 SHORT $LN24@Emplace_re

; 253  :             return _Allocate_manually_vector_aligned<_Traits>(_Bytes);

  00088	50		 push	 eax
  00089	e8 00 00 00 00	 call	 ??$_Allocate_manually_vector_aligned@U_Default_allocate_traits@std@@@std@@YAPAXI@Z ; std::_Allocate_manually_vector_aligned<std::_Default_allocate_traits>
  0008e	eb 06		 jmp	 SHORT $LN121@Emplace_re
$LN24@Emplace_re:

; 136  :         return ::operator new(_Bytes);

  00090	50		 push	 eax
  00091	e8 00 00 00 00	 call	 ??2@YAPAXI@Z		; operator new
$LN121@Emplace_re:
; File D:\Program Files\Microsoft Visual Studio\2022\Community\VC\Tools\MSVC\14.43.34808\include\vector

; 885  :         _Alty_traits::construct(_Al, _STD _Unfancy(_Newvec + _Whereoff), _STD forward<_Valty>(_Val)...);

  00096	8b f8		 mov	 edi, eax
  00098	83 c4 04	 add	 esp, 4
$LN22@Emplace_re:
  0009b	8b 45 0c	 mov	 eax, DWORD PTR _<_Val_0>$[ebp]
  0009e	8d 0c 9f	 lea	 ecx, DWORD PTR [edi+ebx*4]

; 886  :         _Constructed_first = _Newvec + _Whereoff;
; 887  : 
; 888  :         if (_Whereptr == _Mylast) { // at back, provide strong guarantee

  000a1	8b 5d 08	 mov	 ebx, DWORD PTR __Whereptr$[ebp]
  000a4	89 4d fc	 mov	 DWORD PTR tv650[ebp], ecx
  000a7	8b 00		 mov	 eax, DWORD PTR [eax]
  000a9	89 01		 mov	 DWORD PTR [ecx], eax
  000ab	8b 46 04	 mov	 eax, DWORD PTR [esi+4]
  000ae	8b 0e		 mov	 ecx, DWORD PTR [esi]
  000b0	3b d8		 cmp	 ebx, eax
  000b2	75 07		 jne	 SHORT $LN3@Emplace_re

; 894  :         } else { // provide basic guarantee

  000b4	8b 5d fc	 mov	 ebx, DWORD PTR tv650[ebp]
; File D:\Program Files\Microsoft Visual Studio\2022\Community\VC\Tools\MSVC\14.43.34808\include\xmemory

; 1955 :             _STD _Copy_memmove(_UFirst, _ULast, _STD _Unfancy(_Dest));

  000b7	8b d7		 mov	 edx, edi
; File D:\Program Files\Microsoft Visual Studio\2022\Community\VC\Tools\MSVC\14.43.34808\include\vector

; 894  :         } else { // provide basic guarantee

  000b9	eb 16		 jmp	 SHORT $LN52@Emplace_re
$LN3@Emplace_re:
; File D:\Program Files\Microsoft Visual Studio\2022\Community\VC\Tools\MSVC\14.43.34808\include\xmemory

; 1955 :             _STD _Copy_memmove(_UFirst, _ULast, _STD _Unfancy(_Dest));

  000bb	57		 push	 edi
  000bc	53		 push	 ebx
  000bd	51		 push	 ecx
  000be	e8 00 00 00 00	 call	 ??$_Copy_memmove@PAPAVCPlaneCollisionInstance@@PAPAV1@@std@@YAPAPAVCPlaneCollisionInstance@@PAPAV1@00@Z ; std::_Copy_memmove<CPlaneCollisionInstance * *,CPlaneCollisionInstance * *>
  000c3	8b 46 04	 mov	 eax, DWORD PTR [esi+4]
  000c6	8b cb		 mov	 ecx, ebx
; File D:\Program Files\Microsoft Visual Studio\2022\Community\VC\Tools\MSVC\14.43.34808\include\vector

; 897  :             _STD _Uninitialized_move(_Whereptr, _Mylast, _Newvec + _Whereoff + 1, _Al);

  000c8	8b 5d fc	 mov	 ebx, DWORD PTR tv650[ebp]
; File D:\Program Files\Microsoft Visual Studio\2022\Community\VC\Tools\MSVC\14.43.34808\include\xmemory

; 1955 :             _STD _Copy_memmove(_UFirst, _ULast, _STD _Unfancy(_Dest));

  000cb	83 c4 0c	 add	 esp, 12			; 0000000cH
; File D:\Program Files\Microsoft Visual Studio\2022\Community\VC\Tools\MSVC\14.43.34808\include\vector

; 897  :             _STD _Uninitialized_move(_Whereptr, _Mylast, _Newvec + _Whereoff + 1, _Al);

  000ce	8d 53 04	 lea	 edx, DWORD PTR [ebx+4]
$LN52@Emplace_re:

; 898  :         }
; 899  : 
; 900  :         _Guard._New_begin = nullptr;

  000d1	52		 push	 edx
  000d2	50		 push	 eax
  000d3	51		 push	 ecx
  000d4	e8 00 00 00 00	 call	 ??$_Copy_memmove@PAPAVCPlaneCollisionInstance@@PAPAV1@@std@@YAPAPAVCPlaneCollisionInstance@@PAPAV1@00@Z ; std::_Copy_memmove<CPlaneCollisionInstance * *,CPlaneCollisionInstance * *>

; 2054 :         if (_Myfirst) { // destroy and deallocate old array

  000d9	8b 06		 mov	 eax, DWORD PTR [esi]

; 898  :         }
; 899  : 
; 900  :         _Guard._New_begin = nullptr;

  000db	83 c4 0c	 add	 esp, 12			; 0000000cH

; 2054 :         if (_Myfirst) { // destroy and deallocate old array

  000de	85 c0		 test	 eax, eax
  000e0	74 2c		 je	 SHORT $LN72@Emplace_re

; 2055 :             _STD _Destroy_range(_Myfirst, _Mylast, _Al);
; 2056 :             _ASAN_VECTOR_REMOVE;
; 2057 :             _Al.deallocate(_Myfirst, static_cast<size_type>(_Myend - _Myfirst));

  000e2	8b 4e 08	 mov	 ecx, DWORD PTR [esi+8]
  000e5	2b c8		 sub	 ecx, eax
; File D:\Program Files\Microsoft Visual Studio\2022\Community\VC\Tools\MSVC\14.43.34808\include\xmemory

; 981  :         _STD _Deallocate<_New_alignof<_Ty>>(_Ptr, sizeof(_Ty) * _Count);

  000e7	83 e1 fc	 and	 ecx, -4			; fffffffcH

; 284  :         if (_Bytes >= _Big_allocation_threshold) {

  000ea	81 f9 00 10 00
	00		 cmp	 ecx, 4096		; 00001000H
  000f0	72 12		 jb	 SHORT $LN83@Emplace_re

; 205  :     const uintptr_t _Ptr_container   = _Ptr_user[-1];

  000f2	8b 50 fc	 mov	 edx, DWORD PTR [eax-4]
  000f5	83 c1 23	 add	 ecx, 35			; 00000023H

; 206  : 
; 207  :     // If the following asserts, it likely means that we are performing
; 208  :     // an aligned delete on memory coming from an unaligned allocation.
; 209  :     _STL_ASSERT(_Ptr_user[-2] == _Big_allocation_sentinel, "invalid argument");
; 210  : 
; 211  :     // Extra paranoia on aligned allocation/deallocation; ensure _Ptr_container is
; 212  :     // in range [_Min_back_shift, _Non_user_size]
; 213  : #ifdef _DEBUG
; 214  :     constexpr uintptr_t _Min_back_shift = 2 * sizeof(void*);
; 215  : #else // ^^^ defined(_DEBUG) / !defined(_DEBUG) vvv
; 216  :     constexpr uintptr_t _Min_back_shift = sizeof(void*);
; 217  : #endif // ^^^ !defined(_DEBUG) ^^^
; 218  :     const uintptr_t _Back_shift = reinterpret_cast<uintptr_t>(_Ptr) - _Ptr_container;

  000f8	2b c2		 sub	 eax, edx

; 219  :     _STL_VERIFY(_Back_shift >= _Min_back_shift && _Back_shift <= _Non_user_size, "invalid argument");

  000fa	83 c0 fc	 add	 eax, -4			; fffffffcH
  000fd	83 f8 1f	 cmp	 eax, 31			; 0000001fH
  00100	77 2a		 ja	 SHORT $LN80@Emplace_re

; 220  :     _Ptr = reinterpret_cast<void*>(_Ptr_container);

  00102	8b c2		 mov	 eax, edx
$LN83@Emplace_re:

; 289  :         ::operator delete(_Ptr, _Bytes);

  00104	51		 push	 ecx
  00105	50		 push	 eax
  00106	e8 00 00 00 00	 call	 ??3@YAXPAXI@Z		; operator delete
  0010b	83 c4 08	 add	 esp, 8
$LN72@Emplace_re:
; File D:\Program Files\Microsoft Visual Studio\2022\Community\VC\Tools\MSVC\14.43.34808\include\vector

; 2061 :         _Mylast  = _Newvec + _Newsize;

  0010e	8b 45 f4	 mov	 eax, DWORD PTR __Newsize$1$[ebp]
  00111	89 3e		 mov	 DWORD PTR [esi], edi
  00113	8d 0c 87	 lea	 ecx, DWORD PTR [edi+eax*4]

; 901  :         _Change_array(_Newvec, _Newsize, _Newcapacity);
; 902  :         return _Newvec + _Whereoff;

  00116	8b c3		 mov	 eax, ebx

; 2061 :         _Mylast  = _Newvec + _Newsize;

  00118	89 4e 04	 mov	 DWORD PTR [esi+4], ecx

; 2062 :         _Myend   = _Newvec + _Newcapacity;

  0011b	8b 4d f8	 mov	 ecx, DWORD PTR tv652[ebp]
  0011e	03 cf		 add	 ecx, edi

; 903  :     }

  00120	5f		 pop	 edi

; 2062 :         _Myend   = _Newvec + _Newcapacity;

  00121	89 4e 08	 mov	 DWORD PTR [esi+8], ecx

; 903  :     }

  00124	5e		 pop	 esi
  00125	5b		 pop	 ebx
  00126	8b e5		 mov	 esp, ebp
  00128	5d		 pop	 ebp
  00129	c2 08 00	 ret	 8
$LN80@Emplace_re:
; File D:\Program Files\Microsoft Visual Studio\2022\Community\VC\Tools\MSVC\14.43.34808\include\xmemory

; 219  :     _STL_VERIFY(_Back_shift >= _Min_back_shift && _Back_shift <= _Non_user_size, "invalid argument");

  0012c	e8 00 00 00 00	 call	 __invalid_parameter_noinfo_noreturn
$LN123@Emplace_re:
; File D:\Program Files\Microsoft Visual Studio\2022\Community\VC\Tools\MSVC\14.43.34808\include\vector

; 873  :             _Xlength();

  00131	e8 00 00 00 00	 call	 ?_Xlength@?$vector@PAVCPlaneCollisionInstance@@V?$allocator@PAVCPlaneCollisionInstance@@@std@@@std@@CAXXZ ; std::vector<CPlaneCollisionInstance *,std::allocator<CPlaneCollisionInstance *> >::_Xlength
$LN124@Emplace_re:
; File D:\Program Files\Microsoft Visual Studio\2022\Community\VC\Tools\MSVC\14.43.34808\include\xmemory

; 118  :             _Throw_bad_array_new_length(); // multiply overflow

  00136	e8 00 00 00 00	 call	 ?_Throw_bad_array_new_length@std@@YAXXZ ; std::_Throw_bad_array_new_length
$LN120@Emplace_re:
  0013b	cc		 int	 3
??$_Emplace_reallocate@ABQAVCPlaneCollisionInstance@@@?$vector@PAVCPlaneCollisionInstance@@V?$allocator@PAVCPlaneCollisionInstance@@@std@@@std@@AAEPAPAVCPlaneCollisionInstance@@QAPAV2@ABQAV2@@Z ENDP ; std::vector<CPlaneCollisionInstance *,std::allocator<CPlaneCollisionInstance *> >::_Emplace_reallocate<CPlaneCollisionInstance * const &>
_TEXT	ENDS
; Function compile flags: /Ogtp
; File D:\Program Files\Microsoft Visual Studio\2022\Community\VC\Tools\MSVC\14.43.34808\include\vector
; File D:\Program Files\Microsoft Visual Studio\2022\Community\VC\Tools\MSVC\14.43.34808\include\xmemory
; File D:\Program Files\Microsoft Visual Studio\2022\Community\VC\Tools\MSVC\14.43.34808\include\vector
; File D:\Program Files\Microsoft Visual Studio\2022\Community\VC\Tools\MSVC\14.43.34808\include\xmemory
; File D:\Program Files\Microsoft Visual Studio\2022\Community\VC\Tools\MSVC\14.43.34808\include\vector
; File D:\Program Files\Microsoft Visual Studio\2022\Community\VC\Tools\MSVC\14.43.34808\include\xmemory
; File D:\Program Files\Microsoft Visual Studio\2022\Community\VC\Tools\MSVC\14.43.34808\include\vector
; File D:\Program Files\Microsoft Visual Studio\2022\Community\VC\Tools\MSVC\14.43.34808\include\xmemory
; File D:\Program Files\Microsoft Visual Studio\2022\Community\VC\Tools\MSVC\14.43.34808\include\vector
; File D:\Program Files\Microsoft Visual Studio\2022\Community\VC\Tools\MSVC\14.43.34808\include\xmemory
; File D:\Program Files\Microsoft Visual Studio\2022\Community\VC\Tools\MSVC\14.43.34808\include\vector
; File D:\Program Files\Microsoft Visual Studio\2022\Community\VC\Tools\MSVC\14.43.34808\include\xmemory
; File D:\Program Files\Microsoft Visual Studio\2022\Community\VC\Tools\MSVC\14.43.34808\include\vector
; File D:\Program Files\Microsoft Visual Studio\2022\Community\VC\Tools\MSVC\14.43.34808\include\xmemory
; File D:\Program Files\Microsoft Visual Studio\2022\Community\VC\Tools\MSVC\14.43.34808\include\vector
; File D:\Program Files\Microsoft Visual Studio\2022\Community\VC\Tools\MSVC\14.43.34808\include\xmemory
; File D:\Program Files\Microsoft Visual Studio\2022\Community\VC\Tools\MSVC\14.43.34808\include\vector
;	COMDAT ??$_Emplace_reallocate@ABQAVCAABBCollisionInstance@@@?$vector@PAVCAABBCollisionInstance@@V?$allocator@PAVCAABBCollisionInstance@@@std@@@std@@AAEPAPAVCAABBCollisionInstance@@QAPAV2@ABQAV2@@Z
_TEXT	SEGMENT
__Newsize$1$ = -12					; size = 4
tv652 = -8						; size = 4
tv650 = -4						; size = 4
__Whereptr$ = 8						; size = 4
_<_Val_0>$ = 12						; size = 4
??$_Emplace_reallocate@ABQAVCAABBCollisionInstance@@@?$vector@PAVCAABBCollisionInstance@@V?$allocator@PAVCAABBCollisionInstance@@@std@@@std@@AAEPAPAVCAABBCollisionInstance@@QAPAV2@ABQAV2@@Z PROC ; std::vector<CAABBCollisionInstance *,std::allocator<CAABBCollisionInstance *> >::_Emplace_reallocate<CAABBCollisionInstance * const &>, COMDAT
; _this$ = ecx

; 860  :     _CONSTEXPR20 pointer _Emplace_reallocate(const pointer _Whereptr, _Valty&&... _Val) {

  00000	55		 push	 ebp
  00001	8b ec		 mov	 ebp, esp
  00003	83 ec 0c	 sub	 esp, 12			; 0000000cH
  00006	53		 push	 ebx

; 861  :         // reallocate and insert by perfectly forwarding _Val at _Whereptr
; 862  :         _Alty& _Al        = _Getal();
; 863  :         auto& _My_data    = _Mypair._Myval2;
; 864  :         pointer& _Myfirst = _My_data._Myfirst;
; 865  :         pointer& _Mylast  = _My_data._Mylast;
; 866  : 
; 867  :         _STL_INTERNAL_CHECK(_Mylast == _My_data._Myend); // check that we have no unused capacity
; 868  : 
; 869  :         const auto _Whereoff = static_cast<size_type>(_Whereptr - _Myfirst);

  00007	8b 5d 08	 mov	 ebx, DWORD PTR __Whereptr$[ebp]
  0000a	56		 push	 esi
  0000b	8b f1		 mov	 esi, ecx
  0000d	57		 push	 edi
  0000e	8b 0e		 mov	 ecx, DWORD PTR [esi]
  00010	2b d9		 sub	 ebx, ecx

; 870  :         const auto _Oldsize  = static_cast<size_type>(_Mylast - _Myfirst);

  00012	8b 46 04	 mov	 eax, DWORD PTR [esi+4]
  00015	2b c1		 sub	 eax, ecx
  00017	c1 fb 02	 sar	 ebx, 2
  0001a	c1 f8 02	 sar	 eax, 2

; 871  : 
; 872  :         if (_Oldsize == max_size()) {

  0001d	3d ff ff ff 3f	 cmp	 eax, 1073741823		; 3fffffffH
  00022	0f 84 09 01 00
	00		 je	 $LN123@Emplace_re

; 1909 :         return static_cast<size_type>(_My_data._Myend - _My_data._Myfirst);

  00028	8b 56 08	 mov	 edx, DWORD PTR [esi+8]

; 874  :         }
; 875  : 
; 876  :         const size_type _Newsize = _Oldsize + 1;

  0002b	8d 78 01	 lea	 edi, DWORD PTR [eax+1]

; 1909 :         return static_cast<size_type>(_My_data._Myend - _My_data._Myfirst);

  0002e	2b d1		 sub	 edx, ecx

; 874  :         }
; 875  : 
; 876  :         const size_type _Newsize = _Oldsize + 1;

  00030	89 7d f4	 mov	 DWORD PTR __Newsize$1$[ebp], edi

; 1909 :         return static_cast<size_type>(_My_data._Myend - _My_data._Myfirst);

  00033	c1 fa 02	 sar	 edx, 2

; 1996 :         if (_Oldcapacity > _Max - _Oldcapacity / 2) {

  00036	b8 ff ff ff 3f	 mov	 eax, 1073741823		; 3fffffffH
  0003b	8b ca		 mov	 ecx, edx
  0003d	d1 e9		 shr	 ecx, 1
  0003f	2b c1		 sub	 eax, ecx
  00041	3b d0		 cmp	 edx, eax
  00043	76 14		 jbe	 SHORT $LN8@Emplace_re

; 1997 :             return _Max; // geometric growth would overflow

  00045	b8 fc ff ff ff	 mov	 eax, -4			; fffffffcH
  0004a	c7 45 f8 fc ff
	ff ff		 mov	 DWORD PTR tv652[ebp], -4 ; fffffffcH
; File D:\Program Files\Microsoft Visual Studio\2022\Community\VC\Tools\MSVC\14.43.34808\include\xmemory

; 253  :             return _Allocate_manually_vector_aligned<_Traits>(_Bytes);

  00051	50		 push	 eax
  00052	e8 00 00 00 00	 call	 ??$_Allocate_manually_vector_aligned@U_Default_allocate_traits@std@@@std@@YAPAXI@Z ; std::_Allocate_manually_vector_aligned<std::_Default_allocate_traits>
  00057	eb 3d		 jmp	 SHORT $LN121@Emplace_re
$LN8@Emplace_re:
; File D:\Program Files\Microsoft Visual Studio\2022\Community\VC\Tools\MSVC\14.43.34808\include\vector

; 2000 :         const size_type _Geometric = _Oldcapacity + _Oldcapacity / 2;

  00059	8d 04 11	 lea	 eax, DWORD PTR [ecx+edx]
; File D:\Program Files\Microsoft Visual Studio\2022\Community\VC\Tools\MSVC\14.43.34808\include\xmemory

; 117  :         if (_Count > _Max_possible) {

  0005c	8b cf		 mov	 ecx, edi
  0005e	3b c7		 cmp	 eax, edi
  00060	0f 43 c8	 cmovae	 ecx, eax
  00063	81 f9 ff ff ff
	3f		 cmp	 ecx, 1073741823		; 3fffffffH
  00069	0f 87 c7 00 00
	00		 ja	 $LN124@Emplace_re

; 119  :         }
; 120  :     }
; 121  : 
; 122  :     return _Count * _Ty_size;

  0006f	8d 04 8d 00 00
	00 00		 lea	 eax, DWORD PTR [ecx*4]
  00076	89 45 f8	 mov	 DWORD PTR tv652[ebp], eax

; 227  :     if (_Bytes == 0) {

  00079	85 c0		 test	 eax, eax
  0007b	75 04		 jne	 SHORT $LN23@Emplace_re

; 228  :         return nullptr;

  0007d	33 ff		 xor	 edi, edi
  0007f	eb 1a		 jmp	 SHORT $LN22@Emplace_re
$LN23@Emplace_re:

; 229  :     }
; 230  : 
; 231  : #if _HAS_CXX20 // TRANSITION, GH-1532
; 232  :     if (_STD is_constant_evaluated()) {
; 233  :         return _Traits::_Allocate(_Bytes);
; 234  :     }
; 235  : #endif // _HAS_CXX20
; 236  : 
; 237  : #ifdef __cpp_aligned_new
; 238  :     if constexpr (_Align > __STDCPP_DEFAULT_NEW_ALIGNMENT__) {
; 239  :         size_t _Passed_align = _Align;
; 240  : #if defined(_M_IX86) || defined(_M_X64)
; 241  :         if (_Bytes >= _Big_allocation_threshold) {
; 242  :             // boost the alignment of big allocations to help autovectorization
; 243  :             _Passed_align = (_STD max)(_Align, _Big_allocation_alignment);
; 244  :         }
; 245  : #endif // defined(_M_IX86) || defined(_M_X64)
; 246  :         return _Traits::_Allocate_aligned(_Bytes, _Passed_align);
; 247  :     } else
; 248  : #endif // defined(__cpp_aligned_new)
; 249  :     {
; 250  : #if defined(_M_IX86) || defined(_M_X64)
; 251  :         if (_Bytes >= _Big_allocation_threshold) {

  00081	3d 00 10 00 00	 cmp	 eax, 4096		; 00001000H
  00086	72 08		 jb	 SHORT $LN24@Emplace_re

; 253  :             return _Allocate_manually_vector_aligned<_Traits>(_Bytes);

  00088	50		 push	 eax
  00089	e8 00 00 00 00	 call	 ??$_Allocate_manually_vector_aligned@U_Default_allocate_traits@std@@@std@@YAPAXI@Z ; std::_Allocate_manually_vector_aligned<std::_Default_allocate_traits>
  0008e	eb 06		 jmp	 SHORT $LN121@Emplace_re
$LN24@Emplace_re:

; 136  :         return ::operator new(_Bytes);

  00090	50		 push	 eax
  00091	e8 00 00 00 00	 call	 ??2@YAPAXI@Z		; operator new
$LN121@Emplace_re:
; File D:\Program Files\Microsoft Visual Studio\2022\Community\VC\Tools\MSVC\14.43.34808\include\vector

; 885  :         _Alty_traits::construct(_Al, _STD _Unfancy(_Newvec + _Whereoff), _STD forward<_Valty>(_Val)...);

  00096	8b f8		 mov	 edi, eax
  00098	83 c4 04	 add	 esp, 4
$LN22@Emplace_re:
  0009b	8b 45 0c	 mov	 eax, DWORD PTR _<_Val_0>$[ebp]
  0009e	8d 0c 9f	 lea	 ecx, DWORD PTR [edi+ebx*4]

; 886  :         _Constructed_first = _Newvec + _Whereoff;
; 887  : 
; 888  :         if (_Whereptr == _Mylast) { // at back, provide strong guarantee

  000a1	8b 5d 08	 mov	 ebx, DWORD PTR __Whereptr$[ebp]
  000a4	89 4d fc	 mov	 DWORD PTR tv650[ebp], ecx
  000a7	8b 00		 mov	 eax, DWORD PTR [eax]
  000a9	89 01		 mov	 DWORD PTR [ecx], eax
  000ab	8b 46 04	 mov	 eax, DWORD PTR [esi+4]
  000ae	8b 0e		 mov	 ecx, DWORD PTR [esi]
  000b0	3b d8		 cmp	 ebx, eax
  000b2	75 07		 jne	 SHORT $LN3@Emplace_re

; 894  :         } else { // provide basic guarantee

  000b4	8b 5d fc	 mov	 ebx, DWORD PTR tv650[ebp]
; File D:\Program Files\Microsoft Visual Studio\2022\Community\VC\Tools\MSVC\14.43.34808\include\xmemory

; 1955 :             _STD _Copy_memmove(_UFirst, _ULast, _STD _Unfancy(_Dest));

  000b7	8b d7		 mov	 edx, edi
; File D:\Program Files\Microsoft Visual Studio\2022\Community\VC\Tools\MSVC\14.43.34808\include\vector

; 894  :         } else { // provide basic guarantee

  000b9	eb 16		 jmp	 SHORT $LN52@Emplace_re
$LN3@Emplace_re:
; File D:\Program Files\Microsoft Visual Studio\2022\Community\VC\Tools\MSVC\14.43.34808\include\xmemory

; 1955 :             _STD _Copy_memmove(_UFirst, _ULast, _STD _Unfancy(_Dest));

  000bb	57		 push	 edi
  000bc	53		 push	 ebx
  000bd	51		 push	 ecx
  000be	e8 00 00 00 00	 call	 ??$_Copy_memmove@PAPAVCAABBCollisionInstance@@PAPAV1@@std@@YAPAPAVCAABBCollisionInstance@@PAPAV1@00@Z ; std::_Copy_memmove<CAABBCollisionInstance * *,CAABBCollisionInstance * *>
  000c3	8b 46 04	 mov	 eax, DWORD PTR [esi+4]
  000c6	8b cb		 mov	 ecx, ebx
; File D:\Program Files\Microsoft Visual Studio\2022\Community\VC\Tools\MSVC\14.43.34808\include\vector

; 897  :             _STD _Uninitialized_move(_Whereptr, _Mylast, _Newvec + _Whereoff + 1, _Al);

  000c8	8b 5d fc	 mov	 ebx, DWORD PTR tv650[ebp]
; File D:\Program Files\Microsoft Visual Studio\2022\Community\VC\Tools\MSVC\14.43.34808\include\xmemory

; 1955 :             _STD _Copy_memmove(_UFirst, _ULast, _STD _Unfancy(_Dest));

  000cb	83 c4 0c	 add	 esp, 12			; 0000000cH
; File D:\Program Files\Microsoft Visual Studio\2022\Community\VC\Tools\MSVC\14.43.34808\include\vector

; 897  :             _STD _Uninitialized_move(_Whereptr, _Mylast, _Newvec + _Whereoff + 1, _Al);

  000ce	8d 53 04	 lea	 edx, DWORD PTR [ebx+4]
$LN52@Emplace_re:

; 898  :         }
; 899  : 
; 900  :         _Guard._New_begin = nullptr;

  000d1	52		 push	 edx
  000d2	50		 push	 eax
  000d3	51		 push	 ecx
  000d4	e8 00 00 00 00	 call	 ??$_Copy_memmove@PAPAVCAABBCollisionInstance@@PAPAV1@@std@@YAPAPAVCAABBCollisionInstance@@PAPAV1@00@Z ; std::_Copy_memmove<CAABBCollisionInstance * *,CAABBCollisionInstance * *>

; 2054 :         if (_Myfirst) { // destroy and deallocate old array

  000d9	8b 06		 mov	 eax, DWORD PTR [esi]

; 898  :         }
; 899  : 
; 900  :         _Guard._New_begin = nullptr;

  000db	83 c4 0c	 add	 esp, 12			; 0000000cH

; 2054 :         if (_Myfirst) { // destroy and deallocate old array

  000de	85 c0		 test	 eax, eax
  000e0	74 2c		 je	 SHORT $LN72@Emplace_re

; 2055 :             _STD _Destroy_range(_Myfirst, _Mylast, _Al);
; 2056 :             _ASAN_VECTOR_REMOVE;
; 2057 :             _Al.deallocate(_Myfirst, static_cast<size_type>(_Myend - _Myfirst));

  000e2	8b 4e 08	 mov	 ecx, DWORD PTR [esi+8]
  000e5	2b c8		 sub	 ecx, eax
; File D:\Program Files\Microsoft Visual Studio\2022\Community\VC\Tools\MSVC\14.43.34808\include\xmemory

; 981  :         _STD _Deallocate<_New_alignof<_Ty>>(_Ptr, sizeof(_Ty) * _Count);

  000e7	83 e1 fc	 and	 ecx, -4			; fffffffcH

; 284  :         if (_Bytes >= _Big_allocation_threshold) {

  000ea	81 f9 00 10 00
	00		 cmp	 ecx, 4096		; 00001000H
  000f0	72 12		 jb	 SHORT $LN83@Emplace_re

; 205  :     const uintptr_t _Ptr_container   = _Ptr_user[-1];

  000f2	8b 50 fc	 mov	 edx, DWORD PTR [eax-4]
  000f5	83 c1 23	 add	 ecx, 35			; 00000023H

; 206  : 
; 207  :     // If the following asserts, it likely means that we are performing
; 208  :     // an aligned delete on memory coming from an unaligned allocation.
; 209  :     _STL_ASSERT(_Ptr_user[-2] == _Big_allocation_sentinel, "invalid argument");
; 210  : 
; 211  :     // Extra paranoia on aligned allocation/deallocation; ensure _Ptr_container is
; 212  :     // in range [_Min_back_shift, _Non_user_size]
; 213  : #ifdef _DEBUG
; 214  :     constexpr uintptr_t _Min_back_shift = 2 * sizeof(void*);
; 215  : #else // ^^^ defined(_DEBUG) / !defined(_DEBUG) vvv
; 216  :     constexpr uintptr_t _Min_back_shift = sizeof(void*);
; 217  : #endif // ^^^ !defined(_DEBUG) ^^^
; 218  :     const uintptr_t _Back_shift = reinterpret_cast<uintptr_t>(_Ptr) - _Ptr_container;

  000f8	2b c2		 sub	 eax, edx

; 219  :     _STL_VERIFY(_Back_shift >= _Min_back_shift && _Back_shift <= _Non_user_size, "invalid argument");

  000fa	83 c0 fc	 add	 eax, -4			; fffffffcH
  000fd	83 f8 1f	 cmp	 eax, 31			; 0000001fH
  00100	77 2a		 ja	 SHORT $LN80@Emplace_re

; 220  :     _Ptr = reinterpret_cast<void*>(_Ptr_container);

  00102	8b c2		 mov	 eax, edx
$LN83@Emplace_re:

; 289  :         ::operator delete(_Ptr, _Bytes);

  00104	51		 push	 ecx
  00105	50		 push	 eax
  00106	e8 00 00 00 00	 call	 ??3@YAXPAXI@Z		; operator delete
  0010b	83 c4 08	 add	 esp, 8
$LN72@Emplace_re:
; File D:\Program Files\Microsoft Visual Studio\2022\Community\VC\Tools\MSVC\14.43.34808\include\vector

; 2061 :         _Mylast  = _Newvec + _Newsize;

  0010e	8b 45 f4	 mov	 eax, DWORD PTR __Newsize$1$[ebp]
  00111	89 3e		 mov	 DWORD PTR [esi], edi
  00113	8d 0c 87	 lea	 ecx, DWORD PTR [edi+eax*4]

; 901  :         _Change_array(_Newvec, _Newsize, _Newcapacity);
; 902  :         return _Newvec + _Whereoff;

  00116	8b c3		 mov	 eax, ebx

; 2061 :         _Mylast  = _Newvec + _Newsize;

  00118	89 4e 04	 mov	 DWORD PTR [esi+4], ecx

; 2062 :         _Myend   = _Newvec + _Newcapacity;

  0011b	8b 4d f8	 mov	 ecx, DWORD PTR tv652[ebp]
  0011e	03 cf		 add	 ecx, edi

; 903  :     }

  00120	5f		 pop	 edi

; 2062 :         _Myend   = _Newvec + _Newcapacity;

  00121	89 4e 08	 mov	 DWORD PTR [esi+8], ecx

; 903  :     }

  00124	5e		 pop	 esi
  00125	5b		 pop	 ebx
  00126	8b e5		 mov	 esp, ebp
  00128	5d		 pop	 ebp
  00129	c2 08 00	 ret	 8
$LN80@Emplace_re:
; File D:\Program Files\Microsoft Visual Studio\2022\Community\VC\Tools\MSVC\14.43.34808\include\xmemory

; 219  :     _STL_VERIFY(_Back_shift >= _Min_back_shift && _Back_shift <= _Non_user_size, "invalid argument");

  0012c	e8 00 00 00 00	 call	 __invalid_parameter_noinfo_noreturn
$LN123@Emplace_re:
; File D:\Program Files\Microsoft Visual Studio\2022\Community\VC\Tools\MSVC\14.43.34808\include\vector

; 873  :             _Xlength();

  00131	e8 00 00 00 00	 call	 ?_Xlength@?$vector@PAVCAABBCollisionInstance@@V?$allocator@PAVCAABBCollisionInstance@@@std@@@std@@CAXXZ ; std::vector<CAABBCollisionInstance *,std::allocator<CAABBCollisionInstance *> >::_Xlength
$LN124@Emplace_re:
; File D:\Program Files\Microsoft Visual Studio\2022\Community\VC\Tools\MSVC\14.43.34808\include\xmemory

; 118  :             _Throw_bad_array_new_length(); // multiply overflow

  00136	e8 00 00 00 00	 call	 ?_Throw_bad_array_new_length@std@@YAXXZ ; std::_Throw_bad_array_new_length
$LN120@Emplace_re:
  0013b	cc		 int	 3
??$_Emplace_reallocate@ABQAVCAABBCollisionInstance@@@?$vector@PAVCAABBCollisionInstance@@V?$allocator@PAVCAABBCollisionInstance@@@std@@@std@@AAEPAPAVCAABBCollisionInstance@@QAPAV2@ABQAV2@@Z ENDP ; std::vector<CAABBCollisionInstance *,std::allocator<CAABBCollisionInstance *> >::_Emplace_reallocate<CAABBCollisionInstance * const &>
_TEXT	ENDS
; Function compile flags: /Ogtp
; File D:\Program Files\Microsoft Visual Studio\2022\Community\VC\Tools\MSVC\14.43.34808\include\vector
; File D:\Program Files\Microsoft Visual Studio\2022\Community\VC\Tools\MSVC\14.43.34808\include\xmemory
; File D:\Program Files\Microsoft Visual Studio\2022\Community\VC\Tools\MSVC\14.43.34808\include\vector
; File D:\Program Files\Microsoft Visual Studio\2022\Community\VC\Tools\MSVC\14.43.34808\include\xmemory
; File D:\Program Files\Microsoft Visual Studio\2022\Community\VC\Tools\MSVC\14.43.34808\include\vector
; File D:\Program Files\Microsoft Visual Studio\2022\Community\VC\Tools\MSVC\14.43.34808\include\xmemory
; File D:\Program Files\Microsoft Visual Studio\2022\Community\VC\Tools\MSVC\14.43.34808\include\vector
; File D:\Program Files\Microsoft Visual Studio\2022\Community\VC\Tools\MSVC\14.43.34808\include\xmemory
; File D:\Program Files\Microsoft Visual Studio\2022\Community\VC\Tools\MSVC\14.43.34808\include\vector
; File D:\Program Files\Microsoft Visual Studio\2022\Community\VC\Tools\MSVC\14.43.34808\include\xmemory
; File D:\Program Files\Microsoft Visual Studio\2022\Community\VC\Tools\MSVC\14.43.34808\include\vector
; File D:\Program Files\Microsoft Visual Studio\2022\Community\VC\Tools\MSVC\14.43.34808\include\xmemory
; File D:\Program Files\Microsoft Visual Studio\2022\Community\VC\Tools\MSVC\14.43.34808\include\vector
; File D:\Program Files\Microsoft Visual Studio\2022\Community\VC\Tools\MSVC\14.43.34808\include\xmemory
; File D:\Program Files\Microsoft Visual Studio\2022\Community\VC\Tools\MSVC\14.43.34808\include\vector
; File D:\Program Files\Microsoft Visual Studio\2022\Community\VC\Tools\MSVC\14.43.34808\include\xmemory
; File D:\Program Files\Microsoft Visual Studio\2022\Community\VC\Tools\MSVC\14.43.34808\include\vector
;	COMDAT ??$_Emplace_reallocate@ABQAVCOBBCollisionInstance@@@?$vector@PAVCOBBCollisionInstance@@V?$allocator@PAVCOBBCollisionInstance@@@std@@@std@@AAEPAPAVCOBBCollisionInstance@@QAPAV2@ABQAV2@@Z
_TEXT	SEGMENT
__Newsize$1$ = -12					; size = 4
tv652 = -8						; size = 4
tv650 = -4						; size = 4
__Whereptr$ = 8						; size = 4
_<_Val_0>$ = 12						; size = 4
??$_Emplace_reallocate@ABQAVCOBBCollisionInstance@@@?$vector@PAVCOBBCollisionInstance@@V?$allocator@PAVCOBBCollisionInstance@@@std@@@std@@AAEPAPAVCOBBCollisionInstance@@QAPAV2@ABQAV2@@Z PROC ; std::vector<COBBCollisionInstance *,std::allocator<COBBCollisionInstance *> >::_Emplace_reallocate<COBBCollisionInstance * const &>, COMDAT
; _this$ = ecx

; 860  :     _CONSTEXPR20 pointer _Emplace_reallocate(const pointer _Whereptr, _Valty&&... _Val) {

  00000	55		 push	 ebp
  00001	8b ec		 mov	 ebp, esp
  00003	83 ec 0c	 sub	 esp, 12			; 0000000cH
  00006	53		 push	 ebx

; 861  :         // reallocate and insert by perfectly forwarding _Val at _Whereptr
; 862  :         _Alty& _Al        = _Getal();
; 863  :         auto& _My_data    = _Mypair._Myval2;
; 864  :         pointer& _Myfirst = _My_data._Myfirst;
; 865  :         pointer& _Mylast  = _My_data._Mylast;
; 866  : 
; 867  :         _STL_INTERNAL_CHECK(_Mylast == _My_data._Myend); // check that we have no unused capacity
; 868  : 
; 869  :         const auto _Whereoff = static_cast<size_type>(_Whereptr - _Myfirst);

  00007	8b 5d 08	 mov	 ebx, DWORD PTR __Whereptr$[ebp]
  0000a	56		 push	 esi
  0000b	8b f1		 mov	 esi, ecx
  0000d	57		 push	 edi
  0000e	8b 0e		 mov	 ecx, DWORD PTR [esi]
  00010	2b d9		 sub	 ebx, ecx

; 870  :         const auto _Oldsize  = static_cast<size_type>(_Mylast - _Myfirst);

  00012	8b 46 04	 mov	 eax, DWORD PTR [esi+4]
  00015	2b c1		 sub	 eax, ecx
  00017	c1 fb 02	 sar	 ebx, 2
  0001a	c1 f8 02	 sar	 eax, 2

; 871  : 
; 872  :         if (_Oldsize == max_size()) {

  0001d	3d ff ff ff 3f	 cmp	 eax, 1073741823		; 3fffffffH
  00022	0f 84 09 01 00
	00		 je	 $LN123@Emplace_re

; 1909 :         return static_cast<size_type>(_My_data._Myend - _My_data._Myfirst);

  00028	8b 56 08	 mov	 edx, DWORD PTR [esi+8]

; 874  :         }
; 875  : 
; 876  :         const size_type _Newsize = _Oldsize + 1;

  0002b	8d 78 01	 lea	 edi, DWORD PTR [eax+1]

; 1909 :         return static_cast<size_type>(_My_data._Myend - _My_data._Myfirst);

  0002e	2b d1		 sub	 edx, ecx

; 874  :         }
; 875  : 
; 876  :         const size_type _Newsize = _Oldsize + 1;

  00030	89 7d f4	 mov	 DWORD PTR __Newsize$1$[ebp], edi

; 1909 :         return static_cast<size_type>(_My_data._Myend - _My_data._Myfirst);

  00033	c1 fa 02	 sar	 edx, 2

; 1996 :         if (_Oldcapacity > _Max - _Oldcapacity / 2) {

  00036	b8 ff ff ff 3f	 mov	 eax, 1073741823		; 3fffffffH
  0003b	8b ca		 mov	 ecx, edx
  0003d	d1 e9		 shr	 ecx, 1
  0003f	2b c1		 sub	 eax, ecx
  00041	3b d0		 cmp	 edx, eax
  00043	76 14		 jbe	 SHORT $LN8@Emplace_re

; 1997 :             return _Max; // geometric growth would overflow

  00045	b8 fc ff ff ff	 mov	 eax, -4			; fffffffcH
  0004a	c7 45 f8 fc ff
	ff ff		 mov	 DWORD PTR tv652[ebp], -4 ; fffffffcH
; File D:\Program Files\Microsoft Visual Studio\2022\Community\VC\Tools\MSVC\14.43.34808\include\xmemory

; 253  :             return _Allocate_manually_vector_aligned<_Traits>(_Bytes);

  00051	50		 push	 eax
  00052	e8 00 00 00 00	 call	 ??$_Allocate_manually_vector_aligned@U_Default_allocate_traits@std@@@std@@YAPAXI@Z ; std::_Allocate_manually_vector_aligned<std::_Default_allocate_traits>
  00057	eb 3d		 jmp	 SHORT $LN121@Emplace_re
$LN8@Emplace_re:
; File D:\Program Files\Microsoft Visual Studio\2022\Community\VC\Tools\MSVC\14.43.34808\include\vector

; 2000 :         const size_type _Geometric = _Oldcapacity + _Oldcapacity / 2;

  00059	8d 04 11	 lea	 eax, DWORD PTR [ecx+edx]
; File D:\Program Files\Microsoft Visual Studio\2022\Community\VC\Tools\MSVC\14.43.34808\include\xmemory

; 117  :         if (_Count > _Max_possible) {

  0005c	8b cf		 mov	 ecx, edi
  0005e	3b c7		 cmp	 eax, edi
  00060	0f 43 c8	 cmovae	 ecx, eax
  00063	81 f9 ff ff ff
	3f		 cmp	 ecx, 1073741823		; 3fffffffH
  00069	0f 87 c7 00 00
	00		 ja	 $LN124@Emplace_re

; 119  :         }
; 120  :     }
; 121  : 
; 122  :     return _Count * _Ty_size;

  0006f	8d 04 8d 00 00
	00 00		 lea	 eax, DWORD PTR [ecx*4]
  00076	89 45 f8	 mov	 DWORD PTR tv652[ebp], eax

; 227  :     if (_Bytes == 0) {

  00079	85 c0		 test	 eax, eax
  0007b	75 04		 jne	 SHORT $LN23@Emplace_re

; 228  :         return nullptr;

  0007d	33 ff		 xor	 edi, edi
  0007f	eb 1a		 jmp	 SHORT $LN22@Emplace_re
$LN23@Emplace_re:

; 229  :     }
; 230  : 
; 231  : #if _HAS_CXX20 // TRANSITION, GH-1532
; 232  :     if (_STD is_constant_evaluated()) {
; 233  :         return _Traits::_Allocate(_Bytes);
; 234  :     }
; 235  : #endif // _HAS_CXX20
; 236  : 
; 237  : #ifdef __cpp_aligned_new
; 238  :     if constexpr (_Align > __STDCPP_DEFAULT_NEW_ALIGNMENT__) {
; 239  :         size_t _Passed_align = _Align;
; 240  : #if defined(_M_IX86) || defined(_M_X64)
; 241  :         if (_Bytes >= _Big_allocation_threshold) {
; 242  :             // boost the alignment of big allocations to help autovectorization
; 243  :             _Passed_align = (_STD max)(_Align, _Big_allocation_alignment);
; 244  :         }
; 245  : #endif // defined(_M_IX86) || defined(_M_X64)
; 246  :         return _Traits::_Allocate_aligned(_Bytes, _Passed_align);
; 247  :     } else
; 248  : #endif // defined(__cpp_aligned_new)
; 249  :     {
; 250  : #if defined(_M_IX86) || defined(_M_X64)
; 251  :         if (_Bytes >= _Big_allocation_threshold) {

  00081	3d 00 10 00 00	 cmp	 eax, 4096		; 00001000H
  00086	72 08		 jb	 SHORT $LN24@Emplace_re

; 253  :             return _Allocate_manually_vector_aligned<_Traits>(_Bytes);

  00088	50		 push	 eax
  00089	e8 00 00 00 00	 call	 ??$_Allocate_manually_vector_aligned@U_Default_allocate_traits@std@@@std@@YAPAXI@Z ; std::_Allocate_manually_vector_aligned<std::_Default_allocate_traits>
  0008e	eb 06		 jmp	 SHORT $LN121@Emplace_re
$LN24@Emplace_re:

; 136  :         return ::operator new(_Bytes);

  00090	50		 push	 eax
  00091	e8 00 00 00 00	 call	 ??2@YAPAXI@Z		; operator new
$LN121@Emplace_re:
; File D:\Program Files\Microsoft Visual Studio\2022\Community\VC\Tools\MSVC\14.43.34808\include\vector

; 885  :         _Alty_traits::construct(_Al, _STD _Unfancy(_Newvec + _Whereoff), _STD forward<_Valty>(_Val)...);

  00096	8b f8		 mov	 edi, eax
  00098	83 c4 04	 add	 esp, 4
$LN22@Emplace_re:
  0009b	8b 45 0c	 mov	 eax, DWORD PTR _<_Val_0>$[ebp]
  0009e	8d 0c 9f	 lea	 ecx, DWORD PTR [edi+ebx*4]

; 886  :         _Constructed_first = _Newvec + _Whereoff;
; 887  : 
; 888  :         if (_Whereptr == _Mylast) { // at back, provide strong guarantee

  000a1	8b 5d 08	 mov	 ebx, DWORD PTR __Whereptr$[ebp]
  000a4	89 4d fc	 mov	 DWORD PTR tv650[ebp], ecx
  000a7	8b 00		 mov	 eax, DWORD PTR [eax]
  000a9	89 01		 mov	 DWORD PTR [ecx], eax
  000ab	8b 46 04	 mov	 eax, DWORD PTR [esi+4]
  000ae	8b 0e		 mov	 ecx, DWORD PTR [esi]
  000b0	3b d8		 cmp	 ebx, eax
  000b2	75 07		 jne	 SHORT $LN3@Emplace_re

; 894  :         } else { // provide basic guarantee

  000b4	8b 5d fc	 mov	 ebx, DWORD PTR tv650[ebp]
; File D:\Program Files\Microsoft Visual Studio\2022\Community\VC\Tools\MSVC\14.43.34808\include\xmemory

; 1955 :             _STD _Copy_memmove(_UFirst, _ULast, _STD _Unfancy(_Dest));

  000b7	8b d7		 mov	 edx, edi
; File D:\Program Files\Microsoft Visual Studio\2022\Community\VC\Tools\MSVC\14.43.34808\include\vector

; 894  :         } else { // provide basic guarantee

  000b9	eb 16		 jmp	 SHORT $LN52@Emplace_re
$LN3@Emplace_re:
; File D:\Program Files\Microsoft Visual Studio\2022\Community\VC\Tools\MSVC\14.43.34808\include\xmemory

; 1955 :             _STD _Copy_memmove(_UFirst, _ULast, _STD _Unfancy(_Dest));

  000bb	57		 push	 edi
  000bc	53		 push	 ebx
  000bd	51		 push	 ecx
  000be	e8 00 00 00 00	 call	 ??$_Copy_memmove@PAPAVCOBBCollisionInstance@@PAPAV1@@std@@YAPAPAVCOBBCollisionInstance@@PAPAV1@00@Z ; std::_Copy_memmove<COBBCollisionInstance * *,COBBCollisionInstance * *>
  000c3	8b 46 04	 mov	 eax, DWORD PTR [esi+4]
  000c6	8b cb		 mov	 ecx, ebx
; File D:\Program Files\Microsoft Visual Studio\2022\Community\VC\Tools\MSVC\14.43.34808\include\vector

; 897  :             _STD _Uninitialized_move(_Whereptr, _Mylast, _Newvec + _Whereoff + 1, _Al);

  000c8	8b 5d fc	 mov	 ebx, DWORD PTR tv650[ebp]
; File D:\Program Files\Microsoft Visual Studio\2022\Community\VC\Tools\MSVC\14.43.34808\include\xmemory

; 1955 :             _STD _Copy_memmove(_UFirst, _ULast, _STD _Unfancy(_Dest));

  000cb	83 c4 0c	 add	 esp, 12			; 0000000cH
; File D:\Program Files\Microsoft Visual Studio\2022\Community\VC\Tools\MSVC\14.43.34808\include\vector

; 897  :             _STD _Uninitialized_move(_Whereptr, _Mylast, _Newvec + _Whereoff + 1, _Al);

  000ce	8d 53 04	 lea	 edx, DWORD PTR [ebx+4]
$LN52@Emplace_re:

; 898  :         }
; 899  : 
; 900  :         _Guard._New_begin = nullptr;

  000d1	52		 push	 edx
  000d2	50		 push	 eax
  000d3	51		 push	 ecx
  000d4	e8 00 00 00 00	 call	 ??$_Copy_memmove@PAPAVCOBBCollisionInstance@@PAPAV1@@std@@YAPAPAVCOBBCollisionInstance@@PAPAV1@00@Z ; std::_Copy_memmove<COBBCollisionInstance * *,COBBCollisionInstance * *>

; 2054 :         if (_Myfirst) { // destroy and deallocate old array

  000d9	8b 06		 mov	 eax, DWORD PTR [esi]

; 898  :         }
; 899  : 
; 900  :         _Guard._New_begin = nullptr;

  000db	83 c4 0c	 add	 esp, 12			; 0000000cH

; 2054 :         if (_Myfirst) { // destroy and deallocate old array

  000de	85 c0		 test	 eax, eax
  000e0	74 2c		 je	 SHORT $LN72@Emplace_re

; 2055 :             _STD _Destroy_range(_Myfirst, _Mylast, _Al);
; 2056 :             _ASAN_VECTOR_REMOVE;
; 2057 :             _Al.deallocate(_Myfirst, static_cast<size_type>(_Myend - _Myfirst));

  000e2	8b 4e 08	 mov	 ecx, DWORD PTR [esi+8]
  000e5	2b c8		 sub	 ecx, eax
; File D:\Program Files\Microsoft Visual Studio\2022\Community\VC\Tools\MSVC\14.43.34808\include\xmemory

; 981  :         _STD _Deallocate<_New_alignof<_Ty>>(_Ptr, sizeof(_Ty) * _Count);

  000e7	83 e1 fc	 and	 ecx, -4			; fffffffcH

; 284  :         if (_Bytes >= _Big_allocation_threshold) {

  000ea	81 f9 00 10 00
	00		 cmp	 ecx, 4096		; 00001000H
  000f0	72 12		 jb	 SHORT $LN83@Emplace_re

; 205  :     const uintptr_t _Ptr_container   = _Ptr_user[-1];

  000f2	8b 50 fc	 mov	 edx, DWORD PTR [eax-4]
  000f5	83 c1 23	 add	 ecx, 35			; 00000023H

; 206  : 
; 207  :     // If the following asserts, it likely means that we are performing
; 208  :     // an aligned delete on memory coming from an unaligned allocation.
; 209  :     _STL_ASSERT(_Ptr_user[-2] == _Big_allocation_sentinel, "invalid argument");
; 210  : 
; 211  :     // Extra paranoia on aligned allocation/deallocation; ensure _Ptr_container is
; 212  :     // in range [_Min_back_shift, _Non_user_size]
; 213  : #ifdef _DEBUG
; 214  :     constexpr uintptr_t _Min_back_shift = 2 * sizeof(void*);
; 215  : #else // ^^^ defined(_DEBUG) / !defined(_DEBUG) vvv
; 216  :     constexpr uintptr_t _Min_back_shift = sizeof(void*);
; 217  : #endif // ^^^ !defined(_DEBUG) ^^^
; 218  :     const uintptr_t _Back_shift = reinterpret_cast<uintptr_t>(_Ptr) - _Ptr_container;

  000f8	2b c2		 sub	 eax, edx

; 219  :     _STL_VERIFY(_Back_shift >= _Min_back_shift && _Back_shift <= _Non_user_size, "invalid argument");

  000fa	83 c0 fc	 add	 eax, -4			; fffffffcH
  000fd	83 f8 1f	 cmp	 eax, 31			; 0000001fH
  00100	77 2a		 ja	 SHORT $LN80@Emplace_re

; 220  :     _Ptr = reinterpret_cast<void*>(_Ptr_container);

  00102	8b c2		 mov	 eax, edx
$LN83@Emplace_re:

; 289  :         ::operator delete(_Ptr, _Bytes);

  00104	51		 push	 ecx
  00105	50		 push	 eax
  00106	e8 00 00 00 00	 call	 ??3@YAXPAXI@Z		; operator delete
  0010b	83 c4 08	 add	 esp, 8
$LN72@Emplace_re:
; File D:\Program Files\Microsoft Visual Studio\2022\Community\VC\Tools\MSVC\14.43.34808\include\vector

; 2061 :         _Mylast  = _Newvec + _Newsize;

  0010e	8b 45 f4	 mov	 eax, DWORD PTR __Newsize$1$[ebp]
  00111	89 3e		 mov	 DWORD PTR [esi], edi
  00113	8d 0c 87	 lea	 ecx, DWORD PTR [edi+eax*4]

; 901  :         _Change_array(_Newvec, _Newsize, _Newcapacity);
; 902  :         return _Newvec + _Whereoff;

  00116	8b c3		 mov	 eax, ebx

; 2061 :         _Mylast  = _Newvec + _Newsize;

  00118	89 4e 04	 mov	 DWORD PTR [esi+4], ecx

; 2062 :         _Myend   = _Newvec + _Newcapacity;

  0011b	8b 4d f8	 mov	 ecx, DWORD PTR tv652[ebp]
  0011e	03 cf		 add	 ecx, edi

; 903  :     }

  00120	5f		 pop	 edi

; 2062 :         _Myend   = _Newvec + _Newcapacity;

  00121	89 4e 08	 mov	 DWORD PTR [esi+8], ecx

; 903  :     }

  00124	5e		 pop	 esi
  00125	5b		 pop	 ebx
  00126	8b e5		 mov	 esp, ebp
  00128	5d		 pop	 ebp
  00129	c2 08 00	 ret	 8
$LN80@Emplace_re:
; File D:\Program Files\Microsoft Visual Studio\2022\Community\VC\Tools\MSVC\14.43.34808\include\xmemory

; 219  :     _STL_VERIFY(_Back_shift >= _Min_back_shift && _Back_shift <= _Non_user_size, "invalid argument");

  0012c	e8 00 00 00 00	 call	 __invalid_parameter_noinfo_noreturn
$LN123@Emplace_re:
; File D:\Program Files\Microsoft Visual Studio\2022\Community\VC\Tools\MSVC\14.43.34808\include\vector

; 873  :             _Xlength();

  00131	e8 00 00 00 00	 call	 ?_Xlength@?$vector@PAVCOBBCollisionInstance@@V?$allocator@PAVCOBBCollisionInstance@@@std@@@std@@CAXXZ ; std::vector<COBBCollisionInstance *,std::allocator<COBBCollisionInstance *> >::_Xlength
$LN124@Emplace_re:
; File D:\Program Files\Microsoft Visual Studio\2022\Community\VC\Tools\MSVC\14.43.34808\include\xmemory

; 118  :             _Throw_bad_array_new_length(); // multiply overflow

  00136	e8 00 00 00 00	 call	 ?_Throw_bad_array_new_length@std@@YAXXZ ; std::_Throw_bad_array_new_length
$LN120@Emplace_re:
  0013b	cc		 int	 3
??$_Emplace_reallocate@ABQAVCOBBCollisionInstance@@@?$vector@PAVCOBBCollisionInstance@@V?$allocator@PAVCOBBCollisionInstance@@@std@@@std@@AAEPAPAVCOBBCollisionInstance@@QAPAV2@ABQAV2@@Z ENDP ; std::vector<COBBCollisionInstance *,std::allocator<COBBCollisionInstance *> >::_Emplace_reallocate<COBBCollisionInstance * const &>
_TEXT	ENDS
; Function compile flags: /Ogtp
;	COMDAT ??__Fs@?1??Render@COBBCollisionInstance@@UAEXW4_D3DFILLMODE@@@Z@YAXXZ
text$yd	SEGMENT
??__Fs@?1??Render@COBBCollisionInstance@@UAEXW4_D3DFILLMODE@@@Z@YAXXZ PROC ; `COBBCollisionInstance::Render'::`2'::`dynamic atexit destructor for 's'', COMDAT
  00000	b9 00 00 00 00	 mov	 ecx, OFFSET ?s@?1??Render@COBBCollisionInstance@@UAEXW4_D3DFILLMODE@@@Z@4VCScreen@@A
  00005	e9 00 00 00 00	 jmp	 ??1CScreen@@UAE@XZ	; CScreen::~CScreen
??__Fs@?1??Render@COBBCollisionInstance@@UAEXW4_D3DFILLMODE@@@Z@YAXXZ ENDP ; `COBBCollisionInstance::Render'::`2'::`dynamic atexit destructor for 's''
text$yd	ENDS
; Function compile flags: /Ogtp
;	COMDAT ??__Fs@?1??Render@CAABBCollisionInstance@@UAEXW4_D3DFILLMODE@@@Z@YAXXZ
text$yd	SEGMENT
??__Fs@?1??Render@CAABBCollisionInstance@@UAEXW4_D3DFILLMODE@@@Z@YAXXZ PROC ; `CAABBCollisionInstance::Render'::`2'::`dynamic atexit destructor for 's'', COMDAT
  00000	b9 00 00 00 00	 mov	 ecx, OFFSET ?s@?1??Render@CAABBCollisionInstance@@UAEXW4_D3DFILLMODE@@@Z@4VCScreen@@A
  00005	e9 00 00 00 00	 jmp	 ??1CScreen@@UAE@XZ	; CScreen::~CScreen
??__Fs@?1??Render@CAABBCollisionInstance@@UAEXW4_D3DFILLMODE@@@Z@YAXXZ ENDP ; `CAABBCollisionInstance::Render'::`2'::`dynamic atexit destructor for 's''
text$yd	ENDS
; Function compile flags: /Ogtp
;	COMDAT ??__Fs@?1??Render@CCylinderCollisionInstance@@UAEXW4_D3DFILLMODE@@@Z@YAXXZ
text$yd	SEGMENT
??__Fs@?1??Render@CCylinderCollisionInstance@@UAEXW4_D3DFILLMODE@@@Z@YAXXZ PROC ; `CCylinderCollisionInstance::Render'::`2'::`dynamic atexit destructor for 's'', COMDAT
  00000	b9 00 00 00 00	 mov	 ecx, OFFSET ?s@?1??Render@CCylinderCollisionInstance@@UAEXW4_D3DFILLMODE@@@Z@4VCScreen@@A
  00005	e9 00 00 00 00	 jmp	 ??1CScreen@@UAE@XZ	; CScreen::~CScreen
??__Fs@?1??Render@CCylinderCollisionInstance@@UAEXW4_D3DFILLMODE@@@Z@YAXXZ ENDP ; `CCylinderCollisionInstance::Render'::`2'::`dynamic atexit destructor for 's''
text$yd	ENDS
; Function compile flags: /Ogtp
;	COMDAT ??__Fs@?1??Render@CPlaneCollisionInstance@@UAEXW4_D3DFILLMODE@@@Z@YAXXZ
text$yd	SEGMENT
??__Fs@?1??Render@CPlaneCollisionInstance@@UAEXW4_D3DFILLMODE@@@Z@YAXXZ PROC ; `CPlaneCollisionInstance::Render'::`2'::`dynamic atexit destructor for 's'', COMDAT
  00000	b9 00 00 00 00	 mov	 ecx, OFFSET ?s@?1??Render@CPlaneCollisionInstance@@UAEXW4_D3DFILLMODE@@@Z@4VCScreen@@A
  00005	e9 00 00 00 00	 jmp	 ??1CScreen@@UAE@XZ	; CScreen::~CScreen
??__Fs@?1??Render@CPlaneCollisionInstance@@UAEXW4_D3DFILLMODE@@@Z@YAXXZ ENDP ; `CPlaneCollisionInstance::Render'::`2'::`dynamic atexit destructor for 's''
text$yd	ENDS
; Function compile flags: /Ogtp
;	COMDAT ??__Fs@?1??Render@CSphereCollisionInstance@@UAEXW4_D3DFILLMODE@@@Z@YAXXZ
text$yd	SEGMENT
??__Fs@?1??Render@CSphereCollisionInstance@@UAEXW4_D3DFILLMODE@@@Z@YAXXZ PROC ; `CSphereCollisionInstance::Render'::`2'::`dynamic atexit destructor for 's'', COMDAT
  00000	b9 00 00 00 00	 mov	 ecx, OFFSET ?s@?1??Render@CSphereCollisionInstance@@UAEXW4_D3DFILLMODE@@@Z@4VCScreen@@A
  00005	e9 00 00 00 00	 jmp	 ??1CScreen@@UAE@XZ	; CScreen::~CScreen
??__Fs@?1??Render@CSphereCollisionInstance@@UAEXW4_D3DFILLMODE@@@Z@YAXXZ ENDP ; `CSphereCollisionInstance::Render'::`2'::`dynamic atexit destructor for 's''
text$yd	ENDS
; Function compile flags: /Ogtp
;	COMDAT ??__Fgs_oci@@YAXXZ
text$yd	SEGMENT
??__Fgs_oci@@YAXXZ PROC					; `dynamic atexit destructor for 'gs_oci'', COMDAT
  00000	b9 00 00 00 00	 mov	 ecx, OFFSET ?gs_oci@@3V?$CDynamicPool@VCOBBCollisionInstance@@@@A ; gs_oci
  00005	e9 00 00 00 00	 jmp	 ??1?$CDynamicPool@VCOBBCollisionInstance@@@@UAE@XZ ; CDynamicPool<COBBCollisionInstance>::~CDynamicPool<COBBCollisionInstance>
??__Fgs_oci@@YAXXZ ENDP					; `dynamic atexit destructor for 'gs_oci''
text$yd	ENDS
; Function compile flags: /Ogtp
; File C:\Marty 5.5\Src-Client\Client\EterLib\CollisionData.cpp
;	COMDAT ??__Egs_oci@@YAXXZ
text$di	SEGMENT
??__Egs_oci@@YAXXZ PROC					; `dynamic initializer for 'gs_oci'', COMDAT

; 22   : CDynamicPool<COBBCollisionInstance> gs_oci;

  00000	68 00 00 00 00	 push	 OFFSET ??__Fgs_oci@@YAXXZ ; `dynamic atexit destructor for 'gs_oci''
  00005	e8 00 00 00 00	 call	 _atexit
  0000a	59		 pop	 ecx
  0000b	c3		 ret	 0
??__Egs_oci@@YAXXZ ENDP					; `dynamic initializer for 'gs_oci''
text$di	ENDS
; Function compile flags: /Ogtp
;	COMDAT ??_G?$CDynamicPool@VCOBBCollisionInstance@@@@UAEPAXI@Z
_TEXT	SEGMENT
___flags$ = 8						; size = 4
??_G?$CDynamicPool@VCOBBCollisionInstance@@@@UAEPAXI@Z PROC ; CDynamicPool<COBBCollisionInstance>::`scalar deleting destructor', COMDAT
; _this$ = ecx
  00000	55		 push	 ebp
  00001	8b ec		 mov	 ebp, esp
  00003	56		 push	 esi
  00004	8b f1		 mov	 esi, ecx
  00006	e8 00 00 00 00	 call	 ??1?$CDynamicPool@VCOBBCollisionInstance@@@@UAE@XZ ; CDynamicPool<COBBCollisionInstance>::~CDynamicPool<COBBCollisionInstance>
  0000b	f6 45 08 01	 test	 BYTE PTR ___flags$[ebp], 1
  0000f	74 0b		 je	 SHORT $LN5@scalar
  00011	6a 24		 push	 36			; 00000024H
  00013	56		 push	 esi
  00014	e8 00 00 00 00	 call	 ??3@YAXPAXI@Z		; operator delete
  00019	83 c4 08	 add	 esp, 8
$LN5@scalar:
  0001c	8b c6		 mov	 eax, esi
  0001e	5e		 pop	 esi
  0001f	5d		 pop	 ebp
  00020	c2 04 00	 ret	 4
??_G?$CDynamicPool@VCOBBCollisionInstance@@@@UAEPAXI@Z ENDP ; CDynamicPool<COBBCollisionInstance>::`scalar deleting destructor'
_TEXT	ENDS
; Function compile flags: /Ogtp
; File D:\Program Files\Microsoft Visual Studio\2022\Community\VC\Tools\MSVC\14.43.34808\include\vector
;	COMDAT ?_Xlength@?$vector@PAVCOBBCollisionInstance@@V?$allocator@PAVCOBBCollisionInstance@@@std@@@std@@CAXXZ
_TEXT	SEGMENT
?_Xlength@?$vector@PAVCOBBCollisionInstance@@V?$allocator@PAVCOBBCollisionInstance@@@std@@@std@@CAXXZ PROC ; std::vector<COBBCollisionInstance *,std::allocator<COBBCollisionInstance *> >::_Xlength, COMDAT

; 2169 :         _Xlength_error("vector too long");

  00000	68 00 00 00 00	 push	 OFFSET ??_C@_0BA@FOIKENOD@vector?5too?5long@
  00005	e8 00 00 00 00	 call	 ?_Xlength_error@std@@YAXPBD@Z ; std::_Xlength_error
$LN3@Xlength:
  0000a	cc		 int	 3
?_Xlength@?$vector@PAVCOBBCollisionInstance@@V?$allocator@PAVCOBBCollisionInstance@@@std@@@std@@CAXXZ ENDP ; std::vector<COBBCollisionInstance *,std::allocator<COBBCollisionInstance *> >::_Xlength
_TEXT	ENDS
; Function compile flags: /Ogtp
; File C:\Marty 5.5\Src-Client\Client\EterLib\Pool.h
; File D:\Program Files\Microsoft Visual Studio\2022\Community\VC\Tools\MSVC\14.43.34808\include\vector
; File D:\Program Files\Microsoft Visual Studio\2022\Community\VC\Tools\MSVC\14.43.34808\include\xmemory
; File D:\Program Files\Microsoft Visual Studio\2022\Community\VC\Tools\MSVC\14.43.34808\include\vector
; File D:\Program Files\Microsoft Visual Studio\2022\Community\VC\Tools\MSVC\14.43.34808\include\xmemory
; File D:\Program Files\Microsoft Visual Studio\2022\Community\VC\Tools\MSVC\14.43.34808\include\vector
; File D:\Program Files\Microsoft Visual Studio\2022\Community\VC\Tools\MSVC\14.43.34808\include\xmemory
; File D:\Program Files\Microsoft Visual Studio\2022\Community\VC\Tools\MSVC\14.43.34808\include\vector
; File D:\Program Files\Microsoft Visual Studio\2022\Community\VC\Tools\MSVC\14.43.34808\include\xmemory
; File D:\Program Files\Microsoft Visual Studio\2022\Community\VC\Tools\MSVC\14.43.34808\include\vector
; File C:\Marty 5.5\Src-Client\Client\EterLib\Pool.h
; File D:\Program Files\Microsoft Visual Studio\2022\Community\VC\Tools\MSVC\14.43.34808\include\xmemory
; File C:\Marty 5.5\Src-Client\Client\EterLib\Pool.h
;	COMDAT ??1?$CDynamicPool@VCOBBCollisionInstance@@@@UAE@XZ
_TEXT	SEGMENT
??1?$CDynamicPool@VCOBBCollisionInstance@@@@UAE@XZ PROC	; CDynamicPool<COBBCollisionInstance>::~CDynamicPool<COBBCollisionInstance>, COMDAT
; _this$ = ecx

; 18   : 		{

  00000	56		 push	 esi
  00001	8b f1		 mov	 esi, ecx
  00003	c7 06 00 00 00
	00		 mov	 DWORD PTR [esi], OFFSET ??_7?$CDynamicPool@VCOBBCollisionInstance@@@@6B@
; File D:\Program Files\Microsoft Visual Studio\2022\Community\VC\Tools\MSVC\14.43.34808\include\vector

; 2075 :         if (_Myfirst) { // destroy and deallocate old array

  00009	8b 46 10	 mov	 eax, DWORD PTR [esi+16]
  0000c	85 c0		 test	 eax, eax
  0000e	74 41		 je	 SHORT $LN8@CDynamicPo

; 2076 :             _STD _Destroy_range(_Myfirst, _Mylast, _Al);
; 2077 :             _ASAN_VECTOR_REMOVE;
; 2078 :             _Al.deallocate(_Myfirst, static_cast<size_type>(_Myend - _Myfirst));

  00010	8b 4e 18	 mov	 ecx, DWORD PTR [esi+24]
  00013	2b c8		 sub	 ecx, eax
; File D:\Program Files\Microsoft Visual Studio\2022\Community\VC\Tools\MSVC\14.43.34808\include\xmemory

; 981  :         _STD _Deallocate<_New_alignof<_Ty>>(_Ptr, sizeof(_Ty) * _Count);

  00015	83 e1 fc	 and	 ecx, -4			; fffffffcH

; 284  :         if (_Bytes >= _Big_allocation_threshold) {

  00018	81 f9 00 10 00
	00		 cmp	 ecx, 4096		; 00001000H
  0001e	72 12		 jb	 SHORT $LN27@CDynamicPo

; 205  :     const uintptr_t _Ptr_container   = _Ptr_user[-1];

  00020	8b 50 fc	 mov	 edx, DWORD PTR [eax-4]
  00023	83 c1 23	 add	 ecx, 35			; 00000023H

; 206  : 
; 207  :     // If the following asserts, it likely means that we are performing
; 208  :     // an aligned delete on memory coming from an unaligned allocation.
; 209  :     _STL_ASSERT(_Ptr_user[-2] == _Big_allocation_sentinel, "invalid argument");
; 210  : 
; 211  :     // Extra paranoia on aligned allocation/deallocation; ensure _Ptr_container is
; 212  :     // in range [_Min_back_shift, _Non_user_size]
; 213  : #ifdef _DEBUG
; 214  :     constexpr uintptr_t _Min_back_shift = 2 * sizeof(void*);
; 215  : #else // ^^^ defined(_DEBUG) / !defined(_DEBUG) vvv
; 216  :     constexpr uintptr_t _Min_back_shift = sizeof(void*);
; 217  : #endif // ^^^ !defined(_DEBUG) ^^^
; 218  :     const uintptr_t _Back_shift = reinterpret_cast<uintptr_t>(_Ptr) - _Ptr_container;

  00026	2b c2		 sub	 eax, edx

; 219  :     _STL_VERIFY(_Back_shift >= _Min_back_shift && _Back_shift <= _Non_user_size, "invalid argument");

  00028	83 c0 fc	 add	 eax, -4			; fffffffcH
  0002b	83 f8 1f	 cmp	 eax, 31			; 0000001fH
  0002e	77 6b		 ja	 SHORT $LN53@CDynamicPo

; 220  :     _Ptr = reinterpret_cast<void*>(_Ptr_container);

  00030	8b c2		 mov	 eax, edx
$LN27@CDynamicPo:

; 289  :         ::operator delete(_Ptr, _Bytes);

  00032	51		 push	 ecx
  00033	50		 push	 eax
  00034	e8 00 00 00 00	 call	 ??3@YAXPAXI@Z		; operator delete
; File D:\Program Files\Microsoft Visual Studio\2022\Community\VC\Tools\MSVC\14.43.34808\include\vector

; 2080 :             _Myfirst = nullptr;

  00039	c7 46 10 00 00
	00 00		 mov	 DWORD PTR [esi+16], 0
; File D:\Program Files\Microsoft Visual Studio\2022\Community\VC\Tools\MSVC\14.43.34808\include\xmemory

; 289  :         ::operator delete(_Ptr, _Bytes);

  00040	83 c4 08	 add	 esp, 8
; File D:\Program Files\Microsoft Visual Studio\2022\Community\VC\Tools\MSVC\14.43.34808\include\vector

; 2081 :             _Mylast  = nullptr;

  00043	c7 46 14 00 00
	00 00		 mov	 DWORD PTR [esi+20], 0

; 2082 :             _Myend   = nullptr;

  0004a	c7 46 18 00 00
	00 00		 mov	 DWORD PTR [esi+24], 0
$LN8@CDynamicPo:

; 2075 :         if (_Myfirst) { // destroy and deallocate old array

  00051	8b 46 04	 mov	 eax, DWORD PTR [esi+4]
  00054	85 c0		 test	 eax, eax
  00056	74 41		 je	 SHORT $LN37@CDynamicPo

; 2076 :             _STD _Destroy_range(_Myfirst, _Mylast, _Al);
; 2077 :             _ASAN_VECTOR_REMOVE;
; 2078 :             _Al.deallocate(_Myfirst, static_cast<size_type>(_Myend - _Myfirst));

  00058	8b 4e 0c	 mov	 ecx, DWORD PTR [esi+12]
  0005b	2b c8		 sub	 ecx, eax
; File D:\Program Files\Microsoft Visual Studio\2022\Community\VC\Tools\MSVC\14.43.34808\include\xmemory

; 981  :         _STD _Deallocate<_New_alignof<_Ty>>(_Ptr, sizeof(_Ty) * _Count);

  0005d	83 e1 fc	 and	 ecx, -4			; fffffffcH

; 284  :         if (_Bytes >= _Big_allocation_threshold) {

  00060	81 f9 00 10 00
	00		 cmp	 ecx, 4096		; 00001000H
  00066	72 12		 jb	 SHORT $LN56@CDynamicPo

; 205  :     const uintptr_t _Ptr_container   = _Ptr_user[-1];

  00068	8b 50 fc	 mov	 edx, DWORD PTR [eax-4]
  0006b	83 c1 23	 add	 ecx, 35			; 00000023H

; 206  : 
; 207  :     // If the following asserts, it likely means that we are performing
; 208  :     // an aligned delete on memory coming from an unaligned allocation.
; 209  :     _STL_ASSERT(_Ptr_user[-2] == _Big_allocation_sentinel, "invalid argument");
; 210  : 
; 211  :     // Extra paranoia on aligned allocation/deallocation; ensure _Ptr_container is
; 212  :     // in range [_Min_back_shift, _Non_user_size]
; 213  : #ifdef _DEBUG
; 214  :     constexpr uintptr_t _Min_back_shift = 2 * sizeof(void*);
; 215  : #else // ^^^ defined(_DEBUG) / !defined(_DEBUG) vvv
; 216  :     constexpr uintptr_t _Min_back_shift = sizeof(void*);
; 217  : #endif // ^^^ !defined(_DEBUG) ^^^
; 218  :     const uintptr_t _Back_shift = reinterpret_cast<uintptr_t>(_Ptr) - _Ptr_container;

  0006e	2b c2		 sub	 eax, edx

; 219  :     _STL_VERIFY(_Back_shift >= _Min_back_shift && _Back_shift <= _Non_user_size, "invalid argument");

  00070	83 c0 fc	 add	 eax, -4			; fffffffcH
  00073	83 f8 1f	 cmp	 eax, 31			; 0000001fH
  00076	77 23		 ja	 SHORT $LN53@CDynamicPo

; 220  :     _Ptr = reinterpret_cast<void*>(_Ptr_container);

  00078	8b c2		 mov	 eax, edx
$LN56@CDynamicPo:

; 289  :         ::operator delete(_Ptr, _Bytes);

  0007a	51		 push	 ecx
  0007b	50		 push	 eax
  0007c	e8 00 00 00 00	 call	 ??3@YAXPAXI@Z		; operator delete
; File D:\Program Files\Microsoft Visual Studio\2022\Community\VC\Tools\MSVC\14.43.34808\include\vector

; 2080 :             _Myfirst = nullptr;

  00081	c7 46 04 00 00
	00 00		 mov	 DWORD PTR [esi+4], 0
; File D:\Program Files\Microsoft Visual Studio\2022\Community\VC\Tools\MSVC\14.43.34808\include\xmemory

; 289  :         ::operator delete(_Ptr, _Bytes);

  00088	83 c4 08	 add	 esp, 8
; File D:\Program Files\Microsoft Visual Studio\2022\Community\VC\Tools\MSVC\14.43.34808\include\vector

; 2081 :             _Mylast  = nullptr;

  0008b	c7 46 08 00 00
	00 00		 mov	 DWORD PTR [esi+8], 0

; 2082 :             _Myend   = nullptr;

  00092	c7 46 0c 00 00
	00 00		 mov	 DWORD PTR [esi+12], 0
$LN37@CDynamicPo:
  00099	5e		 pop	 esi
; File C:\Marty 5.5\Src-Client\Client\EterLib\Pool.h

; 26   : 		}

  0009a	c3		 ret	 0
$LN53@CDynamicPo:
; File D:\Program Files\Microsoft Visual Studio\2022\Community\VC\Tools\MSVC\14.43.34808\include\xmemory

; 219  :     _STL_VERIFY(_Back_shift >= _Min_back_shift && _Back_shift <= _Non_user_size, "invalid argument");

  0009b	e8 00 00 00 00	 call	 __invalid_parameter_noinfo_noreturn
$LN67@CDynamicPo:
  000a0	cc		 int	 3
??1?$CDynamicPool@VCOBBCollisionInstance@@@@UAE@XZ ENDP	; CDynamicPool<COBBCollisionInstance>::~CDynamicPool<COBBCollisionInstance>
_TEXT	ENDS
; Function compile flags: /Ogtp
;	COMDAT ??__Fgs_aci@@YAXXZ
text$yd	SEGMENT
??__Fgs_aci@@YAXXZ PROC					; `dynamic atexit destructor for 'gs_aci'', COMDAT
  00000	b9 00 00 00 00	 mov	 ecx, OFFSET ?gs_aci@@3V?$CDynamicPool@VCAABBCollisionInstance@@@@A ; gs_aci
  00005	e9 00 00 00 00	 jmp	 ??1?$CDynamicPool@VCAABBCollisionInstance@@@@UAE@XZ ; CDynamicPool<CAABBCollisionInstance>::~CDynamicPool<CAABBCollisionInstance>
??__Fgs_aci@@YAXXZ ENDP					; `dynamic atexit destructor for 'gs_aci''
text$yd	ENDS
; Function compile flags: /Ogtp
; File C:\Marty 5.5\Src-Client\Client\EterLib\CollisionData.cpp
;	COMDAT ??__Egs_aci@@YAXXZ
text$di	SEGMENT
??__Egs_aci@@YAXXZ PROC					; `dynamic initializer for 'gs_aci'', COMDAT

; 21   : CDynamicPool<CAABBCollisionInstance> gs_aci;

  00000	68 00 00 00 00	 push	 OFFSET ??__Fgs_aci@@YAXXZ ; `dynamic atexit destructor for 'gs_aci''
  00005	e8 00 00 00 00	 call	 _atexit
  0000a	59		 pop	 ecx
  0000b	c3		 ret	 0
??__Egs_aci@@YAXXZ ENDP					; `dynamic initializer for 'gs_aci''
text$di	ENDS
; Function compile flags: /Ogtp
;	COMDAT ??_G?$CDynamicPool@VCAABBCollisionInstance@@@@UAEPAXI@Z
_TEXT	SEGMENT
___flags$ = 8						; size = 4
??_G?$CDynamicPool@VCAABBCollisionInstance@@@@UAEPAXI@Z PROC ; CDynamicPool<CAABBCollisionInstance>::`scalar deleting destructor', COMDAT
; _this$ = ecx
  00000	55		 push	 ebp
  00001	8b ec		 mov	 ebp, esp
  00003	56		 push	 esi
  00004	8b f1		 mov	 esi, ecx
  00006	e8 00 00 00 00	 call	 ??1?$CDynamicPool@VCAABBCollisionInstance@@@@UAE@XZ ; CDynamicPool<CAABBCollisionInstance>::~CDynamicPool<CAABBCollisionInstance>
  0000b	f6 45 08 01	 test	 BYTE PTR ___flags$[ebp], 1
  0000f	74 0b		 je	 SHORT $LN5@scalar
  00011	6a 24		 push	 36			; 00000024H
  00013	56		 push	 esi
  00014	e8 00 00 00 00	 call	 ??3@YAXPAXI@Z		; operator delete
  00019	83 c4 08	 add	 esp, 8
$LN5@scalar:
  0001c	8b c6		 mov	 eax, esi
  0001e	5e		 pop	 esi
  0001f	5d		 pop	 ebp
  00020	c2 04 00	 ret	 4
??_G?$CDynamicPool@VCAABBCollisionInstance@@@@UAEPAXI@Z ENDP ; CDynamicPool<CAABBCollisionInstance>::`scalar deleting destructor'
_TEXT	ENDS
; Function compile flags: /Ogtp
; File D:\Program Files\Microsoft Visual Studio\2022\Community\VC\Tools\MSVC\14.43.34808\include\vector
;	COMDAT ?_Xlength@?$vector@PAVCAABBCollisionInstance@@V?$allocator@PAVCAABBCollisionInstance@@@std@@@std@@CAXXZ
_TEXT	SEGMENT
?_Xlength@?$vector@PAVCAABBCollisionInstance@@V?$allocator@PAVCAABBCollisionInstance@@@std@@@std@@CAXXZ PROC ; std::vector<CAABBCollisionInstance *,std::allocator<CAABBCollisionInstance *> >::_Xlength, COMDAT

; 2169 :         _Xlength_error("vector too long");

  00000	68 00 00 00 00	 push	 OFFSET ??_C@_0BA@FOIKENOD@vector?5too?5long@
  00005	e8 00 00 00 00	 call	 ?_Xlength_error@std@@YAXPBD@Z ; std::_Xlength_error
$LN3@Xlength:
  0000a	cc		 int	 3
?_Xlength@?$vector@PAVCAABBCollisionInstance@@V?$allocator@PAVCAABBCollisionInstance@@@std@@@std@@CAXXZ ENDP ; std::vector<CAABBCollisionInstance *,std::allocator<CAABBCollisionInstance *> >::_Xlength
_TEXT	ENDS
; Function compile flags: /Ogtp
; File C:\Marty 5.5\Src-Client\Client\EterLib\Pool.h
; File D:\Program Files\Microsoft Visual Studio\2022\Community\VC\Tools\MSVC\14.43.34808\include\vector
; File C:\Marty 5.5\Src-Client\Client\EterLib\Pool.h
; File D:\Program Files\Microsoft Visual Studio\2022\Community\VC\Tools\MSVC\14.43.34808\include\vector
; File C:\Marty 5.5\Src-Client\Client\EterLib\Pool.h
; File D:\Program Files\Microsoft Visual Studio\2022\Community\VC\Tools\MSVC\14.43.34808\include\vector
; File C:\Marty 5.5\Src-Client\Client\EterLib\Pool.h
; File D:\Program Files\Microsoft Visual Studio\2022\Community\VC\Tools\MSVC\14.43.34808\include\vector
; File C:\Marty 5.5\Src-Client\Client\EterLib\Pool.h
; File D:\Program Files\Microsoft Visual Studio\2022\Community\VC\Tools\MSVC\14.43.34808\include\vector
; File C:\Marty 5.5\Src-Client\Client\EterLib\Pool.h
; File D:\Program Files\Microsoft Visual Studio\2022\Community\VC\Tools\MSVC\14.43.34808\include\vector
; File C:\Marty 5.5\Src-Client\Client\EterLib\Pool.h
; File D:\Program Files\Microsoft Visual Studio\2022\Community\VC\Tools\MSVC\14.43.34808\include\vector
; File C:\Marty 5.5\Src-Client\Client\EterLib\Pool.h
;	COMDAT ?Alloc@?$CDynamicPool@VCAABBCollisionInstance@@@@QAEPAVCAABBCollisionInstance@@XZ
_TEXT	SEGMENT
_pkNewData$1 = -4					; size = 4
$T2 = -4						; size = 4
?Alloc@?$CDynamicPool@VCAABBCollisionInstance@@@@QAEPAVCAABBCollisionInstance@@XZ PROC ; CDynamicPool<CAABBCollisionInstance>::Alloc, COMDAT
; _this$ = ecx

; 63   : 		{

  00000	55		 push	 ebp
  00001	8b ec		 mov	 ebp, esp
  00003	51		 push	 ecx
  00004	56		 push	 esi
  00005	8b f1		 mov	 esi, ecx
; File D:\Program Files\Microsoft Visual Studio\2022\Community\VC\Tools\MSVC\14.43.34808\include\vector

; 1895 :         return _My_data._Myfirst == _My_data._Mylast;

  00007	8b 46 10	 mov	 eax, DWORD PTR [esi+16]
  0000a	3b 46 14	 cmp	 eax, DWORD PTR [esi+20]
; File C:\Marty 5.5\Src-Client\Client\EterLib\Pool.h

; 64   : 			if (m_kVct_pkFree.empty())

  0000d	75 4c		 jne	 SHORT $LN2@Alloc

; 66   : 				T* pkNewData=new T;

  0000f	6a 1c		 push	 28			; 0000001cH
  00011	e8 00 00 00 00	 call	 ??2@YAPAXI@Z		; operator new
  00016	83 c4 04	 add	 esp, 4
  00019	89 45 fc	 mov	 DWORD PTR $T2[ebp], eax
  0001c	85 c0		 test	 eax, eax
  0001e	74 08		 je	 SHORT $LN4@Alloc
  00020	c7 00 00 00 00
	00		 mov	 DWORD PTR [eax], OFFSET ??_7CAABBCollisionInstance@@6B@
  00026	eb 02		 jmp	 SHORT $LN5@Alloc
$LN4@Alloc:
  00028	33 c0		 xor	 eax, eax
$LN5@Alloc:
; File D:\Program Files\Microsoft Visual Studio\2022\Community\VC\Tools\MSVC\14.43.34808\include\vector

; 829  :         if (_Mylast != _My_data._Myend) {

  0002a	8b 4e 08	 mov	 ecx, DWORD PTR [esi+8]
; File C:\Marty 5.5\Src-Client\Client\EterLib\Pool.h

; 66   : 				T* pkNewData=new T;

  0002d	89 45 fc	 mov	 DWORD PTR _pkNewData$1[ebp], eax
; File D:\Program Files\Microsoft Visual Studio\2022\Community\VC\Tools\MSVC\14.43.34808\include\vector

; 829  :         if (_Mylast != _My_data._Myend) {

  00030	3b 4e 0c	 cmp	 ecx, DWORD PTR [esi+12]
  00033	74 0e		 je	 SHORT $LN18@Alloc

; 845  :             _STD _Construct_in_place(*_Mylast, _STD forward<_Valty>(_Val)...);

  00035	89 01		 mov	 DWORD PTR [ecx], eax

; 846  :         } else {
; 847  :             _ASAN_VECTOR_EXTEND_GUARD(static_cast<size_type>(_Mylast - _My_data._Myfirst) + 1);
; 848  :             _Alty_traits::construct(_Getal(), _Unfancy(_Mylast), _STD forward<_Valty>(_Val)...);
; 849  :             _ASAN_VECTOR_RELEASE_GUARD;
; 850  :         }
; 851  : 
; 852  :         _Orphan_range(_Mylast, _Mylast);
; 853  :         _Ty& _Result = *_Mylast;
; 854  :         ++_Mylast;

  00037	83 46 08 04	 add	 DWORD PTR [esi+8], 4
; File C:\Marty 5.5\Src-Client\Client\EterLib\Pool.h

; 68   : 				++m_uUsedCapacity;

  0003b	ff 46 20	 inc	 DWORD PTR [esi+32]
  0003e	5e		 pop	 esi

; 75   : 		}

  0003f	8b e5		 mov	 esp, ebp
  00041	5d		 pop	 ebp
  00042	c3		 ret	 0
$LN18@Alloc:
; File D:\Program Files\Microsoft Visual Studio\2022\Community\VC\Tools\MSVC\14.43.34808\include\vector

; 833  :         return *_Emplace_reallocate(_Mylast, _STD forward<_Valty>(_Val)...);

  00043	8d 45 fc	 lea	 eax, DWORD PTR _pkNewData$1[ebp]
  00046	50		 push	 eax
  00047	51		 push	 ecx
  00048	8d 4e 04	 lea	 ecx, DWORD PTR [esi+4]
  0004b	e8 00 00 00 00	 call	 ??$_Emplace_reallocate@ABQAVCAABBCollisionInstance@@@?$vector@PAVCAABBCollisionInstance@@V?$allocator@PAVCAABBCollisionInstance@@@std@@@std@@AAEPAPAVCAABBCollisionInstance@@QAPAV2@ABQAV2@@Z ; std::vector<CAABBCollisionInstance *,std::allocator<CAABBCollisionInstance *> >::_Emplace_reallocate<CAABBCollisionInstance * const &>
; File C:\Marty 5.5\Src-Client\Client\EterLib\Pool.h

; 68   : 				++m_uUsedCapacity;

  00050	ff 46 20	 inc	 DWORD PTR [esi+32]
; File D:\Program Files\Microsoft Visual Studio\2022\Community\VC\Tools\MSVC\14.43.34808\include\vector

; 833  :         return *_Emplace_reallocate(_Mylast, _STD forward<_Valty>(_Val)...);

  00053	8b 45 fc	 mov	 eax, DWORD PTR _pkNewData$1[ebp]
  00056	5e		 pop	 esi
; File C:\Marty 5.5\Src-Client\Client\EterLib\Pool.h

; 75   : 		}

  00057	8b e5		 mov	 esp, ebp
  00059	5d		 pop	 ebp
  0005a	c3		 ret	 0
$LN2@Alloc:
; File D:\Program Files\Microsoft Visual Studio\2022\Community\VC\Tools\MSVC\14.43.34808\include\vector

; 1974 :         return _My_data._Mylast[-1];

  0005b	8b 46 14	 mov	 eax, DWORD PTR [esi+20]
  0005e	83 c0 fc	 add	 eax, -4			; fffffffcH
; File C:\Marty 5.5\Src-Client\Client\EterLib\Pool.h

; 72   : 			T* pkFreeData=m_kVct_pkFree.back();

  00061	8b 08		 mov	 ecx, DWORD PTR [eax]
; File D:\Program Files\Microsoft Visual Studio\2022\Community\VC\Tools\MSVC\14.43.34808\include\vector

; 1744 :         --_Mylast;

  00063	89 46 14	 mov	 DWORD PTR [esi+20], eax
; File C:\Marty 5.5\Src-Client\Client\EterLib\Pool.h

; 74   : 			return pkFreeData;

  00066	8b c1		 mov	 eax, ecx
  00068	5e		 pop	 esi

; 75   : 		}

  00069	8b e5		 mov	 esp, ebp
  0006b	5d		 pop	 ebp
  0006c	c3		 ret	 0
?Alloc@?$CDynamicPool@VCAABBCollisionInstance@@@@QAEPAVCAABBCollisionInstance@@XZ ENDP ; CDynamicPool<CAABBCollisionInstance>::Alloc
_TEXT	ENDS
; Function compile flags: /Ogtp
; File C:\Marty 5.5\Src-Client\Client\EterLib\Pool.h
; File D:\Program Files\Microsoft Visual Studio\2022\Community\VC\Tools\MSVC\14.43.34808\include\vector
; File D:\Program Files\Microsoft Visual Studio\2022\Community\VC\Tools\MSVC\14.43.34808\include\xmemory
; File D:\Program Files\Microsoft Visual Studio\2022\Community\VC\Tools\MSVC\14.43.34808\include\vector
; File D:\Program Files\Microsoft Visual Studio\2022\Community\VC\Tools\MSVC\14.43.34808\include\xmemory
; File D:\Program Files\Microsoft Visual Studio\2022\Community\VC\Tools\MSVC\14.43.34808\include\vector
; File D:\Program Files\Microsoft Visual Studio\2022\Community\VC\Tools\MSVC\14.43.34808\include\xmemory
; File D:\Program Files\Microsoft Visual Studio\2022\Community\VC\Tools\MSVC\14.43.34808\include\vector
; File D:\Program Files\Microsoft Visual Studio\2022\Community\VC\Tools\MSVC\14.43.34808\include\xmemory
; File D:\Program Files\Microsoft Visual Studio\2022\Community\VC\Tools\MSVC\14.43.34808\include\vector
; File C:\Marty 5.5\Src-Client\Client\EterLib\Pool.h
; File D:\Program Files\Microsoft Visual Studio\2022\Community\VC\Tools\MSVC\14.43.34808\include\xmemory
; File C:\Marty 5.5\Src-Client\Client\EterLib\Pool.h
;	COMDAT ??1?$CDynamicPool@VCAABBCollisionInstance@@@@UAE@XZ
_TEXT	SEGMENT
??1?$CDynamicPool@VCAABBCollisionInstance@@@@UAE@XZ PROC ; CDynamicPool<CAABBCollisionInstance>::~CDynamicPool<CAABBCollisionInstance>, COMDAT
; _this$ = ecx

; 18   : 		{

  00000	56		 push	 esi
  00001	8b f1		 mov	 esi, ecx
  00003	c7 06 00 00 00
	00		 mov	 DWORD PTR [esi], OFFSET ??_7?$CDynamicPool@VCAABBCollisionInstance@@@@6B@
; File D:\Program Files\Microsoft Visual Studio\2022\Community\VC\Tools\MSVC\14.43.34808\include\vector

; 2075 :         if (_Myfirst) { // destroy and deallocate old array

  00009	8b 46 10	 mov	 eax, DWORD PTR [esi+16]
  0000c	85 c0		 test	 eax, eax
  0000e	74 41		 je	 SHORT $LN8@CDynamicPo

; 2076 :             _STD _Destroy_range(_Myfirst, _Mylast, _Al);
; 2077 :             _ASAN_VECTOR_REMOVE;
; 2078 :             _Al.deallocate(_Myfirst, static_cast<size_type>(_Myend - _Myfirst));

  00010	8b 4e 18	 mov	 ecx, DWORD PTR [esi+24]
  00013	2b c8		 sub	 ecx, eax
; File D:\Program Files\Microsoft Visual Studio\2022\Community\VC\Tools\MSVC\14.43.34808\include\xmemory

; 981  :         _STD _Deallocate<_New_alignof<_Ty>>(_Ptr, sizeof(_Ty) * _Count);

  00015	83 e1 fc	 and	 ecx, -4			; fffffffcH

; 284  :         if (_Bytes >= _Big_allocation_threshold) {

  00018	81 f9 00 10 00
	00		 cmp	 ecx, 4096		; 00001000H
  0001e	72 12		 jb	 SHORT $LN27@CDynamicPo

; 205  :     const uintptr_t _Ptr_container   = _Ptr_user[-1];

  00020	8b 50 fc	 mov	 edx, DWORD PTR [eax-4]
  00023	83 c1 23	 add	 ecx, 35			; 00000023H

; 206  : 
; 207  :     // If the following asserts, it likely means that we are performing
; 208  :     // an aligned delete on memory coming from an unaligned allocation.
; 209  :     _STL_ASSERT(_Ptr_user[-2] == _Big_allocation_sentinel, "invalid argument");
; 210  : 
; 211  :     // Extra paranoia on aligned allocation/deallocation; ensure _Ptr_container is
; 212  :     // in range [_Min_back_shift, _Non_user_size]
; 213  : #ifdef _DEBUG
; 214  :     constexpr uintptr_t _Min_back_shift = 2 * sizeof(void*);
; 215  : #else // ^^^ defined(_DEBUG) / !defined(_DEBUG) vvv
; 216  :     constexpr uintptr_t _Min_back_shift = sizeof(void*);
; 217  : #endif // ^^^ !defined(_DEBUG) ^^^
; 218  :     const uintptr_t _Back_shift = reinterpret_cast<uintptr_t>(_Ptr) - _Ptr_container;

  00026	2b c2		 sub	 eax, edx

; 219  :     _STL_VERIFY(_Back_shift >= _Min_back_shift && _Back_shift <= _Non_user_size, "invalid argument");

  00028	83 c0 fc	 add	 eax, -4			; fffffffcH
  0002b	83 f8 1f	 cmp	 eax, 31			; 0000001fH
  0002e	77 6b		 ja	 SHORT $LN53@CDynamicPo

; 220  :     _Ptr = reinterpret_cast<void*>(_Ptr_container);

  00030	8b c2		 mov	 eax, edx
$LN27@CDynamicPo:

; 289  :         ::operator delete(_Ptr, _Bytes);

  00032	51		 push	 ecx
  00033	50		 push	 eax
  00034	e8 00 00 00 00	 call	 ??3@YAXPAXI@Z		; operator delete
; File D:\Program Files\Microsoft Visual Studio\2022\Community\VC\Tools\MSVC\14.43.34808\include\vector

; 2080 :             _Myfirst = nullptr;

  00039	c7 46 10 00 00
	00 00		 mov	 DWORD PTR [esi+16], 0
; File D:\Program Files\Microsoft Visual Studio\2022\Community\VC\Tools\MSVC\14.43.34808\include\xmemory

; 289  :         ::operator delete(_Ptr, _Bytes);

  00040	83 c4 08	 add	 esp, 8
; File D:\Program Files\Microsoft Visual Studio\2022\Community\VC\Tools\MSVC\14.43.34808\include\vector

; 2081 :             _Mylast  = nullptr;

  00043	c7 46 14 00 00
	00 00		 mov	 DWORD PTR [esi+20], 0

; 2082 :             _Myend   = nullptr;

  0004a	c7 46 18 00 00
	00 00		 mov	 DWORD PTR [esi+24], 0
$LN8@CDynamicPo:

; 2075 :         if (_Myfirst) { // destroy and deallocate old array

  00051	8b 46 04	 mov	 eax, DWORD PTR [esi+4]
  00054	85 c0		 test	 eax, eax
  00056	74 41		 je	 SHORT $LN37@CDynamicPo

; 2076 :             _STD _Destroy_range(_Myfirst, _Mylast, _Al);
; 2077 :             _ASAN_VECTOR_REMOVE;
; 2078 :             _Al.deallocate(_Myfirst, static_cast<size_type>(_Myend - _Myfirst));

  00058	8b 4e 0c	 mov	 ecx, DWORD PTR [esi+12]
  0005b	2b c8		 sub	 ecx, eax
; File D:\Program Files\Microsoft Visual Studio\2022\Community\VC\Tools\MSVC\14.43.34808\include\xmemory

; 981  :         _STD _Deallocate<_New_alignof<_Ty>>(_Ptr, sizeof(_Ty) * _Count);

  0005d	83 e1 fc	 and	 ecx, -4			; fffffffcH

; 284  :         if (_Bytes >= _Big_allocation_threshold) {

  00060	81 f9 00 10 00
	00		 cmp	 ecx, 4096		; 00001000H
  00066	72 12		 jb	 SHORT $LN56@CDynamicPo

; 205  :     const uintptr_t _Ptr_container   = _Ptr_user[-1];

  00068	8b 50 fc	 mov	 edx, DWORD PTR [eax-4]
  0006b	83 c1 23	 add	 ecx, 35			; 00000023H

; 206  : 
; 207  :     // If the following asserts, it likely means that we are performing
; 208  :     // an aligned delete on memory coming from an unaligned allocation.
; 209  :     _STL_ASSERT(_Ptr_user[-2] == _Big_allocation_sentinel, "invalid argument");
; 210  : 
; 211  :     // Extra paranoia on aligned allocation/deallocation; ensure _Ptr_container is
; 212  :     // in range [_Min_back_shift, _Non_user_size]
; 213  : #ifdef _DEBUG
; 214  :     constexpr uintptr_t _Min_back_shift = 2 * sizeof(void*);
; 215  : #else // ^^^ defined(_DEBUG) / !defined(_DEBUG) vvv
; 216  :     constexpr uintptr_t _Min_back_shift = sizeof(void*);
; 217  : #endif // ^^^ !defined(_DEBUG) ^^^
; 218  :     const uintptr_t _Back_shift = reinterpret_cast<uintptr_t>(_Ptr) - _Ptr_container;

  0006e	2b c2		 sub	 eax, edx

; 219  :     _STL_VERIFY(_Back_shift >= _Min_back_shift && _Back_shift <= _Non_user_size, "invalid argument");

  00070	83 c0 fc	 add	 eax, -4			; fffffffcH
  00073	83 f8 1f	 cmp	 eax, 31			; 0000001fH
  00076	77 23		 ja	 SHORT $LN53@CDynamicPo

; 220  :     _Ptr = reinterpret_cast<void*>(_Ptr_container);

  00078	8b c2		 mov	 eax, edx
$LN56@CDynamicPo:

; 289  :         ::operator delete(_Ptr, _Bytes);

  0007a	51		 push	 ecx
  0007b	50		 push	 eax
  0007c	e8 00 00 00 00	 call	 ??3@YAXPAXI@Z		; operator delete
; File D:\Program Files\Microsoft Visual Studio\2022\Community\VC\Tools\MSVC\14.43.34808\include\vector

; 2080 :             _Myfirst = nullptr;

  00081	c7 46 04 00 00
	00 00		 mov	 DWORD PTR [esi+4], 0
; File D:\Program Files\Microsoft Visual Studio\2022\Community\VC\Tools\MSVC\14.43.34808\include\xmemory

; 289  :         ::operator delete(_Ptr, _Bytes);

  00088	83 c4 08	 add	 esp, 8
; File D:\Program Files\Microsoft Visual Studio\2022\Community\VC\Tools\MSVC\14.43.34808\include\vector

; 2081 :             _Mylast  = nullptr;

  0008b	c7 46 08 00 00
	00 00		 mov	 DWORD PTR [esi+8], 0

; 2082 :             _Myend   = nullptr;

  00092	c7 46 0c 00 00
	00 00		 mov	 DWORD PTR [esi+12], 0
$LN37@CDynamicPo:
  00099	5e		 pop	 esi
; File C:\Marty 5.5\Src-Client\Client\EterLib\Pool.h

; 26   : 		}

  0009a	c3		 ret	 0
$LN53@CDynamicPo:
; File D:\Program Files\Microsoft Visual Studio\2022\Community\VC\Tools\MSVC\14.43.34808\include\xmemory

; 219  :     _STL_VERIFY(_Back_shift >= _Min_back_shift && _Back_shift <= _Non_user_size, "invalid argument");

  0009b	e8 00 00 00 00	 call	 __invalid_parameter_noinfo_noreturn
$LN67@CDynamicPo:
  000a0	cc		 int	 3
??1?$CDynamicPool@VCAABBCollisionInstance@@@@UAE@XZ ENDP ; CDynamicPool<CAABBCollisionInstance>::~CDynamicPool<CAABBCollisionInstance>
_TEXT	ENDS
; Function compile flags: /Ogtp
;	COMDAT ??__Fgs_pci@@YAXXZ
text$yd	SEGMENT
??__Fgs_pci@@YAXXZ PROC					; `dynamic atexit destructor for 'gs_pci'', COMDAT
  00000	b9 00 00 00 00	 mov	 ecx, OFFSET ?gs_pci@@3V?$CDynamicPool@VCPlaneCollisionInstance@@@@A ; gs_pci
  00005	e9 00 00 00 00	 jmp	 ??1?$CDynamicPool@VCPlaneCollisionInstance@@@@UAE@XZ ; CDynamicPool<CPlaneCollisionInstance>::~CDynamicPool<CPlaneCollisionInstance>
??__Fgs_pci@@YAXXZ ENDP					; `dynamic atexit destructor for 'gs_pci''
text$yd	ENDS
; Function compile flags: /Ogtp
; File C:\Marty 5.5\Src-Client\Client\EterLib\CollisionData.cpp
;	COMDAT ??__Egs_pci@@YAXXZ
text$di	SEGMENT
??__Egs_pci@@YAXXZ PROC					; `dynamic initializer for 'gs_pci'', COMDAT

; 20   : CDynamicPool<CPlaneCollisionInstance> gs_pci;

  00000	68 00 00 00 00	 push	 OFFSET ??__Fgs_pci@@YAXXZ ; `dynamic atexit destructor for 'gs_pci''
  00005	e8 00 00 00 00	 call	 _atexit
  0000a	59		 pop	 ecx
  0000b	c3		 ret	 0
??__Egs_pci@@YAXXZ ENDP					; `dynamic initializer for 'gs_pci''
text$di	ENDS
; Function compile flags: /Ogtp
;	COMDAT ??_G?$CDynamicPool@VCPlaneCollisionInstance@@@@UAEPAXI@Z
_TEXT	SEGMENT
___flags$ = 8						; size = 4
??_G?$CDynamicPool@VCPlaneCollisionInstance@@@@UAEPAXI@Z PROC ; CDynamicPool<CPlaneCollisionInstance>::`scalar deleting destructor', COMDAT
; _this$ = ecx
  00000	55		 push	 ebp
  00001	8b ec		 mov	 ebp, esp
  00003	56		 push	 esi
  00004	8b f1		 mov	 esi, ecx
  00006	e8 00 00 00 00	 call	 ??1?$CDynamicPool@VCPlaneCollisionInstance@@@@UAE@XZ ; CDynamicPool<CPlaneCollisionInstance>::~CDynamicPool<CPlaneCollisionInstance>
  0000b	f6 45 08 01	 test	 BYTE PTR ___flags$[ebp], 1
  0000f	74 0b		 je	 SHORT $LN5@scalar
  00011	6a 24		 push	 36			; 00000024H
  00013	56		 push	 esi
  00014	e8 00 00 00 00	 call	 ??3@YAXPAXI@Z		; operator delete
  00019	83 c4 08	 add	 esp, 8
$LN5@scalar:
  0001c	8b c6		 mov	 eax, esi
  0001e	5e		 pop	 esi
  0001f	5d		 pop	 ebp
  00020	c2 04 00	 ret	 4
??_G?$CDynamicPool@VCPlaneCollisionInstance@@@@UAEPAXI@Z ENDP ; CDynamicPool<CPlaneCollisionInstance>::`scalar deleting destructor'
_TEXT	ENDS
; Function compile flags: /Ogtp
; File D:\Program Files\Microsoft Visual Studio\2022\Community\VC\Tools\MSVC\14.43.34808\include\vector
;	COMDAT ?_Xlength@?$vector@PAVCPlaneCollisionInstance@@V?$allocator@PAVCPlaneCollisionInstance@@@std@@@std@@CAXXZ
_TEXT	SEGMENT
?_Xlength@?$vector@PAVCPlaneCollisionInstance@@V?$allocator@PAVCPlaneCollisionInstance@@@std@@@std@@CAXXZ PROC ; std::vector<CPlaneCollisionInstance *,std::allocator<CPlaneCollisionInstance *> >::_Xlength, COMDAT

; 2169 :         _Xlength_error("vector too long");

  00000	68 00 00 00 00	 push	 OFFSET ??_C@_0BA@FOIKENOD@vector?5too?5long@
  00005	e8 00 00 00 00	 call	 ?_Xlength_error@std@@YAXPBD@Z ; std::_Xlength_error
$LN3@Xlength:
  0000a	cc		 int	 3
?_Xlength@?$vector@PAVCPlaneCollisionInstance@@V?$allocator@PAVCPlaneCollisionInstance@@@std@@@std@@CAXXZ ENDP ; std::vector<CPlaneCollisionInstance *,std::allocator<CPlaneCollisionInstance *> >::_Xlength
_TEXT	ENDS
; Function compile flags: /Ogtp
; File C:\Marty 5.5\Src-Client\Client\EterLib\Pool.h
; File D:\Program Files\Microsoft Visual Studio\2022\Community\VC\Tools\MSVC\14.43.34808\include\vector
; File D:\Program Files\Microsoft Visual Studio\2022\Community\VC\Tools\MSVC\14.43.34808\include\xmemory
; File D:\Program Files\Microsoft Visual Studio\2022\Community\VC\Tools\MSVC\14.43.34808\include\vector
; File D:\Program Files\Microsoft Visual Studio\2022\Community\VC\Tools\MSVC\14.43.34808\include\xmemory
; File D:\Program Files\Microsoft Visual Studio\2022\Community\VC\Tools\MSVC\14.43.34808\include\vector
; File D:\Program Files\Microsoft Visual Studio\2022\Community\VC\Tools\MSVC\14.43.34808\include\xmemory
; File D:\Program Files\Microsoft Visual Studio\2022\Community\VC\Tools\MSVC\14.43.34808\include\vector
; File D:\Program Files\Microsoft Visual Studio\2022\Community\VC\Tools\MSVC\14.43.34808\include\xmemory
; File D:\Program Files\Microsoft Visual Studio\2022\Community\VC\Tools\MSVC\14.43.34808\include\vector
; File C:\Marty 5.5\Src-Client\Client\EterLib\Pool.h
; File D:\Program Files\Microsoft Visual Studio\2022\Community\VC\Tools\MSVC\14.43.34808\include\xmemory
; File C:\Marty 5.5\Src-Client\Client\EterLib\Pool.h
;	COMDAT ??1?$CDynamicPool@VCPlaneCollisionInstance@@@@UAE@XZ
_TEXT	SEGMENT
??1?$CDynamicPool@VCPlaneCollisionInstance@@@@UAE@XZ PROC ; CDynamicPool<CPlaneCollisionInstance>::~CDynamicPool<CPlaneCollisionInstance>, COMDAT
; _this$ = ecx

; 18   : 		{

  00000	56		 push	 esi
  00001	8b f1		 mov	 esi, ecx
  00003	c7 06 00 00 00
	00		 mov	 DWORD PTR [esi], OFFSET ??_7?$CDynamicPool@VCPlaneCollisionInstance@@@@6B@
; File D:\Program Files\Microsoft Visual Studio\2022\Community\VC\Tools\MSVC\14.43.34808\include\vector

; 2075 :         if (_Myfirst) { // destroy and deallocate old array

  00009	8b 46 10	 mov	 eax, DWORD PTR [esi+16]
  0000c	85 c0		 test	 eax, eax
  0000e	74 41		 je	 SHORT $LN8@CDynamicPo

; 2076 :             _STD _Destroy_range(_Myfirst, _Mylast, _Al);
; 2077 :             _ASAN_VECTOR_REMOVE;
; 2078 :             _Al.deallocate(_Myfirst, static_cast<size_type>(_Myend - _Myfirst));

  00010	8b 4e 18	 mov	 ecx, DWORD PTR [esi+24]
  00013	2b c8		 sub	 ecx, eax
; File D:\Program Files\Microsoft Visual Studio\2022\Community\VC\Tools\MSVC\14.43.34808\include\xmemory

; 981  :         _STD _Deallocate<_New_alignof<_Ty>>(_Ptr, sizeof(_Ty) * _Count);

  00015	83 e1 fc	 and	 ecx, -4			; fffffffcH

; 284  :         if (_Bytes >= _Big_allocation_threshold) {

  00018	81 f9 00 10 00
	00		 cmp	 ecx, 4096		; 00001000H
  0001e	72 12		 jb	 SHORT $LN27@CDynamicPo

; 205  :     const uintptr_t _Ptr_container   = _Ptr_user[-1];

  00020	8b 50 fc	 mov	 edx, DWORD PTR [eax-4]
  00023	83 c1 23	 add	 ecx, 35			; 00000023H

; 206  : 
; 207  :     // If the following asserts, it likely means that we are performing
; 208  :     // an aligned delete on memory coming from an unaligned allocation.
; 209  :     _STL_ASSERT(_Ptr_user[-2] == _Big_allocation_sentinel, "invalid argument");
; 210  : 
; 211  :     // Extra paranoia on aligned allocation/deallocation; ensure _Ptr_container is
; 212  :     // in range [_Min_back_shift, _Non_user_size]
; 213  : #ifdef _DEBUG
; 214  :     constexpr uintptr_t _Min_back_shift = 2 * sizeof(void*);
; 215  : #else // ^^^ defined(_DEBUG) / !defined(_DEBUG) vvv
; 216  :     constexpr uintptr_t _Min_back_shift = sizeof(void*);
; 217  : #endif // ^^^ !defined(_DEBUG) ^^^
; 218  :     const uintptr_t _Back_shift = reinterpret_cast<uintptr_t>(_Ptr) - _Ptr_container;

  00026	2b c2		 sub	 eax, edx

; 219  :     _STL_VERIFY(_Back_shift >= _Min_back_shift && _Back_shift <= _Non_user_size, "invalid argument");

  00028	83 c0 fc	 add	 eax, -4			; fffffffcH
  0002b	83 f8 1f	 cmp	 eax, 31			; 0000001fH
  0002e	77 6b		 ja	 SHORT $LN53@CDynamicPo

; 220  :     _Ptr = reinterpret_cast<void*>(_Ptr_container);

  00030	8b c2		 mov	 eax, edx
$LN27@CDynamicPo:

; 289  :         ::operator delete(_Ptr, _Bytes);

  00032	51		 push	 ecx
  00033	50		 push	 eax
  00034	e8 00 00 00 00	 call	 ??3@YAXPAXI@Z		; operator delete
; File D:\Program Files\Microsoft Visual Studio\2022\Community\VC\Tools\MSVC\14.43.34808\include\vector

; 2080 :             _Myfirst = nullptr;

  00039	c7 46 10 00 00
	00 00		 mov	 DWORD PTR [esi+16], 0
; File D:\Program Files\Microsoft Visual Studio\2022\Community\VC\Tools\MSVC\14.43.34808\include\xmemory

; 289  :         ::operator delete(_Ptr, _Bytes);

  00040	83 c4 08	 add	 esp, 8
; File D:\Program Files\Microsoft Visual Studio\2022\Community\VC\Tools\MSVC\14.43.34808\include\vector

; 2081 :             _Mylast  = nullptr;

  00043	c7 46 14 00 00
	00 00		 mov	 DWORD PTR [esi+20], 0

; 2082 :             _Myend   = nullptr;

  0004a	c7 46 18 00 00
	00 00		 mov	 DWORD PTR [esi+24], 0
$LN8@CDynamicPo:

; 2075 :         if (_Myfirst) { // destroy and deallocate old array

  00051	8b 46 04	 mov	 eax, DWORD PTR [esi+4]
  00054	85 c0		 test	 eax, eax
  00056	74 41		 je	 SHORT $LN37@CDynamicPo

; 2076 :             _STD _Destroy_range(_Myfirst, _Mylast, _Al);
; 2077 :             _ASAN_VECTOR_REMOVE;
; 2078 :             _Al.deallocate(_Myfirst, static_cast<size_type>(_Myend - _Myfirst));

  00058	8b 4e 0c	 mov	 ecx, DWORD PTR [esi+12]
  0005b	2b c8		 sub	 ecx, eax
; File D:\Program Files\Microsoft Visual Studio\2022\Community\VC\Tools\MSVC\14.43.34808\include\xmemory

; 981  :         _STD _Deallocate<_New_alignof<_Ty>>(_Ptr, sizeof(_Ty) * _Count);

  0005d	83 e1 fc	 and	 ecx, -4			; fffffffcH

; 284  :         if (_Bytes >= _Big_allocation_threshold) {

  00060	81 f9 00 10 00
	00		 cmp	 ecx, 4096		; 00001000H
  00066	72 12		 jb	 SHORT $LN56@CDynamicPo

; 205  :     const uintptr_t _Ptr_container   = _Ptr_user[-1];

  00068	8b 50 fc	 mov	 edx, DWORD PTR [eax-4]
  0006b	83 c1 23	 add	 ecx, 35			; 00000023H

; 206  : 
; 207  :     // If the following asserts, it likely means that we are performing
; 208  :     // an aligned delete on memory coming from an unaligned allocation.
; 209  :     _STL_ASSERT(_Ptr_user[-2] == _Big_allocation_sentinel, "invalid argument");
; 210  : 
; 211  :     // Extra paranoia on aligned allocation/deallocation; ensure _Ptr_container is
; 212  :     // in range [_Min_back_shift, _Non_user_size]
; 213  : #ifdef _DEBUG
; 214  :     constexpr uintptr_t _Min_back_shift = 2 * sizeof(void*);
; 215  : #else // ^^^ defined(_DEBUG) / !defined(_DEBUG) vvv
; 216  :     constexpr uintptr_t _Min_back_shift = sizeof(void*);
; 217  : #endif // ^^^ !defined(_DEBUG) ^^^
; 218  :     const uintptr_t _Back_shift = reinterpret_cast<uintptr_t>(_Ptr) - _Ptr_container;

  0006e	2b c2		 sub	 eax, edx

; 219  :     _STL_VERIFY(_Back_shift >= _Min_back_shift && _Back_shift <= _Non_user_size, "invalid argument");

  00070	83 c0 fc	 add	 eax, -4			; fffffffcH
  00073	83 f8 1f	 cmp	 eax, 31			; 0000001fH
  00076	77 23		 ja	 SHORT $LN53@CDynamicPo

; 220  :     _Ptr = reinterpret_cast<void*>(_Ptr_container);

  00078	8b c2		 mov	 eax, edx
$LN56@CDynamicPo:

; 289  :         ::operator delete(_Ptr, _Bytes);

  0007a	51		 push	 ecx
  0007b	50		 push	 eax
  0007c	e8 00 00 00 00	 call	 ??3@YAXPAXI@Z		; operator delete
; File D:\Program Files\Microsoft Visual Studio\2022\Community\VC\Tools\MSVC\14.43.34808\include\vector

; 2080 :             _Myfirst = nullptr;

  00081	c7 46 04 00 00
	00 00		 mov	 DWORD PTR [esi+4], 0
; File D:\Program Files\Microsoft Visual Studio\2022\Community\VC\Tools\MSVC\14.43.34808\include\xmemory

; 289  :         ::operator delete(_Ptr, _Bytes);

  00088	83 c4 08	 add	 esp, 8
; File D:\Program Files\Microsoft Visual Studio\2022\Community\VC\Tools\MSVC\14.43.34808\include\vector

; 2081 :             _Mylast  = nullptr;

  0008b	c7 46 08 00 00
	00 00		 mov	 DWORD PTR [esi+8], 0

; 2082 :             _Myend   = nullptr;

  00092	c7 46 0c 00 00
	00 00		 mov	 DWORD PTR [esi+12], 0
$LN37@CDynamicPo:
  00099	5e		 pop	 esi
; File C:\Marty 5.5\Src-Client\Client\EterLib\Pool.h

; 26   : 		}

  0009a	c3		 ret	 0
$LN53@CDynamicPo:
; File D:\Program Files\Microsoft Visual Studio\2022\Community\VC\Tools\MSVC\14.43.34808\include\xmemory

; 219  :     _STL_VERIFY(_Back_shift >= _Min_back_shift && _Back_shift <= _Non_user_size, "invalid argument");

  0009b	e8 00 00 00 00	 call	 __invalid_parameter_noinfo_noreturn
$LN67@CDynamicPo:
  000a0	cc		 int	 3
??1?$CDynamicPool@VCPlaneCollisionInstance@@@@UAE@XZ ENDP ; CDynamicPool<CPlaneCollisionInstance>::~CDynamicPool<CPlaneCollisionInstance>
_TEXT	ENDS
; Function compile flags: /Ogtp
;	COMDAT ??__Fgs_cci@@YAXXZ
text$yd	SEGMENT
??__Fgs_cci@@YAXXZ PROC					; `dynamic atexit destructor for 'gs_cci'', COMDAT
  00000	b9 00 00 00 00	 mov	 ecx, OFFSET ?gs_cci@@3V?$CDynamicPool@VCCylinderCollisionInstance@@@@A ; gs_cci
  00005	e9 00 00 00 00	 jmp	 ??1?$CDynamicPool@VCCylinderCollisionInstance@@@@UAE@XZ ; CDynamicPool<CCylinderCollisionInstance>::~CDynamicPool<CCylinderCollisionInstance>
??__Fgs_cci@@YAXXZ ENDP					; `dynamic atexit destructor for 'gs_cci''
text$yd	ENDS
; Function compile flags: /Ogtp
; File C:\Marty 5.5\Src-Client\Client\EterLib\CollisionData.cpp
;	COMDAT ??__Egs_cci@@YAXXZ
text$di	SEGMENT
??__Egs_cci@@YAXXZ PROC					; `dynamic initializer for 'gs_cci'', COMDAT

; 19   : CDynamicPool<CCylinderCollisionInstance> gs_cci;

  00000	68 00 00 00 00	 push	 OFFSET ??__Fgs_cci@@YAXXZ ; `dynamic atexit destructor for 'gs_cci''
  00005	e8 00 00 00 00	 call	 _atexit
  0000a	59		 pop	 ecx
  0000b	c3		 ret	 0
??__Egs_cci@@YAXXZ ENDP					; `dynamic initializer for 'gs_cci''
text$di	ENDS
; Function compile flags: /Ogtp
;	COMDAT ??_G?$CDynamicPool@VCCylinderCollisionInstance@@@@UAEPAXI@Z
_TEXT	SEGMENT
___flags$ = 8						; size = 4
??_G?$CDynamicPool@VCCylinderCollisionInstance@@@@UAEPAXI@Z PROC ; CDynamicPool<CCylinderCollisionInstance>::`scalar deleting destructor', COMDAT
; _this$ = ecx
  00000	55		 push	 ebp
  00001	8b ec		 mov	 ebp, esp
  00003	56		 push	 esi
  00004	8b f1		 mov	 esi, ecx
  00006	e8 00 00 00 00	 call	 ??1?$CDynamicPool@VCCylinderCollisionInstance@@@@UAE@XZ ; CDynamicPool<CCylinderCollisionInstance>::~CDynamicPool<CCylinderCollisionInstance>
  0000b	f6 45 08 01	 test	 BYTE PTR ___flags$[ebp], 1
  0000f	74 0b		 je	 SHORT $LN5@scalar
  00011	6a 24		 push	 36			; 00000024H
  00013	56		 push	 esi
  00014	e8 00 00 00 00	 call	 ??3@YAXPAXI@Z		; operator delete
  00019	83 c4 08	 add	 esp, 8
$LN5@scalar:
  0001c	8b c6		 mov	 eax, esi
  0001e	5e		 pop	 esi
  0001f	5d		 pop	 ebp
  00020	c2 04 00	 ret	 4
??_G?$CDynamicPool@VCCylinderCollisionInstance@@@@UAEPAXI@Z ENDP ; CDynamicPool<CCylinderCollisionInstance>::`scalar deleting destructor'
_TEXT	ENDS
; Function compile flags: /Ogtp
; File D:\Program Files\Microsoft Visual Studio\2022\Community\VC\Tools\MSVC\14.43.34808\include\vector
;	COMDAT ?_Xlength@?$vector@PAVCCylinderCollisionInstance@@V?$allocator@PAVCCylinderCollisionInstance@@@std@@@std@@CAXXZ
_TEXT	SEGMENT
?_Xlength@?$vector@PAVCCylinderCollisionInstance@@V?$allocator@PAVCCylinderCollisionInstance@@@std@@@std@@CAXXZ PROC ; std::vector<CCylinderCollisionInstance *,std::allocator<CCylinderCollisionInstance *> >::_Xlength, COMDAT

; 2169 :         _Xlength_error("vector too long");

  00000	68 00 00 00 00	 push	 OFFSET ??_C@_0BA@FOIKENOD@vector?5too?5long@
  00005	e8 00 00 00 00	 call	 ?_Xlength_error@std@@YAXPBD@Z ; std::_Xlength_error
$LN3@Xlength:
  0000a	cc		 int	 3
?_Xlength@?$vector@PAVCCylinderCollisionInstance@@V?$allocator@PAVCCylinderCollisionInstance@@@std@@@std@@CAXXZ ENDP ; std::vector<CCylinderCollisionInstance *,std::allocator<CCylinderCollisionInstance *> >::_Xlength
_TEXT	ENDS
; Function compile flags: /Ogtp
; File C:\Marty 5.5\Src-Client\Client\EterLib\Pool.h
; File D:\Program Files\Microsoft Visual Studio\2022\Community\VC\Tools\MSVC\14.43.34808\include\vector
; File D:\Program Files\Microsoft Visual Studio\2022\Community\VC\Tools\MSVC\14.43.34808\include\xmemory
; File D:\Program Files\Microsoft Visual Studio\2022\Community\VC\Tools\MSVC\14.43.34808\include\vector
; File D:\Program Files\Microsoft Visual Studio\2022\Community\VC\Tools\MSVC\14.43.34808\include\xmemory
; File D:\Program Files\Microsoft Visual Studio\2022\Community\VC\Tools\MSVC\14.43.34808\include\vector
; File D:\Program Files\Microsoft Visual Studio\2022\Community\VC\Tools\MSVC\14.43.34808\include\xmemory
; File D:\Program Files\Microsoft Visual Studio\2022\Community\VC\Tools\MSVC\14.43.34808\include\vector
; File D:\Program Files\Microsoft Visual Studio\2022\Community\VC\Tools\MSVC\14.43.34808\include\xmemory
; File D:\Program Files\Microsoft Visual Studio\2022\Community\VC\Tools\MSVC\14.43.34808\include\vector
; File C:\Marty 5.5\Src-Client\Client\EterLib\Pool.h
; File D:\Program Files\Microsoft Visual Studio\2022\Community\VC\Tools\MSVC\14.43.34808\include\xmemory
; File C:\Marty 5.5\Src-Client\Client\EterLib\Pool.h
;	COMDAT ??1?$CDynamicPool@VCCylinderCollisionInstance@@@@UAE@XZ
_TEXT	SEGMENT
??1?$CDynamicPool@VCCylinderCollisionInstance@@@@UAE@XZ PROC ; CDynamicPool<CCylinderCollisionInstance>::~CDynamicPool<CCylinderCollisionInstance>, COMDAT
; _this$ = ecx

; 18   : 		{

  00000	56		 push	 esi
  00001	8b f1		 mov	 esi, ecx
  00003	c7 06 00 00 00
	00		 mov	 DWORD PTR [esi], OFFSET ??_7?$CDynamicPool@VCCylinderCollisionInstance@@@@6B@
; File D:\Program Files\Microsoft Visual Studio\2022\Community\VC\Tools\MSVC\14.43.34808\include\vector

; 2075 :         if (_Myfirst) { // destroy and deallocate old array

  00009	8b 46 10	 mov	 eax, DWORD PTR [esi+16]
  0000c	85 c0		 test	 eax, eax
  0000e	74 41		 je	 SHORT $LN8@CDynamicPo

; 2076 :             _STD _Destroy_range(_Myfirst, _Mylast, _Al);
; 2077 :             _ASAN_VECTOR_REMOVE;
; 2078 :             _Al.deallocate(_Myfirst, static_cast<size_type>(_Myend - _Myfirst));

  00010	8b 4e 18	 mov	 ecx, DWORD PTR [esi+24]
  00013	2b c8		 sub	 ecx, eax
; File D:\Program Files\Microsoft Visual Studio\2022\Community\VC\Tools\MSVC\14.43.34808\include\xmemory

; 981  :         _STD _Deallocate<_New_alignof<_Ty>>(_Ptr, sizeof(_Ty) * _Count);

  00015	83 e1 fc	 and	 ecx, -4			; fffffffcH

; 284  :         if (_Bytes >= _Big_allocation_threshold) {

  00018	81 f9 00 10 00
	00		 cmp	 ecx, 4096		; 00001000H
  0001e	72 12		 jb	 SHORT $LN27@CDynamicPo

; 205  :     const uintptr_t _Ptr_container   = _Ptr_user[-1];

  00020	8b 50 fc	 mov	 edx, DWORD PTR [eax-4]
  00023	83 c1 23	 add	 ecx, 35			; 00000023H

; 206  : 
; 207  :     // If the following asserts, it likely means that we are performing
; 208  :     // an aligned delete on memory coming from an unaligned allocation.
; 209  :     _STL_ASSERT(_Ptr_user[-2] == _Big_allocation_sentinel, "invalid argument");
; 210  : 
; 211  :     // Extra paranoia on aligned allocation/deallocation; ensure _Ptr_container is
; 212  :     // in range [_Min_back_shift, _Non_user_size]
; 213  : #ifdef _DEBUG
; 214  :     constexpr uintptr_t _Min_back_shift = 2 * sizeof(void*);
; 215  : #else // ^^^ defined(_DEBUG) / !defined(_DEBUG) vvv
; 216  :     constexpr uintptr_t _Min_back_shift = sizeof(void*);
; 217  : #endif // ^^^ !defined(_DEBUG) ^^^
; 218  :     const uintptr_t _Back_shift = reinterpret_cast<uintptr_t>(_Ptr) - _Ptr_container;

  00026	2b c2		 sub	 eax, edx

; 219  :     _STL_VERIFY(_Back_shift >= _Min_back_shift && _Back_shift <= _Non_user_size, "invalid argument");

  00028	83 c0 fc	 add	 eax, -4			; fffffffcH
  0002b	83 f8 1f	 cmp	 eax, 31			; 0000001fH
  0002e	77 6b		 ja	 SHORT $LN53@CDynamicPo

; 220  :     _Ptr = reinterpret_cast<void*>(_Ptr_container);

  00030	8b c2		 mov	 eax, edx
$LN27@CDynamicPo:

; 289  :         ::operator delete(_Ptr, _Bytes);

  00032	51		 push	 ecx
  00033	50		 push	 eax
  00034	e8 00 00 00 00	 call	 ??3@YAXPAXI@Z		; operator delete
; File D:\Program Files\Microsoft Visual Studio\2022\Community\VC\Tools\MSVC\14.43.34808\include\vector

; 2080 :             _Myfirst = nullptr;

  00039	c7 46 10 00 00
	00 00		 mov	 DWORD PTR [esi+16], 0
; File D:\Program Files\Microsoft Visual Studio\2022\Community\VC\Tools\MSVC\14.43.34808\include\xmemory

; 289  :         ::operator delete(_Ptr, _Bytes);

  00040	83 c4 08	 add	 esp, 8
; File D:\Program Files\Microsoft Visual Studio\2022\Community\VC\Tools\MSVC\14.43.34808\include\vector

; 2081 :             _Mylast  = nullptr;

  00043	c7 46 14 00 00
	00 00		 mov	 DWORD PTR [esi+20], 0

; 2082 :             _Myend   = nullptr;

  0004a	c7 46 18 00 00
	00 00		 mov	 DWORD PTR [esi+24], 0
$LN8@CDynamicPo:

; 2075 :         if (_Myfirst) { // destroy and deallocate old array

  00051	8b 46 04	 mov	 eax, DWORD PTR [esi+4]
  00054	85 c0		 test	 eax, eax
  00056	74 41		 je	 SHORT $LN37@CDynamicPo

; 2076 :             _STD _Destroy_range(_Myfirst, _Mylast, _Al);
; 2077 :             _ASAN_VECTOR_REMOVE;
; 2078 :             _Al.deallocate(_Myfirst, static_cast<size_type>(_Myend - _Myfirst));

  00058	8b 4e 0c	 mov	 ecx, DWORD PTR [esi+12]
  0005b	2b c8		 sub	 ecx, eax
; File D:\Program Files\Microsoft Visual Studio\2022\Community\VC\Tools\MSVC\14.43.34808\include\xmemory

; 981  :         _STD _Deallocate<_New_alignof<_Ty>>(_Ptr, sizeof(_Ty) * _Count);

  0005d	83 e1 fc	 and	 ecx, -4			; fffffffcH

; 284  :         if (_Bytes >= _Big_allocation_threshold) {

  00060	81 f9 00 10 00
	00		 cmp	 ecx, 4096		; 00001000H
  00066	72 12		 jb	 SHORT $LN56@CDynamicPo

; 205  :     const uintptr_t _Ptr_container   = _Ptr_user[-1];

  00068	8b 50 fc	 mov	 edx, DWORD PTR [eax-4]
  0006b	83 c1 23	 add	 ecx, 35			; 00000023H

; 206  : 
; 207  :     // If the following asserts, it likely means that we are performing
; 208  :     // an aligned delete on memory coming from an unaligned allocation.
; 209  :     _STL_ASSERT(_Ptr_user[-2] == _Big_allocation_sentinel, "invalid argument");
; 210  : 
; 211  :     // Extra paranoia on aligned allocation/deallocation; ensure _Ptr_container is
; 212  :     // in range [_Min_back_shift, _Non_user_size]
; 213  : #ifdef _DEBUG
; 214  :     constexpr uintptr_t _Min_back_shift = 2 * sizeof(void*);
; 215  : #else // ^^^ defined(_DEBUG) / !defined(_DEBUG) vvv
; 216  :     constexpr uintptr_t _Min_back_shift = sizeof(void*);
; 217  : #endif // ^^^ !defined(_DEBUG) ^^^
; 218  :     const uintptr_t _Back_shift = reinterpret_cast<uintptr_t>(_Ptr) - _Ptr_container;

  0006e	2b c2		 sub	 eax, edx

; 219  :     _STL_VERIFY(_Back_shift >= _Min_back_shift && _Back_shift <= _Non_user_size, "invalid argument");

  00070	83 c0 fc	 add	 eax, -4			; fffffffcH
  00073	83 f8 1f	 cmp	 eax, 31			; 0000001fH
  00076	77 23		 ja	 SHORT $LN53@CDynamicPo

; 220  :     _Ptr = reinterpret_cast<void*>(_Ptr_container);

  00078	8b c2		 mov	 eax, edx
$LN56@CDynamicPo:

; 289  :         ::operator delete(_Ptr, _Bytes);

  0007a	51		 push	 ecx
  0007b	50		 push	 eax
  0007c	e8 00 00 00 00	 call	 ??3@YAXPAXI@Z		; operator delete
; File D:\Program Files\Microsoft Visual Studio\2022\Community\VC\Tools\MSVC\14.43.34808\include\vector

; 2080 :             _Myfirst = nullptr;

  00081	c7 46 04 00 00
	00 00		 mov	 DWORD PTR [esi+4], 0
; File D:\Program Files\Microsoft Visual Studio\2022\Community\VC\Tools\MSVC\14.43.34808\include\xmemory

; 289  :         ::operator delete(_Ptr, _Bytes);

  00088	83 c4 08	 add	 esp, 8
; File D:\Program Files\Microsoft Visual Studio\2022\Community\VC\Tools\MSVC\14.43.34808\include\vector

; 2081 :             _Mylast  = nullptr;

  0008b	c7 46 08 00 00
	00 00		 mov	 DWORD PTR [esi+8], 0

; 2082 :             _Myend   = nullptr;

  00092	c7 46 0c 00 00
	00 00		 mov	 DWORD PTR [esi+12], 0
$LN37@CDynamicPo:
  00099	5e		 pop	 esi
; File C:\Marty 5.5\Src-Client\Client\EterLib\Pool.h

; 26   : 		}

  0009a	c3		 ret	 0
$LN53@CDynamicPo:
; File D:\Program Files\Microsoft Visual Studio\2022\Community\VC\Tools\MSVC\14.43.34808\include\xmemory

; 219  :     _STL_VERIFY(_Back_shift >= _Min_back_shift && _Back_shift <= _Non_user_size, "invalid argument");

  0009b	e8 00 00 00 00	 call	 __invalid_parameter_noinfo_noreturn
$LN67@CDynamicPo:
  000a0	cc		 int	 3
??1?$CDynamicPool@VCCylinderCollisionInstance@@@@UAE@XZ ENDP ; CDynamicPool<CCylinderCollisionInstance>::~CDynamicPool<CCylinderCollisionInstance>
_TEXT	ENDS
; Function compile flags: /Ogtp
;	COMDAT ??__Fgs_sci@@YAXXZ
text$yd	SEGMENT
??__Fgs_sci@@YAXXZ PROC					; `dynamic atexit destructor for 'gs_sci'', COMDAT
  00000	b9 00 00 00 00	 mov	 ecx, OFFSET ?gs_sci@@3V?$CDynamicPool@VCSphereCollisionInstance@@@@A ; gs_sci
  00005	e9 00 00 00 00	 jmp	 ??1?$CDynamicPool@VCSphereCollisionInstance@@@@UAE@XZ ; CDynamicPool<CSphereCollisionInstance>::~CDynamicPool<CSphereCollisionInstance>
??__Fgs_sci@@YAXXZ ENDP					; `dynamic atexit destructor for 'gs_sci''
text$yd	ENDS
; Function compile flags: /Ogtp
; File C:\Marty 5.5\Src-Client\Client\EterLib\CollisionData.cpp
;	COMDAT ??__Egs_sci@@YAXXZ
text$di	SEGMENT
??__Egs_sci@@YAXXZ PROC					; `dynamic initializer for 'gs_sci'', COMDAT

; 18   : CDynamicPool<CSphereCollisionInstance> gs_sci;

  00000	68 00 00 00 00	 push	 OFFSET ??__Fgs_sci@@YAXXZ ; `dynamic atexit destructor for 'gs_sci''
  00005	e8 00 00 00 00	 call	 _atexit
  0000a	59		 pop	 ecx
  0000b	c3		 ret	 0
??__Egs_sci@@YAXXZ ENDP					; `dynamic initializer for 'gs_sci''
text$di	ENDS
; Function compile flags: /Ogtp
;	COMDAT ??_G?$CDynamicPool@VCSphereCollisionInstance@@@@UAEPAXI@Z
_TEXT	SEGMENT
___flags$ = 8						; size = 4
??_G?$CDynamicPool@VCSphereCollisionInstance@@@@UAEPAXI@Z PROC ; CDynamicPool<CSphereCollisionInstance>::`scalar deleting destructor', COMDAT
; _this$ = ecx
  00000	55		 push	 ebp
  00001	8b ec		 mov	 ebp, esp
  00003	56		 push	 esi
  00004	8b f1		 mov	 esi, ecx
  00006	e8 00 00 00 00	 call	 ??1?$CDynamicPool@VCSphereCollisionInstance@@@@UAE@XZ ; CDynamicPool<CSphereCollisionInstance>::~CDynamicPool<CSphereCollisionInstance>
  0000b	f6 45 08 01	 test	 BYTE PTR ___flags$[ebp], 1
  0000f	74 0b		 je	 SHORT $LN5@scalar
  00011	6a 24		 push	 36			; 00000024H
  00013	56		 push	 esi
  00014	e8 00 00 00 00	 call	 ??3@YAXPAXI@Z		; operator delete
  00019	83 c4 08	 add	 esp, 8
$LN5@scalar:
  0001c	8b c6		 mov	 eax, esi
  0001e	5e		 pop	 esi
  0001f	5d		 pop	 ebp
  00020	c2 04 00	 ret	 4
??_G?$CDynamicPool@VCSphereCollisionInstance@@@@UAEPAXI@Z ENDP ; CDynamicPool<CSphereCollisionInstance>::`scalar deleting destructor'
_TEXT	ENDS
; Function compile flags: /Ogtp
; File D:\Program Files\Microsoft Visual Studio\2022\Community\VC\Tools\MSVC\14.43.34808\include\vector
;	COMDAT ?_Xlength@?$vector@PAVCSphereCollisionInstance@@V?$allocator@PAVCSphereCollisionInstance@@@std@@@std@@CAXXZ
_TEXT	SEGMENT
?_Xlength@?$vector@PAVCSphereCollisionInstance@@V?$allocator@PAVCSphereCollisionInstance@@@std@@@std@@CAXXZ PROC ; std::vector<CSphereCollisionInstance *,std::allocator<CSphereCollisionInstance *> >::_Xlength, COMDAT

; 2169 :         _Xlength_error("vector too long");

  00000	68 00 00 00 00	 push	 OFFSET ??_C@_0BA@FOIKENOD@vector?5too?5long@
  00005	e8 00 00 00 00	 call	 ?_Xlength_error@std@@YAXPBD@Z ; std::_Xlength_error
$LN3@Xlength:
  0000a	cc		 int	 3
?_Xlength@?$vector@PAVCSphereCollisionInstance@@V?$allocator@PAVCSphereCollisionInstance@@@std@@@std@@CAXXZ ENDP ; std::vector<CSphereCollisionInstance *,std::allocator<CSphereCollisionInstance *> >::_Xlength
_TEXT	ENDS
; Function compile flags: /Ogtp
; File C:\Marty 5.5\Src-Client\Client\EterLib\Pool.h
; File D:\Program Files\Microsoft Visual Studio\2022\Community\VC\Tools\MSVC\14.43.34808\include\vector
; File D:\Program Files\Microsoft Visual Studio\2022\Community\VC\Tools\MSVC\14.43.34808\include\xmemory
; File D:\Program Files\Microsoft Visual Studio\2022\Community\VC\Tools\MSVC\14.43.34808\include\vector
; File D:\Program Files\Microsoft Visual Studio\2022\Community\VC\Tools\MSVC\14.43.34808\include\xmemory
; File D:\Program Files\Microsoft Visual Studio\2022\Community\VC\Tools\MSVC\14.43.34808\include\vector
; File D:\Program Files\Microsoft Visual Studio\2022\Community\VC\Tools\MSVC\14.43.34808\include\xmemory
; File D:\Program Files\Microsoft Visual Studio\2022\Community\VC\Tools\MSVC\14.43.34808\include\vector
; File D:\Program Files\Microsoft Visual Studio\2022\Community\VC\Tools\MSVC\14.43.34808\include\xmemory
; File D:\Program Files\Microsoft Visual Studio\2022\Community\VC\Tools\MSVC\14.43.34808\include\vector
; File C:\Marty 5.5\Src-Client\Client\EterLib\Pool.h
; File D:\Program Files\Microsoft Visual Studio\2022\Community\VC\Tools\MSVC\14.43.34808\include\xmemory
; File C:\Marty 5.5\Src-Client\Client\EterLib\Pool.h
;	COMDAT ??1?$CDynamicPool@VCSphereCollisionInstance@@@@UAE@XZ
_TEXT	SEGMENT
??1?$CDynamicPool@VCSphereCollisionInstance@@@@UAE@XZ PROC ; CDynamicPool<CSphereCollisionInstance>::~CDynamicPool<CSphereCollisionInstance>, COMDAT
; _this$ = ecx

; 18   : 		{

  00000	56		 push	 esi
  00001	8b f1		 mov	 esi, ecx
  00003	c7 06 00 00 00
	00		 mov	 DWORD PTR [esi], OFFSET ??_7?$CDynamicPool@VCSphereCollisionInstance@@@@6B@
; File D:\Program Files\Microsoft Visual Studio\2022\Community\VC\Tools\MSVC\14.43.34808\include\vector

; 2075 :         if (_Myfirst) { // destroy and deallocate old array

  00009	8b 46 10	 mov	 eax, DWORD PTR [esi+16]
  0000c	85 c0		 test	 eax, eax
  0000e	74 41		 je	 SHORT $LN8@CDynamicPo

; 2076 :             _STD _Destroy_range(_Myfirst, _Mylast, _Al);
; 2077 :             _ASAN_VECTOR_REMOVE;
; 2078 :             _Al.deallocate(_Myfirst, static_cast<size_type>(_Myend - _Myfirst));

  00010	8b 4e 18	 mov	 ecx, DWORD PTR [esi+24]
  00013	2b c8		 sub	 ecx, eax
; File D:\Program Files\Microsoft Visual Studio\2022\Community\VC\Tools\MSVC\14.43.34808\include\xmemory

; 981  :         _STD _Deallocate<_New_alignof<_Ty>>(_Ptr, sizeof(_Ty) * _Count);

  00015	83 e1 fc	 and	 ecx, -4			; fffffffcH

; 284  :         if (_Bytes >= _Big_allocation_threshold) {

  00018	81 f9 00 10 00
	00		 cmp	 ecx, 4096		; 00001000H
  0001e	72 12		 jb	 SHORT $LN27@CDynamicPo

; 205  :     const uintptr_t _Ptr_container   = _Ptr_user[-1];

  00020	8b 50 fc	 mov	 edx, DWORD PTR [eax-4]
  00023	83 c1 23	 add	 ecx, 35			; 00000023H

; 206  : 
; 207  :     // If the following asserts, it likely means that we are performing
; 208  :     // an aligned delete on memory coming from an unaligned allocation.
; 209  :     _STL_ASSERT(_Ptr_user[-2] == _Big_allocation_sentinel, "invalid argument");
; 210  : 
; 211  :     // Extra paranoia on aligned allocation/deallocation; ensure _Ptr_container is
; 212  :     // in range [_Min_back_shift, _Non_user_size]
; 213  : #ifdef _DEBUG
; 214  :     constexpr uintptr_t _Min_back_shift = 2 * sizeof(void*);
; 215  : #else // ^^^ defined(_DEBUG) / !defined(_DEBUG) vvv
; 216  :     constexpr uintptr_t _Min_back_shift = sizeof(void*);
; 217  : #endif // ^^^ !defined(_DEBUG) ^^^
; 218  :     const uintptr_t _Back_shift = reinterpret_cast<uintptr_t>(_Ptr) - _Ptr_container;

  00026	2b c2		 sub	 eax, edx

; 219  :     _STL_VERIFY(_Back_shift >= _Min_back_shift && _Back_shift <= _Non_user_size, "invalid argument");

  00028	83 c0 fc	 add	 eax, -4			; fffffffcH
  0002b	83 f8 1f	 cmp	 eax, 31			; 0000001fH
  0002e	77 6b		 ja	 SHORT $LN53@CDynamicPo

; 220  :     _Ptr = reinterpret_cast<void*>(_Ptr_container);

  00030	8b c2		 mov	 eax, edx
$LN27@CDynamicPo:

; 289  :         ::operator delete(_Ptr, _Bytes);

  00032	51		 push	 ecx
  00033	50		 push	 eax
  00034	e8 00 00 00 00	 call	 ??3@YAXPAXI@Z		; operator delete
; File D:\Program Files\Microsoft Visual Studio\2022\Community\VC\Tools\MSVC\14.43.34808\include\vector

; 2080 :             _Myfirst = nullptr;

  00039	c7 46 10 00 00
	00 00		 mov	 DWORD PTR [esi+16], 0
; File D:\Program Files\Microsoft Visual Studio\2022\Community\VC\Tools\MSVC\14.43.34808\include\xmemory

; 289  :         ::operator delete(_Ptr, _Bytes);

  00040	83 c4 08	 add	 esp, 8
; File D:\Program Files\Microsoft Visual Studio\2022\Community\VC\Tools\MSVC\14.43.34808\include\vector

; 2081 :             _Mylast  = nullptr;

  00043	c7 46 14 00 00
	00 00		 mov	 DWORD PTR [esi+20], 0

; 2082 :             _Myend   = nullptr;

  0004a	c7 46 18 00 00
	00 00		 mov	 DWORD PTR [esi+24], 0
$LN8@CDynamicPo:

; 2075 :         if (_Myfirst) { // destroy and deallocate old array

  00051	8b 46 04	 mov	 eax, DWORD PTR [esi+4]
  00054	85 c0		 test	 eax, eax
  00056	74 41		 je	 SHORT $LN37@CDynamicPo

; 2076 :             _STD _Destroy_range(_Myfirst, _Mylast, _Al);
; 2077 :             _ASAN_VECTOR_REMOVE;
; 2078 :             _Al.deallocate(_Myfirst, static_cast<size_type>(_Myend - _Myfirst));

  00058	8b 4e 0c	 mov	 ecx, DWORD PTR [esi+12]
  0005b	2b c8		 sub	 ecx, eax
; File D:\Program Files\Microsoft Visual Studio\2022\Community\VC\Tools\MSVC\14.43.34808\include\xmemory

; 981  :         _STD _Deallocate<_New_alignof<_Ty>>(_Ptr, sizeof(_Ty) * _Count);

  0005d	83 e1 fc	 and	 ecx, -4			; fffffffcH

; 284  :         if (_Bytes >= _Big_allocation_threshold) {

  00060	81 f9 00 10 00
	00		 cmp	 ecx, 4096		; 00001000H
  00066	72 12		 jb	 SHORT $LN56@CDynamicPo

; 205  :     const uintptr_t _Ptr_container   = _Ptr_user[-1];

  00068	8b 50 fc	 mov	 edx, DWORD PTR [eax-4]
  0006b	83 c1 23	 add	 ecx, 35			; 00000023H

; 206  : 
; 207  :     // If the following asserts, it likely means that we are performing
; 208  :     // an aligned delete on memory coming from an unaligned allocation.
; 209  :     _STL_ASSERT(_Ptr_user[-2] == _Big_allocation_sentinel, "invalid argument");
; 210  : 
; 211  :     // Extra paranoia on aligned allocation/deallocation; ensure _Ptr_container is
; 212  :     // in range [_Min_back_shift, _Non_user_size]
; 213  : #ifdef _DEBUG
; 214  :     constexpr uintptr_t _Min_back_shift = 2 * sizeof(void*);
; 215  : #else // ^^^ defined(_DEBUG) / !defined(_DEBUG) vvv
; 216  :     constexpr uintptr_t _Min_back_shift = sizeof(void*);
; 217  : #endif // ^^^ !defined(_DEBUG) ^^^
; 218  :     const uintptr_t _Back_shift = reinterpret_cast<uintptr_t>(_Ptr) - _Ptr_container;

  0006e	2b c2		 sub	 eax, edx

; 219  :     _STL_VERIFY(_Back_shift >= _Min_back_shift && _Back_shift <= _Non_user_size, "invalid argument");

  00070	83 c0 fc	 add	 eax, -4			; fffffffcH
  00073	83 f8 1f	 cmp	 eax, 31			; 0000001fH
  00076	77 23		 ja	 SHORT $LN53@CDynamicPo

; 220  :     _Ptr = reinterpret_cast<void*>(_Ptr_container);

  00078	8b c2		 mov	 eax, edx
$LN56@CDynamicPo:

; 289  :         ::operator delete(_Ptr, _Bytes);

  0007a	51		 push	 ecx
  0007b	50		 push	 eax
  0007c	e8 00 00 00 00	 call	 ??3@YAXPAXI@Z		; operator delete
; File D:\Program Files\Microsoft Visual Studio\2022\Community\VC\Tools\MSVC\14.43.34808\include\vector

; 2080 :             _Myfirst = nullptr;

  00081	c7 46 04 00 00
	00 00		 mov	 DWORD PTR [esi+4], 0
; File D:\Program Files\Microsoft Visual Studio\2022\Community\VC\Tools\MSVC\14.43.34808\include\xmemory

; 289  :         ::operator delete(_Ptr, _Bytes);

  00088	83 c4 08	 add	 esp, 8
; File D:\Program Files\Microsoft Visual Studio\2022\Community\VC\Tools\MSVC\14.43.34808\include\vector

; 2081 :             _Mylast  = nullptr;

  0008b	c7 46 08 00 00
	00 00		 mov	 DWORD PTR [esi+8], 0

; 2082 :             _Myend   = nullptr;

  00092	c7 46 0c 00 00
	00 00		 mov	 DWORD PTR [esi+12], 0
$LN37@CDynamicPo:
  00099	5e		 pop	 esi
; File C:\Marty 5.5\Src-Client\Client\EterLib\Pool.h

; 26   : 		}

  0009a	c3		 ret	 0
$LN53@CDynamicPo:
; File D:\Program Files\Microsoft Visual Studio\2022\Community\VC\Tools\MSVC\14.43.34808\include\xmemory

; 219  :     _STL_VERIFY(_Back_shift >= _Min_back_shift && _Back_shift <= _Non_user_size, "invalid argument");

  0009b	e8 00 00 00 00	 call	 __invalid_parameter_noinfo_noreturn
$LN67@CDynamicPo:
  000a0	cc		 int	 3
??1?$CDynamicPool@VCSphereCollisionInstance@@@@UAE@XZ ENDP ; CDynamicPool<CSphereCollisionInstance>::~CDynamicPool<CSphereCollisionInstance>
_TEXT	ENDS
; Function compile flags: /Ogtp
; File C:\Marty 5.5\Src-Client\Client\EterLib\GrpMath.h
; File C:\Marty 5.5\Src-Client\extern\include\d3dx8math.inl
; File C:\Marty 5.5\Src-Client\Client\EterLib\GrpMath.h
; File C:\Marty 5.5\Src-Client\extern\include\d3dx8math.inl
; File C:\Marty 5.5\Src-Client\Client\EterLib\GrpMath.h
; File C:\Marty 5.5\Src-Client\extern\include\d3dx8math.inl
; File C:\Marty 5.5\Src-Client\Client\EterLib\GrpMath.h
; File C:\Marty 5.5\Src-Client\extern\include\d3dx8math.inl
; File C:\Marty 5.5\Src-Client\Client\EterLib\GrpMath.h
;	COMDAT ?square_distance_between_linesegment_and_point@@YAMABUD3DXVECTOR3@@00@Z
_TEXT	SEGMENT
_l$1$ = -8						; size = 4
tv863 = -4						; size = 4
_p1$ = 8						; size = 4
tv866 = 8						; size = 4
_p2$ = 12						; size = 4
tv869 = 12						; size = 4
tv884 = 12						; size = 4
tv908 = 12						; size = 4
tv924 = 12						; size = 4
_x$ = 16						; size = 4
?square_distance_between_linesegment_and_point@@YAMABUD3DXVECTOR3@@00@Z PROC ; square_distance_between_linesegment_and_point, COMDAT

; 81   : {

  00000	55		 push	 ebp
  00001	8b ec		 mov	 ebp, esp
  00003	83 ec 08	 sub	 esp, 8
; File C:\Marty 5.5\Src-Client\extern\include\d3dx8math.inl

; 263  :     return D3DXVECTOR3(x - v.x, y - v.y, z - v.z);

  00006	8b 45 08	 mov	 eax, DWORD PTR _p1$[ebp]
  00009	8b 4d 0c	 mov	 ecx, DWORD PTR _p2$[ebp]
  0000c	f3 0f 10 50 04	 movss	 xmm2, DWORD PTR [eax+4]
  00011	f3 0f 10 41 04	 movss	 xmm0, DWORD PTR [ecx+4]
  00016	f3 0f 10 18	 movss	 xmm3, DWORD PTR [eax]
  0001a	f3 0f 5c c2	 subss	 xmm0, xmm2
  0001e	f3 0f 10 29	 movss	 xmm5, DWORD PTR [ecx]
  00022	f3 0f 10 48 08	 movss	 xmm1, DWORD PTR [eax+8]
  00027	f3 0f 5c eb	 subss	 xmm5, xmm3
  0002b	f3 0f 10 71 08	 movss	 xmm6, DWORD PTR [ecx+8]
  00030	8b 45 10	 mov	 eax, DWORD PTR _x$[ebp]
  00033	f3 0f 5c f1	 subss	 xmm6, xmm1

; 182  :     z = fz;

  00037	0f 28 e0	 movaps	 xmm4, xmm0

; 263  :     return D3DXVECTOR3(x - v.x, y - v.y, z - v.z);

  0003a	f3 0f 11 45 08	 movss	 DWORD PTR tv866[ebp], xmm0

; 182  :     z = fz;

  0003f	f3 0f 59 e0	 mulss	 xmm4, xmm0

; 1253 :     return pV->x * pV->x + pV->y * pV->y + pV->z * pV->z;

  00043	0f 28 c5	 movaps	 xmm0, xmm5

; 263  :     return D3DXVECTOR3(x - v.x, y - v.y, z - v.z);

  00046	f3 0f 11 6d fc	 movss	 DWORD PTR tv863[ebp], xmm5

; 1253 :     return pV->x * pV->x + pV->y * pV->y + pV->z * pV->z;

  0004b	f3 0f 59 c5	 mulss	 xmm0, xmm5

; 263  :     return D3DXVECTOR3(x - v.x, y - v.y, z - v.z);

  0004f	f3 0f 10 68 04	 movss	 xmm5, DWORD PTR [eax+4]
  00054	f3 0f 10 78 08	 movss	 xmm7, DWORD PTR [eax+8]

; 1253 :     return pV->x * pV->x + pV->y * pV->y + pV->z * pV->z;

  00059	f3 0f 58 e0	 addss	 xmm4, xmm0

; 263  :     return D3DXVECTOR3(x - v.x, y - v.y, z - v.z);

  0005d	f3 0f 11 75 0c	 movss	 DWORD PTR tv869[ebp], xmm6

; 1253 :     return pV->x * pV->x + pV->y * pV->y + pV->z * pV->z;

  00062	0f 28 c6	 movaps	 xmm0, xmm6
  00065	f3 0f 59 c6	 mulss	 xmm0, xmm6

; 263  :     return D3DXVECTOR3(x - v.x, y - v.y, z - v.z);

  00069	f3 0f 10 30	 movss	 xmm6, DWORD PTR [eax]

; 1253 :     return pV->x * pV->x + pV->y * pV->y + pV->z * pV->z;

  0006d	f3 0f 58 e0	 addss	 xmm4, xmm0
  00071	f3 0f 11 65 f8	 movss	 DWORD PTR _l$1$[ebp], xmm4

; 263  :     return D3DXVECTOR3(x - v.x, y - v.y, z - v.z);

  00076	0f 28 e6	 movaps	 xmm4, xmm6
  00079	f3 0f 5c e3	 subss	 xmm4, xmm3
  0007d	0f 28 dd	 movaps	 xmm3, xmm5
  00080	f3 0f 5c da	 subss	 xmm3, xmm2
  00084	0f 28 d7	 movaps	 xmm2, xmm7
  00087	f3 0f 5c d1	 subss	 xmm2, xmm1

; 1264 :     return pV1->x * pV2->x + pV1->y * pV2->y + pV1->z * pV2->z;

  0008b	0f 28 c4	 movaps	 xmm0, xmm4
  0008e	f3 0f 59 45 fc	 mulss	 xmm0, DWORD PTR tv863[ebp]

; 182  :     z = fz;

  00093	0f 28 cb	 movaps	 xmm1, xmm3
  00096	f3 0f 59 4d 08	 mulss	 xmm1, DWORD PTR tv866[ebp]

; 1264 :     return pV1->x * pV2->x + pV1->y * pV2->y + pV1->z * pV2->z;

  0009b	f3 0f 58 c8	 addss	 xmm1, xmm0
  0009f	0f 28 c2	 movaps	 xmm0, xmm2
  000a2	f3 0f 59 45 0c	 mulss	 xmm0, DWORD PTR tv869[ebp]
  000a7	f3 0f 58 c8	 addss	 xmm1, xmm0
  000ab	0f 57 c0	 xorps	 xmm0, xmm0
; File C:\Marty 5.5\Src-Client\Client\EterLib\GrpMath.h

; 87   : 	if (d <= 0.0f)

  000ae	0f 2f c1	 comiss	 xmm0, xmm1
  000b1	72 20		 jb	 SHORT $LN2@square_dis
; File C:\Marty 5.5\Src-Client\extern\include\d3dx8math.inl

; 1253 :     return pV->x * pV->x + pV->y * pV->y + pV->z * pV->z;

  000b3	f3 0f 59 db	 mulss	 xmm3, xmm3
  000b7	f3 0f 59 e4	 mulss	 xmm4, xmm4
  000bb	f3 0f 59 d2	 mulss	 xmm2, xmm2
  000bf	f3 0f 58 dc	 addss	 xmm3, xmm4
  000c3	f3 0f 58 da	 addss	 xmm3, xmm2
; File C:\Marty 5.5\Src-Client\Client\EterLib\GrpMath.h

; 89   : 		return D3DXVec3LengthSq(&(v2));

  000c7	f3 0f 11 5d 0c	 movss	 DWORD PTR tv924[ebp], xmm3
  000cc	d9 45 0c	 fld	 DWORD PTR tv924[ebp]

; 100  : 	}
; 101  : }

  000cf	8b e5		 mov	 esp, ebp
  000d1	5d		 pop	 ebp
  000d2	c3		 ret	 0
$LN2@square_dis:

; 90   : 	}
; 91   : 	else if (d >= l)

  000d3	0f 2f 4d f8	 comiss	 xmm1, DWORD PTR _l$1$[ebp]
  000d7	72 2e		 jb	 SHORT $LN4@square_dis
; File C:\Marty 5.5\Src-Client\extern\include\d3dx8math.inl

; 263  :     return D3DXVECTOR3(x - v.x, y - v.y, z - v.z);

  000d9	f3 0f 5c 69 04	 subss	 xmm5, DWORD PTR [ecx+4]
  000de	f3 0f 5c 31	 subss	 xmm6, DWORD PTR [ecx]
  000e2	f3 0f 5c 79 08	 subss	 xmm7, DWORD PTR [ecx+8]

; 182  :     z = fz;

  000e7	f3 0f 59 ed	 mulss	 xmm5, xmm5

; 1253 :     return pV->x * pV->x + pV->y * pV->y + pV->z * pV->z;

  000eb	f3 0f 59 f6	 mulss	 xmm6, xmm6
  000ef	f3 0f 59 ff	 mulss	 xmm7, xmm7
  000f3	f3 0f 58 ee	 addss	 xmm5, xmm6
  000f7	f3 0f 58 ef	 addss	 xmm5, xmm7
; File C:\Marty 5.5\Src-Client\Client\EterLib\GrpMath.h

; 94   : 		return D3DXVec3LengthSq(&(v4));

  000fb	f3 0f 11 6d 0c	 movss	 DWORD PTR tv908[ebp], xmm5
  00100	d9 45 0c	 fld	 DWORD PTR tv908[ebp]

; 100  : 	}
; 101  : }

  00103	8b e5		 mov	 esp, ebp
  00105	5d		 pop	 ebp
  00106	c3		 ret	 0
$LN4@square_dis:
; File C:\Marty 5.5\Src-Client\extern\include\d3dx8math.inl

; 1277 :     v.x = pV1->y * pV2->z - pV1->z * pV2->y;

  00107	0f 28 c2	 movaps	 xmm0, xmm2
  0010a	0f 28 cb	 movaps	 xmm1, xmm3
  0010d	f3 0f 59 4d 0c	 mulss	 xmm1, DWORD PTR tv869[ebp]
  00112	f3 0f 59 45 08	 mulss	 xmm0, DWORD PTR tv866[ebp]
  00117	f3 0f 59 55 fc	 mulss	 xmm2, DWORD PTR tv863[ebp]

; 1279 :     v.z = pV1->x * pV2->y - pV1->y * pV2->x;

  0011c	f3 0f 59 5d fc	 mulss	 xmm3, DWORD PTR tv863[ebp]
  00121	f3 0f 5c c8	 subss	 xmm1, xmm0
  00125	0f 28 c4	 movaps	 xmm0, xmm4
  00128	f3 0f 59 65 08	 mulss	 xmm4, DWORD PTR tv866[ebp]
  0012d	f3 0f 59 45 0c	 mulss	 xmm0, DWORD PTR tv869[ebp]
  00132	f3 0f 5c e3	 subss	 xmm4, xmm3

; 1253 :     return pV->x * pV->x + pV->y * pV->y + pV->z * pV->z;

  00136	f3 0f 59 c9	 mulss	 xmm1, xmm1

; 1278 :     v.y = pV1->z * pV2->x - pV1->x * pV2->z;

  0013a	f3 0f 5c d0	 subss	 xmm2, xmm0

; 1253 :     return pV->x * pV->x + pV->y * pV->y + pV->z * pV->z;

  0013e	f3 0f 59 e4	 mulss	 xmm4, xmm4
  00142	f3 0f 59 d2	 mulss	 xmm2, xmm2
  00146	f3 0f 58 d1	 addss	 xmm2, xmm1
  0014a	f3 0f 58 d4	 addss	 xmm2, xmm4
; File C:\Marty 5.5\Src-Client\Client\EterLib\GrpMath.h

; 99   : 		return D3DXVec3LengthSq(D3DXVec3Cross(&c, &(v2), &(v3))) / l;

  0014e	f3 0f 5e 55 f8	 divss	 xmm2, DWORD PTR _l$1$[ebp]
  00153	f3 0f 11 55 0c	 movss	 DWORD PTR tv884[ebp], xmm2
  00158	d9 45 0c	 fld	 DWORD PTR tv884[ebp]

; 100  : 	}
; 101  : }

  0015b	8b e5		 mov	 esp, ebp
  0015d	5d		 pop	 ebp
  0015e	c3		 ret	 0
?square_distance_between_linesegment_and_point@@YAMABUD3DXVECTOR3@@00@Z ENDP ; square_distance_between_linesegment_and_point
_TEXT	ENDS
; Function compile flags: /Ogtp
; File C:\Marty 5.5\Src-Client\Client\EterLib\CollisionData.cpp
; File C:\Marty 5.5\Src-Client\extern\include\d3dx8math.inl
; File C:\Marty 5.5\Src-Client\Client\EterLib\CollisionData.cpp
; File C:\Marty 5.5\Src-Client\extern\include\d3dx8math.inl
; File C:\Marty 5.5\Src-Client\Client\EterLib\CollisionData.cpp
; File C:\Marty 5.5\Src-Client\extern\include\d3dx8math.inl
; File C:\Marty 5.5\Src-Client\Client\EterLib\CollisionData.cpp
; File C:\Marty 5.5\Src-Client\extern\include\d3dx8math.inl
; File C:\Marty 5.5\Src-Client\Client\EterLib\CollisionData.cpp
; File C:\Marty 5.5\Src-Client\extern\include\d3dx8math.inl
; File C:\Marty 5.5\Src-Client\Client\EterLib\CollisionData.cpp
; File C:\Marty 5.5\Src-Client\extern\include\d3dx8math.inl
; File C:\Marty 5.5\Src-Client\Client\EterLib\CollisionData.cpp
; File C:\Marty 5.5\Src-Client\extern\include\d3dx8math.inl
; File C:\Marty 5.5\Src-Client\Client\EterLib\CollisionData.cpp
; File C:\Marty 5.5\Src-Client\extern\include\d3dx8math.inl
; File C:\Marty 5.5\Src-Client\Client\EterLib\CollisionData.cpp
; File C:\Marty 5.5\Src-Client\extern\include\d3dx8math.inl
; File C:\Marty 5.5\Src-Client\Client\EterLib\CollisionData.cpp
;	COMDAT ?CollideCylinderVSDynamicSphere@CCylinderCollisionInstance@@IBE_NABUSCylinderData@@ABUCDynamicSphereInstance@@@Z
_TEXT	SEGMENT
_ob$ = -40						; size = 12
_oa$ = -28						; size = 12
$T1 = -16						; size = 12
__$ArrayPad$ = -4					; size = 4
_c_rattribute$ = 8					; size = 4
_s$ = 12						; size = 4
?CollideCylinderVSDynamicSphere@CCylinderCollisionInstance@@IBE_NABUSCylinderData@@ABUCDynamicSphereInstance@@@Z PROC ; CCylinderCollisionInstance::CollideCylinderVSDynamicSphere, COMDAT
; _this$ = ecx

; 483  : {

  00000	55		 push	 ebp
  00001	8b ec		 mov	 ebp, esp
  00003	83 ec 28	 sub	 esp, 40			; 00000028H
  00006	a1 00 00 00 00	 mov	 eax, DWORD PTR ___security_cookie
  0000b	33 c5		 xor	 eax, ebp
  0000d	89 45 fc	 mov	 DWORD PTR __$ArrayPad$[ebp], eax
  00010	56		 push	 esi
  00011	8b 75 08	 mov	 esi, DWORD PTR _c_rattribute$[ebp]
  00014	57		 push	 edi
  00015	8b 7d 0c	 mov	 edi, DWORD PTR _s$[ebp]

; 484  : 	if (s.v3Position.z + s.fRadius < c_rattribute.v3Position.z)

  00018	f3 0f 10 4e 08	 movss	 xmm1, DWORD PTR [esi+8]
  0001d	f3 0f 10 57 08	 movss	 xmm2, DWORD PTR [edi+8]
  00022	f3 0f 10 5f 18	 movss	 xmm3, DWORD PTR [edi+24]
  00027	0f 28 c2	 movaps	 xmm0, xmm2
  0002a	f3 0f 58 c3	 addss	 xmm0, xmm3
  0002e	0f 2f c8	 comiss	 xmm1, xmm0
  00031	0f 87 9c 00 00
	00		 ja	 $LN13@CollideCyl

; 485  : 		return false;
; 486  : 
; 487  : 	if (s.v3Position.z - s.fRadius > c_rattribute.v3Position.z + c_rattribute.fHeight)

  00037	f3 0f 58 4e 10	 addss	 xmm1, DWORD PTR [esi+16]
  0003c	f3 0f 5c d3	 subss	 xmm2, xmm3
  00040	0f 2f d1	 comiss	 xmm2, xmm1
  00043	0f 87 8a 00 00
	00		 ja	 $LN13@CollideCyl
; File C:\Marty 5.5\Src-Client\extern\include\d3dx8math.inl

; 180  :     x = fx;

  00049	f3 0f 10 06	 movss	 xmm0, DWORD PTR [esi]
; File C:\Marty 5.5\Src-Client\Client\EterLib\CollisionData.cpp

; 497  : 	IntersectLineSegments(c_rattribute.v3Position, D3DXVECTOR3(c_rattribute.v3Position.x, c_rattribute.v3Position.y, c_rattribute.v3Position.z + c_rattribute.fHeight), s.v3LastPosition, s.v3Position, oa, ob);

  0004d	8d 45 d8	 lea	 eax, DWORD PTR _ob$[ebp]
  00050	50		 push	 eax
  00051	8d 45 e4	 lea	 eax, DWORD PTR _oa$[ebp]
; File C:\Marty 5.5\Src-Client\extern\include\d3dx8math.inl

; 180  :     x = fx;

  00054	f3 0f 11 45 f0	 movss	 DWORD PTR $T1[ebp], xmm0

; 181  :     y = fy;

  00059	f3 0f 10 46 04	 movss	 xmm0, DWORD PTR [esi+4]
; File C:\Marty 5.5\Src-Client\Client\EterLib\CollisionData.cpp

; 497  : 	IntersectLineSegments(c_rattribute.v3Position, D3DXVECTOR3(c_rattribute.v3Position.x, c_rattribute.v3Position.y, c_rattribute.v3Position.z + c_rattribute.fHeight), s.v3LastPosition, s.v3Position, oa, ob);

  0005e	50		 push	 eax
  0005f	57		 push	 edi
  00060	8d 47 0c	 lea	 eax, DWORD PTR [edi+12]
; File C:\Marty 5.5\Src-Client\extern\include\d3dx8math.inl

; 181  :     y = fy;

  00063	f3 0f 11 45 f4	 movss	 DWORD PTR $T1[ebp+4], xmm0
; File C:\Marty 5.5\Src-Client\Client\EterLib\CollisionData.cpp

; 497  : 	IntersectLineSegments(c_rattribute.v3Position, D3DXVECTOR3(c_rattribute.v3Position.x, c_rattribute.v3Position.y, c_rattribute.v3Position.z + c_rattribute.fHeight), s.v3LastPosition, s.v3Position, oa, ob);

  00068	50		 push	 eax
  00069	8d 45 f0	 lea	 eax, DWORD PTR $T1[ebp]
; File C:\Marty 5.5\Src-Client\extern\include\d3dx8math.inl

; 182  :     z = fz;

  0006c	f3 0f 11 4d f8	 movss	 DWORD PTR $T1[ebp+8], xmm1
; File C:\Marty 5.5\Src-Client\Client\EterLib\CollisionData.cpp

; 497  : 	IntersectLineSegments(c_rattribute.v3Position, D3DXVECTOR3(c_rattribute.v3Position.x, c_rattribute.v3Position.y, c_rattribute.v3Position.z + c_rattribute.fHeight), s.v3LastPosition, s.v3Position, oa, ob);

  00071	50		 push	 eax
  00072	56		 push	 esi
  00073	e8 00 00 00 00	 call	 ?IntersectLineSegments@@YAXABUD3DXVECTOR3@@000AAU1@1@Z ; IntersectLineSegments
; File C:\Marty 5.5\Src-Client\extern\include\d3dx8math.inl

; 263  :     return D3DXVECTOR3(x - v.x, y - v.y, z - v.z);

  00078	f3 0f 10 55 e4	 movss	 xmm2, DWORD PTR _oa$[ebp]
; File C:\Marty 5.5\Src-Client\Client\EterLib\CollisionData.cpp

; 497  : 	IntersectLineSegments(c_rattribute.v3Position, D3DXVECTOR3(c_rattribute.v3Position.x, c_rattribute.v3Position.y, c_rattribute.v3Position.z + c_rattribute.fHeight), s.v3LastPosition, s.v3Position, oa, ob);

  0007d	83 c4 18	 add	 esp, 24			; 00000018H
; File C:\Marty 5.5\Src-Client\extern\include\d3dx8math.inl

; 263  :     return D3DXVECTOR3(x - v.x, y - v.y, z - v.z);

  00080	f3 0f 10 5d e8	 movss	 xmm3, DWORD PTR _oa$[ebp+4]
  00085	f3 0f 5c 5d dc	 subss	 xmm3, DWORD PTR _ob$[ebp+4]
  0008a	f3 0f 5c 55 d8	 subss	 xmm2, DWORD PTR _ob$[ebp]
  0008f	f3 0f 10 45 ec	 movss	 xmm0, DWORD PTR _oa$[ebp+8]
  00094	f3 0f 5c 45 e0	 subss	 xmm0, DWORD PTR _ob$[ebp+8]
; File C:\Marty 5.5\Src-Client\Client\EterLib\CollisionData.cpp

; 499  : 	return (D3DXVec3LengthSq(&vv) <= (c_rattribute.fRadius + s.fRadius) * (c_rattribute.fRadius + s.fRadius));

  00099	f3 0f 10 4e 0c	 movss	 xmm1, DWORD PTR [esi+12]
  0009e	f3 0f 58 4f 18	 addss	 xmm1, DWORD PTR [edi+24]
; File C:\Marty 5.5\Src-Client\extern\include\d3dx8math.inl

; 182  :     z = fz;

  000a3	f3 0f 59 db	 mulss	 xmm3, xmm3
  000a7	5f		 pop	 edi

; 1253 :     return pV->x * pV->x + pV->y * pV->y + pV->z * pV->z;

  000a8	f3 0f 59 d2	 mulss	 xmm2, xmm2
; File C:\Marty 5.5\Src-Client\Client\EterLib\CollisionData.cpp

; 500  : }

  000ac	5e		 pop	 esi
; File C:\Marty 5.5\Src-Client\extern\include\d3dx8math.inl

; 1253 :     return pV->x * pV->x + pV->y * pV->y + pV->z * pV->z;

  000ad	f3 0f 59 c0	 mulss	 xmm0, xmm0
  000b1	f3 0f 58 da	 addss	 xmm3, xmm2
; File C:\Marty 5.5\Src-Client\Client\EterLib\CollisionData.cpp

; 499  : 	return (D3DXVec3LengthSq(&vv) <= (c_rattribute.fRadius + s.fRadius) * (c_rattribute.fRadius + s.fRadius));

  000b5	f3 0f 59 c9	 mulss	 xmm1, xmm1
; File C:\Marty 5.5\Src-Client\extern\include\d3dx8math.inl

; 1253 :     return pV->x * pV->x + pV->y * pV->y + pV->z * pV->z;

  000b9	f3 0f 58 d8	 addss	 xmm3, xmm0
; File C:\Marty 5.5\Src-Client\Client\EterLib\CollisionData.cpp

; 499  : 	return (D3DXVec3LengthSq(&vv) <= (c_rattribute.fRadius + s.fRadius) * (c_rattribute.fRadius + s.fRadius));

  000bd	0f 2f cb	 comiss	 xmm1, xmm3
  000c0	0f 93 c0	 setae	 al

; 500  : }

  000c3	8b 4d fc	 mov	 ecx, DWORD PTR __$ArrayPad$[ebp]
  000c6	33 cd		 xor	 ecx, ebp
  000c8	e8 00 00 00 00	 call	 @__security_check_cookie@4
  000cd	8b e5		 mov	 esp, ebp
  000cf	5d		 pop	 ebp
  000d0	c2 08 00	 ret	 8
$LN13@CollideCyl:
  000d3	8b 4d fc	 mov	 ecx, DWORD PTR __$ArrayPad$[ebp]
  000d6	32 c0		 xor	 al, al
  000d8	5f		 pop	 edi
  000d9	33 cd		 xor	 ecx, ebp
  000db	5e		 pop	 esi
  000dc	e8 00 00 00 00	 call	 @__security_check_cookie@4
  000e1	8b e5		 mov	 esp, ebp
  000e3	5d		 pop	 ebp
  000e4	c2 08 00	 ret	 8
?CollideCylinderVSDynamicSphere@CCylinderCollisionInstance@@IBE_NABUSCylinderData@@ABUCDynamicSphereInstance@@@Z ENDP ; CCylinderCollisionInstance::CollideCylinderVSDynamicSphere
_TEXT	ENDS
; Function compile flags: /Ogtp
; File C:\Marty 5.5\Src-Client\Client\EterLib\CollisionData.cpp
; File C:\Marty 5.5\Src-Client\extern\include\d3dx8math.inl
; File C:\Marty 5.5\Src-Client\Client\EterLib\CollisionData.cpp
; File C:\Marty 5.5\Src-Client\extern\include\d3dx8math.inl
; File C:\Marty 5.5\Src-Client\Client\EterLib\CollisionData.cpp
; File C:\Marty 5.5\Src-Client\extern\include\d3dx8math.inl
; File C:\Marty 5.5\Src-Client\Client\EterLib\CollisionData.cpp
; File C:\Marty 5.5\Src-Client\extern\include\d3dx8math.inl
; File C:\Marty 5.5\Src-Client\Client\EterLib\CollisionData.cpp
; File C:\Marty 5.5\Src-Client\extern\include\d3dx8math.inl
; File C:\Marty 5.5\Src-Client\Client\EterLib\CollisionData.cpp
; File C:\Marty 5.5\Src-Client\extern\include\d3dx8math.inl
; File C:\Marty 5.5\Src-Client\Client\EterLib\CollisionData.cpp
; File C:\Marty 5.5\Src-Client\extern\include\d3dx8math.inl
; File C:\Marty 5.5\Src-Client\Client\EterLib\CollisionData.cpp
; File C:\Marty 5.5\Src-Client\extern\include\d3dx8math.inl
; File C:\Marty 5.5\Src-Client\Client\EterLib\CollisionData.cpp
; File C:\Marty 5.5\Src-Client\extern\include\d3dx8math.inl
; File C:\Marty 5.5\Src-Client\Client\EterLib\CollisionData.cpp
; File C:\Marty 5.5\Src-Client\extern\include\d3dx8math.inl
; File C:\Marty 5.5\Src-Client\Client\EterLib\CollisionData.cpp
; File C:\Marty 5.5\Src-Client\extern\include\d3dx8math.inl
; File C:\Marty 5.5\Src-Client\Client\EterLib\CollisionData.cpp
; File C:\Marty 5.5\Src-Client\extern\include\d3dx8math.inl
; File C:\Marty 5.5\Src-Client\Client\EterLib\CollisionData.cpp
;	COMDAT ?OnGetCollisionMovementAdjust@CCylinderCollisionInstance@@MBE?AUD3DXVECTOR3@@ABUCDynamicSphereInstance@@@Z
_TEXT	SEGMENT
tv933 = -28						; size = 4
tv934 = -24						; size = 4
tv936 = -20						; size = 4
tv942 = -16						; size = 4
_sum$1$ = -16						; size = 4
_v3Position$ = -12					; size = 12
___$ReturnUdt$ = 8					; size = 4
_s$ = 12						; size = 4
?OnGetCollisionMovementAdjust@CCylinderCollisionInstance@@MBE?AUD3DXVECTOR3@@ABUCDynamicSphereInstance@@@Z PROC ; CCylinderCollisionInstance::OnGetCollisionMovementAdjust, COMDAT
; _this$ = ecx

; 546  : {

  00000	55		 push	 ebp
  00001	8b ec		 mov	 ebp, esp
  00003	83 e4 f8	 and	 esp, -8			; fffffff8H
  00006	83 ec 1c	 sub	 esp, 28			; 0000001cH

; 548  : 	v3Position.z = s.v3Position.z;

  00009	8b 45 0c	 mov	 eax, DWORD PTR _s$[ebp]
  0000c	f3 0f 7e 41 04	 movq	 xmm0, QWORD PTR [ecx+4]
  00011	66 0f d6 44 24
	10		 movq	 QWORD PTR _v3Position$[esp+28], xmm0
  00017	56		 push	 esi
; File C:\Marty 5.5\Src-Client\extern\include\d3dx8math.inl

; 263  :     return D3DXVECTOR3(x - v.x, y - v.y, z - v.z);

  00018	f3 0f 10 70 04	 movss	 xmm6, DWORD PTR [eax+4]
  0001d	f3 0f 10 10	 movss	 xmm2, DWORD PTR [eax]
  00021	0f 28 c6	 movaps	 xmm0, xmm6
  00024	f3 0f 5c 44 24
	18		 subss	 xmm0, DWORD PTR _v3Position$[esp+36]
; File C:\Marty 5.5\Src-Client\Client\EterLib\CollisionData.cpp

; 548  : 	v3Position.z = s.v3Position.z;

  0002a	f3 0f 10 68 08	 movss	 xmm5, DWORD PTR [eax+8]
; File C:\Marty 5.5\Src-Client\extern\include\d3dx8math.inl

; 263  :     return D3DXVECTOR3(x - v.x, y - v.y, z - v.z);

  0002f	0f 28 fa	 movaps	 xmm7, xmm2
  00032	f3 0f 5c 7c 24
	14		 subss	 xmm7, DWORD PTR _v3Position$[esp+32]
; File C:\Marty 5.5\Src-Client\Client\EterLib\CollisionData.cpp

; 550  : 	if (D3DXVec3LengthSq(&vv) >= (s.fRadius + m_attribute.fRadius) * (m_attribute.fRadius + s.fRadius))

  00038	f3 0f 10 58 18	 movss	 xmm3, DWORD PTR [eax+24]
; File C:\Marty 5.5\Src-Client\extern\include\d3dx8math.inl

; 263  :     return D3DXVECTOR3(x - v.x, y - v.y, z - v.z);

  0003d	0f 28 cd	 movaps	 xmm1, xmm5
; File C:\Marty 5.5\Src-Client\Client\EterLib\CollisionData.cpp

; 550  : 	if (D3DXVec3LengthSq(&vv) >= (s.fRadius + m_attribute.fRadius) * (m_attribute.fRadius + s.fRadius))

  00040	f3 0f 58 59 10	 addss	 xmm3, DWORD PTR [ecx+16]
  00045	8b 75 08	 mov	 esi, DWORD PTR ___$ReturnUdt$[ebp]
; File C:\Marty 5.5\Src-Client\extern\include\d3dx8math.inl

; 263  :     return D3DXVECTOR3(x - v.x, y - v.y, z - v.z);

  00048	f3 0f 5c cd	 subss	 xmm1, xmm5

; 182  :     z = fz;

  0004c	0f 28 e0	 movaps	 xmm4, xmm0

; 263  :     return D3DXVECTOR3(x - v.x, y - v.y, z - v.z);

  0004f	f3 0f 11 44 24
	10		 movss	 DWORD PTR tv942[esp+32], xmm0

; 182  :     z = fz;

  00055	f3 0f 59 e0	 mulss	 xmm4, xmm0

; 1253 :     return pV->x * pV->x + pV->y * pV->y + pV->z * pV->z;

  00059	0f 28 c7	 movaps	 xmm0, xmm7
  0005c	f3 0f 59 c7	 mulss	 xmm0, xmm7
  00060	f3 0f 59 c9	 mulss	 xmm1, xmm1
  00064	f3 0f 58 e0	 addss	 xmm4, xmm0
; File C:\Marty 5.5\Src-Client\Client\EterLib\CollisionData.cpp

; 550  : 	if (D3DXVec3LengthSq(&vv) >= (s.fRadius + m_attribute.fRadius) * (m_attribute.fRadius + s.fRadius))

  00068	f3 0f 59 db	 mulss	 xmm3, xmm3
; File C:\Marty 5.5\Src-Client\extern\include\d3dx8math.inl

; 1253 :     return pV->x * pV->x + pV->y * pV->y + pV->z * pV->z;

  0006c	f3 0f 58 e1	 addss	 xmm4, xmm1
; File C:\Marty 5.5\Src-Client\Client\EterLib\CollisionData.cpp

; 550  : 	if (D3DXVec3LengthSq(&vv) >= (s.fRadius + m_attribute.fRadius) * (m_attribute.fRadius + s.fRadius))

  00070	0f 2f e3	 comiss	 xmm4, xmm3
