; Listing generated by Microsoft (R) Optimizing Compiler Version 19.43.34808.0 

	TITLE	C:\Marty 5.5\Src-Client\Client\EterLib\Distribute\GrpMarkInstance.obj
	.686P
	.XMM
	include listing.inc
	.model	flat

INCLUDELIB LIBCMT
INCLUDELIB OLDNAMES

PUBLIC	?_Fake_alloc@std@@3U_Fake_allocator@1@B		; std::_Fake_alloc
PUBLIC	??_7?$CDynamicPool@VCGraphicMarkInstance@@@@6B@	; CDynamicPool<CGraphicMarkInstance>::`vftable'
PUBLIC	??_G?$CDynamicPool@VCGraphicMarkInstance@@@@UAEPAXI@Z ; CDynamicPool<CGraphicMarkInstance>::`scalar deleting destructor'
PUBLIC	??_R4?$CDynamicPool@VCGraphicMarkInstance@@@@6B@ ; CDynamicPool<CGraphicMarkInstance>::`RTTI Complete Object Locator'
PUBLIC	??_R0?AV?$CDynamicPool@VCGraphicMarkInstance@@@@@8 ; CDynamicPool<CGraphicMarkInstance> `RTTI Type Descriptor'
PUBLIC	??_R3?$CDynamicPool@VCGraphicMarkInstance@@@@8	; CDynamicPool<CGraphicMarkInstance>::`RTTI Class Hierarchy Descriptor'
PUBLIC	??_R2?$CDynamicPool@VCGraphicMarkInstance@@@@8	; CDynamicPool<CGraphicMarkInstance>::`RTTI Base Class Array'
PUBLIC	??_R1A@?0A@EA@?$CDynamicPool@VCGraphicMarkInstance@@@@8 ; CDynamicPool<CGraphicMarkInstance>::`RTTI Base Class Descriptor at (0,-1,0,64)'
EXTRN	??_7type_info@@6B@:QWORD			; type_info::`vftable'
EXTRN	??_E?$CDynamicPool@VCGraphicMarkInstance@@@@UAEPAXI@Z:PROC ; CDynamicPool<CGraphicMarkInstance>::`vector deleting destructor'
;	COMDAT ??_R1A@?0A@EA@?$CDynamicPool@VCGraphicMarkInstance@@@@8
rdata$r	SEGMENT
??_R1A@?0A@EA@?$CDynamicPool@VCGraphicMarkInstance@@@@8 DD FLAT:??_R0?AV?$CDynamicPool@VCGraphicMarkInstance@@@@@8 ; CDynamicPool<CGraphicMarkInstance>::`RTTI Base Class Descriptor at (0,-1,0,64)'
	DD	00H
	DD	00H
	DD	0ffffffffH
	DD	00H
	DD	040H
	DD	FLAT:??_R3?$CDynamicPool@VCGraphicMarkInstance@@@@8
rdata$r	ENDS
;	COMDAT ??_R2?$CDynamicPool@VCGraphicMarkInstance@@@@8
rdata$r	SEGMENT
??_R2?$CDynamicPool@VCGraphicMarkInstance@@@@8 DD FLAT:??_R1A@?0A@EA@?$CDynamicPool@VCGraphicMarkInstance@@@@8 ; CDynamicPool<CGraphicMarkInstance>::`RTTI Base Class Array'
rdata$r	ENDS
;	COMDAT ??_R3?$CDynamicPool@VCGraphicMarkInstance@@@@8
rdata$r	SEGMENT
??_R3?$CDynamicPool@VCGraphicMarkInstance@@@@8 DD 00H	; CDynamicPool<CGraphicMarkInstance>::`RTTI Class Hierarchy Descriptor'
	DD	00H
	DD	01H
	DD	FLAT:??_R2?$CDynamicPool@VCGraphicMarkInstance@@@@8
rdata$r	ENDS
;	COMDAT ??_R0?AV?$CDynamicPool@VCGraphicMarkInstance@@@@@8
data$rs	SEGMENT
??_R0?AV?$CDynamicPool@VCGraphicMarkInstance@@@@@8 DD FLAT:??_7type_info@@6B@ ; CDynamicPool<CGraphicMarkInstance> `RTTI Type Descriptor'
	DD	00H
	DB	'.?AV?$CDynamicPool@VCGraphicMarkInstance@@@@', 00H
data$rs	ENDS
;	COMDAT ??_R4?$CDynamicPool@VCGraphicMarkInstance@@@@6B@
rdata$r	SEGMENT
??_R4?$CDynamicPool@VCGraphicMarkInstance@@@@6B@ DD 00H	; CDynamicPool<CGraphicMarkInstance>::`RTTI Complete Object Locator'
	DD	00H
	DD	00H
	DD	FLAT:??_R0?AV?$CDynamicPool@VCGraphicMarkInstance@@@@@8
	DD	FLAT:??_R3?$CDynamicPool@VCGraphicMarkInstance@@@@8
rdata$r	ENDS
;	COMDAT ??_7?$CDynamicPool@VCGraphicMarkInstance@@@@6B@
CONST	SEGMENT
??_7?$CDynamicPool@VCGraphicMarkInstance@@@@6B@ DD FLAT:??_R4?$CDynamicPool@VCGraphicMarkInstance@@@@6B@ ; CDynamicPool<CGraphicMarkInstance>::`vftable'
	DD	FLAT:??_E?$CDynamicPool@VCGraphicMarkInstance@@@@UAEPAXI@Z
CONST	ENDS
;	COMDAT ?_Fake_alloc@std@@3U_Fake_allocator@1@B
CONST	SEGMENT
?_Fake_alloc@std@@3U_Fake_allocator@1@B	ORG $+1		; std::_Fake_alloc
CONST	ENDS
PUBLIC	??_H@YGXPAXIIP6EPAX0@Z@Z			; `vector constructor iterator'
PUBLIC	??0exception@std@@QAE@ABV01@@Z			; std::exception::exception
PUBLIC	??1exception@std@@UAE@XZ			; std::exception::~exception
PUBLIC	?what@exception@std@@UBEPBDXZ			; std::exception::what
PUBLIC	??_Gexception@std@@UAEPAXI@Z			; std::exception::`scalar deleting destructor'
PUBLIC	??0bad_alloc@std@@QAE@ABV01@@Z			; std::bad_alloc::bad_alloc
PUBLIC	??_Gbad_alloc@std@@UAEPAXI@Z			; std::bad_alloc::`scalar deleting destructor'
PUBLIC	??0bad_array_new_length@std@@QAE@XZ		; std::bad_array_new_length::bad_array_new_length
PUBLIC	??1bad_array_new_length@std@@UAE@XZ		; std::bad_array_new_length::~bad_array_new_length
PUBLIC	??0bad_array_new_length@std@@QAE@ABV01@@Z	; std::bad_array_new_length::bad_array_new_length
PUBLIC	??_Gbad_array_new_length@std@@UAEPAXI@Z		; std::bad_array_new_length::`scalar deleting destructor'
PUBLIC	?_Throw_bad_array_new_length@std@@YAXXZ		; std::_Throw_bad_array_new_length
PUBLIC	?_Xlen_string@std@@YAXXZ			; std::_Xlen_string
PUBLIC	??$_Allocate_manually_vector_aligned@U_Default_allocate_traits@std@@@std@@YAPAXI@Z ; std::_Allocate_manually_vector_aligned<std::_Default_allocate_traits>
PUBLIC	??0SPDTVertex@@QAE@XZ				; SPDTVertex::SPDTVertex
PUBLIC	?Type@CGraphicMarkInstance@@SAKXZ		; CGraphicMarkInstance::Type
PUBLIC	?IsType@CGraphicMarkInstance@@QAEHK@Z		; CGraphicMarkInstance::IsType
PUBLIC	?SetImageFileName@CGraphicMarkInstance@@QAEXPBD@Z ; CGraphicMarkInstance::SetImageFileName
PUBLIC	?GetImageFileName@CGraphicMarkInstance@@QAEABV?$basic_string@DU?$char_traits@D@std@@V?$allocator@D@2@@std@@XZ ; CGraphicMarkInstance::GetImageFileName
PUBLIC	??0CGraphicMarkInstance@@QAE@XZ			; CGraphicMarkInstance::CGraphicMarkInstance
PUBLIC	??1CGraphicMarkInstance@@UAE@XZ			; CGraphicMarkInstance::~CGraphicMarkInstance
PUBLIC	?Destroy@CGraphicMarkInstance@@QAEXXZ		; CGraphicMarkInstance::Destroy
PUBLIC	?Render@CGraphicMarkInstance@@QAEXXZ		; CGraphicMarkInstance::Render
PUBLIC	?SetDepth@CGraphicMarkInstance@@QAEXM@Z		; CGraphicMarkInstance::SetDepth
PUBLIC	?SetDiffuseColor@CGraphicMarkInstance@@QAEXMMMM@Z ; CGraphicMarkInstance::SetDiffuseColor
PUBLIC	?SetPosition@CGraphicMarkInstance@@QAEXMM@Z	; CGraphicMarkInstance::SetPosition
PUBLIC	?SetIndex@CGraphicMarkInstance@@QAEXI@Z		; CGraphicMarkInstance::SetIndex
PUBLIC	?SetScale@CGraphicMarkInstance@@QAEXM@Z		; CGraphicMarkInstance::SetScale
PUBLIC	?Load@CGraphicMarkInstance@@QAEXXZ		; CGraphicMarkInstance::Load
PUBLIC	?IsEmpty@CGraphicMarkInstance@@QBE_NXZ		; CGraphicMarkInstance::IsEmpty
PUBLIC	?GetWidth@CGraphicMarkInstance@@QAEHXZ		; CGraphicMarkInstance::GetWidth
PUBLIC	?GetHeight@CGraphicMarkInstance@@QAEHXZ		; CGraphicMarkInstance::GetHeight
PUBLIC	?GetTexturePointer@CGraphicMarkInstance@@QAEPAVCGraphicTexture@@XZ ; CGraphicMarkInstance::GetTexturePointer
PUBLIC	?GetTextureReference@CGraphicMarkInstance@@QBEABVCGraphicTexture@@XZ ; CGraphicMarkInstance::GetTextureReference
PUBLIC	?GetGraphicImagePointer@CGraphicMarkInstance@@QAEPAVCGraphicImage@@XZ ; CGraphicMarkInstance::GetGraphicImagePointer
PUBLIC	??8CGraphicMarkInstance@@QBE_NABV0@@Z		; CGraphicMarkInstance::operator==
PUBLIC	?Initialize@CGraphicMarkInstance@@IAEXXZ	; CGraphicMarkInstance::Initialize
PUBLIC	?OnRender@CGraphicMarkInstance@@MAEXXZ		; CGraphicMarkInstance::OnRender
PUBLIC	?OnSetImagePointer@CGraphicMarkInstance@@MAEXXZ	; CGraphicMarkInstance::OnSetImagePointer
PUBLIC	?OnIsType@CGraphicMarkInstance@@MAEHK@Z		; CGraphicMarkInstance::OnIsType
PUBLIC	?SetImagePointer@CGraphicMarkInstance@@IAEXPAVCGraphicImage@@@Z ; CGraphicMarkInstance::SetImagePointer
PUBLIC	?CreateSystem@CGraphicMarkInstance@@SAXI@Z	; CGraphicMarkInstance::CreateSystem
PUBLIC	?DestroySystem@CGraphicMarkInstance@@SAXXZ	; CGraphicMarkInstance::DestroySystem
PUBLIC	?New@CGraphicMarkInstance@@SAPAV1@XZ		; CGraphicMarkInstance::New
PUBLIC	?Delete@CGraphicMarkInstance@@SAXPAV1@@Z	; CGraphicMarkInstance::Delete
PUBLIC	??_GCGraphicMarkInstance@@UAEPAXI@Z		; CGraphicMarkInstance::`scalar deleting destructor'
PUBLIC	??1?$CDynamicPool@VCGraphicMarkInstance@@@@UAE@XZ ; CDynamicPool<CGraphicMarkInstance>::~CDynamicPool<CGraphicMarkInstance>
PUBLIC	?push_back@?$vector@PAVCGraphicMarkInstance@@V?$allocator@PAVCGraphicMarkInstance@@@std@@@std@@QAEXABQAVCGraphicMarkInstance@@@Z ; std::vector<CGraphicMarkInstance *,std::allocator<CGraphicMarkInstance *> >::push_back
PUBLIC	?reserve@?$vector@PAVCGraphicMarkInstance@@V?$allocator@PAVCGraphicMarkInstance@@@std@@@std@@QAEXI@Z ; std::vector<CGraphicMarkInstance *,std::allocator<CGraphicMarkInstance *> >::reserve
PUBLIC	?_Change_array@?$vector@PAVCGraphicMarkInstance@@V?$allocator@PAVCGraphicMarkInstance@@@std@@@std@@AAEXQAPAVCGraphicMarkInstance@@II@Z ; std::vector<CGraphicMarkInstance *,std::allocator<CGraphicMarkInstance *> >::_Change_array
PUBLIC	?_Xlength@?$vector@PAVCGraphicMarkInstance@@V?$allocator@PAVCGraphicMarkInstance@@@std@@@std@@CAXXZ ; std::vector<CGraphicMarkInstance *,std::allocator<CGraphicMarkInstance *> >::_Xlength
PUBLIC	??$_Copy_memmove@PAPAVCGraphicMarkInstance@@PAPAV1@@std@@YAPAPAVCGraphicMarkInstance@@PAPAV1@00@Z ; std::_Copy_memmove<CGraphicMarkInstance * *,CGraphicMarkInstance * *>
PUBLIC	??$_Copy_memmove_tail@PAPAVCGraphicMarkInstance@@@std@@YAPAPAVCGraphicMarkInstance@@QBDQAPAV1@II@Z ; std::_Copy_memmove_tail<CGraphicMarkInstance * *>
PUBLIC	??_7exception@std@@6B@				; std::exception::`vftable'
PUBLIC	??_C@_0BC@EOODALEL@Unknown?5exception@		; `string'
PUBLIC	??_7bad_alloc@std@@6B@				; std::bad_alloc::`vftable'
PUBLIC	??_7bad_array_new_length@std@@6B@		; std::bad_array_new_length::`vftable'
PUBLIC	??_C@_0BF@KINCDENJ@bad?5array?5new?5length@	; `string'
PUBLIC	??_R0?AVexception@std@@@8			; std::exception `RTTI Type Descriptor'
PUBLIC	__CT??_R0?AVexception@std@@@8??0exception@std@@QAE@ABV01@@Z12
PUBLIC	__TI3?AVbad_array_new_length@std@@
PUBLIC	__CTA3?AVbad_array_new_length@std@@
PUBLIC	??_R0?AVbad_array_new_length@std@@@8		; std::bad_array_new_length `RTTI Type Descriptor'
PUBLIC	__CT??_R0?AVbad_array_new_length@std@@@8??0bad_array_new_length@std@@QAE@ABV01@@Z12
PUBLIC	??_R0?AVbad_alloc@std@@@8			; std::bad_alloc `RTTI Type Descriptor'
PUBLIC	__CT??_R0?AVbad_alloc@std@@@8??0bad_alloc@std@@QAE@ABV01@@Z12
PUBLIC	??_C@_0BA@JFNIOLAK@string?5too?5long@		; `string'
PUBLIC	??_R4exception@std@@6B@				; std::exception::`RTTI Complete Object Locator'
PUBLIC	??_R3exception@std@@8				; std::exception::`RTTI Class Hierarchy Descriptor'
PUBLIC	??_R2exception@std@@8				; std::exception::`RTTI Base Class Array'
PUBLIC	??_R1A@?0A@EA@exception@std@@8			; std::exception::`RTTI Base Class Descriptor at (0,-1,0,64)'
PUBLIC	??_R4bad_array_new_length@std@@6B@		; std::bad_array_new_length::`RTTI Complete Object Locator'
PUBLIC	??_R3bad_array_new_length@std@@8		; std::bad_array_new_length::`RTTI Class Hierarchy Descriptor'
PUBLIC	??_R2bad_array_new_length@std@@8		; std::bad_array_new_length::`RTTI Base Class Array'
PUBLIC	??_R1A@?0A@EA@bad_array_new_length@std@@8	; std::bad_array_new_length::`RTTI Base Class Descriptor at (0,-1,0,64)'
PUBLIC	??_R1A@?0A@EA@bad_alloc@std@@8			; std::bad_alloc::`RTTI Base Class Descriptor at (0,-1,0,64)'
PUBLIC	??_R3bad_alloc@std@@8				; std::bad_alloc::`RTTI Class Hierarchy Descriptor'
PUBLIC	??_R2bad_alloc@std@@8				; std::bad_alloc::`RTTI Base Class Array'
PUBLIC	??_R4bad_alloc@std@@6B@				; std::bad_alloc::`RTTI Complete Object Locator'
PUBLIC	?ms_kPool@CGraphicMarkInstance@@2V?$CDynamicPool@VCGraphicMarkInstance@@@@A ; CGraphicMarkInstance::ms_kPool
PUBLIC	??_7CGraphicMarkInstance@@6B@			; CGraphicMarkInstance::`vftable'
PUBLIC	?ms_singleton@?$CSingleton@VCStateManager@@@@0PAVCStateManager@@A ; CSingleton<CStateManager>::ms_singleton
PUBLIC	?ms_singleton@?$CSingleton@VCResourceManager@@@@0PAVCResourceManager@@A ; CSingleton<CResourceManager>::ms_singleton
PUBLIC	??_C@_0CM@NEBKKKDH@CGraphicMarkinstance?3?3Load?5?9?5?$FL?$CF@ ; `string'
PUBLIC	??_C@_0BF@BKIBHNLF@CGraphicMarkInstance@	; `string'
PUBLIC	??_C@_0BA@FOIKENOD@vector?5too?5long@		; `string'
PUBLIC	??_R4CGraphicMarkInstance@@6B@			; CGraphicMarkInstance::`RTTI Complete Object Locator'
PUBLIC	??_R0?AVCGraphicMarkInstance@@@8		; CGraphicMarkInstance `RTTI Type Descriptor'
PUBLIC	??_R3CGraphicMarkInstance@@8			; CGraphicMarkInstance::`RTTI Class Hierarchy Descriptor'
PUBLIC	??_R2CGraphicMarkInstance@@8			; CGraphicMarkInstance::`RTTI Base Class Array'
PUBLIC	??_R1A@?0A@EA@CGraphicMarkInstance@@8		; CGraphicMarkInstance::`RTTI Base Class Descriptor at (0,-1,0,64)'
PUBLIC	__real@3f000000
PUBLIC	__real@3f800000
PUBLIC	__real@41400000
PUBLIC	__real@41800000
PUBLIC	__real@437f0000
EXTRN	??2@YAPAXI@Z:PROC				; operator new
EXTRN	??3@YAXPAXI@Z:PROC				; operator delete
EXTRN	_atexit:PROC
EXTRN	__Init_thread_header:PROC
EXTRN	__Init_thread_abort:PROC
EXTRN	__Init_thread_footer:PROC
EXTRN	___std_terminate:PROC
EXTRN	__invalid_parameter_noinfo_noreturn:PROC
EXTRN	?_Xlength_error@std@@YAXPBD@Z:PROC		; std::_Xlength_error
EXTRN	___std_exception_copy:PROC
EXTRN	___std_exception_destroy:PROC
EXTRN	??_Eexception@std@@UAEPAXI@Z:PROC		; std::exception::`vector deleting destructor'
EXTRN	??_Ebad_alloc@std@@UAEPAXI@Z:PROC		; std::bad_alloc::`vector deleting destructor'
EXTRN	??_Ebad_array_new_length@std@@UAEPAXI@Z:PROC	; std::bad_array_new_length::`vector deleting destructor'
EXTRN	?TraceError@@YAXPBDZZ:PROC			; TraceError
EXTRN	?AddReference@CReferenceObject@@QAEXXZ:PROC	; CReferenceObject::AddReference
EXTRN	?Release@CReferenceObject@@QAEXXZ:PROC		; CReferenceObject::Release
EXTRN	?IsEmpty@CResource@@QBE_NXZ:PROC		; CResource::IsEmpty
EXTRN	?IsType@CResource@@QAE_NK@Z:PROC		; CResource::IsType
EXTRN	?SetDefaultIndexBuffer@CGraphicBase@@SAXI@Z:PROC ; CGraphicBase::SetDefaultIndexBuffer
EXTRN	?SetPDTStream@CGraphicBase@@SA_NPAUSPDTVertex@@I@Z:PROC ; CGraphicBase::SetPDTStream
EXTRN	?GetWidth@CGraphicTexture@@QBEHXZ:PROC		; CGraphicTexture::GetWidth
EXTRN	?GetHeight@CGraphicTexture@@QBEHXZ:PROC		; CGraphicTexture::GetHeight
EXTRN	?GetD3DTexture@CGraphicTexture@@QBEPAUIDirect3DTexture8@@XZ:PROC ; CGraphicTexture::GetD3DTexture
EXTRN	?Type@CGraphicImage@@SAKXZ:PROC			; CGraphicImage::Type
EXTRN	?GetWidth@CGraphicImage@@QBEHXZ:PROC		; CGraphicImage::GetWidth
EXTRN	?GetTextureReference@CGraphicImage@@QBEABVCGraphicTexture@@XZ:PROC ; CGraphicImage::GetTextureReference
EXTRN	?GetTexturePointer@CGraphicImage@@QAEPAVCGraphicTexture@@XZ:PROC ; CGraphicImage::GetTexturePointer
EXTRN	??_ECGraphicMarkInstance@@UAEPAXI@Z:PROC	; CGraphicMarkInstance::`vector deleting destructor'
EXTRN	?SetTexture@CStateManager@@QAEXKPAUIDirect3DBaseTexture8@@@Z:PROC ; CStateManager::SetTexture
EXTRN	?SetVertexShader@CStateManager@@QAEXK@Z:PROC	; CStateManager::SetVertexShader
EXTRN	?DrawIndexedPrimitive@CStateManager@@QAEJW4_D3DPRIMITIVETYPE@@IIII@Z:PROC ; CStateManager::DrawIndexedPrimitive
EXTRN	?GetResourcePointer@CResourceManager@@QAEPAVCResource@@PBD@Z:PROC ; CResourceManager::GetResourcePointer
EXTRN	?GetCRC32@@YAKPBDI@Z:PROC			; GetCRC32
EXTRN	@__security_check_cookie@4:PROC
EXTRN	__CxxThrowException@8:PROC
EXTRN	___CxxFrameHandler3:PROC
EXTRN	__ftol3:PROC
EXTRN	_memcpy:PROC
EXTRN	_memmove:PROC
EXTRN	__Init_thread_epoch:DWORD
EXTRN	___security_cookie:DWORD
EXTRN	__fltused:DWORD
EXTRN	__tls_array:DWORD
EXTRN	__tls_index:DWORD
;	COMDAT ?ms_singleton@?$CSingleton@VCStateManager@@@@0PAVCStateManager@@A
_BSS	SEGMENT
?ms_singleton@?$CSingleton@VCStateManager@@@@0PAVCStateManager@@A DD 01H DUP (?) ; CSingleton<CStateManager>::ms_singleton
_BSS	ENDS
;	COMDAT ?ms_singleton@?$CSingleton@VCResourceManager@@@@0PAVCResourceManager@@A
_BSS	SEGMENT
?ms_singleton@?$CSingleton@VCResourceManager@@@@0PAVCResourceManager@@A DD 01H DUP (?) ; CSingleton<CResourceManager>::ms_singleton
_BSS	ENDS
;	COMDAT ?s_dwType@?1??Type@CGraphicMarkInstance@@SAKXZ@4KA
_BSS	SEGMENT
?s_dwType@?1??Type@CGraphicMarkInstance@@SAKXZ@4KA DD 01H DUP (?) ; `CGraphicMarkInstance::Type'::`2'::s_dwType
_BSS	ENDS
;	COMDAT ?$TSS0@?1??Type@CGraphicMarkInstance@@SAKXZ@4HA
_BSS	SEGMENT
?$TSS0@?1??Type@CGraphicMarkInstance@@SAKXZ@4HA DD 01H DUP (?) ; `CGraphicMarkInstance::Type'::`2'::$TSS0
_BSS	ENDS
CRT$XCU	SEGMENT
??ms_kPool$initializer$@CGraphicMarkInstance@@2P6AXXZA@@3P6AXXZA DD FLAT:??__E?ms_kPool@CGraphicMarkInstance@@2V?$CDynamicPool@VCGraphicMarkInstance@@@@A@@YAXXZ ; ??ms_kPool$initializer$@CGraphicMarkInstance@@2P6AXXZA@@3P6AXXZA
CRT$XCU	ENDS
;	COMDAT __real@437f0000
CONST	SEGMENT
__real@437f0000 DD 0437f0000r			; 255
CONST	ENDS
;	COMDAT __real@41800000
CONST	SEGMENT
__real@41800000 DD 041800000r			; 16
CONST	ENDS
;	COMDAT __real@41400000
CONST	SEGMENT
__real@41400000 DD 041400000r			; 12
CONST	ENDS
;	COMDAT __real@3f800000
CONST	SEGMENT
__real@3f800000 DD 03f800000r			; 1
CONST	ENDS
;	COMDAT __real@3f000000
CONST	SEGMENT
__real@3f000000 DD 03f000000r			; 0.5
CONST	ENDS
;	COMDAT ??_R1A@?0A@EA@CGraphicMarkInstance@@8
rdata$r	SEGMENT
??_R1A@?0A@EA@CGraphicMarkInstance@@8 DD FLAT:??_R0?AVCGraphicMarkInstance@@@8 ; CGraphicMarkInstance::`RTTI Base Class Descriptor at (0,-1,0,64)'
	DD	00H
	DD	00H
	DD	0ffffffffH
	DD	00H
	DD	040H
	DD	FLAT:??_R3CGraphicMarkInstance@@8
rdata$r	ENDS
;	COMDAT ??_R2CGraphicMarkInstance@@8
rdata$r	SEGMENT
??_R2CGraphicMarkInstance@@8 DD FLAT:??_R1A@?0A@EA@CGraphicMarkInstance@@8 ; CGraphicMarkInstance::`RTTI Base Class Array'
rdata$r	ENDS
;	COMDAT ??_R3CGraphicMarkInstance@@8
rdata$r	SEGMENT
??_R3CGraphicMarkInstance@@8 DD 00H			; CGraphicMarkInstance::`RTTI Class Hierarchy Descriptor'
	DD	00H
	DD	01H
	DD	FLAT:??_R2CGraphicMarkInstance@@8
rdata$r	ENDS
;	COMDAT ??_R0?AVCGraphicMarkInstance@@@8
data$rs	SEGMENT
??_R0?AVCGraphicMarkInstance@@@8 DD FLAT:??_7type_info@@6B@ ; CGraphicMarkInstance `RTTI Type Descriptor'
	DD	00H
	DB	'.?AVCGraphicMarkInstance@@', 00H
data$rs	ENDS
;	COMDAT ??_R4CGraphicMarkInstance@@6B@
rdata$r	SEGMENT
??_R4CGraphicMarkInstance@@6B@ DD 00H			; CGraphicMarkInstance::`RTTI Complete Object Locator'
	DD	00H
	DD	00H
	DD	FLAT:??_R0?AVCGraphicMarkInstance@@@8
	DD	FLAT:??_R3CGraphicMarkInstance@@8
rdata$r	ENDS
;	COMDAT ??_C@_0BA@FOIKENOD@vector?5too?5long@
CONST	SEGMENT
??_C@_0BA@FOIKENOD@vector?5too?5long@ DB 'vector too long', 00H ; `string'
CONST	ENDS
;	COMDAT ??_C@_0BF@BKIBHNLF@CGraphicMarkInstance@
CONST	SEGMENT
??_C@_0BF@BKIBHNLF@CGraphicMarkInstance@ DB 'CGraphicMarkInstance', 00H ; `string'
CONST	ENDS
;	COMDAT ??_C@_0CM@NEBKKKDH@CGraphicMarkinstance?3?3Load?5?9?5?$FL?$CF@
CONST	SEGMENT
??_C@_0CM@NEBKKKDH@CGraphicMarkinstance?3?3Load?5?9?5?$FL?$CF@ DB 'CGraph'
	DB	'icMarkinstance::Load - [%s] NOT EXIST', 00H	; `string'
CONST	ENDS
;	COMDAT ??_7CGraphicMarkInstance@@6B@
CONST	SEGMENT
??_7CGraphicMarkInstance@@6B@ DD FLAT:??_R4CGraphicMarkInstance@@6B@ ; CGraphicMarkInstance::`vftable'
	DD	FLAT:??_ECGraphicMarkInstance@@UAEPAXI@Z
	DD	FLAT:?OnRender@CGraphicMarkInstance@@MAEXXZ
	DD	FLAT:?OnSetImagePointer@CGraphicMarkInstance@@MAEXXZ
	DD	FLAT:?OnIsType@CGraphicMarkInstance@@MAEHK@Z
CONST	ENDS
_DATA	SEGMENT
?ms_kPool@CGraphicMarkInstance@@2V?$CDynamicPool@VCGraphicMarkInstance@@@@A DD FLAT:??_7?$CDynamicPool@VCGraphicMarkInstance@@@@6B@ ; CGraphicMarkInstance::ms_kPool
	DD	00H
	DD	00H
	DD	00H
	DD	00H
	DD	00H
	DD	00H
	DD	00H
	DD	00H
_DATA	ENDS
;	COMDAT ??_R4bad_alloc@std@@6B@
rdata$r	SEGMENT
??_R4bad_alloc@std@@6B@ DD 00H				; std::bad_alloc::`RTTI Complete Object Locator'
	DD	00H
	DD	00H
	DD	FLAT:??_R0?AVbad_alloc@std@@@8
	DD	FLAT:??_R3bad_alloc@std@@8
rdata$r	ENDS
;	COMDAT ??_R2bad_alloc@std@@8
rdata$r	SEGMENT
??_R2bad_alloc@std@@8 DD FLAT:??_R1A@?0A@EA@bad_alloc@std@@8 ; std::bad_alloc::`RTTI Base Class Array'
	DD	FLAT:??_R1A@?0A@EA@exception@std@@8
rdata$r	ENDS
;	COMDAT ??_R3bad_alloc@std@@8
rdata$r	SEGMENT
??_R3bad_alloc@std@@8 DD 00H				; std::bad_alloc::`RTTI Class Hierarchy Descriptor'
	DD	00H
	DD	02H
	DD	FLAT:??_R2bad_alloc@std@@8
rdata$r	ENDS
;	COMDAT ??_R1A@?0A@EA@bad_alloc@std@@8
rdata$r	SEGMENT
??_R1A@?0A@EA@bad_alloc@std@@8 DD FLAT:??_R0?AVbad_alloc@std@@@8 ; std::bad_alloc::`RTTI Base Class Descriptor at (0,-1,0,64)'
	DD	01H
	DD	00H
	DD	0ffffffffH
	DD	00H
	DD	040H
	DD	FLAT:??_R3bad_alloc@std@@8
rdata$r	ENDS
;	COMDAT ??_R1A@?0A@EA@bad_array_new_length@std@@8
rdata$r	SEGMENT
??_R1A@?0A@EA@bad_array_new_length@std@@8 DD FLAT:??_R0?AVbad_array_new_length@std@@@8 ; std::bad_array_new_length::`RTTI Base Class Descriptor at (0,-1,0,64)'
	DD	02H
	DD	00H
	DD	0ffffffffH
	DD	00H
	DD	040H
	DD	FLAT:??_R3bad_array_new_length@std@@8
rdata$r	ENDS
;	COMDAT ??_R2bad_array_new_length@std@@8
rdata$r	SEGMENT
??_R2bad_array_new_length@std@@8 DD FLAT:??_R1A@?0A@EA@bad_array_new_length@std@@8 ; std::bad_array_new_length::`RTTI Base Class Array'
	DD	FLAT:??_R1A@?0A@EA@bad_alloc@std@@8
	DD	FLAT:??_R1A@?0A@EA@exception@std@@8
rdata$r	ENDS
;	COMDAT ??_R3bad_array_new_length@std@@8
rdata$r	SEGMENT
??_R3bad_array_new_length@std@@8 DD 00H			; std::bad_array_new_length::`RTTI Class Hierarchy Descriptor'
	DD	00H
	DD	03H
	DD	FLAT:??_R2bad_array_new_length@std@@8
rdata$r	ENDS
;	COMDAT ??_R4bad_array_new_length@std@@6B@
rdata$r	SEGMENT
??_R4bad_array_new_length@std@@6B@ DD 00H		; std::bad_array_new_length::`RTTI Complete Object Locator'
	DD	00H
	DD	00H
	DD	FLAT:??_R0?AVbad_array_new_length@std@@@8
	DD	FLAT:??_R3bad_array_new_length@std@@8
rdata$r	ENDS
;	COMDAT ??_R1A@?0A@EA@exception@std@@8
rdata$r	SEGMENT
??_R1A@?0A@EA@exception@std@@8 DD FLAT:??_R0?AVexception@std@@@8 ; std::exception::`RTTI Base Class Descriptor at (0,-1,0,64)'
	DD	00H
	DD	00H
	DD	0ffffffffH
	DD	00H
	DD	040H
	DD	FLAT:??_R3exception@std@@8
rdata$r	ENDS
;	COMDAT ??_R2exception@std@@8
rdata$r	SEGMENT
??_R2exception@std@@8 DD FLAT:??_R1A@?0A@EA@exception@std@@8 ; std::exception::`RTTI Base Class Array'
rdata$r	ENDS
;	COMDAT ??_R3exception@std@@8
rdata$r	SEGMENT
??_R3exception@std@@8 DD 00H				; std::exception::`RTTI Class Hierarchy Descriptor'
	DD	00H
	DD	01H
	DD	FLAT:??_R2exception@std@@8
rdata$r	ENDS
;	COMDAT ??_R4exception@std@@6B@
rdata$r	SEGMENT
??_R4exception@std@@6B@ DD 00H				; std::exception::`RTTI Complete Object Locator'
	DD	00H
	DD	00H
	DD	FLAT:??_R0?AVexception@std@@@8
	DD	FLAT:??_R3exception@std@@8
rdata$r	ENDS
;	COMDAT ??_C@_0BA@JFNIOLAK@string?5too?5long@
CONST	SEGMENT
??_C@_0BA@JFNIOLAK@string?5too?5long@ DB 'string too long', 00H ; `string'
CONST	ENDS
;	COMDAT __CT??_R0?AVbad_alloc@std@@@8??0bad_alloc@std@@QAE@ABV01@@Z12
xdata$x	SEGMENT
__CT??_R0?AVbad_alloc@std@@@8??0bad_alloc@std@@QAE@ABV01@@Z12 DD 010H
	DD	FLAT:??_R0?AVbad_alloc@std@@@8
	DD	00H
	DD	0ffffffffH
	ORG $+4
	DD	0cH
	DD	FLAT:??0bad_alloc@std@@QAE@ABV01@@Z
xdata$x	ENDS
;	COMDAT ??_R0?AVbad_alloc@std@@@8
data$r	SEGMENT
??_R0?AVbad_alloc@std@@@8 DD FLAT:??_7type_info@@6B@	; std::bad_alloc `RTTI Type Descriptor'
	DD	00H
	DB	'.?AVbad_alloc@std@@', 00H
data$r	ENDS
;	COMDAT __CT??_R0?AVbad_array_new_length@std@@@8??0bad_array_new_length@std@@QAE@ABV01@@Z12
xdata$x	SEGMENT
__CT??_R0?AVbad_array_new_length@std@@@8??0bad_array_new_length@std@@QAE@ABV01@@Z12 DD 00H
	DD	FLAT:??_R0?AVbad_array_new_length@std@@@8
	DD	00H
	DD	0ffffffffH
	ORG $+4
	DD	0cH
	DD	FLAT:??0bad_array_new_length@std@@QAE@ABV01@@Z
xdata$x	ENDS
;	COMDAT ??_R0?AVbad_array_new_length@std@@@8
data$r	SEGMENT
??_R0?AVbad_array_new_length@std@@@8 DD FLAT:??_7type_info@@6B@ ; std::bad_array_new_length `RTTI Type Descriptor'
	DD	00H
	DB	'.?AVbad_array_new_length@std@@', 00H
data$r	ENDS
;	COMDAT __CTA3?AVbad_array_new_length@std@@
xdata$x	SEGMENT
__CTA3?AVbad_array_new_length@std@@ DD 03H
	DD	FLAT:__CT??_R0?AVbad_array_new_length@std@@@8??0bad_array_new_length@std@@QAE@ABV01@@Z12
	DD	FLAT:__CT??_R0?AVbad_alloc@std@@@8??0bad_alloc@std@@QAE@ABV01@@Z12
	DD	FLAT:__CT??_R0?AVexception@std@@@8??0exception@std@@QAE@ABV01@@Z12
xdata$x	ENDS
;	COMDAT __TI3?AVbad_array_new_length@std@@
xdata$x	SEGMENT
__TI3?AVbad_array_new_length@std@@ DD 00H
	DD	FLAT:??1bad_array_new_length@std@@UAE@XZ
	DD	00H
	DD	FLAT:__CTA3?AVbad_array_new_length@std@@
xdata$x	ENDS
;	COMDAT __CT??_R0?AVexception@std@@@8??0exception@std@@QAE@ABV01@@Z12
xdata$x	SEGMENT
__CT??_R0?AVexception@std@@@8??0exception@std@@QAE@ABV01@@Z12 DD 00H
	DD	FLAT:??_R0?AVexception@std@@@8
	DD	00H
	DD	0ffffffffH
	ORG $+4
	DD	0cH
	DD	FLAT:??0exception@std@@QAE@ABV01@@Z
xdata$x	ENDS
;	COMDAT ??_R0?AVexception@std@@@8
data$r	SEGMENT
??_R0?AVexception@std@@@8 DD FLAT:??_7type_info@@6B@	; std::exception `RTTI Type Descriptor'
	DD	00H
	DB	'.?AVexception@std@@', 00H
data$r	ENDS
;	COMDAT ??_C@_0BF@KINCDENJ@bad?5array?5new?5length@
CONST	SEGMENT
??_C@_0BF@KINCDENJ@bad?5array?5new?5length@ DB 'bad array new length', 00H ; `string'
CONST	ENDS
;	COMDAT ??_7bad_array_new_length@std@@6B@
CONST	SEGMENT
??_7bad_array_new_length@std@@6B@ DD FLAT:??_R4bad_array_new_length@std@@6B@ ; std::bad_array_new_length::`vftable'
	DD	FLAT:??_Ebad_array_new_length@std@@UAEPAXI@Z
	DD	FLAT:?what@exception@std@@UBEPBDXZ
CONST	ENDS
;	COMDAT ??_7bad_alloc@std@@6B@
CONST	SEGMENT
??_7bad_alloc@std@@6B@ DD FLAT:??_R4bad_alloc@std@@6B@	; std::bad_alloc::`vftable'
	DD	FLAT:??_Ebad_alloc@std@@UAEPAXI@Z
	DD	FLAT:?what@exception@std@@UBEPBDXZ
CONST	ENDS
;	COMDAT ??_C@_0BC@EOODALEL@Unknown?5exception@
CONST	SEGMENT
??_C@_0BC@EOODALEL@Unknown?5exception@ DB 'Unknown exception', 00H ; `string'
CONST	ENDS
;	COMDAT ??_7exception@std@@6B@
CONST	SEGMENT
??_7exception@std@@6B@ DD FLAT:??_R4exception@std@@6B@	; std::exception::`vftable'
	DD	FLAT:??_Eexception@std@@UAEPAXI@Z
	DD	FLAT:?what@exception@std@@UBEPBDXZ
CONST	ENDS
;	COMDAT xdata$x
xdata$x	SEGMENT
__ehfuncinfo$??1?$CRef@VCGraphicImage@@@@QAE@XZ DD 019930522H
	DD	00H
	DD	00H
	DD	2 DUP(00H)
	DD	2 DUP(00H)
	DD	00H
	DD	05H
xdata$x	ENDS
;	COMDAT xdata$x
xdata$x	SEGMENT
__unwindtable$??1CGraphicMarkInstance@@UAE@XZ DD 0ffffffffH
	DD	FLAT:___std_terminate
__ehfuncinfo$??1CGraphicMarkInstance@@UAE@XZ DD 019930522H
	DD	01H
	DD	FLAT:__unwindtable$??1CGraphicMarkInstance@@UAE@XZ
	DD	2 DUP(00H)
	DD	2 DUP(00H)
	DD	00H
	DD	05H
xdata$x	ENDS
;	COMDAT xdata$x
xdata$x	SEGMENT
__unwindtable$?Type@CGraphicMarkInstance@@SAKXZ DD 0ffffffffH
	DD	FLAT:__unwindfunclet$?Type@CGraphicMarkInstance@@SAKXZ$0
__ehfuncinfo$?Type@CGraphicMarkInstance@@SAKXZ DD 019930522H
	DD	01H
	DD	FLAT:__unwindtable$?Type@CGraphicMarkInstance@@SAKXZ
	DD	2 DUP(00H)
	DD	2 DUP(00H)
	DD	00H
	DD	01H
xdata$x	ENDS
; Function compile flags: /Ogtp
; File D:\Program Files\Microsoft Visual Studio\2022\Community\VC\Tools\MSVC\14.43.34808\include\xutility
;	COMDAT ??$_Copy_memmove_tail@PAPAVCGraphicMarkInstance@@@std@@YAPAPAVCGraphicMarkInstance@@QBDQAPAV1@II@Z
_TEXT	SEGMENT
__First_ch$ = 8						; size = 4
__Dest$ = 12						; size = 4
__Byte_count$ = 16					; size = 4
__Object_count$ = 20					; size = 4
??$_Copy_memmove_tail@PAPAVCGraphicMarkInstance@@@std@@YAPAPAVCGraphicMarkInstance@@QBDQAPAV1@II@Z PROC ; std::_Copy_memmove_tail<CGraphicMarkInstance * *>, COMDAT

; 4763 :     const char* const _First_ch, const _OutCtgIt _Dest, const size_t _Byte_count, const size_t _Object_count) {

  00000	55		 push	 ebp
  00001	8b ec		 mov	 ebp, esp
  00003	56		 push	 esi

; 4764 :     _STL_INTERNAL_CHECK(_Byte_count == _Object_count * sizeof(*_Dest));
; 4765 :     const auto _Dest_ptr = _STD _To_address(_Dest);
; 4766 :     const auto _Dest_ch  = const_cast<char*>(reinterpret_cast<const volatile char*>(_Dest_ptr));
; 4767 :     _CSTD memmove(_Dest_ch, _First_ch, _Byte_count);

  00004	8b 75 0c	 mov	 esi, DWORD PTR __Dest$[ebp]
  00007	57		 push	 edi
  00008	8b 7d 10	 mov	 edi, DWORD PTR __Byte_count$[ebp]
  0000b	57		 push	 edi
  0000c	ff 75 08	 push	 DWORD PTR __First_ch$[ebp]
  0000f	56		 push	 esi
  00010	e8 00 00 00 00	 call	 _memmove
  00015	83 c4 0c	 add	 esp, 12			; 0000000cH

; 4768 :     if constexpr (is_pointer_v<_OutCtgIt>) {
; 4769 :         (void) _Object_count;
; 4770 :         // CodeQL [SM02986] This cast is correct: we're bypassing pointer arithmetic for performance.
; 4771 :         return reinterpret_cast<_OutCtgIt>(_Dest_ch + _Byte_count);

  00018	8d 04 3e	 lea	 eax, DWORD PTR [esi+edi]
  0001b	5f		 pop	 edi
  0001c	5e		 pop	 esi

; 4772 :     } else {
; 4773 :         return _Dest + static_cast<_Iter_diff_t<_OutCtgIt>>(_Object_count);
; 4774 :     }
; 4775 : }

  0001d	5d		 pop	 ebp
  0001e	c3		 ret	 0
??$_Copy_memmove_tail@PAPAVCGraphicMarkInstance@@@std@@YAPAPAVCGraphicMarkInstance@@QBDQAPAV1@II@Z ENDP ; std::_Copy_memmove_tail<CGraphicMarkInstance * *>
_TEXT	ENDS
; Function compile flags: /Ogtp
; File D:\Program Files\Microsoft Visual Studio\2022\Community\VC\Tools\MSVC\14.43.34808\include\xutility
;	COMDAT ??$_Copy_memmove@PAPAVCGraphicMarkInstance@@PAPAV1@@std@@YAPAPAVCGraphicMarkInstance@@PAPAV1@00@Z
_TEXT	SEGMENT
__First$ = 8						; size = 4
__Last$ = 12						; size = 4
__Dest$ = 16						; size = 4
??$_Copy_memmove@PAPAVCGraphicMarkInstance@@PAPAV1@@std@@YAPAPAVCGraphicMarkInstance@@PAPAV1@00@Z PROC ; std::_Copy_memmove<CGraphicMarkInstance * *,CGraphicMarkInstance * *>, COMDAT

; 4778 : _OutCtgIt _Copy_memmove(_CtgIt _First, _CtgIt _Last, _OutCtgIt _Dest) {

  00000	55		 push	 ebp
  00001	8b ec		 mov	 ebp, esp

; 4779 :     _STL_INTERNAL_CHECK(_First <= _Last);
; 4780 :     const auto _First_ptr    = _STD _To_address(_First);
; 4781 :     const auto _Last_ptr     = _STD _To_address(_Last);
; 4782 :     const auto _Object_count = static_cast<size_t>(_Last_ptr - _First_ptr);

  00003	8b 55 08	 mov	 edx, DWORD PTR __First$[ebp]
  00006	8b 4d 0c	 mov	 ecx, DWORD PTR __Last$[ebp]
  00009	2b ca		 sub	 ecx, edx
  0000b	8b c1		 mov	 eax, ecx
  0000d	c1 f8 02	 sar	 eax, 2

; 4783 :     const auto _First_ch     = const_cast<const char*>(reinterpret_cast<const volatile char*>(_First_ptr));
; 4784 :     const auto _Last_ch      = const_cast<const char*>(reinterpret_cast<const volatile char*>(_Last_ptr));
; 4785 :     const auto _Byte_count   = static_cast<size_t>(_Last_ch - _First_ch);
; 4786 :     return _STD _Copy_memmove_tail(_First_ch, _STD move(_Dest), _Byte_count, _Object_count);

  00010	50		 push	 eax
  00011	51		 push	 ecx
  00012	ff 75 10	 push	 DWORD PTR __Dest$[ebp]
  00015	52		 push	 edx
  00016	e8 00 00 00 00	 call	 ??$_Copy_memmove_tail@PAPAVCGraphicMarkInstance@@@std@@YAPAPAVCGraphicMarkInstance@@QBDQAPAV1@II@Z ; std::_Copy_memmove_tail<CGraphicMarkInstance * *>
  0001b	83 c4 10	 add	 esp, 16			; 00000010H

; 4787 : }

  0001e	5d		 pop	 ebp
  0001f	c3		 ret	 0
??$_Copy_memmove@PAPAVCGraphicMarkInstance@@PAPAV1@@std@@YAPAPAVCGraphicMarkInstance@@PAPAV1@00@Z ENDP ; std::_Copy_memmove<CGraphicMarkInstance * *,CGraphicMarkInstance * *>
_TEXT	ENDS
; Function compile flags: /Ogtp
;	COMDAT ??__F?ms_kPool@CGraphicMarkInstance@@2V?$CDynamicPool@VCGraphicMarkInstance@@@@A@@YAXXZ
text$yd	SEGMENT
??__F?ms_kPool@CGraphicMarkInstance@@2V?$CDynamicPool@VCGraphicMarkInstance@@@@A@@YAXXZ PROC ; `dynamic atexit destructor for 'CGraphicMarkInstance::ms_kPool'', COMDAT
  00000	b9 00 00 00 00	 mov	 ecx, OFFSET ?ms_kPool@CGraphicMarkInstance@@2V?$CDynamicPool@VCGraphicMarkInstance@@@@A ; CGraphicMarkInstance::ms_kPool
  00005	e9 00 00 00 00	 jmp	 ??1?$CDynamicPool@VCGraphicMarkInstance@@@@UAE@XZ ; CDynamicPool<CGraphicMarkInstance>::~CDynamicPool<CGraphicMarkInstance>
??__F?ms_kPool@CGraphicMarkInstance@@2V?$CDynamicPool@VCGraphicMarkInstance@@@@A@@YAXXZ ENDP ; `dynamic atexit destructor for 'CGraphicMarkInstance::ms_kPool''
text$yd	ENDS
; Function compile flags: /Ogtp
; File C:\Marty 5.5\Src-Client\Client\EterLib\GrpMarkInstance.cpp
;	COMDAT ??__E?ms_kPool@CGraphicMarkInstance@@2V?$CDynamicPool@VCGraphicMarkInstance@@@@A@@YAXXZ
text$di	SEGMENT
??__E?ms_kPool@CGraphicMarkInstance@@2V?$CDynamicPool@VCGraphicMarkInstance@@@@A@@YAXXZ PROC ; `dynamic initializer for 'CGraphicMarkInstance::ms_kPool'', COMDAT

; 8    : CDynamicPool<CGraphicMarkInstance> CGraphicMarkInstance::ms_kPool;

  00000	68 00 00 00 00	 push	 OFFSET ??__F?ms_kPool@CGraphicMarkInstance@@2V?$CDynamicPool@VCGraphicMarkInstance@@@@A@@YAXXZ ; `dynamic atexit destructor for 'CGraphicMarkInstance::ms_kPool''
  00005	e8 00 00 00 00	 call	 _atexit
  0000a	59		 pop	 ecx
  0000b	c3		 ret	 0
??__E?ms_kPool@CGraphicMarkInstance@@2V?$CDynamicPool@VCGraphicMarkInstance@@@@A@@YAXXZ ENDP ; `dynamic initializer for 'CGraphicMarkInstance::ms_kPool''
text$di	ENDS
; Function compile flags: /Ogtp
;	COMDAT ??_G?$CDynamicPool@VCGraphicMarkInstance@@@@UAEPAXI@Z
_TEXT	SEGMENT
___flags$ = 8						; size = 4
??_G?$CDynamicPool@VCGraphicMarkInstance@@@@UAEPAXI@Z PROC ; CDynamicPool<CGraphicMarkInstance>::`scalar deleting destructor', COMDAT
; _this$ = ecx
  00000	55		 push	 ebp
  00001	8b ec		 mov	 ebp, esp
  00003	56		 push	 esi
  00004	8b f1		 mov	 esi, ecx
  00006	e8 00 00 00 00	 call	 ??1?$CDynamicPool@VCGraphicMarkInstance@@@@UAE@XZ ; CDynamicPool<CGraphicMarkInstance>::~CDynamicPool<CGraphicMarkInstance>
  0000b	f6 45 08 01	 test	 BYTE PTR ___flags$[ebp], 1
  0000f	74 0b		 je	 SHORT $LN5@scalar
  00011	6a 24		 push	 36			; 00000024H
  00013	56		 push	 esi
  00014	e8 00 00 00 00	 call	 ??3@YAXPAXI@Z		; operator delete
  00019	83 c4 08	 add	 esp, 8
$LN5@scalar:
  0001c	8b c6		 mov	 eax, esi
  0001e	5e		 pop	 esi
  0001f	5d		 pop	 ebp
  00020	c2 04 00	 ret	 4
??_G?$CDynamicPool@VCGraphicMarkInstance@@@@UAEPAXI@Z ENDP ; CDynamicPool<CGraphicMarkInstance>::`scalar deleting destructor'
_TEXT	ENDS
; Function compile flags: /Ogtp
; File D:\Program Files\Microsoft Visual Studio\2022\Community\VC\Tools\MSVC\14.43.34808\include\vector
;	COMDAT ?_Xlength@?$vector@PAVCGraphicMarkInstance@@V?$allocator@PAVCGraphicMarkInstance@@@std@@@std@@CAXXZ
_TEXT	SEGMENT
?_Xlength@?$vector@PAVCGraphicMarkInstance@@V?$allocator@PAVCGraphicMarkInstance@@@std@@@std@@CAXXZ PROC ; std::vector<CGraphicMarkInstance *,std::allocator<CGraphicMarkInstance *> >::_Xlength, COMDAT

; 2169 :         _Xlength_error("vector too long");

  00000	68 00 00 00 00	 push	 OFFSET ??_C@_0BA@FOIKENOD@vector?5too?5long@
  00005	e8 00 00 00 00	 call	 ?_Xlength_error@std@@YAXPBD@Z ; std::_Xlength_error
$LN3@Xlength:
  0000a	cc		 int	 3
?_Xlength@?$vector@PAVCGraphicMarkInstance@@V?$allocator@PAVCGraphicMarkInstance@@@std@@@std@@CAXXZ ENDP ; std::vector<CGraphicMarkInstance *,std::allocator<CGraphicMarkInstance *> >::_Xlength
_TEXT	ENDS
; Function compile flags: /Ogtp
; File D:\Program Files\Microsoft Visual Studio\2022\Community\VC\Tools\MSVC\14.43.34808\include\vector
; File D:\Program Files\Microsoft Visual Studio\2022\Community\VC\Tools\MSVC\14.43.34808\include\xmemory
; File D:\Program Files\Microsoft Visual Studio\2022\Community\VC\Tools\MSVC\14.43.34808\include\vector
; File D:\Program Files\Microsoft Visual Studio\2022\Community\VC\Tools\MSVC\14.43.34808\include\xmemory
; File D:\Program Files\Microsoft Visual Studio\2022\Community\VC\Tools\MSVC\14.43.34808\include\vector
;	COMDAT ?_Change_array@?$vector@PAVCGraphicMarkInstance@@V?$allocator@PAVCGraphicMarkInstance@@@std@@@std@@AAEXQAPAVCGraphicMarkInstance@@II@Z
_TEXT	SEGMENT
__Newvec$ = 8						; size = 4
__Newsize$ = 12						; size = 4
__Newcapacity$ = 16					; size = 4
?_Change_array@?$vector@PAVCGraphicMarkInstance@@V?$allocator@PAVCGraphicMarkInstance@@@std@@@std@@AAEXQAPAVCGraphicMarkInstance@@II@Z PROC ; std::vector<CGraphicMarkInstance *,std::allocator<CGraphicMarkInstance *> >::_Change_array, COMDAT
; _this$ = ecx

; 2044 :         const pointer _Newvec, const size_type _Newsize, const size_type _Newcapacity) noexcept {

  00000	55		 push	 ebp
  00001	8b ec		 mov	 ebp, esp
  00003	56		 push	 esi
  00004	8b f1		 mov	 esi, ecx

; 2045 :         // orphan all iterators, discard old array, acquire new array
; 2046 :         auto& _Al         = _Getal();
; 2047 :         auto& _My_data    = _Mypair._Myval2;
; 2048 :         pointer& _Myfirst = _My_data._Myfirst;
; 2049 :         pointer& _Mylast  = _My_data._Mylast;
; 2050 :         pointer& _Myend   = _My_data._Myend;
; 2051 : 
; 2052 :         _My_data._Orphan_all();
; 2053 : 
; 2054 :         if (_Myfirst) { // destroy and deallocate old array

  00006	8b 06		 mov	 eax, DWORD PTR [esi]
  00008	85 c0		 test	 eax, eax
  0000a	74 2c		 je	 SHORT $LN10@Change_arr

; 2055 :             _STD _Destroy_range(_Myfirst, _Mylast, _Al);
; 2056 :             _ASAN_VECTOR_REMOVE;
; 2057 :             _Al.deallocate(_Myfirst, static_cast<size_type>(_Myend - _Myfirst));

  0000c	8b 4e 08	 mov	 ecx, DWORD PTR [esi+8]
  0000f	2b c8		 sub	 ecx, eax
; File D:\Program Files\Microsoft Visual Studio\2022\Community\VC\Tools\MSVC\14.43.34808\include\xmemory

; 981  :         _STD _Deallocate<_New_alignof<_Ty>>(_Ptr, sizeof(_Ty) * _Count);

  00011	83 e1 fc	 and	 ecx, -4			; fffffffcH

; 284  :         if (_Bytes >= _Big_allocation_threshold) {

  00014	81 f9 00 10 00
	00		 cmp	 ecx, 4096		; 00001000H
  0001a	72 12		 jb	 SHORT $LN21@Change_arr

; 205  :     const uintptr_t _Ptr_container   = _Ptr_user[-1];

  0001c	8b 50 fc	 mov	 edx, DWORD PTR [eax-4]
  0001f	83 c1 23	 add	 ecx, 35			; 00000023H

; 206  : 
; 207  :     // If the following asserts, it likely means that we are performing
; 208  :     // an aligned delete on memory coming from an unaligned allocation.
; 209  :     _STL_ASSERT(_Ptr_user[-2] == _Big_allocation_sentinel, "invalid argument");
; 210  : 
; 211  :     // Extra paranoia on aligned allocation/deallocation; ensure _Ptr_container is
; 212  :     // in range [_Min_back_shift, _Non_user_size]
; 213  : #ifdef _DEBUG
; 214  :     constexpr uintptr_t _Min_back_shift = 2 * sizeof(void*);
; 215  : #else // ^^^ defined(_DEBUG) / !defined(_DEBUG) vvv
; 216  :     constexpr uintptr_t _Min_back_shift = sizeof(void*);
; 217  : #endif // ^^^ !defined(_DEBUG) ^^^
; 218  :     const uintptr_t _Back_shift = reinterpret_cast<uintptr_t>(_Ptr) - _Ptr_container;

  00022	2b c2		 sub	 eax, edx

; 219  :     _STL_VERIFY(_Back_shift >= _Min_back_shift && _Back_shift <= _Non_user_size, "invalid argument");

  00024	83 c0 fc	 add	 eax, -4			; fffffffcH
  00027	83 f8 1f	 cmp	 eax, 31			; 0000001fH
  0002a	77 28		 ja	 SHORT $LN18@Change_arr

; 220  :     _Ptr = reinterpret_cast<void*>(_Ptr_container);

  0002c	8b c2		 mov	 eax, edx
$LN21@Change_arr:

; 289  :         ::operator delete(_Ptr, _Bytes);

  0002e	51		 push	 ecx
  0002f	50		 push	 eax
  00030	e8 00 00 00 00	 call	 ??3@YAXPAXI@Z		; operator delete
  00035	83 c4 08	 add	 esp, 8
$LN10@Change_arr:
; File D:\Program Files\Microsoft Visual Studio\2022\Community\VC\Tools\MSVC\14.43.34808\include\vector

; 2060 :         _Myfirst = _Newvec;

  00038	8b 4d 08	 mov	 ecx, DWORD PTR __Newvec$[ebp]

; 2061 :         _Mylast  = _Newvec + _Newsize;

  0003b	8b 45 0c	 mov	 eax, DWORD PTR __Newsize$[ebp]
  0003e	89 0e		 mov	 DWORD PTR [esi], ecx
  00040	8d 04 81	 lea	 eax, DWORD PTR [ecx+eax*4]
  00043	89 46 04	 mov	 DWORD PTR [esi+4], eax

; 2062 :         _Myend   = _Newvec + _Newcapacity;

  00046	8b 45 10	 mov	 eax, DWORD PTR __Newcapacity$[ebp]
  00049	8d 04 81	 lea	 eax, DWORD PTR [ecx+eax*4]
  0004c	89 46 08	 mov	 DWORD PTR [esi+8], eax
  0004f	5e		 pop	 esi

; 2064 :     }

  00050	5d		 pop	 ebp
  00051	c2 0c 00	 ret	 12			; 0000000cH
$LN18@Change_arr:
; File D:\Program Files\Microsoft Visual Studio\2022\Community\VC\Tools\MSVC\14.43.34808\include\xmemory

; 219  :     _STL_VERIFY(_Back_shift >= _Min_back_shift && _Back_shift <= _Non_user_size, "invalid argument");

  00054	e8 00 00 00 00	 call	 __invalid_parameter_noinfo_noreturn
$LN28@Change_arr:
  00059	cc		 int	 3
?_Change_array@?$vector@PAVCGraphicMarkInstance@@V?$allocator@PAVCGraphicMarkInstance@@@std@@@std@@AAEXQAPAVCGraphicMarkInstance@@II@Z ENDP ; std::vector<CGraphicMarkInstance *,std::allocator<CGraphicMarkInstance *> >::_Change_array
_TEXT	ENDS
; Function compile flags: /Ogtp
; File D:\Program Files\Microsoft Visual Studio\2022\Community\VC\Tools\MSVC\14.43.34808\include\vector
; File D:\Program Files\Microsoft Visual Studio\2022\Community\VC\Tools\MSVC\14.43.34808\include\xmemory
; File D:\Program Files\Microsoft Visual Studio\2022\Community\VC\Tools\MSVC\14.43.34808\include\vector
; File D:\Program Files\Microsoft Visual Studio\2022\Community\VC\Tools\MSVC\14.43.34808\include\xmemory
; File D:\Program Files\Microsoft Visual Studio\2022\Community\VC\Tools\MSVC\14.43.34808\include\vector
; File D:\Program Files\Microsoft Visual Studio\2022\Community\VC\Tools\MSVC\14.43.34808\include\xmemory
; File D:\Program Files\Microsoft Visual Studio\2022\Community\VC\Tools\MSVC\14.43.34808\include\vector
; File D:\Program Files\Microsoft Visual Studio\2022\Community\VC\Tools\MSVC\14.43.34808\include\xmemory
; File D:\Program Files\Microsoft Visual Studio\2022\Community\VC\Tools\MSVC\14.43.34808\include\vector
; File D:\Program Files\Microsoft Visual Studio\2022\Community\VC\Tools\MSVC\14.43.34808\include\xmemory
; File D:\Program Files\Microsoft Visual Studio\2022\Community\VC\Tools\MSVC\14.43.34808\include\vector
;	COMDAT ?reserve@?$vector@PAVCGraphicMarkInstance@@V?$allocator@PAVCGraphicMarkInstance@@@std@@@std@@QAEXI@Z
_TEXT	SEGMENT
__Newcapacity$ = 8					; size = 4
__Size$1$ = 8						; size = 4
?reserve@?$vector@PAVCGraphicMarkInstance@@V?$allocator@PAVCGraphicMarkInstance@@@std@@@std@@QAEXI@Z PROC ; std::vector<CGraphicMarkInstance *,std::allocator<CGraphicMarkInstance *> >::reserve, COMDAT
; _this$ = ecx

; 1708 :     _CONSTEXPR20 void reserve(_CRT_GUARDOVERFLOW size_type _Newcapacity) {

  00000	55		 push	 ebp
  00001	8b ec		 mov	 ebp, esp
  00003	56		 push	 esi
  00004	8b f1		 mov	 esi, ecx

; 1709 :         // increase capacity to _Newcapacity (without geometric growth), provide strong guarantee
; 1710 :         if (_Newcapacity > capacity()) { // something to do (reserve() never shrinks)

  00006	8b 4d 08	 mov	 ecx, DWORD PTR __Newcapacity$[ebp]

; 1909 :         return static_cast<size_type>(_My_data._Myend - _My_data._Myfirst);

  00009	8b 46 08	 mov	 eax, DWORD PTR [esi+8]
  0000c	8b 16		 mov	 edx, DWORD PTR [esi]
  0000e	2b c2		 sub	 eax, edx
  00010	c1 f8 02	 sar	 eax, 2

; 1709 :         // increase capacity to _Newcapacity (without geometric growth), provide strong guarantee
; 1710 :         if (_Newcapacity > capacity()) { // something to do (reserve() never shrinks)

  00013	3b c8		 cmp	 ecx, eax
  00015	0f 86 95 00 00
	00		 jbe	 $LN71@reserve

; 1711 :             if (_Newcapacity > max_size()) {

  0001b	81 f9 ff ff ff
	3f		 cmp	 ecx, 1073741823		; 3fffffffH
  00021	0f 87 93 00 00
	00		 ja	 $LN97@reserve

; 1634 :         const auto _Size = static_cast<size_type>(_Mylast - _Myfirst);

  00027	8b 46 04	 mov	 eax, DWORD PTR [esi+4]
  0002a	53		 push	 ebx
  0002b	2b c2		 sub	 eax, edx
; File D:\Program Files\Microsoft Visual Studio\2022\Community\VC\Tools\MSVC\14.43.34808\include\xmemory

; 122  :     return _Count * _Ty_size;

  0002d	8d 1c 8d 00 00
	00 00		 lea	 ebx, DWORD PTR [ecx*4]
; File D:\Program Files\Microsoft Visual Studio\2022\Community\VC\Tools\MSVC\14.43.34808\include\vector

; 1634 :         const auto _Size = static_cast<size_type>(_Mylast - _Myfirst);

  00034	c1 f8 02	 sar	 eax, 2
  00037	89 45 08	 mov	 DWORD PTR __Size$1$[ebp], eax
  0003a	57		 push	 edi
; File D:\Program Files\Microsoft Visual Studio\2022\Community\VC\Tools\MSVC\14.43.34808\include\xmemory

; 227  :     if (_Bytes == 0) {

  0003b	85 db		 test	 ebx, ebx
  0003d	75 04		 jne	 SHORT $LN20@reserve

; 228  :         return nullptr;

  0003f	33 ff		 xor	 edi, edi
  00041	eb 1a		 jmp	 SHORT $LN19@reserve
$LN20@reserve:

; 229  :     }
; 230  : 
; 231  : #if _HAS_CXX20 // TRANSITION, GH-1532
; 232  :     if (_STD is_constant_evaluated()) {
; 233  :         return _Traits::_Allocate(_Bytes);
; 234  :     }
; 235  : #endif // _HAS_CXX20
; 236  : 
; 237  : #ifdef __cpp_aligned_new
; 238  :     if constexpr (_Align > __STDCPP_DEFAULT_NEW_ALIGNMENT__) {
; 239  :         size_t _Passed_align = _Align;
; 240  : #if defined(_M_IX86) || defined(_M_X64)
; 241  :         if (_Bytes >= _Big_allocation_threshold) {
; 242  :             // boost the alignment of big allocations to help autovectorization
; 243  :             _Passed_align = (_STD max)(_Align, _Big_allocation_alignment);
; 244  :         }
; 245  : #endif // defined(_M_IX86) || defined(_M_X64)
; 246  :         return _Traits::_Allocate_aligned(_Bytes, _Passed_align);
; 247  :     } else
; 248  : #endif // defined(__cpp_aligned_new)
; 249  :     {
; 250  : #if defined(_M_IX86) || defined(_M_X64)
; 251  :         if (_Bytes >= _Big_allocation_threshold) {

  00043	53		 push	 ebx
  00044	81 fb 00 10 00
	00		 cmp	 ebx, 4096		; 00001000H
  0004a	72 07		 jb	 SHORT $LN21@reserve

; 252  :             // boost the alignment of big allocations to help autovectorization
; 253  :             return _Allocate_manually_vector_aligned<_Traits>(_Bytes);

  0004c	e8 00 00 00 00	 call	 ??$_Allocate_manually_vector_aligned@U_Default_allocate_traits@std@@@std@@YAPAXI@Z ; std::_Allocate_manually_vector_aligned<std::_Default_allocate_traits>
  00051	eb 05		 jmp	 SHORT $LN95@reserve
$LN21@reserve:

; 136  :         return ::operator new(_Bytes);

  00053	e8 00 00 00 00	 call	 ??2@YAPAXI@Z		; operator new
$LN95@reserve:

; 1955 :             _STD _Copy_memmove(_UFirst, _ULast, _STD _Unfancy(_Dest));

  00058	8b f8		 mov	 edi, eax
  0005a	83 c4 04	 add	 esp, 4
$LN19@reserve:
  0005d	57		 push	 edi
  0005e	ff 76 04	 push	 DWORD PTR [esi+4]
  00061	ff 36		 push	 DWORD PTR [esi]
  00063	e8 00 00 00 00	 call	 ??$_Copy_memmove@PAPAVCGraphicMarkInstance@@PAPAV1@@std@@YAPAPAVCGraphicMarkInstance@@PAPAV1@00@Z ; std::_Copy_memmove<CGraphicMarkInstance * *,CGraphicMarkInstance * *>
; File D:\Program Files\Microsoft Visual Studio\2022\Community\VC\Tools\MSVC\14.43.34808\include\vector

; 2054 :         if (_Myfirst) { // destroy and deallocate old array

  00068	8b 06		 mov	 eax, DWORD PTR [esi]
; File D:\Program Files\Microsoft Visual Studio\2022\Community\VC\Tools\MSVC\14.43.34808\include\xmemory

; 1955 :             _STD _Copy_memmove(_UFirst, _ULast, _STD _Unfancy(_Dest));

  0006a	83 c4 0c	 add	 esp, 12			; 0000000cH
; File D:\Program Files\Microsoft Visual Studio\2022\Community\VC\Tools\MSVC\14.43.34808\include\vector

; 2054 :         if (_Myfirst) { // destroy and deallocate old array

  0006d	85 c0		 test	 eax, eax
  0006f	74 2c		 je	 SHORT $LN47@reserve

; 2055 :             _STD _Destroy_range(_Myfirst, _Mylast, _Al);
; 2056 :             _ASAN_VECTOR_REMOVE;
; 2057 :             _Al.deallocate(_Myfirst, static_cast<size_type>(_Myend - _Myfirst));

  00071	8b 4e 08	 mov	 ecx, DWORD PTR [esi+8]
  00074	2b c8		 sub	 ecx, eax
; File D:\Program Files\Microsoft Visual Studio\2022\Community\VC\Tools\MSVC\14.43.34808\include\xmemory

; 981  :         _STD _Deallocate<_New_alignof<_Ty>>(_Ptr, sizeof(_Ty) * _Count);

  00076	83 e1 fc	 and	 ecx, -4			; fffffffcH

; 284  :         if (_Bytes >= _Big_allocation_threshold) {

  00079	81 f9 00 10 00
	00		 cmp	 ecx, 4096		; 00001000H
  0007f	72 12		 jb	 SHORT $LN58@reserve

; 205  :     const uintptr_t _Ptr_container   = _Ptr_user[-1];

  00081	8b 50 fc	 mov	 edx, DWORD PTR [eax-4]
  00084	83 c1 23	 add	 ecx, 35			; 00000023H

; 206  : 
; 207  :     // If the following asserts, it likely means that we are performing
; 208  :     // an aligned delete on memory coming from an unaligned allocation.
; 209  :     _STL_ASSERT(_Ptr_user[-2] == _Big_allocation_sentinel, "invalid argument");
; 210  : 
; 211  :     // Extra paranoia on aligned allocation/deallocation; ensure _Ptr_container is
; 212  :     // in range [_Min_back_shift, _Non_user_size]
; 213  : #ifdef _DEBUG
; 214  :     constexpr uintptr_t _Min_back_shift = 2 * sizeof(void*);
; 215  : #else // ^^^ defined(_DEBUG) / !defined(_DEBUG) vvv
; 216  :     constexpr uintptr_t _Min_back_shift = sizeof(void*);
; 217  : #endif // ^^^ !defined(_DEBUG) ^^^
; 218  :     const uintptr_t _Back_shift = reinterpret_cast<uintptr_t>(_Ptr) - _Ptr_container;

  00087	2b c2		 sub	 eax, edx

; 219  :     _STL_VERIFY(_Back_shift >= _Min_back_shift && _Back_shift <= _Non_user_size, "invalid argument");

  00089	83 c0 fc	 add	 eax, -4			; fffffffcH
  0008c	83 f8 1f	 cmp	 eax, 31			; 0000001fH
  0008f	77 24		 ja	 SHORT $LN55@reserve

; 220  :     _Ptr = reinterpret_cast<void*>(_Ptr_container);

  00091	8b c2		 mov	 eax, edx
$LN58@reserve:

; 289  :         ::operator delete(_Ptr, _Bytes);

  00093	51		 push	 ecx
  00094	50		 push	 eax
  00095	e8 00 00 00 00	 call	 ??3@YAXPAXI@Z		; operator delete
  0009a	83 c4 08	 add	 esp, 8
$LN47@reserve:
; File D:\Program Files\Microsoft Visual Studio\2022\Community\VC\Tools\MSVC\14.43.34808\include\vector

; 2061 :         _Mylast  = _Newvec + _Newsize;

  0009d	8b 45 08	 mov	 eax, DWORD PTR __Size$1$[ebp]
  000a0	89 3e		 mov	 DWORD PTR [esi], edi
  000a2	8d 04 87	 lea	 eax, DWORD PTR [edi+eax*4]
  000a5	89 46 04	 mov	 DWORD PTR [esi+4], eax

; 2062 :         _Myend   = _Newvec + _Newcapacity;

  000a8	8d 04 3b	 lea	 eax, DWORD PTR [ebx+edi]
  000ab	5f		 pop	 edi
  000ac	89 46 08	 mov	 DWORD PTR [esi+8], eax
  000af	5b		 pop	 ebx
$LN71@reserve:
  000b0	5e		 pop	 esi

; 1713 :             }
; 1714 : 
; 1715 :             _Reallocate<_Reallocation_policy::_At_least>(_Newcapacity);
; 1716 :         }
; 1717 :     }

  000b1	5d		 pop	 ebp
  000b2	c2 04 00	 ret	 4
$LN55@reserve:
; File D:\Program Files\Microsoft Visual Studio\2022\Community\VC\Tools\MSVC\14.43.34808\include\xmemory

; 219  :     _STL_VERIFY(_Back_shift >= _Min_back_shift && _Back_shift <= _Non_user_size, "invalid argument");

  000b5	e8 00 00 00 00	 call	 __invalid_parameter_noinfo_noreturn
$LN97@reserve:
; File D:\Program Files\Microsoft Visual Studio\2022\Community\VC\Tools\MSVC\14.43.34808\include\vector

; 1712 :                 _Xlength();

  000ba	e8 00 00 00 00	 call	 ?_Xlength@?$vector@PAVCGraphicMarkInstance@@V?$allocator@PAVCGraphicMarkInstance@@@std@@@std@@CAXXZ ; std::vector<CGraphicMarkInstance *,std::allocator<CGraphicMarkInstance *> >::_Xlength
$LN94@reserve:
  000bf	cc		 int	 3
?reserve@?$vector@PAVCGraphicMarkInstance@@V?$allocator@PAVCGraphicMarkInstance@@@std@@@std@@QAEXI@Z ENDP ; std::vector<CGraphicMarkInstance *,std::allocator<CGraphicMarkInstance *> >::reserve
_TEXT	ENDS
; Function compile flags: /Ogtp
; File D:\Program Files\Microsoft Visual Studio\2022\Community\VC\Tools\MSVC\14.43.34808\include\vector
; File D:\Program Files\Microsoft Visual Studio\2022\Community\VC\Tools\MSVC\14.43.34808\include\xmemory
; File D:\Program Files\Microsoft Visual Studio\2022\Community\VC\Tools\MSVC\14.43.34808\include\vector
; File D:\Program Files\Microsoft Visual Studio\2022\Community\VC\Tools\MSVC\14.43.34808\include\xmemory
; File D:\Program Files\Microsoft Visual Studio\2022\Community\VC\Tools\MSVC\14.43.34808\include\vector
; File D:\Program Files\Microsoft Visual Studio\2022\Community\VC\Tools\MSVC\14.43.34808\include\xmemory
; File D:\Program Files\Microsoft Visual Studio\2022\Community\VC\Tools\MSVC\14.43.34808\include\vector
; File D:\Program Files\Microsoft Visual Studio\2022\Community\VC\Tools\MSVC\14.43.34808\include\xmemory
; File D:\Program Files\Microsoft Visual Studio\2022\Community\VC\Tools\MSVC\14.43.34808\include\vector
; File D:\Program Files\Microsoft Visual Studio\2022\Community\VC\Tools\MSVC\14.43.34808\include\xmemory
; File D:\Program Files\Microsoft Visual Studio\2022\Community\VC\Tools\MSVC\14.43.34808\include\vector
; File D:\Program Files\Microsoft Visual Studio\2022\Community\VC\Tools\MSVC\14.43.34808\include\xmemory
; File D:\Program Files\Microsoft Visual Studio\2022\Community\VC\Tools\MSVC\14.43.34808\include\vector
; File D:\Program Files\Microsoft Visual Studio\2022\Community\VC\Tools\MSVC\14.43.34808\include\xmemory
; File D:\Program Files\Microsoft Visual Studio\2022\Community\VC\Tools\MSVC\14.43.34808\include\vector
;	COMDAT ?push_back@?$vector@PAVCGraphicMarkInstance@@V?$allocator@PAVCGraphicMarkInstance@@@std@@@std@@QAEXABQAVCGraphicMarkInstance@@@Z
_TEXT	SEGMENT
__Oldsize$1$ = -12					; size = 4
tv621 = -12						; size = 4
__Newsize$1$ = -8					; size = 4
$T1 = -4						; size = 4
__Val$ = 8						; size = 4
?push_back@?$vector@PAVCGraphicMarkInstance@@V?$allocator@PAVCGraphicMarkInstance@@@std@@@std@@QAEXABQAVCGraphicMarkInstance@@@Z PROC ; std::vector<CGraphicMarkInstance *,std::allocator<CGraphicMarkInstance *> >::push_back, COMDAT
; _this$ = ecx

; 917  :     _CONSTEXPR20 void push_back(const _Ty& _Val) { // insert element at end, provide strong guarantee

  00000	55		 push	 ebp
  00001	8b ec		 mov	 ebp, esp
  00003	83 ec 0c	 sub	 esp, 12			; 0000000cH
  00006	53		 push	 ebx
  00007	56		 push	 esi
  00008	8b f1		 mov	 esi, ecx
  0000a	57		 push	 edi

; 829  :         if (_Mylast != _My_data._Myend) {

  0000b	8b 4e 04	 mov	 ecx, DWORD PTR [esi+4]
  0000e	8b 56 08	 mov	 edx, DWORD PTR [esi+8]
  00011	89 4d fc	 mov	 DWORD PTR $T1[ebp], ecx
  00014	3b ca		 cmp	 ecx, edx
  00016	74 14		 je	 SHORT $LN4@push_back

; 845  :             _STD _Construct_in_place(*_Mylast, _STD forward<_Valty>(_Val)...);

  00018	8b 45 08	 mov	 eax, DWORD PTR __Val$[ebp]
  0001b	8b 00		 mov	 eax, DWORD PTR [eax]
  0001d	89 01		 mov	 DWORD PTR [ecx], eax

; 846  :         } else {
; 847  :             _ASAN_VECTOR_EXTEND_GUARD(static_cast<size_type>(_Mylast - _My_data._Myfirst) + 1);
; 848  :             _Alty_traits::construct(_Getal(), _Unfancy(_Mylast), _STD forward<_Valty>(_Val)...);
; 849  :             _ASAN_VECTOR_RELEASE_GUARD;
; 850  :         }
; 851  : 
; 852  :         _Orphan_range(_Mylast, _Mylast);
; 853  :         _Ty& _Result = *_Mylast;
; 854  :         ++_Mylast;

  0001f	83 46 04 04	 add	 DWORD PTR [esi+4], 4

; 919  :     }

  00023	5f		 pop	 edi
  00024	5e		 pop	 esi
  00025	5b		 pop	 ebx
  00026	8b e5		 mov	 esp, ebp
  00028	5d		 pop	 ebp
  00029	c2 04 00	 ret	 4
$LN4@push_back:

; 869  :         const auto _Whereoff = static_cast<size_type>(_Whereptr - _Myfirst);

  0002c	8b 3e		 mov	 edi, DWORD PTR [esi]
  0002e	8b c1		 mov	 eax, ecx
  00030	2b c7		 sub	 eax, edi
  00032	c1 f8 02	 sar	 eax, 2
  00035	89 45 f4	 mov	 DWORD PTR __Oldsize$1$[ebp], eax

; 870  :         const auto _Oldsize  = static_cast<size_type>(_Mylast - _Myfirst);
; 871  : 
; 872  :         if (_Oldsize == max_size()) {

  00038	3d ff ff ff 3f	 cmp	 eax, 1073741823		; 3fffffffH
  0003d	0f 84 c0 00 00
	00		 je	 $LN106@push_back

; 1909 :         return static_cast<size_type>(_My_data._Myend - _My_data._Myfirst);

  00043	2b d7		 sub	 edx, edi

; 876  :         const size_type _Newsize = _Oldsize + 1;

  00045	8d 58 01	 lea	 ebx, DWORD PTR [eax+1]

; 1909 :         return static_cast<size_type>(_My_data._Myend - _My_data._Myfirst);

  00048	c1 fa 02	 sar	 edx, 2

; 1996 :         if (_Oldcapacity > _Max - _Oldcapacity / 2) {

  0004b	b8 ff ff ff 3f	 mov	 eax, 1073741823		; 3fffffffH
  00050	8b fa		 mov	 edi, edx

; 876  :         const size_type _Newsize = _Oldsize + 1;

  00052	89 5d f8	 mov	 DWORD PTR __Newsize$1$[ebp], ebx

; 1996 :         if (_Oldcapacity > _Max - _Oldcapacity / 2) {

  00055	d1 ef		 shr	 edi, 1
  00057	2b c7		 sub	 eax, edi
  00059	3b d0		 cmp	 edx, eax
  0005b	76 12		 jbe	 SHORT $LN15@push_back

; 1997 :             return _Max; // geometric growth would overflow

  0005d	b8 fc ff ff ff	 mov	 eax, -4			; fffffffcH
  00062	bb ff ff ff 3f	 mov	 ebx, 1073741823		; 3fffffffH
; File D:\Program Files\Microsoft Visual Studio\2022\Community\VC\Tools\MSVC\14.43.34808\include\xmemory

; 253  :             return _Allocate_manually_vector_aligned<_Traits>(_Bytes);

  00067	50		 push	 eax
  00068	e8 00 00 00 00	 call	 ??$_Allocate_manually_vector_aligned@U_Default_allocate_traits@std@@@std@@YAPAXI@Z ; std::_Allocate_manually_vector_aligned<std::_Default_allocate_traits>
  0006d	eb 38		 jmp	 SHORT $LN104@push_back
$LN15@push_back:
; File D:\Program Files\Microsoft Visual Studio\2022\Community\VC\Tools\MSVC\14.43.34808\include\vector

; 2000 :         const size_type _Geometric = _Oldcapacity + _Oldcapacity / 2;

  0006f	8d 04 17	 lea	 eax, DWORD PTR [edi+edx]
; File D:\Program Files\Microsoft Visual Studio\2022\Community\VC\Tools\MSVC\14.43.34808\include\xmemory

; 117  :         if (_Count > _Max_possible) {

  00072	3b c3		 cmp	 eax, ebx
  00074	0f 43 d8	 cmovae	 ebx, eax
  00077	81 fb ff ff ff
	3f		 cmp	 ebx, 1073741823		; 3fffffffH
  0007d	0f 87 85 00 00
	00		 ja	 $LN107@push_back

; 119  :         }
; 120  :     }
; 121  : 
; 122  :     return _Count * _Ty_size;

  00083	8d 04 9d 00 00
	00 00		 lea	 eax, DWORD PTR [ebx*4]

; 227  :     if (_Bytes == 0) {

  0008a	85 c0		 test	 eax, eax
  0008c	75 04		 jne	 SHORT $LN30@push_back

; 228  :         return nullptr;

  0008e	33 ff		 xor	 edi, edi
  00090	eb 1d		 jmp	 SHORT $LN29@push_back
$LN30@push_back:

; 229  :     }
; 230  : 
; 231  : #if _HAS_CXX20 // TRANSITION, GH-1532
; 232  :     if (_STD is_constant_evaluated()) {
; 233  :         return _Traits::_Allocate(_Bytes);
; 234  :     }
; 235  : #endif // _HAS_CXX20
; 236  : 
; 237  : #ifdef __cpp_aligned_new
; 238  :     if constexpr (_Align > __STDCPP_DEFAULT_NEW_ALIGNMENT__) {
; 239  :         size_t _Passed_align = _Align;
; 240  : #if defined(_M_IX86) || defined(_M_X64)
; 241  :         if (_Bytes >= _Big_allocation_threshold) {
; 242  :             // boost the alignment of big allocations to help autovectorization
; 243  :             _Passed_align = (_STD max)(_Align, _Big_allocation_alignment);
; 244  :         }
; 245  : #endif // defined(_M_IX86) || defined(_M_X64)
; 246  :         return _Traits::_Allocate_aligned(_Bytes, _Passed_align);
; 247  :     } else
; 248  : #endif // defined(__cpp_aligned_new)
; 249  :     {
; 250  : #if defined(_M_IX86) || defined(_M_X64)
; 251  :         if (_Bytes >= _Big_allocation_threshold) {

  00092	3d 00 10 00 00	 cmp	 eax, 4096		; 00001000H
  00097	72 08		 jb	 SHORT $LN31@push_back

; 253  :             return _Allocate_manually_vector_aligned<_Traits>(_Bytes);

  00099	50		 push	 eax
  0009a	e8 00 00 00 00	 call	 ??$_Allocate_manually_vector_aligned@U_Default_allocate_traits@std@@@std@@YAPAXI@Z ; std::_Allocate_manually_vector_aligned<std::_Default_allocate_traits>
  0009f	eb 06		 jmp	 SHORT $LN104@push_back
$LN31@push_back:

; 136  :         return ::operator new(_Bytes);

  000a1	50		 push	 eax
  000a2	e8 00 00 00 00	 call	 ??2@YAPAXI@Z		; operator new
$LN104@push_back:
; File D:\Program Files\Microsoft Visual Studio\2022\Community\VC\Tools\MSVC\14.43.34808\include\vector

; 885  :         _Alty_traits::construct(_Al, _STD _Unfancy(_Newvec + _Whereoff), _STD forward<_Valty>(_Val)...);

  000a7	8b 4d fc	 mov	 ecx, DWORD PTR $T1[ebp]
  000aa	8b f8		 mov	 edi, eax
  000ac	83 c4 04	 add	 esp, 4
$LN29@push_back:
  000af	8b 45 f4	 mov	 eax, DWORD PTR __Oldsize$1$[ebp]
  000b2	8d 14 87	 lea	 edx, DWORD PTR [edi+eax*4]
  000b5	8b 45 08	 mov	 eax, DWORD PTR __Val$[ebp]
  000b8	89 55 f4	 mov	 DWORD PTR tv621[ebp], edx
  000bb	8b 00		 mov	 eax, DWORD PTR [eax]
  000bd	89 02		 mov	 DWORD PTR [edx], eax

; 886  :         _Constructed_first = _Newvec + _Whereoff;
; 887  : 
; 888  :         if (_Whereptr == _Mylast) { // at back, provide strong guarantee

  000bf	8b 46 04	 mov	 eax, DWORD PTR [esi+4]
  000c2	8b 16		 mov	 edx, DWORD PTR [esi]
  000c4	3b c8		 cmp	 ecx, eax
  000c6	75 04		 jne	 SHORT $LN10@push_back
; File D:\Program Files\Microsoft Visual Studio\2022\Community\VC\Tools\MSVC\14.43.34808\include\xmemory

; 1955 :             _STD _Copy_memmove(_UFirst, _ULast, _STD _Unfancy(_Dest));

  000c8	8b cf		 mov	 ecx, edi
; File D:\Program Files\Microsoft Visual Studio\2022\Community\VC\Tools\MSVC\14.43.34808\include\vector

; 894  :         } else { // provide basic guarantee

  000ca	eb 17		 jmp	 SHORT $LN59@push_back
$LN10@push_back:
; File D:\Program Files\Microsoft Visual Studio\2022\Community\VC\Tools\MSVC\14.43.34808\include\xmemory

; 1955 :             _STD _Copy_memmove(_UFirst, _ULast, _STD _Unfancy(_Dest));

  000cc	57		 push	 edi
  000cd	51		 push	 ecx
  000ce	52		 push	 edx
  000cf	e8 00 00 00 00	 call	 ??$_Copy_memmove@PAPAVCGraphicMarkInstance@@PAPAV1@@std@@YAPAPAVCGraphicMarkInstance@@PAPAV1@00@Z ; std::_Copy_memmove<CGraphicMarkInstance * *,CGraphicMarkInstance * *>
; File D:\Program Files\Microsoft Visual Studio\2022\Community\VC\Tools\MSVC\14.43.34808\include\vector

; 897  :             _STD _Uninitialized_move(_Whereptr, _Mylast, _Newvec + _Whereoff + 1, _Al);

  000d4	8b 4d f4	 mov	 ecx, DWORD PTR tv621[ebp]
; File D:\Program Files\Microsoft Visual Studio\2022\Community\VC\Tools\MSVC\14.43.34808\include\xmemory

; 1955 :             _STD _Copy_memmove(_UFirst, _ULast, _STD _Unfancy(_Dest));

  000d7	83 c4 0c	 add	 esp, 12			; 0000000cH
  000da	8b 55 fc	 mov	 edx, DWORD PTR $T1[ebp]
; File D:\Program Files\Microsoft Visual Studio\2022\Community\VC\Tools\MSVC\14.43.34808\include\vector

; 897  :             _STD _Uninitialized_move(_Whereptr, _Mylast, _Newvec + _Whereoff + 1, _Al);

  000dd	83 c1 04	 add	 ecx, 4
; File D:\Program Files\Microsoft Visual Studio\2022\Community\VC\Tools\MSVC\14.43.34808\include\xmemory

; 1955 :             _STD _Copy_memmove(_UFirst, _ULast, _STD _Unfancy(_Dest));

  000e0	8b 46 04	 mov	 eax, DWORD PTR [esi+4]
$LN59@push_back:
; File D:\Program Files\Microsoft Visual Studio\2022\Community\VC\Tools\MSVC\14.43.34808\include\vector

; 900  :         _Guard._New_begin = nullptr;

  000e3	51		 push	 ecx
  000e4	50		 push	 eax
  000e5	52		 push	 edx
  000e6	e8 00 00 00 00	 call	 ??$_Copy_memmove@PAPAVCGraphicMarkInstance@@PAPAV1@@std@@YAPAPAVCGraphicMarkInstance@@PAPAV1@00@Z ; std::_Copy_memmove<CGraphicMarkInstance * *,CGraphicMarkInstance * *>
  000eb	83 c4 0c	 add	 esp, 12			; 0000000cH

; 901  :         _Change_array(_Newvec, _Newsize, _Newcapacity);

  000ee	8b ce		 mov	 ecx, esi
  000f0	53		 push	 ebx
  000f1	ff 75 f8	 push	 DWORD PTR __Newsize$1$[ebp]
  000f4	57		 push	 edi
  000f5	e8 00 00 00 00	 call	 ?_Change_array@?$vector@PAVCGraphicMarkInstance@@V?$allocator@PAVCGraphicMarkInstance@@@std@@@std@@AAEXQAPAVCGraphicMarkInstance@@II@Z ; std::vector<CGraphicMarkInstance *,std::allocator<CGraphicMarkInstance *> >::_Change_array

; 919  :     }

  000fa	5f		 pop	 edi
  000fb	5e		 pop	 esi
  000fc	5b		 pop	 ebx
  000fd	8b e5		 mov	 esp, ebp
  000ff	5d		 pop	 ebp
  00100	c2 04 00	 ret	 4
$LN106@push_back:

; 873  :             _Xlength();

  00103	e8 00 00 00 00	 call	 ?_Xlength@?$vector@PAVCGraphicMarkInstance@@V?$allocator@PAVCGraphicMarkInstance@@@std@@@std@@CAXXZ ; std::vector<CGraphicMarkInstance *,std::allocator<CGraphicMarkInstance *> >::_Xlength
$LN107@push_back:
; File D:\Program Files\Microsoft Visual Studio\2022\Community\VC\Tools\MSVC\14.43.34808\include\xmemory

; 118  :             _Throw_bad_array_new_length(); // multiply overflow

  00108	e8 00 00 00 00	 call	 ?_Throw_bad_array_new_length@std@@YAXXZ ; std::_Throw_bad_array_new_length
$LN103@push_back:
  0010d	cc		 int	 3
?push_back@?$vector@PAVCGraphicMarkInstance@@V?$allocator@PAVCGraphicMarkInstance@@@std@@@std@@QAEXABQAVCGraphicMarkInstance@@@Z ENDP ; std::vector<CGraphicMarkInstance *,std::allocator<CGraphicMarkInstance *> >::push_back
_TEXT	ENDS
; Function compile flags: /Ogtp
; File C:\Marty 5.5\Src-Client\Client\EterLib\Pool.h
; File D:\Program Files\Microsoft Visual Studio\2022\Community\VC\Tools\MSVC\14.43.34808\include\vector
; File D:\Program Files\Microsoft Visual Studio\2022\Community\VC\Tools\MSVC\14.43.34808\include\xmemory
; File D:\Program Files\Microsoft Visual Studio\2022\Community\VC\Tools\MSVC\14.43.34808\include\vector
; File D:\Program Files\Microsoft Visual Studio\2022\Community\VC\Tools\MSVC\14.43.34808\include\xmemory
; File D:\Program Files\Microsoft Visual Studio\2022\Community\VC\Tools\MSVC\14.43.34808\include\vector
; File D:\Program Files\Microsoft Visual Studio\2022\Community\VC\Tools\MSVC\14.43.34808\include\xmemory
; File D:\Program Files\Microsoft Visual Studio\2022\Community\VC\Tools\MSVC\14.43.34808\include\vector
; File D:\Program Files\Microsoft Visual Studio\2022\Community\VC\Tools\MSVC\14.43.34808\include\xmemory
; File D:\Program Files\Microsoft Visual Studio\2022\Community\VC\Tools\MSVC\14.43.34808\include\vector
; File C:\Marty 5.5\Src-Client\Client\EterLib\Pool.h
; File D:\Program Files\Microsoft Visual Studio\2022\Community\VC\Tools\MSVC\14.43.34808\include\xmemory
; File C:\Marty 5.5\Src-Client\Client\EterLib\Pool.h
;	COMDAT ??1?$CDynamicPool@VCGraphicMarkInstance@@@@UAE@XZ
_TEXT	SEGMENT
??1?$CDynamicPool@VCGraphicMarkInstance@@@@UAE@XZ PROC	; CDynamicPool<CGraphicMarkInstance>::~CDynamicPool<CGraphicMarkInstance>, COMDAT
; _this$ = ecx

; 18   : 		{

  00000	56		 push	 esi
  00001	8b f1		 mov	 esi, ecx
  00003	c7 06 00 00 00
	00		 mov	 DWORD PTR [esi], OFFSET ??_7?$CDynamicPool@VCGraphicMarkInstance@@@@6B@
; File D:\Program Files\Microsoft Visual Studio\2022\Community\VC\Tools\MSVC\14.43.34808\include\vector

; 2075 :         if (_Myfirst) { // destroy and deallocate old array

  00009	8b 46 10	 mov	 eax, DWORD PTR [esi+16]
  0000c	85 c0		 test	 eax, eax
  0000e	74 41		 je	 SHORT $LN8@CDynamicPo

; 2076 :             _STD _Destroy_range(_Myfirst, _Mylast, _Al);
; 2077 :             _ASAN_VECTOR_REMOVE;
; 2078 :             _Al.deallocate(_Myfirst, static_cast<size_type>(_Myend - _Myfirst));

  00010	8b 4e 18	 mov	 ecx, DWORD PTR [esi+24]
  00013	2b c8		 sub	 ecx, eax
; File D:\Program Files\Microsoft Visual Studio\2022\Community\VC\Tools\MSVC\14.43.34808\include\xmemory

; 981  :         _STD _Deallocate<_New_alignof<_Ty>>(_Ptr, sizeof(_Ty) * _Count);

  00015	83 e1 fc	 and	 ecx, -4			; fffffffcH

; 284  :         if (_Bytes >= _Big_allocation_threshold) {

  00018	81 f9 00 10 00
	00		 cmp	 ecx, 4096		; 00001000H
  0001e	72 12		 jb	 SHORT $LN27@CDynamicPo

; 205  :     const uintptr_t _Ptr_container   = _Ptr_user[-1];

  00020	8b 50 fc	 mov	 edx, DWORD PTR [eax-4]
  00023	83 c1 23	 add	 ecx, 35			; 00000023H

; 206  : 
; 207  :     // If the following asserts, it likely means that we are performing
; 208  :     // an aligned delete on memory coming from an unaligned allocation.
; 209  :     _STL_ASSERT(_Ptr_user[-2] == _Big_allocation_sentinel, "invalid argument");
; 210  : 
; 211  :     // Extra paranoia on aligned allocation/deallocation; ensure _Ptr_container is
; 212  :     // in range [_Min_back_shift, _Non_user_size]
; 213  : #ifdef _DEBUG
; 214  :     constexpr uintptr_t _Min_back_shift = 2 * sizeof(void*);
; 215  : #else // ^^^ defined(_DEBUG) / !defined(_DEBUG) vvv
; 216  :     constexpr uintptr_t _Min_back_shift = sizeof(void*);
; 217  : #endif // ^^^ !defined(_DEBUG) ^^^
; 218  :     const uintptr_t _Back_shift = reinterpret_cast<uintptr_t>(_Ptr) - _Ptr_container;

  00026	2b c2		 sub	 eax, edx

; 219  :     _STL_VERIFY(_Back_shift >= _Min_back_shift && _Back_shift <= _Non_user_size, "invalid argument");

  00028	83 c0 fc	 add	 eax, -4			; fffffffcH
  0002b	83 f8 1f	 cmp	 eax, 31			; 0000001fH
  0002e	77 6b		 ja	 SHORT $LN53@CDynamicPo

; 220  :     _Ptr = reinterpret_cast<void*>(_Ptr_container);

  00030	8b c2		 mov	 eax, edx
$LN27@CDynamicPo:

; 289  :         ::operator delete(_Ptr, _Bytes);

  00032	51		 push	 ecx
  00033	50		 push	 eax
  00034	e8 00 00 00 00	 call	 ??3@YAXPAXI@Z		; operator delete
; File D:\Program Files\Microsoft Visual Studio\2022\Community\VC\Tools\MSVC\14.43.34808\include\vector

; 2080 :             _Myfirst = nullptr;

  00039	c7 46 10 00 00
	00 00		 mov	 DWORD PTR [esi+16], 0
; File D:\Program Files\Microsoft Visual Studio\2022\Community\VC\Tools\MSVC\14.43.34808\include\xmemory

; 289  :         ::operator delete(_Ptr, _Bytes);

  00040	83 c4 08	 add	 esp, 8
; File D:\Program Files\Microsoft Visual Studio\2022\Community\VC\Tools\MSVC\14.43.34808\include\vector

; 2081 :             _Mylast  = nullptr;

  00043	c7 46 14 00 00
	00 00		 mov	 DWORD PTR [esi+20], 0

; 2082 :             _Myend   = nullptr;

  0004a	c7 46 18 00 00
	00 00		 mov	 DWORD PTR [esi+24], 0
$LN8@CDynamicPo:

; 2075 :         if (_Myfirst) { // destroy and deallocate old array

  00051	8b 46 04	 mov	 eax, DWORD PTR [esi+4]
  00054	85 c0		 test	 eax, eax
  00056	74 41		 je	 SHORT $LN37@CDynamicPo

; 2076 :             _STD _Destroy_range(_Myfirst, _Mylast, _Al);
; 2077 :             _ASAN_VECTOR_REMOVE;
; 2078 :             _Al.deallocate(_Myfirst, static_cast<size_type>(_Myend - _Myfirst));

  00058	8b 4e 0c	 mov	 ecx, DWORD PTR [esi+12]
  0005b	2b c8		 sub	 ecx, eax
; File D:\Program Files\Microsoft Visual Studio\2022\Community\VC\Tools\MSVC\14.43.34808\include\xmemory

; 981  :         _STD _Deallocate<_New_alignof<_Ty>>(_Ptr, sizeof(_Ty) * _Count);

  0005d	83 e1 fc	 and	 ecx, -4			; fffffffcH

; 284  :         if (_Bytes >= _Big_allocation_threshold) {

  00060	81 f9 00 10 00
	00		 cmp	 ecx, 4096		; 00001000H
  00066	72 12		 jb	 SHORT $LN56@CDynamicPo

; 205  :     const uintptr_t _Ptr_container   = _Ptr_user[-1];

  00068	8b 50 fc	 mov	 edx, DWORD PTR [eax-4]
  0006b	83 c1 23	 add	 ecx, 35			; 00000023H

; 206  : 
; 207  :     // If the following asserts, it likely means that we are performing
; 208  :     // an aligned delete on memory coming from an unaligned allocation.
; 209  :     _STL_ASSERT(_Ptr_user[-2] == _Big_allocation_sentinel, "invalid argument");
; 210  : 
; 211  :     // Extra paranoia on aligned allocation/deallocation; ensure _Ptr_container is
; 212  :     // in range [_Min_back_shift, _Non_user_size]
; 213  : #ifdef _DEBUG
; 214  :     constexpr uintptr_t _Min_back_shift = 2 * sizeof(void*);
; 215  : #else // ^^^ defined(_DEBUG) / !defined(_DEBUG) vvv
; 216  :     constexpr uintptr_t _Min_back_shift = sizeof(void*);
; 217  : #endif // ^^^ !defined(_DEBUG) ^^^
; 218  :     const uintptr_t _Back_shift = reinterpret_cast<uintptr_t>(_Ptr) - _Ptr_container;

  0006e	2b c2		 sub	 eax, edx

; 219  :     _STL_VERIFY(_Back_shift >= _Min_back_shift && _Back_shift <= _Non_user_size, "invalid argument");

  00070	83 c0 fc	 add	 eax, -4			; fffffffcH
  00073	83 f8 1f	 cmp	 eax, 31			; 0000001fH
  00076	77 23		 ja	 SHORT $LN53@CDynamicPo

; 220  :     _Ptr = reinterpret_cast<void*>(_Ptr_container);

  00078	8b c2		 mov	 eax, edx
$LN56@CDynamicPo:

; 289  :         ::operator delete(_Ptr, _Bytes);

  0007a	51		 push	 ecx
  0007b	50		 push	 eax
  0007c	e8 00 00 00 00	 call	 ??3@YAXPAXI@Z		; operator delete
; File D:\Program Files\Microsoft Visual Studio\2022\Community\VC\Tools\MSVC\14.43.34808\include\vector

; 2080 :             _Myfirst = nullptr;

  00081	c7 46 04 00 00
	00 00		 mov	 DWORD PTR [esi+4], 0
; File D:\Program Files\Microsoft Visual Studio\2022\Community\VC\Tools\MSVC\14.43.34808\include\xmemory

; 289  :         ::operator delete(_Ptr, _Bytes);

  00088	83 c4 08	 add	 esp, 8
; File D:\Program Files\Microsoft Visual Studio\2022\Community\VC\Tools\MSVC\14.43.34808\include\vector

; 2081 :             _Mylast  = nullptr;

  0008b	c7 46 08 00 00
	00 00		 mov	 DWORD PTR [esi+8], 0

; 2082 :             _Myend   = nullptr;

  00092	c7 46 0c 00 00
	00 00		 mov	 DWORD PTR [esi+12], 0
$LN37@CDynamicPo:
  00099	5e		 pop	 esi
; File C:\Marty 5.5\Src-Client\Client\EterLib\Pool.h

; 26   : 		}

  0009a	c3		 ret	 0
$LN53@CDynamicPo:
; File D:\Program Files\Microsoft Visual Studio\2022\Community\VC\Tools\MSVC\14.43.34808\include\xmemory

; 219  :     _STL_VERIFY(_Back_shift >= _Min_back_shift && _Back_shift <= _Non_user_size, "invalid argument");

  0009b	e8 00 00 00 00	 call	 __invalid_parameter_noinfo_noreturn
$LN67@CDynamicPo:
  000a0	cc		 int	 3
??1?$CDynamicPool@VCGraphicMarkInstance@@@@UAE@XZ ENDP	; CDynamicPool<CGraphicMarkInstance>::~CDynamicPool<CGraphicMarkInstance>
_TEXT	ENDS
; Function compile flags: /Ogtp
;	COMDAT ??_GCGraphicMarkInstance@@UAEPAXI@Z
_TEXT	SEGMENT
___flags$ = 8						; size = 4
??_GCGraphicMarkInstance@@UAEPAXI@Z PROC		; CGraphicMarkInstance::`scalar deleting destructor', COMDAT
; _this$ = ecx
  00000	55		 push	 ebp
  00001	8b ec		 mov	 ebp, esp
  00003	56		 push	 esi
  00004	8b f1		 mov	 esi, ecx
  00006	e8 00 00 00 00	 call	 ??1CGraphicMarkInstance@@UAE@XZ ; CGraphicMarkInstance::~CGraphicMarkInstance
  0000b	f6 45 08 01	 test	 BYTE PTR ___flags$[ebp], 1
  0000f	74 0b		 je	 SHORT $LN5@scalar
  00011	6a 44		 push	 68			; 00000044H
  00013	56		 push	 esi
  00014	e8 00 00 00 00	 call	 ??3@YAXPAXI@Z		; operator delete
  00019	83 c4 08	 add	 esp, 8
$LN5@scalar:
  0001c	8b c6		 mov	 eax, esi
  0001e	5e		 pop	 esi
  0001f	5d		 pop	 ebp
  00020	c2 04 00	 ret	 4
??_GCGraphicMarkInstance@@UAEPAXI@Z ENDP		; CGraphicMarkInstance::`scalar deleting destructor'
_TEXT	ENDS
; Function compile flags: /Ogtp
; File C:\Marty 5.5\Src-Client\Client\EterLib\GrpMarkInstance.cpp
; File C:\Marty 5.5\Src-Client\Client\EterLib\Pool.h
; File C:\Marty 5.5\Src-Client\Client\EterLib\GrpMarkInstance.cpp
; File C:\Marty 5.5\Src-Client\Client\EterLib\Pool.h
; File C:\Marty 5.5\Src-Client\Client\EterLib\GrpMarkInstance.cpp
;	COMDAT ?Delete@CGraphicMarkInstance@@SAXPAV1@@Z
_TEXT	SEGMENT
_pkImgInst$ = 8						; size = 4
_pkData$ = 8						; size = 4
?Delete@CGraphicMarkInstance@@SAXPAV1@@Z PROC		; CGraphicMarkInstance::Delete, COMDAT

; 36   : {

  00000	55		 push	 ebp
  00001	8b ec		 mov	 ebp, esp
  00003	56		 push	 esi

; 37   : 	pkImgInst->Destroy();

  00004	8b 75 08	 mov	 esi, DWORD PTR _pkImgInst$[ebp]
  00007	8b ce		 mov	 ecx, esi
  00009	e8 00 00 00 00	 call	 ?Destroy@CGraphicMarkInstance@@QAEXXZ ; CGraphicMarkInstance::Destroy
; File C:\Marty 5.5\Src-Client\Client\EterLib\Pool.h

; 82   : 			m_kVct_pkFree.push_back(pkData);

  0000e	8d 45 08	 lea	 eax, DWORD PTR _pkData$[ebp]
; File C:\Marty 5.5\Src-Client\Client\EterLib\GrpMarkInstance.cpp

; 38   : 	ms_kPool.Free(pkImgInst);

  00011	89 75 08	 mov	 DWORD PTR _pkData$[ebp], esi
; File C:\Marty 5.5\Src-Client\Client\EterLib\Pool.h

; 82   : 			m_kVct_pkFree.push_back(pkData);

  00014	50		 push	 eax
  00015	b9 10 00 00 00	 mov	 ecx, OFFSET ?ms_kPool@CGraphicMarkInstance@@2V?$CDynamicPool@VCGraphicMarkInstance@@@@A+16
  0001a	e8 00 00 00 00	 call	 ?push_back@?$vector@PAVCGraphicMarkInstance@@V?$allocator@PAVCGraphicMarkInstance@@@std@@@std@@QAEXABQAVCGraphicMarkInstance@@@Z ; std::vector<CGraphicMarkInstance *,std::allocator<CGraphicMarkInstance *> >::push_back
  0001f	5e		 pop	 esi
; File C:\Marty 5.5\Src-Client\Client\EterLib\GrpMarkInstance.cpp

; 39   : }

  00020	5d		 pop	 ebp
  00021	c3		 ret	 0
?Delete@CGraphicMarkInstance@@SAXPAV1@@Z ENDP		; CGraphicMarkInstance::Delete
_TEXT	ENDS
; Function compile flags: /Ogtp
; File C:\Marty 5.5\Src-Client\Client\EterLib\GrpMarkInstance.cpp
; File D:\Program Files\Microsoft Visual Studio\2022\Community\VC\Tools\MSVC\14.43.34808\include\vector
; File C:\Marty 5.5\Src-Client\Client\EterLib\Pool.h
; File C:\Marty 5.5\Src-Client\Client\EterLib\GrpMarkInstance.cpp
; File C:\Marty 5.5\Src-Client\Client\EterLib\Pool.h
; File D:\Program Files\Microsoft Visual Studio\2022\Community\VC\Tools\MSVC\14.43.34808\include\vector
; File C:\Marty 5.5\Src-Client\Client\EterLib\GrpMarkInstance.cpp
;	COMDAT ?New@CGraphicMarkInstance@@SAPAV1@XZ
_TEXT	SEGMENT
_pkNewData$1 = -4					; size = 4
$T2 = -4						; size = 4
?New@CGraphicMarkInstance@@SAPAV1@XZ PROC		; CGraphicMarkInstance::New, COMDAT

; 31   : {

  00000	55		 push	 ebp
  00001	8b ec		 mov	 ebp, esp
  00003	51		 push	 ecx
; File D:\Program Files\Microsoft Visual Studio\2022\Community\VC\Tools\MSVC\14.43.34808\include\vector

; 1895 :         return _My_data._Myfirst == _My_data._Mylast;

  00004	8b 0d 14 00 00
	00		 mov	 ecx, DWORD PTR ?ms_kPool@CGraphicMarkInstance@@2V?$CDynamicPool@VCGraphicMarkInstance@@@@A+20
  0000a	39 0d 10 00 00
	00		 cmp	 DWORD PTR ?ms_kPool@CGraphicMarkInstance@@2V?$CDynamicPool@VCGraphicMarkInstance@@@@A+16, ecx
; File C:\Marty 5.5\Src-Client\Client\EterLib\Pool.h

; 64   : 			if (m_kVct_pkFree.empty())

  00010	75 3a		 jne	 SHORT $LN4@New

; 65   : 			{
; 66   : 				T* pkNewData=new T;

  00012	6a 44		 push	 68			; 00000044H
  00014	e8 00 00 00 00	 call	 ??2@YAPAXI@Z		; operator new
  00019	83 c4 04	 add	 esp, 4
  0001c	89 45 fc	 mov	 DWORD PTR $T2[ebp], eax
  0001f	85 c0		 test	 eax, eax
  00021	74 09		 je	 SHORT $LN6@New
  00023	8b c8		 mov	 ecx, eax
  00025	e8 00 00 00 00	 call	 ??0CGraphicMarkInstance@@QAE@XZ ; CGraphicMarkInstance::CGraphicMarkInstance
  0002a	eb 02		 jmp	 SHORT $LN7@New
$LN6@New:
  0002c	33 c0		 xor	 eax, eax
$LN7@New:
  0002e	89 45 fc	 mov	 DWORD PTR _pkNewData$1[ebp], eax

; 67   : 				m_kVct_pkData.push_back(pkNewData);

  00031	b9 04 00 00 00	 mov	 ecx, OFFSET ?ms_kPool@CGraphicMarkInstance@@2V?$CDynamicPool@VCGraphicMarkInstance@@@@A+4
  00036	8d 45 fc	 lea	 eax, DWORD PTR _pkNewData$1[ebp]
  00039	50		 push	 eax
  0003a	e8 00 00 00 00	 call	 ?push_back@?$vector@PAVCGraphicMarkInstance@@V?$allocator@PAVCGraphicMarkInstance@@@std@@@std@@QAEXABQAVCGraphicMarkInstance@@@Z ; std::vector<CGraphicMarkInstance *,std::allocator<CGraphicMarkInstance *> >::push_back

; 68   : 				++m_uUsedCapacity;

  0003f	ff 05 20 00 00
	00		 inc	 DWORD PTR ?ms_kPool@CGraphicMarkInstance@@2V?$CDynamicPool@VCGraphicMarkInstance@@@@A+32
; File C:\Marty 5.5\Src-Client\Client\EterLib\GrpMarkInstance.cpp

; 32   : 	return ms_kPool.Alloc();

  00045	8b 45 fc	 mov	 eax, DWORD PTR _pkNewData$1[ebp]

; 33   : }

  00048	8b e5		 mov	 esp, ebp
  0004a	5d		 pop	 ebp
  0004b	c3		 ret	 0
$LN4@New:
; File C:\Marty 5.5\Src-Client\Client\EterLib\Pool.h

; 72   : 			T* pkFreeData=m_kVct_pkFree.back();

  0004c	8b 41 fc	 mov	 eax, DWORD PTR [ecx-4]
; File D:\Program Files\Microsoft Visual Studio\2022\Community\VC\Tools\MSVC\14.43.34808\include\vector

; 1744 :         --_Mylast;

  0004f	83 c1 fc	 add	 ecx, -4			; fffffffcH
  00052	89 0d 14 00 00
	00		 mov	 DWORD PTR ?ms_kPool@CGraphicMarkInstance@@2V?$CDynamicPool@VCGraphicMarkInstance@@@@A+20, ecx
; File C:\Marty 5.5\Src-Client\Client\EterLib\GrpMarkInstance.cpp

; 33   : }

  00058	8b e5		 mov	 esp, ebp
  0005a	5d		 pop	 ebp
  0005b	c3		 ret	 0
?New@CGraphicMarkInstance@@SAPAV1@XZ ENDP		; CGraphicMarkInstance::New
_TEXT	ENDS
; Function compile flags: /Ogtp
; File C:\Marty 5.5\Src-Client\Client\EterLib\GrpMarkInstance.cpp
; File C:\Marty 5.5\Src-Client\Client\EterLib\Pool.h
; File C:\Marty 5.5\Src-Client\Client\EterLib\GrpMarkInstance.cpp
; File C:\Marty 5.5\Src-Client\Client\EterLib\Pool.h
; File D:\Program Files\Microsoft Visual Studio\2022\Community\VC\Tools\MSVC\14.43.34808\include\vector
; File C:\Marty 5.5\Src-Client\Client\EterLib\GrpMarkInstance.cpp
;	COMDAT ?DestroySystem@CGraphicMarkInstance@@SAXXZ
_TEXT	SEGMENT
?DestroySystem@CGraphicMarkInstance@@SAXXZ PROC		; CGraphicMarkInstance::DestroySystem, COMDAT

; 26   : {

  00000	56		 push	 esi
; File C:\Marty 5.5\Src-Client\Client\EterLib\Pool.h

; 50   : 			for (auto v : m_kVct_pkData)

  00001	8b 35 04 00 00
	00		 mov	 esi, DWORD PTR ?ms_kPool@CGraphicMarkInstance@@2V?$CDynamicPool@VCGraphicMarkInstance@@@@A+4
; File C:\Marty 5.5\Src-Client\Client\EterLib\GrpMarkInstance.cpp

; 26   : {

  00007	57		 push	 edi
; File C:\Marty 5.5\Src-Client\Client\EterLib\Pool.h

; 50   : 			for (auto v : m_kVct_pkData)

  00008	8b 3d 08 00 00
	00		 mov	 edi, DWORD PTR ?ms_kPool@CGraphicMarkInstance@@2V?$CDynamicPool@VCGraphicMarkInstance@@@@A+8
  0000e	3b f7		 cmp	 esi, edi
  00010	74 29		 je	 SHORT $LN12@DestroySys
$LL6@DestroySys:

; 111  : 			delete pkData;

  00012	8b 0e		 mov	 ecx, DWORD PTR [esi]
  00014	85 c9		 test	 ecx, ecx
  00016	74 06		 je	 SHORT $LN4@DestroySys
  00018	8b 01		 mov	 eax, DWORD PTR [ecx]
  0001a	6a 01		 push	 1
  0001c	ff 10		 call	 DWORD PTR [eax]
$LN4@DestroySys:

; 50   : 			for (auto v : m_kVct_pkData)

  0001e	83 c6 04	 add	 esi, 4
  00021	3b f7		 cmp	 esi, edi
  00023	75 ed		 jne	 SHORT $LL6@DestroySys
  00025	8b 3d 08 00 00
	00		 mov	 edi, DWORD PTR ?ms_kPool@CGraphicMarkInstance@@2V?$CDynamicPool@VCGraphicMarkInstance@@@@A+8
  0002b	8b 35 04 00 00
	00		 mov	 esi, DWORD PTR ?ms_kPool@CGraphicMarkInstance@@2V?$CDynamicPool@VCGraphicMarkInstance@@@@A+4
; File D:\Program Files\Microsoft Visual Studio\2022\Community\VC\Tools\MSVC\14.43.34808\include\vector

; 1797 :         if (_Myfirst == _Mylast) { // already empty, nothing to do

  00031	3b f7		 cmp	 esi, edi
  00033	74 06		 je	 SHORT $LN12@DestroySys

; 1798 :             // This is an optimization for debug mode: we can avoid taking the debug lock to invalidate iterators.
; 1799 :             // Note that when clearing an empty vector, this will preserve past-the-end iterators, which is allowed by
; 1800 :             // N4950 [sequence.reqmts]/54 "a.clear() [...] may invalidate the past-the-end iterator".
; 1801 :             return;
; 1802 :         }
; 1803 : 
; 1804 :         _My_data._Orphan_all();
; 1805 :         _Destroy_range(_Myfirst, _Mylast, _Getal());
; 1806 :         _ASAN_VECTOR_MODIFY(static_cast<difference_type>(_Myfirst - _Mylast)); // negative when destroying elements
; 1807 :         _Mylast = _Myfirst;

  00035	89 35 08 00 00
	00		 mov	 DWORD PTR ?ms_kPool@CGraphicMarkInstance@@2V?$CDynamicPool@VCGraphicMarkInstance@@@@A+8, esi
$LN12@DestroySys:

; 1797 :         if (_Myfirst == _Mylast) { // already empty, nothing to do

  0003b	a1 10 00 00 00	 mov	 eax, DWORD PTR ?ms_kPool@CGraphicMarkInstance@@2V?$CDynamicPool@VCGraphicMarkInstance@@@@A+16
  00040	5f		 pop	 edi
  00041	5e		 pop	 esi
  00042	3b 05 14 00 00
	00		 cmp	 eax, DWORD PTR ?ms_kPool@CGraphicMarkInstance@@2V?$CDynamicPool@VCGraphicMarkInstance@@@@A+20
  00048	74 05		 je	 SHORT $LN16@DestroySys

; 1798 :             // This is an optimization for debug mode: we can avoid taking the debug lock to invalidate iterators.
; 1799 :             // Note that when clearing an empty vector, this will preserve past-the-end iterators, which is allowed by
; 1800 :             // N4950 [sequence.reqmts]/54 "a.clear() [...] may invalidate the past-the-end iterator".
; 1801 :             return;
; 1802 :         }
; 1803 : 
; 1804 :         _My_data._Orphan_all();
; 1805 :         _Destroy_range(_Myfirst, _Mylast, _Getal());
; 1806 :         _ASAN_VECTOR_MODIFY(static_cast<difference_type>(_Myfirst - _Mylast)); // negative when destroying elements
; 1807 :         _Mylast = _Myfirst;

  0004a	a3 14 00 00 00	 mov	 DWORD PTR ?ms_kPool@CGraphicMarkInstance@@2V?$CDynamicPool@VCGraphicMarkInstance@@@@A+20, eax
$LN16@DestroySys:
; File C:\Marty 5.5\Src-Client\Client\EterLib\GrpMarkInstance.cpp

; 28   : }

  0004f	c3		 ret	 0
?DestroySystem@CGraphicMarkInstance@@SAXXZ ENDP		; CGraphicMarkInstance::DestroySystem
_TEXT	ENDS
; Function compile flags: /Ogtp
; File C:\Marty 5.5\Src-Client\Client\EterLib\GrpMarkInstance.cpp
; File C:\Marty 5.5\Src-Client\Client\EterLib\Pool.h
; File C:\Marty 5.5\Src-Client\Client\EterLib\GrpMarkInstance.cpp
;	COMDAT ?CreateSystem@CGraphicMarkInstance@@SAXI@Z
_TEXT	SEGMENT
_uCapacity$ = 8						; size = 4
?CreateSystem@CGraphicMarkInstance@@SAXI@Z PROC		; CGraphicMarkInstance::CreateSystem, COMDAT

; 21   : {

  00000	55		 push	 ebp
  00001	8b ec		 mov	 ebp, esp
  00003	56		 push	 esi
; File C:\Marty 5.5\Src-Client\Client\EterLib\Pool.h

; 58   : 			m_uInitCapacity=uCapacity;

  00004	8b 75 08	 mov	 esi, DWORD PTR _uCapacity$[ebp]

; 59   : 			m_kVct_pkData.reserve(uCapacity);

  00007	b9 04 00 00 00	 mov	 ecx, OFFSET ?ms_kPool@CGraphicMarkInstance@@2V?$CDynamicPool@VCGraphicMarkInstance@@@@A+4
  0000c	56		 push	 esi
  0000d	89 35 1c 00 00
	00		 mov	 DWORD PTR ?ms_kPool@CGraphicMarkInstance@@2V?$CDynamicPool@VCGraphicMarkInstance@@@@A+28, esi
  00013	e8 00 00 00 00	 call	 ?reserve@?$vector@PAVCGraphicMarkInstance@@V?$allocator@PAVCGraphicMarkInstance@@@std@@@std@@QAEXI@Z ; std::vector<CGraphicMarkInstance *,std::allocator<CGraphicMarkInstance *> >::reserve

; 60   : 			m_kVct_pkFree.reserve(uCapacity);

  00018	56		 push	 esi
  00019	b9 10 00 00 00	 mov	 ecx, OFFSET ?ms_kPool@CGraphicMarkInstance@@2V?$CDynamicPool@VCGraphicMarkInstance@@@@A+16
  0001e	e8 00 00 00 00	 call	 ?reserve@?$vector@PAVCGraphicMarkInstance@@V?$allocator@PAVCGraphicMarkInstance@@@std@@@std@@QAEXI@Z ; std::vector<CGraphicMarkInstance *,std::allocator<CGraphicMarkInstance *> >::reserve
  00023	5e		 pop	 esi
; File C:\Marty 5.5\Src-Client\Client\EterLib\GrpMarkInstance.cpp

; 23   : }

  00024	5d		 pop	 ebp
  00025	c3		 ret	 0
?CreateSystem@CGraphicMarkInstance@@SAXI@Z ENDP		; CGraphicMarkInstance::CreateSystem
_TEXT	ENDS
; Function compile flags: /Ogtp
; File C:\Marty 5.5\Src-Client\Client\EterLib\GrpMarkInstance.cpp
; File C:\Marty 5.5\Src-Client\Client\EterLib\Ref.h
; File C:\Marty 5.5\Src-Client\Client\EterLib\GrpMarkInstance.cpp
; File C:\Marty 5.5\Src-Client\Client\EterLib\Ref.h
; File C:\Marty 5.5\Src-Client\Client\EterLib\GrpMarkInstance.cpp
;	COMDAT ?SetImagePointer@CGraphicMarkInstance@@IAEXPAVCGraphicImage@@@Z
_TEXT	SEGMENT
_pImage$ = 8						; size = 4
?SetImagePointer@CGraphicMarkInstance@@IAEXPAVCGraphicImage@@@Z PROC ; CGraphicMarkInstance::SetImagePointer, COMDAT
; _this$ = ecx

; 220  : {

  00000	55		 push	 ebp
  00001	8b ec		 mov	 ebp, esp
  00003	56		 push	 esi
  00004	8b f1		 mov	 esi, ecx
; File C:\Marty 5.5\Src-Client\Client\EterLib\Ref.h

; 69   : 			m_pObject = pObject;

  00006	8b 4d 08	 mov	 ecx, DWORD PTR _pImage$[ebp]
; File C:\Marty 5.5\Src-Client\Client\EterLib\GrpMarkInstance.cpp

; 220  : {

  00009	57		 push	 edi
; File C:\Marty 5.5\Src-Client\Client\EterLib\Ref.h

; 67   : 			CReferenceObject* pOldObject = m_pObject;

  0000a	8b 7e 28	 mov	 edi, DWORD PTR [esi+40]

; 69   : 			m_pObject = pObject;

  0000d	89 4e 28	 mov	 DWORD PTR [esi+40], ecx

; 70   : 
; 71   : 			if (m_pObject)

  00010	85 c9		 test	 ecx, ecx
  00012	74 05		 je	 SHORT $LN4@SetImagePo

; 72   : 				m_pObject->AddReference();

  00014	e8 00 00 00 00	 call	 ?AddReference@CReferenceObject@@QAEXXZ ; CReferenceObject::AddReference
$LN4@SetImagePo:

; 73   : 
; 74   : 			if (pOldObject)

  00019	85 ff		 test	 edi, edi
  0001b	74 07		 je	 SHORT $LN5@SetImagePo

; 75   : 				pOldObject->Release();

  0001d	8b cf		 mov	 ecx, edi
  0001f	e8 00 00 00 00	 call	 ?Release@CReferenceObject@@QAEXXZ ; CReferenceObject::Release
$LN5@SetImagePo:
; File C:\Marty 5.5\Src-Client\Client\EterLib\GrpMarkInstance.cpp

; 223  : 	OnSetImagePointer();

  00024	8b 06		 mov	 eax, DWORD PTR [esi]
  00026	8b ce		 mov	 ecx, esi
  00028	ff 50 08	 call	 DWORD PTR [eax+8]
  0002b	5f		 pop	 edi
  0002c	5e		 pop	 esi

; 224  : }

  0002d	5d		 pop	 ebp
  0002e	c2 04 00	 ret	 4
?SetImagePointer@CGraphicMarkInstance@@IAEXPAVCGraphicImage@@@Z ENDP ; CGraphicMarkInstance::SetImagePointer
_TEXT	ENDS
; Function compile flags: /Ogtp
; File C:\Marty 5.5\Src-Client\Client\EterLib\GrpMarkInstance.cpp
;	COMDAT ?OnIsType@CGraphicMarkInstance@@MAEHK@Z
_TEXT	SEGMENT
_dwType$ = 8						; size = 4
?OnIsType@CGraphicMarkInstance@@MAEHK@Z PROC		; CGraphicMarkInstance::OnIsType, COMDAT
; _this$ = ecx

; 251  : {

  00000	55		 push	 ebp
  00001	8b ec		 mov	 ebp, esp

; 252  : 	if (CGraphicMarkInstance::Type() == dwType)

  00003	e8 00 00 00 00	 call	 ?Type@CGraphicMarkInstance@@SAKXZ ; CGraphicMarkInstance::Type
  00008	33 c9		 xor	 ecx, ecx
  0000a	3b 45 08	 cmp	 eax, DWORD PTR _dwType$[ebp]
  0000d	0f 94 c1	 sete	 cl

; 253  : 		return TRUE;

  00010	8b c1		 mov	 eax, ecx

; 254  : 
; 255  : 	return FALSE;
; 256  : }

  00012	5d		 pop	 ebp
  00013	c2 04 00	 ret	 4
?OnIsType@CGraphicMarkInstance@@MAEHK@Z ENDP		; CGraphicMarkInstance::OnIsType
_TEXT	ENDS
; Function compile flags: /Ogtp
; File C:\Marty 5.5\Src-Client\Client\EterLib\GrpMarkInstance.cpp
;	COMDAT ?OnSetImagePointer@CGraphicMarkInstance@@MAEXXZ
_TEXT	SEGMENT
?OnSetImagePointer@CGraphicMarkInstance@@MAEXXZ PROC	; CGraphicMarkInstance::OnSetImagePointer, COMDAT
; _this$ = ecx

; 260  : }

  00000	c2 00 00	 ret	 0
?OnSetImagePointer@CGraphicMarkInstance@@MAEXXZ ENDP	; CGraphicMarkInstance::OnSetImagePointer
_TEXT	ENDS
; Function compile flags: /Ogtp
; File C:\Marty 5.5\Src-Client\Client\EterLib\GrpMarkInstance.cpp
; File C:\Marty 5.5\Src-Client\extern\include\d3dx8math.inl
; File C:\Marty 5.5\Src-Client\Client\EterLib\GrpMarkInstance.cpp
; File C:\Marty 5.5\Src-Client\extern\include\d3dx8math.inl
; File C:\Marty 5.5\Src-Client\Client\EterLib\GrpMarkInstance.cpp
; File C:\Marty 5.5\Src-Client\extern\include\d3dx8math.inl
; File C:\Marty 5.5\Src-Client\Client\EterLib\GrpMarkInstance.cpp
; File C:\Marty 5.5\Src-Client\extern\include\d3dx8math.inl
; File C:\Marty 5.5\Src-Client\Client\EterLib\GrpMarkInstance.cpp
; File C:\Marty 5.5\Src-Client\extern\include\d3dx8math.inl
; File C:\Marty 5.5\Src-Client\Client\EterLib\GrpMarkInstance.cpp
; File C:\Marty 5.5\Src-Client\extern\include\d3dx8math.inl
; File C:\Marty 5.5\Src-Client\Client\EterLib\GrpMarkInstance.cpp
; File C:\Marty 5.5\Src-Client\extern\include\d3dx8math.inl
; File C:\Marty 5.5\Src-Client\Client\EterLib\GrpMarkInstance.cpp
; File C:\Marty 5.5\Src-Client\extern\include\d3dx8math.inl
; File C:\Marty 5.5\Src-Client\Client\EterLib\GrpMarkInstance.cpp
; File C:\Marty 5.5\Src-Client\extern\include\d3dx8math.inl
; File C:\Marty 5.5\Src-Client\Client\EterLib\GrpMarkInstance.cpp
; File C:\Marty 5.5\Src-Client\extern\include\d3dx8math.inl
; File C:\Marty 5.5\Src-Client\Client\EterLib\GrpMarkInstance.cpp
; File C:\Marty 5.5\Src-Client\extern\include\d3dx8math.inl
; File C:\Marty 5.5\Src-Client\Client\EterLib\GrpMarkInstance.cpp
; File C:\Marty 5.5\Src-Client\extern\include\d3dx8math.inl
; File C:\Marty 5.5\Src-Client\Client\EterLib\GrpMarkInstance.cpp
; File C:\Marty 5.5\Src-Client\extern\include\d3dx8math.inl
; File C:\Marty 5.5\Src-Client\Client\EterLib\GrpMarkInstance.cpp
; File C:\Marty 5.5\Src-Client\extern\include\d3dx8math.inl
; File C:\Marty 5.5\Src-Client\Client\EterLib\GrpMarkInstance.cpp
; File C:\Marty 5.5\Src-Client\extern\include\d3dx8math.inl
; File C:\Marty 5.5\Src-Client\Client\EterLib\GrpMarkInstance.cpp
; File C:\Marty 5.5\Src-Client\Client\eterBase\Singleton.h
; File C:\Marty 5.5\Src-Client\Client\EterLib\GrpMarkInstance.cpp
;	COMDAT ?OnRender@CGraphicMarkInstance@@MAEXXZ
_TEXT	SEGMENT
_su$1$ = -140						; size = 4
tv948 = -136						; size = 4
_sv$1$ = -132						; size = 4
tv931 = -128						; size = 4
_eu$1$ = -124						; size = 4
tv968 = -120						; size = 4
_fRenderHeight$1$ = -120				; size = 4
tv967 = -116						; size = 4
_fRenderWidth$1$ = -116					; size = 4
_pTexture$1$ = -112					; size = 4
_texReverseWidth$1$ = -108				; size = 4
_ev$1$ = -108						; size = 4
_dwR$1$ = -104						; size = 4
_dwR$1$ = -104						; size = 4
_dwR$1$ = -104						; size = 4
_dwR$1$ = -104						; size = 4
_vertices$ = -100					; size = 96
__$ArrayPad$ = -4					; size = 4
?OnRender@CGraphicMarkInstance@@MAEXXZ PROC		; CGraphicMarkInstance::OnRender, COMDAT
; _this$ = ecx

; 52   : {

  00000	55		 push	 ebp
  00001	8b ec		 mov	 ebp, esp
  00003	81 ec 8c 00 00
	00		 sub	 esp, 140		; 0000008cH
  00009	a1 00 00 00 00	 mov	 eax, DWORD PTR ___security_cookie
  0000e	33 c5		 xor	 eax, ebp
  00010	89 45 fc	 mov	 DWORD PTR __$ArrayPad$[ebp], eax
  00013	53		 push	 ebx
  00014	8b d9		 mov	 ebx, ecx
  00016	56		 push	 esi

; 53   : 	CGraphicImage * pImage = m_roImage.GetPointer();

  00017	8b 73 28	 mov	 esi, DWORD PTR [ebx+40]

; 54   : 	CGraphicTexture * pTexture = pImage->GetTexturePointer();

  0001a	8b ce		 mov	 ecx, esi
  0001c	e8 00 00 00 00	 call	 ?GetTexturePointer@CGraphicImage@@QAEPAVCGraphicTexture@@XZ ; CGraphicImage::GetTexturePointer

; 55   : 
; 56   : 	UINT uColCount = pImage->GetWidth() / MARK_WIDTH;

  00021	8b ce		 mov	 ecx, esi
  00023	89 45 90	 mov	 DWORD PTR _pTexture$1$[ebp], eax
  00026	e8 00 00 00 00	 call	 ?GetWidth@CGraphicImage@@QBEHXZ ; CGraphicImage::GetWidth
  0002b	99		 cdq
  0002c	83 e2 0f	 and	 edx, 15			; 0000000fH
  0002f	8d 34 02	 lea	 esi, DWORD PTR [edx+eax]
  00032	c1 fe 04	 sar	 esi, 4

; 57   : 
; 58   : 	if (uColCount == 0)

  00035	85 f6		 test	 esi, esi
  00037	0f 84 3a 06 00
	00		 je	 $LN3@OnRender

; 59   : 		return;
; 60   : 
; 61   : 	UINT uCol = m_uIndex % uColCount;

  0003d	8b 43 1c	 mov	 eax, DWORD PTR [ebx+28]
  00040	33 d2		 xor	 edx, edx
  00042	f7 f6		 div	 esi

; 62   : 	UINT uRow = m_uIndex / uColCount;

  00044	8b 43 1c	 mov	 eax, DWORD PTR [ebx+28]
  00047	57		 push	 edi
  00048	8b fa		 mov	 edi, edx

; 67   : 	kRect.right=kRect.left+MARK_WIDTH;
; 68   : 	kRect.bottom=kRect.top+MARK_HEIGHT;
; 69   : 
; 70   : 	float texReverseWidth = 1.0f / float(pTexture->GetWidth());

  0004a	8b 4d 90	 mov	 ecx, DWORD PTR _pTexture$1$[ebp]
  0004d	33 d2		 xor	 edx, edx
  0004f	c1 e7 04	 shl	 edi, 4
  00052	f7 f6		 div	 esi
  00054	8d 34 40	 lea	 esi, DWORD PTR [eax+eax*2]
  00057	c1 e6 02	 shl	 esi, 2
  0005a	e8 00 00 00 00	 call	 ?GetWidth@CGraphicTexture@@QBEHXZ ; CGraphicTexture::GetWidth
  0005f	f3 0f 10 0d 00
	00 00 00	 movss	 xmm1, DWORD PTR __real@3f800000

; 71   : 	float texReverseHeight = 1.0f / float(pTexture->GetHeight());

  00067	8b 4d 90	 mov	 ecx, DWORD PTR _pTexture$1$[ebp]
  0006a	66 0f 6e c0	 movd	 xmm0, eax
  0006e	0f 5b c0	 cvtdq2ps xmm0, xmm0
  00071	f3 0f 5e c8	 divss	 xmm1, xmm0
  00075	f3 0f 11 4d 94	 movss	 DWORD PTR _texReverseWidth$1$[ebp], xmm1
  0007a	e8 00 00 00 00	 call	 ?GetHeight@CGraphicTexture@@QBEHXZ ; CGraphicTexture::GetHeight
  0007f	f3 0f 10 0d 00
	00 00 00	 movss	 xmm1, DWORD PTR __real@3f800000
; File C:\Marty 5.5\Src-Client\extern\include\d3dx8math.inl

; 931  :     DWORD dwR = r >= 1.0f ? 0xff : r <= 0.0f ? 0x00 : (DWORD) (r * 255.0f + 0.5f);

  00087	0f 57 d2	 xorps	 xmm2, xmm2
  0008a	66 0f 6e de	 movd	 xmm3, esi
  0008e	66 0f 6e e7	 movd	 xmm4, edi
  00092	66 0f 6e c0	 movd	 xmm0, eax
; File C:\Marty 5.5\Src-Client\Client\EterLib\GrpMarkInstance.cpp

; 66   : 	kRect.top=uRow*MARK_HEIGHT;

  00096	8d 47 10	 lea	 eax, DWORD PTR [edi+16]

; 71   : 	float texReverseHeight = 1.0f / float(pTexture->GetHeight());

  00099	0f 5b c0	 cvtdq2ps xmm0, xmm0
  0009c	66 0f 6e e8	 movd	 xmm5, eax
  000a0	8d 46 0c	 lea	 eax, DWORD PTR [esi+12]
  000a3	f3 0f 5e c8	 divss	 xmm1, xmm0
  000a7	66 0f 6e c0	 movd	 xmm0, eax

; 73   : 	float sv = kRect.top * texReverseHeight;
; 74   : 	float eu = kRect.right * texReverseWidth;

  000ab	0f 5b c0	 cvtdq2ps xmm0, xmm0
  000ae	0f 5b db	 cvtdq2ps xmm3, xmm3

; 75   : 	float ev = kRect.bottom * texReverseHeight;

  000b1	f3 0f 59 c1	 mulss	 xmm0, xmm1
  000b5	0f 5b e4	 cvtdq2ps xmm4, xmm4
  000b8	0f 5b ed	 cvtdq2ps xmm5, xmm5
  000bb	f3 0f 59 65 94	 mulss	 xmm4, DWORD PTR _texReverseWidth$1$[ebp]
  000c0	f3 0f 59 6d 94	 mulss	 xmm5, DWORD PTR _texReverseWidth$1$[ebp]
  000c5	f3 0f 59 d9	 mulss	 xmm3, xmm1

; 76   : 
; 77   : 	float fRenderWidth=MARK_WIDTH*m_fScale;

  000c9	f3 0f 10 4b 20	 movss	 xmm1, DWORD PTR [ebx+32]
  000ce	f3 0f 11 45 94	 movss	 DWORD PTR _ev$1$[ebp], xmm0
  000d3	0f 28 c1	 movaps	 xmm0, xmm1
  000d6	f3 0f 59 05 00
	00 00 00	 mulss	 xmm0, DWORD PTR __real@41800000

; 78   : 	float fRenderHeight=MARK_HEIGHT*m_fScale;

  000de	f3 0f 59 0d 00
	00 00 00	 mulss	 xmm1, DWORD PTR __real@41400000
  000e6	f3 0f 11 45 8c	 movss	 DWORD PTR _fRenderWidth$1$[ebp], xmm0

; 79   : 
; 80   : 
; 81   : /*
; 82   : 	TPDTVertex vertices[4];
; 83   : 	vertices[0].position.x	= m_v2Position.x-0.5f;
; 84   : 	vertices[0].position.y	= m_v2Position.y-0.5f;
; 85   : 	vertices[0].position.z	= 0.0f;
; 86   : 	vertices[0].texCoord	= TTextureCoordinate(su, sv);
; 87   : 	vertices[0].diffuse		= m_DiffuseColor;
; 88   : 
; 89   : 	vertices[1].position.x	= m_v2Position.x + fRenderWidth -0.5f;
; 90   : 	vertices[1].position.y	= m_v2Position.y-0.5f;
; 91   : 	vertices[1].position.z	= 0.0f;
; 92   : 	vertices[1].texCoord	= TTextureCoordinate(eu, sv);
; 93   : 	vertices[1].diffuse		= m_DiffuseColor;
; 94   : 
; 95   : 	vertices[2].position.x	= m_v2Position.x-0.5f;
; 96   : 	vertices[2].position.y	= m_v2Position.y + fRenderHeight -0.5f;
; 97   : 	vertices[2].position.z	= 0.0f;
; 98   : 	vertices[2].texCoord	= TTextureCoordinate(su, ev);
; 99   : 	vertices[2].diffuse		= m_DiffuseColor;
; 100  : 
; 101  : 	vertices[3].position.x	= m_v2Position.x + fRenderWidth -0.5f;
; 102  : 	vertices[3].position.y	= m_v2Position.y + fRenderHeight -0.5f;
; 103  : 	vertices[3].position.z	= 0.0f;
; 104  : 	vertices[3].texCoord	= TTextureCoordinate(eu, ev);
; 105  : 	vertices[3].diffuse		= m_DiffuseColor;
; 106  : /*/
; 107  : 
; 108  : 
; 109  : 	//@natanek165
; 110  : TPDTVertex vertices[4];
; 111  : 	vertices[0].position.x	= m_v2Position.x-0.5f;

  000eb	f3 0f 10 43 14	 movss	 xmm0, DWORD PTR [ebx+20]
  000f0	f3 0f 11 4d 88	 movss	 DWORD PTR _fRenderHeight$1$[ebp], xmm1
  000f5	f3 0f 10 0d 00
	00 00 00	 movss	 xmm1, DWORD PTR __real@3f000000
  000fd	f3 0f 5c c1	 subss	 xmm0, xmm1
  00101	f3 0f 11 9d 7c
	ff ff ff	 movss	 DWORD PTR _sv$1$[ebp], xmm3

; 113  : 	vertices[0].position.z	= m_fDepth;
; 114  : 	vertices[0].texCoord	= TTextureCoordinate(su, sv);

  00109	f3 0f 11 5d b0	 movss	 DWORD PTR _vertices$[ebp+20], xmm3
; File C:\Marty 5.5\Src-Client\extern\include\d3dx8math.inl

; 931  :     DWORD dwR = r >= 1.0f ? 0xff : r <= 0.0f ? 0x00 : (DWORD) (r * 255.0f + 0.5f);

  0010e	f3 0f 10 1d 00
	00 00 00	 movss	 xmm3, DWORD PTR __real@437f0000
; File C:\Marty 5.5\Src-Client\Client\EterLib\GrpMarkInstance.cpp

; 72   : 	float su = kRect.left * texReverseWidth;

  00116	f3 0f 11 a5 74
	ff ff ff	 movss	 DWORD PTR _su$1$[ebp], xmm4

; 73   : 	float sv = kRect.top * texReverseHeight;
; 74   : 	float eu = kRect.right * texReverseWidth;

  0011e	f3 0f 11 6d 84	 movss	 DWORD PTR _eu$1$[ebp], xmm5

; 79   : 
; 80   : 
; 81   : /*
; 82   : 	TPDTVertex vertices[4];
; 83   : 	vertices[0].position.x	= m_v2Position.x-0.5f;
; 84   : 	vertices[0].position.y	= m_v2Position.y-0.5f;
; 85   : 	vertices[0].position.z	= 0.0f;
; 86   : 	vertices[0].texCoord	= TTextureCoordinate(su, sv);
; 87   : 	vertices[0].diffuse		= m_DiffuseColor;
; 88   : 
; 89   : 	vertices[1].position.x	= m_v2Position.x + fRenderWidth -0.5f;
; 90   : 	vertices[1].position.y	= m_v2Position.y-0.5f;
; 91   : 	vertices[1].position.z	= 0.0f;
; 92   : 	vertices[1].texCoord	= TTextureCoordinate(eu, sv);
; 93   : 	vertices[1].diffuse		= m_DiffuseColor;
; 94   : 
; 95   : 	vertices[2].position.x	= m_v2Position.x-0.5f;
; 96   : 	vertices[2].position.y	= m_v2Position.y + fRenderHeight -0.5f;
; 97   : 	vertices[2].position.z	= 0.0f;
; 98   : 	vertices[2].texCoord	= TTextureCoordinate(su, ev);
; 99   : 	vertices[2].diffuse		= m_DiffuseColor;
; 100  : 
; 101  : 	vertices[3].position.x	= m_v2Position.x + fRenderWidth -0.5f;
; 102  : 	vertices[3].position.y	= m_v2Position.y + fRenderHeight -0.5f;
; 103  : 	vertices[3].position.z	= 0.0f;
; 104  : 	vertices[3].texCoord	= TTextureCoordinate(eu, ev);
; 105  : 	vertices[3].diffuse		= m_DiffuseColor;
; 106  : /*/
; 107  : 
; 108  : 
; 109  : 	//@natanek165
; 110  : TPDTVertex vertices[4];
; 111  : 	vertices[0].position.x	= m_v2Position.x-0.5f;

  00123	f3 0f 11 85 78
	ff ff ff	 movss	 DWORD PTR tv948[ebp], xmm0
  0012b	f3 0f 11 45 9c	 movss	 DWORD PTR _vertices$[ebp], xmm0

; 112  : 	vertices[0].position.y	= m_v2Position.y-0.5f;

  00130	f3 0f 10 43 18	 movss	 xmm0, DWORD PTR [ebx+24]
  00135	f3 0f 5c c1	 subss	 xmm0, xmm1

; 113  : 	vertices[0].position.z	= m_fDepth;
; 114  : 	vertices[0].texCoord	= TTextureCoordinate(su, sv);

  00139	f3 0f 11 65 ac	 movss	 DWORD PTR _vertices$[ebp+16], xmm4
  0013e	f3 0f 11 45 80	 movss	 DWORD PTR tv931[ebp], xmm0
  00143	f3 0f 11 45 a0	 movss	 DWORD PTR _vertices$[ebp+4], xmm0
  00148	f3 0f 10 43 24	 movss	 xmm0, DWORD PTR [ebx+36]
  0014d	f3 0f 11 45 a4	 movss	 DWORD PTR _vertices$[ebp+8], xmm0
; File C:\Marty 5.5\Src-Client\extern\include\d3dx8math.inl

; 931  :     DWORD dwR = r >= 1.0f ? 0xff : r <= 0.0f ? 0x00 : (DWORD) (r * 255.0f + 0.5f);

  00152	f3 0f 10 43 04	 movss	 xmm0, DWORD PTR [ebx+4]
  00157	0f 2f 05 00 00
	00 00		 comiss	 xmm0, DWORD PTR __real@3f800000
  0015e	72 09		 jb	 SHORT $LN17@OnRender
  00160	c7 45 98 ff 00
	00 00		 mov	 DWORD PTR _dwR$1$[ebp], 255 ; 000000ffH
  00167	eb 31		 jmp	 SHORT $LN16@OnRender
$LN17@OnRender:
  00169	0f 2f d0	 comiss	 xmm2, xmm0
  0016c	72 09		 jb	 SHORT $LN15@OnRender
  0016e	c7 45 98 00 00
	00 00		 mov	 DWORD PTR _dwR$1$[ebp], 0
  00175	eb 23		 jmp	 SHORT $LN16@OnRender
$LN15@OnRender:
  00177	f3 0f 59 c3	 mulss	 xmm0, xmm3
  0017b	f3 0f 58 c1	 addss	 xmm0, xmm1
  0017f	e8 00 00 00 00	 call	 __ftol3
  00184	f3 0f 10 0d 00
	00 00 00	 movss	 xmm1, DWORD PTR __real@3f000000
  0018c	0f 57 d2	 xorps	 xmm2, xmm2
  0018f	f3 0f 10 1d 00
	00 00 00	 movss	 xmm3, DWORD PTR __real@437f0000
  00197	89 45 98	 mov	 DWORD PTR _dwR$1$[ebp], eax
$LN16@OnRender:

; 932  :     DWORD dwG = g >= 1.0f ? 0xff : g <= 0.0f ? 0x00 : (DWORD) (g * 255.0f + 0.5f);

  0019a	f3 0f 10 43 08	 movss	 xmm0, DWORD PTR [ebx+8]
  0019f	0f 2f 05 00 00
	00 00		 comiss	 xmm0, DWORD PTR __real@3f800000
  001a6	72 07		 jb	 SHORT $LN21@OnRender
  001a8	bf ff 00 00 00	 mov	 edi, 255		; 000000ffH
  001ad	eb 18		 jmp	 SHORT $LN20@OnRender
$LN21@OnRender:
  001af	0f 2f d0	 comiss	 xmm2, xmm0
  001b2	72 04		 jb	 SHORT $LN19@OnRender
  001b4	33 ff		 xor	 edi, edi
  001b6	eb 0f		 jmp	 SHORT $LN20@OnRender
$LN19@OnRender:
  001b8	f3 0f 59 c3	 mulss	 xmm0, xmm3
  001bc	f3 0f 58 c1	 addss	 xmm0, xmm1
  001c0	e8 00 00 00 00	 call	 __ftol3
  001c5	8b f8		 mov	 edi, eax
$LN20@OnRender:

; 933  :     DWORD dwB = b >= 1.0f ? 0xff : b <= 0.0f ? 0x00 : (DWORD) (b * 255.0f + 0.5f);

  001c7	f3 0f 10 43 0c	 movss	 xmm0, DWORD PTR [ebx+12]
  001cc	0f 57 c9	 xorps	 xmm1, xmm1
  001cf	0f 2f 05 00 00
	00 00		 comiss	 xmm0, DWORD PTR __real@3f800000
  001d6	72 07		 jb	 SHORT $LN25@OnRender
  001d8	be ff 00 00 00	 mov	 esi, 255		; 000000ffH
  001dd	eb 23		 jmp	 SHORT $LN24@OnRender
$LN25@OnRender:
  001df	0f 2f c8	 comiss	 xmm1, xmm0
  001e2	72 04		 jb	 SHORT $LN23@OnRender
  001e4	33 f6		 xor	 esi, esi
  001e6	eb 1a		 jmp	 SHORT $LN24@OnRender
$LN23@OnRender:
  001e8	f3 0f 59 05 00
	00 00 00	 mulss	 xmm0, DWORD PTR __real@437f0000
  001f0	f3 0f 58 05 00
	00 00 00	 addss	 xmm0, DWORD PTR __real@3f000000
  001f8	e8 00 00 00 00	 call	 __ftol3
  001fd	8b f0		 mov	 esi, eax
  001ff	0f 57 c9	 xorps	 xmm1, xmm1
$LN24@OnRender:

; 934  :     DWORD dwA = a >= 1.0f ? 0xff : a <= 0.0f ? 0x00 : (DWORD) (a * 255.0f + 0.5f);

  00202	f3 0f 10 43 10	 movss	 xmm0, DWORD PTR [ebx+16]
  00207	f3 0f 10 15 00
	00 00 00	 movss	 xmm2, DWORD PTR __real@3f800000
  0020f	0f 2f c2	 comiss	 xmm0, xmm2
  00212	72 07		 jb	 SHORT $LN29@OnRender
  00214	b8 ff 00 00 00	 mov	 eax, 255		; 000000ffH
  00219	eb 26		 jmp	 SHORT $LN28@OnRender
$LN29@OnRender:
  0021b	0f 2f c8	 comiss	 xmm1, xmm0
  0021e	72 04		 jb	 SHORT $LN27@OnRender
  00220	33 c0		 xor	 eax, eax
  00222	eb 1d		 jmp	 SHORT $LN28@OnRender
$LN27@OnRender:
  00224	f3 0f 59 05 00
	00 00 00	 mulss	 xmm0, DWORD PTR __real@437f0000
  0022c	f3 0f 58 05 00
	00 00 00	 addss	 xmm0, DWORD PTR __real@3f000000
  00234	e8 00 00 00 00	 call	 __ftol3
  00239	f3 0f 10 15 00
	00 00 00	 movss	 xmm2, DWORD PTR __real@3f800000
$LN28@OnRender:
; File C:\Marty 5.5\Src-Client\Client\EterLib\GrpMarkInstance.cpp

; 116  : 	vertices[1].position.x	= m_v2Position.x + fRenderWidth -0.5f;

  00241	f3 0f 10 43 14	 movss	 xmm0, DWORD PTR [ebx+20]
  00246	f3 0f 58 45 8c	 addss	 xmm0, DWORD PTR _fRenderWidth$1$[ebp]
  0024b	f3 0f 10 0d 00
	00 00 00	 movss	 xmm1, DWORD PTR __real@3f000000
; File C:\Marty 5.5\Src-Client\extern\include\d3dx8math.inl

; 936  :     return (dwA << 24) | (dwR << 16) | (dwG << 8) | dwB;

  00253	c1 e0 08	 shl	 eax, 8
  00256	0b 45 98	 or	 eax, DWORD PTR _dwR$1$[ebp]
  00259	c1 e0 08	 shl	 eax, 8
; File C:\Marty 5.5\Src-Client\Client\EterLib\GrpMarkInstance.cpp

; 116  : 	vertices[1].position.x	= m_v2Position.x + fRenderWidth -0.5f;

  0025c	f3 0f 5c c1	 subss	 xmm0, xmm1
; File C:\Marty 5.5\Src-Client\extern\include\d3dx8math.inl

; 936  :     return (dwA << 24) | (dwR << 16) | (dwG << 8) | dwB;

  00260	0b c7		 or	 eax, edi
  00262	c1 e0 08	 shl	 eax, 8
  00265	0b c6		 or	 eax, esi
; File C:\Marty 5.5\Src-Client\Client\EterLib\GrpMarkInstance.cpp

; 115  : 	vertices[0].diffuse		= m_DiffuseColor;

  00267	89 45 a8	 mov	 DWORD PTR _vertices$[ebp+12], eax

; 116  : 	vertices[1].position.x	= m_v2Position.x + fRenderWidth -0.5f;

  0026a	f3 0f 11 45 8c	 movss	 DWORD PTR tv967[ebp], xmm0
  0026f	f3 0f 11 45 b4	 movss	 DWORD PTR _vertices$[ebp+24], xmm0

; 117  : 	vertices[1].position.y	= m_v2Position.y-0.5f;

  00274	f3 0f 10 45 80	 movss	 xmm0, DWORD PTR tv931[ebp]
  00279	f3 0f 11 45 b8	 movss	 DWORD PTR _vertices$[ebp+28], xmm0

; 118  : 	vertices[1].position.z	= m_fDepth;

  0027e	f3 0f 10 43 24	 movss	 xmm0, DWORD PTR [ebx+36]
  00283	f3 0f 11 45 bc	 movss	 DWORD PTR _vertices$[ebp+32], xmm0

; 119  : 	vertices[1].texCoord	= TTextureCoordinate(eu, sv);

  00288	f3 0f 10 45 84	 movss	 xmm0, DWORD PTR _eu$1$[ebp]
  0028d	f3 0f 11 45 c4	 movss	 DWORD PTR _vertices$[ebp+40], xmm0
  00292	f3 0f 10 85 7c
	ff ff ff	 movss	 xmm0, DWORD PTR _sv$1$[ebp]
  0029a	f3 0f 11 45 c8	 movss	 DWORD PTR _vertices$[ebp+44], xmm0
; File C:\Marty 5.5\Src-Client\extern\include\d3dx8math.inl

; 931  :     DWORD dwR = r >= 1.0f ? 0xff : r <= 0.0f ? 0x00 : (DWORD) (r * 255.0f + 0.5f);

  0029f	f3 0f 10 43 04	 movss	 xmm0, DWORD PTR [ebx+4]
  002a4	0f 2f c2	 comiss	 xmm0, xmm2
  002a7	0f 57 d2	 xorps	 xmm2, xmm2
  002aa	72 09		 jb	 SHORT $LN37@OnRender
  002ac	c7 45 98 ff 00
	00 00		 mov	 DWORD PTR _dwR$1$[ebp], 255 ; 000000ffH
  002b3	eb 2d		 jmp	 SHORT $LN36@OnRender
$LN37@OnRender:
  002b5	0f 2f d0	 comiss	 xmm2, xmm0
  002b8	72 09		 jb	 SHORT $LN35@OnRender
  002ba	c7 45 98 00 00
	00 00		 mov	 DWORD PTR _dwR$1$[ebp], 0
  002c1	eb 1f		 jmp	 SHORT $LN36@OnRender
$LN35@OnRender:
  002c3	f3 0f 59 05 00
	00 00 00	 mulss	 xmm0, DWORD PTR __real@437f0000
  002cb	f3 0f 58 c1	 addss	 xmm0, xmm1
  002cf	e8 00 00 00 00	 call	 __ftol3
  002d4	f3 0f 10 0d 00
	00 00 00	 movss	 xmm1, DWORD PTR __real@3f000000
  002dc	0f 57 d2	 xorps	 xmm2, xmm2
  002df	89 45 98	 mov	 DWORD PTR _dwR$1$[ebp], eax
$LN36@OnRender:

; 932  :     DWORD dwG = g >= 1.0f ? 0xff : g <= 0.0f ? 0x00 : (DWORD) (g * 255.0f + 0.5f);

  002e2	f3 0f 10 43 08	 movss	 xmm0, DWORD PTR [ebx+8]
  002e7	0f 2f 05 00 00
	00 00		 comiss	 xmm0, DWORD PTR __real@3f800000
  002ee	72 07		 jb	 SHORT $LN41@OnRender
  002f0	bf ff 00 00 00	 mov	 edi, 255		; 000000ffH
  002f5	eb 1c		 jmp	 SHORT $LN40@OnRender
$LN41@OnRender:
  002f7	0f 2f d0	 comiss	 xmm2, xmm0
  002fa	72 04		 jb	 SHORT $LN39@OnRender
  002fc	33 ff		 xor	 edi, edi
  002fe	eb 13		 jmp	 SHORT $LN40@OnRender
$LN39@OnRender:
  00300	f3 0f 59 05 00
	00 00 00	 mulss	 xmm0, DWORD PTR __real@437f0000
  00308	f3 0f 58 c1	 addss	 xmm0, xmm1
  0030c	e8 00 00 00 00	 call	 __ftol3
  00311	8b f8		 mov	 edi, eax
$LN40@OnRender:

; 933  :     DWORD dwB = b >= 1.0f ? 0xff : b <= 0.0f ? 0x00 : (DWORD) (b * 255.0f + 0.5f);

  00313	f3 0f 10 43 0c	 movss	 xmm0, DWORD PTR [ebx+12]
  00318	0f 57 c9	 xorps	 xmm1, xmm1
  0031b	0f 2f 05 00 00
	00 00		 comiss	 xmm0, DWORD PTR __real@3f800000
  00322	72 07		 jb	 SHORT $LN45@OnRender
  00324	be ff 00 00 00	 mov	 esi, 255		; 000000ffH
  00329	eb 23		 jmp	 SHORT $LN44@OnRender
$LN45@OnRender:
  0032b	0f 2f c8	 comiss	 xmm1, xmm0
  0032e	72 04		 jb	 SHORT $LN43@OnRender
  00330	33 f6		 xor	 esi, esi
  00332	eb 1a		 jmp	 SHORT $LN44@OnRender
$LN43@OnRender:
  00334	f3 0f 59 05 00
	00 00 00	 mulss	 xmm0, DWORD PTR __real@437f0000
  0033c	f3 0f 58 05 00
	00 00 00	 addss	 xmm0, DWORD PTR __real@3f000000
  00344	e8 00 00 00 00	 call	 __ftol3
  00349	8b f0		 mov	 esi, eax
  0034b	0f 57 c9	 xorps	 xmm1, xmm1
$LN44@OnRender:

; 934  :     DWORD dwA = a >= 1.0f ? 0xff : a <= 0.0f ? 0x00 : (DWORD) (a * 255.0f + 0.5f);

  0034e	f3 0f 10 43 10	 movss	 xmm0, DWORD PTR [ebx+16]
  00353	f3 0f 10 15 00
	00 00 00	 movss	 xmm2, DWORD PTR __real@3f800000
  0035b	0f 2f c2	 comiss	 xmm0, xmm2
  0035e	72 07		 jb	 SHORT $LN49@OnRender
  00360	b8 ff 00 00 00	 mov	 eax, 255		; 000000ffH
  00365	eb 26		 jmp	 SHORT $LN48@OnRender
$LN49@OnRender:
  00367	0f 2f c8	 comiss	 xmm1, xmm0
  0036a	72 04		 jb	 SHORT $LN47@OnRender
  0036c	33 c0		 xor	 eax, eax
  0036e	eb 1d		 jmp	 SHORT $LN48@OnRender
$LN47@OnRender:
  00370	f3 0f 59 05 00
	00 00 00	 mulss	 xmm0, DWORD PTR __real@437f0000
  00378	f3 0f 58 05 00
	00 00 00	 addss	 xmm0, DWORD PTR __real@3f000000
  00380	e8 00 00 00 00	 call	 __ftol3
  00385	f3 0f 10 15 00
	00 00 00	 movss	 xmm2, DWORD PTR __real@3f800000
$LN48@OnRender:
; File C:\Marty 5.5\Src-Client\Client\EterLib\GrpMarkInstance.cpp

; 121  : 	vertices[2].position.x	= m_v2Position.x-0.5f;

  0038d	f3 0f 10 85 78
	ff ff ff	 movss	 xmm0, DWORD PTR tv948[ebp]

; 122  : 	vertices[2].position.y	= m_v2Position.y + fRenderHeight -0.5f;

  00395	f3 0f 10 0d 00
	00 00 00	 movss	 xmm1, DWORD PTR __real@3f000000
  0039d	f3 0f 11 45 cc	 movss	 DWORD PTR _vertices$[ebp+48], xmm0
  003a2	f3 0f 10 43 18	 movss	 xmm0, DWORD PTR [ebx+24]
  003a7	f3 0f 58 45 88	 addss	 xmm0, DWORD PTR _fRenderHeight$1$[ebp]
; File C:\Marty 5.5\Src-Client\extern\include\d3dx8math.inl

; 936  :     return (dwA << 24) | (dwR << 16) | (dwG << 8) | dwB;

  003ac	c1 e0 08	 shl	 eax, 8
  003af	0b 45 98	 or	 eax, DWORD PTR _dwR$1$[ebp]
  003b2	c1 e0 08	 shl	 eax, 8
  003b5	0b c7		 or	 eax, edi
; File C:\Marty 5.5\Src-Client\Client\EterLib\GrpMarkInstance.cpp

; 122  : 	vertices[2].position.y	= m_v2Position.y + fRenderHeight -0.5f;

  003b7	f3 0f 5c c1	 subss	 xmm0, xmm1
; File C:\Marty 5.5\Src-Client\extern\include\d3dx8math.inl

; 936  :     return (dwA << 24) | (dwR << 16) | (dwG << 8) | dwB;

  003bb	c1 e0 08	 shl	 eax, 8
  003be	0b c6		 or	 eax, esi
; File C:\Marty 5.5\Src-Client\Client\EterLib\GrpMarkInstance.cpp

; 120  : 	vertices[1].diffuse		= m_DiffuseColor;

  003c0	89 45 c0	 mov	 DWORD PTR _vertices$[ebp+36], eax

; 122  : 	vertices[2].position.y	= m_v2Position.y + fRenderHeight -0.5f;

  003c3	f3 0f 11 45 88	 movss	 DWORD PTR tv968[ebp], xmm0
  003c8	f3 0f 11 45 d0	 movss	 DWORD PTR _vertices$[ebp+52], xmm0

; 123  : 	vertices[2].position.z	= m_fDepth;

  003cd	f3 0f 10 43 24	 movss	 xmm0, DWORD PTR [ebx+36]
  003d2	f3 0f 11 45 d4	 movss	 DWORD PTR _vertices$[ebp+56], xmm0

; 124  : 	vertices[2].texCoord	= TTextureCoordinate(su, ev);

  003d7	f3 0f 10 85 74
	ff ff ff	 movss	 xmm0, DWORD PTR _su$1$[ebp]
  003df	f3 0f 11 45 dc	 movss	 DWORD PTR _vertices$[ebp+64], xmm0
  003e4	f3 0f 10 45 94	 movss	 xmm0, DWORD PTR _ev$1$[ebp]
  003e9	f3 0f 11 45 e0	 movss	 DWORD PTR _vertices$[ebp+68], xmm0
; File C:\Marty 5.5\Src-Client\extern\include\d3dx8math.inl

; 931  :     DWORD dwR = r >= 1.0f ? 0xff : r <= 0.0f ? 0x00 : (DWORD) (r * 255.0f + 0.5f);

  003ee	f3 0f 10 43 04	 movss	 xmm0, DWORD PTR [ebx+4]
  003f3	0f 2f c2	 comiss	 xmm0, xmm2
  003f6	0f 57 d2	 xorps	 xmm2, xmm2
  003f9	72 09		 jb	 SHORT $LN57@OnRender
  003fb	c7 45 98 ff 00
	00 00		 mov	 DWORD PTR _dwR$1$[ebp], 255 ; 000000ffH
  00402	eb 2d		 jmp	 SHORT $LN56@OnRender
$LN57@OnRender:
  00404	0f 2f d0	 comiss	 xmm2, xmm0
  00407	72 09		 jb	 SHORT $LN55@OnRender
  00409	c7 45 98 00 00
	00 00		 mov	 DWORD PTR _dwR$1$[ebp], 0
  00410	eb 1f		 jmp	 SHORT $LN56@OnRender
$LN55@OnRender:
  00412	f3 0f 59 05 00
	00 00 00	 mulss	 xmm0, DWORD PTR __real@437f0000
  0041a	f3 0f 58 c1	 addss	 xmm0, xmm1
  0041e	e8 00 00 00 00	 call	 __ftol3
  00423	f3 0f 10 0d 00
	00 00 00	 movss	 xmm1, DWORD PTR __real@3f000000
  0042b	0f 57 d2	 xorps	 xmm2, xmm2
  0042e	89 45 98	 mov	 DWORD PTR _dwR$1$[ebp], eax
$LN56@OnRender:

; 932  :     DWORD dwG = g >= 1.0f ? 0xff : g <= 0.0f ? 0x00 : (DWORD) (g * 255.0f + 0.5f);

  00431	f3 0f 10 43 08	 movss	 xmm0, DWORD PTR [ebx+8]
  00436	0f 2f 05 00 00
	00 00		 comiss	 xmm0, DWORD PTR __real@3f800000
  0043d	72 07		 jb	 SHORT $LN61@OnRender
  0043f	bf ff 00 00 00	 mov	 edi, 255		; 000000ffH
  00444	eb 1c		 jmp	 SHORT $LN60@OnRender
$LN61@OnRender:
  00446	0f 2f d0	 comiss	 xmm2, xmm0
  00449	72 04		 jb	 SHORT $LN59@OnRender
  0044b	33 ff		 xor	 edi, edi
  0044d	eb 13		 jmp	 SHORT $LN60@OnRender
$LN59@OnRender:
  0044f	f3 0f 59 05 00
	00 00 00	 mulss	 xmm0, DWORD PTR __real@437f0000
  00457	f3 0f 58 c1	 addss	 xmm0, xmm1
  0045b	e8 00 00 00 00	 call	 __ftol3
  00460	8b f8		 mov	 edi, eax
$LN60@OnRender:

; 933  :     DWORD dwB = b >= 1.0f ? 0xff : b <= 0.0f ? 0x00 : (DWORD) (b * 255.0f + 0.5f);

  00462	f3 0f 10 43 0c	 movss	 xmm0, DWORD PTR [ebx+12]
  00467	0f 57 c9	 xorps	 xmm1, xmm1
  0046a	0f 2f 05 00 00
	00 00		 comiss	 xmm0, DWORD PTR __real@3f800000
  00471	72 07		 jb	 SHORT $LN65@OnRender
  00473	be ff 00 00 00	 mov	 esi, 255		; 000000ffH
  00478	eb 23		 jmp	 SHORT $LN64@OnRender
$LN65@OnRender:
  0047a	0f 2f c8	 comiss	 xmm1, xmm0
  0047d	72 04		 jb	 SHORT $LN63@OnRender
  0047f	33 f6		 xor	 esi, esi
  00481	eb 1a		 jmp	 SHORT $LN64@OnRender
$LN63@OnRender:
  00483	f3 0f 59 05 00
	00 00 00	 mulss	 xmm0, DWORD PTR __real@437f0000
  0048b	f3 0f 58 05 00
	00 00 00	 addss	 xmm0, DWORD PTR __real@3f000000
  00493	e8 00 00 00 00	 call	 __ftol3
  00498	8b f0		 mov	 esi, eax
  0049a	0f 57 c9	 xorps	 xmm1, xmm1
$LN64@OnRender:

; 934  :     DWORD dwA = a >= 1.0f ? 0xff : a <= 0.0f ? 0x00 : (DWORD) (a * 255.0f + 0.5f);

  0049d	f3 0f 10 43 10	 movss	 xmm0, DWORD PTR [ebx+16]
  004a2	0f 2f 05 00 00
	00 00		 comiss	 xmm0, DWORD PTR __real@3f800000
  004a9	72 07		 jb	 SHORT $LN69@OnRender
  004ab	b8 ff 00 00 00	 mov	 eax, 255		; 000000ffH
  004b0	eb 1e		 jmp	 SHORT $LN68@OnRender
$LN69@OnRender:
  004b2	0f 2f c8	 comiss	 xmm1, xmm0
  004b5	72 04		 jb	 SHORT $LN67@OnRender
  004b7	33 c0		 xor	 eax, eax
  004b9	eb 15		 jmp	 SHORT $LN68@OnRender
$LN67@OnRender:
  004bb	f3 0f 59 05 00
	00 00 00	 mulss	 xmm0, DWORD PTR __real@437f0000
  004c3	f3 0f 58 05 00
	00 00 00	 addss	 xmm0, DWORD PTR __real@3f000000
  004cb	e8 00 00 00 00	 call	 __ftol3
$LN68@OnRender:
; File C:\Marty 5.5\Src-Client\Client\EterLib\GrpMarkInstance.cpp

; 126  : 	vertices[3].position.x	= m_v2Position.x + fRenderWidth -0.5f;

  004d0	f3 0f 10 45 8c	 movss	 xmm0, DWORD PTR tv967[ebp]
; File C:\Marty 5.5\Src-Client\extern\include\d3dx8math.inl

; 931  :     DWORD dwR = r >= 1.0f ? 0xff : r <= 0.0f ? 0x00 : (DWORD) (r * 255.0f + 0.5f);

  004d5	0f 57 c9	 xorps	 xmm1, xmm1
; File C:\Marty 5.5\Src-Client\Client\EterLib\GrpMarkInstance.cpp

; 126  : 	vertices[3].position.x	= m_v2Position.x + fRenderWidth -0.5f;

  004d8	f3 0f 11 45 e4	 movss	 DWORD PTR _vertices$[ebp+72], xmm0

; 127  : 	vertices[3].position.y	= m_v2Position.y + fRenderHeight -0.5f;

  004dd	f3 0f 10 45 88	 movss	 xmm0, DWORD PTR tv968[ebp]
; File C:\Marty 5.5\Src-Client\extern\include\d3dx8math.inl

; 936  :     return (dwA << 24) | (dwR << 16) | (dwG << 8) | dwB;

  004e2	c1 e0 08	 shl	 eax, 8
  004e5	0b 45 98	 or	 eax, DWORD PTR _dwR$1$[ebp]
; File C:\Marty 5.5\Src-Client\Client\EterLib\GrpMarkInstance.cpp

; 127  : 	vertices[3].position.y	= m_v2Position.y + fRenderHeight -0.5f;

  004e8	f3 0f 11 45 e8	 movss	 DWORD PTR _vertices$[ebp+76], xmm0

; 128  : 	vertices[3].position.z	= m_fDepth;

  004ed	f3 0f 10 43 24	 movss	 xmm0, DWORD PTR [ebx+36]
  004f2	f3 0f 11 45 ec	 movss	 DWORD PTR _vertices$[ebp+80], xmm0

; 129  : 	vertices[3].texCoord	= TTextureCoordinate(eu, ev);

  004f7	f3 0f 10 45 84	 movss	 xmm0, DWORD PTR _eu$1$[ebp]
; File C:\Marty 5.5\Src-Client\extern\include\d3dx8math.inl

; 936  :     return (dwA << 24) | (dwR << 16) | (dwG << 8) | dwB;

  004fc	c1 e0 08	 shl	 eax, 8
  004ff	0b c7		 or	 eax, edi
; File C:\Marty 5.5\Src-Client\Client\EterLib\GrpMarkInstance.cpp

; 129  : 	vertices[3].texCoord	= TTextureCoordinate(eu, ev);

  00501	f3 0f 11 45 f4	 movss	 DWORD PTR _vertices$[ebp+88], xmm0
  00506	f3 0f 10 45 94	 movss	 xmm0, DWORD PTR _ev$1$[ebp]
; File C:\Marty 5.5\Src-Client\extern\include\d3dx8math.inl

; 936  :     return (dwA << 24) | (dwR << 16) | (dwG << 8) | dwB;

  0050b	c1 e0 08	 shl	 eax, 8
; File C:\Marty 5.5\Src-Client\Client\EterLib\GrpMarkInstance.cpp

; 129  : 	vertices[3].texCoord	= TTextureCoordinate(eu, ev);

  0050e	f3 0f 11 45 f8	 movss	 DWORD PTR _vertices$[ebp+92], xmm0
; File C:\Marty 5.5\Src-Client\extern\include\d3dx8math.inl

; 936  :     return (dwA << 24) | (dwR << 16) | (dwG << 8) | dwB;

  00513	0b c6		 or	 eax, esi

; 931  :     DWORD dwR = r >= 1.0f ? 0xff : r <= 0.0f ? 0x00 : (DWORD) (r * 255.0f + 0.5f);

  00515	f3 0f 10 43 04	 movss	 xmm0, DWORD PTR [ebx+4]
  0051a	0f 2f 05 00 00
	00 00		 comiss	 xmm0, DWORD PTR __real@3f800000
; File C:\Marty 5.5\Src-Client\Client\EterLib\GrpMarkInstance.cpp

; 125  : 	vertices[2].diffuse		= m_DiffuseColor;

  00521	89 45 d8	 mov	 DWORD PTR _vertices$[ebp+60], eax
; File C:\Marty 5.5\Src-Client\extern\include\d3dx8math.inl

; 931  :     DWORD dwR = r >= 1.0f ? 0xff : r <= 0.0f ? 0x00 : (DWORD) (r * 255.0f + 0.5f);

  00524	72 09		 jb	 SHORT $LN77@OnRender
  00526	c7 45 98 ff 00
	00 00		 mov	 DWORD PTR _dwR$1$[ebp], 255 ; 000000ffH
  0052d	eb 29		 jmp	 SHORT $LN76@OnRender
$LN77@OnRender:
  0052f	0f 2f c8	 comiss	 xmm1, xmm0
  00532	72 09		 jb	 SHORT $LN75@OnRender
  00534	c7 45 98 00 00
	00 00		 mov	 DWORD PTR _dwR$1$[ebp], 0
  0053b	eb 1b		 jmp	 SHORT $LN76@OnRender
$LN75@OnRender:
  0053d	f3 0f 59 05 00
	00 00 00	 mulss	 xmm0, DWORD PTR __real@437f0000
  00545	f3 0f 58 05 00
	00 00 00	 addss	 xmm0, DWORD PTR __real@3f000000
  0054d	e8 00 00 00 00	 call	 __ftol3
  00552	89 45 98	 mov	 DWORD PTR _dwR$1$[ebp], eax
  00555	0f 57 c9	 xorps	 xmm1, xmm1
$LN76@OnRender:

; 932  :     DWORD dwG = g >= 1.0f ? 0xff : g <= 0.0f ? 0x00 : (DWORD) (g * 255.0f + 0.5f);

  00558	f3 0f 10 43 08	 movss	 xmm0, DWORD PTR [ebx+8]
  0055d	0f 2f 05 00 00
	00 00		 comiss	 xmm0, DWORD PTR __real@3f800000
  00564	72 07		 jb	 SHORT $LN81@OnRender
  00566	bf ff 00 00 00	 mov	 edi, 255		; 000000ffH
  0056b	eb 20		 jmp	 SHORT $LN80@OnRender
$LN81@OnRender:
  0056d	0f 2f c8	 comiss	 xmm1, xmm0
  00570	72 04		 jb	 SHORT $LN79@OnRender
  00572	33 ff		 xor	 edi, edi
  00574	eb 17		 jmp	 SHORT $LN80@OnRender
$LN79@OnRender:
  00576	f3 0f 59 05 00
	00 00 00	 mulss	 xmm0, DWORD PTR __real@437f0000
  0057e	f3 0f 58 05 00
	00 00 00	 addss	 xmm0, DWORD PTR __real@3f000000
  00586	e8 00 00 00 00	 call	 __ftol3
  0058b	8b f8		 mov	 edi, eax
$LN80@OnRender:

; 933  :     DWORD dwB = b >= 1.0f ? 0xff : b <= 0.0f ? 0x00 : (DWORD) (b * 255.0f + 0.5f);

  0058d	f3 0f 10 43 0c	 movss	 xmm0, DWORD PTR [ebx+12]
  00592	0f 57 c9	 xorps	 xmm1, xmm1
  00595	0f 2f 05 00 00
	00 00		 comiss	 xmm0, DWORD PTR __real@3f800000
  0059c	72 07		 jb	 SHORT $LN85@OnRender
  0059e	be ff 00 00 00	 mov	 esi, 255		; 000000ffH
  005a3	eb 23		 jmp	 SHORT $LN84@OnRender
$LN85@OnRender:
  005a5	0f 2f c8	 comiss	 xmm1, xmm0
  005a8	72 04		 jb	 SHORT $LN83@OnRender
  005aa	33 f6		 xor	 esi, esi
  005ac	eb 1a		 jmp	 SHORT $LN84@OnRender
$LN83@OnRender:
  005ae	f3 0f 59 05 00
	00 00 00	 mulss	 xmm0, DWORD PTR __real@437f0000
  005b6	f3 0f 58 05 00
	00 00 00	 addss	 xmm0, DWORD PTR __real@3f000000
  005be	e8 00 00 00 00	 call	 __ftol3
  005c3	8b f0		 mov	 esi, eax
  005c5	0f 57 c9	 xorps	 xmm1, xmm1
$LN84@OnRender:

; 934  :     DWORD dwA = a >= 1.0f ? 0xff : a <= 0.0f ? 0x00 : (DWORD) (a * 255.0f + 0.5f);

  005c8	f3 0f 10 43 10	 movss	 xmm0, DWORD PTR [ebx+16]
  005cd	0f 2f 05 00 00
	00 00		 comiss	 xmm0, DWORD PTR __real@3f800000
  005d4	72 07		 jb	 SHORT $LN89@OnRender
  005d6	b8 ff 00 00 00	 mov	 eax, 255		; 000000ffH
  005db	eb 1e		 jmp	 SHORT $LN88@OnRender
$LN89@OnRender:
  005dd	0f 2f c8	 comiss	 xmm1, xmm0
  005e0	72 04		 jb	 SHORT $LN87@OnRender
  005e2	33 c0		 xor	 eax, eax
  005e4	eb 15		 jmp	 SHORT $LN88@OnRender
$LN87@OnRender:
  005e6	f3 0f 59 05 00
	00 00 00	 mulss	 xmm0, DWORD PTR __real@437f0000
  005ee	f3 0f 58 05 00
	00 00 00	 addss	 xmm0, DWORD PTR __real@3f000000
  005f6	e8 00 00 00 00	 call	 __ftol3
$LN88@OnRender:

; 936  :     return (dwA << 24) | (dwR << 16) | (dwG << 8) | dwB;

  005fb	c1 e0 08	 shl	 eax, 8
  005fe	0b 45 98	 or	 eax, DWORD PTR _dwR$1$[ebp]
  00601	c1 e0 08	 shl	 eax, 8
  00604	0b c7		 or	 eax, edi
  00606	c1 e0 08	 shl	 eax, 8
  00609	0b c6		 or	 eax, esi
; File C:\Marty 5.5\Src-Client\Client\EterLib\GrpMarkInstance.cpp

; 130  : 	vertices[3].diffuse		= m_DiffuseColor;

  0060b	89 45 f0	 mov	 DWORD PTR _vertices$[ebp+84], eax

; 131  : 	//@natanek165
; 132  : 
; 133  : 	if (CGraphicBase::SetPDTStream(vertices, 4))

  0060e	8d 45 9c	 lea	 eax, DWORD PTR _vertices$[ebp]
  00611	6a 04		 push	 4
  00613	50		 push	 eax
  00614	e8 00 00 00 00	 call	 ?SetPDTStream@CGraphicBase@@SA_NPAUSPDTVertex@@I@Z ; CGraphicBase::SetPDTStream
  00619	83 c4 08	 add	 esp, 8
  0061c	5f		 pop	 edi
  0061d	84 c0		 test	 al, al
  0061f	74 56		 je	 SHORT $LN3@OnRender

; 134  : 	{
; 135  : 		CGraphicBase::SetDefaultIndexBuffer(CGraphicBase::DEFAULT_IB_FILL_RECT);

  00621	6a 05		 push	 5
  00623	e8 00 00 00 00	 call	 ?SetDefaultIndexBuffer@CGraphicBase@@SAXI@Z ; CGraphicBase::SetDefaultIndexBuffer

; 137  : 		STATEMANAGER.SetTexture(0, pTexture->GetD3DTexture());

  00628	8b 4d 90	 mov	 ecx, DWORD PTR _pTexture$1$[ebp]
  0062b	83 c4 04	 add	 esp, 4
; File C:\Marty 5.5\Src-Client\Client\eterBase\Singleton.h

; 27   : 		return (*ms_singleton);

  0062e	8b 35 00 00 00
	00		 mov	 esi, DWORD PTR ?ms_singleton@?$CSingleton@VCStateManager@@@@0PAVCStateManager@@A ; CSingleton<CStateManager>::ms_singleton
; File C:\Marty 5.5\Src-Client\Client\EterLib\GrpMarkInstance.cpp

; 137  : 		STATEMANAGER.SetTexture(0, pTexture->GetD3DTexture());

  00634	e8 00 00 00 00	 call	 ?GetD3DTexture@CGraphicTexture@@QBEPAUIDirect3DTexture8@@XZ ; CGraphicTexture::GetD3DTexture
  00639	50		 push	 eax
  0063a	6a 00		 push	 0
  0063c	8b ce		 mov	 ecx, esi
  0063e	e8 00 00 00 00	 call	 ?SetTexture@CStateManager@@QAEXKPAUIDirect3DBaseTexture8@@@Z ; CStateManager::SetTexture

; 138  : 		STATEMANAGER.SetTexture(1, NULL);

  00643	8b 0d 00 00 00
	00		 mov	 ecx, DWORD PTR ?ms_singleton@?$CSingleton@VCStateManager@@@@0PAVCStateManager@@A ; CSingleton<CStateManager>::ms_singleton
  00649	6a 00		 push	 0
  0064b	6a 01		 push	 1
  0064d	e8 00 00 00 00	 call	 ?SetTexture@CStateManager@@QAEXKPAUIDirect3DBaseTexture8@@@Z ; CStateManager::SetTexture

; 139  : 		STATEMANAGER.SetVertexShader(D3DFVF_XYZ|D3DFVF_DIFFUSE|D3DFVF_TEX1);

  00652	8b 0d 00 00 00
	00		 mov	 ecx, DWORD PTR ?ms_singleton@?$CSingleton@VCStateManager@@@@0PAVCStateManager@@A ; CSingleton<CStateManager>::ms_singleton
  00658	68 42 01 00 00	 push	 322			; 00000142H
  0065d	e8 00 00 00 00	 call	 ?SetVertexShader@CStateManager@@QAEXK@Z ; CStateManager::SetVertexShader

; 140  : 		STATEMANAGER.DrawIndexedPrimitive(D3DPT_TRIANGLELIST, 0, 4, 0, 2);

  00662	8b 0d 00 00 00
	00		 mov	 ecx, DWORD PTR ?ms_singleton@?$CSingleton@VCStateManager@@@@0PAVCStateManager@@A ; CSingleton<CStateManager>::ms_singleton
  00668	6a 02		 push	 2
  0066a	6a 00		 push	 0
  0066c	6a 04		 push	 4
  0066e	6a 00		 push	 0
  00670	6a 04		 push	 4
  00672	e8 00 00 00 00	 call	 ?DrawIndexedPrimitive@CStateManager@@QAEJW4_D3DPRIMITIVETYPE@@IIII@Z ; CStateManager::DrawIndexedPrimitive
$LN3@OnRender:

; 141  : 		//OLD: STATEMANAGER.DrawIndexedPrimitiveUP(D3DPT_TRIANGLELIST, 0, 4, 2, c_FillRectIndices, D3DFMT_INDEX16, vertices, sizeof(TPDTVertex));
; 142  : 	}
; 143  : }

  00677	8b 4d fc	 mov	 ecx, DWORD PTR __$ArrayPad$[ebp]
  0067a	5e		 pop	 esi
  0067b	33 cd		 xor	 ecx, ebp
  0067d	5b		 pop	 ebx
  0067e	e8 00 00 00 00	 call	 @__security_check_cookie@4
  00683	8b e5		 mov	 esp, ebp
  00685	5d		 pop	 ebp
  00686	c3		 ret	 0
?OnRender@CGraphicMarkInstance@@MAEXXZ ENDP		; CGraphicMarkInstance::OnRender
_TEXT	ENDS
; Function compile flags: /Ogtp
; File C:\Marty 5.5\Src-Client\Client\EterLib\GrpMarkInstance.cpp
;	COMDAT ?Initialize@CGraphicMarkInstance@@IAEXXZ
_TEXT	SEGMENT
?Initialize@CGraphicMarkInstance@@IAEXXZ PROC		; CGraphicMarkInstance::Initialize, COMDAT
; _this$ = ecx

; 264  : 	m_DiffuseColor.r = m_DiffuseColor.g = m_DiffuseColor.b = m_DiffuseColor.a = 1.0f;

  00000	c7 41 10 00 00
	80 3f		 mov	 DWORD PTR [ecx+16], 1065353216 ; 3f800000H
  00007	c7 41 0c 00 00
	80 3f		 mov	 DWORD PTR [ecx+12], 1065353216 ; 3f800000H
  0000e	c7 41 08 00 00
	80 3f		 mov	 DWORD PTR [ecx+8], 1065353216 ; 3f800000H
  00015	c7 41 04 00 00
	80 3f		 mov	 DWORD PTR [ecx+4], 1065353216 ; 3f800000H

; 265  : 	m_v2Position.x = m_v2Position.y = 0.0f;

  0001c	c7 41 18 00 00
	00 00		 mov	 DWORD PTR [ecx+24], 0
  00023	c7 41 14 00 00
	00 00		 mov	 DWORD PTR [ecx+20], 0

; 266  : 	m_uIndex = 0;

  0002a	c7 41 1c 00 00
	00 00		 mov	 DWORD PTR [ecx+28], 0

; 267  : 	m_fScale = 1.0f;

  00031	c7 41 20 00 00
	80 3f		 mov	 DWORD PTR [ecx+32], 1065353216 ; 3f800000H

; 268  : 	m_fDepth = 0.0f; //@natanek165

  00038	c7 41 24 00 00
	00 00		 mov	 DWORD PTR [ecx+36], 0

; 269  : }

  0003f	c3		 ret	 0
?Initialize@CGraphicMarkInstance@@IAEXXZ ENDP		; CGraphicMarkInstance::Initialize
_TEXT	ENDS
; Function compile flags: /Ogtp
; File C:\Marty 5.5\Src-Client\Client\EterLib\GrpMarkInstance.cpp
;	COMDAT ??8CGraphicMarkInstance@@QBE_NABV0@@Z
_TEXT	SEGMENT
_rhs$ = 8						; size = 4
??8CGraphicMarkInstance@@QBE_NABV0@@Z PROC		; CGraphicMarkInstance::operator==, COMDAT
; _this$ = ecx

; 235  : {

  00000	55		 push	 ebp
  00001	8b ec		 mov	 ebp, esp

; 236  : 	return (m_roImage.GetPointer() == rhs.m_roImage.GetPointer());

  00003	8b 45 08	 mov	 eax, DWORD PTR _rhs$[ebp]
  00006	8b 49 28	 mov	 ecx, DWORD PTR [ecx+40]
  00009	3b 48 28	 cmp	 ecx, DWORD PTR [eax+40]
  0000c	0f 94 c0	 sete	 al

; 237  : }

  0000f	5d		 pop	 ebp
  00010	c2 04 00	 ret	 4
??8CGraphicMarkInstance@@QBE_NABV0@@Z ENDP		; CGraphicMarkInstance::operator==
_TEXT	ENDS
; Function compile flags: /Ogtp
; File C:\Marty 5.5\Src-Client\Client\EterLib\GrpMarkInstance.cpp
;	COMDAT ?GetGraphicImagePointer@CGraphicMarkInstance@@QAEPAVCGraphicImage@@XZ
_TEXT	SEGMENT
?GetGraphicImagePointer@CGraphicMarkInstance@@QAEPAVCGraphicImage@@XZ PROC ; CGraphicMarkInstance::GetGraphicImagePointer, COMDAT
; _this$ = ecx

; 157  : 	return m_roImage.GetPointer();

  00000	8b 41 28	 mov	 eax, DWORD PTR [ecx+40]

; 158  : }

  00003	c3		 ret	 0
?GetGraphicImagePointer@CGraphicMarkInstance@@QAEPAVCGraphicImage@@XZ ENDP ; CGraphicMarkInstance::GetGraphicImagePointer
_TEXT	ENDS
; Function compile flags: /Ogtp
; File C:\Marty 5.5\Src-Client\Client\EterLib\GrpMarkInstance.cpp
;	COMDAT ?GetTextureReference@CGraphicMarkInstance@@QBEABVCGraphicTexture@@XZ
_TEXT	SEGMENT
?GetTextureReference@CGraphicMarkInstance@@QBEABVCGraphicTexture@@XZ PROC ; CGraphicMarkInstance::GetTextureReference, COMDAT
; _this$ = ecx

; 147  : 	return m_roImage->GetTextureReference();

  00000	8b 49 28	 mov	 ecx, DWORD PTR [ecx+40]
  00003	e9 00 00 00 00	 jmp	 ?GetTextureReference@CGraphicImage@@QBEABVCGraphicTexture@@XZ ; CGraphicImage::GetTextureReference
?GetTextureReference@CGraphicMarkInstance@@QBEABVCGraphicTexture@@XZ ENDP ; CGraphicMarkInstance::GetTextureReference
_TEXT	ENDS
; Function compile flags: /Ogtp
; File C:\Marty 5.5\Src-Client\Client\EterLib\GrpMarkInstance.cpp
;	COMDAT ?GetTexturePointer@CGraphicMarkInstance@@QAEPAVCGraphicTexture@@XZ
_TEXT	SEGMENT
?GetTexturePointer@CGraphicMarkInstance@@QAEPAVCGraphicTexture@@XZ PROC ; CGraphicMarkInstance::GetTexturePointer, COMDAT
; _this$ = ecx

; 152  : 	return m_roImage->GetTexturePointer();

  00000	8b 49 28	 mov	 ecx, DWORD PTR [ecx+40]
  00003	e9 00 00 00 00	 jmp	 ?GetTexturePointer@CGraphicImage@@QAEPAVCGraphicTexture@@XZ ; CGraphicImage::GetTexturePointer
?GetTexturePointer@CGraphicMarkInstance@@QAEPAVCGraphicTexture@@XZ ENDP ; CGraphicMarkInstance::GetTexturePointer
_TEXT	ENDS
; Function compile flags: /Ogtp
; File C:\Marty 5.5\Src-Client\Client\EterLib\GrpMarkInstance.cpp
;	COMDAT ?GetHeight@CGraphicMarkInstance@@QAEHXZ
_TEXT	SEGMENT
?GetHeight@CGraphicMarkInstance@@QAEHXZ PROC		; CGraphicMarkInstance::GetHeight, COMDAT
; _this$ = ecx

; 181  : 	if (IsEmpty())

  00000	e8 00 00 00 00	 call	 ?IsEmpty@CGraphicMarkInstance@@QBE_NXZ ; CGraphicMarkInstance::IsEmpty
  00005	33 d2		 xor	 edx, edx
  00007	b9 0c 00 00 00	 mov	 ecx, 12			; 0000000cH
  0000c	84 c0		 test	 al, al
  0000e	0f 45 ca	 cmovne	 ecx, edx

; 182  : 		return 0;

  00011	8b c1		 mov	 eax, ecx

; 183  : 
; 184  : 	//return m_roImage->GetHeight();
; 185  : 	return 12;
; 186  : }

  00013	c3		 ret	 0
?GetHeight@CGraphicMarkInstance@@QAEHXZ ENDP		; CGraphicMarkInstance::GetHeight
_TEXT	ENDS
; Function compile flags: /Ogtp
; File C:\Marty 5.5\Src-Client\Client\EterLib\GrpMarkInstance.cpp
;	COMDAT ?GetWidth@CGraphicMarkInstance@@QAEHXZ
_TEXT	SEGMENT
?GetWidth@CGraphicMarkInstance@@QAEHXZ PROC		; CGraphicMarkInstance::GetWidth, COMDAT
; _this$ = ecx

; 172  : 	if (IsEmpty())

  00000	e8 00 00 00 00	 call	 ?IsEmpty@CGraphicMarkInstance@@QBE_NXZ ; CGraphicMarkInstance::IsEmpty
  00005	33 d2		 xor	 edx, edx
  00007	b9 10 00 00 00	 mov	 ecx, 16			; 00000010H
  0000c	84 c0		 test	 al, al
  0000e	0f 45 ca	 cmovne	 ecx, edx

; 173  : 		return 0;

  00011	8b c1		 mov	 eax, ecx

; 174  : 
; 175  : 	//return m_roImage->GetWidth();
; 176  : 	return 16;
; 177  : }

  00013	c3		 ret	 0
?GetWidth@CGraphicMarkInstance@@QAEHXZ ENDP		; CGraphicMarkInstance::GetWidth
_TEXT	ENDS
; Function compile flags: /Ogtp
; File C:\Marty 5.5\Src-Client\Client\EterLib\GrpMarkInstance.cpp
; File C:\Marty 5.5\Src-Client\Client\EterLib\Ref.h
; File C:\Marty 5.5\Src-Client\Client\EterLib\GrpMarkInstance.cpp
;	COMDAT ?IsEmpty@CGraphicMarkInstance@@QBE_NXZ
_TEXT	SEGMENT
?IsEmpty@CGraphicMarkInstance@@QBE_NXZ PROC		; CGraphicMarkInstance::IsEmpty, COMDAT
; _this$ = ecx
; File C:\Marty 5.5\Src-Client\Client\EterLib\Ref.h

; 62   : 			return m_pObject == NULL ? true : false;

  00000	8b 49 28	 mov	 ecx, DWORD PTR [ecx+40]
  00003	85 c9		 test	 ecx, ecx
; File C:\Marty 5.5\Src-Client\Client\EterLib\GrpMarkInstance.cpp

; 228  : 	if (!m_roImage.IsNull() && !m_roImage->IsEmpty())

  00005	74 0b		 je	 SHORT $LN2@IsEmpty
  00007	e8 00 00 00 00	 call	 ?IsEmpty@CResource@@QBE_NXZ ; CResource::IsEmpty
  0000c	84 c0		 test	 al, al
  0000e	0f 95 c0	 setne	 al

; 232  : }

  00011	c3		 ret	 0
$LN2@IsEmpty:

; 229  : 		return false;
; 230  : 
; 231  : 	return true;

  00012	b0 01		 mov	 al, 1

; 232  : }

  00014	c3		 ret	 0
?IsEmpty@CGraphicMarkInstance@@QBE_NXZ ENDP		; CGraphicMarkInstance::IsEmpty
_TEXT	ENDS
; Function compile flags: /Ogtp
; File C:\Marty 5.5\Src-Client\Client\EterLib\GrpMarkInstance.cpp
; File D:\Program Files\Microsoft Visual Studio\2022\Community\VC\Tools\MSVC\14.43.34808\include\xstring
; File C:\Marty 5.5\Src-Client\Client\EterLib\GrpMarkInstance.cpp
; File D:\Program Files\Microsoft Visual Studio\2022\Community\VC\Tools\MSVC\14.43.34808\include\xstring
; File C:\Marty 5.5\Src-Client\Client\EterLib\GrpMarkInstance.cpp
; File D:\Program Files\Microsoft Visual Studio\2022\Community\VC\Tools\MSVC\14.43.34808\include\xstring
; File C:\Marty 5.5\Src-Client\Client\EterLib\GrpMarkInstance.cpp
;	COMDAT ?Load@CGraphicMarkInstance@@QAEXXZ
_TEXT	SEGMENT
?Load@CGraphicMarkInstance@@QAEXXZ PROC			; CGraphicMarkInstance::Load, COMDAT
; _this$ = ecx

; 203  : {

  00000	53		 push	 ebx
  00001	56		 push	 esi
  00002	8b d9		 mov	 ebx, ecx

; 204  : 	if (GetImageFileName().empty())

  00004	e8 00 00 00 00	 call	 ?GetImageFileName@CGraphicMarkInstance@@QAEABV?$basic_string@DU?$char_traits@D@std@@V?$allocator@D@2@@std@@XZ ; CGraphicMarkInstance::GetImageFileName
  00009	8b f0		 mov	 esi, eax
; File D:\Program Files\Microsoft Visual Studio\2022\Community\VC\Tools\MSVC\14.43.34808\include\xstring

; 2458 :         return _Mypair._Myval2._Mysize == 0;

  0000b	83 7e 10 00	 cmp	 DWORD PTR [esi+16], 0
; File C:\Marty 5.5\Src-Client\Client\EterLib\GrpMarkInstance.cpp

; 204  : 	if (GetImageFileName().empty())

  0000f	74 4f		 je	 SHORT $LN4@Load
; File D:\Program Files\Microsoft Visual Studio\2022\Community\VC\Tools\MSVC\14.43.34808\include\xstring

; 434  :         return _Myres > _Small_string_capacity;

  00011	83 7e 14 0f	 cmp	 DWORD PTR [esi+20], 15	; 0000000fH

; 426  :         if (_Large_mode_engaged()) {

  00015	76 02		 jbe	 SHORT $LN30@Load

; 427  :             _Result = _Unfancy(_Bx._Ptr);

  00017	8b 06		 mov	 eax, DWORD PTR [esi]
$LN30@Load:
; File C:\Marty 5.5\Src-Client\Client\EterLib\GrpMarkInstance.cpp

; 207  : 	CResource * pResource = CResourceManager::Instance().GetResourcePointer(GetImageFileName().c_str());

  00019	8b 0d 00 00 00
	00		 mov	 ecx, DWORD PTR ?ms_singleton@?$CSingleton@VCResourceManager@@@@0PAVCResourceManager@@A ; CSingleton<CResourceManager>::ms_singleton
  0001f	57		 push	 edi
  00020	50		 push	 eax
  00021	e8 00 00 00 00	 call	 ?GetResourcePointer@CResourceManager@@QAEPAVCResource@@PBD@Z ; CResourceManager::GetResourcePointer
  00026	8b f8		 mov	 edi, eax

; 208  : 
; 209  : 	if (!pResource)

  00028	85 ff		 test	 edi, edi
  0002a	75 1a		 jne	 SHORT $LN3@Load
; File D:\Program Files\Microsoft Visual Studio\2022\Community\VC\Tools\MSVC\14.43.34808\include\xstring

; 434  :         return _Myres > _Small_string_capacity;

  0002c	83 7e 14 0f	 cmp	 DWORD PTR [esi+20], 15	; 0000000fH

; 426  :         if (_Large_mode_engaged()) {

  00030	76 02		 jbe	 SHORT $LN23@Load

; 427  :             _Result = _Unfancy(_Bx._Ptr);

  00032	8b 36		 mov	 esi, DWORD PTR [esi]
$LN23@Load:
; File C:\Marty 5.5\Src-Client\Client\EterLib\GrpMarkInstance.cpp

; 211  : 		TraceError("CGraphicMarkinstance::Load - [%s] NOT EXIST", GetImageFileName().c_str());

  00034	56		 push	 esi
  00035	68 00 00 00 00	 push	 OFFSET ??_C@_0CM@NEBKKKDH@CGraphicMarkinstance?3?3Load?5?9?5?$FL?$CF@
  0003a	e8 00 00 00 00	 call	 ?TraceError@@YAXPBDZZ	; TraceError
  0003f	83 c4 08	 add	 esp, 8
  00042	5f		 pop	 edi
  00043	5e		 pop	 esi

; 217  : }

  00044	5b		 pop	 ebx
  00045	c3		 ret	 0
$LN3@Load:

; 212  : 		return;
; 213  : 	}
; 214  : 
; 215  : 	if (pResource->IsType(CGraphicImage::Type()))

  00046	e8 00 00 00 00	 call	 ?Type@CGraphicImage@@SAKXZ ; CGraphicImage::Type
  0004b	50		 push	 eax
  0004c	8b cf		 mov	 ecx, edi
  0004e	e8 00 00 00 00	 call	 ?IsType@CResource@@QAE_NK@Z ; CResource::IsType
  00053	84 c0		 test	 al, al
  00055	74 08		 je	 SHORT $LN36@Load

; 216  : 		SetImagePointer(static_cast<CGraphicImage*>(pResource));

  00057	57		 push	 edi
  00058	8b cb		 mov	 ecx, ebx
  0005a	e8 00 00 00 00	 call	 ?SetImagePointer@CGraphicMarkInstance@@IAEXPAVCGraphicImage@@@Z ; CGraphicMarkInstance::SetImagePointer
$LN36@Load:
  0005f	5f		 pop	 edi
$LN4@Load:
  00060	5e		 pop	 esi

; 217  : }

  00061	5b		 pop	 ebx
  00062	c3		 ret	 0
?Load@CGraphicMarkInstance@@QAEXXZ ENDP			; CGraphicMarkInstance::Load
_TEXT	ENDS
; Function compile flags: /Ogtp
; File C:\Marty 5.5\Src-Client\Client\EterLib\GrpMarkInstance.cpp
;	COMDAT ?SetScale@CGraphicMarkInstance@@QAEXM@Z
_TEXT	SEGMENT
_fScale$ = 8						; size = 4
?SetScale@CGraphicMarkInstance@@QAEXM@Z PROC		; CGraphicMarkInstance::SetScale, COMDAT
; _this$ = ecx

; 161  : {

  00000	55		 push	 ebp
  00001	8b ec		 mov	 ebp, esp

; 162  : 	m_fScale=fScale;

  00003	f3 0f 10 45 08	 movss	 xmm0, DWORD PTR _fScale$[ebp]
  00008	f3 0f 11 41 20	 movss	 DWORD PTR [ecx+32], xmm0

; 163  : }

  0000d	5d		 pop	 ebp
  0000e	c2 04 00	 ret	 4
?SetScale@CGraphicMarkInstance@@QAEXM@Z ENDP		; CGraphicMarkInstance::SetScale
_TEXT	ENDS
; Function compile flags: /Ogtp
; File C:\Marty 5.5\Src-Client\Client\EterLib\GrpMarkInstance.cpp
;	COMDAT ?SetIndex@CGraphicMarkInstance@@QAEXI@Z
_TEXT	SEGMENT
_uIndex$ = 8						; size = 4
?SetIndex@CGraphicMarkInstance@@QAEXI@Z PROC		; CGraphicMarkInstance::SetIndex, COMDAT
; _this$ = ecx

; 166  : {

  00000	55		 push	 ebp
  00001	8b ec		 mov	 ebp, esp

; 167  : 	m_uIndex=uIndex;

  00003	8b 45 08	 mov	 eax, DWORD PTR _uIndex$[ebp]
  00006	89 41 1c	 mov	 DWORD PTR [ecx+28], eax

; 168  : }

  00009	5d		 pop	 ebp
  0000a	c2 04 00	 ret	 4
?SetIndex@CGraphicMarkInstance@@QAEXI@Z ENDP		; CGraphicMarkInstance::SetIndex
_TEXT	ENDS
; Function compile flags: /Ogtp
; File C:\Marty 5.5\Src-Client\Client\EterLib\GrpMarkInstance.cpp
;	COMDAT ?SetPosition@CGraphicMarkInstance@@QAEXMM@Z
_TEXT	SEGMENT
_fx$ = 8						; size = 4
_fy$ = 12						; size = 4
?SetPosition@CGraphicMarkInstance@@QAEXMM@Z PROC	; CGraphicMarkInstance::SetPosition, COMDAT
; _this$ = ecx

; 197  : {

  00000	55		 push	 ebp
  00001	8b ec		 mov	 ebp, esp

; 198  : 	m_v2Position.x = fx;

  00003	f3 0f 10 45 08	 movss	 xmm0, DWORD PTR _fx$[ebp]
  00008	f3 0f 11 41 14	 movss	 DWORD PTR [ecx+20], xmm0

; 199  : 	m_v2Position.y = fy;

  0000d	f3 0f 10 45 0c	 movss	 xmm0, DWORD PTR _fy$[ebp]
  00012	f3 0f 11 41 18	 movss	 DWORD PTR [ecx+24], xmm0

; 200  : }

  00017	5d		 pop	 ebp
  00018	c2 08 00	 ret	 8
?SetPosition@CGraphicMarkInstance@@QAEXMM@Z ENDP	; CGraphicMarkInstance::SetPosition
_TEXT	ENDS
; Function compile flags: /Ogtp
; File C:\Marty 5.5\Src-Client\Client\EterLib\GrpMarkInstance.cpp
;	COMDAT ?SetDiffuseColor@CGraphicMarkInstance@@QAEXMMMM@Z
_TEXT	SEGMENT
_fr$ = 8						; size = 4
_fg$ = 12						; size = 4
_fb$ = 16						; size = 4
_fa$ = 20						; size = 4
?SetDiffuseColor@CGraphicMarkInstance@@QAEXMMMM@Z PROC	; CGraphicMarkInstance::SetDiffuseColor, COMDAT
; _this$ = ecx

; 189  : {

  00000	55		 push	 ebp
  00001	8b ec		 mov	 ebp, esp

; 190  : 	m_DiffuseColor.r = fr;

  00003	f3 0f 10 45 08	 movss	 xmm0, DWORD PTR _fr$[ebp]
  00008	f3 0f 11 41 04	 movss	 DWORD PTR [ecx+4], xmm0

; 191  : 	m_DiffuseColor.g = fg;

  0000d	f3 0f 10 45 0c	 movss	 xmm0, DWORD PTR _fg$[ebp]
  00012	f3 0f 11 41 08	 movss	 DWORD PTR [ecx+8], xmm0

; 192  : 	m_DiffuseColor.b = fb;

  00017	f3 0f 10 45 10	 movss	 xmm0, DWORD PTR _fb$[ebp]
  0001c	f3 0f 11 41 0c	 movss	 DWORD PTR [ecx+12], xmm0

; 193  : 	m_DiffuseColor.a = fa;

  00021	f3 0f 10 45 14	 movss	 xmm0, DWORD PTR _fa$[ebp]
  00026	f3 0f 11 41 10	 movss	 DWORD PTR [ecx+16], xmm0

; 194  : }

  0002b	5d		 pop	 ebp
  0002c	c2 10 00	 ret	 16			; 00000010H
?SetDiffuseColor@CGraphicMarkInstance@@QAEXMMMM@Z ENDP	; CGraphicMarkInstance::SetDiffuseColor
_TEXT	ENDS
; Function compile flags: /Ogtp
; File C:\Marty 5.5\Src-Client\Client\EterLib\GrpMarkInstance.cpp
;	COMDAT ?SetDepth@CGraphicMarkInstance@@QAEXM@Z
_TEXT	SEGMENT
_fDepth$ = 8						; size = 4
?SetDepth@CGraphicMarkInstance@@QAEXM@Z PROC		; CGraphicMarkInstance::SetDepth, COMDAT
; _this$ = ecx

; 279  : {

  00000	55		 push	 ebp
  00001	8b ec		 mov	 ebp, esp

; 280  : 	m_fDepth = fDepth;

  00003	f3 0f 10 45 08	 movss	 xmm0, DWORD PTR _fDepth$[ebp]
  00008	f3 0f 11 41 24	 movss	 DWORD PTR [ecx+36], xmm0

; 281  : }

  0000d	5d		 pop	 ebp
  0000e	c2 04 00	 ret	 4
?SetDepth@CGraphicMarkInstance@@QAEXM@Z ENDP		; CGraphicMarkInstance::SetDepth
_TEXT	ENDS
; Function compile flags: /Ogtp
; File C:\Marty 5.5\Src-Client\Client\EterLib\GrpMarkInstance.cpp
;	COMDAT ?Render@CGraphicMarkInstance@@QAEXXZ
_TEXT	SEGMENT
?Render@CGraphicMarkInstance@@QAEXXZ PROC		; CGraphicMarkInstance::Render, COMDAT
; _this$ = ecx

; 42   : {

  00000	56		 push	 esi
  00001	8b f1		 mov	 esi, ecx

; 43   : 	if (IsEmpty())

  00003	e8 00 00 00 00	 call	 ?IsEmpty@CGraphicMarkInstance@@QBE_NXZ ; CGraphicMarkInstance::IsEmpty
  00008	84 c0		 test	 al, al
  0000a	75 08		 jne	 SHORT $LN1@Render

; 44   : 		return;
; 45   : 
; 46   : 	assert(!IsEmpty());
; 47   : 
; 48   : 	OnRender();

  0000c	8b 06		 mov	 eax, DWORD PTR [esi]
  0000e	8b ce		 mov	 ecx, esi
  00010	5e		 pop	 esi
  00011	ff 60 04	 jmp	 DWORD PTR [eax+4]
$LN1@Render:
  00014	5e		 pop	 esi

; 49   : }

  00015	c3		 ret	 0
?Render@CGraphicMarkInstance@@QAEXXZ ENDP		; CGraphicMarkInstance::Render
_TEXT	ENDS
; Function compile flags: /Ogtp
; File C:\Marty 5.5\Src-Client\Client\EterLib\GrpMarkInstance.cpp
; File C:\Marty 5.5\Src-Client\Client\EterLib\Ref.h
; File C:\Marty 5.5\Src-Client\Client\EterLib\GrpMarkInstance.cpp
;	COMDAT ?Destroy@CGraphicMarkInstance@@QAEXXZ
_TEXT	SEGMENT
?Destroy@CGraphicMarkInstance@@QAEXXZ PROC		; CGraphicMarkInstance::Destroy, COMDAT
; _this$ = ecx

; 272  : {

  00000	56		 push	 esi
  00001	8b f1		 mov	 esi, ecx
; File C:\Marty 5.5\Src-Client\Client\EterLib\Ref.h

; 67   : 			CReferenceObject* pOldObject = m_pObject;

  00003	8b 4e 28	 mov	 ecx, DWORD PTR [esi+40]

; 68   : 
; 69   : 			m_pObject = pObject;

  00006	c7 46 28 00 00
	00 00		 mov	 DWORD PTR [esi+40], 0

; 70   : 
; 71   : 			if (m_pObject)
; 72   : 				m_pObject->AddReference();
; 73   : 
; 74   : 			if (pOldObject)

  0000d	85 c9		 test	 ecx, ecx
  0000f	74 05		 je	 SHORT $LN5@Destroy

; 75   : 				pOldObject->Release();

  00011	e8 00 00 00 00	 call	 ?Release@CReferenceObject@@QAEXXZ ; CReferenceObject::Release
$LN5@Destroy:
; File C:\Marty 5.5\Src-Client\Client\EterLib\GrpMarkInstance.cpp

; 274  : 	Initialize();

  00016	8b ce		 mov	 ecx, esi
  00018	5e		 pop	 esi
  00019	e9 00 00 00 00	 jmp	 ?Initialize@CGraphicMarkInstance@@IAEXXZ ; CGraphicMarkInstance::Initialize
?Destroy@CGraphicMarkInstance@@QAEXXZ ENDP		; CGraphicMarkInstance::Destroy
_TEXT	ENDS
; Function compile flags: /Ogtp
; File C:\Marty 5.5\Src-Client\Client\EterLib\GrpMarkInstance.cpp
; File D:\Program Files\Microsoft Visual Studio\2022\Community\VC\Tools\MSVC\14.43.34808\include\xstring
; File D:\Program Files\Microsoft Visual Studio\2022\Community\VC\Tools\MSVC\14.43.34808\include\xmemory
; File D:\Program Files\Microsoft Visual Studio\2022\Community\VC\Tools\MSVC\14.43.34808\include\xstring
; File C:\Marty 5.5\Src-Client\Client\EterLib\Ref.h
; File C:\Marty 5.5\Src-Client\Client\EterLib\GrpMarkInstance.cpp
; File D:\Program Files\Microsoft Visual Studio\2022\Community\VC\Tools\MSVC\14.43.34808\include\xmemory
; File C:\Marty 5.5\Src-Client\Client\EterLib\GrpMarkInstance.cpp
;	COMDAT ??1CGraphicMarkInstance@@UAE@XZ
_TEXT	SEGMENT
__$EHRec$ = -12						; size = 12
??1CGraphicMarkInstance@@UAE@XZ PROC			; CGraphicMarkInstance::~CGraphicMarkInstance, COMDAT
; _this$ = ecx

; 292  : {

  00000	55		 push	 ebp
  00001	8b ec		 mov	 ebp, esp
  00003	6a ff		 push	 -1
  00005	68 00 00 00 00	 push	 __ehhandler$??1CGraphicMarkInstance@@UAE@XZ
  0000a	64 a1 00 00 00
	00		 mov	 eax, DWORD PTR fs:0
  00010	50		 push	 eax
  00011	56		 push	 esi
  00012	a1 00 00 00 00	 mov	 eax, DWORD PTR ___security_cookie
  00017	33 c5		 xor	 eax, ebp
  00019	50		 push	 eax
  0001a	8d 45 f4	 lea	 eax, DWORD PTR __$EHRec$[ebp]
  0001d	64 a3 00 00 00
	00		 mov	 DWORD PTR fs:0, eax
  00023	8b f1		 mov	 esi, ecx
  00025	c7 06 00 00 00
	00		 mov	 DWORD PTR [esi], OFFSET ??_7CGraphicMarkInstance@@6B@

; 293  : 	Destroy();

  0002b	e8 00 00 00 00	 call	 ?Destroy@CGraphicMarkInstance@@QAEXXZ ; CGraphicMarkInstance::Destroy
; File D:\Program Files\Microsoft Visual Studio\2022\Community\VC\Tools\MSVC\14.43.34808\include\xstring

; 434  :         return _Myres > _Small_string_capacity;

  00030	8b 4e 40	 mov	 ecx, DWORD PTR [esi+64]
  00033	83 f9 0f	 cmp	 ecx, 15			; 0000000fH

; 3047 :         if (_My_data._Large_mode_engaged()) {

  00036	76 28		 jbe	 SHORT $LN24@CGraphicMa

; 3048 :             _ASAN_STRING_REMOVE(*this);
; 3049 :             auto& _Al = _Getal();
; 3050 :             _Deallocate_for_capacity(_Al, _My_data._Bx._Ptr, _My_data._Myres);

  00038	8b 46 2c	 mov	 eax, DWORD PTR [esi+44]

; 828  :         _Al.deallocate(_Old_ptr, _Capacity + 1); // +1 for null terminator

  0003b	41		 inc	 ecx
; File D:\Program Files\Microsoft Visual Studio\2022\Community\VC\Tools\MSVC\14.43.34808\include\xmemory

; 284  :         if (_Bytes >= _Big_allocation_threshold) {

  0003c	81 f9 00 10 00
	00		 cmp	 ecx, 4096		; 00001000H
  00042	72 12		 jb	 SHORT $LN35@CGraphicMa

; 205  :     const uintptr_t _Ptr_container   = _Ptr_user[-1];

  00044	8b 50 fc	 mov	 edx, DWORD PTR [eax-4]
  00047	83 c1 23	 add	 ecx, 35			; 00000023H

; 206  : 
; 207  :     // If the following asserts, it likely means that we are performing
; 208  :     // an aligned delete on memory coming from an unaligned allocation.
; 209  :     _STL_ASSERT(_Ptr_user[-2] == _Big_allocation_sentinel, "invalid argument");
; 210  : 
; 211  :     // Extra paranoia on aligned allocation/deallocation; ensure _Ptr_container is
; 212  :     // in range [_Min_back_shift, _Non_user_size]
; 213  : #ifdef _DEBUG
; 214  :     constexpr uintptr_t _Min_back_shift = 2 * sizeof(void*);
; 215  : #else // ^^^ defined(_DEBUG) / !defined(_DEBUG) vvv
; 216  :     constexpr uintptr_t _Min_back_shift = sizeof(void*);
; 217  : #endif // ^^^ !defined(_DEBUG) ^^^
; 218  :     const uintptr_t _Back_shift = reinterpret_cast<uintptr_t>(_Ptr) - _Ptr_container;

  0004a	2b c2		 sub	 eax, edx

; 219  :     _STL_VERIFY(_Back_shift >= _Min_back_shift && _Back_shift <= _Non_user_size, "invalid argument");

  0004c	83 c0 fc	 add	 eax, -4			; fffffffcH
  0004f	83 f8 1f	 cmp	 eax, 31			; 0000001fH
  00052	77 48		 ja	 SHORT $LN32@CGraphicMa

; 220  :     _Ptr = reinterpret_cast<void*>(_Ptr_container);

  00054	8b c2		 mov	 eax, edx
$LN35@CGraphicMa:

; 289  :         ::operator delete(_Ptr, _Bytes);

  00056	51		 push	 ecx
  00057	50		 push	 eax
  00058	e8 00 00 00 00	 call	 ??3@YAXPAXI@Z		; operator delete
  0005d	83 c4 08	 add	 esp, 8
$LN24@CGraphicMa:
; File D:\Program Files\Microsoft Visual Studio\2022\Community\VC\Tools\MSVC\14.43.34808\include\xstring

; 3054 :         _My_data._Mysize = 0;

  00060	c7 46 3c 00 00
	00 00		 mov	 DWORD PTR [esi+60], 0

; 3055 :         _My_data._Myres  = _Small_string_capacity;

  00067	c7 46 40 0f 00
	00 00		 mov	 DWORD PTR [esi+64], 15	; 0000000fH

; 3056 :         // the _Traits::assign is last so the codegen doesn't think the char write can alias this
; 3057 :         _Traits::assign(_My_data._Bx._Buf[0], _Elem());

  0006e	c6 46 2c 00	 mov	 BYTE PTR [esi+44], 0
; File C:\Marty 5.5\Src-Client\Client\EterLib\Ref.h

; 53   : 			if (m_pObject)

  00072	8b 4e 28	 mov	 ecx, DWORD PTR [esi+40]

; 37   : 		{

  00075	c7 45 fc 00 00
	00 00		 mov	 DWORD PTR __$EHRec$[ebp+8], 0

; 53   : 			if (m_pObject)

  0007c	85 c9		 test	 ecx, ecx
  0007e	74 0c		 je	 SHORT $LN48@CGraphicMa

; 54   : 			{
; 55   : 				m_pObject->Release();

  00080	e8 00 00 00 00	 call	 ?Release@CReferenceObject@@QAEXXZ ; CReferenceObject::Release

; 56   : 				m_pObject = NULL;

  00085	c7 46 28 00 00
	00 00		 mov	 DWORD PTR [esi+40], 0
$LN48@CGraphicMa:
; File C:\Marty 5.5\Src-Client\Client\EterLib\GrpMarkInstance.cpp

; 294  : }

  0008c	8b 4d f4	 mov	 ecx, DWORD PTR __$EHRec$[ebp]
  0008f	64 89 0d 00 00
	00 00		 mov	 DWORD PTR fs:0, ecx
  00096	59		 pop	 ecx
  00097	5e		 pop	 esi
  00098	8b e5		 mov	 esp, ebp
  0009a	5d		 pop	 ebp
  0009b	c3		 ret	 0
$LN32@CGraphicMa:
; File D:\Program Files\Microsoft Visual Studio\2022\Community\VC\Tools\MSVC\14.43.34808\include\xmemory

; 219  :     _STL_VERIFY(_Back_shift >= _Min_back_shift && _Back_shift <= _Non_user_size, "invalid argument");

  0009c	e8 00 00 00 00	 call	 __invalid_parameter_noinfo_noreturn
$LN51@CGraphicMa:
  000a1	cc		 int	 3
  000a2	cc		 int	 3
  000a3	cc		 int	 3
  000a4	cc		 int	 3
  000a5	cc		 int	 3
  000a6	cc		 int	 3
_TEXT	ENDS
;	COMDAT text$x
text$x	SEGMENT
__ehhandler$??1CGraphicMarkInstance@@UAE@XZ:
  00000	90		 npad	 1
  00001	90		 npad	 1
  00002	8b 54 24 08	 mov	 edx, DWORD PTR [esp+8]
  00006	8d 42 0c	 lea	 eax, DWORD PTR [edx+12]
  00009	8b 4a f8	 mov	 ecx, DWORD PTR [edx-8]
  0000c	33 c8		 xor	 ecx, eax
  0000e	e8 00 00 00 00	 call	 @__security_check_cookie@4
  00013	b8 00 00 00 00	 mov	 eax, OFFSET __ehfuncinfo$??1CGraphicMarkInstance@@UAE@XZ
  00018	e9 00 00 00 00	 jmp	 ___CxxFrameHandler3
text$x	ENDS
??1CGraphicMarkInstance@@UAE@XZ ENDP			; CGraphicMarkInstance::~CGraphicMarkInstance
; Function compile flags: /Ogtp
; File C:\Marty 5.5\Src-Client\Client\EterLib\GrpMarkInstance.cpp
; File C:\Marty 5.5\Src-Client\Client\EterLib\Ref.h
; File D:\Program Files\Microsoft Visual Studio\2022\Community\VC\Tools\MSVC\14.43.34808\include\xstring
; File C:\Marty 5.5\Src-Client\Client\EterLib\GrpMarkInstance.cpp
;	COMDAT ??0CGraphicMarkInstance@@QAE@XZ
_TEXT	SEGMENT
_this$ = -4						; size = 4
??0CGraphicMarkInstance@@QAE@XZ PROC			; CGraphicMarkInstance::CGraphicMarkInstance, COMDAT
; _this$ = ecx

; 287  : {

  00000	55		 push	 ebp
  00001	8b ec		 mov	 ebp, esp
  00003	51		 push	 ecx
  00004	56		 push	 esi
  00005	8b f1		 mov	 esi, ecx
  00007	0f 57 c0	 xorps	 xmm0, xmm0
  0000a	89 75 fc	 mov	 DWORD PTR _this$[ebp], esi
  0000d	c7 06 00 00 00
	00		 mov	 DWORD PTR [esi], OFFSET ??_7CGraphicMarkInstance@@6B@
; File C:\Marty 5.5\Src-Client\Client\EterLib\Ref.h

; 20   : 		CRef() : m_pObject(NULL)

  00013	c7 46 28 00 00
	00 00		 mov	 DWORD PTR [esi+40], 0
; File D:\Program Files\Microsoft Visual Studio\2022\Community\VC\Tools\MSVC\14.43.34808\include\xstring

; 474  :         _CONSTEXPR20 _Bxty() noexcept : _Buf() {} // user-provided, for fancy pointers

  0001a	0f 11 46 2c	 movups	 XMMWORD PTR [esi+44], xmm0

; 836  :         _My_data._Mysize = 0;

  0001e	c7 46 3c 00 00
	00 00		 mov	 DWORD PTR [esi+60], 0

; 837  :         _My_data._Myres  = _Small_string_capacity;

  00025	c7 46 40 0f 00
	00 00		 mov	 DWORD PTR [esi+64], 15	; 0000000fH

; 838  :         _My_data._Activate_SSO_buffer();
; 839  : 
; 840  :         // the _Traits::assign is last so the codegen doesn't think the char write can alias this
; 841  :         _Traits::assign(_My_data._Bx._Buf[0], _Elem());

  0002c	c6 46 2c 00	 mov	 BYTE PTR [esi+44], 0
; File C:\Marty 5.5\Src-Client\Client\EterLib\GrpMarkInstance.cpp

; 288  : 	Initialize();

  00030	e8 00 00 00 00	 call	 ?Initialize@CGraphicMarkInstance@@IAEXXZ ; CGraphicMarkInstance::Initialize

; 289  : }

  00035	8b c6		 mov	 eax, esi
  00037	5e		 pop	 esi
  00038	8b e5		 mov	 esp, ebp
  0003a	5d		 pop	 ebp
  0003b	c3		 ret	 0
??0CGraphicMarkInstance@@QAE@XZ ENDP			; CGraphicMarkInstance::CGraphicMarkInstance
_TEXT	ENDS
; Function compile flags: /Ogtp
; File C:\Marty 5.5\Src-Client\Client\EterLib\GrpMarkInstance.cpp
;	COMDAT ?GetImageFileName@CGraphicMarkInstance@@QAEABV?$basic_string@DU?$char_traits@D@std@@V?$allocator@D@2@@std@@XZ
_TEXT	SEGMENT
?GetImageFileName@CGraphicMarkInstance@@QAEABV?$basic_string@DU?$char_traits@D@std@@V?$allocator@D@2@@std@@XZ PROC ; CGraphicMarkInstance::GetImageFileName, COMDAT
; _this$ = ecx

; 17   : 	return m_stImageFileName;

  00000	8d 41 2c	 lea	 eax, DWORD PTR [ecx+44]

; 18   : }

  00003	c3		 ret	 0
?GetImageFileName@CGraphicMarkInstance@@QAEABV?$basic_string@DU?$char_traits@D@std@@V?$allocator@D@2@@std@@XZ ENDP ; CGraphicMarkInstance::GetImageFileName
_TEXT	ENDS
; Function compile flags: /Ogtp
; File C:\Marty 5.5\Src-Client\Client\EterLib\GrpMarkInstance.cpp
; File D:\Program Files\Microsoft Visual Studio\2022\Community\VC\Tools\MSVC\14.43.34808\include\__msvc_string_view.hpp
; File C:\Marty 5.5\Src-Client\Client\EterLib\GrpMarkInstance.cpp
; File D:\Program Files\Microsoft Visual Studio\2022\Community\VC\Tools\MSVC\14.43.34808\include\__msvc_string_view.hpp
; File C:\Marty 5.5\Src-Client\Client\EterLib\GrpMarkInstance.cpp
; File D:\Program Files\Microsoft Visual Studio\2022\Community\VC\Tools\MSVC\14.43.34808\include\__msvc_string_view.hpp
; File D:\Program Files\Microsoft Visual Studio\2022\Community\VC\Tools\MSVC\14.43.34808\include\xstring
; File D:\Program Files\Microsoft Visual Studio\2022\Community\VC\Tools\MSVC\14.43.34808\include\__msvc_string_view.hpp
; File D:\Program Files\Microsoft Visual Studio\2022\Community\VC\Tools\MSVC\14.43.34808\include\xstring
; File D:\Program Files\Microsoft Visual Studio\2022\Community\VC\Tools\MSVC\14.43.34808\include\__msvc_string_view.hpp
; File D:\Program Files\Microsoft Visual Studio\2022\Community\VC\Tools\MSVC\14.43.34808\include\xstring
; File C:\Marty 5.5\Src-Client\Client\EterLib\GrpMarkInstance.cpp
; File D:\Program Files\Microsoft Visual Studio\2022\Community\VC\Tools\MSVC\14.43.34808\include\xstring
; File D:\Program Files\Microsoft Visual Studio\2022\Community\VC\Tools\MSVC\14.43.34808\include\xmemory
; File D:\Program Files\Microsoft Visual Studio\2022\Community\VC\Tools\MSVC\14.43.34808\include\xstring
; File D:\Program Files\Microsoft Visual Studio\2022\Community\VC\Tools\MSVC\14.43.34808\include\xmemory
; File D:\Program Files\Microsoft Visual Studio\2022\Community\VC\Tools\MSVC\14.43.34808\include\xstring
; File D:\Program Files\Microsoft Visual Studio\2022\Community\VC\Tools\MSVC\14.43.34808\include\xmemory
; File D:\Program Files\Microsoft Visual Studio\2022\Community\VC\Tools\MSVC\14.43.34808\include\xstring
; File D:\Program Files\Microsoft Visual Studio\2022\Community\VC\Tools\MSVC\14.43.34808\include\__msvc_string_view.hpp
; File D:\Program Files\Microsoft Visual Studio\2022\Community\VC\Tools\MSVC\14.43.34808\include\xstring
; File D:\Program Files\Microsoft Visual Studio\2022\Community\VC\Tools\MSVC\14.43.34808\include\__msvc_string_view.hpp
; File D:\Program Files\Microsoft Visual Studio\2022\Community\VC\Tools\MSVC\14.43.34808\include\xstring
; File D:\Program Files\Microsoft Visual Studio\2022\Community\VC\Tools\MSVC\14.43.34808\include\__msvc_string_view.hpp
; File D:\Program Files\Microsoft Visual Studio\2022\Community\VC\Tools\MSVC\14.43.34808\include\xstring
; File D:\Program Files\Microsoft Visual Studio\2022\Community\VC\Tools\MSVC\14.43.34808\include\__msvc_string_view.hpp
; File D:\Program Files\Microsoft Visual Studio\2022\Community\VC\Tools\MSVC\14.43.34808\include\xstring
; File D:\Program Files\Microsoft Visual Studio\2022\Community\VC\Tools\MSVC\14.43.34808\include\xmemory
; File C:\Marty 5.5\Src-Client\Client\EterLib\GrpMarkInstance.cpp
; File D:\Program Files\Microsoft Visual Studio\2022\Community\VC\Tools\MSVC\14.43.34808\include\xmemory
; File D:\Program Files\Microsoft Visual Studio\2022\Community\VC\Tools\MSVC\14.43.34808\include\xstring
; File C:\Marty 5.5\Src-Client\Client\EterLib\GrpMarkInstance.cpp
;	COMDAT ?SetImageFileName@CGraphicMarkInstance@@QAEXPBD@Z
_TEXT	SEGMENT
$T1 = -8						; size = 4
$T2 = -4						; size = 4
_c_szFileName$ = 8					; size = 4
?SetImageFileName@CGraphicMarkInstance@@QAEXPBD@Z PROC	; CGraphicMarkInstance::SetImageFileName, COMDAT
; _this$ = ecx

; 11   : {

  00000	55		 push	 ebp
  00001	8b ec		 mov	 ebp, esp
; File D:\Program Files\Microsoft Visual Studio\2022\Community\VC\Tools\MSVC\14.43.34808\include\__msvc_string_view.hpp

; 430  :             return __builtin_strlen(_First);

  00003	8b 55 08	 mov	 edx, DWORD PTR _c_szFileName$[ebp]
; File C:\Marty 5.5\Src-Client\Client\EterLib\GrpMarkInstance.cpp

; 11   : {

  00006	83 ec 08	 sub	 esp, 8
  00009	53		 push	 ebx
  0000a	56		 push	 esi
; File D:\Program Files\Microsoft Visual Studio\2022\Community\VC\Tools\MSVC\14.43.34808\include\__msvc_string_view.hpp

; 430  :             return __builtin_strlen(_First);

  0000b	8b f2		 mov	 esi, edx
; File C:\Marty 5.5\Src-Client\Client\EterLib\GrpMarkInstance.cpp

; 11   : {

  0000d	57		 push	 edi

; 12   : 	m_stImageFileName = c_szFileName;

  0000e	8d 79 2c	 lea	 edi, DWORD PTR [ecx+44]
; File D:\Program Files\Microsoft Visual Studio\2022\Community\VC\Tools\MSVC\14.43.34808\include\__msvc_string_view.hpp

; 430  :             return __builtin_strlen(_First);

  00011	8d 4e 01	 lea	 ecx, DWORD PTR [esi+1]
$LL85@SetImageFi:
  00014	8a 06		 mov	 al, BYTE PTR [esi]
  00016	46		 inc	 esi
  00017	84 c0		 test	 al, al
  00019	75 f9		 jne	 SHORT $LL85@SetImageFi
  0001b	2b f1		 sub	 esi, ecx
; File D:\Program Files\Microsoft Visual Studio\2022\Community\VC\Tools\MSVC\14.43.34808\include\xstring

; 1594 :         if (_Count <= _Mypair._Myval2._Myres) {

  0001d	8b 4f 14	 mov	 ecx, DWORD PTR [edi+20]
  00020	89 4d f8	 mov	 DWORD PTR $T1[ebp], ecx
  00023	3b f1		 cmp	 esi, ecx
  00025	77 24		 ja	 SHORT $LN11@SetImageFi

; 416  :         value_type* _Result = _Bx._Buf;

  00027	8b df		 mov	 ebx, edi

; 434  :         return _Myres > _Small_string_capacity;

  00029	83 f9 0f	 cmp	 ecx, 15			; 0000000fH

; 417  :         if (_Large_mode_engaged()) {

  0002c	76 02		 jbe	 SHORT $LN14@SetImageFi

; 418  :             _Result = _Unfancy(_Bx._Ptr);

  0002e	8b 1f		 mov	 ebx, DWORD PTR [edi]
$LN14@SetImageFi:
; File D:\Program Files\Microsoft Visual Studio\2022\Community\VC\Tools\MSVC\14.43.34808\include\__msvc_string_view.hpp

; 148  :         _CSTD memmove(_First1, _First2, _Count * sizeof(_Elem));

  00030	56		 push	 esi
  00031	52		 push	 edx
  00032	53		 push	 ebx
; File D:\Program Files\Microsoft Visual Studio\2022\Community\VC\Tools\MSVC\14.43.34808\include\xstring

; 1597 :             _Mypair._Myval2._Mysize = _Count;

  00033	89 77 10	 mov	 DWORD PTR [edi+16], esi
; File D:\Program Files\Microsoft Visual Studio\2022\Community\VC\Tools\MSVC\14.43.34808\include\__msvc_string_view.hpp

; 148  :         _CSTD memmove(_First1, _First2, _Count * sizeof(_Elem));

  00036	e8 00 00 00 00	 call	 _memmove
  0003b	83 c4 0c	 add	 esp, 12			; 0000000cH
; File D:\Program Files\Microsoft Visual Studio\2022\Community\VC\Tools\MSVC\14.43.34808\include\xstring

; 1599 :             _Traits::assign(_Old_ptr[_Count], _Elem());

  0003e	c6 04 33 00	 mov	 BYTE PTR [ebx+esi], 0
; File C:\Marty 5.5\Src-Client\Client\EterLib\GrpMarkInstance.cpp

; 13   : }

  00042	5f		 pop	 edi
  00043	5e		 pop	 esi
  00044	5b		 pop	 ebx
  00045	8b e5		 mov	 esp, ebp
  00047	5d		 pop	 ebp
  00048	c2 04 00	 ret	 4
$LN11@SetImageFi:
; File D:\Program Files\Microsoft Visual Studio\2022\Community\VC\Tools\MSVC\14.43.34808\include\xstring

; 2962 :         if (_New_size > max_size()) {

  0004b	81 fe ff ff ff
	7f		 cmp	 esi, 2147483647		; 7fffffffH
  00051	0f 87 c4 00 00
	00		 ja	 $LN100@SetImageFi

; 2942 :         const size_type _Masked = _Requested | _Alloc_mask;

  00057	8b de		 mov	 ebx, esi
  00059	83 cb 0f	 or	 ebx, 15			; 0000000fH
  0005c	81 fb ff ff ff
	7f		 cmp	 ebx, 2147483647		; 7fffffffH

; 2943 :         if (_Masked > _Max) { // the mask overflows, settle for max_size()

  00062	76 12		 jbe	 SHORT $LN32@SetImageFi

; 2944 :             return _Max;

  00064	b8 00 00 00 80	 mov	 eax, -2147483648	; 80000000H
  00069	bb ff ff ff 7f	 mov	 ebx, 2147483647		; 7fffffffH
; File D:\Program Files\Microsoft Visual Studio\2022\Community\VC\Tools\MSVC\14.43.34808\include\xmemory

; 253  :             return _Allocate_manually_vector_aligned<_Traits>(_Bytes);

  0006e	50		 push	 eax
  0006f	e8 00 00 00 00	 call	 ??$_Allocate_manually_vector_aligned@U_Default_allocate_traits@std@@@std@@YAPAXI@Z ; std::_Allocate_manually_vector_aligned<std::_Default_allocate_traits>
  00074	eb 45		 jmp	 SHORT $LN98@SetImageFi
$LN32@SetImageFi:
; File D:\Program Files\Microsoft Visual Studio\2022\Community\VC\Tools\MSVC\14.43.34808\include\xstring

; 2947 :         if (_Old > _Max - _Old / 2) { // similarly, geometric overflows

  00076	8b d1		 mov	 edx, ecx
  00078	b8 ff ff ff 7f	 mov	 eax, 2147483647		; 7fffffffH
  0007d	d1 ea		 shr	 edx, 1
  0007f	2b c2		 sub	 eax, edx
  00081	3b c8		 cmp	 ecx, eax
  00083	76 12		 jbe	 SHORT $LN33@SetImageFi

; 2948 :             return _Max;

  00085	b8 00 00 00 80	 mov	 eax, -2147483648	; 80000000H
  0008a	bb ff ff ff 7f	 mov	 ebx, 2147483647		; 7fffffffH
; File D:\Program Files\Microsoft Visual Studio\2022\Community\VC\Tools\MSVC\14.43.34808\include\xmemory

; 253  :             return _Allocate_manually_vector_aligned<_Traits>(_Bytes);

  0008f	50		 push	 eax
  00090	e8 00 00 00 00	 call	 ??$_Allocate_manually_vector_aligned@U_Default_allocate_traits@std@@@std@@YAPAXI@Z ; std::_Allocate_manually_vector_aligned<std::_Default_allocate_traits>
  00095	eb 24		 jmp	 SHORT $LN98@SetImageFi
$LN33@SetImageFi:
; File D:\Program Files\Microsoft Visual Studio\2022\Community\VC\Tools\MSVC\14.43.34808\include\xstring

; 2951 :         return (_STD max)(_Masked, _Old + _Old / 2);

  00097	8d 04 0a	 lea	 eax, DWORD PTR [edx+ecx]
  0009a	3b d8		 cmp	 ebx, eax
  0009c	0f 42 d8	 cmovb	 ebx, eax

; 801  :         ++_Capacity; // Take null terminator into consideration

  0009f	8d 43 01	 lea	 eax, DWORD PTR [ebx+1]
; File D:\Program Files\Microsoft Visual Studio\2022\Community\VC\Tools\MSVC\14.43.34808\include\xmemory

; 227  :     if (_Bytes == 0) {

  000a2	85 c0		 test	 eax, eax
  000a4	74 18		 je	 SHORT $LN97@SetImageFi
$LN46@SetImageFi:

; 228  :         return nullptr;
; 229  :     }
; 230  : 
; 231  : #if _HAS_CXX20 // TRANSITION, GH-1532
; 232  :     if (_STD is_constant_evaluated()) {
; 233  :         return _Traits::_Allocate(_Bytes);
; 234  :     }
; 235  : #endif // _HAS_CXX20
; 236  : 
; 237  : #ifdef __cpp_aligned_new
; 238  :     if constexpr (_Align > __STDCPP_DEFAULT_NEW_ALIGNMENT__) {
; 239  :         size_t _Passed_align = _Align;
; 240  : #if defined(_M_IX86) || defined(_M_X64)
; 241  :         if (_Bytes >= _Big_allocation_threshold) {
; 242  :             // boost the alignment of big allocations to help autovectorization
; 243  :             _Passed_align = (_STD max)(_Align, _Big_allocation_alignment);
; 244  :         }
; 245  : #endif // defined(_M_IX86) || defined(_M_X64)
; 246  :         return _Traits::_Allocate_aligned(_Bytes, _Passed_align);
; 247  :     } else
; 248  : #endif // defined(__cpp_aligned_new)
; 249  :     {
; 250  : #if defined(_M_IX86) || defined(_M_X64)
; 251  :         if (_Bytes >= _Big_allocation_threshold) {

  000a6	3d 00 10 00 00	 cmp	 eax, 4096		; 00001000H
  000ab	72 08		 jb	 SHORT $LN47@SetImageFi

; 253  :             return _Allocate_manually_vector_aligned<_Traits>(_Bytes);

  000ad	50		 push	 eax
  000ae	e8 00 00 00 00	 call	 ??$_Allocate_manually_vector_aligned@U_Default_allocate_traits@std@@@std@@YAPAXI@Z ; std::_Allocate_manually_vector_aligned<std::_Default_allocate_traits>
  000b3	eb 06		 jmp	 SHORT $LN98@SetImageFi
$LN47@SetImageFi:

; 136  :         return ::operator new(_Bytes);

  000b5	50		 push	 eax
  000b6	e8 00 00 00 00	 call	 ??2@YAPAXI@Z		; operator new
$LN98@SetImageFi:
; File D:\Program Files\Microsoft Visual Studio\2022\Community\VC\Tools\MSVC\14.43.34808\include\xstring

; 2973 :         _Mypair._Myval2._Mysize = _New_size;

  000bb	83 c4 04	 add	 esp, 4
$LN97@SetImageFi:
; File D:\Program Files\Microsoft Visual Studio\2022\Community\VC\Tools\MSVC\14.43.34808\include\__msvc_string_view.hpp

; 95   :         _CSTD memcpy(_First1, _First2, _Count * sizeof(_Elem));

  000be	56		 push	 esi
  000bf	ff 75 08	 push	 DWORD PTR _c_szFileName$[ebp]
; File D:\Program Files\Microsoft Visual Studio\2022\Community\VC\Tools\MSVC\14.43.34808\include\xstring

; 2974 :         _Mypair._Myval2._Myres  = _New_capacity;

  000c2	89 5f 14	 mov	 DWORD PTR [edi+20], ebx
; File D:\Program Files\Microsoft Visual Studio\2022\Community\VC\Tools\MSVC\14.43.34808\include\__msvc_string_view.hpp

; 95   :         _CSTD memcpy(_First1, _First2, _Count * sizeof(_Elem));

  000c5	8b d8		 mov	 ebx, eax
  000c7	53		 push	 ebx
; File D:\Program Files\Microsoft Visual Studio\2022\Community\VC\Tools\MSVC\14.43.34808\include\xstring

; 2973 :         _Mypair._Myval2._Mysize = _New_size;

  000c8	89 45 fc	 mov	 DWORD PTR $T2[ebp], eax
  000cb	89 77 10	 mov	 DWORD PTR [edi+16], esi
; File D:\Program Files\Microsoft Visual Studio\2022\Community\VC\Tools\MSVC\14.43.34808\include\__msvc_string_view.hpp

; 95   :         _CSTD memcpy(_First1, _First2, _Count * sizeof(_Elem));

  000ce	e8 00 00 00 00	 call	 _memcpy
; File D:\Program Files\Microsoft Visual Studio\2022\Community\VC\Tools\MSVC\14.43.34808\include\xstring

; 2976 :         if (_Old_capacity > _Small_string_capacity) {

  000d3	8b 45 f8	 mov	 eax, DWORD PTR $T1[ebp]
; File D:\Program Files\Microsoft Visual Studio\2022\Community\VC\Tools\MSVC\14.43.34808\include\__msvc_string_view.hpp

; 95   :         _CSTD memcpy(_First1, _First2, _Count * sizeof(_Elem));

  000d6	83 c4 0c	 add	 esp, 12			; 0000000cH
; File D:\Program Files\Microsoft Visual Studio\2022\Community\VC\Tools\MSVC\14.43.34808\include\xstring

; 1608 :                 _Traits::assign(_New_ptr[_Count], _Elem());

  000d9	c6 04 33 00	 mov	 BYTE PTR [ebx+esi], 0

; 2976 :         if (_Old_capacity > _Small_string_capacity) {

  000dd	83 f8 0f	 cmp	 eax, 15			; 0000000fH
  000e0	76 29		 jbe	 SHORT $LN25@SetImageFi

; 828  :         _Al.deallocate(_Old_ptr, _Capacity + 1); // +1 for null terminator

  000e2	8d 48 01	 lea	 ecx, DWORD PTR [eax+1]
; File D:\Program Files\Microsoft Visual Studio\2022\Community\VC\Tools\MSVC\14.43.34808\include\xmemory

; 981  :         _STD _Deallocate<_New_alignof<_Ty>>(_Ptr, sizeof(_Ty) * _Count);

  000e5	8b 07		 mov	 eax, DWORD PTR [edi]

; 284  :         if (_Bytes >= _Big_allocation_threshold) {

  000e7	81 f9 00 10 00
	00		 cmp	 ecx, 4096		; 00001000H
  000ed	72 12		 jb	 SHORT $LN75@SetImageFi

; 205  :     const uintptr_t _Ptr_container   = _Ptr_user[-1];

  000ef	8b 50 fc	 mov	 edx, DWORD PTR [eax-4]
  000f2	83 c1 23	 add	 ecx, 35			; 00000023H

; 206  : 
; 207  :     // If the following asserts, it likely means that we are performing
; 208  :     // an aligned delete on memory coming from an unaligned allocation.
; 209  :     _STL_ASSERT(_Ptr_user[-2] == _Big_allocation_sentinel, "invalid argument");
; 210  : 
; 211  :     // Extra paranoia on aligned allocation/deallocation; ensure _Ptr_container is
; 212  :     // in range [_Min_back_shift, _Non_user_size]
; 213  : #ifdef _DEBUG
; 214  :     constexpr uintptr_t _Min_back_shift = 2 * sizeof(void*);
; 215  : #else // ^^^ defined(_DEBUG) / !defined(_DEBUG) vvv
; 216  :     constexpr uintptr_t _Min_back_shift = sizeof(void*);
; 217  : #endif // ^^^ !defined(_DEBUG) ^^^
; 218  :     const uintptr_t _Back_shift = reinterpret_cast<uintptr_t>(_Ptr) - _Ptr_container;

  000f5	2b c2		 sub	 eax, edx

; 219  :     _STL_VERIFY(_Back_shift >= _Min_back_shift && _Back_shift <= _Non_user_size, "invalid argument");

  000f7	83 c0 fc	 add	 eax, -4			; fffffffcH
  000fa	83 f8 1f	 cmp	 eax, 31			; 0000001fH
  000fd	77 17		 ja	 SHORT $LN72@SetImageFi

; 220  :     _Ptr = reinterpret_cast<void*>(_Ptr_container);

  000ff	8b c2		 mov	 eax, edx
$LN75@SetImageFi:

; 289  :         ::operator delete(_Ptr, _Bytes);

  00101	51		 push	 ecx
  00102	50		 push	 eax
  00103	e8 00 00 00 00	 call	 ??3@YAXPAXI@Z		; operator delete
  00108	83 c4 08	 add	 esp, 8
$LN25@SetImageFi:
; File C:\Marty 5.5\Src-Client\Client\EterLib\GrpMarkInstance.cpp

; 13   : }

  0010b	89 1f		 mov	 DWORD PTR [edi], ebx
  0010d	5f		 pop	 edi
  0010e	5e		 pop	 esi
  0010f	5b		 pop	 ebx
  00110	8b e5		 mov	 esp, ebp
  00112	5d		 pop	 ebp
  00113	c2 04 00	 ret	 4
$LN72@SetImageFi:
; File D:\Program Files\Microsoft Visual Studio\2022\Community\VC\Tools\MSVC\14.43.34808\include\xmemory

; 219  :     _STL_VERIFY(_Back_shift >= _Min_back_shift && _Back_shift <= _Non_user_size, "invalid argument");

  00116	e8 00 00 00 00	 call	 __invalid_parameter_noinfo_noreturn
$LN100@SetImageFi:
; File D:\Program Files\Microsoft Visual Studio\2022\Community\VC\Tools\MSVC\14.43.34808\include\xstring

; 2963 :             _Xlen_string(); // result too long

  0011b	e8 00 00 00 00	 call	 ?_Xlen_string@std@@YAXXZ ; std::_Xlen_string
$LN96@SetImageFi:
  00120	cc		 int	 3
?SetImageFileName@CGraphicMarkInstance@@QAEXPBD@Z ENDP	; CGraphicMarkInstance::SetImageFileName
_TEXT	ENDS
; Function compile flags: /Ogtp
; File C:\Marty 5.5\Src-Client\Client\EterLib\GrpMarkInstance.cpp
;	COMDAT ?IsType@CGraphicMarkInstance@@QAEHK@Z
_TEXT	SEGMENT
_dwType$ = 8						; size = 4
?IsType@CGraphicMarkInstance@@QAEHK@Z PROC		; CGraphicMarkInstance::IsType, COMDAT
; _this$ = ecx

; 246  : {

  00000	55		 push	 ebp
  00001	8b ec		 mov	 ebp, esp

; 247  : 	return OnIsType(dwType);

  00003	8b 01		 mov	 eax, DWORD PTR [ecx]

; 248  : }

  00005	5d		 pop	 ebp

; 247  : 	return OnIsType(dwType);

  00006	ff 60 0c	 jmp	 DWORD PTR [eax+12]
?IsType@CGraphicMarkInstance@@QAEHK@Z ENDP		; CGraphicMarkInstance::IsType
_TEXT	ENDS
; Function compile flags: /Ogtp
; File C:\Marty 5.5\Src-Client\Client\EterLib\GrpMarkInstance.cpp
;	COMDAT ?Type@CGraphicMarkInstance@@SAKXZ
_TEXT	SEGMENT
__$EHRec$ = -12						; size = 12
?Type@CGraphicMarkInstance@@SAKXZ PROC			; CGraphicMarkInstance::Type, COMDAT

; 240  : {

  00000	55		 push	 ebp
  00001	8b ec		 mov	 ebp, esp
  00003	6a ff		 push	 -1
  00005	68 00 00 00 00	 push	 __ehhandler$?Type@CGraphicMarkInstance@@SAKXZ
  0000a	64 a1 00 00 00
	00		 mov	 eax, DWORD PTR fs:0
  00010	50		 push	 eax
  00011	a1 00 00 00 00	 mov	 eax, DWORD PTR ___security_cookie
  00016	33 c5		 xor	 eax, ebp
  00018	50		 push	 eax
  00019	8d 45 f4	 lea	 eax, DWORD PTR __$EHRec$[ebp]
  0001c	64 a3 00 00 00
	00		 mov	 DWORD PTR fs:0, eax

; 241  : 	static DWORD s_dwType = GetCRC32("CGraphicMarkInstance", strlen("CGraphicMarkInstance"));

  00022	64 a1 00 00 00
	00		 mov	 eax, DWORD PTR fs:__tls_array
  00028	8b 0d 00 00 00
	00		 mov	 ecx, DWORD PTR __tls_index
  0002e	8b 0c 88	 mov	 ecx, DWORD PTR [eax+ecx*4]
  00031	a1 00 00 00 00	 mov	 eax, DWORD PTR ?$TSS0@?1??Type@CGraphicMarkInstance@@SAKXZ@4HA
  00036	3b 81 00 00 00
	00		 cmp	 eax, DWORD PTR __Init_thread_epoch[ecx]
  0003c	7f 14		 jg	 SHORT $LN9@Type
$LN5@Type:

; 242  : 	return (s_dwType);
; 243  : }

  0003e	a1 00 00 00 00	 mov	 eax, DWORD PTR ?s_dwType@?1??Type@CGraphicMarkInstance@@SAKXZ@4KA
  00043	8b 4d f4	 mov	 ecx, DWORD PTR __$EHRec$[ebp]
  00046	64 89 0d 00 00
	00 00		 mov	 DWORD PTR fs:0, ecx
  0004d	59		 pop	 ecx
  0004e	8b e5		 mov	 esp, ebp
  00050	5d		 pop	 ebp
  00051	c3		 ret	 0
$LN9@Type:

; 241  : 	static DWORD s_dwType = GetCRC32("CGraphicMarkInstance", strlen("CGraphicMarkInstance"));

  00052	68 00 00 00 00	 push	 OFFSET ?$TSS0@?1??Type@CGraphicMarkInstance@@SAKXZ@4HA
  00057	e8 00 00 00 00	 call	 __Init_thread_header
  0005c	83 c4 04	 add	 esp, 4
  0005f	83 3d 00 00 00
	00 ff		 cmp	 DWORD PTR ?$TSS0@?1??Type@CGraphicMarkInstance@@SAKXZ@4HA, -1
  00066	75 d6		 jne	 SHORT $LN5@Type
  00068	6a 14		 push	 20			; 00000014H
  0006a	68 00 00 00 00	 push	 OFFSET ??_C@_0BF@BKIBHNLF@CGraphicMarkInstance@
  0006f	c7 45 fc 00 00
	00 00		 mov	 DWORD PTR __$EHRec$[ebp+8], 0
  00076	e8 00 00 00 00	 call	 ?GetCRC32@@YAKPBDI@Z	; GetCRC32
  0007b	68 00 00 00 00	 push	 OFFSET ?$TSS0@?1??Type@CGraphicMarkInstance@@SAKXZ@4HA
  00080	a3 00 00 00 00	 mov	 DWORD PTR ?s_dwType@?1??Type@CGraphicMarkInstance@@SAKXZ@4KA, eax
  00085	e8 00 00 00 00	 call	 __Init_thread_footer
  0008a	83 c4 0c	 add	 esp, 12			; 0000000cH
  0008d	eb af		 jmp	 SHORT $LN5@Type
_TEXT	ENDS
;	COMDAT text$x
text$x	SEGMENT
__unwindfunclet$?Type@CGraphicMarkInstance@@SAKXZ$0:
  00000	68 00 00 00 00	 push	 OFFSET ?$TSS0@?1??Type@CGraphicMarkInstance@@SAKXZ@4HA
  00005	e8 00 00 00 00	 call	 __Init_thread_abort
  0000a	59		 pop	 ecx
  0000b	c3		 ret	 0
  0000c	cc		 int	 3
  0000d	cc		 int	 3
  0000e	cc		 int	 3
  0000f	cc		 int	 3
  00010	cc		 int	 3
__ehhandler$?Type@CGraphicMarkInstance@@SAKXZ:
  00011	90		 npad	 1
  00012	90		 npad	 1
  00013	8b 54 24 08	 mov	 edx, DWORD PTR [esp+8]
  00017	8d 42 0c	 lea	 eax, DWORD PTR [edx+12]
  0001a	8b 4a fc	 mov	 ecx, DWORD PTR [edx-4]
  0001d	33 c8		 xor	 ecx, eax
  0001f	e8 00 00 00 00	 call	 @__security_check_cookie@4
  00024	b8 00 00 00 00	 mov	 eax, OFFSET __ehfuncinfo$?Type@CGraphicMarkInstance@@SAKXZ
  00029	e9 00 00 00 00	 jmp	 ___CxxFrameHandler3
text$x	ENDS
?Type@CGraphicMarkInstance@@SAKXZ ENDP			; CGraphicMarkInstance::Type
; Function compile flags: /Ogtp
;	COMDAT ??0SPDTVertex@@QAE@XZ
_TEXT	SEGMENT
??0SPDTVertex@@QAE@XZ PROC				; SPDTVertex::SPDTVertex, COMDAT
; _this$ = ecx
  00000	8b c1		 mov	 eax, ecx
  00002	c3		 ret	 0
??0SPDTVertex@@QAE@XZ ENDP				; SPDTVertex::SPDTVertex
_TEXT	ENDS
; Function compile flags: /Ogtp
; File D:\Program Files\Microsoft Visual Studio\2022\Community\VC\Tools\MSVC\14.43.34808\include\xmemory
;	COMDAT ??$_Allocate_manually_vector_aligned@U_Default_allocate_traits@std@@@std@@YAPAXI@Z
_TEXT	SEGMENT
__Bytes$ = 8						; size = 4
??$_Allocate_manually_vector_aligned@U_Default_allocate_traits@std@@@std@@YAPAXI@Z PROC ; std::_Allocate_manually_vector_aligned<std::_Default_allocate_traits>, COMDAT

; 182  : __declspec(allocator) void* _Allocate_manually_vector_aligned(const size_t _Bytes) {

  00000	55		 push	 ebp
  00001	8b ec		 mov	 ebp, esp

; 183  :     // allocate _Bytes manually aligned to at least _Big_allocation_alignment
; 184  :     const size_t _Block_size = _Non_user_size + _Bytes;

  00003	8b 45 08	 mov	 eax, DWORD PTR __Bytes$[ebp]
  00006	8d 48 23	 lea	 ecx, DWORD PTR [eax+35]

; 185  :     if (_Block_size <= _Bytes) {

  00009	3b c8		 cmp	 ecx, eax
  0000b	0f 86 00 00 00
	00		 jbe	 ?_Throw_bad_array_new_length@std@@YAXXZ ; std::_Throw_bad_array_new_length

; 136  :         return ::operator new(_Bytes);

  00011	51		 push	 ecx
  00012	e8 00 00 00 00	 call	 ??2@YAPAXI@Z		; operator new

; 186  :         _Throw_bad_array_new_length(); // add overflow
; 187  :     }
; 188  : 
; 189  :     const uintptr_t _Ptr_container = reinterpret_cast<uintptr_t>(_Traits::_Allocate(_Block_size));

  00017	8b c8		 mov	 ecx, eax

; 136  :         return ::operator new(_Bytes);

  00019	83 c4 04	 add	 esp, 4

; 190  :     _STL_VERIFY(_Ptr_container != 0, "invalid argument"); // validate even in release since we're doing p[-1]

  0001c	85 c9		 test	 ecx, ecx
  0001e	74 0b		 je	 SHORT $LN7@Allocate_m

; 191  :     void* const _Ptr = reinterpret_cast<void*>((_Ptr_container + _Non_user_size) & ~(_Big_allocation_alignment - 1));

  00020	8d 41 23	 lea	 eax, DWORD PTR [ecx+35]
  00023	83 e0 e0	 and	 eax, -32		; ffffffe0H

; 192  :     static_cast<uintptr_t*>(_Ptr)[-1] = _Ptr_container;

  00026	89 48 fc	 mov	 DWORD PTR [eax-4], ecx

; 193  : 
; 194  : #ifdef _DEBUG
; 195  :     static_cast<uintptr_t*>(_Ptr)[-2] = _Big_allocation_sentinel;
; 196  : #endif // defined(_DEBUG)
; 197  :     return _Ptr;
; 198  : }

  00029	5d		 pop	 ebp
  0002a	c3		 ret	 0
$LN7@Allocate_m:

; 190  :     _STL_VERIFY(_Ptr_container != 0, "invalid argument"); // validate even in release since we're doing p[-1]

  0002b	e9 00 00 00 00	 jmp	 __invalid_parameter_noinfo_noreturn
??$_Allocate_manually_vector_aligned@U_Default_allocate_traits@std@@@std@@YAPAXI@Z ENDP ; std::_Allocate_manually_vector_aligned<std::_Default_allocate_traits>
_TEXT	ENDS
; Function compile flags: /Ogtp
; File D:\Program Files\Microsoft Visual Studio\2022\Community\VC\Tools\MSVC\14.43.34808\include\xstring
;	COMDAT ?_Xlen_string@std@@YAXXZ
_TEXT	SEGMENT
?_Xlen_string@std@@YAXXZ PROC				; std::_Xlen_string, COMDAT

; 512  :     _Xlength_error("string too long");

  00000	68 00 00 00 00	 push	 OFFSET ??_C@_0BA@JFNIOLAK@string?5too?5long@
  00005	e8 00 00 00 00	 call	 ?_Xlength_error@std@@YAXPBD@Z ; std::_Xlength_error
$LN3@Xlen_strin:
  0000a	cc		 int	 3
?_Xlen_string@std@@YAXXZ ENDP				; std::_Xlen_string
_TEXT	ENDS
; Function compile flags: /Ogtp
; File D:\Program Files\Microsoft Visual Studio\2022\Community\VC\Tools\MSVC\14.43.34808\include\xmemory
;	COMDAT ?_Throw_bad_array_new_length@std@@YAXXZ
_TEXT	SEGMENT
$T1 = -12						; size = 12
?_Throw_bad_array_new_length@std@@YAXXZ PROC		; std::_Throw_bad_array_new_length, COMDAT

; 107  : [[noreturn]] inline void _Throw_bad_array_new_length() {

  00000	55		 push	 ebp
  00001	8b ec		 mov	 ebp, esp
  00003	83 ec 0c	 sub	 esp, 12			; 0000000cH

; 108  :     _THROW(bad_array_new_length{});

  00006	8d 4d f4	 lea	 ecx, DWORD PTR $T1[ebp]
  00009	e8 00 00 00 00	 call	 ??0bad_array_new_length@std@@QAE@XZ ; std::bad_array_new_length::bad_array_new_length
  0000e	68 00 00 00 00	 push	 OFFSET __TI3?AVbad_array_new_length@std@@
  00013	8d 45 f4	 lea	 eax, DWORD PTR $T1[ebp]
  00016	50		 push	 eax
  00017	e8 00 00 00 00	 call	 __CxxThrowException@8
$LN3@Throw_bad_:
  0001c	cc		 int	 3
?_Throw_bad_array_new_length@std@@YAXXZ ENDP		; std::_Throw_bad_array_new_length
_TEXT	ENDS
; Function compile flags: /Ogtp
; File D:\Program Files\Microsoft Visual Studio\2022\Community\VC\Tools\MSVC\14.43.34808\include\vcruntime_exception.h
;	COMDAT ??_Gbad_array_new_length@std@@UAEPAXI@Z
_TEXT	SEGMENT
___flags$ = 8						; size = 4
??_Gbad_array_new_length@std@@UAEPAXI@Z PROC		; std::bad_array_new_length::`scalar deleting destructor', COMDAT
; _this$ = ecx
  00000	55		 push	 ebp
  00001	8b ec		 mov	 ebp, esp

; 90   :     {

  00003	56		 push	 esi
  00004	8b f1		 mov	 esi, ecx

; 91   :         __std_exception_destroy(&_Data);

  00006	8d 46 04	 lea	 eax, DWORD PTR [esi+4]
  00009	c7 06 00 00 00
	00		 mov	 DWORD PTR [esi], OFFSET ??_7exception@std@@6B@
  0000f	50		 push	 eax
  00010	e8 00 00 00 00	 call	 ___std_exception_destroy
  00015	83 c4 04	 add	 esp, 4
  00018	f6 45 08 01	 test	 BYTE PTR ___flags$[ebp], 1
  0001c	74 0b		 je	 SHORT $LN18@scalar
  0001e	6a 0c		 push	 12			; 0000000cH
  00020	56		 push	 esi
  00021	e8 00 00 00 00	 call	 ??3@YAXPAXI@Z		; operator delete
  00026	83 c4 08	 add	 esp, 8
$LN18@scalar:
  00029	8b c6		 mov	 eax, esi
  0002b	5e		 pop	 esi
  0002c	5d		 pop	 ebp
  0002d	c2 04 00	 ret	 4
??_Gbad_array_new_length@std@@UAEPAXI@Z ENDP		; std::bad_array_new_length::`scalar deleting destructor'
_TEXT	ENDS
; Function compile flags: /Ogtp
; File D:\Program Files\Microsoft Visual Studio\2022\Community\VC\Tools\MSVC\14.43.34808\include\vcruntime_exception.h
;	COMDAT ??0bad_array_new_length@std@@QAE@ABV01@@Z
_TEXT	SEGMENT
___that$ = 8						; size = 4
??0bad_array_new_length@std@@QAE@ABV01@@Z PROC		; std::bad_array_new_length::bad_array_new_length, COMDAT
; _this$ = ecx
  00000	55		 push	 ebp
  00001	8b ec		 mov	 ebp, esp

; 73   :     {

  00003	56		 push	 esi
  00004	8b f1		 mov	 esi, ecx
  00006	0f 57 c0	 xorps	 xmm0, xmm0

; 72   :         : _Data()

  00009	8d 46 04	 lea	 eax, DWORD PTR [esi+4]

; 74   :         __std_exception_copy(&_Other._Data, &_Data);

  0000c	50		 push	 eax
  0000d	c7 06 00 00 00
	00		 mov	 DWORD PTR [esi], OFFSET ??_7exception@std@@6B@
  00013	66 0f d6 00	 movq	 QWORD PTR [eax], xmm0
  00017	8b 45 08	 mov	 eax, DWORD PTR ___that$[ebp]
  0001a	83 c0 04	 add	 eax, 4
  0001d	50		 push	 eax
  0001e	e8 00 00 00 00	 call	 ___std_exception_copy
  00023	83 c4 08	 add	 esp, 8
  00026	c7 06 00 00 00
	00		 mov	 DWORD PTR [esi], OFFSET ??_7bad_array_new_length@std@@6B@
  0002c	8b c6		 mov	 eax, esi
  0002e	5e		 pop	 esi
  0002f	5d		 pop	 ebp
  00030	c2 04 00	 ret	 4
??0bad_array_new_length@std@@QAE@ABV01@@Z ENDP		; std::bad_array_new_length::bad_array_new_length
_TEXT	ENDS
; Function compile flags: /Ogtp
; File D:\Program Files\Microsoft Visual Studio\2022\Community\VC\Tools\MSVC\14.43.34808\include\vcruntime_exception.h
;	COMDAT ??1bad_array_new_length@std@@UAE@XZ
_TEXT	SEGMENT
??1bad_array_new_length@std@@UAE@XZ PROC		; std::bad_array_new_length::~bad_array_new_length, COMDAT
; _this$ = ecx

; 91   :         __std_exception_destroy(&_Data);

  00000	8d 41 04	 lea	 eax, DWORD PTR [ecx+4]
  00003	c7 01 00 00 00
	00		 mov	 DWORD PTR [ecx], OFFSET ??_7exception@std@@6B@
  00009	50		 push	 eax
  0000a	e8 00 00 00 00	 call	 ___std_exception_destroy
  0000f	59		 pop	 ecx
  00010	c3		 ret	 0
??1bad_array_new_length@std@@UAE@XZ ENDP		; std::bad_array_new_length::~bad_array_new_length
_TEXT	ENDS
; Function compile flags: /Ogtp
; File D:\Program Files\Microsoft Visual Studio\2022\Community\VC\Tools\MSVC\14.43.34808\include\vcruntime_exception.h
;	COMDAT ??0bad_array_new_length@std@@QAE@XZ
_TEXT	SEGMENT
??0bad_array_new_length@std@@QAE@XZ PROC		; std::bad_array_new_length::bad_array_new_length, COMDAT
; _this$ = ecx

; 144  :     {

  00000	0f 57 c0	 xorps	 xmm0, xmm0

; 145  :     }

  00003	8b c1		 mov	 eax, ecx

; 66   :         : _Data()

  00005	66 0f d6 41 04	 movq	 QWORD PTR [ecx+4], xmm0

; 67   :     {
; 68   :         _Data._What = _Message;

  0000a	c7 41 04 00 00
	00 00		 mov	 DWORD PTR [ecx+4], OFFSET ??_C@_0BF@KINCDENJ@bad?5array?5new?5length@

; 144  :     {

  00011	c7 01 00 00 00
	00		 mov	 DWORD PTR [ecx], OFFSET ??_7bad_array_new_length@std@@6B@

; 145  :     }

  00017	c3		 ret	 0
??0bad_array_new_length@std@@QAE@XZ ENDP		; std::bad_array_new_length::bad_array_new_length
_TEXT	ENDS
; Function compile flags: /Ogtp
; File D:\Program Files\Microsoft Visual Studio\2022\Community\VC\Tools\MSVC\14.43.34808\include\vcruntime_exception.h
;	COMDAT ??_Gbad_alloc@std@@UAEPAXI@Z
_TEXT	SEGMENT
___flags$ = 8						; size = 4
??_Gbad_alloc@std@@UAEPAXI@Z PROC			; std::bad_alloc::`scalar deleting destructor', COMDAT
; _this$ = ecx
  00000	55		 push	 ebp
  00001	8b ec		 mov	 ebp, esp

; 90   :     {

  00003	56		 push	 esi
  00004	8b f1		 mov	 esi, ecx

; 91   :         __std_exception_destroy(&_Data);

  00006	8d 46 04	 lea	 eax, DWORD PTR [esi+4]
  00009	c7 06 00 00 00
	00		 mov	 DWORD PTR [esi], OFFSET ??_7exception@std@@6B@
  0000f	50		 push	 eax
  00010	e8 00 00 00 00	 call	 ___std_exception_destroy
  00015	83 c4 04	 add	 esp, 4
  00018	f6 45 08 01	 test	 BYTE PTR ___flags$[ebp], 1
  0001c	74 0b		 je	 SHORT $LN13@scalar
  0001e	6a 0c		 push	 12			; 0000000cH
  00020	56		 push	 esi
  00021	e8 00 00 00 00	 call	 ??3@YAXPAXI@Z		; operator delete
  00026	83 c4 08	 add	 esp, 8
$LN13@scalar:
  00029	8b c6		 mov	 eax, esi
  0002b	5e		 pop	 esi
  0002c	5d		 pop	 ebp
  0002d	c2 04 00	 ret	 4
??_Gbad_alloc@std@@UAEPAXI@Z ENDP			; std::bad_alloc::`scalar deleting destructor'
_TEXT	ENDS
; Function compile flags: /Ogtp
; File D:\Program Files\Microsoft Visual Studio\2022\Community\VC\Tools\MSVC\14.43.34808\include\vcruntime_exception.h
;	COMDAT ??0bad_alloc@std@@QAE@ABV01@@Z
_TEXT	SEGMENT
___that$ = 8						; size = 4
??0bad_alloc@std@@QAE@ABV01@@Z PROC			; std::bad_alloc::bad_alloc, COMDAT
; _this$ = ecx
  00000	55		 push	 ebp
  00001	8b ec		 mov	 ebp, esp

; 73   :     {

  00003	56		 push	 esi
  00004	8b f1		 mov	 esi, ecx
  00006	0f 57 c0	 xorps	 xmm0, xmm0

; 72   :         : _Data()

  00009	8d 46 04	 lea	 eax, DWORD PTR [esi+4]

; 74   :         __std_exception_copy(&_Other._Data, &_Data);

  0000c	50		 push	 eax
  0000d	c7 06 00 00 00
	00		 mov	 DWORD PTR [esi], OFFSET ??_7exception@std@@6B@
  00013	66 0f d6 00	 movq	 QWORD PTR [eax], xmm0
  00017	8b 45 08	 mov	 eax, DWORD PTR ___that$[ebp]
  0001a	83 c0 04	 add	 eax, 4
  0001d	50		 push	 eax
  0001e	e8 00 00 00 00	 call	 ___std_exception_copy
  00023	83 c4 08	 add	 esp, 8
  00026	c7 06 00 00 00
	00		 mov	 DWORD PTR [esi], OFFSET ??_7bad_alloc@std@@6B@
  0002c	8b c6		 mov	 eax, esi
  0002e	5e		 pop	 esi
  0002f	5d		 pop	 ebp
  00030	c2 04 00	 ret	 4
??0bad_alloc@std@@QAE@ABV01@@Z ENDP			; std::bad_alloc::bad_alloc
_TEXT	ENDS
; Function compile flags: /Ogtp
; File D:\Program Files\Microsoft Visual Studio\2022\Community\VC\Tools\MSVC\14.43.34808\include\vcruntime_exception.h
;	COMDAT ??_Gexception@std@@UAEPAXI@Z
_TEXT	SEGMENT
___flags$ = 8						; size = 4
??_Gexception@std@@UAEPAXI@Z PROC			; std::exception::`scalar deleting destructor', COMDAT
; _this$ = ecx
  00000	55		 push	 ebp
  00001	8b ec		 mov	 ebp, esp

; 90   :     {

  00003	56		 push	 esi
  00004	8b f1		 mov	 esi, ecx

; 91   :         __std_exception_destroy(&_Data);

  00006	8d 46 04	 lea	 eax, DWORD PTR [esi+4]
  00009	c7 06 00 00 00
	00		 mov	 DWORD PTR [esi], OFFSET ??_7exception@std@@6B@
  0000f	50		 push	 eax
  00010	e8 00 00 00 00	 call	 ___std_exception_destroy
  00015	83 c4 04	 add	 esp, 4
  00018	f6 45 08 01	 test	 BYTE PTR ___flags$[ebp], 1
  0001c	74 0b		 je	 SHORT $LN8@scalar
  0001e	6a 0c		 push	 12			; 0000000cH
  00020	56		 push	 esi
  00021	e8 00 00 00 00	 call	 ??3@YAXPAXI@Z		; operator delete
  00026	83 c4 08	 add	 esp, 8
$LN8@scalar:
  00029	8b c6		 mov	 eax, esi
  0002b	5e		 pop	 esi
  0002c	5d		 pop	 ebp
  0002d	c2 04 00	 ret	 4
??_Gexception@std@@UAEPAXI@Z ENDP			; std::exception::`scalar deleting destructor'
_TEXT	ENDS
; Function compile flags: /Ogtp
; File D:\Program Files\Microsoft Visual Studio\2022\Community\VC\Tools\MSVC\14.43.34808\include\vcruntime_exception.h
;	COMDAT ?what@exception@std@@UBEPBDXZ
_TEXT	SEGMENT
?what@exception@std@@UBEPBDXZ PROC			; std::exception::what, COMDAT
; _this$ = ecx

; 96   :         return _Data._What ? _Data._What : "Unknown exception";

  00000	8b 49 04	 mov	 ecx, DWORD PTR [ecx+4]
  00003	b8 00 00 00 00	 mov	 eax, OFFSET ??_C@_0BC@EOODALEL@Unknown?5exception@
  00008	85 c9		 test	 ecx, ecx
  0000a	0f 45 c1	 cmovne	 eax, ecx

; 97   :     }

  0000d	c3		 ret	 0
?what@exception@std@@UBEPBDXZ ENDP			; std::exception::what
_TEXT	ENDS
; Function compile flags: /Ogtp
; File D:\Program Files\Microsoft Visual Studio\2022\Community\VC\Tools\MSVC\14.43.34808\include\vcruntime_exception.h
;	COMDAT ??1exception@std@@UAE@XZ
_TEXT	SEGMENT
??1exception@std@@UAE@XZ PROC				; std::exception::~exception, COMDAT
; _this$ = ecx

; 91   :         __std_exception_destroy(&_Data);

  00000	8d 41 04	 lea	 eax, DWORD PTR [ecx+4]
  00003	c7 01 00 00 00
	00		 mov	 DWORD PTR [ecx], OFFSET ??_7exception@std@@6B@
  00009	50		 push	 eax
  0000a	e8 00 00 00 00	 call	 ___std_exception_destroy
  0000f	59		 pop	 ecx

; 92   :     }

  00010	c3		 ret	 0
??1exception@std@@UAE@XZ ENDP				; std::exception::~exception
_TEXT	ENDS
; Function compile flags: /Ogtp
; File D:\Program Files\Microsoft Visual Studio\2022\Community\VC\Tools\MSVC\14.43.34808\include\vcruntime_exception.h
;	COMDAT ??0exception@std@@QAE@ABV01@@Z
_TEXT	SEGMENT
__Other$ = 8						; size = 4
??0exception@std@@QAE@ABV01@@Z PROC			; std::exception::exception, COMDAT
; _this$ = ecx

; 73   :     {

  00000	55		 push	 ebp
  00001	8b ec		 mov	 ebp, esp
  00003	56		 push	 esi
  00004	8b f1		 mov	 esi, ecx
  00006	0f 57 c0	 xorps	 xmm0, xmm0
  00009	8d 46 04	 lea	 eax, DWORD PTR [esi+4]

; 74   :         __std_exception_copy(&_Other._Data, &_Data);

  0000c	50		 push	 eax
  0000d	c7 06 00 00 00
	00		 mov	 DWORD PTR [esi], OFFSET ??_7exception@std@@6B@
  00013	66 0f d6 00	 movq	 QWORD PTR [eax], xmm0
  00017	8b 45 08	 mov	 eax, DWORD PTR __Other$[ebp]
  0001a	83 c0 04	 add	 eax, 4
  0001d	50		 push	 eax
  0001e	e8 00 00 00 00	 call	 ___std_exception_copy
  00023	83 c4 08	 add	 esp, 8

; 75   :     }

  00026	8b c6		 mov	 eax, esi
  00028	5e		 pop	 esi
  00029	5d		 pop	 ebp
  0002a	c2 04 00	 ret	 4
??0exception@std@@QAE@ABV01@@Z ENDP			; std::exception::exception
_TEXT	ENDS
; Function compile flags: /Ogtp
;	COMDAT ??_H@YGXPAXIIP6EPAX0@Z@Z
_TEXT	SEGMENT
___t$ = 8						; size = 4
___s$ = 12						; size = 4
___n$ = 16						; size = 4
___f$ = 20						; size = 4
??_H@YGXPAXIIP6EPAX0@Z@Z PROC				; `vector constructor iterator', COMDAT
  00000	55		 push	 ebp
  00001	8b ec		 mov	 ebp, esp
  00003	56		 push	 esi
  00004	8b 75 10	 mov	 esi, DWORD PTR ___n$[ebp]
  00007	85 f6		 test	 esi, esi
  00009	74 16		 je	 SHORT $LN6@vector
  0000b	53		 push	 ebx
  0000c	8b 5d 14	 mov	 ebx, DWORD PTR ___f$[ebp]
  0000f	57		 push	 edi
  00010	8b 7d 08	 mov	 edi, DWORD PTR ___t$[ebp]
$LL2@vector:
  00013	8b cf		 mov	 ecx, edi
  00015	ff d3		 call	 ebx
  00017	03 7d 0c	 add	 edi, DWORD PTR ___s$[ebp]
  0001a	83 ee 01	 sub	 esi, 1
  0001d	75 f4		 jne	 SHORT $LL2@vector
  0001f	5f		 pop	 edi
  00020	5b		 pop	 ebx
$LN6@vector:
  00021	5e		 pop	 esi
  00022	5d		 pop	 ebp
  00023	c2 10 00	 ret	 16			; 00000010H
??_H@YGXPAXIIP6EPAX0@Z@Z ENDP				; `vector constructor iterator'
_TEXT	ENDS
END
