; Listing generated by Microsoft (R) Optimizing Compiler Version 19.43.34808.0 

	TITLE	C:\Marty 5.5\Src-Client\Client\EterLib\Distribute\GrpTextInstance.obj
	.686P
	.XMM
	include listing.inc
	.model	flat

INCLUDELIB LIBCMT
INCLUDELIB OLDNAMES

PUBLIC	??_R4?$CDynamicPool@VCGraphicTextInstance@@@@6B@ ; CDynamicPool<CGraphicTextInstance>::`RTTI Complete Object Locator'
PUBLIC	??_R0?AV?$CDynamicPool@VCGraphicTextInstance@@@@@8 ; CDynamicPool<CGraphicTextInstance> `RTTI Type Descriptor'
PUBLIC	??_R3?$CDynamicPool@VCGraphicTextInstance@@@@8	; CDynamicPool<CGraphicTextInstance>::`RTTI Class Hierarchy Descriptor'
PUBLIC	??_R2?$CDynamicPool@VCGraphicTextInstance@@@@8	; CDynamicPool<CGraphicTextInstance>::`RTTI Base Class Array'
PUBLIC	??_R1A@?0A@EA@?$CDynamicPool@VCGraphicTextInstance@@@@8 ; CDynamicPool<CGraphicTextInstance>::`RTTI Base Class Descriptor at (0,-1,0,64)'
PUBLIC	?_Fake_alloc@std@@3U_Fake_allocator@1@B		; std::_Fake_alloc
PUBLIC	??_7?$CDynamicPool@VCGraphicTextInstance@@@@6B@	; CDynamicPool<CGraphicTextInstance>::`vftable'
PUBLIC	??_G?$CDynamicPool@VCGraphicTextInstance@@@@UAEPAXI@Z ; CDynamicPool<CGraphicTextInstance>::`scalar deleting destructor'
EXTRN	??_7type_info@@6B@:QWORD			; type_info::`vftable'
EXTRN	??_E?$CDynamicPool@VCGraphicTextInstance@@@@UAEPAXI@Z:PROC ; CDynamicPool<CGraphicTextInstance>::`vector deleting destructor'
CONST	SEGMENT
?c_FillRectIndices@@3QBGB DW 00H			; c_FillRectIndices
	DW	02H
	DW	01H
	DW	02H
	DW	03H
	DW	01H
CONST	ENDS
;	COMDAT ??_7?$CDynamicPool@VCGraphicTextInstance@@@@6B@
CONST	SEGMENT
??_7?$CDynamicPool@VCGraphicTextInstance@@@@6B@ DD FLAT:??_R4?$CDynamicPool@VCGraphicTextInstance@@@@6B@ ; CDynamicPool<CGraphicTextInstance>::`vftable'
	DD	FLAT:??_E?$CDynamicPool@VCGraphicTextInstance@@@@UAEPAXI@Z
CONST	ENDS
;	COMDAT ?_Fake_alloc@std@@3U_Fake_allocator@1@B
CONST	SEGMENT
?_Fake_alloc@std@@3U_Fake_allocator@1@B	ORG $+1		; std::_Fake_alloc
CONST	ENDS
;	COMDAT ??_R1A@?0A@EA@?$CDynamicPool@VCGraphicTextInstance@@@@8
rdata$r	SEGMENT
??_R1A@?0A@EA@?$CDynamicPool@VCGraphicTextInstance@@@@8 DD FLAT:??_R0?AV?$CDynamicPool@VCGraphicTextInstance@@@@@8 ; CDynamicPool<CGraphicTextInstance>::`RTTI Base Class Descriptor at (0,-1,0,64)'
	DD	00H
	DD	00H
	DD	0ffffffffH
	DD	00H
	DD	040H
	DD	FLAT:??_R3?$CDynamicPool@VCGraphicTextInstance@@@@8
rdata$r	ENDS
;	COMDAT ??_R2?$CDynamicPool@VCGraphicTextInstance@@@@8
rdata$r	SEGMENT
??_R2?$CDynamicPool@VCGraphicTextInstance@@@@8 DD FLAT:??_R1A@?0A@EA@?$CDynamicPool@VCGraphicTextInstance@@@@8 ; CDynamicPool<CGraphicTextInstance>::`RTTI Base Class Array'
rdata$r	ENDS
;	COMDAT ??_R3?$CDynamicPool@VCGraphicTextInstance@@@@8
rdata$r	SEGMENT
??_R3?$CDynamicPool@VCGraphicTextInstance@@@@8 DD 00H	; CDynamicPool<CGraphicTextInstance>::`RTTI Class Hierarchy Descriptor'
	DD	00H
	DD	01H
	DD	FLAT:??_R2?$CDynamicPool@VCGraphicTextInstance@@@@8
rdata$r	ENDS
;	COMDAT ??_R0?AV?$CDynamicPool@VCGraphicTextInstance@@@@@8
data$rs	SEGMENT
??_R0?AV?$CDynamicPool@VCGraphicTextInstance@@@@@8 DD FLAT:??_7type_info@@6B@ ; CDynamicPool<CGraphicTextInstance> `RTTI Type Descriptor'
	DD	00H
	DB	'.?AV?$CDynamicPool@VCGraphicTextInstance@@@@', 00H
data$rs	ENDS
;	COMDAT ??_R4?$CDynamicPool@VCGraphicTextInstance@@@@6B@
rdata$r	SEGMENT
??_R4?$CDynamicPool@VCGraphicTextInstance@@@@6B@ DD 00H	; CDynamicPool<CGraphicTextInstance>::`RTTI Complete Object Locator'
	DD	00H
	DD	00H
	DD	FLAT:??_R0?AV?$CDynamicPool@VCGraphicTextInstance@@@@@8
	DD	FLAT:??_R3?$CDynamicPool@VCGraphicTextInstance@@@@8
rdata$r	ENDS
PUBLIC	??_H@YGXPAXIIP6EPAX0@Z@Z			; `vector constructor iterator'
PUBLIC	___local_stdio_printf_options
PUBLIC	_snprintf
PUBLIC	??0exception@std@@QAE@ABV01@@Z			; std::exception::exception
PUBLIC	??1exception@std@@UAE@XZ			; std::exception::~exception
PUBLIC	?what@exception@std@@UBEPBDXZ			; std::exception::what
PUBLIC	??_Gexception@std@@UAEPAXI@Z			; std::exception::`scalar deleting destructor'
PUBLIC	??0bad_alloc@std@@QAE@ABV01@@Z			; std::bad_alloc::bad_alloc
PUBLIC	??_Gbad_alloc@std@@UAEPAXI@Z			; std::bad_alloc::`scalar deleting destructor'
PUBLIC	??0bad_array_new_length@std@@QAE@XZ		; std::bad_array_new_length::bad_array_new_length
PUBLIC	??1bad_array_new_length@std@@UAE@XZ		; std::bad_array_new_length::~bad_array_new_length
PUBLIC	??0bad_array_new_length@std@@QAE@ABV01@@Z	; std::bad_array_new_length::bad_array_new_length
PUBLIC	??_Gbad_array_new_length@std@@UAEPAXI@Z		; std::bad_array_new_length::`scalar deleting destructor'
PUBLIC	?_Throw_bad_array_new_length@std@@YAXXZ		; std::_Throw_bad_array_new_length
PUBLIC	?_Xlen_string@std@@YAXXZ			; std::_Xlen_string
PUBLIC	??1?$basic_string@DU?$char_traits@D@std@@V?$allocator@D@2@@std@@QAE@XZ ; std::basic_string<char,std::char_traits<char>,std::allocator<char> >::~basic_string<char,std::char_traits<char>,std::allocator<char> >
PUBLIC	?assign@?$basic_string@DU?$char_traits@D@std@@V?$allocator@D@2@@std@@QAEAAV12@QBDI@Z ; std::basic_string<char,std::char_traits<char>,std::allocator<char> >::assign
PUBLIC	??1?$basic_string@_WU?$char_traits@_W@std@@V?$allocator@_W@2@@std@@QAE@XZ ; std::basic_string<wchar_t,std::char_traits<wchar_t>,std::allocator<wchar_t> >::~basic_string<wchar_t,std::char_traits<wchar_t>,std::allocator<wchar_t> >
PUBLIC	?assign@?$basic_string@_WU?$char_traits@_W@std@@V?$allocator@_W@2@@std@@QAEAAV12@QB_WI@Z ; std::basic_string<wchar_t,std::char_traits<wchar_t>,std::allocator<wchar_t> >::assign
PUBLIC	??$_Traits_compare@U?$char_traits@D@std@@@std@@YAHQBDI0I@Z ; std::_Traits_compare<std::char_traits<char> >
PUBLIC	??$_Allocate_for_capacity@$0A@@?$basic_string@_WU?$char_traits@_W@std@@V?$allocator@_W@2@@std@@CAPA_WAAV?$allocator@_W@1@AAI@Z ; std::basic_string<wchar_t,std::char_traits<wchar_t>,std::allocator<wchar_t> >::_Allocate_for_capacity<0>
PUBLIC	??$_Allocate_manually_vector_aligned@U_Default_allocate_traits@std@@@std@@YAPAXI@Z ; std::_Allocate_manually_vector_aligned<std::_Default_allocate_traits>
PUBLIC	??0SPDTVertex@@QAE@XZ				; SPDTVertex::SPDTVertex
PUBLIC	?Hyperlink_UpdateMousePos@CGraphicTextInstance@@SAXHH@Z ; CGraphicTextInstance::Hyperlink_UpdateMousePos
PUBLIC	?Hyperlink_GetText@CGraphicTextInstance@@SAHPADH@Z ; CGraphicTextInstance::Hyperlink_GetText
PUBLIC	??0CGraphicTextInstance@@QAE@XZ			; CGraphicTextInstance::CGraphicTextInstance
PUBLIC	??1CGraphicTextInstance@@UAE@XZ			; CGraphicTextInstance::~CGraphicTextInstance
PUBLIC	?Destroy@CGraphicTextInstance@@QAEXXZ		; CGraphicTextInstance::Destroy
PUBLIC	?Update@CGraphicTextInstance@@QAEXXZ		; CGraphicTextInstance::Update
PUBLIC	?Render@CGraphicTextInstance@@QAEXPAUtagRECT@@@Z ; CGraphicTextInstance::Render
PUBLIC	?ShowCursor@CGraphicTextInstance@@QAEXXZ	; CGraphicTextInstance::ShowCursor
PUBLIC	?HideCursor@CGraphicTextInstance@@QAEXXZ	; CGraphicTextInstance::HideCursor
PUBLIC	?ShowOutLine@CGraphicTextInstance@@QAEXXZ	; CGraphicTextInstance::ShowOutLine
PUBLIC	?HideOutLine@CGraphicTextInstance@@QAEXXZ	; CGraphicTextInstance::HideOutLine
PUBLIC	?SetColor@CGraphicTextInstance@@QAEXK@Z		; CGraphicTextInstance::SetColor
PUBLIC	?SetColor@CGraphicTextInstance@@QAEXMMMM@Z	; CGraphicTextInstance::SetColor
PUBLIC	?SetOutLineColor@CGraphicTextInstance@@QAEXK@Z	; CGraphicTextInstance::SetOutLineColor
PUBLIC	?SetOutLineColor@CGraphicTextInstance@@QAEXMMMM@Z ; CGraphicTextInstance::SetOutLineColor
PUBLIC	?SetHorizonalAlign@CGraphicTextInstance@@QAEXH@Z ; CGraphicTextInstance::SetHorizonalAlign
PUBLIC	?SetVerticalAlign@CGraphicTextInstance@@QAEXH@Z	; CGraphicTextInstance::SetVerticalAlign
PUBLIC	?SetMax@CGraphicTextInstance@@QAEXH@Z		; CGraphicTextInstance::SetMax
PUBLIC	?SetTextPointer@CGraphicTextInstance@@QAEXPAVCGraphicText@@@Z ; CGraphicTextInstance::SetTextPointer
PUBLIC	?SetValueString@CGraphicTextInstance@@QAEXABV?$basic_string@DU?$char_traits@D@std@@V?$allocator@D@2@@std@@@Z ; CGraphicTextInstance::SetValueString
PUBLIC	?SetValue@CGraphicTextInstance@@QAEXPBDI@Z	; CGraphicTextInstance::SetValue
PUBLIC	?SetPosition@CGraphicTextInstance@@QAEXMMM@Z	; CGraphicTextInstance::SetPosition
PUBLIC	?SetSecret@CGraphicTextInstance@@QAEX_N@Z	; CGraphicTextInstance::SetSecret
PUBLIC	?SetOutline@CGraphicTextInstance@@QAEX_N@Z	; CGraphicTextInstance::SetOutline
PUBLIC	?SetFeather@CGraphicTextInstance@@QAEX_N@Z	; CGraphicTextInstance::SetFeather
PUBLIC	?SetMultiLine@CGraphicTextInstance@@QAEX_N@Z	; CGraphicTextInstance::SetMultiLine
PUBLIC	?SetLimitWidth@CGraphicTextInstance@@QAEXM@Z	; CGraphicTextInstance::SetLimitWidth
PUBLIC	?GetTextSize@CGraphicTextInstance@@QAEXPAH0@Z	; CGraphicTextInstance::GetTextSize
PUBLIC	?GetValueStringReference@CGraphicTextInstance@@QAEABV?$basic_string@DU?$char_traits@D@std@@V?$allocator@D@2@@std@@XZ ; CGraphicTextInstance::GetValueStringReference
PUBLIC	?GetTextLineCount@CGraphicTextInstance@@QAEGXZ	; CGraphicTextInstance::GetTextLineCount
PUBLIC	?PixelPositionToCharacterPosition@CGraphicTextInstance@@QAEHH@Z ; CGraphicTextInstance::PixelPositionToCharacterPosition
PUBLIC	?GetHorizontalAlign@CGraphicTextInstance@@QAEHXZ ; CGraphicTextInstance::GetHorizontalAlign
PUBLIC	?__Initialize@CGraphicTextInstance@@IAEXXZ	; CGraphicTextInstance::__Initialize
PUBLIC	?__DrawCharacter@CGraphicTextInstance@@IAEHPAVCGraphicFontTexture@@G_WK@Z ; CGraphicTextInstance::__DrawCharacter
PUBLIC	?__GetTextPos@CGraphicTextInstance@@IAEXKPAM0@Z	; CGraphicTextInstance::__GetTextPos
PUBLIC	??1SHyperlink@CGraphicTextInstance@@QAE@XZ	; CGraphicTextInstance::SHyperlink::~SHyperlink
PUBLIC	??1?$CRef@VCGraphicText@@@@QAE@XZ		; CRef<CGraphicText>::~CRef<CGraphicText>
PUBLIC	??1?$vector@PAUSCharacterInfomation@CGraphicFontTexture@@V?$allocator@PAUSCharacterInfomation@CGraphicFontTexture@@@std@@@std@@QAE@XZ ; std::vector<CGraphicFontTexture::SCharacterInfomation *,std::allocator<CGraphicFontTexture::SCharacterInfomation *> >::~vector<CGraphicFontTexture::SCharacterInfomation *,std::allocator<CGraphicFontTexture::SCharacterInfomation *> >
PUBLIC	?_Xlength@?$vector@PAUSCharacterInfomation@CGraphicFontTexture@@V?$allocator@PAUSCharacterInfomation@CGraphicFontTexture@@@std@@@std@@CAXXZ ; std::vector<CGraphicFontTexture::SCharacterInfomation *,std::allocator<CGraphicFontTexture::SCharacterInfomation *> >::_Xlength
PUBLIC	??1?$vector@KV?$allocator@K@std@@@std@@QAE@XZ	; std::vector<unsigned long,std::allocator<unsigned long> >::~vector<unsigned long,std::allocator<unsigned long> >
PUBLIC	?_Xlength@?$vector@KV?$allocator@K@std@@@std@@CAXXZ ; std::vector<unsigned long,std::allocator<unsigned long> >::_Xlength
PUBLIC	??1?$vector@USHyperlink@CGraphicTextInstance@@V?$allocator@USHyperlink@CGraphicTextInstance@@@std@@@std@@QAE@XZ ; std::vector<CGraphicTextInstance::SHyperlink,std::allocator<CGraphicTextInstance::SHyperlink> >::~vector<CGraphicTextInstance::SHyperlink,std::allocator<CGraphicTextInstance::SHyperlink> >
PUBLIC	?clear@?$vector@USHyperlink@CGraphicTextInstance@@V?$allocator@USHyperlink@CGraphicTextInstance@@@std@@@std@@QAEXXZ ; std::vector<CGraphicTextInstance::SHyperlink,std::allocator<CGraphicTextInstance::SHyperlink> >::clear
PUBLIC	?_Xlength@?$vector@USHyperlink@CGraphicTextInstance@@V?$allocator@USHyperlink@CGraphicTextInstance@@@std@@@std@@CAXXZ ; std::vector<CGraphicTextInstance::SHyperlink,std::allocator<CGraphicTextInstance::SHyperlink> >::_Xlength
PUBLIC	??1?$vector@USEmoji@CGraphicTextInstance@@V?$allocator@USEmoji@CGraphicTextInstance@@@std@@@std@@QAE@XZ ; std::vector<CGraphicTextInstance::SEmoji,std::allocator<CGraphicTextInstance::SEmoji> >::~vector<CGraphicTextInstance::SEmoji,std::allocator<CGraphicTextInstance::SEmoji> >
PUBLIC	?_Xlength@?$vector@USEmoji@CGraphicTextInstance@@V?$allocator@USEmoji@CGraphicTextInstance@@@std@@@std@@CAXXZ ; std::vector<CGraphicTextInstance::SEmoji,std::allocator<CGraphicTextInstance::SEmoji> >::_Xlength
PUBLIC	?CreateSystem@CGraphicTextInstance@@SAXI@Z	; CGraphicTextInstance::CreateSystem
PUBLIC	?DestroySystem@CGraphicTextInstance@@SAXXZ	; CGraphicTextInstance::DestroySystem
PUBLIC	?New@CGraphicTextInstance@@SAPAV1@XZ		; CGraphicTextInstance::New
PUBLIC	?Delete@CGraphicTextInstance@@SAXPAV1@@Z	; CGraphicTextInstance::Delete
PUBLIC	??_GCGraphicTextInstance@@UAEPAXI@Z		; CGraphicTextInstance::`scalar deleting destructor'
PUBLIC	?FindToken@@YAPBDPBD0@Z				; FindToken
PUBLIC	?ReadToken@@YAHPBD@Z				; ReadToken
PUBLIC	??1?$CDynamicPool@VCGraphicTextInstance@@@@UAE@XZ ; CDynamicPool<CGraphicTextInstance>::~CDynamicPool<CGraphicTextInstance>
PUBLIC	?push_back@?$vector@PAVCGraphicTextInstance@@V?$allocator@PAVCGraphicTextInstance@@@std@@@std@@QAEXABQAVCGraphicTextInstance@@@Z ; std::vector<CGraphicTextInstance *,std::allocator<CGraphicTextInstance *> >::push_back
PUBLIC	?reserve@?$vector@PAVCGraphicTextInstance@@V?$allocator@PAVCGraphicTextInstance@@@std@@@std@@QAEXI@Z ; std::vector<CGraphicTextInstance *,std::allocator<CGraphicTextInstance *> >::reserve
PUBLIC	?_Change_array@?$vector@PAVCGraphicTextInstance@@V?$allocator@PAVCGraphicTextInstance@@@std@@@std@@AAEXQAPAVCGraphicTextInstance@@II@Z ; std::vector<CGraphicTextInstance *,std::allocator<CGraphicTextInstance *> >::_Change_array
PUBLIC	?_Xlength@?$vector@PAVCGraphicTextInstance@@V?$allocator@PAVCGraphicTextInstance@@@std@@@std@@CAXXZ ; std::vector<CGraphicTextInstance *,std::allocator<CGraphicTextInstance *> >::_Xlength
PUBLIC	?GraphicTextInstancesReload@@YAXPAVCGraphicText@@@Z ; GraphicTextInstancesReload
PUBLIC	?__GraphicTextInstancesList@@YAXPAVCGraphicTextInstance@@_N@Z ; __GraphicTextInstancesList
PUBLIC	?isNumberic@@YA_ND@Z				; isNumberic
PUBLIC	?IsValidToken@@YA_NPBD@Z			; IsValidToken
PUBLIC	??$_Reallocate_grow_by@V<lambda_c3135ae829aeedc0a8af1bd1e887c66a>@@I_W@?$basic_string@_WU?$char_traits@_W@std@@V?$allocator@_W@2@@std@@AAEAAV01@IV<lambda_c3135ae829aeedc0a8af1bd1e887c66a>@@I_W@Z ; std::basic_string<wchar_t,std::char_traits<wchar_t>,std::allocator<wchar_t> >::_Reallocate_grow_by<<lambda_c3135ae829aeedc0a8af1bd1e887c66a>,unsigned int,wchar_t>
PUBLIC	??1?$_Alloc_construct_ptr@V?$allocator@U?$_List_node@PAVCGraphicTextInstance@@PAX@std@@@std@@@std@@QAE@XZ ; std::_Alloc_construct_ptr<std::allocator<std::_List_node<CGraphicTextInstance *,void *> > >::~_Alloc_construct_ptr<std::allocator<std::_List_node<CGraphicTextInstance *,void *> > >
PUBLIC	??$_Emplace_reallocate@ABUSEmoji@CGraphicTextInstance@@@?$vector@USEmoji@CGraphicTextInstance@@V?$allocator@USEmoji@CGraphicTextInstance@@@std@@@std@@AAEPAUSEmoji@CGraphicTextInstance@@QAU23@ABU23@@Z ; std::vector<CGraphicTextInstance::SEmoji,std::allocator<CGraphicTextInstance::SEmoji> >::_Emplace_reallocate<CGraphicTextInstance::SEmoji const &>
PUBLIC	??$_Emplace_reallocate@ABUSHyperlink@CGraphicTextInstance@@@?$vector@USHyperlink@CGraphicTextInstance@@V?$allocator@USHyperlink@CGraphicTextInstance@@@std@@@std@@AAEPAUSHyperlink@CGraphicTextInstance@@QAU23@ABU23@@Z ; std::vector<CGraphicTextInstance::SHyperlink,std::allocator<CGraphicTextInstance::SHyperlink> >::_Emplace_reallocate<CGraphicTextInstance::SHyperlink const &>
PUBLIC	??$_Emplace_reallocate@ABK@?$vector@KV?$allocator@K@std@@@std@@AAEPAKQAKABK@Z ; std::vector<unsigned long,std::allocator<unsigned long> >::_Emplace_reallocate<unsigned long const &>
PUBLIC	??$_Emplace_reallocate@ABQAUSCharacterInfomation@CGraphicFontTexture@@@?$vector@PAUSCharacterInfomation@CGraphicFontTexture@@V?$allocator@PAUSCharacterInfomation@CGraphicFontTexture@@@std@@@std@@AAEPAPAUSCharacterInfomation@CGraphicFontTexture@@QAPAU23@ABQAU23@@Z ; std::vector<CGraphicFontTexture::SCharacterInfomation *,std::allocator<CGraphicFontTexture::SCharacterInfomation *> >::_Emplace_reallocate<CGraphicFontTexture::SCharacterInfomation * const &>
PUBLIC	??$_Find_vectorized@$$CBDD@std@@YAPBDQBD0D@Z	; std::_Find_vectorized<char const ,char>
PUBLIC	??$construct@USHyperlink@CGraphicTextInstance@@ABU12@@?$_Default_allocator_traits@V?$allocator@USHyperlink@CGraphicTextInstance@@@std@@@std@@SAXAAV?$allocator@USHyperlink@CGraphicTextInstance@@@1@QAUSHyperlink@CGraphicTextInstance@@ABU34@@Z ; std::_Default_allocator_traits<std::allocator<CGraphicTextInstance::SHyperlink> >::construct<CGraphicTextInstance::SHyperlink,CGraphicTextInstance::SHyperlink const &>
PUBLIC	??1_Reallocation_guard@?$vector@USHyperlink@CGraphicTextInstance@@V?$allocator@USHyperlink@CGraphicTextInstance@@@std@@@std@@QAE@XZ ; std::vector<CGraphicTextInstance::SHyperlink,std::allocator<CGraphicTextInstance::SHyperlink> >::_Reallocation_guard::~_Reallocation_guard
PUBLIC	??$_Uninitialized_move@PAUSHyperlink@CGraphicTextInstance@@V?$allocator@USHyperlink@CGraphicTextInstance@@@std@@@std@@YAPAUSHyperlink@CGraphicTextInstance@@QAU12@0PAU12@AAV?$allocator@USHyperlink@CGraphicTextInstance@@@0@@Z ; std::_Uninitialized_move<CGraphicTextInstance::SHyperlink *,std::allocator<CGraphicTextInstance::SHyperlink> >
PUBLIC	??$_Copy_memmove@PAPAVCGraphicTextInstance@@PAPAV1@@std@@YAPAPAVCGraphicTextInstance@@PAPAV1@00@Z ; std::_Copy_memmove<CGraphicTextInstance * *,CGraphicTextInstance * *>
PUBLIC	??$_Copy_memmove@PAUSEmoji@CGraphicTextInstance@@PAU12@@std@@YAPAUSEmoji@CGraphicTextInstance@@PAU12@00@Z ; std::_Copy_memmove<CGraphicTextInstance::SEmoji *,CGraphicTextInstance::SEmoji *>
PUBLIC	??$_Copy_memmove@PAKPAK@std@@YAPAKPAK00@Z	; std::_Copy_memmove<unsigned long *,unsigned long *>
PUBLIC	??$_Copy_memmove@PAPAUSCharacterInfomation@CGraphicFontTexture@@PAPAU12@@std@@YAPAPAUSCharacterInfomation@CGraphicFontTexture@@PAPAU12@00@Z ; std::_Copy_memmove<CGraphicFontTexture::SCharacterInfomation * *,CGraphicFontTexture::SCharacterInfomation * *>
PUBLIC	??$_Copy_memmove_tail@PAPAVCGraphicTextInstance@@@std@@YAPAPAVCGraphicTextInstance@@QBDQAPAV1@II@Z ; std::_Copy_memmove_tail<CGraphicTextInstance * *>
PUBLIC	??$_Copy_memmove_tail@PAUSEmoji@CGraphicTextInstance@@@std@@YAPAUSEmoji@CGraphicTextInstance@@QBDQAU12@II@Z ; std::_Copy_memmove_tail<CGraphicTextInstance::SEmoji *>
PUBLIC	??$_Copy_memmove_tail@PAK@std@@YAPAKQBDQAKII@Z	; std::_Copy_memmove_tail<unsigned long *>
PUBLIC	??$_Copy_memmove_tail@PAPAUSCharacterInfomation@CGraphicFontTexture@@@std@@YAPAPAUSCharacterInfomation@CGraphicFontTexture@@QBDQAPAU12@II@Z ; std::_Copy_memmove_tail<CGraphicFontTexture::SCharacterInfomation * *>
PUBLIC	?_OptionsStorage@?1??__local_stdio_printf_options@@9@4_KA ; `__local_stdio_printf_options'::`2'::_OptionsStorage
PUBLIC	??_7exception@std@@6B@				; std::exception::`vftable'
PUBLIC	??_C@_0BC@EOODALEL@Unknown?5exception@		; `string'
PUBLIC	??_7bad_alloc@std@@6B@				; std::bad_alloc::`vftable'
PUBLIC	??_7bad_array_new_length@std@@6B@		; std::bad_array_new_length::`vftable'
PUBLIC	??_C@_0BF@KINCDENJ@bad?5array?5new?5length@	; `string'
PUBLIC	??_R0?AVexception@std@@@8			; std::exception `RTTI Type Descriptor'
PUBLIC	__CT??_R0?AVexception@std@@@8??0exception@std@@QAE@ABV01@@Z12
PUBLIC	__TI3?AVbad_array_new_length@std@@
PUBLIC	__CTA3?AVbad_array_new_length@std@@
PUBLIC	??_R0?AVbad_array_new_length@std@@@8		; std::bad_array_new_length `RTTI Type Descriptor'
PUBLIC	__CT??_R0?AVbad_array_new_length@std@@@8??0bad_array_new_length@std@@QAE@ABV01@@Z12
PUBLIC	??_R0?AVbad_alloc@std@@@8			; std::bad_alloc `RTTI Type Descriptor'
PUBLIC	__CT??_R0?AVbad_alloc@std@@@8??0bad_alloc@std@@QAE@ABV01@@Z12
PUBLIC	??_C@_0BA@JFNIOLAK@string?5too?5long@		; `string'
PUBLIC	??_R4exception@std@@6B@				; std::exception::`RTTI Complete Object Locator'
PUBLIC	??_R3exception@std@@8				; std::exception::`RTTI Class Hierarchy Descriptor'
PUBLIC	??_R2exception@std@@8				; std::exception::`RTTI Base Class Array'
PUBLIC	??_R1A@?0A@EA@exception@std@@8			; std::exception::`RTTI Base Class Descriptor at (0,-1,0,64)'
PUBLIC	??_R4bad_array_new_length@std@@6B@		; std::bad_array_new_length::`RTTI Complete Object Locator'
PUBLIC	??_R3bad_array_new_length@std@@8		; std::bad_array_new_length::`RTTI Class Hierarchy Descriptor'
PUBLIC	??_R2bad_array_new_length@std@@8		; std::bad_array_new_length::`RTTI Base Class Array'
PUBLIC	??_R1A@?0A@EA@bad_array_new_length@std@@8	; std::bad_array_new_length::`RTTI Base Class Descriptor at (0,-1,0,64)'
PUBLIC	??_R1A@?0A@EA@bad_alloc@std@@8			; std::bad_alloc::`RTTI Base Class Descriptor at (0,-1,0,64)'
PUBLIC	??_R3bad_alloc@std@@8				; std::bad_alloc::`RTTI Class Hierarchy Descriptor'
PUBLIC	??_R2bad_alloc@std@@8				; std::bad_alloc::`RTTI Base Class Array'
PUBLIC	??_R4bad_alloc@std@@6B@				; std::bad_alloc::`RTTI Complete Object Locator'
PUBLIC	?ms_kPool@CGraphicTextInstance@@2V?$CDynamicPool@VCGraphicTextInstance@@@@A ; CGraphicTextInstance::ms_kPool
PUBLIC	??_7CGraphicTextInstance@@6B@			; CGraphicTextInstance::`vftable'
PUBLIC	?ms_singleton@?$CSingleton@VCStateManager@@@@0PAVCStateManager@@A ; CSingleton<CStateManager>::ms_singleton
PUBLIC	?ms_singleton@?$CSingleton@VCResourceManager@@@@0PAVCResourceManager@@A ; CSingleton<CResourceManager>::ms_singleton
PUBLIC	?GraphicTextInstances@@3V?$list@PAVCGraphicTextInstance@@V?$allocator@PAVCGraphicTextInstance@@@std@@@std@@A ; GraphicTextInstances
PUBLIC	??_C@_11LOCGONAA@@				; `string'
PUBLIC	??_C@_0M@NHBNKCLI@icon?1?$CFs?4tga@		; `string'
PUBLIC	??_C@_0BC@DJBDGBIO@icon?1emoji?1?$CFs?4png@	; `string'
PUBLIC	??_C@_02DKCKIIND@?$CFs@				; `string'
PUBLIC	??_C@_0DG@FOMBDJDA@CGraphicTextInstance?3?3Update?5?9?5@ ; `string'
PUBLIC	??_C@_00CNPNBAHC@@				; `string'
PUBLIC	??_C@_0BA@FOIKENOD@vector?5too?5long@		; `string'
PUBLIC	??_C@_0O@NKNMEGII@list?5too?5long@		; `string'
PUBLIC	??_R4CGraphicTextInstance@@6B@			; CGraphicTextInstance::`RTTI Complete Object Locator'
PUBLIC	??_R0?AVCGraphicTextInstance@@@8		; CGraphicTextInstance `RTTI Type Descriptor'
PUBLIC	??_R3CGraphicTextInstance@@8			; CGraphicTextInstance::`RTTI Class Hierarchy Descriptor'
PUBLIC	??_R2CGraphicTextInstance@@8			; CGraphicTextInstance::`RTTI Base Class Array'
PUBLIC	??_R1A@?0A@EA@CGraphicTextInstance@@8		; CGraphicTextInstance::`RTTI Base Class Descriptor at (0,-1,0,64)'
PUBLIC	__real@3f000000
PUBLIC	__real@3f800000
PUBLIC	__real@40000000
PUBLIC	__real@401c000000000000
PUBLIC	__real@437f0000
EXTRN	??2@YAPAXI@Z:PROC				; operator new
EXTRN	??3@YAXPAXI@Z:PROC				; operator delete
EXTRN	_atexit:PROC
EXTRN	___report_rangecheckfailure:PROC
EXTRN	___std_terminate:PROC
EXTRN	__invalid_parameter_noinfo_noreturn:PROC
EXTRN	___stdio_common_vsprintf:PROC
EXTRN	___std_find_trivial_1@12:PROC
EXTRN	?_Xlength_error@std@@YAXPBD@Z:PROC		; std::_Xlength_error
EXTRN	___std_exception_copy:PROC
EXTRN	___std_exception_destroy:PROC
EXTRN	??_Eexception@std@@UAEPAXI@Z:PROC		; std::exception::`vector deleting destructor'
EXTRN	??_Ebad_alloc@std@@UAEPAXI@Z:PROC		; std::bad_alloc::`vector deleting destructor'
EXTRN	??_Ebad_array_new_length@std@@UAEPAXI@Z:PROC	; std::bad_array_new_length::`vector deleting destructor'
EXTRN	?Tracef@@YAXPBDZZ:PROC				; Tracef
EXTRN	?AddReference@CReferenceObject@@QAEXXZ:PROC	; CReferenceObject::AddReference
EXTRN	?Release@CReferenceObject@@QAEXXZ:PROC		; CReferenceObject::Release
EXTRN	?IsEmpty@CResource@@QBE_NXZ:PROC		; CResource::IsEmpty
EXTRN	?SetDefaultIndexBuffer@CGraphicBase@@SAXI@Z:PROC ; CGraphicBase::SetDefaultIndexBuffer
EXTRN	?SetPDTStream@CGraphicBase@@SA_NPAUSPDTVertex@@I@Z:PROC ; CGraphicBase::SetPDTStream
EXTRN	?GetD3DTexture@CGraphicTexture@@QBEPAUIDirect3DTexture8@@XZ:PROC ; CGraphicTexture::GetD3DTexture
EXTRN	?SelectTexture@CGraphicFontTexture@@QAEXK@Z:PROC ; CGraphicFontTexture::SelectTexture
EXTRN	?UpdateTexture@CGraphicFontTexture@@QAE_NXZ:PROC ; CGraphicFontTexture::UpdateTexture
EXTRN	?GetCharacterInfomation@CGraphicFontTexture@@QAEPAUSCharacterInfomation@1@G_W@Z:PROC ; CGraphicFontTexture::GetCharacterInfomation
EXTRN	?GetFontTexturePointer@CGraphicText@@QAEPAVCGraphicFontTexture@@XZ:PROC ; CGraphicText::GetFontTexturePointer
EXTRN	?GetWidth@CGraphicImage@@QBEHXZ:PROC		; CGraphicImage::GetWidth
EXTRN	?Render@CGraphicImageInstance@@QAEXXZ:PROC	; CGraphicImageInstance::Render
EXTRN	?SetPosition@CGraphicImageInstance@@QAEXMM@Z:PROC ; CGraphicImageInstance::SetPosition
EXTRN	?SetImagePointer@CGraphicImageInstance@@QAEXPAVCGraphicImage@@@Z:PROC ; CGraphicImageInstance::SetImagePointer
EXTRN	?GetHeight@CGraphicImageInstance@@QAEHXZ:PROC	; CGraphicImageInstance::GetHeight
EXTRN	?New@CGraphicImageInstance@@SAPAV1@XZ:PROC	; CGraphicImageInstance::New
EXTRN	?Delete@CGraphicImageInstance@@SAXPAV1@@Z:PROC	; CGraphicImageInstance::Delete
EXTRN	??_ECGraphicTextInstance@@UAEPAXI@Z:PROC	; CGraphicTextInstance::`vector deleting destructor'
EXTRN	?SaveRenderState@CStateManager@@QAEXW4_D3DRENDERSTATETYPE@@K@Z:PROC ; CStateManager::SaveRenderState
EXTRN	?RestoreRenderState@CStateManager@@QAEXW4_D3DRENDERSTATETYPE@@@Z:PROC ; CStateManager::RestoreRenderState
EXTRN	?SetRenderState@CStateManager@@QAEXW4_D3DRENDERSTATETYPE@@K@Z:PROC ; CStateManager::SetRenderState
EXTRN	?SetTexture@CStateManager@@QAEXKPAUIDirect3DBaseTexture8@@@Z:PROC ; CStateManager::SetTexture
EXTRN	?SetTextureStageState@CStateManager@@QAEXKW4_D3DTEXTURESTAGESTATETYPE@@K@Z:PROC ; CStateManager::SetTextureStageState
EXTRN	?SetVertexShader@CStateManager@@QAEXK@Z:PROC	; CStateManager::SetVertexShader
EXTRN	?DrawPrimitive@CStateManager@@QAEJW4_D3DPRIMITIVETYPE@@II@Z:PROC ; CStateManager::DrawPrimitive
EXTRN	?DrawIndexedPrimitive@CStateManager@@QAEJW4_D3DPRIMITIVETYPE@@IIII@Z:PROC ; CStateManager::DrawIndexedPrimitive
EXTRN	?DrawIndexedPrimitiveUP@CStateManager@@QAEJW4_D3DPRIMITIVETYPE@@IIIPBXW4_D3DFORMAT@@1I@Z:PROC ; CStateManager::DrawIndexedPrimitiveUP
EXTRN	?GetRenderState@CStateManager@@QAEKW4_D3DRENDERSTATETYPE@@@Z:PROC ; CStateManager::GetRenderState
EXTRN	?GetCurPos@CIME@@SAHXZ:PROC			; CIME::GetCurPos
EXTRN	?GetCompLen@CIME@@SAHXZ:PROC			; CIME::GetCompLen
EXTRN	?GetULBegin@CIME@@SAHXZ:PROC			; CIME::GetULBegin
EXTRN	?GetULEnd@CIME@@SAHXZ:PROC			; CIME::GetULEnd
EXTRN	?GetTextTag@@YAHPB_WHAAHAAV?$basic_string@_WU?$char_traits@_W@std@@V?$allocator@_W@2@@std@@@Z:PROC ; GetTextTag
EXTRN	?Ymir_WideCharToMultiByte@@YAHIKPB_WHPADHPBDPAH@Z:PROC ; Ymir_WideCharToMultiByte
EXTRN	?Ymir_MultiByteToWideChar@@YAHIKPBDHPA_WH@Z:PROC ; Ymir_MultiByteToWideChar
EXTRN	?Arabic_ConvSymbol@@YA_W_W@Z:PROC		; Arabic_ConvSymbol
EXTRN	?Arabic_IsInSymbol@@YA_N_W@Z:PROC		; Arabic_IsInSymbol
EXTRN	?Arabic_IsInPresentation@@YA_N_W@Z:PROC		; Arabic_IsInPresentation
EXTRN	?Arabic_HasPresentation@@YA_NPA_WH@Z:PROC	; Arabic_HasPresentation
EXTRN	?Arabic_MakeShape@@YAIPA_WI0I@Z:PROC		; Arabic_MakeShape
EXTRN	?GetResourcePointer@CResourceManager@@QAEPAVCResource@@PBD@Z:PROC ; CResourceManager::GetResourcePointer
EXTRN	?IsFileExist@CResourceManager@@QAE_NPBD@Z:PROC	; CResourceManager::IsFileExist
EXTRN	?GetDefaultCodePage@@YAKXZ:PROC			; GetDefaultCodePage
EXTRN	@__security_check_cookie@4:PROC
EXTRN	__CxxThrowException@8:PROC
EXTRN	___CxxFrameHandler3:PROC
EXTRN	__alloca_probe_16:PROC
EXTRN	__ftol3:PROC
EXTRN	_memcpy:PROC
EXTRN	_memmove:PROC
EXTRN	_memset:PROC
EXTRN	___security_cookie:DWORD
EXTRN	__fltused:DWORD
;	COMDAT ?_OptionsStorage@?1??__local_stdio_printf_options@@9@4_KA
_BSS	SEGMENT
?_OptionsStorage@?1??__local_stdio_printf_options@@9@4_KA DQ 01H DUP (?) ; `__local_stdio_printf_options'::`2'::_OptionsStorage
_BSS	ENDS
;	COMDAT ?ms_singleton@?$CSingleton@VCStateManager@@@@0PAVCStateManager@@A
_BSS	SEGMENT
?ms_singleton@?$CSingleton@VCStateManager@@@@0PAVCStateManager@@A DD 01H DUP (?) ; CSingleton<CStateManager>::ms_singleton
_BSS	ENDS
;	COMDAT ?ms_singleton@?$CSingleton@VCResourceManager@@@@0PAVCResourceManager@@A
_BSS	SEGMENT
?ms_singleton@?$CSingleton@VCResourceManager@@@@0PAVCResourceManager@@A DD 01H DUP (?) ; CSingleton<CResourceManager>::ms_singleton
_BSS	ENDS
_BSS	SEGMENT
?gs_mx@@3HA DD	01H DUP (?)				; gs_mx
?gs_my@@3HA DD	01H DUP (?)				; gs_my
?pkDefaultFont_RELOAD@@3PAVCGraphicText@@A DD 01H DUP (?) ; pkDefaultFont_RELOAD
?GraphicTextInstances@@3V?$list@PAVCGraphicTextInstance@@V?$allocator@PAVCGraphicTextInstance@@@std@@@std@@A DQ 01H DUP (?) ; GraphicTextInstances
_BSS	ENDS
CRT$XCU	SEGMENT
??ms_kPool$initializer$@CGraphicTextInstance@@2P6AXXZA@@3P6AXXZA DD FLAT:??__E?ms_kPool@CGraphicTextInstance@@2V?$CDynamicPool@VCGraphicTextInstance@@@@A@@YAXXZ ; ??ms_kPool$initializer$@CGraphicTextInstance@@2P6AXXZA@@3P6AXXZA
CRT$XCU	ENDS
;	COMDAT __real@437f0000
CONST	SEGMENT
__real@437f0000 DD 0437f0000r			; 255
CONST	ENDS
;	COMDAT __real@401c000000000000
CONST	SEGMENT
__real@401c000000000000 DQ 0401c000000000000r	; 7
CONST	ENDS
;	COMDAT __real@40000000
CONST	SEGMENT
__real@40000000 DD 040000000r			; 2
CONST	ENDS
;	COMDAT __real@3f800000
CONST	SEGMENT
__real@3f800000 DD 03f800000r			; 1
CONST	ENDS
;	COMDAT __real@3f000000
CONST	SEGMENT
__real@3f000000 DD 03f000000r			; 0.5
CONST	ENDS
;	COMDAT ??_R1A@?0A@EA@CGraphicTextInstance@@8
rdata$r	SEGMENT
??_R1A@?0A@EA@CGraphicTextInstance@@8 DD FLAT:??_R0?AVCGraphicTextInstance@@@8 ; CGraphicTextInstance::`RTTI Base Class Descriptor at (0,-1,0,64)'
	DD	00H
	DD	00H
	DD	0ffffffffH
	DD	00H
	DD	040H
	DD	FLAT:??_R3CGraphicTextInstance@@8
rdata$r	ENDS
;	COMDAT ??_R2CGraphicTextInstance@@8
rdata$r	SEGMENT
??_R2CGraphicTextInstance@@8 DD FLAT:??_R1A@?0A@EA@CGraphicTextInstance@@8 ; CGraphicTextInstance::`RTTI Base Class Array'
rdata$r	ENDS
;	COMDAT ??_R3CGraphicTextInstance@@8
rdata$r	SEGMENT
??_R3CGraphicTextInstance@@8 DD 00H			; CGraphicTextInstance::`RTTI Class Hierarchy Descriptor'
	DD	00H
	DD	01H
	DD	FLAT:??_R2CGraphicTextInstance@@8
rdata$r	ENDS
;	COMDAT ??_R0?AVCGraphicTextInstance@@@8
data$rs	SEGMENT
??_R0?AVCGraphicTextInstance@@@8 DD FLAT:??_7type_info@@6B@ ; CGraphicTextInstance `RTTI Type Descriptor'
	DD	00H
	DB	'.?AVCGraphicTextInstance@@', 00H
data$rs	ENDS
;	COMDAT ??_R4CGraphicTextInstance@@6B@
rdata$r	SEGMENT
??_R4CGraphicTextInstance@@6B@ DD 00H			; CGraphicTextInstance::`RTTI Complete Object Locator'
	DD	00H
	DD	00H
	DD	FLAT:??_R0?AVCGraphicTextInstance@@@8
	DD	FLAT:??_R3CGraphicTextInstance@@8
rdata$r	ENDS
;	COMDAT ??_C@_0O@NKNMEGII@list?5too?5long@
CONST	SEGMENT
??_C@_0O@NKNMEGII@list?5too?5long@ DB 'list too long', 00H ; `string'
CONST	ENDS
;	COMDAT ??_C@_0BA@FOIKENOD@vector?5too?5long@
CONST	SEGMENT
??_C@_0BA@FOIKENOD@vector?5too?5long@ DB 'vector too long', 00H ; `string'
CONST	ENDS
;	COMDAT ??_C@_00CNPNBAHC@@
CONST	SEGMENT
??_C@_00CNPNBAHC@@ DB 00H				; `string'
CONST	ENDS
;	COMDAT ??_C@_0DG@FOMBDJDA@CGraphicTextInstance?3?3Update?5?9?5@
CONST	SEGMENT
??_C@_0DG@FOMBDJDA@CGraphicTextInstance?3?3Update?5?9?5@ DB 'CGraphicText'
	DB	'Instance::Update - Font has not been set', 0aH, 00H ; `string'
CONST	ENDS
;	COMDAT ??_C@_02DKCKIIND@?$CFs@
CONST	SEGMENT
??_C@_02DKCKIIND@?$CFs@ DB '%s', 00H			; `string'
CONST	ENDS
;	COMDAT ??_C@_0BC@DJBDGBIO@icon?1emoji?1?$CFs?4png@
CONST	SEGMENT
??_C@_0BC@DJBDGBIO@icon?1emoji?1?$CFs?4png@ DB 'icon/emoji/%s.png', 00H ; `string'
CONST	ENDS
;	COMDAT ??_C@_0M@NHBNKCLI@icon?1?$CFs?4tga@
CONST	SEGMENT
??_C@_0M@NHBNKCLI@icon?1?$CFs?4tga@ DB 'icon/%s.tga', 00H ; `string'
CONST	ENDS
;	COMDAT ?pathList@?KJ@??Update@CGraphicTextInstance@@QAEXXZ@4PAPBDA
_DATA	SEGMENT
?pathList@?KJ@??Update@CGraphicTextInstance@@QAEXXZ@4PAPBDA DD FLAT:??_C@_0M@NHBNKCLI@icon?1?$CFs?4tga@ ; `CGraphicTextInstance::Update'::`169'::pathList
	DD	FLAT:??_C@_0BC@DJBDGBIO@icon?1emoji?1?$CFs?4png@
	DD	FLAT:??_C@_02DKCKIIND@?$CFs@
_DATA	ENDS
;	COMDAT ??_C@_11LOCGONAA@@
CONST	SEGMENT
??_C@_11LOCGONAA@@ DB 00H, 00H				; `string'
CONST	ENDS
;	COMDAT ??_7CGraphicTextInstance@@6B@
CONST	SEGMENT
??_7CGraphicTextInstance@@6B@ DD FLAT:??_R4CGraphicTextInstance@@6B@ ; CGraphicTextInstance::`vftable'
	DD	FLAT:??_ECGraphicTextInstance@@UAEPAXI@Z
CONST	ENDS
_DATA	SEGMENT
?ms_kPool@CGraphicTextInstance@@2V?$CDynamicPool@VCGraphicTextInstance@@@@A DD FLAT:??_7?$CDynamicPool@VCGraphicTextInstance@@@@6B@ ; CGraphicTextInstance::ms_kPool
	DD	00H
	DD	00H
	DD	00H
	DD	00H
	DD	00H
	DD	00H
	DD	00H
	DD	00H
?gs_hyperlinkText@@3V?$basic_string@_WU?$char_traits@_W@std@@V?$allocator@_W@2@@std@@A DW 00H ; gs_hyperlinkText
	DB	18 DUP(00H)
	DD	07H
_DATA	ENDS
;	COMDAT ??_R4bad_alloc@std@@6B@
rdata$r	SEGMENT
??_R4bad_alloc@std@@6B@ DD 00H				; std::bad_alloc::`RTTI Complete Object Locator'
	DD	00H
	DD	00H
	DD	FLAT:??_R0?AVbad_alloc@std@@@8
	DD	FLAT:??_R3bad_alloc@std@@8
rdata$r	ENDS
;	COMDAT ??_R2bad_alloc@std@@8
rdata$r	SEGMENT
??_R2bad_alloc@std@@8 DD FLAT:??_R1A@?0A@EA@bad_alloc@std@@8 ; std::bad_alloc::`RTTI Base Class Array'
	DD	FLAT:??_R1A@?0A@EA@exception@std@@8
rdata$r	ENDS
;	COMDAT ??_R3bad_alloc@std@@8
rdata$r	SEGMENT
??_R3bad_alloc@std@@8 DD 00H				; std::bad_alloc::`RTTI Class Hierarchy Descriptor'
	DD	00H
	DD	02H
	DD	FLAT:??_R2bad_alloc@std@@8
rdata$r	ENDS
;	COMDAT ??_R1A@?0A@EA@bad_alloc@std@@8
rdata$r	SEGMENT
??_R1A@?0A@EA@bad_alloc@std@@8 DD FLAT:??_R0?AVbad_alloc@std@@@8 ; std::bad_alloc::`RTTI Base Class Descriptor at (0,-1,0,64)'
	DD	01H
	DD	00H
	DD	0ffffffffH
	DD	00H
	DD	040H
	DD	FLAT:??_R3bad_alloc@std@@8
rdata$r	ENDS
;	COMDAT ??_R1A@?0A@EA@bad_array_new_length@std@@8
rdata$r	SEGMENT
??_R1A@?0A@EA@bad_array_new_length@std@@8 DD FLAT:??_R0?AVbad_array_new_length@std@@@8 ; std::bad_array_new_length::`RTTI Base Class Descriptor at (0,-1,0,64)'
	DD	02H
	DD	00H
	DD	0ffffffffH
	DD	00H
	DD	040H
	DD	FLAT:??_R3bad_array_new_length@std@@8
rdata$r	ENDS
;	COMDAT ??_R2bad_array_new_length@std@@8
rdata$r	SEGMENT
??_R2bad_array_new_length@std@@8 DD FLAT:??_R1A@?0A@EA@bad_array_new_length@std@@8 ; std::bad_array_new_length::`RTTI Base Class Array'
	DD	FLAT:??_R1A@?0A@EA@bad_alloc@std@@8
	DD	FLAT:??_R1A@?0A@EA@exception@std@@8
rdata$r	ENDS
;	COMDAT ??_R3bad_array_new_length@std@@8
rdata$r	SEGMENT
??_R3bad_array_new_length@std@@8 DD 00H			; std::bad_array_new_length::`RTTI Class Hierarchy Descriptor'
	DD	00H
	DD	03H
	DD	FLAT:??_R2bad_array_new_length@std@@8
rdata$r	ENDS
;	COMDAT ??_R4bad_array_new_length@std@@6B@
rdata$r	SEGMENT
??_R4bad_array_new_length@std@@6B@ DD 00H		; std::bad_array_new_length::`RTTI Complete Object Locator'
	DD	00H
	DD	00H
	DD	FLAT:??_R0?AVbad_array_new_length@std@@@8
	DD	FLAT:??_R3bad_array_new_length@std@@8
rdata$r	ENDS
;	COMDAT ??_R1A@?0A@EA@exception@std@@8
rdata$r	SEGMENT
??_R1A@?0A@EA@exception@std@@8 DD FLAT:??_R0?AVexception@std@@@8 ; std::exception::`RTTI Base Class Descriptor at (0,-1,0,64)'
	DD	00H
	DD	00H
	DD	0ffffffffH
	DD	00H
	DD	040H
	DD	FLAT:??_R3exception@std@@8
rdata$r	ENDS
;	COMDAT ??_R2exception@std@@8
rdata$r	SEGMENT
??_R2exception@std@@8 DD FLAT:??_R1A@?0A@EA@exception@std@@8 ; std::exception::`RTTI Base Class Array'
rdata$r	ENDS
;	COMDAT ??_R3exception@std@@8
rdata$r	SEGMENT
??_R3exception@std@@8 DD 00H				; std::exception::`RTTI Class Hierarchy Descriptor'
	DD	00H
	DD	01H
	DD	FLAT:??_R2exception@std@@8
rdata$r	ENDS
;	COMDAT ??_R4exception@std@@6B@
rdata$r	SEGMENT
??_R4exception@std@@6B@ DD 00H				; std::exception::`RTTI Complete Object Locator'
	DD	00H
	DD	00H
	DD	FLAT:??_R0?AVexception@std@@@8
	DD	FLAT:??_R3exception@std@@8
rdata$r	ENDS
;	COMDAT ??_C@_0BA@JFNIOLAK@string?5too?5long@
CONST	SEGMENT
??_C@_0BA@JFNIOLAK@string?5too?5long@ DB 'string too long', 00H ; `string'
CONST	ENDS
;	COMDAT __CT??_R0?AVbad_alloc@std@@@8??0bad_alloc@std@@QAE@ABV01@@Z12
xdata$x	SEGMENT
__CT??_R0?AVbad_alloc@std@@@8??0bad_alloc@std@@QAE@ABV01@@Z12 DD 010H
	DD	FLAT:??_R0?AVbad_alloc@std@@@8
	DD	00H
	DD	0ffffffffH
	ORG $+4
	DD	0cH
	DD	FLAT:??0bad_alloc@std@@QAE@ABV01@@Z
xdata$x	ENDS
;	COMDAT ??_R0?AVbad_alloc@std@@@8
data$r	SEGMENT
??_R0?AVbad_alloc@std@@@8 DD FLAT:??_7type_info@@6B@	; std::bad_alloc `RTTI Type Descriptor'
	DD	00H
	DB	'.?AVbad_alloc@std@@', 00H
data$r	ENDS
;	COMDAT __CT??_R0?AVbad_array_new_length@std@@@8??0bad_array_new_length@std@@QAE@ABV01@@Z12
xdata$x	SEGMENT
__CT??_R0?AVbad_array_new_length@std@@@8??0bad_array_new_length@std@@QAE@ABV01@@Z12 DD 00H
	DD	FLAT:??_R0?AVbad_array_new_length@std@@@8
	DD	00H
	DD	0ffffffffH
	ORG $+4
	DD	0cH
	DD	FLAT:??0bad_array_new_length@std@@QAE@ABV01@@Z
xdata$x	ENDS
;	COMDAT ??_R0?AVbad_array_new_length@std@@@8
data$r	SEGMENT
??_R0?AVbad_array_new_length@std@@@8 DD FLAT:??_7type_info@@6B@ ; std::bad_array_new_length `RTTI Type Descriptor'
	DD	00H
	DB	'.?AVbad_array_new_length@std@@', 00H
data$r	ENDS
;	COMDAT __CTA3?AVbad_array_new_length@std@@
xdata$x	SEGMENT
__CTA3?AVbad_array_new_length@std@@ DD 03H
	DD	FLAT:__CT??_R0?AVbad_array_new_length@std@@@8??0bad_array_new_length@std@@QAE@ABV01@@Z12
	DD	FLAT:__CT??_R0?AVbad_alloc@std@@@8??0bad_alloc@std@@QAE@ABV01@@Z12
	DD	FLAT:__CT??_R0?AVexception@std@@@8??0exception@std@@QAE@ABV01@@Z12
xdata$x	ENDS
;	COMDAT __TI3?AVbad_array_new_length@std@@
xdata$x	SEGMENT
__TI3?AVbad_array_new_length@std@@ DD 00H
	DD	FLAT:??1bad_array_new_length@std@@UAE@XZ
	DD	00H
	DD	FLAT:__CTA3?AVbad_array_new_length@std@@
xdata$x	ENDS
;	COMDAT __CT??_R0?AVexception@std@@@8??0exception@std@@QAE@ABV01@@Z12
xdata$x	SEGMENT
__CT??_R0?AVexception@std@@@8??0exception@std@@QAE@ABV01@@Z12 DD 00H
	DD	FLAT:??_R0?AVexception@std@@@8
	DD	00H
	DD	0ffffffffH
	ORG $+4
	DD	0cH
	DD	FLAT:??0exception@std@@QAE@ABV01@@Z
xdata$x	ENDS
;	COMDAT ??_R0?AVexception@std@@@8
data$r	SEGMENT
??_R0?AVexception@std@@@8 DD FLAT:??_7type_info@@6B@	; std::exception `RTTI Type Descriptor'
	DD	00H
	DB	'.?AVexception@std@@', 00H
data$r	ENDS
;	COMDAT ??_C@_0BF@KINCDENJ@bad?5array?5new?5length@
CONST	SEGMENT
??_C@_0BF@KINCDENJ@bad?5array?5new?5length@ DB 'bad array new length', 00H ; `string'
CONST	ENDS
;	COMDAT ??_7bad_array_new_length@std@@6B@
CONST	SEGMENT
??_7bad_array_new_length@std@@6B@ DD FLAT:??_R4bad_array_new_length@std@@6B@ ; std::bad_array_new_length::`vftable'
	DD	FLAT:??_Ebad_array_new_length@std@@UAEPAXI@Z
	DD	FLAT:?what@exception@std@@UBEPBDXZ
CONST	ENDS
;	COMDAT ??_7bad_alloc@std@@6B@
CONST	SEGMENT
??_7bad_alloc@std@@6B@ DD FLAT:??_R4bad_alloc@std@@6B@	; std::bad_alloc::`vftable'
	DD	FLAT:??_Ebad_alloc@std@@UAEPAXI@Z
	DD	FLAT:?what@exception@std@@UBEPBDXZ
CONST	ENDS
;	COMDAT ??_C@_0BC@EOODALEL@Unknown?5exception@
CONST	SEGMENT
??_C@_0BC@EOODALEL@Unknown?5exception@ DB 'Unknown exception', 00H ; `string'
CONST	ENDS
;	COMDAT ??_7exception@std@@6B@
CONST	SEGMENT
??_7exception@std@@6B@ DD FLAT:??_R4exception@std@@6B@	; std::exception::`vftable'
	DD	FLAT:??_Eexception@std@@UAEPAXI@Z
	DD	FLAT:?what@exception@std@@UBEPBDXZ
CONST	ENDS
;	COMDAT xdata$x
xdata$x	SEGMENT
__unwindtable$??$_Emplace_reallocate@ABUSHyperlink@CGraphicTextInstance@@@?$vector@USHyperlink@CGraphicTextInstance@@V?$allocator@USHyperlink@CGraphicTextInstance@@@std@@@std@@AAEPAUSHyperlink@CGraphicTextInstance@@QAU23@ABU23@@Z DD 0ffffffffH
	DD	FLAT:__unwindfunclet$??$_Emplace_reallocate@ABUSHyperlink@CGraphicTextInstance@@@?$vector@USHyperlink@CGraphicTextInstance@@V?$allocator@USHyperlink@CGraphicTextInstance@@@std@@@std@@AAEPAUSHyperlink@CGraphicTextInstance@@QAU23@ABU23@@Z$0
__ehfuncinfo$??$_Emplace_reallocate@ABUSHyperlink@CGraphicTextInstance@@@?$vector@USHyperlink@CGraphicTextInstance@@V?$allocator@USHyperlink@CGraphicTextInstance@@@std@@@std@@AAEPAUSHyperlink@CGraphicTextInstance@@QAU23@ABU23@@Z DD 019930522H
	DD	01H
	DD	FLAT:__unwindtable$??$_Emplace_reallocate@ABUSHyperlink@CGraphicTextInstance@@@?$vector@USHyperlink@CGraphicTextInstance@@V?$allocator@USHyperlink@CGraphicTextInstance@@@std@@@std@@AAEPAUSHyperlink@CGraphicTextInstance@@QAU23@ABU23@@Z
	DD	2 DUP(00H)
	DD	2 DUP(00H)
	DD	00H
	DD	01H
xdata$x	ENDS
;	COMDAT xdata$x
xdata$x	SEGMENT
__unwindtable$??$?0ABQAVCGraphicTextInstance@@@?$_List_node_emplace_op2@V?$allocator@U?$_List_node@PAVCGraphicTextInstance@@PAX@std@@@std@@@std@@QAE@AAV?$allocator@U?$_List_node@PAVCGraphicTextInstance@@PAX@std@@@1@ABQAVCGraphicTextInstance@@@Z DD 0ffffffffH
	DD	FLAT:__unwindfunclet$??$?0ABQAVCGraphicTextInstance@@@?$_List_node_emplace_op2@V?$allocator@U?$_List_node@PAVCGraphicTextInstance@@PAX@std@@@std@@@std@@QAE@AAV?$allocator@U?$_List_node@PAVCGraphicTextInstance@@PAX@std@@@1@ABQAVCGraphicTextInstance@@@Z$0
__ehfuncinfo$??$?0ABQAVCGraphicTextInstance@@@?$_List_node_emplace_op2@V?$allocator@U?$_List_node@PAVCGraphicTextInstance@@PAX@std@@@std@@@std@@QAE@AAV?$allocator@U?$_List_node@PAVCGraphicTextInstance@@PAX@std@@@1@ABQAVCGraphicTextInstance@@@Z DD 019930522H
	DD	01H
	DD	FLAT:__unwindtable$??$?0ABQAVCGraphicTextInstance@@@?$_List_node_emplace_op2@V?$allocator@U?$_List_node@PAVCGraphicTextInstance@@PAX@std@@@std@@@std@@QAE@AAV?$allocator@U?$_List_node@PAVCGraphicTextInstance@@PAX@std@@@1@ABQAVCGraphicTextInstance@@@Z
	DD	2 DUP(00H)
	DD	2 DUP(00H)
	DD	00H
	DD	01H
xdata$x	ENDS
;	COMDAT xdata$x
xdata$x	SEGMENT
__unwindtable$??$_Emplace@ABQAVCGraphicTextInstance@@@?$list@PAVCGraphicTextInstance@@V?$allocator@PAVCGraphicTextInstance@@@std@@@std@@QAEPAU?$_List_node@PAVCGraphicTextInstance@@PAX@1@QAU21@ABQAVCGraphicTextInstance@@@Z DD 0ffffffffH
	DD	FLAT:__unwindfunclet$??$_Emplace@ABQAVCGraphicTextInstance@@@?$list@PAVCGraphicTextInstance@@V?$allocator@PAVCGraphicTextInstance@@@std@@@std@@QAEPAU?$_List_node@PAVCGraphicTextInstance@@PAX@1@QAU21@ABQAVCGraphicTextInstance@@@Z$1
__ehfuncinfo$??$_Emplace@ABQAVCGraphicTextInstance@@@?$list@PAVCGraphicTextInstance@@V?$allocator@PAVCGraphicTextInstance@@@std@@@std@@QAEPAU?$_List_node@PAVCGraphicTextInstance@@PAX@1@QAU21@ABQAVCGraphicTextInstance@@@Z DD 019930522H
	DD	01H
	DD	FLAT:__unwindtable$??$_Emplace@ABQAVCGraphicTextInstance@@@?$list@PAVCGraphicTextInstance@@V?$allocator@PAVCGraphicTextInstance@@@std@@@std@@QAEPAU?$_List_node@PAVCGraphicTextInstance@@PAX@1@QAU21@ABQAVCGraphicTextInstance@@@Z
	DD	2 DUP(00H)
	DD	2 DUP(00H)
	DD	00H
	DD	01H
xdata$x	ENDS
;	COMDAT xdata$x
xdata$x	SEGMENT
__unwindtable$?__GraphicTextInstancesList@@YAXPAVCGraphicTextInstance@@_N@Z DD 0ffffffffH
	DD	FLAT:__unwindfunclet$?__GraphicTextInstancesList@@YAXPAVCGraphicTextInstance@@_N@Z$1
__ehfuncinfo$?__GraphicTextInstancesList@@YAXPAVCGraphicTextInstance@@_N@Z DD 019930522H
	DD	01H
	DD	FLAT:__unwindtable$?__GraphicTextInstancesList@@YAXPAVCGraphicTextInstance@@_N@Z
	DD	2 DUP(00H)
	DD	2 DUP(00H)
	DD	00H
	DD	01H
xdata$x	ENDS
;	COMDAT xdata$x
xdata$x	SEGMENT
__unwindtable$?push_back@?$list@PAVCGraphicTextInstance@@V?$allocator@PAVCGraphicTextInstance@@@std@@@std@@QAEXABQAVCGraphicTextInstance@@@Z DD 0ffffffffH
	DD	FLAT:__unwindfunclet$?push_back@?$list@PAVCGraphicTextInstance@@V?$allocator@PAVCGraphicTextInstance@@@std@@@std@@QAEXABQAVCGraphicTextInstance@@@Z$1
__ehfuncinfo$?push_back@?$list@PAVCGraphicTextInstance@@V?$allocator@PAVCGraphicTextInstance@@@std@@@std@@QAEXABQAVCGraphicTextInstance@@@Z DD 019930522H
	DD	01H
	DD	FLAT:__unwindtable$?push_back@?$list@PAVCGraphicTextInstance@@V?$allocator@PAVCGraphicTextInstance@@@std@@@std@@QAEXABQAVCGraphicTextInstance@@@Z
	DD	2 DUP(00H)
	DD	2 DUP(00H)
	DD	00H
	DD	01H
xdata$x	ENDS
;	COMDAT xdata$x
xdata$x	SEGMENT
__unwindtable$?Alloc@?$CDynamicPool@VCGraphicTextInstance@@@@QAEPAVCGraphicTextInstance@@XZ DD 0ffffffffH
	DD	FLAT:__unwindfunclet$?Alloc@?$CDynamicPool@VCGraphicTextInstance@@@@QAEPAVCGraphicTextInstance@@XZ$0
__ehfuncinfo$?Alloc@?$CDynamicPool@VCGraphicTextInstance@@@@QAEPAVCGraphicTextInstance@@XZ DD 019930522H
	DD	01H
	DD	FLAT:__unwindtable$?Alloc@?$CDynamicPool@VCGraphicTextInstance@@@@QAEPAVCGraphicTextInstance@@XZ
	DD	2 DUP(00H)
	DD	2 DUP(00H)
	DD	00H
	DD	01H
xdata$x	ENDS
;	COMDAT xdata$x
xdata$x	SEGMENT
__unwindtable$?New@CGraphicTextInstance@@SAPAV1@XZ DD 0ffffffffH
	DD	FLAT:__unwindfunclet$?New@CGraphicTextInstance@@SAPAV1@XZ$0
__ehfuncinfo$?New@CGraphicTextInstance@@SAPAV1@XZ DD 019930522H
	DD	01H
	DD	FLAT:__unwindtable$?New@CGraphicTextInstance@@SAPAV1@XZ
	DD	2 DUP(00H)
	DD	2 DUP(00H)
	DD	00H
	DD	01H
xdata$x	ENDS
;	COMDAT xdata$x
xdata$x	SEGMENT
__ehfuncinfo$??1?$CRef@VCGraphicText@@@@QAE@XZ DD 019930522H
	DD	00H
	DD	00H
	DD	2 DUP(00H)
	DD	2 DUP(00H)
	DD	00H
	DD	05H
xdata$x	ENDS
;	COMDAT xdata$x
xdata$x	SEGMENT
__ehfuncinfo$?Update@CGraphicTextInstance@@QAEXXZ DD 019930522H
	DD	05H
	DD	FLAT:__unwindtable$?Update@CGraphicTextInstance@@QAEXXZ
	DD	2 DUP(00H)
	DD	2 DUP(00H)
	DD	00H
	DD	01H
__unwindtable$?Update@CGraphicTextInstance@@QAEXXZ DD 0ffffffffH
	DD	FLAT:__unwindfunclet$?Update@CGraphicTextInstance@@QAEXXZ$0
	DD	00H
	DD	FLAT:__unwindfunclet$?Update@CGraphicTextInstance@@QAEXXZ$1
	DD	0ffffffffH
	DD	FLAT:__unwindfunclet$?Update@CGraphicTextInstance@@QAEXXZ$2
	DD	02H
	DD	FLAT:__unwindfunclet$?Update@CGraphicTextInstance@@QAEXXZ$3
	DD	03H
	DD	FLAT:__unwindfunclet$?Update@CGraphicTextInstance@@QAEXXZ$4
xdata$x	ENDS
;	COMDAT xdata$x
xdata$x	SEGMENT
__unwindtable$??1CGraphicTextInstance@@UAE@XZ DD 0ffffffffH
	DD	FLAT:___std_terminate
__ehfuncinfo$??1CGraphicTextInstance@@UAE@XZ DD 019930522H
	DD	01H
	DD	FLAT:__unwindtable$??1CGraphicTextInstance@@UAE@XZ
	DD	2 DUP(00H)
	DD	2 DUP(00H)
	DD	00H
	DD	05H
xdata$x	ENDS
;	COMDAT xdata$x
xdata$x	SEGMENT
__ehfuncinfo$??0CGraphicTextInstance@@QAE@XZ DD 019930522H
	DD	06H
	DD	FLAT:__unwindtable$??0CGraphicTextInstance@@QAE@XZ
	DD	2 DUP(00H)
	DD	2 DUP(00H)
	DD	00H
	DD	01H
__unwindtable$??0CGraphicTextInstance@@QAE@XZ DD 0ffffffffH
	DD	FLAT:__unwindfunclet$??0CGraphicTextInstance@@QAE@XZ$0
	DD	00H
	DD	FLAT:__unwindfunclet$??0CGraphicTextInstance@@QAE@XZ$1
	DD	01H
	DD	FLAT:__unwindfunclet$??0CGraphicTextInstance@@QAE@XZ$2
	DD	02H
	DD	FLAT:__unwindfunclet$??0CGraphicTextInstance@@QAE@XZ$3
	DD	03H
	DD	FLAT:__unwindfunclet$??0CGraphicTextInstance@@QAE@XZ$4
	DD	04H
	DD	FLAT:__unwindfunclet$??0CGraphicTextInstance@@QAE@XZ$5
xdata$x	ENDS
CRT$XCU	SEGMENT
?gs_hyperlinkText$initializer$@@3P6AXXZA DD FLAT:??__Egs_hyperlinkText@@YAXXZ ; gs_hyperlinkText$initializer$
CRT$XCU	ENDS
CRT$XCU	SEGMENT
?GraphicTextInstances$initializer$@@3P6AXXZA DD FLAT:??__EGraphicTextInstances@@YAXXZ ; GraphicTextInstances$initializer$
CRT$XCU	ENDS
; Function compile flags: /Ogtp
; File D:\Program Files\Microsoft Visual Studio\2022\Community\VC\Tools\MSVC\14.43.34808\include\xutility
;	COMDAT ??$_Copy_memmove_tail@PAPAUSCharacterInfomation@CGraphicFontTexture@@@std@@YAPAPAUSCharacterInfomation@CGraphicFontTexture@@QBDQAPAU12@II@Z
_TEXT	SEGMENT
__First_ch$ = 8						; size = 4
__Dest$ = 12						; size = 4
__Byte_count$ = 16					; size = 4
__Object_count$ = 20					; size = 4
??$_Copy_memmove_tail@PAPAUSCharacterInfomation@CGraphicFontTexture@@@std@@YAPAPAUSCharacterInfomation@CGraphicFontTexture@@QBDQAPAU12@II@Z PROC ; std::_Copy_memmove_tail<CGraphicFontTexture::SCharacterInfomation * *>, COMDAT

; 4763 :     const char* const _First_ch, const _OutCtgIt _Dest, const size_t _Byte_count, const size_t _Object_count) {

  00000	55		 push	 ebp
  00001	8b ec		 mov	 ebp, esp
  00003	56		 push	 esi

; 4764 :     _STL_INTERNAL_CHECK(_Byte_count == _Object_count * sizeof(*_Dest));
; 4765 :     const auto _Dest_ptr = _STD _To_address(_Dest);
; 4766 :     const auto _Dest_ch  = const_cast<char*>(reinterpret_cast<const volatile char*>(_Dest_ptr));
; 4767 :     _CSTD memmove(_Dest_ch, _First_ch, _Byte_count);

  00004	8b 75 0c	 mov	 esi, DWORD PTR __Dest$[ebp]
  00007	57		 push	 edi
  00008	8b 7d 10	 mov	 edi, DWORD PTR __Byte_count$[ebp]
  0000b	57		 push	 edi
  0000c	ff 75 08	 push	 DWORD PTR __First_ch$[ebp]
  0000f	56		 push	 esi
  00010	e8 00 00 00 00	 call	 _memmove
  00015	83 c4 0c	 add	 esp, 12			; 0000000cH

; 4768 :     if constexpr (is_pointer_v<_OutCtgIt>) {
; 4769 :         (void) _Object_count;
; 4770 :         // CodeQL [SM02986] This cast is correct: we're bypassing pointer arithmetic for performance.
; 4771 :         return reinterpret_cast<_OutCtgIt>(_Dest_ch + _Byte_count);

  00018	8d 04 3e	 lea	 eax, DWORD PTR [esi+edi]
  0001b	5f		 pop	 edi
  0001c	5e		 pop	 esi

; 4772 :     } else {
; 4773 :         return _Dest + static_cast<_Iter_diff_t<_OutCtgIt>>(_Object_count);
; 4774 :     }
; 4775 : }

  0001d	5d		 pop	 ebp
  0001e	c3		 ret	 0
??$_Copy_memmove_tail@PAPAUSCharacterInfomation@CGraphicFontTexture@@@std@@YAPAPAUSCharacterInfomation@CGraphicFontTexture@@QBDQAPAU12@II@Z ENDP ; std::_Copy_memmove_tail<CGraphicFontTexture::SCharacterInfomation * *>
_TEXT	ENDS
; Function compile flags: /Ogtp
; File D:\Program Files\Microsoft Visual Studio\2022\Community\VC\Tools\MSVC\14.43.34808\include\xutility
;	COMDAT ??$_Copy_memmove_tail@PAK@std@@YAPAKQBDQAKII@Z
_TEXT	SEGMENT
__First_ch$ = 8						; size = 4
__Dest$ = 12						; size = 4
__Byte_count$ = 16					; size = 4
__Object_count$ = 20					; size = 4
??$_Copy_memmove_tail@PAK@std@@YAPAKQBDQAKII@Z PROC	; std::_Copy_memmove_tail<unsigned long *>, COMDAT

; 4763 :     const char* const _First_ch, const _OutCtgIt _Dest, const size_t _Byte_count, const size_t _Object_count) {

  00000	55		 push	 ebp
  00001	8b ec		 mov	 ebp, esp
  00003	56		 push	 esi

; 4764 :     _STL_INTERNAL_CHECK(_Byte_count == _Object_count * sizeof(*_Dest));
; 4765 :     const auto _Dest_ptr = _STD _To_address(_Dest);
; 4766 :     const auto _Dest_ch  = const_cast<char*>(reinterpret_cast<const volatile char*>(_Dest_ptr));
; 4767 :     _CSTD memmove(_Dest_ch, _First_ch, _Byte_count);

  00004	8b 75 0c	 mov	 esi, DWORD PTR __Dest$[ebp]
  00007	57		 push	 edi
  00008	8b 7d 10	 mov	 edi, DWORD PTR __Byte_count$[ebp]
  0000b	57		 push	 edi
  0000c	ff 75 08	 push	 DWORD PTR __First_ch$[ebp]
  0000f	56		 push	 esi
  00010	e8 00 00 00 00	 call	 _memmove
  00015	83 c4 0c	 add	 esp, 12			; 0000000cH

; 4768 :     if constexpr (is_pointer_v<_OutCtgIt>) {
; 4769 :         (void) _Object_count;
; 4770 :         // CodeQL [SM02986] This cast is correct: we're bypassing pointer arithmetic for performance.
; 4771 :         return reinterpret_cast<_OutCtgIt>(_Dest_ch + _Byte_count);

  00018	8d 04 3e	 lea	 eax, DWORD PTR [esi+edi]
  0001b	5f		 pop	 edi
  0001c	5e		 pop	 esi

; 4772 :     } else {
; 4773 :         return _Dest + static_cast<_Iter_diff_t<_OutCtgIt>>(_Object_count);
; 4774 :     }
; 4775 : }

  0001d	5d		 pop	 ebp
  0001e	c3		 ret	 0
??$_Copy_memmove_tail@PAK@std@@YAPAKQBDQAKII@Z ENDP	; std::_Copy_memmove_tail<unsigned long *>
_TEXT	ENDS
; Function compile flags: /Ogtp
; File D:\Program Files\Microsoft Visual Studio\2022\Community\VC\Tools\MSVC\14.43.34808\include\xutility
;	COMDAT ??$_Copy_memmove_tail@PAUSEmoji@CGraphicTextInstance@@@std@@YAPAUSEmoji@CGraphicTextInstance@@QBDQAU12@II@Z
_TEXT	SEGMENT
__First_ch$ = 8						; size = 4
__Dest$ = 12						; size = 4
__Byte_count$ = 16					; size = 4
__Object_count$ = 20					; size = 4
??$_Copy_memmove_tail@PAUSEmoji@CGraphicTextInstance@@@std@@YAPAUSEmoji@CGraphicTextInstance@@QBDQAU12@II@Z PROC ; std::_Copy_memmove_tail<CGraphicTextInstance::SEmoji *>, COMDAT

; 4763 :     const char* const _First_ch, const _OutCtgIt _Dest, const size_t _Byte_count, const size_t _Object_count) {

  00000	55		 push	 ebp
  00001	8b ec		 mov	 ebp, esp
  00003	56		 push	 esi

; 4764 :     _STL_INTERNAL_CHECK(_Byte_count == _Object_count * sizeof(*_Dest));
; 4765 :     const auto _Dest_ptr = _STD _To_address(_Dest);
; 4766 :     const auto _Dest_ch  = const_cast<char*>(reinterpret_cast<const volatile char*>(_Dest_ptr));
; 4767 :     _CSTD memmove(_Dest_ch, _First_ch, _Byte_count);

  00004	8b 75 0c	 mov	 esi, DWORD PTR __Dest$[ebp]
  00007	57		 push	 edi
  00008	8b 7d 10	 mov	 edi, DWORD PTR __Byte_count$[ebp]
  0000b	57		 push	 edi
  0000c	ff 75 08	 push	 DWORD PTR __First_ch$[ebp]
  0000f	56		 push	 esi
  00010	e8 00 00 00 00	 call	 _memmove
  00015	83 c4 0c	 add	 esp, 12			; 0000000cH

; 4768 :     if constexpr (is_pointer_v<_OutCtgIt>) {
; 4769 :         (void) _Object_count;
; 4770 :         // CodeQL [SM02986] This cast is correct: we're bypassing pointer arithmetic for performance.
; 4771 :         return reinterpret_cast<_OutCtgIt>(_Dest_ch + _Byte_count);

  00018	8d 04 3e	 lea	 eax, DWORD PTR [esi+edi]
  0001b	5f		 pop	 edi
  0001c	5e		 pop	 esi

; 4772 :     } else {
; 4773 :         return _Dest + static_cast<_Iter_diff_t<_OutCtgIt>>(_Object_count);
; 4774 :     }
; 4775 : }

  0001d	5d		 pop	 ebp
  0001e	c3		 ret	 0
??$_Copy_memmove_tail@PAUSEmoji@CGraphicTextInstance@@@std@@YAPAUSEmoji@CGraphicTextInstance@@QBDQAU12@II@Z ENDP ; std::_Copy_memmove_tail<CGraphicTextInstance::SEmoji *>
_TEXT	ENDS
; Function compile flags: /Ogtp
; File D:\Program Files\Microsoft Visual Studio\2022\Community\VC\Tools\MSVC\14.43.34808\include\xutility
;	COMDAT ??$_Copy_memmove_tail@PAPAVCGraphicTextInstance@@@std@@YAPAPAVCGraphicTextInstance@@QBDQAPAV1@II@Z
_TEXT	SEGMENT
__First_ch$ = 8						; size = 4
__Dest$ = 12						; size = 4
__Byte_count$ = 16					; size = 4
__Object_count$ = 20					; size = 4
??$_Copy_memmove_tail@PAPAVCGraphicTextInstance@@@std@@YAPAPAVCGraphicTextInstance@@QBDQAPAV1@II@Z PROC ; std::_Copy_memmove_tail<CGraphicTextInstance * *>, COMDAT

; 4763 :     const char* const _First_ch, const _OutCtgIt _Dest, const size_t _Byte_count, const size_t _Object_count) {

  00000	55		 push	 ebp
  00001	8b ec		 mov	 ebp, esp
  00003	56		 push	 esi

; 4764 :     _STL_INTERNAL_CHECK(_Byte_count == _Object_count * sizeof(*_Dest));
; 4765 :     const auto _Dest_ptr = _STD _To_address(_Dest);
; 4766 :     const auto _Dest_ch  = const_cast<char*>(reinterpret_cast<const volatile char*>(_Dest_ptr));
; 4767 :     _CSTD memmove(_Dest_ch, _First_ch, _Byte_count);

  00004	8b 75 0c	 mov	 esi, DWORD PTR __Dest$[ebp]
  00007	57		 push	 edi
  00008	8b 7d 10	 mov	 edi, DWORD PTR __Byte_count$[ebp]
  0000b	57		 push	 edi
  0000c	ff 75 08	 push	 DWORD PTR __First_ch$[ebp]
  0000f	56		 push	 esi
  00010	e8 00 00 00 00	 call	 _memmove
  00015	83 c4 0c	 add	 esp, 12			; 0000000cH

; 4768 :     if constexpr (is_pointer_v<_OutCtgIt>) {
; 4769 :         (void) _Object_count;
; 4770 :         // CodeQL [SM02986] This cast is correct: we're bypassing pointer arithmetic for performance.
; 4771 :         return reinterpret_cast<_OutCtgIt>(_Dest_ch + _Byte_count);

  00018	8d 04 3e	 lea	 eax, DWORD PTR [esi+edi]
  0001b	5f		 pop	 edi
  0001c	5e		 pop	 esi

; 4772 :     } else {
; 4773 :         return _Dest + static_cast<_Iter_diff_t<_OutCtgIt>>(_Object_count);
; 4774 :     }
; 4775 : }

  0001d	5d		 pop	 ebp
  0001e	c3		 ret	 0
??$_Copy_memmove_tail@PAPAVCGraphicTextInstance@@@std@@YAPAPAVCGraphicTextInstance@@QBDQAPAV1@II@Z ENDP ; std::_Copy_memmove_tail<CGraphicTextInstance * *>
_TEXT	ENDS
; Function compile flags: /Ogtp
; File D:\Program Files\Microsoft Visual Studio\2022\Community\VC\Tools\MSVC\14.43.34808\include\xutility
;	COMDAT ??$_Copy_memmove@PAPAUSCharacterInfomation@CGraphicFontTexture@@PAPAU12@@std@@YAPAPAUSCharacterInfomation@CGraphicFontTexture@@PAPAU12@00@Z
_TEXT	SEGMENT
__First$ = 8						; size = 4
__Last$ = 12						; size = 4
__Dest$ = 16						; size = 4
??$_Copy_memmove@PAPAUSCharacterInfomation@CGraphicFontTexture@@PAPAU12@@std@@YAPAPAUSCharacterInfomation@CGraphicFontTexture@@PAPAU12@00@Z PROC ; std::_Copy_memmove<CGraphicFontTexture::SCharacterInfomation * *,CGraphicFontTexture::SCharacterInfomation * *>, COMDAT

; 4778 : _OutCtgIt _Copy_memmove(_CtgIt _First, _CtgIt _Last, _OutCtgIt _Dest) {

  00000	55		 push	 ebp
  00001	8b ec		 mov	 ebp, esp

; 4779 :     _STL_INTERNAL_CHECK(_First <= _Last);
; 4780 :     const auto _First_ptr    = _STD _To_address(_First);
; 4781 :     const auto _Last_ptr     = _STD _To_address(_Last);
; 4782 :     const auto _Object_count = static_cast<size_t>(_Last_ptr - _First_ptr);

  00003	8b 55 08	 mov	 edx, DWORD PTR __First$[ebp]
  00006	8b 4d 0c	 mov	 ecx, DWORD PTR __Last$[ebp]
  00009	2b ca		 sub	 ecx, edx
  0000b	8b c1		 mov	 eax, ecx
  0000d	c1 f8 02	 sar	 eax, 2

; 4783 :     const auto _First_ch     = const_cast<const char*>(reinterpret_cast<const volatile char*>(_First_ptr));
; 4784 :     const auto _Last_ch      = const_cast<const char*>(reinterpret_cast<const volatile char*>(_Last_ptr));
; 4785 :     const auto _Byte_count   = static_cast<size_t>(_Last_ch - _First_ch);
; 4786 :     return _STD _Copy_memmove_tail(_First_ch, _STD move(_Dest), _Byte_count, _Object_count);

  00010	50		 push	 eax
  00011	51		 push	 ecx
  00012	ff 75 10	 push	 DWORD PTR __Dest$[ebp]
  00015	52		 push	 edx
  00016	e8 00 00 00 00	 call	 ??$_Copy_memmove_tail@PAPAUSCharacterInfomation@CGraphicFontTexture@@@std@@YAPAPAUSCharacterInfomation@CGraphicFontTexture@@QBDQAPAU12@II@Z ; std::_Copy_memmove_tail<CGraphicFontTexture::SCharacterInfomation * *>
  0001b	83 c4 10	 add	 esp, 16			; 00000010H

; 4787 : }

  0001e	5d		 pop	 ebp
  0001f	c3		 ret	 0
??$_Copy_memmove@PAPAUSCharacterInfomation@CGraphicFontTexture@@PAPAU12@@std@@YAPAPAUSCharacterInfomation@CGraphicFontTexture@@PAPAU12@00@Z ENDP ; std::_Copy_memmove<CGraphicFontTexture::SCharacterInfomation * *,CGraphicFontTexture::SCharacterInfomation * *>
_TEXT	ENDS
; Function compile flags: /Ogtp
; File D:\Program Files\Microsoft Visual Studio\2022\Community\VC\Tools\MSVC\14.43.34808\include\xutility
;	COMDAT ??$_Copy_memmove@PAKPAK@std@@YAPAKPAK00@Z
_TEXT	SEGMENT
__First$ = 8						; size = 4
__Last$ = 12						; size = 4
__Dest$ = 16						; size = 4
??$_Copy_memmove@PAKPAK@std@@YAPAKPAK00@Z PROC		; std::_Copy_memmove<unsigned long *,unsigned long *>, COMDAT

; 4778 : _OutCtgIt _Copy_memmove(_CtgIt _First, _CtgIt _Last, _OutCtgIt _Dest) {

  00000	55		 push	 ebp
  00001	8b ec		 mov	 ebp, esp

; 4779 :     _STL_INTERNAL_CHECK(_First <= _Last);
; 4780 :     const auto _First_ptr    = _STD _To_address(_First);
; 4781 :     const auto _Last_ptr     = _STD _To_address(_Last);
; 4782 :     const auto _Object_count = static_cast<size_t>(_Last_ptr - _First_ptr);

  00003	8b 55 08	 mov	 edx, DWORD PTR __First$[ebp]
  00006	8b 4d 0c	 mov	 ecx, DWORD PTR __Last$[ebp]
  00009	2b ca		 sub	 ecx, edx
  0000b	8b c1		 mov	 eax, ecx
  0000d	c1 f8 02	 sar	 eax, 2

; 4783 :     const auto _First_ch     = const_cast<const char*>(reinterpret_cast<const volatile char*>(_First_ptr));
; 4784 :     const auto _Last_ch      = const_cast<const char*>(reinterpret_cast<const volatile char*>(_Last_ptr));
; 4785 :     const auto _Byte_count   = static_cast<size_t>(_Last_ch - _First_ch);
; 4786 :     return _STD _Copy_memmove_tail(_First_ch, _STD move(_Dest), _Byte_count, _Object_count);

  00010	50		 push	 eax
  00011	51		 push	 ecx
  00012	ff 75 10	 push	 DWORD PTR __Dest$[ebp]
  00015	52		 push	 edx
  00016	e8 00 00 00 00	 call	 ??$_Copy_memmove_tail@PAK@std@@YAPAKQBDQAKII@Z ; std::_Copy_memmove_tail<unsigned long *>
  0001b	83 c4 10	 add	 esp, 16			; 00000010H

; 4787 : }

  0001e	5d		 pop	 ebp
  0001f	c3		 ret	 0
??$_Copy_memmove@PAKPAK@std@@YAPAKPAK00@Z ENDP		; std::_Copy_memmove<unsigned long *,unsigned long *>
_TEXT	ENDS
; Function compile flags: /Ogtp
; File D:\Program Files\Microsoft Visual Studio\2022\Community\VC\Tools\MSVC\14.43.34808\include\xutility
;	COMDAT ??$_Copy_memmove@PAUSEmoji@CGraphicTextInstance@@PAU12@@std@@YAPAUSEmoji@CGraphicTextInstance@@PAU12@00@Z
_TEXT	SEGMENT
__First$ = 8						; size = 4
__Last$ = 12						; size = 4
__Dest$ = 16						; size = 4
??$_Copy_memmove@PAUSEmoji@CGraphicTextInstance@@PAU12@@std@@YAPAUSEmoji@CGraphicTextInstance@@PAU12@00@Z PROC ; std::_Copy_memmove<CGraphicTextInstance::SEmoji *,CGraphicTextInstance::SEmoji *>, COMDAT

; 4778 : _OutCtgIt _Copy_memmove(_CtgIt _First, _CtgIt _Last, _OutCtgIt _Dest) {

  00000	55		 push	 ebp
  00001	8b ec		 mov	 ebp, esp

; 4779 :     _STL_INTERNAL_CHECK(_First <= _Last);
; 4780 :     const auto _First_ptr    = _STD _To_address(_First);
; 4781 :     const auto _Last_ptr     = _STD _To_address(_Last);
; 4782 :     const auto _Object_count = static_cast<size_t>(_Last_ptr - _First_ptr);

  00003	8b 55 08	 mov	 edx, DWORD PTR __First$[ebp]
  00006	8b 4d 0c	 mov	 ecx, DWORD PTR __Last$[ebp]
  00009	2b ca		 sub	 ecx, edx
  0000b	8b c1		 mov	 eax, ecx
  0000d	c1 f8 03	 sar	 eax, 3

; 4783 :     const auto _First_ch     = const_cast<const char*>(reinterpret_cast<const volatile char*>(_First_ptr));
; 4784 :     const auto _Last_ch      = const_cast<const char*>(reinterpret_cast<const volatile char*>(_Last_ptr));
; 4785 :     const auto _Byte_count   = static_cast<size_t>(_Last_ch - _First_ch);
; 4786 :     return _STD _Copy_memmove_tail(_First_ch, _STD move(_Dest), _Byte_count, _Object_count);

  00010	50		 push	 eax
  00011	51		 push	 ecx
  00012	ff 75 10	 push	 DWORD PTR __Dest$[ebp]
  00015	52		 push	 edx
  00016	e8 00 00 00 00	 call	 ??$_Copy_memmove_tail@PAUSEmoji@CGraphicTextInstance@@@std@@YAPAUSEmoji@CGraphicTextInstance@@QBDQAU12@II@Z ; std::_Copy_memmove_tail<CGraphicTextInstance::SEmoji *>
  0001b	83 c4 10	 add	 esp, 16			; 00000010H

; 4787 : }

  0001e	5d		 pop	 ebp
  0001f	c3		 ret	 0
??$_Copy_memmove@PAUSEmoji@CGraphicTextInstance@@PAU12@@std@@YAPAUSEmoji@CGraphicTextInstance@@PAU12@00@Z ENDP ; std::_Copy_memmove<CGraphicTextInstance::SEmoji *,CGraphicTextInstance::SEmoji *>
_TEXT	ENDS
; Function compile flags: /Ogtp
; File D:\Program Files\Microsoft Visual Studio\2022\Community\VC\Tools\MSVC\14.43.34808\include\xutility
;	COMDAT ??$_Copy_memmove@PAPAVCGraphicTextInstance@@PAPAV1@@std@@YAPAPAVCGraphicTextInstance@@PAPAV1@00@Z
_TEXT	SEGMENT
__First$ = 8						; size = 4
__Last$ = 12						; size = 4
__Dest$ = 16						; size = 4
??$_Copy_memmove@PAPAVCGraphicTextInstance@@PAPAV1@@std@@YAPAPAVCGraphicTextInstance@@PAPAV1@00@Z PROC ; std::_Copy_memmove<CGraphicTextInstance * *,CGraphicTextInstance * *>, COMDAT

; 4778 : _OutCtgIt _Copy_memmove(_CtgIt _First, _CtgIt _Last, _OutCtgIt _Dest) {

  00000	55		 push	 ebp
  00001	8b ec		 mov	 ebp, esp

; 4779 :     _STL_INTERNAL_CHECK(_First <= _Last);
; 4780 :     const auto _First_ptr    = _STD _To_address(_First);
; 4781 :     const auto _Last_ptr     = _STD _To_address(_Last);
; 4782 :     const auto _Object_count = static_cast<size_t>(_Last_ptr - _First_ptr);

  00003	8b 55 08	 mov	 edx, DWORD PTR __First$[ebp]
  00006	8b 4d 0c	 mov	 ecx, DWORD PTR __Last$[ebp]
  00009	2b ca		 sub	 ecx, edx
  0000b	8b c1		 mov	 eax, ecx
  0000d	c1 f8 02	 sar	 eax, 2

; 4783 :     const auto _First_ch     = const_cast<const char*>(reinterpret_cast<const volatile char*>(_First_ptr));
; 4784 :     const auto _Last_ch      = const_cast<const char*>(reinterpret_cast<const volatile char*>(_Last_ptr));
; 4785 :     const auto _Byte_count   = static_cast<size_t>(_Last_ch - _First_ch);
; 4786 :     return _STD _Copy_memmove_tail(_First_ch, _STD move(_Dest), _Byte_count, _Object_count);

  00010	50		 push	 eax
  00011	51		 push	 ecx
  00012	ff 75 10	 push	 DWORD PTR __Dest$[ebp]
  00015	52		 push	 edx
  00016	e8 00 00 00 00	 call	 ??$_Copy_memmove_tail@PAPAVCGraphicTextInstance@@@std@@YAPAPAVCGraphicTextInstance@@QBDQAPAV1@II@Z ; std::_Copy_memmove_tail<CGraphicTextInstance * *>
  0001b	83 c4 10	 add	 esp, 16			; 00000010H

; 4787 : }

  0001e	5d		 pop	 ebp
  0001f	c3		 ret	 0
??$_Copy_memmove@PAPAVCGraphicTextInstance@@PAPAV1@@std@@YAPAPAVCGraphicTextInstance@@PAPAV1@00@Z ENDP ; std::_Copy_memmove<CGraphicTextInstance * *,CGraphicTextInstance * *>
_TEXT	ENDS
; Function compile flags: /Ogtp
; File D:\Program Files\Microsoft Visual Studio\2022\Community\VC\Tools\MSVC\14.43.34808\include\xmemory
; File D:\Program Files\Microsoft Visual Studio\2022\Community\VC\Tools\MSVC\14.43.34808\include\xstring
; File D:\Program Files\Microsoft Visual Studio\2022\Community\VC\Tools\MSVC\14.43.34808\include\xmemory
; File D:\Program Files\Microsoft Visual Studio\2022\Community\VC\Tools\MSVC\14.43.34808\include\xstring
; File D:\Program Files\Microsoft Visual Studio\2022\Community\VC\Tools\MSVC\14.43.34808\include\xmemory
;	COMDAT ??$_Uninitialized_move@PAUSHyperlink@CGraphicTextInstance@@V?$allocator@USHyperlink@CGraphicTextInstance@@@std@@@std@@YAPAUSHyperlink@CGraphicTextInstance@@QAU12@0PAU12@AAV?$allocator@USHyperlink@CGraphicTextInstance@@@0@@Z
_TEXT	SEGMENT
__First$ = 8						; size = 4
__Last$ = 12						; size = 4
__Dest$ = 16						; size = 4
__Al$ = 20						; size = 4
??$_Uninitialized_move@PAUSHyperlink@CGraphicTextInstance@@V?$allocator@USHyperlink@CGraphicTextInstance@@@std@@@std@@YAPAUSHyperlink@CGraphicTextInstance@@QAU12@0PAU12@AAV?$allocator@USHyperlink@CGraphicTextInstance@@@0@@Z PROC ; std::_Uninitialized_move<CGraphicTextInstance::SHyperlink *,std::allocator<CGraphicTextInstance::SHyperlink> >, COMDAT

; 1940 :     const _InIt _First, const _InIt _Last, _Alloc_ptr_t<_Alloc> _Dest, _Alloc& _Al) {

  00000	55		 push	 ebp
  00001	8b ec		 mov	 ebp, esp

; 1961 :     for (; _UFirst != _ULast; ++_UFirst) {

  00003	8b 45 08	 mov	 eax, DWORD PTR __First$[ebp]
  00006	56		 push	 esi

; 1796 :     _CONSTEXPR20 _Uninitialized_backout_al(pointer _Dest, _Alloc& _Al_) : _First(_Dest), _Last(_Dest), _Al(_Al_) {}

  00007	8b 75 10	 mov	 esi, DWORD PTR __Dest$[ebp]

; 1961 :     for (; _UFirst != _ULast; ++_UFirst) {

  0000a	3b 45 0c	 cmp	 eax, DWORD PTR __Last$[ebp]
  0000d	74 6f		 je	 SHORT $LN72@Uninitiali
  0000f	53		 push	 ebx

; 1796 :     _CONSTEXPR20 _Uninitialized_backout_al(pointer _Dest, _Alloc& _Al_) : _First(_Dest), _Last(_Dest), _Al(_Al_) {}

  00010	8b de		 mov	 ebx, esi
  00012	8d 48 18	 lea	 ecx, DWORD PTR [eax+24]
  00015	57		 push	 edi
  00016	8d 7e 04	 lea	 edi, DWORD PTR [esi+4]
  00019	2b d8		 sub	 ebx, eax
  0001b	0f 1f 44 00 00	 npad	 5
$LL4@Uninitiali:
  00020	0f b7 41 e8	 movzx	 eax, WORD PTR [ecx-24]

; 1808 :         ++_Last;

  00024	8d 49 1c	 lea	 ecx, DWORD PTR [ecx+28]
  00027	66 89 06	 mov	 WORD PTR [esi], ax

; 1961 :     for (; _UFirst != _ULast; ++_UFirst) {

  0002a	8d 51 e8	 lea	 edx, DWORD PTR [ecx-24]
  0002d	0f b7 41 ce	 movzx	 eax, WORD PTR [ecx-50]

; 1808 :         ++_Last;

  00031	8d 7f 1c	 lea	 edi, DWORD PTR [edi+28]
  00034	66 89 47 e2	 mov	 WORD PTR [edi-30], ax
  00038	0f 57 c0	 xorps	 xmm0, xmm0
; File D:\Program Files\Microsoft Visual Studio\2022\Community\VC\Tools\MSVC\14.43.34808\include\xstring

; 474  :         _CONSTEXPR20 _Bxty() noexcept : _Buf() {} // user-provided, for fancy pointers

  0003b	0f 11 47 e4	 movups	 XMMWORD PTR [edi-28], xmm0

; 498  :     size_type _Mysize = 0; // current length of string (size)

  0003f	c7 47 f4 00 00
	00 00		 mov	 DWORD PTR [edi-12], 0

; 1267 :                 _Traits::assign(_Right_data._Bx._Buf[0], _Elem());

  00046	33 c0		 xor	 eax, eax

; 499  :     size_type _Myres  = 0; // current storage reserved for string (capacity)

  00048	c7 44 19 e4 00
	00 00 00	 mov	 DWORD PTR [ecx+ebx-28], 0
; File D:\Program Files\Microsoft Visual Studio\2022\Community\VC\Tools\MSVC\14.43.34808\include\xmemory

; 1808 :         ++_Last;

  00050	83 c6 1c	 add	 esi, 28			; 0000001cH
; File D:\Program Files\Microsoft Visual Studio\2022\Community\VC\Tools\MSVC\14.43.34808\include\xstring

; 1262 :                 _CSTD memcpy(_My_data_mem, _Right_data_mem, _Memcpy_val_size);

  00053	0f 10 41 d0	 movups	 xmm0, XMMWORD PTR [ecx-48]
  00057	0f 11 47 e4	 movups	 XMMWORD PTR [edi-28], xmm0
  0005b	f3 0f 7e 41 e0	 movq	 xmm0, QWORD PTR [ecx-32]
  00060	66 0f d6 47 f4	 movq	 QWORD PTR [edi-12], xmm0

; 1263 : 
; 1264 :                 _Right_data._Mysize = 0;

  00065	c7 41 e0 00 00
	00 00		 mov	 DWORD PTR [ecx-32], 0

; 1265 :                 _Right_data._Myres  = _Small_string_capacity;

  0006c	c7 41 e4 07 00
	00 00		 mov	 DWORD PTR [ecx-28], 7

; 1266 :                 _Right_data._Activate_SSO_buffer();
; 1267 :                 _Traits::assign(_Right_data._Bx._Buf[0], _Elem());

  00073	66 89 41 d0	 mov	 WORD PTR [ecx-48], ax
; File D:\Program Files\Microsoft Visual Studio\2022\Community\VC\Tools\MSVC\14.43.34808\include\xmemory

; 1961 :     for (; _UFirst != _ULast; ++_UFirst) {

  00077	3b 55 0c	 cmp	 edx, DWORD PTR __Last$[ebp]
  0007a	75 a4		 jne	 SHORT $LL4@Uninitiali
  0007c	5f		 pop	 edi
  0007d	5b		 pop	 ebx
$LN72@Uninitiali:

; 1962 :         _Backout._Emplace_back(_STD move(*_UFirst));
; 1963 :     }
; 1964 : 
; 1965 :     return _Backout._Release();
; 1966 : }

  0007e	8b c6		 mov	 eax, esi
  00080	5e		 pop	 esi
  00081	5d		 pop	 ebp
  00082	c3		 ret	 0
??$_Uninitialized_move@PAUSHyperlink@CGraphicTextInstance@@V?$allocator@USHyperlink@CGraphicTextInstance@@@std@@@std@@YAPAUSHyperlink@CGraphicTextInstance@@QAU12@0PAU12@AAV?$allocator@USHyperlink@CGraphicTextInstance@@@0@@Z ENDP ; std::_Uninitialized_move<CGraphicTextInstance::SHyperlink *,std::allocator<CGraphicTextInstance::SHyperlink> >
_TEXT	ENDS
; Function compile flags: /Ogtp
; File D:\Program Files\Microsoft Visual Studio\2022\Community\VC\Tools\MSVC\14.43.34808\include\vector
; File D:\Program Files\Microsoft Visual Studio\2022\Community\VC\Tools\MSVC\14.43.34808\include\xmemory
; File D:\Program Files\Microsoft Visual Studio\2022\Community\VC\Tools\MSVC\14.43.34808\include\vector
; File D:\Program Files\Microsoft Visual Studio\2022\Community\VC\Tools\MSVC\14.43.34808\include\xmemory
; File D:\Program Files\Microsoft Visual Studio\2022\Community\VC\Tools\MSVC\14.43.34808\include\vector
;	COMDAT ??1_Reallocation_guard@?$vector@USHyperlink@CGraphicTextInstance@@V?$allocator@USHyperlink@CGraphicTextInstance@@@std@@@std@@QAE@XZ
_TEXT	SEGMENT
??1_Reallocation_guard@?$vector@USHyperlink@CGraphicTextInstance@@V?$allocator@USHyperlink@CGraphicTextInstance@@@std@@@std@@QAE@XZ PROC ; std::vector<CGraphicTextInstance::SHyperlink,std::allocator<CGraphicTextInstance::SHyperlink> >::_Reallocation_guard::~_Reallocation_guard, COMDAT
; _this$ = ecx

; 605  :         _CONSTEXPR20 ~_Reallocation_guard() noexcept {

  00000	53		 push	 ebx
  00001	8b d9		 mov	 ebx, ecx

; 606  :             if (_New_begin != nullptr) {

  00003	83 7b 04 00	 cmp	 DWORD PTR [ebx+4], 0
  00007	74 52		 je	 SHORT $LN22@Reallocati

; 607  :                 _STD _Destroy_range(_Constructed_first, _Constructed_last, _Al);

  00009	56		 push	 esi
  0000a	8b 73 0c	 mov	 esi, DWORD PTR [ebx+12]
  0000d	57		 push	 edi
  0000e	8b 7b 10	 mov	 edi, DWORD PTR [ebx+16]
; File D:\Program Files\Microsoft Visual Studio\2022\Community\VC\Tools\MSVC\14.43.34808\include\xmemory

; 1098 :         for (; _First != _Last; ++_First) {

  00011	3b f7		 cmp	 esi, edi
  00013	74 0e		 je	 SHORT $LN7@Reallocati
$LL8@Reallocati:
  00015	8b ce		 mov	 ecx, esi
  00017	e8 00 00 00 00	 call	 ??1SHyperlink@CGraphicTextInstance@@QAE@XZ
  0001c	83 c6 1c	 add	 esi, 28			; 0000001cH
  0001f	3b f7		 cmp	 esi, edi
  00021	75 f2		 jne	 SHORT $LL8@Reallocati
$LN7@Reallocati:

; 981  :         _STD _Deallocate<_New_alignof<_Ty>>(_Ptr, sizeof(_Ty) * _Count);

  00023	8b 43 08	 mov	 eax, DWORD PTR [ebx+8]
  00026	5f		 pop	 edi
  00027	5e		 pop	 esi
  00028	8d 0c c5 00 00
	00 00		 lea	 ecx, DWORD PTR [eax*8]
  0002f	2b c8		 sub	 ecx, eax
  00031	8b 43 04	 mov	 eax, DWORD PTR [ebx+4]
  00034	c1 e1 02	 shl	 ecx, 2

; 284  :         if (_Bytes >= _Big_allocation_threshold) {

  00037	81 f9 00 10 00
	00		 cmp	 ecx, 4096		; 00001000H
  0003d	72 12		 jb	 SHORT $LN33@Reallocati

; 205  :     const uintptr_t _Ptr_container   = _Ptr_user[-1];

  0003f	8b 50 fc	 mov	 edx, DWORD PTR [eax-4]
  00042	83 c1 23	 add	 ecx, 35			; 00000023H

; 206  : 
; 207  :     // If the following asserts, it likely means that we are performing
; 208  :     // an aligned delete on memory coming from an unaligned allocation.
; 209  :     _STL_ASSERT(_Ptr_user[-2] == _Big_allocation_sentinel, "invalid argument");
; 210  : 
; 211  :     // Extra paranoia on aligned allocation/deallocation; ensure _Ptr_container is
; 212  :     // in range [_Min_back_shift, _Non_user_size]
; 213  : #ifdef _DEBUG
; 214  :     constexpr uintptr_t _Min_back_shift = 2 * sizeof(void*);
; 215  : #else // ^^^ defined(_DEBUG) / !defined(_DEBUG) vvv
; 216  :     constexpr uintptr_t _Min_back_shift = sizeof(void*);
; 217  : #endif // ^^^ !defined(_DEBUG) ^^^
; 218  :     const uintptr_t _Back_shift = reinterpret_cast<uintptr_t>(_Ptr) - _Ptr_container;

  00045	2b c2		 sub	 eax, edx

; 219  :     _STL_VERIFY(_Back_shift >= _Min_back_shift && _Back_shift <= _Non_user_size, "invalid argument");

  00047	83 c0 fc	 add	 eax, -4			; fffffffcH
  0004a	83 f8 1f	 cmp	 eax, 31			; 0000001fH
  0004d	77 0e		 ja	 SHORT $LN30@Reallocati

; 220  :     _Ptr = reinterpret_cast<void*>(_Ptr_container);

  0004f	8b c2		 mov	 eax, edx
$LN33@Reallocati:

; 289  :         ::operator delete(_Ptr, _Bytes);

  00051	51		 push	 ecx
  00052	50		 push	 eax
  00053	e8 00 00 00 00	 call	 ??3@YAXPAXI@Z		; operator delete
  00058	83 c4 08	 add	 esp, 8
$LN22@Reallocati:
  0005b	5b		 pop	 ebx
; File D:\Program Files\Microsoft Visual Studio\2022\Community\VC\Tools\MSVC\14.43.34808\include\vector

; 610  :         }

  0005c	c3		 ret	 0
$LN30@Reallocati:
; File D:\Program Files\Microsoft Visual Studio\2022\Community\VC\Tools\MSVC\14.43.34808\include\xmemory

; 219  :     _STL_VERIFY(_Back_shift >= _Min_back_shift && _Back_shift <= _Non_user_size, "invalid argument");

  0005d	e8 00 00 00 00	 call	 __invalid_parameter_noinfo_noreturn
$LN45@Reallocati:
  00062	cc		 int	 3
??1_Reallocation_guard@?$vector@USHyperlink@CGraphicTextInstance@@V?$allocator@USHyperlink@CGraphicTextInstance@@@std@@@std@@QAE@XZ ENDP ; std::vector<CGraphicTextInstance::SHyperlink,std::allocator<CGraphicTextInstance::SHyperlink> >::_Reallocation_guard::~_Reallocation_guard
_TEXT	ENDS
; Function compile flags: /Ogtp
; File D:\Program Files\Microsoft Visual Studio\2022\Community\VC\Tools\MSVC\14.43.34808\include\xmemory
; File D:\Program Files\Microsoft Visual Studio\2022\Community\VC\Tools\MSVC\14.43.34808\include\xstring
; File D:\Program Files\Microsoft Visual Studio\2022\Community\VC\Tools\MSVC\14.43.34808\include\xmemory
; File D:\Program Files\Microsoft Visual Studio\2022\Community\VC\Tools\MSVC\14.43.34808\include\xstring
; File D:\Program Files\Microsoft Visual Studio\2022\Community\VC\Tools\MSVC\14.43.34808\include\__msvc_string_view.hpp
; File D:\Program Files\Microsoft Visual Studio\2022\Community\VC\Tools\MSVC\14.43.34808\include\xmemory
; File D:\Program Files\Microsoft Visual Studio\2022\Community\VC\Tools\MSVC\14.43.34808\include\xstring
; File D:\Program Files\Microsoft Visual Studio\2022\Community\VC\Tools\MSVC\14.43.34808\include\__msvc_string_view.hpp
; File D:\Program Files\Microsoft Visual Studio\2022\Community\VC\Tools\MSVC\14.43.34808\include\xstring
; File D:\Program Files\Microsoft Visual Studio\2022\Community\VC\Tools\MSVC\14.43.34808\include\__msvc_string_view.hpp
; File D:\Program Files\Microsoft Visual Studio\2022\Community\VC\Tools\MSVC\14.43.34808\include\xmemory
; File D:\Program Files\Microsoft Visual Studio\2022\Community\VC\Tools\MSVC\14.43.34808\include\xstring
; File D:\Program Files\Microsoft Visual Studio\2022\Community\VC\Tools\MSVC\14.43.34808\include\xmemory
;	COMDAT ??$construct@USHyperlink@CGraphicTextInstance@@ABU12@@?$_Default_allocator_traits@V?$allocator@USHyperlink@CGraphicTextInstance@@@std@@@std@@SAXAAV?$allocator@USHyperlink@CGraphicTextInstance@@@1@QAUSHyperlink@CGraphicTextInstance@@ABU34@@Z
_TEXT	SEGMENT
___formal$ = 8						; size = 4
__Ptr$ = 12						; size = 4
_<_Args_0>$ = 16					; size = 4
__New_capacity$1 = 16					; size = 4
??$construct@USHyperlink@CGraphicTextInstance@@ABU12@@?$_Default_allocator_traits@V?$allocator@USHyperlink@CGraphicTextInstance@@@std@@@std@@SAXAAV?$allocator@USHyperlink@CGraphicTextInstance@@@1@QAUSHyperlink@CGraphicTextInstance@@ABU34@@Z PROC ; std::_Default_allocator_traits<std::allocator<CGraphicTextInstance::SHyperlink> >::construct<CGraphicTextInstance::SHyperlink,CGraphicTextInstance::SHyperlink const &>, COMDAT

; 728  :     static _CONSTEXPR20 void construct(_Alloc&, _Objty* const _Ptr, _Types&&... _Args) {

  00000	55		 push	 ebp
  00001	8b ec		 mov	 ebp, esp
  00003	8b 55 10	 mov	 edx, DWORD PTR _<_Args_0>$[ebp]
  00006	0f 57 c0	 xorps	 xmm0, xmm0
  00009	8b 4d 0c	 mov	 ecx, DWORD PTR __Ptr$[ebp]
  0000c	53		 push	 ebx
  0000d	56		 push	 esi
  0000e	0f b7 02	 movzx	 eax, WORD PTR [edx]
  00011	8d 71 04	 lea	 esi, DWORD PTR [ecx+4]
  00014	66 89 01	 mov	 WORD PTR [ecx], ax
  00017	8d 5a 04	 lea	 ebx, DWORD PTR [edx+4]
  0001a	0f b7 42 02	 movzx	 eax, WORD PTR [edx+2]
  0001e	66 89 41 02	 mov	 WORD PTR [ecx+2], ax
; File D:\Program Files\Microsoft Visual Studio\2022\Community\VC\Tools\MSVC\14.43.34808\include\xstring

; 474  :         _CONSTEXPR20 _Bxty() noexcept : _Buf() {} // user-provided, for fancy pointers

  00022	0f 11 06	 movups	 XMMWORD PTR [esi], xmm0

; 498  :     size_type _Mysize = 0; // current length of string (size)

  00025	c7 46 10 00 00
	00 00		 mov	 DWORD PTR [esi+16], 0

; 499  :     size_type _Myres  = 0; // current storage reserved for string (capacity)

  0002c	c7 46 14 00 00
	00 00		 mov	 DWORD PTR [esi+20], 0

; 434  :         return _Myres > _Small_string_capacity;

  00033	83 7b 14 07	 cmp	 DWORD PTR [ebx+20], 7
; File D:\Program Files\Microsoft Visual Studio\2022\Community\VC\Tools\MSVC\14.43.34808\include\xmemory

; 728  :     static _CONSTEXPR20 void construct(_Alloc&, _Objty* const _Ptr, _Types&&... _Args) {

  00037	57		 push	 edi
; File D:\Program Files\Microsoft Visual Studio\2022\Community\VC\Tools\MSVC\14.43.34808\include\xstring

; 694  :         _Construct<_Construct_strategy::_From_string>(_Right._Mypair._Myval2._Myptr(), _Right._Mypair._Myval2._Mysize);

  00038	8b 7b 10	 mov	 edi, DWORD PTR [ebx+16]

; 426  :         if (_Large_mode_engaged()) {

  0003b	76 02		 jbe	 SHORT $LN22@construct

; 427  :             _Result = _Unfancy(_Bx._Ptr);

  0003d	8b 1b		 mov	 ebx, DWORD PTR [ebx]
$LN22@construct:

; 857  :         if (_Count > max_size()) {

  0003f	81 ff fe ff ff
	7f		 cmp	 edi, 2147483646		; 7ffffffeH
  00045	77 66		 ja	 SHORT $LN55@construct

; 859  :         }
; 860  : 
; 861  :         auto& _Al       = _Getal();
; 862  :         auto&& _Alproxy = _GET_PROXY_ALLOCATOR(_Alty, _Al);
; 863  :         _Container_proxy_ptr<_Alty> _Proxy(_Alproxy, _My_data);
; 864  : 
; 865  :         if (_Count <= _Small_string_capacity) {

  00047	83 ff 07	 cmp	 edi, 7
  0004a	77 15		 ja	 SHORT $LN30@construct

; 866  :             _My_data._Mysize = _Count;

  0004c	89 7e 10	 mov	 DWORD PTR [esi+16], edi

; 867  :             _My_data._Myres  = _Small_string_capacity;

  0004f	c7 46 14 07 00
	00 00		 mov	 DWORD PTR [esi+20], 7
; File D:\Program Files\Microsoft Visual Studio\2022\Community\VC\Tools\MSVC\14.43.34808\include\__msvc_string_view.hpp

; 95   :         _CSTD memcpy(_First1, _First2, _Count * sizeof(_Elem));

  00056	0f 10 03	 movups	 xmm0, XMMWORD PTR [ebx]
  00059	5f		 pop	 edi
  0005a	0f 11 06	 movups	 XMMWORD PTR [esi], xmm0
; File D:\Program Files\Microsoft Visual Studio\2022\Community\VC\Tools\MSVC\14.43.34808\include\xmemory

; 734  :     }

  0005d	5e		 pop	 esi
  0005e	5b		 pop	 ebx
  0005f	5d		 pop	 ebp
  00060	c3		 ret	 0
$LN30@construct:
; File D:\Program Files\Microsoft Visual Studio\2022\Community\VC\Tools\MSVC\14.43.34808\include\xstring

; 2942 :         const size_type _Masked = _Requested | _Alloc_mask;

  00061	8b c7		 mov	 eax, edi
  00063	83 c8 07	 or	 eax, 7
  00066	3d fe ff ff 7f	 cmp	 eax, 2147483646		; 7ffffffeH

; 2943 :         if (_Masked > _Max) { // the mask overflows, settle for max_size()

  0006b	76 07		 jbe	 SHORT $LN36@construct

; 2944 :             return _Max;

  0006d	b8 fe ff ff 7f	 mov	 eax, 2147483646		; 7ffffffeH
  00072	eb 0a		 jmp	 SHORT $LN35@construct
$LN36@construct:

; 2945 :         }
; 2946 : 
; 2947 :         if (_Old > _Max - _Old / 2) { // similarly, geometric overflows
; 2948 :             return _Max;
; 2949 :         }
; 2950 : 
; 2951 :         return (_STD max)(_Masked, _Old + _Old / 2);

  00074	b9 0a 00 00 00	 mov	 ecx, 10			; 0000000aH
  00079	3b c1		 cmp	 eax, ecx
  0007b	0f 42 c1	 cmovb	 eax, ecx
$LN35@construct:

; 887  :         size_type _New_capacity = _Calculate_growth(_Count, _Small_string_capacity, max_size());

  0007e	89 45 10	 mov	 DWORD PTR __New_capacity$1[ebp], eax

; 888  :         const pointer _New_ptr  = _Allocate_for_capacity(_Al, _New_capacity); // throws

  00081	8d 45 10	 lea	 eax, DWORD PTR __New_capacity$1[ebp]
  00084	50		 push	 eax
  00085	56		 push	 esi
  00086	e8 00 00 00 00	 call	 ??$_Allocate_for_capacity@$0A@@?$basic_string@_WU?$char_traits@_W@std@@V?$allocator@_W@2@@std@@CAPA_WAAV?$allocator@_W@1@AAI@Z ; std::basic_string<wchar_t,std::char_traits<wchar_t>,std::allocator<wchar_t> >::_Allocate_for_capacity<0>

; 892  :         _My_data._Myres  = _New_capacity;

  0008b	8b 4d 10	 mov	 ecx, DWORD PTR __New_capacity$1[ebp]
  0008e	89 4e 14	 mov	 DWORD PTR [esi+20], ecx
; File D:\Program Files\Microsoft Visual Studio\2022\Community\VC\Tools\MSVC\14.43.34808\include\__msvc_string_view.hpp

; 95   :         _CSTD memcpy(_First1, _First2, _Count * sizeof(_Elem));

  00091	8d 0c 7d 02 00
	00 00		 lea	 ecx, DWORD PTR [edi*2+2]
  00098	51		 push	 ecx
  00099	53		 push	 ebx
  0009a	50		 push	 eax
; File D:\Program Files\Microsoft Visual Studio\2022\Community\VC\Tools\MSVC\14.43.34808\include\xstring

; 889  :         _Construct_in_place(_My_data._Bx._Ptr, _New_ptr);

  0009b	89 06		 mov	 DWORD PTR [esi], eax

; 890  : 
; 891  :         _My_data._Mysize = _Count;

  0009d	89 7e 10	 mov	 DWORD PTR [esi+16], edi
; File D:\Program Files\Microsoft Visual Studio\2022\Community\VC\Tools\MSVC\14.43.34808\include\__msvc_string_view.hpp

; 95   :         _CSTD memcpy(_First1, _First2, _Count * sizeof(_Elem));

  000a0	e8 00 00 00 00	 call	 _memcpy
  000a5	83 c4 14	 add	 esp, 20			; 00000014H
  000a8	5f		 pop	 edi
; File D:\Program Files\Microsoft Visual Studio\2022\Community\VC\Tools\MSVC\14.43.34808\include\xmemory

; 734  :     }

  000a9	5e		 pop	 esi
  000aa	5b		 pop	 ebx
  000ab	5d		 pop	 ebp
  000ac	c3		 ret	 0
$LN55@construct:
; File D:\Program Files\Microsoft Visual Studio\2022\Community\VC\Tools\MSVC\14.43.34808\include\xstring

; 858  :             _Xlen_string(); // result too long

  000ad	e8 00 00 00 00	 call	 ?_Xlen_string@std@@YAXXZ ; std::_Xlen_string
$LN53@construct:
  000b2	cc		 int	 3
??$construct@USHyperlink@CGraphicTextInstance@@ABU12@@?$_Default_allocator_traits@V?$allocator@USHyperlink@CGraphicTextInstance@@@std@@@std@@SAXAAV?$allocator@USHyperlink@CGraphicTextInstance@@@1@QAUSHyperlink@CGraphicTextInstance@@ABU34@@Z ENDP ; std::_Default_allocator_traits<std::allocator<CGraphicTextInstance::SHyperlink> >::construct<CGraphicTextInstance::SHyperlink,CGraphicTextInstance::SHyperlink const &>
_TEXT	ENDS
; Function compile flags: /Ogtp
; File D:\Program Files\Microsoft Visual Studio\2022\Community\VC\Tools\MSVC\14.43.34808\include\xutility
;	COMDAT ??$_Find_vectorized@$$CBDD@std@@YAPBDQBD0D@Z
_TEXT	SEGMENT
__First$ = 8						; size = 4
__Last$ = 12						; size = 4
__Val$ = 16						; size = 1
??$_Find_vectorized@$$CBDD@std@@YAPBDQBD0D@Z PROC	; std::_Find_vectorized<char const ,char>, COMDAT

; 199  : _Ty* _Find_vectorized(_Ty* const _First, _Ty* const _Last, const _TVal _Val) noexcept {

  00000	55		 push	 ebp
  00001	8b ec		 mov	 ebp, esp

; 200  :     if constexpr (is_pointer_v<_TVal> || is_null_pointer_v<_TVal>) {
; 201  : #ifdef _WIN64
; 202  :         return const_cast<_Ty*>(
; 203  :             static_cast<const _Ty*>(::__std_find_trivial_8(_First, _Last, reinterpret_cast<uint64_t>(_Val))));
; 204  : #else
; 205  :         return const_cast<_Ty*>(
; 206  :             static_cast<const _Ty*>(::__std_find_trivial_4(_First, _Last, reinterpret_cast<uint32_t>(_Val))));
; 207  : #endif
; 208  :     } else if constexpr (sizeof(_Ty) == 1) {
; 209  :         return const_cast<_Ty*>(

  00003	ff 75 10	 push	 DWORD PTR __Val$[ebp]
  00006	ff 75 0c	 push	 DWORD PTR __Last$[ebp]
  00009	ff 75 08	 push	 DWORD PTR __First$[ebp]
  0000c	e8 00 00 00 00	 call	 ___std_find_trivial_1@12

; 210  :             static_cast<const _Ty*>(::__std_find_trivial_1(_First, _Last, static_cast<uint8_t>(_Val))));
; 211  :     } else if constexpr (sizeof(_Ty) == 2) {
; 212  :         return const_cast<_Ty*>(
; 213  :             static_cast<const _Ty*>(::__std_find_trivial_2(_First, _Last, static_cast<uint16_t>(_Val))));
; 214  :     } else if constexpr (sizeof(_Ty) == 4) {
; 215  :         return const_cast<_Ty*>(
; 216  :             static_cast<const _Ty*>(::__std_find_trivial_4(_First, _Last, static_cast<uint32_t>(_Val))));
; 217  :     } else if constexpr (sizeof(_Ty) == 8) {
; 218  :         return const_cast<_Ty*>(
; 219  :             static_cast<const _Ty*>(::__std_find_trivial_8(_First, _Last, static_cast<uint64_t>(_Val))));
; 220  :     } else {
; 221  :         _STL_INTERNAL_STATIC_ASSERT(false); // unexpected size
; 222  :     }
; 223  : }

  00011	5d		 pop	 ebp
  00012	c3		 ret	 0
??$_Find_vectorized@$$CBDD@std@@YAPBDQBD0D@Z ENDP	; std::_Find_vectorized<char const ,char>
_TEXT	ENDS
; Function compile flags: /Ogtp
; File D:\Program Files\Microsoft Visual Studio\2022\Community\VC\Tools\MSVC\14.43.34808\include\vector
; File D:\Program Files\Microsoft Visual Studio\2022\Community\VC\Tools\MSVC\14.43.34808\include\xmemory
; File D:\Program Files\Microsoft Visual Studio\2022\Community\VC\Tools\MSVC\14.43.34808\include\vector
; File D:\Program Files\Microsoft Visual Studio\2022\Community\VC\Tools\MSVC\14.43.34808\include\xmemory
; File D:\Program Files\Microsoft Visual Studio\2022\Community\VC\Tools\MSVC\14.43.34808\include\vector
; File D:\Program Files\Microsoft Visual Studio\2022\Community\VC\Tools\MSVC\14.43.34808\include\xmemory
; File D:\Program Files\Microsoft Visual Studio\2022\Community\VC\Tools\MSVC\14.43.34808\include\vector
; File D:\Program Files\Microsoft Visual Studio\2022\Community\VC\Tools\MSVC\14.43.34808\include\xmemory
; File D:\Program Files\Microsoft Visual Studio\2022\Community\VC\Tools\MSVC\14.43.34808\include\vector
; File D:\Program Files\Microsoft Visual Studio\2022\Community\VC\Tools\MSVC\14.43.34808\include\xmemory
; File D:\Program Files\Microsoft Visual Studio\2022\Community\VC\Tools\MSVC\14.43.34808\include\vector
; File D:\Program Files\Microsoft Visual Studio\2022\Community\VC\Tools\MSVC\14.43.34808\include\xmemory
; File D:\Program Files\Microsoft Visual Studio\2022\Community\VC\Tools\MSVC\14.43.34808\include\vector
; File D:\Program Files\Microsoft Visual Studio\2022\Community\VC\Tools\MSVC\14.43.34808\include\xmemory
; File D:\Program Files\Microsoft Visual Studio\2022\Community\VC\Tools\MSVC\14.43.34808\include\vector
; File D:\Program Files\Microsoft Visual Studio\2022\Community\VC\Tools\MSVC\14.43.34808\include\xmemory
; File D:\Program Files\Microsoft Visual Studio\2022\Community\VC\Tools\MSVC\14.43.34808\include\vector
;	COMDAT ??$_Emplace_reallocate@ABQAUSCharacterInfomation@CGraphicFontTexture@@@?$vector@PAUSCharacterInfomation@CGraphicFontTexture@@V?$allocator@PAUSCharacterInfomation@CGraphicFontTexture@@@std@@@std@@AAEPAPAUSCharacterInfomation@CGraphicFontTexture@@QAPAU23@ABQAU23@@Z
_TEXT	SEGMENT
__Newsize$1$ = -12					; size = 4
tv652 = -8						; size = 4
tv650 = -4						; size = 4
__Whereptr$ = 8						; size = 4
_<_Val_0>$ = 12						; size = 4
??$_Emplace_reallocate@ABQAUSCharacterInfomation@CGraphicFontTexture@@@?$vector@PAUSCharacterInfomation@CGraphicFontTexture@@V?$allocator@PAUSCharacterInfomation@CGraphicFontTexture@@@std@@@std@@AAEPAPAUSCharacterInfomation@CGraphicFontTexture@@QAPAU23@ABQAU23@@Z PROC ; std::vector<CGraphicFontTexture::SCharacterInfomation *,std::allocator<CGraphicFontTexture::SCharacterInfomation *> >::_Emplace_reallocate<CGraphicFontTexture::SCharacterInfomation * const &>, COMDAT
; _this$ = ecx

; 860  :     _CONSTEXPR20 pointer _Emplace_reallocate(const pointer _Whereptr, _Valty&&... _Val) {

  00000	55		 push	 ebp
  00001	8b ec		 mov	 ebp, esp
  00003	83 ec 0c	 sub	 esp, 12			; 0000000cH
  00006	53		 push	 ebx

; 861  :         // reallocate and insert by perfectly forwarding _Val at _Whereptr
; 862  :         _Alty& _Al        = _Getal();
; 863  :         auto& _My_data    = _Mypair._Myval2;
; 864  :         pointer& _Myfirst = _My_data._Myfirst;
; 865  :         pointer& _Mylast  = _My_data._Mylast;
; 866  : 
; 867  :         _STL_INTERNAL_CHECK(_Mylast == _My_data._Myend); // check that we have no unused capacity
; 868  : 
; 869  :         const auto _Whereoff = static_cast<size_type>(_Whereptr - _Myfirst);

  00007	8b 5d 08	 mov	 ebx, DWORD PTR __Whereptr$[ebp]
  0000a	56		 push	 esi
  0000b	8b f1		 mov	 esi, ecx
  0000d	57		 push	 edi
  0000e	8b 0e		 mov	 ecx, DWORD PTR [esi]
  00010	2b d9		 sub	 ebx, ecx

; 870  :         const auto _Oldsize  = static_cast<size_type>(_Mylast - _Myfirst);

  00012	8b 46 04	 mov	 eax, DWORD PTR [esi+4]
  00015	2b c1		 sub	 eax, ecx
  00017	c1 fb 02	 sar	 ebx, 2
  0001a	c1 f8 02	 sar	 eax, 2

; 871  : 
; 872  :         if (_Oldsize == max_size()) {

  0001d	3d ff ff ff 3f	 cmp	 eax, 1073741823		; 3fffffffH
  00022	0f 84 09 01 00
	00		 je	 $LN123@Emplace_re

; 1909 :         return static_cast<size_type>(_My_data._Myend - _My_data._Myfirst);

  00028	8b 56 08	 mov	 edx, DWORD PTR [esi+8]

; 874  :         }
; 875  : 
; 876  :         const size_type _Newsize = _Oldsize + 1;

  0002b	8d 78 01	 lea	 edi, DWORD PTR [eax+1]

; 1909 :         return static_cast<size_type>(_My_data._Myend - _My_data._Myfirst);

  0002e	2b d1		 sub	 edx, ecx

; 874  :         }
; 875  : 
; 876  :         const size_type _Newsize = _Oldsize + 1;

  00030	89 7d f4	 mov	 DWORD PTR __Newsize$1$[ebp], edi

; 1909 :         return static_cast<size_type>(_My_data._Myend - _My_data._Myfirst);

  00033	c1 fa 02	 sar	 edx, 2

; 1996 :         if (_Oldcapacity > _Max - _Oldcapacity / 2) {

  00036	b8 ff ff ff 3f	 mov	 eax, 1073741823		; 3fffffffH
  0003b	8b ca		 mov	 ecx, edx
  0003d	d1 e9		 shr	 ecx, 1
  0003f	2b c1		 sub	 eax, ecx
  00041	3b d0		 cmp	 edx, eax
  00043	76 14		 jbe	 SHORT $LN8@Emplace_re

; 1997 :             return _Max; // geometric growth would overflow

  00045	b8 fc ff ff ff	 mov	 eax, -4			; fffffffcH
  0004a	c7 45 f8 fc ff
	ff ff		 mov	 DWORD PTR tv652[ebp], -4 ; fffffffcH
; File D:\Program Files\Microsoft Visual Studio\2022\Community\VC\Tools\MSVC\14.43.34808\include\xmemory

; 253  :             return _Allocate_manually_vector_aligned<_Traits>(_Bytes);

  00051	50		 push	 eax
  00052	e8 00 00 00 00	 call	 ??$_Allocate_manually_vector_aligned@U_Default_allocate_traits@std@@@std@@YAPAXI@Z ; std::_Allocate_manually_vector_aligned<std::_Default_allocate_traits>
  00057	eb 3d		 jmp	 SHORT $LN121@Emplace_re
$LN8@Emplace_re:
; File D:\Program Files\Microsoft Visual Studio\2022\Community\VC\Tools\MSVC\14.43.34808\include\vector

; 2000 :         const size_type _Geometric = _Oldcapacity + _Oldcapacity / 2;

  00059	8d 04 11	 lea	 eax, DWORD PTR [ecx+edx]
; File D:\Program Files\Microsoft Visual Studio\2022\Community\VC\Tools\MSVC\14.43.34808\include\xmemory

; 117  :         if (_Count > _Max_possible) {

  0005c	8b cf		 mov	 ecx, edi
  0005e	3b c7		 cmp	 eax, edi
  00060	0f 43 c8	 cmovae	 ecx, eax
  00063	81 f9 ff ff ff
	3f		 cmp	 ecx, 1073741823		; 3fffffffH
  00069	0f 87 c7 00 00
	00		 ja	 $LN124@Emplace_re

; 119  :         }
; 120  :     }
; 121  : 
; 122  :     return _Count * _Ty_size;

  0006f	8d 04 8d 00 00
	00 00		 lea	 eax, DWORD PTR [ecx*4]
  00076	89 45 f8	 mov	 DWORD PTR tv652[ebp], eax

; 227  :     if (_Bytes == 0) {

  00079	85 c0		 test	 eax, eax
  0007b	75 04		 jne	 SHORT $LN23@Emplace_re

; 228  :         return nullptr;

  0007d	33 ff		 xor	 edi, edi
  0007f	eb 1a		 jmp	 SHORT $LN22@Emplace_re
$LN23@Emplace_re:

; 229  :     }
; 230  : 
; 231  : #if _HAS_CXX20 // TRANSITION, GH-1532
; 232  :     if (_STD is_constant_evaluated()) {
; 233  :         return _Traits::_Allocate(_Bytes);
; 234  :     }
; 235  : #endif // _HAS_CXX20
; 236  : 
; 237  : #ifdef __cpp_aligned_new
; 238  :     if constexpr (_Align > __STDCPP_DEFAULT_NEW_ALIGNMENT__) {
; 239  :         size_t _Passed_align = _Align;
; 240  : #if defined(_M_IX86) || defined(_M_X64)
; 241  :         if (_Bytes >= _Big_allocation_threshold) {
; 242  :             // boost the alignment of big allocations to help autovectorization
; 243  :             _Passed_align = (_STD max)(_Align, _Big_allocation_alignment);
; 244  :         }
; 245  : #endif // defined(_M_IX86) || defined(_M_X64)
; 246  :         return _Traits::_Allocate_aligned(_Bytes, _Passed_align);
; 247  :     } else
; 248  : #endif // defined(__cpp_aligned_new)
; 249  :     {
; 250  : #if defined(_M_IX86) || defined(_M_X64)
; 251  :         if (_Bytes >= _Big_allocation_threshold) {

  00081	3d 00 10 00 00	 cmp	 eax, 4096		; 00001000H
  00086	72 08		 jb	 SHORT $LN24@Emplace_re

; 253  :             return _Allocate_manually_vector_aligned<_Traits>(_Bytes);

  00088	50		 push	 eax
  00089	e8 00 00 00 00	 call	 ??$_Allocate_manually_vector_aligned@U_Default_allocate_traits@std@@@std@@YAPAXI@Z ; std::_Allocate_manually_vector_aligned<std::_Default_allocate_traits>
  0008e	eb 06		 jmp	 SHORT $LN121@Emplace_re
$LN24@Emplace_re:

; 136  :         return ::operator new(_Bytes);

  00090	50		 push	 eax
  00091	e8 00 00 00 00	 call	 ??2@YAPAXI@Z		; operator new
$LN121@Emplace_re:
; File D:\Program Files\Microsoft Visual Studio\2022\Community\VC\Tools\MSVC\14.43.34808\include\vector

; 885  :         _Alty_traits::construct(_Al, _STD _Unfancy(_Newvec + _Whereoff), _STD forward<_Valty>(_Val)...);

  00096	8b f8		 mov	 edi, eax
  00098	83 c4 04	 add	 esp, 4
$LN22@Emplace_re:
  0009b	8b 45 0c	 mov	 eax, DWORD PTR _<_Val_0>$[ebp]
  0009e	8d 0c 9f	 lea	 ecx, DWORD PTR [edi+ebx*4]

; 886  :         _Constructed_first = _Newvec + _Whereoff;
; 887  : 
; 888  :         if (_Whereptr == _Mylast) { // at back, provide strong guarantee

  000a1	8b 5d 08	 mov	 ebx, DWORD PTR __Whereptr$[ebp]
  000a4	89 4d fc	 mov	 DWORD PTR tv650[ebp], ecx
  000a7	8b 00		 mov	 eax, DWORD PTR [eax]
  000a9	89 01		 mov	 DWORD PTR [ecx], eax
  000ab	8b 46 04	 mov	 eax, DWORD PTR [esi+4]
  000ae	8b 0e		 mov	 ecx, DWORD PTR [esi]
  000b0	3b d8		 cmp	 ebx, eax
  000b2	75 07		 jne	 SHORT $LN3@Emplace_re

; 894  :         } else { // provide basic guarantee

  000b4	8b 5d fc	 mov	 ebx, DWORD PTR tv650[ebp]
; File D:\Program Files\Microsoft Visual Studio\2022\Community\VC\Tools\MSVC\14.43.34808\include\xmemory

; 1955 :             _STD _Copy_memmove(_UFirst, _ULast, _STD _Unfancy(_Dest));

  000b7	8b d7		 mov	 edx, edi
; File D:\Program Files\Microsoft Visual Studio\2022\Community\VC\Tools\MSVC\14.43.34808\include\vector

; 894  :         } else { // provide basic guarantee

  000b9	eb 16		 jmp	 SHORT $LN52@Emplace_re
$LN3@Emplace_re:
; File D:\Program Files\Microsoft Visual Studio\2022\Community\VC\Tools\MSVC\14.43.34808\include\xmemory

; 1955 :             _STD _Copy_memmove(_UFirst, _ULast, _STD _Unfancy(_Dest));

  000bb	57		 push	 edi
  000bc	53		 push	 ebx
  000bd	51		 push	 ecx
  000be	e8 00 00 00 00	 call	 ??$_Copy_memmove@PAPAUSCharacterInfomation@CGraphicFontTexture@@PAPAU12@@std@@YAPAPAUSCharacterInfomation@CGraphicFontTexture@@PAPAU12@00@Z ; std::_Copy_memmove<CGraphicFontTexture::SCharacterInfomation * *,CGraphicFontTexture::SCharacterInfomation * *>
  000c3	8b 46 04	 mov	 eax, DWORD PTR [esi+4]
  000c6	8b cb		 mov	 ecx, ebx
; File D:\Program Files\Microsoft Visual Studio\2022\Community\VC\Tools\MSVC\14.43.34808\include\vector

; 897  :             _STD _Uninitialized_move(_Whereptr, _Mylast, _Newvec + _Whereoff + 1, _Al);

  000c8	8b 5d fc	 mov	 ebx, DWORD PTR tv650[ebp]
; File D:\Program Files\Microsoft Visual Studio\2022\Community\VC\Tools\MSVC\14.43.34808\include\xmemory

; 1955 :             _STD _Copy_memmove(_UFirst, _ULast, _STD _Unfancy(_Dest));

  000cb	83 c4 0c	 add	 esp, 12			; 0000000cH
; File D:\Program Files\Microsoft Visual Studio\2022\Community\VC\Tools\MSVC\14.43.34808\include\vector

; 897  :             _STD _Uninitialized_move(_Whereptr, _Mylast, _Newvec + _Whereoff + 1, _Al);

  000ce	8d 53 04	 lea	 edx, DWORD PTR [ebx+4]
$LN52@Emplace_re:

; 898  :         }
; 899  : 
; 900  :         _Guard._New_begin = nullptr;

  000d1	52		 push	 edx
  000d2	50		 push	 eax
  000d3	51		 push	 ecx
  000d4	e8 00 00 00 00	 call	 ??$_Copy_memmove@PAPAUSCharacterInfomation@CGraphicFontTexture@@PAPAU12@@std@@YAPAPAUSCharacterInfomation@CGraphicFontTexture@@PAPAU12@00@Z ; std::_Copy_memmove<CGraphicFontTexture::SCharacterInfomation * *,CGraphicFontTexture::SCharacterInfomation * *>

; 2054 :         if (_Myfirst) { // destroy and deallocate old array

  000d9	8b 06		 mov	 eax, DWORD PTR [esi]

; 898  :         }
; 899  : 
; 900  :         _Guard._New_begin = nullptr;

  000db	83 c4 0c	 add	 esp, 12			; 0000000cH

; 2054 :         if (_Myfirst) { // destroy and deallocate old array

  000de	85 c0		 test	 eax, eax
  000e0	74 2c		 je	 SHORT $LN72@Emplace_re

; 2055 :             _STD _Destroy_range(_Myfirst, _Mylast, _Al);
; 2056 :             _ASAN_VECTOR_REMOVE;
; 2057 :             _Al.deallocate(_Myfirst, static_cast<size_type>(_Myend - _Myfirst));

  000e2	8b 4e 08	 mov	 ecx, DWORD PTR [esi+8]
  000e5	2b c8		 sub	 ecx, eax
; File D:\Program Files\Microsoft Visual Studio\2022\Community\VC\Tools\MSVC\14.43.34808\include\xmemory

; 981  :         _STD _Deallocate<_New_alignof<_Ty>>(_Ptr, sizeof(_Ty) * _Count);

  000e7	83 e1 fc	 and	 ecx, -4			; fffffffcH

; 284  :         if (_Bytes >= _Big_allocation_threshold) {

  000ea	81 f9 00 10 00
	00		 cmp	 ecx, 4096		; 00001000H
  000f0	72 12		 jb	 SHORT $LN83@Emplace_re

; 205  :     const uintptr_t _Ptr_container   = _Ptr_user[-1];

  000f2	8b 50 fc	 mov	 edx, DWORD PTR [eax-4]
  000f5	83 c1 23	 add	 ecx, 35			; 00000023H

; 206  : 
; 207  :     // If the following asserts, it likely means that we are performing
; 208  :     // an aligned delete on memory coming from an unaligned allocation.
; 209  :     _STL_ASSERT(_Ptr_user[-2] == _Big_allocation_sentinel, "invalid argument");
; 210  : 
; 211  :     // Extra paranoia on aligned allocation/deallocation; ensure _Ptr_container is
; 212  :     // in range [_Min_back_shift, _Non_user_size]
; 213  : #ifdef _DEBUG
; 214  :     constexpr uintptr_t _Min_back_shift = 2 * sizeof(void*);
; 215  : #else // ^^^ defined(_DEBUG) / !defined(_DEBUG) vvv
; 216  :     constexpr uintptr_t _Min_back_shift = sizeof(void*);
; 217  : #endif // ^^^ !defined(_DEBUG) ^^^
; 218  :     const uintptr_t _Back_shift = reinterpret_cast<uintptr_t>(_Ptr) - _Ptr_container;

  000f8	2b c2		 sub	 eax, edx

; 219  :     _STL_VERIFY(_Back_shift >= _Min_back_shift && _Back_shift <= _Non_user_size, "invalid argument");

  000fa	83 c0 fc	 add	 eax, -4			; fffffffcH
  000fd	83 f8 1f	 cmp	 eax, 31			; 0000001fH
  00100	77 2a		 ja	 SHORT $LN80@Emplace_re

; 220  :     _Ptr = reinterpret_cast<void*>(_Ptr_container);

  00102	8b c2		 mov	 eax, edx
$LN83@Emplace_re:

; 289  :         ::operator delete(_Ptr, _Bytes);

  00104	51		 push	 ecx
  00105	50		 push	 eax
  00106	e8 00 00 00 00	 call	 ??3@YAXPAXI@Z		; operator delete
  0010b	83 c4 08	 add	 esp, 8
$LN72@Emplace_re:
; File D:\Program Files\Microsoft Visual Studio\2022\Community\VC\Tools\MSVC\14.43.34808\include\vector

; 2061 :         _Mylast  = _Newvec + _Newsize;

  0010e	8b 45 f4	 mov	 eax, DWORD PTR __Newsize$1$[ebp]
  00111	89 3e		 mov	 DWORD PTR [esi], edi
  00113	8d 0c 87	 lea	 ecx, DWORD PTR [edi+eax*4]

; 901  :         _Change_array(_Newvec, _Newsize, _Newcapacity);
; 902  :         return _Newvec + _Whereoff;

  00116	8b c3		 mov	 eax, ebx

; 2061 :         _Mylast  = _Newvec + _Newsize;

  00118	89 4e 04	 mov	 DWORD PTR [esi+4], ecx

; 2062 :         _Myend   = _Newvec + _Newcapacity;

  0011b	8b 4d f8	 mov	 ecx, DWORD PTR tv652[ebp]
  0011e	03 cf		 add	 ecx, edi

; 903  :     }

  00120	5f		 pop	 edi

; 2062 :         _Myend   = _Newvec + _Newcapacity;

  00121	89 4e 08	 mov	 DWORD PTR [esi+8], ecx

; 903  :     }

  00124	5e		 pop	 esi
  00125	5b		 pop	 ebx
  00126	8b e5		 mov	 esp, ebp
  00128	5d		 pop	 ebp
  00129	c2 08 00	 ret	 8
$LN80@Emplace_re:
; File D:\Program Files\Microsoft Visual Studio\2022\Community\VC\Tools\MSVC\14.43.34808\include\xmemory

; 219  :     _STL_VERIFY(_Back_shift >= _Min_back_shift && _Back_shift <= _Non_user_size, "invalid argument");

  0012c	e8 00 00 00 00	 call	 __invalid_parameter_noinfo_noreturn
$LN123@Emplace_re:
; File D:\Program Files\Microsoft Visual Studio\2022\Community\VC\Tools\MSVC\14.43.34808\include\vector

; 873  :             _Xlength();

  00131	e8 00 00 00 00	 call	 ?_Xlength@?$vector@PAUSCharacterInfomation@CGraphicFontTexture@@V?$allocator@PAUSCharacterInfomation@CGraphicFontTexture@@@std@@@std@@CAXXZ ; std::vector<CGraphicFontTexture::SCharacterInfomation *,std::allocator<CGraphicFontTexture::SCharacterInfomation *> >::_Xlength
$LN124@Emplace_re:
; File D:\Program Files\Microsoft Visual Studio\2022\Community\VC\Tools\MSVC\14.43.34808\include\xmemory

; 118  :             _Throw_bad_array_new_length(); // multiply overflow

  00136	e8 00 00 00 00	 call	 ?_Throw_bad_array_new_length@std@@YAXXZ ; std::_Throw_bad_array_new_length
$LN120@Emplace_re:
  0013b	cc		 int	 3
??$_Emplace_reallocate@ABQAUSCharacterInfomation@CGraphicFontTexture@@@?$vector@PAUSCharacterInfomation@CGraphicFontTexture@@V?$allocator@PAUSCharacterInfomation@CGraphicFontTexture@@@std@@@std@@AAEPAPAUSCharacterInfomation@CGraphicFontTexture@@QAPAU23@ABQAU23@@Z ENDP ; std::vector<CGraphicFontTexture::SCharacterInfomation *,std::allocator<CGraphicFontTexture::SCharacterInfomation *> >::_Emplace_reallocate<CGraphicFontTexture::SCharacterInfomation * const &>
_TEXT	ENDS
; Function compile flags: /Ogtp
; File D:\Program Files\Microsoft Visual Studio\2022\Community\VC\Tools\MSVC\14.43.34808\include\vector
; File D:\Program Files\Microsoft Visual Studio\2022\Community\VC\Tools\MSVC\14.43.34808\include\xmemory
; File D:\Program Files\Microsoft Visual Studio\2022\Community\VC\Tools\MSVC\14.43.34808\include\vector
; File D:\Program Files\Microsoft Visual Studio\2022\Community\VC\Tools\MSVC\14.43.34808\include\xmemory
; File D:\Program Files\Microsoft Visual Studio\2022\Community\VC\Tools\MSVC\14.43.34808\include\vector
; File D:\Program Files\Microsoft Visual Studio\2022\Community\VC\Tools\MSVC\14.43.34808\include\xmemory
; File D:\Program Files\Microsoft Visual Studio\2022\Community\VC\Tools\MSVC\14.43.34808\include\vector
; File D:\Program Files\Microsoft Visual Studio\2022\Community\VC\Tools\MSVC\14.43.34808\include\xmemory
; File D:\Program Files\Microsoft Visual Studio\2022\Community\VC\Tools\MSVC\14.43.34808\include\vector
; File D:\Program Files\Microsoft Visual Studio\2022\Community\VC\Tools\MSVC\14.43.34808\include\xmemory
; File D:\Program Files\Microsoft Visual Studio\2022\Community\VC\Tools\MSVC\14.43.34808\include\vector
; File D:\Program Files\Microsoft Visual Studio\2022\Community\VC\Tools\MSVC\14.43.34808\include\xmemory
; File D:\Program Files\Microsoft Visual Studio\2022\Community\VC\Tools\MSVC\14.43.34808\include\vector
; File D:\Program Files\Microsoft Visual Studio\2022\Community\VC\Tools\MSVC\14.43.34808\include\xmemory
; File D:\Program Files\Microsoft Visual Studio\2022\Community\VC\Tools\MSVC\14.43.34808\include\vector
; File D:\Program Files\Microsoft Visual Studio\2022\Community\VC\Tools\MSVC\14.43.34808\include\xmemory
; File D:\Program Files\Microsoft Visual Studio\2022\Community\VC\Tools\MSVC\14.43.34808\include\vector
;	COMDAT ??$_Emplace_reallocate@ABK@?$vector@KV?$allocator@K@std@@@std@@AAEPAKQAKABK@Z
_TEXT	SEGMENT
__Newsize$1$ = -12					; size = 4
tv652 = -8						; size = 4
tv650 = -4						; size = 4
__Whereptr$ = 8						; size = 4
_<_Val_0>$ = 12						; size = 4
??$_Emplace_reallocate@ABK@?$vector@KV?$allocator@K@std@@@std@@AAEPAKQAKABK@Z PROC ; std::vector<unsigned long,std::allocator<unsigned long> >::_Emplace_reallocate<unsigned long const &>, COMDAT
; _this$ = ecx

; 860  :     _CONSTEXPR20 pointer _Emplace_reallocate(const pointer _Whereptr, _Valty&&... _Val) {

  00000	55		 push	 ebp
  00001	8b ec		 mov	 ebp, esp
  00003	83 ec 0c	 sub	 esp, 12			; 0000000cH
  00006	53		 push	 ebx

; 861  :         // reallocate and insert by perfectly forwarding _Val at _Whereptr
; 862  :         _Alty& _Al        = _Getal();
; 863  :         auto& _My_data    = _Mypair._Myval2;
; 864  :         pointer& _Myfirst = _My_data._Myfirst;
; 865  :         pointer& _Mylast  = _My_data._Mylast;
; 866  : 
; 867  :         _STL_INTERNAL_CHECK(_Mylast == _My_data._Myend); // check that we have no unused capacity
; 868  : 
; 869  :         const auto _Whereoff = static_cast<size_type>(_Whereptr - _Myfirst);

  00007	8b 5d 08	 mov	 ebx, DWORD PTR __Whereptr$[ebp]
  0000a	56		 push	 esi
  0000b	8b f1		 mov	 esi, ecx
  0000d	57		 push	 edi
  0000e	8b 0e		 mov	 ecx, DWORD PTR [esi]
  00010	2b d9		 sub	 ebx, ecx

; 870  :         const auto _Oldsize  = static_cast<size_type>(_Mylast - _Myfirst);

  00012	8b 46 04	 mov	 eax, DWORD PTR [esi+4]
  00015	2b c1		 sub	 eax, ecx
  00017	c1 fb 02	 sar	 ebx, 2
  0001a	c1 f8 02	 sar	 eax, 2

; 871  : 
; 872  :         if (_Oldsize == max_size()) {

  0001d	3d ff ff ff 3f	 cmp	 eax, 1073741823		; 3fffffffH
  00022	0f 84 09 01 00
	00		 je	 $LN123@Emplace_re

; 1909 :         return static_cast<size_type>(_My_data._Myend - _My_data._Myfirst);

  00028	8b 56 08	 mov	 edx, DWORD PTR [esi+8]

; 874  :         }
; 875  : 
; 876  :         const size_type _Newsize = _Oldsize + 1;

  0002b	8d 78 01	 lea	 edi, DWORD PTR [eax+1]

; 1909 :         return static_cast<size_type>(_My_data._Myend - _My_data._Myfirst);

  0002e	2b d1		 sub	 edx, ecx

; 874  :         }
; 875  : 
; 876  :         const size_type _Newsize = _Oldsize + 1;

  00030	89 7d f4	 mov	 DWORD PTR __Newsize$1$[ebp], edi

; 1909 :         return static_cast<size_type>(_My_data._Myend - _My_data._Myfirst);

  00033	c1 fa 02	 sar	 edx, 2

; 1996 :         if (_Oldcapacity > _Max - _Oldcapacity / 2) {

  00036	b8 ff ff ff 3f	 mov	 eax, 1073741823		; 3fffffffH
  0003b	8b ca		 mov	 ecx, edx
  0003d	d1 e9		 shr	 ecx, 1
  0003f	2b c1		 sub	 eax, ecx
  00041	3b d0		 cmp	 edx, eax
  00043	76 14		 jbe	 SHORT $LN8@Emplace_re

; 1997 :             return _Max; // geometric growth would overflow

  00045	b8 fc ff ff ff	 mov	 eax, -4			; fffffffcH
  0004a	c7 45 f8 fc ff
	ff ff		 mov	 DWORD PTR tv652[ebp], -4 ; fffffffcH
; File D:\Program Files\Microsoft Visual Studio\2022\Community\VC\Tools\MSVC\14.43.34808\include\xmemory

; 253  :             return _Allocate_manually_vector_aligned<_Traits>(_Bytes);

  00051	50		 push	 eax
  00052	e8 00 00 00 00	 call	 ??$_Allocate_manually_vector_aligned@U_Default_allocate_traits@std@@@std@@YAPAXI@Z ; std::_Allocate_manually_vector_aligned<std::_Default_allocate_traits>
  00057	eb 3d		 jmp	 SHORT $LN121@Emplace_re
$LN8@Emplace_re:
; File D:\Program Files\Microsoft Visual Studio\2022\Community\VC\Tools\MSVC\14.43.34808\include\vector

; 2000 :         const size_type _Geometric = _Oldcapacity + _Oldcapacity / 2;

  00059	8d 04 11	 lea	 eax, DWORD PTR [ecx+edx]
; File D:\Program Files\Microsoft Visual Studio\2022\Community\VC\Tools\MSVC\14.43.34808\include\xmemory

; 117  :         if (_Count > _Max_possible) {

  0005c	8b cf		 mov	 ecx, edi
  0005e	3b c7		 cmp	 eax, edi
  00060	0f 43 c8	 cmovae	 ecx, eax
  00063	81 f9 ff ff ff
	3f		 cmp	 ecx, 1073741823		; 3fffffffH
  00069	0f 87 c7 00 00
	00		 ja	 $LN124@Emplace_re

; 119  :         }
; 120  :     }
; 121  : 
; 122  :     return _Count * _Ty_size;

  0006f	8d 04 8d 00 00
	00 00		 lea	 eax, DWORD PTR [ecx*4]
  00076	89 45 f8	 mov	 DWORD PTR tv652[ebp], eax

; 227  :     if (_Bytes == 0) {

  00079	85 c0		 test	 eax, eax
  0007b	75 04		 jne	 SHORT $LN23@Emplace_re

; 228  :         return nullptr;

  0007d	33 ff		 xor	 edi, edi
  0007f	eb 1a		 jmp	 SHORT $LN22@Emplace_re
$LN23@Emplace_re:

; 229  :     }
; 230  : 
; 231  : #if _HAS_CXX20 // TRANSITION, GH-1532
; 232  :     if (_STD is_constant_evaluated()) {
; 233  :         return _Traits::_Allocate(_Bytes);
; 234  :     }
; 235  : #endif // _HAS_CXX20
; 236  : 
; 237  : #ifdef __cpp_aligned_new
; 238  :     if constexpr (_Align > __STDCPP_DEFAULT_NEW_ALIGNMENT__) {
; 239  :         size_t _Passed_align = _Align;
; 240  : #if defined(_M_IX86) || defined(_M_X64)
; 241  :         if (_Bytes >= _Big_allocation_threshold) {
; 242  :             // boost the alignment of big allocations to help autovectorization
; 243  :             _Passed_align = (_STD max)(_Align, _Big_allocation_alignment);
; 244  :         }
; 245  : #endif // defined(_M_IX86) || defined(_M_X64)
; 246  :         return _Traits::_Allocate_aligned(_Bytes, _Passed_align);
; 247  :     } else
; 248  : #endif // defined(__cpp_aligned_new)
; 249  :     {
; 250  : #if defined(_M_IX86) || defined(_M_X64)
; 251  :         if (_Bytes >= _Big_allocation_threshold) {

  00081	3d 00 10 00 00	 cmp	 eax, 4096		; 00001000H
  00086	72 08		 jb	 SHORT $LN24@Emplace_re

; 253  :             return _Allocate_manually_vector_aligned<_Traits>(_Bytes);

  00088	50		 push	 eax
  00089	e8 00 00 00 00	 call	 ??$_Allocate_manually_vector_aligned@U_Default_allocate_traits@std@@@std@@YAPAXI@Z ; std::_Allocate_manually_vector_aligned<std::_Default_allocate_traits>
  0008e	eb 06		 jmp	 SHORT $LN121@Emplace_re
$LN24@Emplace_re:

; 136  :         return ::operator new(_Bytes);

  00090	50		 push	 eax
  00091	e8 00 00 00 00	 call	 ??2@YAPAXI@Z		; operator new
$LN121@Emplace_re:
; File D:\Program Files\Microsoft Visual Studio\2022\Community\VC\Tools\MSVC\14.43.34808\include\vector

; 885  :         _Alty_traits::construct(_Al, _STD _Unfancy(_Newvec + _Whereoff), _STD forward<_Valty>(_Val)...);

  00096	8b f8		 mov	 edi, eax
  00098	83 c4 04	 add	 esp, 4
$LN22@Emplace_re:
  0009b	8b 45 0c	 mov	 eax, DWORD PTR _<_Val_0>$[ebp]
  0009e	8d 0c 9f	 lea	 ecx, DWORD PTR [edi+ebx*4]

; 886  :         _Constructed_first = _Newvec + _Whereoff;
; 887  : 
; 888  :         if (_Whereptr == _Mylast) { // at back, provide strong guarantee

  000a1	8b 5d 08	 mov	 ebx, DWORD PTR __Whereptr$[ebp]
  000a4	89 4d fc	 mov	 DWORD PTR tv650[ebp], ecx
  000a7	8b 00		 mov	 eax, DWORD PTR [eax]
  000a9	89 01		 mov	 DWORD PTR [ecx], eax
  000ab	8b 46 04	 mov	 eax, DWORD PTR [esi+4]
  000ae	8b 0e		 mov	 ecx, DWORD PTR [esi]
  000b0	3b d8		 cmp	 ebx, eax
  000b2	75 07		 jne	 SHORT $LN3@Emplace_re

; 894  :         } else { // provide basic guarantee

  000b4	8b 5d fc	 mov	 ebx, DWORD PTR tv650[ebp]
; File D:\Program Files\Microsoft Visual Studio\2022\Community\VC\Tools\MSVC\14.43.34808\include\xmemory

; 1955 :             _STD _Copy_memmove(_UFirst, _ULast, _STD _Unfancy(_Dest));

  000b7	8b d7		 mov	 edx, edi
; File D:\Program Files\Microsoft Visual Studio\2022\Community\VC\Tools\MSVC\14.43.34808\include\vector

; 894  :         } else { // provide basic guarantee

  000b9	eb 16		 jmp	 SHORT $LN52@Emplace_re
$LN3@Emplace_re:
; File D:\Program Files\Microsoft Visual Studio\2022\Community\VC\Tools\MSVC\14.43.34808\include\xmemory

; 1955 :             _STD _Copy_memmove(_UFirst, _ULast, _STD _Unfancy(_Dest));

  000bb	57		 push	 edi
  000bc	53		 push	 ebx
  000bd	51		 push	 ecx
  000be	e8 00 00 00 00	 call	 ??$_Copy_memmove@PAKPAK@std@@YAPAKPAK00@Z ; std::_Copy_memmove<unsigned long *,unsigned long *>
  000c3	8b 46 04	 mov	 eax, DWORD PTR [esi+4]
  000c6	8b cb		 mov	 ecx, ebx
; File D:\Program Files\Microsoft Visual Studio\2022\Community\VC\Tools\MSVC\14.43.34808\include\vector

; 897  :             _STD _Uninitialized_move(_Whereptr, _Mylast, _Newvec + _Whereoff + 1, _Al);

  000c8	8b 5d fc	 mov	 ebx, DWORD PTR tv650[ebp]
; File D:\Program Files\Microsoft Visual Studio\2022\Community\VC\Tools\MSVC\14.43.34808\include\xmemory

; 1955 :             _STD _Copy_memmove(_UFirst, _ULast, _STD _Unfancy(_Dest));

  000cb	83 c4 0c	 add	 esp, 12			; 0000000cH
; File D:\Program Files\Microsoft Visual Studio\2022\Community\VC\Tools\MSVC\14.43.34808\include\vector

; 897  :             _STD _Uninitialized_move(_Whereptr, _Mylast, _Newvec + _Whereoff + 1, _Al);

  000ce	8d 53 04	 lea	 edx, DWORD PTR [ebx+4]
$LN52@Emplace_re:

; 898  :         }
; 899  : 
; 900  :         _Guard._New_begin = nullptr;

  000d1	52		 push	 edx
  000d2	50		 push	 eax
  000d3	51		 push	 ecx
  000d4	e8 00 00 00 00	 call	 ??$_Copy_memmove@PAKPAK@std@@YAPAKPAK00@Z ; std::_Copy_memmove<unsigned long *,unsigned long *>

; 2054 :         if (_Myfirst) { // destroy and deallocate old array

  000d9	8b 06		 mov	 eax, DWORD PTR [esi]

; 898  :         }
; 899  : 
; 900  :         _Guard._New_begin = nullptr;

  000db	83 c4 0c	 add	 esp, 12			; 0000000cH

; 2054 :         if (_Myfirst) { // destroy and deallocate old array

  000de	85 c0		 test	 eax, eax
  000e0	74 2c		 je	 SHORT $LN72@Emplace_re

; 2055 :             _STD _Destroy_range(_Myfirst, _Mylast, _Al);
; 2056 :             _ASAN_VECTOR_REMOVE;
; 2057 :             _Al.deallocate(_Myfirst, static_cast<size_type>(_Myend - _Myfirst));

  000e2	8b 4e 08	 mov	 ecx, DWORD PTR [esi+8]
  000e5	2b c8		 sub	 ecx, eax
; File D:\Program Files\Microsoft Visual Studio\2022\Community\VC\Tools\MSVC\14.43.34808\include\xmemory

; 981  :         _STD _Deallocate<_New_alignof<_Ty>>(_Ptr, sizeof(_Ty) * _Count);

  000e7	83 e1 fc	 and	 ecx, -4			; fffffffcH

; 284  :         if (_Bytes >= _Big_allocation_threshold) {

  000ea	81 f9 00 10 00
	00		 cmp	 ecx, 4096		; 00001000H
  000f0	72 12		 jb	 SHORT $LN83@Emplace_re

; 205  :     const uintptr_t _Ptr_container   = _Ptr_user[-1];

  000f2	8b 50 fc	 mov	 edx, DWORD PTR [eax-4]
  000f5	83 c1 23	 add	 ecx, 35			; 00000023H

; 206  : 
; 207  :     // If the following asserts, it likely means that we are performing
; 208  :     // an aligned delete on memory coming from an unaligned allocation.
; 209  :     _STL_ASSERT(_Ptr_user[-2] == _Big_allocation_sentinel, "invalid argument");
; 210  : 
; 211  :     // Extra paranoia on aligned allocation/deallocation; ensure _Ptr_container is
; 212  :     // in range [_Min_back_shift, _Non_user_size]
; 213  : #ifdef _DEBUG
; 214  :     constexpr uintptr_t _Min_back_shift = 2 * sizeof(void*);
; 215  : #else // ^^^ defined(_DEBUG) / !defined(_DEBUG) vvv
; 216  :     constexpr uintptr_t _Min_back_shift = sizeof(void*);
; 217  : #endif // ^^^ !defined(_DEBUG) ^^^
; 218  :     const uintptr_t _Back_shift = reinterpret_cast<uintptr_t>(_Ptr) - _Ptr_container;

  000f8	2b c2		 sub	 eax, edx

; 219  :     _STL_VERIFY(_Back_shift >= _Min_back_shift && _Back_shift <= _Non_user_size, "invalid argument");

  000fa	83 c0 fc	 add	 eax, -4			; fffffffcH
  000fd	83 f8 1f	 cmp	 eax, 31			; 0000001fH
  00100	77 2a		 ja	 SHORT $LN80@Emplace_re

; 220  :     _Ptr = reinterpret_cast<void*>(_Ptr_container);

  00102	8b c2		 mov	 eax, edx
$LN83@Emplace_re:

; 289  :         ::operator delete(_Ptr, _Bytes);

  00104	51		 push	 ecx
  00105	50		 push	 eax
  00106	e8 00 00 00 00	 call	 ??3@YAXPAXI@Z		; operator delete
  0010b	83 c4 08	 add	 esp, 8
$LN72@Emplace_re:
; File D:\Program Files\Microsoft Visual Studio\2022\Community\VC\Tools\MSVC\14.43.34808\include\vector

; 2061 :         _Mylast  = _Newvec + _Newsize;

  0010e	8b 45 f4	 mov	 eax, DWORD PTR __Newsize$1$[ebp]
  00111	89 3e		 mov	 DWORD PTR [esi], edi
  00113	8d 0c 87	 lea	 ecx, DWORD PTR [edi+eax*4]

; 901  :         _Change_array(_Newvec, _Newsize, _Newcapacity);
; 902  :         return _Newvec + _Whereoff;

  00116	8b c3		 mov	 eax, ebx

; 2061 :         _Mylast  = _Newvec + _Newsize;

  00118	89 4e 04	 mov	 DWORD PTR [esi+4], ecx

; 2062 :         _Myend   = _Newvec + _Newcapacity;

  0011b	8b 4d f8	 mov	 ecx, DWORD PTR tv652[ebp]
  0011e	03 cf		 add	 ecx, edi

; 903  :     }

  00120	5f		 pop	 edi

; 2062 :         _Myend   = _Newvec + _Newcapacity;

  00121	89 4e 08	 mov	 DWORD PTR [esi+8], ecx

; 903  :     }

  00124	5e		 pop	 esi
  00125	5b		 pop	 ebx
  00126	8b e5		 mov	 esp, ebp
  00128	5d		 pop	 ebp
  00129	c2 08 00	 ret	 8
$LN80@Emplace_re:
; File D:\Program Files\Microsoft Visual Studio\2022\Community\VC\Tools\MSVC\14.43.34808\include\xmemory

; 219  :     _STL_VERIFY(_Back_shift >= _Min_back_shift && _Back_shift <= _Non_user_size, "invalid argument");

  0012c	e8 00 00 00 00	 call	 __invalid_parameter_noinfo_noreturn
$LN123@Emplace_re:
; File D:\Program Files\Microsoft Visual Studio\2022\Community\VC\Tools\MSVC\14.43.34808\include\vector

; 873  :             _Xlength();

  00131	e8 00 00 00 00	 call	 ?_Xlength@?$vector@KV?$allocator@K@std@@@std@@CAXXZ ; std::vector<unsigned long,std::allocator<unsigned long> >::_Xlength
$LN124@Emplace_re:
; File D:\Program Files\Microsoft Visual Studio\2022\Community\VC\Tools\MSVC\14.43.34808\include\xmemory

; 118  :             _Throw_bad_array_new_length(); // multiply overflow

  00136	e8 00 00 00 00	 call	 ?_Throw_bad_array_new_length@std@@YAXXZ ; std::_Throw_bad_array_new_length
$LN120@Emplace_re:
  0013b	cc		 int	 3
??$_Emplace_reallocate@ABK@?$vector@KV?$allocator@K@std@@@std@@AAEPAKQAKABK@Z ENDP ; std::vector<unsigned long,std::allocator<unsigned long> >::_Emplace_reallocate<unsigned long const &>
_TEXT	ENDS
; Function compile flags: /Ogtp
; File D:\Program Files\Microsoft Visual Studio\2022\Community\VC\Tools\MSVC\14.43.34808\include\vector
; File D:\Program Files\Microsoft Visual Studio\2022\Community\VC\Tools\MSVC\14.43.34808\include\xmemory
; File D:\Program Files\Microsoft Visual Studio\2022\Community\VC\Tools\MSVC\14.43.34808\include\vector
; File D:\Program Files\Microsoft Visual Studio\2022\Community\VC\Tools\MSVC\14.43.34808\include\xmemory
; File D:\Program Files\Microsoft Visual Studio\2022\Community\VC\Tools\MSVC\14.43.34808\include\vector
; File D:\Program Files\Microsoft Visual Studio\2022\Community\VC\Tools\MSVC\14.43.34808\include\xmemory
; File D:\Program Files\Microsoft Visual Studio\2022\Community\VC\Tools\MSVC\14.43.34808\include\vector
; File D:\Program Files\Microsoft Visual Studio\2022\Community\VC\Tools\MSVC\14.43.34808\include\xmemory
; File D:\Program Files\Microsoft Visual Studio\2022\Community\VC\Tools\MSVC\14.43.34808\include\vector
; File D:\Program Files\Microsoft Visual Studio\2022\Community\VC\Tools\MSVC\14.43.34808\include\xmemory
; File D:\Program Files\Microsoft Visual Studio\2022\Community\VC\Tools\MSVC\14.43.34808\include\vector
; File D:\Program Files\Microsoft Visual Studio\2022\Community\VC\Tools\MSVC\14.43.34808\include\xmemory
; File D:\Program Files\Microsoft Visual Studio\2022\Community\VC\Tools\MSVC\14.43.34808\include\vector
; File D:\Program Files\Microsoft Visual Studio\2022\Community\VC\Tools\MSVC\14.43.34808\include\xmemory
; File D:\Program Files\Microsoft Visual Studio\2022\Community\VC\Tools\MSVC\14.43.34808\include\vector
;	COMDAT ??$_Emplace_reallocate@ABUSHyperlink@CGraphicTextInstance@@@?$vector@USHyperlink@CGraphicTextInstance@@V?$allocator@USHyperlink@CGraphicTextInstance@@@std@@@std@@AAEPAUSHyperlink@CGraphicTextInstance@@QAU23@ABU23@@Z
_TEXT	SEGMENT
__Guard$ = -52						; size = 20
tv566 = -32						; size = 4
__Newsize$1$ = -28					; size = 4
_this$1$ = -24						; size = 4
__Whereoff$1$ = -20					; size = 4
$T2 = -20						; size = 4
tv567 = -16						; size = 4
__$EHRec$ = -12						; size = 12
__Whereptr$ = 8						; size = 4
_<_Val_0>$ = 12						; size = 4
??$_Emplace_reallocate@ABUSHyperlink@CGraphicTextInstance@@@?$vector@USHyperlink@CGraphicTextInstance@@V?$allocator@USHyperlink@CGraphicTextInstance@@@std@@@std@@AAEPAUSHyperlink@CGraphicTextInstance@@QAU23@ABU23@@Z PROC ; std::vector<CGraphicTextInstance::SHyperlink,std::allocator<CGraphicTextInstance::SHyperlink> >::_Emplace_reallocate<CGraphicTextInstance::SHyperlink const &>, COMDAT
; _this$ = ecx

; 860  :     _CONSTEXPR20 pointer _Emplace_reallocate(const pointer _Whereptr, _Valty&&... _Val) {

  00000	55		 push	 ebp
  00001	8b ec		 mov	 ebp, esp
  00003	6a ff		 push	 -1
  00005	68 00 00 00 00	 push	 __ehhandler$??$_Emplace_reallocate@ABUSHyperlink@CGraphicTextInstance@@@?$vector@USHyperlink@CGraphicTextInstance@@V?$allocator@USHyperlink@CGraphicTextInstance@@@std@@@std@@AAEPAUSHyperlink@CGraphicTextInstance@@QAU23@ABU23@@Z
  0000a	64 a1 00 00 00
	00		 mov	 eax, DWORD PTR fs:0
  00010	50		 push	 eax
  00011	83 ec 28	 sub	 esp, 40			; 00000028H
  00014	53		 push	 ebx
  00015	56		 push	 esi
  00016	57		 push	 edi
  00017	a1 00 00 00 00	 mov	 eax, DWORD PTR ___security_cookie
  0001c	33 c5		 xor	 eax, ebp
  0001e	50		 push	 eax
  0001f	8d 45 f4	 lea	 eax, DWORD PTR __$EHRec$[ebp]
  00022	64 a3 00 00 00
	00		 mov	 DWORD PTR fs:0, eax
  00028	8b f9		 mov	 edi, ecx
  0002a	89 7d e8	 mov	 DWORD PTR _this$1$[ebp], edi

; 861  :         // reallocate and insert by perfectly forwarding _Val at _Whereptr
; 862  :         _Alty& _Al        = _Getal();
; 863  :         auto& _My_data    = _Mypair._Myval2;
; 864  :         pointer& _Myfirst = _My_data._Myfirst;
; 865  :         pointer& _Mylast  = _My_data._Mylast;
; 866  : 
; 867  :         _STL_INTERNAL_CHECK(_Mylast == _My_data._Myend); // check that we have no unused capacity
; 868  : 
; 869  :         const auto _Whereoff = static_cast<size_type>(_Whereptr - _Myfirst);

  0002d	8b 75 08	 mov	 esi, DWORD PTR __Whereptr$[ebp]
  00030	b8 93 24 49 92	 mov	 eax, -1840700269	; 92492493H
  00035	2b 37		 sub	 esi, DWORD PTR [edi]

; 870  :         const auto _Oldsize  = static_cast<size_type>(_Mylast - _Myfirst);

  00037	8b 4f 04	 mov	 ecx, DWORD PTR [edi+4]
  0003a	2b 0f		 sub	 ecx, DWORD PTR [edi]
  0003c	f7 ee		 imul	 esi
  0003e	03 d6		 add	 edx, esi
  00040	c1 fa 04	 sar	 edx, 4
  00043	8b c2		 mov	 eax, edx
  00045	c1 e8 1f	 shr	 eax, 31			; 0000001fH
  00048	03 c2		 add	 eax, edx
  0004a	89 45 ec	 mov	 DWORD PTR __Whereoff$1$[ebp], eax
  0004d	b8 93 24 49 92	 mov	 eax, -1840700269	; 92492493H
  00052	f7 e9		 imul	 ecx
  00054	03 d1		 add	 edx, ecx
  00056	c1 fa 04	 sar	 edx, 4
  00059	8b c2		 mov	 eax, edx
  0005b	c1 e8 1f	 shr	 eax, 31			; 0000001fH
  0005e	03 c2		 add	 eax, edx

; 871  : 
; 872  :         if (_Oldsize == max_size()) {

  00060	3d 49 92 24 09	 cmp	 eax, 153391689		; 09249249H
  00065	0f 84 9a 01 00
	00		 je	 $LN115@Emplace_re

; 1909 :         return static_cast<size_type>(_My_data._Myend - _My_data._Myfirst);

  0006b	8b 4f 08	 mov	 ecx, DWORD PTR [edi+8]

; 874  :         }
; 875  : 
; 876  :         const size_type _Newsize = _Oldsize + 1;

  0006e	8d 58 01	 lea	 ebx, DWORD PTR [eax+1]

; 1909 :         return static_cast<size_type>(_My_data._Myend - _My_data._Myfirst);

  00071	2b 0f		 sub	 ecx, DWORD PTR [edi]
  00073	b8 93 24 49 92	 mov	 eax, -1840700269	; 92492493H
  00078	f7 e9		 imul	 ecx

; 1996 :         if (_Oldcapacity > _Max - _Oldcapacity / 2) {

  0007a	b8 49 92 24 09	 mov	 eax, 153391689		; 09249249H

; 874  :         }
; 875  : 
; 876  :         const size_type _Newsize = _Oldsize + 1;

  0007f	89 5d e4	 mov	 DWORD PTR __Newsize$1$[ebp], ebx

; 1909 :         return static_cast<size_type>(_My_data._Myend - _My_data._Myfirst);

  00082	03 d1		 add	 edx, ecx
  00084	c1 fa 04	 sar	 edx, 4
  00087	8b ca		 mov	 ecx, edx
  00089	c1 e9 1f	 shr	 ecx, 31			; 0000001fH
  0008c	03 ca		 add	 ecx, edx

; 1996 :         if (_Oldcapacity > _Max - _Oldcapacity / 2) {

  0008e	8b d1		 mov	 edx, ecx
  00090	d1 ea		 shr	 edx, 1
  00092	2b c2		 sub	 eax, edx
  00094	3b c8		 cmp	 ecx, eax
  00096	76 19		 jbe	 SHORT $LN8@Emplace_re

; 1997 :             return _Max; // geometric growth would overflow

  00098	b8 fc ff ff ff	 mov	 eax, -4			; fffffffcH
  0009d	c7 45 f0 fc ff
	ff ff		 mov	 DWORD PTR tv567[ebp], -4 ; fffffffcH
; File D:\Program Files\Microsoft Visual Studio\2022\Community\VC\Tools\MSVC\14.43.34808\include\xmemory

; 253  :             return _Allocate_manually_vector_aligned<_Traits>(_Bytes);

  000a4	50		 push	 eax
; File D:\Program Files\Microsoft Visual Studio\2022\Community\VC\Tools\MSVC\14.43.34808\include\vector

; 1997 :             return _Max; // geometric growth would overflow

  000a5	be 49 92 24 09	 mov	 esi, 153391689		; 09249249H
; File D:\Program Files\Microsoft Visual Studio\2022\Community\VC\Tools\MSVC\14.43.34808\include\xmemory

; 253  :             return _Allocate_manually_vector_aligned<_Traits>(_Bytes);

  000aa	e8 00 00 00 00	 call	 ??$_Allocate_manually_vector_aligned@U_Default_allocate_traits@std@@@std@@YAPAXI@Z ; std::_Allocate_manually_vector_aligned<std::_Default_allocate_traits>
  000af	eb 42		 jmp	 SHORT $LN113@Emplace_re
$LN8@Emplace_re:
; File D:\Program Files\Microsoft Visual Studio\2022\Community\VC\Tools\MSVC\14.43.34808\include\vector

; 2000 :         const size_type _Geometric = _Oldcapacity + _Oldcapacity / 2;

  000b1	8d 04 0a	 lea	 eax, DWORD PTR [edx+ecx]
; File D:\Program Files\Microsoft Visual Studio\2022\Community\VC\Tools\MSVC\14.43.34808\include\xmemory

; 117  :         if (_Count > _Max_possible) {

  000b4	8b f3		 mov	 esi, ebx
  000b6	3b c3		 cmp	 eax, ebx
  000b8	0f 43 f0	 cmovae	 esi, eax
  000bb	81 fe 49 92 24
	09		 cmp	 esi, 153391689		; 09249249H
  000c1	0f 87 43 01 00
	00		 ja	 $LN116@Emplace_re

; 119  :         }
; 120  :     }
; 121  : 
; 122  :     return _Count * _Ty_size;

  000c7	8d 04 f5 00 00
	00 00		 lea	 eax, DWORD PTR [esi*8]
  000ce	2b c6		 sub	 eax, esi
  000d0	c1 e0 02	 shl	 eax, 2
  000d3	89 45 f0	 mov	 DWORD PTR tv567[ebp], eax

; 227  :     if (_Bytes == 0) {

  000d6	85 c0		 test	 eax, eax
  000d8	75 04		 jne	 SHORT $LN23@Emplace_re

; 228  :         return nullptr;

  000da	33 db		 xor	 ebx, ebx
  000dc	eb 1a		 jmp	 SHORT $LN22@Emplace_re
$LN23@Emplace_re:

; 229  :     }
; 230  : 
; 231  : #if _HAS_CXX20 // TRANSITION, GH-1532
; 232  :     if (_STD is_constant_evaluated()) {
; 233  :         return _Traits::_Allocate(_Bytes);
; 234  :     }
; 235  : #endif // _HAS_CXX20
; 236  : 
; 237  : #ifdef __cpp_aligned_new
; 238  :     if constexpr (_Align > __STDCPP_DEFAULT_NEW_ALIGNMENT__) {
; 239  :         size_t _Passed_align = _Align;
; 240  : #if defined(_M_IX86) || defined(_M_X64)
; 241  :         if (_Bytes >= _Big_allocation_threshold) {
; 242  :             // boost the alignment of big allocations to help autovectorization
; 243  :             _Passed_align = (_STD max)(_Align, _Big_allocation_alignment);
; 244  :         }
; 245  : #endif // defined(_M_IX86) || defined(_M_X64)
; 246  :         return _Traits::_Allocate_aligned(_Bytes, _Passed_align);
; 247  :     } else
; 248  : #endif // defined(__cpp_aligned_new)
; 249  :     {
; 250  : #if defined(_M_IX86) || defined(_M_X64)
; 251  :         if (_Bytes >= _Big_allocation_threshold) {

  000de	3d 00 10 00 00	 cmp	 eax, 4096		; 00001000H
  000e3	72 08		 jb	 SHORT $LN24@Emplace_re

; 253  :             return _Allocate_manually_vector_aligned<_Traits>(_Bytes);

  000e5	50		 push	 eax
  000e6	e8 00 00 00 00	 call	 ??$_Allocate_manually_vector_aligned@U_Default_allocate_traits@std@@@std@@YAPAXI@Z ; std::_Allocate_manually_vector_aligned<std::_Default_allocate_traits>
  000eb	eb 06		 jmp	 SHORT $LN113@Emplace_re
$LN24@Emplace_re:

; 136  :         return ::operator new(_Bytes);

  000ed	50		 push	 eax
  000ee	e8 00 00 00 00	 call	 ??2@YAPAXI@Z		; operator new
$LN113@Emplace_re:
; File D:\Program Files\Microsoft Visual Studio\2022\Community\VC\Tools\MSVC\14.43.34808\include\vector

; 880  :         const pointer _Constructed_last = _Newvec + _Whereoff + 1;

  000f3	8b d8		 mov	 ebx, eax
  000f5	83 c4 04	 add	 esp, 4
$LN22@Emplace_re:
  000f8	8b 4d ec	 mov	 ecx, DWORD PTR __Whereoff$1$[ebp]

; 881  : 
; 882  :         _Reallocation_guard _Guard{_Al, _Newvec, _Newcapacity, _Constructed_last, _Constructed_last};

  000fb	89 7d cc	 mov	 DWORD PTR __Guard$[ebp], edi
  000fe	89 5d d0	 mov	 DWORD PTR __Guard$[ebp+4], ebx
  00101	89 75 d4	 mov	 DWORD PTR __Guard$[ebp+8], esi
  00104	8d 04 cd 00 00
	00 00		 lea	 eax, DWORD PTR [ecx*8]
  0010b	2b c1		 sub	 eax, ecx
  0010d	8d 0c 83	 lea	 ecx, DWORD PTR [ebx+eax*4]
  00110	8d 41 1c	 lea	 eax, DWORD PTR [ecx+28]
  00113	89 4d e0	 mov	 DWORD PTR tv566[ebp], ecx
  00116	89 45 ec	 mov	 DWORD PTR $T2[ebp], eax
  00119	89 45 d8	 mov	 DWORD PTR __Guard$[ebp+12], eax
  0011c	89 45 dc	 mov	 DWORD PTR __Guard$[ebp+16], eax

; 883  :         auto& _Constructed_first = _Guard._Constructed_first;
; 884  : 
; 885  :         _Alty_traits::construct(_Al, _STD _Unfancy(_Newvec + _Whereoff), _STD forward<_Valty>(_Val)...);

  0011f	ff 75 0c	 push	 DWORD PTR _<_Val_0>$[ebp]
  00122	c7 45 fc 00 00
	00 00		 mov	 DWORD PTR __$EHRec$[ebp+8], 0
  00129	51		 push	 ecx
  0012a	57		 push	 edi
  0012b	e8 00 00 00 00	 call	 ??$construct@USHyperlink@CGraphicTextInstance@@ABU12@@?$_Default_allocator_traits@V?$allocator@USHyperlink@CGraphicTextInstance@@@std@@@std@@SAXAAV?$allocator@USHyperlink@CGraphicTextInstance@@@1@QAUSHyperlink@CGraphicTextInstance@@ABU34@@Z ; std::_Default_allocator_traits<std::allocator<CGraphicTextInstance::SHyperlink> >::construct<CGraphicTextInstance::SHyperlink,CGraphicTextInstance::SHyperlink const &>

; 886  :         _Constructed_first = _Newvec + _Whereoff;
; 887  : 
; 888  :         if (_Whereptr == _Mylast) { // at back, provide strong guarantee

  00130	8b 57 04	 mov	 edx, DWORD PTR [edi+4]
  00133	83 c4 0c	 add	 esp, 12			; 0000000cH
  00136	8b 75 08	 mov	 esi, DWORD PTR __Whereptr$[ebp]
  00139	8b 0f		 mov	 ecx, DWORD PTR [edi]
  0013b	3b f2		 cmp	 esi, edx
  0013d	75 04		 jne	 SHORT $LN3@Emplace_re

; 889  :             if constexpr (is_nothrow_move_constructible_v<_Ty> || !is_copy_constructible_v<_Ty>) {
; 890  :                 _STD _Uninitialized_move(_Myfirst, _Mylast, _Newvec, _Al);

  0013f	8b c3		 mov	 eax, ebx

; 891  :             } else {
; 892  :                 _STD _Uninitialized_copy(_Myfirst, _Mylast, _Newvec, _Al);
; 893  :             }
; 894  :         } else { // provide basic guarantee

  00141	eb 14		 jmp	 SHORT $LN4@Emplace_re
$LN3@Emplace_re:

; 895  :             _STD _Uninitialized_move(_Myfirst, _Whereptr, _Newvec, _Al);

  00143	57		 push	 edi
  00144	53		 push	 ebx
  00145	56		 push	 esi
  00146	51		 push	 ecx
  00147	e8 00 00 00 00	 call	 ??$_Uninitialized_move@PAUSHyperlink@CGraphicTextInstance@@V?$allocator@USHyperlink@CGraphicTextInstance@@@std@@@std@@YAPAUSHyperlink@CGraphicTextInstance@@QAU12@0PAU12@AAV?$allocator@USHyperlink@CGraphicTextInstance@@@0@@Z ; std::_Uninitialized_move<CGraphicTextInstance::SHyperlink *,std::allocator<CGraphicTextInstance::SHyperlink> >

; 896  :             _Constructed_first = _Newvec;
; 897  :             _STD _Uninitialized_move(_Whereptr, _Mylast, _Newvec + _Whereoff + 1, _Al);

  0014c	8b 57 04	 mov	 edx, DWORD PTR [edi+4]
  0014f	83 c4 10	 add	 esp, 16			; 00000010H
  00152	8b 45 ec	 mov	 eax, DWORD PTR $T2[ebp]
  00155	8b ce		 mov	 ecx, esi
$LN4@Emplace_re:

; 898  :         }
; 899  : 
; 900  :         _Guard._New_begin = nullptr;

  00157	57		 push	 edi
  00158	50		 push	 eax
  00159	52		 push	 edx
  0015a	51		 push	 ecx
  0015b	e8 00 00 00 00	 call	 ??$_Uninitialized_move@PAUSHyperlink@CGraphicTextInstance@@V?$allocator@USHyperlink@CGraphicTextInstance@@@std@@@std@@YAPAUSHyperlink@CGraphicTextInstance@@QAU12@0PAU12@AAV?$allocator@USHyperlink@CGraphicTextInstance@@@0@@Z ; std::_Uninitialized_move<CGraphicTextInstance::SHyperlink *,std::allocator<CGraphicTextInstance::SHyperlink> >

; 2054 :         if (_Myfirst) { // destroy and deallocate old array

  00160	8b 37		 mov	 esi, DWORD PTR [edi]

; 898  :         }
; 899  : 
; 900  :         _Guard._New_begin = nullptr;

  00162	83 c4 10	 add	 esp, 16			; 00000010H

; 2054 :         if (_Myfirst) { // destroy and deallocate old array

  00165	85 f6		 test	 esi, esi
  00167	74 64		 je	 SHORT $LN51@Emplace_re

; 2055 :             _STD _Destroy_range(_Myfirst, _Mylast, _Al);

  00169	8b 47 04	 mov	 eax, DWORD PTR [edi+4]
; File D:\Program Files\Microsoft Visual Studio\2022\Community\VC\Tools\MSVC\14.43.34808\include\xmemory

; 1098 :         for (; _First != _Last; ++_First) {

  0016c	3b f0		 cmp	 esi, eax
  0016e	74 13		 je	 SHORT $LN36@Emplace_re
  00170	8b f8		 mov	 edi, eax
$LL37@Emplace_re:
  00172	8b ce		 mov	 ecx, esi
  00174	e8 00 00 00 00	 call	 ??1SHyperlink@CGraphicTextInstance@@QAE@XZ
  00179	83 c6 1c	 add	 esi, 28			; 0000001cH
  0017c	3b f7		 cmp	 esi, edi
  0017e	75 f2		 jne	 SHORT $LL37@Emplace_re
  00180	8b 7d e8	 mov	 edi, DWORD PTR _this$1$[ebp]
$LN36@Emplace_re:
; File D:\Program Files\Microsoft Visual Studio\2022\Community\VC\Tools\MSVC\14.43.34808\include\vector

; 2057 :             _Al.deallocate(_Myfirst, static_cast<size_type>(_Myend - _Myfirst));

  00183	8b 4f 08	 mov	 ecx, DWORD PTR [edi+8]
  00186	b8 93 24 49 92	 mov	 eax, -1840700269	; 92492493H
  0018b	8b 37		 mov	 esi, DWORD PTR [edi]
  0018d	2b ce		 sub	 ecx, esi
  0018f	f7 e9		 imul	 ecx
  00191	03 d1		 add	 edx, ecx
  00193	c1 fa 04	 sar	 edx, 4
  00196	8b c2		 mov	 eax, edx
  00198	c1 e8 1f	 shr	 eax, 31			; 0000001fH
  0019b	03 c2		 add	 eax, edx
; File D:\Program Files\Microsoft Visual Studio\2022\Community\VC\Tools\MSVC\14.43.34808\include\xmemory

; 981  :         _STD _Deallocate<_New_alignof<_Ty>>(_Ptr, sizeof(_Ty) * _Count);

  0019d	8d 0c c5 00 00
	00 00		 lea	 ecx, DWORD PTR [eax*8]
  001a4	2b c8		 sub	 ecx, eax
  001a6	c1 e1 02	 shl	 ecx, 2

; 284  :         if (_Bytes >= _Big_allocation_threshold) {

  001a9	81 f9 00 10 00
	00		 cmp	 ecx, 4096		; 00001000H
  001af	72 12		 jb	 SHORT $LN62@Emplace_re

; 205  :     const uintptr_t _Ptr_container   = _Ptr_user[-1];

  001b1	8b 56 fc	 mov	 edx, DWORD PTR [esi-4]
  001b4	83 c1 23	 add	 ecx, 35			; 00000023H

; 206  : 
; 207  :     // If the following asserts, it likely means that we are performing
; 208  :     // an aligned delete on memory coming from an unaligned allocation.
; 209  :     _STL_ASSERT(_Ptr_user[-2] == _Big_allocation_sentinel, "invalid argument");
; 210  : 
; 211  :     // Extra paranoia on aligned allocation/deallocation; ensure _Ptr_container is
; 212  :     // in range [_Min_back_shift, _Non_user_size]
; 213  : #ifdef _DEBUG
; 214  :     constexpr uintptr_t _Min_back_shift = 2 * sizeof(void*);
; 215  : #else // ^^^ defined(_DEBUG) / !defined(_DEBUG) vvv
; 216  :     constexpr uintptr_t _Min_back_shift = sizeof(void*);
; 217  : #endif // ^^^ !defined(_DEBUG) ^^^
; 218  :     const uintptr_t _Back_shift = reinterpret_cast<uintptr_t>(_Ptr) - _Ptr_container;

  001b7	2b f2		 sub	 esi, edx

; 219  :     _STL_VERIFY(_Back_shift >= _Min_back_shift && _Back_shift <= _Non_user_size, "invalid argument");

  001b9	8d 46 fc	 lea	 eax, DWORD PTR [esi-4]
  001bc	83 f8 1f	 cmp	 eax, 31			; 0000001fH
  001bf	77 3f		 ja	 SHORT $LN59@Emplace_re

; 220  :     _Ptr = reinterpret_cast<void*>(_Ptr_container);

  001c1	8b f2		 mov	 esi, edx
$LN62@Emplace_re:

; 289  :         ::operator delete(_Ptr, _Bytes);

  001c3	51		 push	 ecx
  001c4	56		 push	 esi
  001c5	e8 00 00 00 00	 call	 ??3@YAXPAXI@Z		; operator delete
  001ca	83 c4 08	 add	 esp, 8
$LN51@Emplace_re:
; File D:\Program Files\Microsoft Visual Studio\2022\Community\VC\Tools\MSVC\14.43.34808\include\vector

; 2061 :         _Mylast  = _Newvec + _Newsize;

  001cd	8b 55 e4	 mov	 edx, DWORD PTR __Newsize$1$[ebp]

; 901  :         _Change_array(_Newvec, _Newsize, _Newcapacity);
; 902  :         return _Newvec + _Whereoff;

  001d0	8b 45 e0	 mov	 eax, DWORD PTR tv566[ebp]

; 2060 :         _Myfirst = _Newvec;

  001d3	89 1f		 mov	 DWORD PTR [edi], ebx

; 2061 :         _Mylast  = _Newvec + _Newsize;

  001d5	8d 0c d5 00 00
	00 00		 lea	 ecx, DWORD PTR [edx*8]
  001dc	2b ca		 sub	 ecx, edx
  001de	8d 0c 8b	 lea	 ecx, DWORD PTR [ebx+ecx*4]
  001e1	89 4f 04	 mov	 DWORD PTR [edi+4], ecx

; 2062 :         _Myend   = _Newvec + _Newcapacity;

  001e4	8b 4d f0	 mov	 ecx, DWORD PTR tv567[ebp]
  001e7	03 cb		 add	 ecx, ebx
  001e9	89 4f 08	 mov	 DWORD PTR [edi+8], ecx

; 903  :     }

  001ec	8b 4d f4	 mov	 ecx, DWORD PTR __$EHRec$[ebp]
  001ef	64 89 0d 00 00
	00 00		 mov	 DWORD PTR fs:0, ecx
  001f6	59		 pop	 ecx
  001f7	5f		 pop	 edi
  001f8	5e		 pop	 esi
  001f9	5b		 pop	 ebx
  001fa	8b e5		 mov	 esp, ebp
  001fc	5d		 pop	 ebp
  001fd	c2 08 00	 ret	 8
$LN59@Emplace_re:
; File D:\Program Files\Microsoft Visual Studio\2022\Community\VC\Tools\MSVC\14.43.34808\include\xmemory

; 219  :     _STL_VERIFY(_Back_shift >= _Min_back_shift && _Back_shift <= _Non_user_size, "invalid argument");

  00200	e8 00 00 00 00	 call	 __invalid_parameter_noinfo_noreturn
$LN115@Emplace_re:
; File D:\Program Files\Microsoft Visual Studio\2022\Community\VC\Tools\MSVC\14.43.34808\include\vector

; 873  :             _Xlength();

  00205	e8 00 00 00 00	 call	 ?_Xlength@?$vector@USHyperlink@CGraphicTextInstance@@V?$allocator@USHyperlink@CGraphicTextInstance@@@std@@@std@@CAXXZ ; std::vector<CGraphicTextInstance::SHyperlink,std::allocator<CGraphicTextInstance::SHyperlink> >::_Xlength
$LN116@Emplace_re:
; File D:\Program Files\Microsoft Visual Studio\2022\Community\VC\Tools\MSVC\14.43.34808\include\xmemory

; 118  :             _Throw_bad_array_new_length(); // multiply overflow

  0020a	e8 00 00 00 00	 call	 ?_Throw_bad_array_new_length@std@@YAXXZ ; std::_Throw_bad_array_new_length
$LN112@Emplace_re:
  0020f	cc		 int	 3
_TEXT	ENDS
;	COMDAT text$x
text$x	SEGMENT
__unwindfunclet$??$_Emplace_reallocate@ABUSHyperlink@CGraphicTextInstance@@@?$vector@USHyperlink@CGraphicTextInstance@@V?$allocator@USHyperlink@CGraphicTextInstance@@@std@@@std@@AAEPAUSHyperlink@CGraphicTextInstance@@QAU23@ABU23@@Z$0:
  00000	8d 4d cc	 lea	 ecx, DWORD PTR __Guard$[ebp]
  00003	e9 00 00 00 00	 jmp	 ??1_Reallocation_guard@?$vector@USHyperlink@CGraphicTextInstance@@V?$allocator@USHyperlink@CGraphicTextInstance@@@std@@@std@@QAE@XZ ; std::vector<CGraphicTextInstance::SHyperlink,std::allocator<CGraphicTextInstance::SHyperlink> >::_Reallocation_guard::~_Reallocation_guard
  00008	cc		 int	 3
  00009	cc		 int	 3
  0000a	cc		 int	 3
  0000b	cc		 int	 3
  0000c	cc		 int	 3
__ehhandler$??$_Emplace_reallocate@ABUSHyperlink@CGraphicTextInstance@@@?$vector@USHyperlink@CGraphicTextInstance@@V?$allocator@USHyperlink@CGraphicTextInstance@@@std@@@std@@AAEPAUSHyperlink@CGraphicTextInstance@@QAU23@ABU23@@Z:
  0000d	90		 npad	 1
  0000e	90		 npad	 1
  0000f	8b 54 24 08	 mov	 edx, DWORD PTR [esp+8]
  00013	8d 42 0c	 lea	 eax, DWORD PTR [edx+12]
  00016	8b 4a c8	 mov	 ecx, DWORD PTR [edx-56]
  00019	33 c8		 xor	 ecx, eax
  0001b	e8 00 00 00 00	 call	 @__security_check_cookie@4
  00020	b8 00 00 00 00	 mov	 eax, OFFSET __ehfuncinfo$??$_Emplace_reallocate@ABUSHyperlink@CGraphicTextInstance@@@?$vector@USHyperlink@CGraphicTextInstance@@V?$allocator@USHyperlink@CGraphicTextInstance@@@std@@@std@@AAEPAUSHyperlink@CGraphicTextInstance@@QAU23@ABU23@@Z
  00025	e9 00 00 00 00	 jmp	 ___CxxFrameHandler3
text$x	ENDS
??$_Emplace_reallocate@ABUSHyperlink@CGraphicTextInstance@@@?$vector@USHyperlink@CGraphicTextInstance@@V?$allocator@USHyperlink@CGraphicTextInstance@@@std@@@std@@AAEPAUSHyperlink@CGraphicTextInstance@@QAU23@ABU23@@Z ENDP ; std::vector<CGraphicTextInstance::SHyperlink,std::allocator<CGraphicTextInstance::SHyperlink> >::_Emplace_reallocate<CGraphicTextInstance::SHyperlink const &>
; Function compile flags: /Ogtp
; File D:\Program Files\Microsoft Visual Studio\2022\Community\VC\Tools\MSVC\14.43.34808\include\vector
; File D:\Program Files\Microsoft Visual Studio\2022\Community\VC\Tools\MSVC\14.43.34808\include\xmemory
; File D:\Program Files\Microsoft Visual Studio\2022\Community\VC\Tools\MSVC\14.43.34808\include\vector
; File D:\Program Files\Microsoft Visual Studio\2022\Community\VC\Tools\MSVC\14.43.34808\include\xmemory
; File D:\Program Files\Microsoft Visual Studio\2022\Community\VC\Tools\MSVC\14.43.34808\include\vector
; File D:\Program Files\Microsoft Visual Studio\2022\Community\VC\Tools\MSVC\14.43.34808\include\xmemory
; File D:\Program Files\Microsoft Visual Studio\2022\Community\VC\Tools\MSVC\14.43.34808\include\vector
; File D:\Program Files\Microsoft Visual Studio\2022\Community\VC\Tools\MSVC\14.43.34808\include\xmemory
; File D:\Program Files\Microsoft Visual Studio\2022\Community\VC\Tools\MSVC\14.43.34808\include\vector
; File D:\Program Files\Microsoft Visual Studio\2022\Community\VC\Tools\MSVC\14.43.34808\include\xmemory
; File D:\Program Files\Microsoft Visual Studio\2022\Community\VC\Tools\MSVC\14.43.34808\include\vector
; File D:\Program Files\Microsoft Visual Studio\2022\Community\VC\Tools\MSVC\14.43.34808\include\xmemory
; File D:\Program Files\Microsoft Visual Studio\2022\Community\VC\Tools\MSVC\14.43.34808\include\vector
; File D:\Program Files\Microsoft Visual Studio\2022\Community\VC\Tools\MSVC\14.43.34808\include\xmemory
; File D:\Program Files\Microsoft Visual Studio\2022\Community\VC\Tools\MSVC\14.43.34808\include\vector
; File D:\Program Files\Microsoft Visual Studio\2022\Community\VC\Tools\MSVC\14.43.34808\include\xmemory
; File D:\Program Files\Microsoft Visual Studio\2022\Community\VC\Tools\MSVC\14.43.34808\include\vector
;	COMDAT ??$_Emplace_reallocate@ABUSEmoji@CGraphicTextInstance@@@?$vector@USEmoji@CGraphicTextInstance@@V?$allocator@USEmoji@CGraphicTextInstance@@@std@@@std@@AAEPAUSEmoji@CGraphicTextInstance@@QAU23@ABU23@@Z
_TEXT	SEGMENT
__Newsize$1$ = -8					; size = 4
tv650 = -4						; size = 4
__Whereptr$ = 8						; size = 4
_<_Val_0>$ = 12						; size = 4
??$_Emplace_reallocate@ABUSEmoji@CGraphicTextInstance@@@?$vector@USEmoji@CGraphicTextInstance@@V?$allocator@USEmoji@CGraphicTextInstance@@@std@@@std@@AAEPAUSEmoji@CGraphicTextInstance@@QAU23@ABU23@@Z PROC ; std::vector<CGraphicTextInstance::SEmoji,std::allocator<CGraphicTextInstance::SEmoji> >::_Emplace_reallocate<CGraphicTextInstance::SEmoji const &>, COMDAT
; _this$ = ecx

; 860  :     _CONSTEXPR20 pointer _Emplace_reallocate(const pointer _Whereptr, _Valty&&... _Val) {

  00000	55		 push	 ebp
  00001	8b ec		 mov	 ebp, esp
  00003	83 ec 08	 sub	 esp, 8
  00006	53		 push	 ebx

; 861  :         // reallocate and insert by perfectly forwarding _Val at _Whereptr
; 862  :         _Alty& _Al        = _Getal();
; 863  :         auto& _My_data    = _Mypair._Myval2;
; 864  :         pointer& _Myfirst = _My_data._Myfirst;
; 865  :         pointer& _Mylast  = _My_data._Mylast;
; 866  : 
; 867  :         _STL_INTERNAL_CHECK(_Mylast == _My_data._Myend); // check that we have no unused capacity
; 868  : 
; 869  :         const auto _Whereoff = static_cast<size_type>(_Whereptr - _Myfirst);

  00007	8b 5d 08	 mov	 ebx, DWORD PTR __Whereptr$[ebp]
  0000a	56		 push	 esi
  0000b	8b f1		 mov	 esi, ecx
  0000d	57		 push	 edi
  0000e	8b 0e		 mov	 ecx, DWORD PTR [esi]
  00010	2b d9		 sub	 ebx, ecx

; 870  :         const auto _Oldsize  = static_cast<size_type>(_Mylast - _Myfirst);

  00012	8b 46 04	 mov	 eax, DWORD PTR [esi+4]
  00015	2b c1		 sub	 eax, ecx
  00017	c1 fb 03	 sar	 ebx, 3
  0001a	c1 f8 03	 sar	 eax, 3

; 871  : 
; 872  :         if (_Oldsize == max_size()) {

  0001d	3d ff ff ff 1f	 cmp	 eax, 536870911		; 1fffffffH
  00022	0f 84 07 01 00
	00		 je	 $LN123@Emplace_re

; 1909 :         return static_cast<size_type>(_My_data._Myend - _My_data._Myfirst);

  00028	8b 56 08	 mov	 edx, DWORD PTR [esi+8]

; 874  :         }
; 875  : 
; 876  :         const size_type _Newsize = _Oldsize + 1;

  0002b	8d 78 01	 lea	 edi, DWORD PTR [eax+1]

; 1909 :         return static_cast<size_type>(_My_data._Myend - _My_data._Myfirst);

  0002e	2b d1		 sub	 edx, ecx

; 874  :         }
; 875  : 
; 876  :         const size_type _Newsize = _Oldsize + 1;

  00030	89 7d f8	 mov	 DWORD PTR __Newsize$1$[ebp], edi

; 1909 :         return static_cast<size_type>(_My_data._Myend - _My_data._Myfirst);

  00033	c1 fa 03	 sar	 edx, 3

; 1996 :         if (_Oldcapacity > _Max - _Oldcapacity / 2) {

  00036	b8 ff ff ff 1f	 mov	 eax, 536870911		; 1fffffffH
  0003b	8b ca		 mov	 ecx, edx
  0003d	d1 e9		 shr	 ecx, 1
  0003f	2b c1		 sub	 eax, ecx
  00041	3b d0		 cmp	 edx, eax
  00043	76 14		 jbe	 SHORT $LN8@Emplace_re

; 1997 :             return _Max; // geometric growth would overflow

  00045	b8 f8 ff ff ff	 mov	 eax, -8			; fffffff8H
  0004a	c7 45 fc f8 ff
	ff ff		 mov	 DWORD PTR tv650[ebp], -8 ; fffffff8H
; File D:\Program Files\Microsoft Visual Studio\2022\Community\VC\Tools\MSVC\14.43.34808\include\xmemory

; 253  :             return _Allocate_manually_vector_aligned<_Traits>(_Bytes);

  00051	50		 push	 eax
  00052	e8 00 00 00 00	 call	 ??$_Allocate_manually_vector_aligned@U_Default_allocate_traits@std@@@std@@YAPAXI@Z ; std::_Allocate_manually_vector_aligned<std::_Default_allocate_traits>
  00057	eb 3d		 jmp	 SHORT $LN121@Emplace_re
$LN8@Emplace_re:
; File D:\Program Files\Microsoft Visual Studio\2022\Community\VC\Tools\MSVC\14.43.34808\include\vector

; 2000 :         const size_type _Geometric = _Oldcapacity + _Oldcapacity / 2;

  00059	8d 04 11	 lea	 eax, DWORD PTR [ecx+edx]
; File D:\Program Files\Microsoft Visual Studio\2022\Community\VC\Tools\MSVC\14.43.34808\include\xmemory

; 117  :         if (_Count > _Max_possible) {

  0005c	8b cf		 mov	 ecx, edi
  0005e	3b c7		 cmp	 eax, edi
  00060	0f 43 c8	 cmovae	 ecx, eax
  00063	81 f9 ff ff ff
	1f		 cmp	 ecx, 536870911		; 1fffffffH
  00069	0f 87 c5 00 00
	00		 ja	 $LN124@Emplace_re

; 119  :         }
; 120  :     }
; 121  : 
; 122  :     return _Count * _Ty_size;

  0006f	8d 04 cd 00 00
	00 00		 lea	 eax, DWORD PTR [ecx*8]
  00076	89 45 fc	 mov	 DWORD PTR tv650[ebp], eax

; 227  :     if (_Bytes == 0) {

  00079	85 c0		 test	 eax, eax
  0007b	75 04		 jne	 SHORT $LN23@Emplace_re

; 228  :         return nullptr;

  0007d	33 ff		 xor	 edi, edi
  0007f	eb 1a		 jmp	 SHORT $LN22@Emplace_re
$LN23@Emplace_re:

; 229  :     }
; 230  : 
; 231  : #if _HAS_CXX20 // TRANSITION, GH-1532
; 232  :     if (_STD is_constant_evaluated()) {
; 233  :         return _Traits::_Allocate(_Bytes);
; 234  :     }
; 235  : #endif // _HAS_CXX20
; 236  : 
; 237  : #ifdef __cpp_aligned_new
; 238  :     if constexpr (_Align > __STDCPP_DEFAULT_NEW_ALIGNMENT__) {
; 239  :         size_t _Passed_align = _Align;
; 240  : #if defined(_M_IX86) || defined(_M_X64)
; 241  :         if (_Bytes >= _Big_allocation_threshold) {
; 242  :             // boost the alignment of big allocations to help autovectorization
; 243  :             _Passed_align = (_STD max)(_Align, _Big_allocation_alignment);
; 244  :         }
; 245  : #endif // defined(_M_IX86) || defined(_M_X64)
; 246  :         return _Traits::_Allocate_aligned(_Bytes, _Passed_align);
; 247  :     } else
; 248  : #endif // defined(__cpp_aligned_new)
; 249  :     {
; 250  : #if defined(_M_IX86) || defined(_M_X64)
; 251  :         if (_Bytes >= _Big_allocation_threshold) {

  00081	3d 00 10 00 00	 cmp	 eax, 4096		; 00001000H
  00086	72 08		 jb	 SHORT $LN24@Emplace_re

; 253  :             return _Allocate_manually_vector_aligned<_Traits>(_Bytes);

  00088	50		 push	 eax
  00089	e8 00 00 00 00	 call	 ??$_Allocate_manually_vector_aligned@U_Default_allocate_traits@std@@@std@@YAPAXI@Z ; std::_Allocate_manually_vector_aligned<std::_Default_allocate_traits>
  0008e	eb 06		 jmp	 SHORT $LN121@Emplace_re
$LN24@Emplace_re:

; 136  :         return ::operator new(_Bytes);

  00090	50		 push	 eax
  00091	e8 00 00 00 00	 call	 ??2@YAPAXI@Z		; operator new
$LN121@Emplace_re:
; File D:\Program Files\Microsoft Visual Studio\2022\Community\VC\Tools\MSVC\14.43.34808\include\vector

; 885  :         _Alty_traits::construct(_Al, _STD _Unfancy(_Newvec + _Whereoff), _STD forward<_Valty>(_Val)...);

  00096	8b f8		 mov	 edi, eax
  00098	83 c4 04	 add	 esp, 4
$LN22@Emplace_re:
  0009b	8b 45 0c	 mov	 eax, DWORD PTR _<_Val_0>$[ebp]
  0009e	8d 1c df	 lea	 ebx, DWORD PTR [edi+ebx*8]
  000a1	8b 08		 mov	 ecx, DWORD PTR [eax]
  000a3	8b 40 04	 mov	 eax, DWORD PTR [eax+4]
  000a6	89 43 04	 mov	 DWORD PTR [ebx+4], eax

; 886  :         _Constructed_first = _Newvec + _Whereoff;
; 887  : 
; 888  :         if (_Whereptr == _Mylast) { // at back, provide strong guarantee

  000a9	8b 45 08	 mov	 eax, DWORD PTR __Whereptr$[ebp]
  000ac	89 0b		 mov	 DWORD PTR [ebx], ecx
  000ae	8b 56 04	 mov	 edx, DWORD PTR [esi+4]
  000b1	8b 0e		 mov	 ecx, DWORD PTR [esi]
  000b3	3b c2		 cmp	 eax, edx
  000b5	75 04		 jne	 SHORT $LN3@Emplace_re
; File D:\Program Files\Microsoft Visual Studio\2022\Community\VC\Tools\MSVC\14.43.34808\include\xmemory

; 1955 :             _STD _Copy_memmove(_UFirst, _ULast, _STD _Unfancy(_Dest));

  000b7	8b c7		 mov	 eax, edi
; File D:\Program Files\Microsoft Visual Studio\2022\Community\VC\Tools\MSVC\14.43.34808\include\vector

; 894  :         } else { // provide basic guarantee

  000b9	eb 14		 jmp	 SHORT $LN52@Emplace_re
$LN3@Emplace_re:
; File D:\Program Files\Microsoft Visual Studio\2022\Community\VC\Tools\MSVC\14.43.34808\include\xmemory

; 1955 :             _STD _Copy_memmove(_UFirst, _ULast, _STD _Unfancy(_Dest));

  000bb	57		 push	 edi
  000bc	50		 push	 eax
  000bd	51		 push	 ecx
  000be	e8 00 00 00 00	 call	 ??$_Copy_memmove@PAUSEmoji@CGraphicTextInstance@@PAU12@@std@@YAPAUSEmoji@CGraphicTextInstance@@PAU12@00@Z ; std::_Copy_memmove<CGraphicTextInstance::SEmoji *,CGraphicTextInstance::SEmoji *>
  000c3	8b 4d 08	 mov	 ecx, DWORD PTR __Whereptr$[ebp]
; File D:\Program Files\Microsoft Visual Studio\2022\Community\VC\Tools\MSVC\14.43.34808\include\vector

; 897  :             _STD _Uninitialized_move(_Whereptr, _Mylast, _Newvec + _Whereoff + 1, _Al);

  000c6	8d 43 08	 lea	 eax, DWORD PTR [ebx+8]
; File D:\Program Files\Microsoft Visual Studio\2022\Community\VC\Tools\MSVC\14.43.34808\include\xmemory

; 1955 :             _STD _Copy_memmove(_UFirst, _ULast, _STD _Unfancy(_Dest));

  000c9	8b 56 04	 mov	 edx, DWORD PTR [esi+4]
  000cc	83 c4 0c	 add	 esp, 12			; 0000000cH
$LN52@Emplace_re:
; File D:\Program Files\Microsoft Visual Studio\2022\Community\VC\Tools\MSVC\14.43.34808\include\vector

; 900  :         _Guard._New_begin = nullptr;

  000cf	50		 push	 eax
  000d0	52		 push	 edx
  000d1	51		 push	 ecx
  000d2	e8 00 00 00 00	 call	 ??$_Copy_memmove@PAUSEmoji@CGraphicTextInstance@@PAU12@@std@@YAPAUSEmoji@CGraphicTextInstance@@PAU12@00@Z ; std::_Copy_memmove<CGraphicTextInstance::SEmoji *,CGraphicTextInstance::SEmoji *>

; 2054 :         if (_Myfirst) { // destroy and deallocate old array

  000d7	8b 06		 mov	 eax, DWORD PTR [esi]

; 900  :         _Guard._New_begin = nullptr;

  000d9	83 c4 0c	 add	 esp, 12			; 0000000cH

; 2054 :         if (_Myfirst) { // destroy and deallocate old array

  000dc	85 c0		 test	 eax, eax
  000de	74 2c		 je	 SHORT $LN72@Emplace_re

; 2055 :             _STD _Destroy_range(_Myfirst, _Mylast, _Al);
; 2056 :             _ASAN_VECTOR_REMOVE;
; 2057 :             _Al.deallocate(_Myfirst, static_cast<size_type>(_Myend - _Myfirst));

  000e0	8b 4e 08	 mov	 ecx, DWORD PTR [esi+8]
  000e3	2b c8		 sub	 ecx, eax
; File D:\Program Files\Microsoft Visual Studio\2022\Community\VC\Tools\MSVC\14.43.34808\include\xmemory

; 981  :         _STD _Deallocate<_New_alignof<_Ty>>(_Ptr, sizeof(_Ty) * _Count);

  000e5	83 e1 f8	 and	 ecx, -8			; fffffff8H

; 284  :         if (_Bytes >= _Big_allocation_threshold) {

  000e8	81 f9 00 10 00
	00		 cmp	 ecx, 4096		; 00001000H
  000ee	72 12		 jb	 SHORT $LN83@Emplace_re

; 205  :     const uintptr_t _Ptr_container   = _Ptr_user[-1];

  000f0	8b 50 fc	 mov	 edx, DWORD PTR [eax-4]
  000f3	83 c1 23	 add	 ecx, 35			; 00000023H

; 206  : 
; 207  :     // If the following asserts, it likely means that we are performing
; 208  :     // an aligned delete on memory coming from an unaligned allocation.
; 209  :     _STL_ASSERT(_Ptr_user[-2] == _Big_allocation_sentinel, "invalid argument");
; 210  : 
; 211  :     // Extra paranoia on aligned allocation/deallocation; ensure _Ptr_container is
; 212  :     // in range [_Min_back_shift, _Non_user_size]
; 213  : #ifdef _DEBUG
; 214  :     constexpr uintptr_t _Min_back_shift = 2 * sizeof(void*);
; 215  : #else // ^^^ defined(_DEBUG) / !defined(_DEBUG) vvv
; 216  :     constexpr uintptr_t _Min_back_shift = sizeof(void*);
; 217  : #endif // ^^^ !defined(_DEBUG) ^^^
; 218  :     const uintptr_t _Back_shift = reinterpret_cast<uintptr_t>(_Ptr) - _Ptr_container;

  000f6	2b c2		 sub	 eax, edx

; 219  :     _STL_VERIFY(_Back_shift >= _Min_back_shift && _Back_shift <= _Non_user_size, "invalid argument");

  000f8	83 c0 fc	 add	 eax, -4			; fffffffcH
  000fb	83 f8 1f	 cmp	 eax, 31			; 0000001fH
  000fe	77 2a		 ja	 SHORT $LN80@Emplace_re

; 220  :     _Ptr = reinterpret_cast<void*>(_Ptr_container);

  00100	8b c2		 mov	 eax, edx
$LN83@Emplace_re:

; 289  :         ::operator delete(_Ptr, _Bytes);

  00102	51		 push	 ecx
  00103	50		 push	 eax
  00104	e8 00 00 00 00	 call	 ??3@YAXPAXI@Z		; operator delete
  00109	83 c4 08	 add	 esp, 8
$LN72@Emplace_re:
; File D:\Program Files\Microsoft Visual Studio\2022\Community\VC\Tools\MSVC\14.43.34808\include\vector

; 2061 :         _Mylast  = _Newvec + _Newsize;

  0010c	8b 45 f8	 mov	 eax, DWORD PTR __Newsize$1$[ebp]
  0010f	89 3e		 mov	 DWORD PTR [esi], edi
  00111	8d 0c c7	 lea	 ecx, DWORD PTR [edi+eax*8]

; 901  :         _Change_array(_Newvec, _Newsize, _Newcapacity);
; 902  :         return _Newvec + _Whereoff;

  00114	8b c3		 mov	 eax, ebx

; 2061 :         _Mylast  = _Newvec + _Newsize;

  00116	89 4e 04	 mov	 DWORD PTR [esi+4], ecx

; 2062 :         _Myend   = _Newvec + _Newcapacity;

  00119	8b 4d fc	 mov	 ecx, DWORD PTR tv650[ebp]
  0011c	03 cf		 add	 ecx, edi

; 903  :     }

  0011e	5f		 pop	 edi

; 2062 :         _Myend   = _Newvec + _Newcapacity;

  0011f	89 4e 08	 mov	 DWORD PTR [esi+8], ecx

; 903  :     }

  00122	5e		 pop	 esi
  00123	5b		 pop	 ebx
  00124	8b e5		 mov	 esp, ebp
  00126	5d		 pop	 ebp
  00127	c2 08 00	 ret	 8
$LN80@Emplace_re:
; File D:\Program Files\Microsoft Visual Studio\2022\Community\VC\Tools\MSVC\14.43.34808\include\xmemory

; 219  :     _STL_VERIFY(_Back_shift >= _Min_back_shift && _Back_shift <= _Non_user_size, "invalid argument");

  0012a	e8 00 00 00 00	 call	 __invalid_parameter_noinfo_noreturn
$LN123@Emplace_re:
; File D:\Program Files\Microsoft Visual Studio\2022\Community\VC\Tools\MSVC\14.43.34808\include\vector

; 873  :             _Xlength();

  0012f	e8 00 00 00 00	 call	 ?_Xlength@?$vector@USEmoji@CGraphicTextInstance@@V?$allocator@USEmoji@CGraphicTextInstance@@@std@@@std@@CAXXZ ; std::vector<CGraphicTextInstance::SEmoji,std::allocator<CGraphicTextInstance::SEmoji> >::_Xlength
$LN124@Emplace_re:
; File D:\Program Files\Microsoft Visual Studio\2022\Community\VC\Tools\MSVC\14.43.34808\include\xmemory

; 118  :             _Throw_bad_array_new_length(); // multiply overflow

  00134	e8 00 00 00 00	 call	 ?_Throw_bad_array_new_length@std@@YAXXZ ; std::_Throw_bad_array_new_length
$LN120@Emplace_re:
  00139	cc		 int	 3
??$_Emplace_reallocate@ABUSEmoji@CGraphicTextInstance@@@?$vector@USEmoji@CGraphicTextInstance@@V?$allocator@USEmoji@CGraphicTextInstance@@@std@@@std@@AAEPAUSEmoji@CGraphicTextInstance@@QAU23@ABU23@@Z ENDP ; std::vector<CGraphicTextInstance::SEmoji,std::allocator<CGraphicTextInstance::SEmoji> >::_Emplace_reallocate<CGraphicTextInstance::SEmoji const &>
_TEXT	ENDS
; Function compile flags: /Ogtp
; File D:\Program Files\Microsoft Visual Studio\2022\Community\VC\Tools\MSVC\14.43.34808\include\xmemory
;	COMDAT ??1?$_Alloc_construct_ptr@V?$allocator@U?$_List_node@PAVCGraphicTextInstance@@PAX@std@@@std@@@std@@QAE@XZ
_TEXT	SEGMENT
??1?$_Alloc_construct_ptr@V?$allocator@U?$_List_node@PAVCGraphicTextInstance@@PAX@std@@@std@@@std@@QAE@XZ PROC ; std::_Alloc_construct_ptr<std::allocator<std::_List_node<CGraphicTextInstance *,void *> > >::~_Alloc_construct_ptr<std::allocator<std::_List_node<CGraphicTextInstance *,void *> > >, COMDAT
; _this$ = ecx

; 1168 :         if (_Ptr) {

  00000	8b 41 04	 mov	 eax, DWORD PTR [ecx+4]
  00003	85 c0		 test	 eax, eax
  00005	74 0b		 je	 SHORT $LN10@Alloc_cons

; 289  :         ::operator delete(_Ptr, _Bytes);

  00007	6a 0c		 push	 12			; 0000000cH
  00009	50		 push	 eax
  0000a	e8 00 00 00 00	 call	 ??3@YAXPAXI@Z		; operator delete
  0000f	83 c4 08	 add	 esp, 8
$LN10@Alloc_cons:

; 1169 :             _Al.deallocate(_Ptr, 1);
; 1170 :         }
; 1171 :     }

  00012	c3		 ret	 0
??1?$_Alloc_construct_ptr@V?$allocator@U?$_List_node@PAVCGraphicTextInstance@@PAX@std@@@std@@@std@@QAE@XZ ENDP ; std::_Alloc_construct_ptr<std::allocator<std::_List_node<CGraphicTextInstance *,void *> > >::~_Alloc_construct_ptr<std::allocator<std::_List_node<CGraphicTextInstance *,void *> > >
_TEXT	ENDS
; Function compile flags: /Ogtp
; File D:\Program Files\Microsoft Visual Studio\2022\Community\VC\Tools\MSVC\14.43.34808\include\xstring
; File D:\Program Files\Microsoft Visual Studio\2022\Community\VC\Tools\MSVC\14.43.34808\include\xmemory
; File D:\Program Files\Microsoft Visual Studio\2022\Community\VC\Tools\MSVC\14.43.34808\include\xstring
; File D:\Program Files\Microsoft Visual Studio\2022\Community\VC\Tools\MSVC\14.43.34808\include\xmemory
; File D:\Program Files\Microsoft Visual Studio\2022\Community\VC\Tools\MSVC\14.43.34808\include\xstring
; File D:\Program Files\Microsoft Visual Studio\2022\Community\VC\Tools\MSVC\14.43.34808\include\__msvc_string_view.hpp
; File D:\Windows Kits\10\Include\10.0.26100.0\ucrt\wchar.h
; File D:\Program Files\Microsoft Visual Studio\2022\Community\VC\Tools\MSVC\14.43.34808\include\__msvc_string_view.hpp
; File D:\Windows Kits\10\Include\10.0.26100.0\ucrt\wchar.h
; File D:\Program Files\Microsoft Visual Studio\2022\Community\VC\Tools\MSVC\14.43.34808\include\xstring
; File D:\Program Files\Microsoft Visual Studio\2022\Community\VC\Tools\MSVC\14.43.34808\include\xmemory
; File D:\Program Files\Microsoft Visual Studio\2022\Community\VC\Tools\MSVC\14.43.34808\include\xstring
; File D:\Program Files\Microsoft Visual Studio\2022\Community\VC\Tools\MSVC\14.43.34808\include\__msvc_string_view.hpp
; File D:\Windows Kits\10\Include\10.0.26100.0\ucrt\wchar.h
; File D:\Program Files\Microsoft Visual Studio\2022\Community\VC\Tools\MSVC\14.43.34808\include\__msvc_string_view.hpp
; File D:\Windows Kits\10\Include\10.0.26100.0\ucrt\wchar.h
; File D:\Program Files\Microsoft Visual Studio\2022\Community\VC\Tools\MSVC\14.43.34808\include\__msvc_string_view.hpp
; File D:\Program Files\Microsoft Visual Studio\2022\Community\VC\Tools\MSVC\14.43.34808\include\xstring
; File D:\Program Files\Microsoft Visual Studio\2022\Community\VC\Tools\MSVC\14.43.34808\include\xmemory
; File D:\Program Files\Microsoft Visual Studio\2022\Community\VC\Tools\MSVC\14.43.34808\include\xstring
;	COMDAT ??$_Reallocate_grow_by@V<lambda_c3135ae829aeedc0a8af1bd1e887c66a>@@I_W@?$basic_string@_WU?$char_traits@_W@std@@V?$allocator@_W@2@@std@@AAEAAV01@IV<lambda_c3135ae829aeedc0a8af1bd1e887c66a>@@I_W@Z
_TEXT	SEGMENT
_this$1$ = -12						; size = 4
__New_size$1$ = -8					; size = 4
__Su$1$ = -8						; size = 4
__Old_size$1$ = -4					; size = 4
__Size_increase$ = 8					; size = 4
$T1 = 8							; size = 4
__Fn$ = 12						; size = 1
_<_Args_0>$ = 16					; size = 4
_<_Args_1>$ = 20					; size = 2
??$_Reallocate_grow_by@V<lambda_c3135ae829aeedc0a8af1bd1e887c66a>@@I_W@?$basic_string@_WU?$char_traits@_W@std@@V?$allocator@_W@2@@std@@AAEAAV01@IV<lambda_c3135ae829aeedc0a8af1bd1e887c66a>@@I_W@Z PROC ; std::basic_string<wchar_t,std::char_traits<wchar_t>,std::allocator<wchar_t> >::_Reallocate_grow_by<<lambda_c3135ae829aeedc0a8af1bd1e887c66a>,unsigned int,wchar_t>, COMDAT
; _this$ = ecx

; 2988 :     _CONSTEXPR20 basic_string& _Reallocate_grow_by(const size_type _Size_increase, _Fty _Fn, _ArgTys... _Args) {

  00000	55		 push	 ebp
  00001	8b ec		 mov	 ebp, esp
  00003	83 ec 0c	 sub	 esp, 12			; 0000000cH

; 2989 :         // reallocate to increase size by _Size_increase elements, new buffer prepared by
; 2990 :         // _Fn(_New_ptr, _Old_ptr, _Old_size, _Args...)
; 2991 :         auto& _My_data            = _Mypair._Myval2;
; 2992 :         const size_type _Old_size = _My_data._Mysize;
; 2993 :         if (max_size() - _Old_size < _Size_increase) {

  00006	8b 55 08	 mov	 edx, DWORD PTR __Size_increase$[ebp]
  00009	53		 push	 ebx
  0000a	56		 push	 esi
  0000b	57		 push	 edi
  0000c	8b f9		 mov	 edi, ecx
  0000e	b9 fe ff ff 7f	 mov	 ecx, 2147483646		; 7ffffffeH
  00013	8b c1		 mov	 eax, ecx
  00015	89 7d f4	 mov	 DWORD PTR _this$1$[ebp], edi
  00018	8b 5f 10	 mov	 ebx, DWORD PTR [edi+16]
  0001b	2b c3		 sub	 eax, ebx
  0001d	89 5d fc	 mov	 DWORD PTR __Old_size$1$[ebp], ebx
  00020	3b c2		 cmp	 eax, edx
  00022	0f 82 40 01 00
	00		 jb	 $LN108@Reallocate

; 2998 :         const size_type _Old_capacity = _My_data._Myres;

  00028	8b 77 14	 mov	 esi, DWORD PTR [edi+20]
  0002b	8d 04 13	 lea	 eax, DWORD PTR [ebx+edx]

; 2942 :         const size_type _Masked = _Requested | _Alloc_mask;

  0002e	8b d8		 mov	 ebx, eax

; 2995 :         }
; 2996 : 
; 2997 :         const size_type _New_size     = _Old_size + _Size_increase;

  00030	89 45 f8	 mov	 DWORD PTR __New_size$1$[ebp], eax

; 2942 :         const size_type _Masked = _Requested | _Alloc_mask;

  00033	83 cb 07	 or	 ebx, 7

; 2998 :         const size_type _Old_capacity = _My_data._Myres;

  00036	89 75 08	 mov	 DWORD PTR $T1[ebp], esi

; 2942 :         const size_type _Masked = _Requested | _Alloc_mask;

  00039	3b d9		 cmp	 ebx, ecx

; 2943 :         if (_Masked > _Max) { // the mask overflows, settle for max_size()

  0003b	76 18		 jbe	 SHORT $LN10@Reallocate

; 2944 :             return _Max;

  0003d	8b d9		 mov	 ebx, ecx
$LN105@Reallocate:
; File D:\Program Files\Microsoft Visual Studio\2022\Community\VC\Tools\MSVC\14.43.34808\include\xmemory

; 251  :         if (_Bytes >= _Big_allocation_threshold) {

  0003f	b8 ff ff ff 7f	 mov	 eax, 2147483647		; 7fffffffH
  00044	03 c0		 add	 eax, eax
$LN28@Reallocate:
  00046	50		 push	 eax
  00047	3d 00 10 00 00	 cmp	 eax, 4096		; 00001000H
  0004c	72 35		 jb	 SHORT $LN29@Reallocate

; 252  :             // boost the alignment of big allocations to help autovectorization
; 253  :             return _Allocate_manually_vector_aligned<_Traits>(_Bytes);

  0004e	e8 00 00 00 00	 call	 ??$_Allocate_manually_vector_aligned@U_Default_allocate_traits@std@@@std@@YAPAXI@Z ; std::_Allocate_manually_vector_aligned<std::_Default_allocate_traits>
  00053	eb 33		 jmp	 SHORT $LN106@Reallocate
$LN10@Reallocate:
; File D:\Program Files\Microsoft Visual Studio\2022\Community\VC\Tools\MSVC\14.43.34808\include\xstring

; 2947 :         if (_Old > _Max - _Old / 2) { // similarly, geometric overflows

  00055	8b c6		 mov	 eax, esi
  00057	d1 e8		 shr	 eax, 1
  00059	2b c8		 sub	 ecx, eax
  0005b	3b f1		 cmp	 esi, ecx
  0005d	76 07		 jbe	 SHORT $LN11@Reallocate

; 2948 :             return _Max;

  0005f	bb fe ff ff 7f	 mov	 ebx, 2147483646		; 7ffffffeH
  00064	eb d9		 jmp	 SHORT $LN105@Reallocate
$LN11@Reallocate:

; 2949 :         }
; 2950 : 
; 2951 :         return (_STD max)(_Masked, _Old + _Old / 2);

  00066	03 c6		 add	 eax, esi
  00068	3b d8		 cmp	 ebx, eax
  0006a	0f 42 d8	 cmovb	 ebx, eax

; 801  :         ++_Capacity; // Take null terminator into consideration

  0006d	8d 43 01	 lea	 eax, DWORD PTR [ebx+1]
; File D:\Program Files\Microsoft Visual Studio\2022\Community\VC\Tools\MSVC\14.43.34808\include\xmemory

; 117  :         if (_Count > _Max_possible) {

  00070	3d ff ff ff 7f	 cmp	 eax, 2147483647		; 7fffffffH
  00075	0f 87 f2 00 00
	00		 ja	 $LN109@Reallocate

; 119  :         }
; 120  :     }
; 121  : 
; 122  :     return _Count * _Ty_size;

  0007b	03 c0		 add	 eax, eax

; 227  :     if (_Bytes == 0) {

  0007d	75 c7		 jne	 SHORT $LN28@Reallocate

; 228  :         return nullptr;

  0007f	33 f6		 xor	 esi, esi
  00081	eb 0a		 jmp	 SHORT $LN27@Reallocate
$LN29@Reallocate:

; 136  :         return ::operator new(_Bytes);

  00083	e8 00 00 00 00	 call	 ??2@YAPAXI@Z		; operator new
$LN106@Reallocate:
; File D:\Program Files\Microsoft Visual Studio\2022\Community\VC\Tools\MSVC\14.43.34808\include\xstring

; 3005 :         _My_data._Mysize      = _New_size;

  00088	8b f0		 mov	 esi, eax
  0008a	83 c4 04	 add	 esp, 4
$LN27@Reallocate:

; 3006 :         _My_data._Myres       = _New_capacity;
; 3007 :         _Elem* const _Raw_new = _Unfancy(_New_ptr);
; 3008 :         if (_Old_capacity > _Small_string_capacity) {

  0008d	83 7d 08 07	 cmp	 DWORD PTR $T1[ebp], 7
  00091	8b 45 f8	 mov	 eax, DWORD PTR __New_size$1$[ebp]
  00094	89 5f 14	 mov	 DWORD PTR [edi+20], ebx
  00097	8b 5d fc	 mov	 ebx, DWORD PTR __Old_size$1$[ebp]
  0009a	89 47 10	 mov	 DWORD PTR [edi+16], eax
  0009d	8d 04 1b	 lea	 eax, DWORD PTR [ebx+ebx]
  000a0	8d 0c 30	 lea	 ecx, DWORD PTR [eax+esi]
  000a3	89 4d f8	 mov	 DWORD PTR __Su$1$[ebp], ecx
  000a6	50		 push	 eax
  000a7	76 78		 jbe	 SHORT $LN3@Reallocate

; 3009 :             const pointer _Old_ptr = _My_data._Bx._Ptr;

  000a9	8b 1f		 mov	 ebx, DWORD PTR [edi]
; File D:\Program Files\Microsoft Visual Studio\2022\Community\VC\Tools\MSVC\14.43.34808\include\__msvc_string_view.hpp

; 95   :         _CSTD memcpy(_First1, _First2, _Count * sizeof(_Elem));

  000ab	53		 push	 ebx
  000ac	56		 push	 esi
  000ad	e8 00 00 00 00	 call	 _memcpy
; File D:\Windows Kits\10\Include\10.0.26100.0\ucrt\wchar.h

; 511  :         for (; 0 < _N; ++_Su, --_N)

  000b2	8b 45 10	 mov	 eax, DWORD PTR _<_Args_0>$[ebp]
; File D:\Program Files\Microsoft Visual Studio\2022\Community\VC\Tools\MSVC\14.43.34808\include\__msvc_string_view.hpp

; 95   :         _CSTD memcpy(_First1, _First2, _Count * sizeof(_Elem));

  000b5	83 c4 0c	 add	 esp, 12			; 0000000cH
; File D:\Windows Kits\10\Include\10.0.26100.0\ucrt\wchar.h

; 511  :         for (; 0 < _N; ++_Su, --_N)

  000b8	85 c0		 test	 eax, eax
  000ba	74 1e		 je	 SHORT $LN47@Reallocate
; File D:\Program Files\Microsoft Visual Studio\2022\Community\VC\Tools\MSVC\14.43.34808\include\xstring

; 3009 :             const pointer _Old_ptr = _My_data._Bx._Ptr;

  000bc	8b 7d f8	 mov	 edi, DWORD PTR __Su$1$[ebp]
  000bf	8b c8		 mov	 ecx, eax
  000c1	8b 45 14	 mov	 eax, DWORD PTR _<_Args_1>$[ebp]
  000c4	0f b7 d0	 movzx	 edx, ax
  000c7	8b c2		 mov	 eax, edx
  000c9	c1 e2 10	 shl	 edx, 16			; 00000010H
  000cc	0b c2		 or	 eax, edx
  000ce	d1 e9		 shr	 ecx, 1
  000d0	f3 ab		 rep stosd
  000d2	13 c9		 adc	 ecx, ecx
  000d4	66 f3 ab	 rep stosw
  000d7	8b 7d f4	 mov	 edi, DWORD PTR _this$1$[ebp]
$LN47@Reallocate:

; 1531 :                 _Traits::assign(_New_ptr[_Old_size + _Count], _Elem());

  000da	8b 45 fc	 mov	 eax, DWORD PTR __Old_size$1$[ebp]
  000dd	33 c9		 xor	 ecx, ecx
  000df	03 45 10	 add	 eax, DWORD PTR _<_Args_0>$[ebp]
  000e2	66 89 0c 46	 mov	 WORD PTR [esi+eax*2], cx
; File D:\Program Files\Microsoft Visual Studio\2022\Community\VC\Tools\MSVC\14.43.34808\include\xmemory

; 981  :         _STD _Deallocate<_New_alignof<_Ty>>(_Ptr, sizeof(_Ty) * _Count);

  000e6	8b 45 08	 mov	 eax, DWORD PTR $T1[ebp]
  000e9	8d 0c 45 02 00
	00 00		 lea	 ecx, DWORD PTR [eax*2+2]

; 284  :         if (_Bytes >= _Big_allocation_threshold) {

  000f0	81 f9 00 10 00
	00		 cmp	 ecx, 4096		; 00001000H
  000f6	72 12		 jb	 SHORT $LN68@Reallocate

; 205  :     const uintptr_t _Ptr_container   = _Ptr_user[-1];

  000f8	8b 53 fc	 mov	 edx, DWORD PTR [ebx-4]
  000fb	83 c1 23	 add	 ecx, 35			; 00000023H

; 206  : 
; 207  :     // If the following asserts, it likely means that we are performing
; 208  :     // an aligned delete on memory coming from an unaligned allocation.
; 209  :     _STL_ASSERT(_Ptr_user[-2] == _Big_allocation_sentinel, "invalid argument");
; 210  : 
; 211  :     // Extra paranoia on aligned allocation/deallocation; ensure _Ptr_container is
; 212  :     // in range [_Min_back_shift, _Non_user_size]
; 213  : #ifdef _DEBUG
; 214  :     constexpr uintptr_t _Min_back_shift = 2 * sizeof(void*);
; 215  : #else // ^^^ defined(_DEBUG) / !defined(_DEBUG) vvv
; 216  :     constexpr uintptr_t _Min_back_shift = sizeof(void*);
; 217  : #endif // ^^^ !defined(_DEBUG) ^^^
; 218  :     const uintptr_t _Back_shift = reinterpret_cast<uintptr_t>(_Ptr) - _Ptr_container;

  000fe	2b da		 sub	 ebx, edx

; 219  :     _STL_VERIFY(_Back_shift >= _Min_back_shift && _Back_shift <= _Non_user_size, "invalid argument");

  00100	8d 43 fc	 lea	 eax, DWORD PTR [ebx-4]
  00103	83 f8 1f	 cmp	 eax, 31			; 0000001fH
  00106	77 6a		 ja	 SHORT $LN65@Reallocate

; 220  :     _Ptr = reinterpret_cast<void*>(_Ptr_container);

  00108	8b da		 mov	 ebx, edx
$LN68@Reallocate:

; 289  :         ::operator delete(_Ptr, _Bytes);

  0010a	51		 push	 ecx
  0010b	53		 push	 ebx
  0010c	e8 00 00 00 00	 call	 ??3@YAXPAXI@Z		; operator delete
  00111	83 c4 08	 add	 esp, 8
; File D:\Program Files\Microsoft Visual Studio\2022\Community\VC\Tools\MSVC\14.43.34808\include\xstring

; 3019 :         return *this;

  00114	89 37		 mov	 DWORD PTR [edi], esi
  00116	8b c7		 mov	 eax, edi

; 3020 :     }

  00118	5f		 pop	 edi
  00119	5e		 pop	 esi
  0011a	5b		 pop	 ebx
  0011b	8b e5		 mov	 esp, ebp
  0011d	5d		 pop	 ebp
  0011e	c2 10 00	 ret	 16			; 00000010H
$LN3@Reallocate:
; File D:\Program Files\Microsoft Visual Studio\2022\Community\VC\Tools\MSVC\14.43.34808\include\__msvc_string_view.hpp

; 95   :         _CSTD memcpy(_First1, _First2, _Count * sizeof(_Elem));

  00121	57		 push	 edi
  00122	56		 push	 esi
  00123	e8 00 00 00 00	 call	 _memcpy
; File D:\Windows Kits\10\Include\10.0.26100.0\ucrt\wchar.h

; 511  :         for (; 0 < _N; ++_Su, --_N)

  00128	8b 45 10	 mov	 eax, DWORD PTR _<_Args_0>$[ebp]
; File D:\Program Files\Microsoft Visual Studio\2022\Community\VC\Tools\MSVC\14.43.34808\include\__msvc_string_view.hpp

; 95   :         _CSTD memcpy(_First1, _First2, _Count * sizeof(_Elem));

  0012b	83 c4 0c	 add	 esp, 12			; 0000000cH
; File D:\Windows Kits\10\Include\10.0.26100.0\ucrt\wchar.h

; 511  :         for (; 0 < _N; ++_Su, --_N)

  0012e	85 c0		 test	 eax, eax
  00130	74 21		 je	 SHORT $LN83@Reallocate
; File D:\Program Files\Microsoft Visual Studio\2022\Community\VC\Tools\MSVC\14.43.34808\include\__msvc_string_view.hpp

; 95   :         _CSTD memcpy(_First1, _First2, _Count * sizeof(_Elem));

  00132	8b 7d f8	 mov	 edi, DWORD PTR __Su$1$[ebp]
  00135	8b c8		 mov	 ecx, eax
  00137	8b 45 14	 mov	 eax, DWORD PTR _<_Args_1>$[ebp]
  0013a	0f b7 d0	 movzx	 edx, ax
  0013d	8b c2		 mov	 eax, edx
  0013f	c1 e2 10	 shl	 edx, 16			; 00000010H
  00142	0b c2		 or	 eax, edx
  00144	d1 e9		 shr	 ecx, 1
  00146	f3 ab		 rep stosd
  00148	13 c9		 adc	 ecx, ecx
  0014a	66 f3 ab	 rep stosw
  0014d	8b 7d f4	 mov	 edi, DWORD PTR _this$1$[ebp]
  00150	8b 45 10	 mov	 eax, DWORD PTR _<_Args_0>$[ebp]
$LN83@Reallocate:
; File D:\Program Files\Microsoft Visual Studio\2022\Community\VC\Tools\MSVC\14.43.34808\include\xstring

; 1531 :                 _Traits::assign(_New_ptr[_Old_size + _Count], _Elem());

  00153	03 c3		 add	 eax, ebx
  00155	33 c9		 xor	 ecx, ecx
  00157	66 89 0c 46	 mov	 WORD PTR [esi+eax*2], cx

; 3019 :         return *this;

  0015b	8b c7		 mov	 eax, edi
  0015d	89 37		 mov	 DWORD PTR [edi], esi

; 3020 :     }

  0015f	5f		 pop	 edi
  00160	5e		 pop	 esi
  00161	5b		 pop	 ebx
  00162	8b e5		 mov	 esp, ebp
  00164	5d		 pop	 ebp
  00165	c2 10 00	 ret	 16			; 00000010H
$LN108@Reallocate:

; 2994 :             _Xlen_string(); // result too long

  00168	e8 00 00 00 00	 call	 ?_Xlen_string@std@@YAXXZ ; std::_Xlen_string
$LN109@Reallocate:
; File D:\Program Files\Microsoft Visual Studio\2022\Community\VC\Tools\MSVC\14.43.34808\include\xmemory

; 118  :             _Throw_bad_array_new_length(); // multiply overflow

  0016d	e8 00 00 00 00	 call	 ?_Throw_bad_array_new_length@std@@YAXXZ ; std::_Throw_bad_array_new_length
$LN65@Reallocate:

; 219  :     _STL_VERIFY(_Back_shift >= _Min_back_shift && _Back_shift <= _Non_user_size, "invalid argument");

  00172	e8 00 00 00 00	 call	 __invalid_parameter_noinfo_noreturn
$LN104@Reallocate:
  00177	cc		 int	 3
??$_Reallocate_grow_by@V<lambda_c3135ae829aeedc0a8af1bd1e887c66a>@@I_W@?$basic_string@_WU?$char_traits@_W@std@@V?$allocator@_W@2@@std@@AAEAAV01@IV<lambda_c3135ae829aeedc0a8af1bd1e887c66a>@@I_W@Z ENDP ; std::basic_string<wchar_t,std::char_traits<wchar_t>,std::allocator<wchar_t> >::_Reallocate_grow_by<<lambda_c3135ae829aeedc0a8af1bd1e887c66a>,unsigned int,wchar_t>
_TEXT	ENDS
; Function compile flags: /Ogtp
; File C:\Marty 5.5\Src-Client\Client\EterLib\GrpTextInstance.cpp
;	COMDAT ?IsValidToken@@YA_NPBD@Z
_TEXT	SEGMENT
_iter$ = 8						; size = 4
?IsValidToken@@YA_NPBD@Z PROC				; IsValidToken, COMDAT

; 142  : {

  00000	55		 push	 ebp
  00001	8b ec		 mov	 ebp, esp
  00003	56		 push	 esi

; 143  : 	return	iter[0]=='@' &&

  00004	8b 75 08	 mov	 esi, DWORD PTR _iter$[ebp]
  00007	80 3e 40	 cmp	 BYTE PTR [esi], 64	; 00000040H
  0000a	75 49		 jne	 SHORT $LN3@IsValidTok
  0000c	0f b6 46 01	 movzx	 eax, BYTE PTR [esi+1]
  00010	50		 push	 eax
  00011	e8 00 00 00 00	 call	 ?isNumberic@@YA_ND@Z	; isNumberic
  00016	83 c4 04	 add	 esp, 4
  00019	84 c0		 test	 al, al
  0001b	74 38		 je	 SHORT $LN3@IsValidTok
  0001d	0f b6 46 02	 movzx	 eax, BYTE PTR [esi+2]
  00021	50		 push	 eax
  00022	e8 00 00 00 00	 call	 ?isNumberic@@YA_ND@Z	; isNumberic
  00027	83 c4 04	 add	 esp, 4
  0002a	84 c0		 test	 al, al
  0002c	74 27		 je	 SHORT $LN3@IsValidTok
  0002e	0f b6 46 03	 movzx	 eax, BYTE PTR [esi+3]
  00032	50		 push	 eax
  00033	e8 00 00 00 00	 call	 ?isNumberic@@YA_ND@Z	; isNumberic
  00038	83 c4 04	 add	 esp, 4
  0003b	84 c0		 test	 al, al
  0003d	74 16		 je	 SHORT $LN3@IsValidTok
  0003f	0f b6 46 04	 movzx	 eax, BYTE PTR [esi+4]
  00043	50		 push	 eax
  00044	e8 00 00 00 00	 call	 ?isNumberic@@YA_ND@Z	; isNumberic
  00049	83 c4 04	 add	 esp, 4
  0004c	84 c0		 test	 al, al
  0004e	74 05		 je	 SHORT $LN3@IsValidTok
  00050	b0 01		 mov	 al, 1
  00052	5e		 pop	 esi

; 144  : 		isNumberic(iter[1]) &&
; 145  : 		isNumberic(iter[2]) &&
; 146  : 		isNumberic(iter[3]) &&
; 147  : 		isNumberic(iter[4]);
; 148  : }

  00053	5d		 pop	 ebp
  00054	c3		 ret	 0
$LN3@IsValidTok:

; 143  : 	return	iter[0]=='@' &&

  00055	32 c0		 xor	 al, al
  00057	5e		 pop	 esi

; 144  : 		isNumberic(iter[1]) &&
; 145  : 		isNumberic(iter[2]) &&
; 146  : 		isNumberic(iter[3]) &&
; 147  : 		isNumberic(iter[4]);
; 148  : }

  00058	5d		 pop	 ebp
  00059	c3		 ret	 0
?IsValidToken@@YA_NPBD@Z ENDP				; IsValidToken
_TEXT	ENDS
; Function compile flags: /Ogtp
; File C:\Marty 5.5\Src-Client\Client\EterLib\GrpTextInstance.cpp
;	COMDAT ?isNumberic@@YA_ND@Z
_TEXT	SEGMENT
_chr$ = 8						; size = 1
?isNumberic@@YA_ND@Z PROC				; isNumberic, COMDAT

; 135  : {

  00000	55		 push	 ebp
  00001	8b ec		 mov	 ebp, esp

; 136  : 	if (chr >= '0' && chr <= '9')

  00003	8a 45 08	 mov	 al, BYTE PTR _chr$[ebp]
  00006	2c 30		 sub	 al, 48			; 00000030H
  00008	3c 09		 cmp	 al, 9
  0000a	0f 96 c0	 setbe	 al

; 137  : 		return true;
; 138  : 	return false;
; 139  : }

  0000d	5d		 pop	 ebp
  0000e	c3		 ret	 0
?isNumberic@@YA_ND@Z ENDP				; isNumberic
_TEXT	ENDS
; Function compile flags: /Ogtp
; File C:\Marty 5.5\Src-Client\Client\EterLib\GrpTextInstance.cpp
; File D:\Program Files\Microsoft Visual Studio\2022\Community\VC\Tools\MSVC\14.43.34808\include\list
; File D:\Program Files\Microsoft Visual Studio\2022\Community\VC\Tools\MSVC\14.43.34808\include\xmemory
; File D:\Program Files\Microsoft Visual Studio\2022\Community\VC\Tools\MSVC\14.43.34808\include\list
; File D:\Program Files\Microsoft Visual Studio\2022\Community\VC\Tools\MSVC\14.43.34808\include\xmemory
; File D:\Program Files\Microsoft Visual Studio\2022\Community\VC\Tools\MSVC\14.43.34808\include\list
; File C:\Marty 5.5\Src-Client\Client\EterLib\GrpTextInstance.cpp
; File D:\Program Files\Microsoft Visual Studio\2022\Community\VC\Tools\MSVC\14.43.34808\include\list
; File D:\Program Files\Microsoft Visual Studio\2022\Community\VC\Tools\MSVC\14.43.34808\include\xutility
; File D:\Program Files\Microsoft Visual Studio\2022\Community\VC\Tools\MSVC\14.43.34808\include\list
; File D:\Program Files\Microsoft Visual Studio\2022\Community\VC\Tools\MSVC\14.43.34808\include\xutility
; File D:\Program Files\Microsoft Visual Studio\2022\Community\VC\Tools\MSVC\14.43.34808\include\list
; File C:\Marty 5.5\Src-Client\Client\EterLib\GrpTextInstance.cpp
; File D:\Program Files\Microsoft Visual Studio\2022\Community\VC\Tools\MSVC\14.43.34808\include\list
; File D:\Program Files\Microsoft Visual Studio\2022\Community\VC\Tools\MSVC\14.43.34808\include\xmemory
; File D:\Program Files\Microsoft Visual Studio\2022\Community\VC\Tools\MSVC\14.43.34808\include\list
; File D:\Program Files\Microsoft Visual Studio\2022\Community\VC\Tools\MSVC\14.43.34808\include\xmemory
; File C:\Marty 5.5\Src-Client\Client\EterLib\GrpTextInstance.cpp
; File D:\Program Files\Microsoft Visual Studio\2022\Community\VC\Tools\MSVC\14.43.34808\include\list
; File C:\Marty 5.5\Src-Client\Client\EterLib\GrpTextInstance.cpp
;	COMDAT ?__GraphicTextInstancesList@@YAXPAVCGraphicTextInstance@@_N@Z
_TEXT	SEGMENT
__Op$2 = -20						; size = 8
__$EHRec$ = -12						; size = 12
_t$ = 8							; size = 4
_add$ = 12						; size = 1
?__GraphicTextInstancesList@@YAXPAVCGraphicTextInstance@@_N@Z PROC ; __GraphicTextInstancesList, COMDAT

; 56   : {

  00000	55		 push	 ebp
  00001	8b ec		 mov	 ebp, esp
  00003	6a ff		 push	 -1
  00005	68 00 00 00 00	 push	 __ehhandler$?__GraphicTextInstancesList@@YAXPAVCGraphicTextInstance@@_N@Z
  0000a	64 a1 00 00 00
	00		 mov	 eax, DWORD PTR fs:0
  00010	50		 push	 eax
  00011	83 ec 08	 sub	 esp, 8
  00014	56		 push	 esi
  00015	57		 push	 edi
  00016	a1 00 00 00 00	 mov	 eax, DWORD PTR ___security_cookie
  0001b	33 c5		 xor	 eax, ebp
  0001d	50		 push	 eax
  0001e	8d 45 f4	 lea	 eax, DWORD PTR __$EHRec$[ebp]
  00021	64 a3 00 00 00
	00		 mov	 DWORD PTR fs:0, eax

; 57   : 	if (!t)

  00027	8b 75 08	 mov	 esi, DWORD PTR _t$[ebp]
  0002a	85 f6		 test	 esi, esi
  0002c	0f 84 9d 00 00
	00		 je	 $LN206@GraphicTex

; 58   : 	{
; 59   : 		return;
; 60   : 	}
; 61   : 
; 62   : 	if (add)

  00032	80 7d 0c 00	 cmp	 BYTE PTR _add$[ebp], 0
  00036	74 5c		 je	 SHORT $LN3@GraphicTex
; File D:\Program Files\Microsoft Visual Studio\2022\Community\VC\Tools\MSVC\14.43.34808\include\list

; 1020 :         if (_Mysize == max_size()) {

  00038	81 3d 04 00 00
	00 55 55 55 15	 cmp	 DWORD PTR ?GraphicTextInstances@@3V?$list@PAVCGraphicTextInstance@@V?$allocator@PAVCGraphicTextInstance@@@std@@@std@@A+4, 357913941 ; 15555555H

; 1264 :         _Emplace(_Mypair._Myval2._Myhead, _Val);

  00042	8b 3d 00 00 00
	00		 mov	 edi, DWORD PTR ?GraphicTextInstances@@3V?$list@PAVCGraphicTextInstance@@V?$allocator@PAVCGraphicTextInstance@@@std@@@std@@A

; 1020 :         if (_Mysize == max_size()) {

  00048	0f 84 92 00 00
	00		 je	 $LN218@GraphicTex
; File D:\Program Files\Microsoft Visual Studio\2022\Community\VC\Tools\MSVC\14.43.34808\include\xmemory

; 1156 :     _CONSTEXPR20 explicit _Alloc_construct_ptr(_Alloc& _Al_) : _Al(_Al_), _Ptr(nullptr) {}

  0004e	c7 45 ec 00 00
	00 00		 mov	 DWORD PTR __Op$2[ebp], OFFSET ?GraphicTextInstances@@3V?$list@PAVCGraphicTextInstance@@V?$allocator@PAVCGraphicTextInstance@@@std@@@std@@A ; GraphicTextInstances

; 136  :         return ::operator new(_Bytes);

  00055	6a 0c		 push	 12			; 0000000cH
; File D:\Program Files\Microsoft Visual Studio\2022\Community\VC\Tools\MSVC\14.43.34808\include\list

; 583  :     explicit _List_node_emplace_op2(_Alnode& _Al_, _Valtys&&... _Vals) : _Alloc_construct_ptr<_Alnode>(_Al_) {

  00057	c7 45 fc 00 00
	00 00		 mov	 DWORD PTR __$EHRec$[ebp+8], 0
; File D:\Program Files\Microsoft Visual Studio\2022\Community\VC\Tools\MSVC\14.43.34808\include\xmemory

; 1163 :         _Ptr = nullptr; // if allocate throws, prevents double-free

  0005e	c7 45 f0 00 00
	00 00		 mov	 DWORD PTR __Op$2[ebp+4], 0

; 136  :         return ::operator new(_Bytes);

  00065	e8 00 00 00 00	 call	 ??2@YAPAXI@Z		; operator new
  0006a	83 c4 04	 add	 esp, 4
; File D:\Program Files\Microsoft Visual Studio\2022\Community\VC\Tools\MSVC\14.43.34808\include\list

; 585  :         _Alnode_traits::construct(this->_Al, _STD addressof(this->_Ptr->_Myval), _STD forward<_Valtys>(_Vals)...);

  0006d	89 70 08	 mov	 DWORD PTR [eax+8], esi

; 1025 :         ++_Mysize;

  00070	ff 05 04 00 00
	00		 inc	 DWORD PTR ?GraphicTextInstances@@3V?$list@PAVCGraphicTextInstance@@V?$allocator@PAVCGraphicTextInstance@@@std@@@std@@A+4

; 598  :         const pointer _Insert_after = _Insert_before->_Prev;

  00076	8b 4f 04	 mov	 ecx, DWORD PTR [edi+4]

; 599  :         _Construct_in_place(this->_Ptr->_Next, _Insert_before);

  00079	89 38		 mov	 DWORD PTR [eax], edi

; 600  :         _Construct_in_place(this->_Ptr->_Prev, _Insert_after);

  0007b	89 48 04	 mov	 DWORD PTR [eax+4], ecx

; 601  :         const auto _Result    = this->_Ptr;
; 602  :         this->_Ptr            = pointer{};
; 603  :         _Insert_before->_Prev = _Result;

  0007e	89 47 04	 mov	 DWORD PTR [edi+4], eax

; 604  :         _Insert_after->_Next  = _Result;

  00081	89 01		 mov	 DWORD PTR [ecx], eax
; File C:\Marty 5.5\Src-Client\Client\EterLib\GrpTextInstance.cpp

; 73   : }

  00083	8b 4d f4	 mov	 ecx, DWORD PTR __$EHRec$[ebp]
  00086	64 89 0d 00 00
	00 00		 mov	 DWORD PTR fs:0, ecx
  0008d	59		 pop	 ecx
  0008e	5f		 pop	 edi
  0008f	5e		 pop	 esi
  00090	8b e5		 mov	 esp, ebp
  00092	5d		 pop	 ebp
  00093	c3		 ret	 0
$LN3@GraphicTex:
; File D:\Program Files\Microsoft Visual Studio\2022\Community\VC\Tools\MSVC\14.43.34808\include\list

; 37   :     _List_unchecked_const_iterator(_Nodeptr _Pnode, const _Mylist* _Plist) noexcept : _Ptr(_Pnode) {

  00094	8b 0d 00 00 00
	00		 mov	 ecx, DWORD PTR ?GraphicTextInstances@@3V?$list@PAVCGraphicTextInstance@@V?$allocator@PAVCGraphicTextInstance@@@std@@@std@@A
  0009a	8b 01		 mov	 eax, DWORD PTR [ecx]

; 72   :         return _Ptr == _Right._Ptr;

  0009c	3b c1		 cmp	 eax, ecx
; File D:\Program Files\Microsoft Visual Studio\2022\Community\VC\Tools\MSVC\14.43.34808\include\xutility

; 6175 :     for (; _First != _Last; ++_First) {

  0009e	74 2f		 je	 SHORT $LN206@GraphicTex
$LL123@GraphicTex:

; 6176 :         if (*_First == _Val) {

  000a0	39 70 08	 cmp	 DWORD PTR [eax+8], esi
  000a3	74 06		 je	 SHORT $LN209@GraphicTex
; File D:\Program Files\Microsoft Visual Studio\2022\Community\VC\Tools\MSVC\14.43.34808\include\list

; 50   :         _Ptr = _Ptr->_Next;

  000a5	8b 00		 mov	 eax, DWORD PTR [eax]

; 72   :         return _Ptr == _Right._Ptr;

  000a7	3b c1		 cmp	 eax, ecx
; File D:\Program Files\Microsoft Visual Studio\2022\Community\VC\Tools\MSVC\14.43.34808\include\xutility

; 6175 :     for (; _First != _Last; ++_First) {

  000a9	75 f5		 jne	 SHORT $LL123@GraphicTex
$LN209@GraphicTex:
; File D:\Program Files\Microsoft Visual Studio\2022\Community\VC\Tools\MSVC\14.43.34808\include\list

; 37   :     _List_unchecked_const_iterator(_Nodeptr _Pnode, const _Mylist* _Plist) noexcept : _Ptr(_Pnode) {

  000ab	3b c1		 cmp	 eax, ecx
; File C:\Marty 5.5\Src-Client\Client\EterLib\GrpTextInstance.cpp

; 69   : 	if (it != GraphicTextInstances.end())

  000ad	74 20		 je	 SHORT $LN206@GraphicTex
; File D:\Program Files\Microsoft Visual Studio\2022\Community\VC\Tools\MSVC\14.43.34808\include\list

; 395  :         _Pnode->_Prev->_Next = _Pnode->_Next;

  000af	8b 50 04	 mov	 edx, DWORD PTR [eax+4]
  000b2	8b 08		 mov	 ecx, DWORD PTR [eax]
; File D:\Program Files\Microsoft Visual Studio\2022\Community\VC\Tools\MSVC\14.43.34808\include\xmemory

; 289  :         ::operator delete(_Ptr, _Bytes);

  000b4	6a 0c		 push	 12			; 0000000cH
  000b6	50		 push	 eax
; File D:\Program Files\Microsoft Visual Studio\2022\Community\VC\Tools\MSVC\14.43.34808\include\list

; 395  :         _Pnode->_Prev->_Next = _Pnode->_Next;

  000b7	89 0a		 mov	 DWORD PTR [edx], ecx

; 396  :         _Pnode->_Next->_Prev = _Pnode->_Prev;

  000b9	8b 10		 mov	 edx, DWORD PTR [eax]
  000bb	8b 48 04	 mov	 ecx, DWORD PTR [eax+4]
  000be	89 4a 04	 mov	 DWORD PTR [edx+4], ecx

; 397  :         --_Mysize;

  000c1	ff 0d 04 00 00
	00		 dec	 DWORD PTR ?GraphicTextInstances@@3V?$list@PAVCGraphicTextInstance@@V?$allocator@PAVCGraphicTextInstance@@@std@@@std@@A+4
; File D:\Program Files\Microsoft Visual Studio\2022\Community\VC\Tools\MSVC\14.43.34808\include\xmemory

; 289  :         ::operator delete(_Ptr, _Bytes);

  000c7	e8 00 00 00 00	 call	 ??3@YAXPAXI@Z		; operator delete
  000cc	83 c4 08	 add	 esp, 8
$LN206@GraphicTex:
; File C:\Marty 5.5\Src-Client\Client\EterLib\GrpTextInstance.cpp

; 73   : }

  000cf	8b 4d f4	 mov	 ecx, DWORD PTR __$EHRec$[ebp]
  000d2	64 89 0d 00 00
	00 00		 mov	 DWORD PTR fs:0, ecx
  000d9	59		 pop	 ecx
  000da	5f		 pop	 edi
  000db	5e		 pop	 esi
  000dc	8b e5		 mov	 esp, ebp
  000de	5d		 pop	 ebp
  000df	c3		 ret	 0
$LN218@GraphicTex:
; File D:\Program Files\Microsoft Visual Studio\2022\Community\VC\Tools\MSVC\14.43.34808\include\list

; 1021 :             _Xlength_error("list too long");

  000e0	68 00 00 00 00	 push	 OFFSET ??_C@_0O@NKNMEGII@list?5too?5long@
  000e5	e8 00 00 00 00	 call	 ?_Xlength_error@std@@YAXPBD@Z ; std::_Xlength_error
$LN215@GraphicTex:
  000ea	cc		 int	 3
_TEXT	ENDS
;	COMDAT text$x
text$x	SEGMENT
__unwindfunclet$?__GraphicTextInstancesList@@YAXPAVCGraphicTextInstance@@_N@Z$1:
  00000	8d 4d ec	 lea	 ecx, DWORD PTR __Op$2[ebp]
  00003	e9 00 00 00 00	 jmp	 ??1?$_Alloc_construct_ptr@V?$allocator@U?$_List_node@PAVCGraphicTextInstance@@PAX@std@@@std@@@std@@QAE@XZ ; std::_Alloc_construct_ptr<std::allocator<std::_List_node<CGraphicTextInstance *,void *> > >::~_Alloc_construct_ptr<std::allocator<std::_List_node<CGraphicTextInstance *,void *> > >
  00008	cc		 int	 3
  00009	cc		 int	 3
  0000a	cc		 int	 3
  0000b	cc		 int	 3
  0000c	cc		 int	 3
__ehhandler$?__GraphicTextInstancesList@@YAXPAVCGraphicTextInstance@@_N@Z:
  0000d	90		 npad	 1
  0000e	90		 npad	 1
  0000f	8b 54 24 08	 mov	 edx, DWORD PTR [esp+8]
  00013	8d 42 0c	 lea	 eax, DWORD PTR [edx+12]
  00016	8b 4a ec	 mov	 ecx, DWORD PTR [edx-20]
  00019	33 c8		 xor	 ecx, eax
  0001b	e8 00 00 00 00	 call	 @__security_check_cookie@4
  00020	b8 00 00 00 00	 mov	 eax, OFFSET __ehfuncinfo$?__GraphicTextInstancesList@@YAXPAVCGraphicTextInstance@@_N@Z
  00025	e9 00 00 00 00	 jmp	 ___CxxFrameHandler3
text$x	ENDS
?__GraphicTextInstancesList@@YAXPAVCGraphicTextInstance@@_N@Z ENDP ; __GraphicTextInstancesList
; Function compile flags: /Ogtp
; File C:\Marty 5.5\Src-Client\Client\EterLib\GrpTextInstance.cpp
; File D:\Program Files\Microsoft Visual Studio\2022\Community\VC\Tools\MSVC\14.43.34808\include\list
; File C:\Marty 5.5\Src-Client\Client\EterLib\GrpTextInstance.cpp
; File D:\Program Files\Microsoft Visual Studio\2022\Community\VC\Tools\MSVC\14.43.34808\include\list
; File C:\Marty 5.5\Src-Client\Client\EterLib\GrpTextInstance.cpp
; File C:\Marty 5.5\Src-Client\Client\EterLib\GrpTextInstance.h
; File C:\Marty 5.5\Src-Client\Client\EterLib\GrpTextInstance.cpp
; File D:\Program Files\Microsoft Visual Studio\2022\Community\VC\Tools\MSVC\14.43.34808\include\list
; File C:\Marty 5.5\Src-Client\Client\EterLib\GrpTextInstance.cpp
;	COMDAT ?GraphicTextInstancesReload@@YAXPAVCGraphicText@@@Z
_TEXT	SEGMENT
_pkDefaultFont$ = 8					; size = 4
?GraphicTextInstancesReload@@YAXPAVCGraphicText@@@Z PROC ; GraphicTextInstancesReload, COMDAT

; 36   : {

  00000	55		 push	 ebp
  00001	8b ec		 mov	 ebp, esp
; File D:\Program Files\Microsoft Visual Studio\2022\Community\VC\Tools\MSVC\14.43.34808\include\list

; 37   :     _List_unchecked_const_iterator(_Nodeptr _Pnode, const _Mylist* _Plist) noexcept : _Ptr(_Pnode) {

  00003	a1 00 00 00 00	 mov	 eax, DWORD PTR ?GraphicTextInstances@@3V?$list@PAVCGraphicTextInstance@@V?$allocator@PAVCGraphicTextInstance@@@std@@@std@@A
; File C:\Marty 5.5\Src-Client\Client\EterLib\GrpTextInstance.cpp

; 37   : 	pkDefaultFont_RELOAD = pkDefaultFont;

  00008	8b 4d 08	 mov	 ecx, DWORD PTR _pkDefaultFont$[ebp]
  0000b	56		 push	 esi
  0000c	89 0d 00 00 00
	00		 mov	 DWORD PTR ?pkDefaultFont_RELOAD@@3PAVCGraphicText@@A, ecx
; File D:\Program Files\Microsoft Visual Studio\2022\Community\VC\Tools\MSVC\14.43.34808\include\list

; 37   :     _List_unchecked_const_iterator(_Nodeptr _Pnode, const _Mylist* _Plist) noexcept : _Ptr(_Pnode) {

  00012	8b 30		 mov	 esi, DWORD PTR [eax]
  00014	3b f0		 cmp	 esi, eax
; File C:\Marty 5.5\Src-Client\Client\EterLib\GrpTextInstance.cpp

; 40   : 	for (; it != GraphicTextInstances.end(); it++)

  00016	74 3a		 je	 SHORT $LN3@GraphicTex
  00018	57		 push	 edi
  00019	0f 1f 80 00 00
	00 00		 npad	 7
$LL4@GraphicTex:

; 41   : 	{
; 42   : 
; 43   : 		CGraphicTextInstance * t = *(it);

  00020	8b 7e 08	 mov	 edi, DWORD PTR [esi+8]

; 44   : 		if (!t || t->GetDynamicFontOff())

  00023	85 ff		 test	 edi, edi
  00025	74 24		 je	 SHORT $LN2@GraphicTex
  00027	80 7f 44 00	 cmp	 BYTE PTR [edi+68], 0
  0002b	75 1e		 jne	 SHORT $LN2@GraphicTex

; 45   : 		{
; 46   : 			continue;
; 47   : 		}
; 48   : 
; 49   : 		t->SetTextPointer(pkDefaultFont_RELOAD);

  0002d	51		 push	 ecx
  0002e	8b cf		 mov	 ecx, edi
  00030	e8 00 00 00 00	 call	 ?SetTextPointer@CGraphicTextInstance@@QAEXPAVCGraphicText@@@Z ; CGraphicTextInstance::SetTextPointer

; 51   : 		t->Update();

  00035	8b cf		 mov	 ecx, edi
; File C:\Marty 5.5\Src-Client\Client\EterLib\GrpTextInstance.h

; 76   : 		void DisableUpdate() { m_isUpdate = false; }

  00037	c6 47 45 00	 mov	 BYTE PTR [edi+69], 0
; File C:\Marty 5.5\Src-Client\Client\EterLib\GrpTextInstance.cpp

; 51   : 		t->Update();

  0003b	e8 00 00 00 00	 call	 ?Update@CGraphicTextInstance@@QAEXXZ ; CGraphicTextInstance::Update
  00040	8b 0d 00 00 00
	00		 mov	 ecx, DWORD PTR ?pkDefaultFont_RELOAD@@3PAVCGraphicText@@A
  00046	a1 00 00 00 00	 mov	 eax, DWORD PTR ?GraphicTextInstances@@3V?$list@PAVCGraphicTextInstance@@V?$allocator@PAVCGraphicTextInstance@@@std@@@std@@A
$LN2@GraphicTex:
; File D:\Program Files\Microsoft Visual Studio\2022\Community\VC\Tools\MSVC\14.43.34808\include\list

; 164  :         this->_Ptr = this->_Ptr->_Next;

  0004b	8b 36		 mov	 esi, DWORD PTR [esi]

; 197  :         return this->_Ptr == _Right._Ptr;

  0004d	3b f0		 cmp	 esi, eax
; File C:\Marty 5.5\Src-Client\Client\EterLib\GrpTextInstance.cpp

; 40   : 	for (; it != GraphicTextInstances.end(); it++)

  0004f	75 cf		 jne	 SHORT $LL4@GraphicTex
  00051	5f		 pop	 edi
$LN3@GraphicTex:
  00052	5e		 pop	 esi

; 52   : 	}
; 53   : }

  00053	5d		 pop	 ebp
  00054	c3		 ret	 0
?GraphicTextInstancesReload@@YAXPAVCGraphicText@@@Z ENDP ; GraphicTextInstancesReload
_TEXT	ENDS
; Function compile flags: /Ogtp
; File D:\Program Files\Microsoft Visual Studio\2022\Community\VC\Tools\MSVC\14.43.34808\include\list
; File D:\Program Files\Microsoft Visual Studio\2022\Community\VC\Tools\MSVC\14.43.34808\include\xmemory
; File D:\Program Files\Microsoft Visual Studio\2022\Community\VC\Tools\MSVC\14.43.34808\include\list
; File D:\Program Files\Microsoft Visual Studio\2022\Community\VC\Tools\MSVC\14.43.34808\include\xmemory
;	COMDAT ??__FGraphicTextInstances@@YAXXZ
text$yd	SEGMENT
??__FGraphicTextInstances@@YAXXZ PROC			; `dynamic atexit destructor for 'GraphicTextInstances'', COMDAT
; File D:\Program Files\Microsoft Visual Studio\2022\Community\VC\Tools\MSVC\14.43.34808\include\list

; 1508 :         _Node::_Free_non_head(_Al, _My_data._Myhead);

  00000	8b 0d 00 00 00
	00		 mov	 ecx, DWORD PTR ?GraphicTextInstances@@3V?$list@PAVCGraphicTextInstance@@V?$allocator@PAVCGraphicTextInstance@@@std@@@std@@A

; 324  :         _Head->_Prev->_Next = nullptr;

  00006	8b 41 04	 mov	 eax, DWORD PTR [ecx+4]
  00009	c7 00 00 00 00
	00		 mov	 DWORD PTR [eax], 0

; 325  : 
; 326  :         auto _Pnode = _Head->_Next;

  0000f	8b 01		 mov	 eax, DWORD PTR [ecx]

; 327  :         for (_Nodeptr _Pnext; _Pnode; _Pnode = _Pnext) {

  00011	85 c0		 test	 eax, eax
  00013	74 15		 je	 SHORT $LN71@dynamic
  00015	56		 push	 esi
$LL12@dynamic:

; 328  :             _Pnext = _Pnode->_Next;

  00016	8b 30		 mov	 esi, DWORD PTR [eax]
; File D:\Program Files\Microsoft Visual Studio\2022\Community\VC\Tools\MSVC\14.43.34808\include\xmemory

; 289  :         ::operator delete(_Ptr, _Bytes);

  00018	6a 0c		 push	 12			; 0000000cH
  0001a	50		 push	 eax
  0001b	e8 00 00 00 00	 call	 ??3@YAXPAXI@Z		; operator delete
  00020	83 c4 08	 add	 esp, 8
; File D:\Program Files\Microsoft Visual Studio\2022\Community\VC\Tools\MSVC\14.43.34808\include\list

; 327  :         for (_Nodeptr _Pnext; _Pnode; _Pnode = _Pnext) {

  00023	8b c6		 mov	 eax, esi
  00025	85 f6		 test	 esi, esi
  00027	75 ed		 jne	 SHORT $LL12@dynamic
  00029	5e		 pop	 esi
$LN71@dynamic:
; File D:\Program Files\Microsoft Visual Studio\2022\Community\VC\Tools\MSVC\14.43.34808\include\xmemory

; 289  :         ::operator delete(_Ptr, _Bytes);

  0002a	6a 0c		 push	 12			; 0000000cH
  0002c	ff 35 00 00 00
	00		 push	 DWORD PTR ?GraphicTextInstances@@3V?$list@PAVCGraphicTextInstance@@V?$allocator@PAVCGraphicTextInstance@@@std@@@std@@A
  00032	e8 00 00 00 00	 call	 ??3@YAXPAXI@Z		; operator delete
  00037	83 c4 08	 add	 esp, 8
  0003a	c3		 ret	 0
??__FGraphicTextInstances@@YAXXZ ENDP			; `dynamic atexit destructor for 'GraphicTextInstances''
text$yd	ENDS
; Function compile flags: /Ogtp
; File C:\Marty 5.5\Src-Client\Client\EterLib\GrpTextInstance.cpp
; File D:\Program Files\Microsoft Visual Studio\2022\Community\VC\Tools\MSVC\14.43.34808\include\xmemory
; File C:\Marty 5.5\Src-Client\Client\EterLib\GrpTextInstance.cpp
; File D:\Program Files\Microsoft Visual Studio\2022\Community\VC\Tools\MSVC\14.43.34808\include\list
; File C:\Marty 5.5\Src-Client\Client\EterLib\GrpTextInstance.cpp
;	COMDAT ??__EGraphicTextInstances@@YAXXZ
text$di	SEGMENT
??__EGraphicTextInstances@@YAXXZ PROC			; `dynamic initializer for 'GraphicTextInstances'', COMDAT
; File D:\Program Files\Microsoft Visual Studio\2022\Community\VC\Tools\MSVC\14.43.34808\include\xmemory

; 136  :         return ::operator new(_Bytes);

  00000	6a 0c		 push	 12			; 0000000cH
  00002	e8 00 00 00 00	 call	 ??2@YAPAXI@Z		; operator new
; File C:\Marty 5.5\Src-Client\Client\EterLib\GrpTextInstance.cpp

; 33   : t_GraphicTextInstances GraphicTextInstances;

  00007	68 00 00 00 00	 push	 OFFSET ??__FGraphicTextInstances@@YAXXZ ; `dynamic atexit destructor for 'GraphicTextInstances''
; File D:\Program Files\Microsoft Visual Studio\2022\Community\VC\Tools\MSVC\14.43.34808\include\list

; 1844 :         _Construct_in_place(_Newhead->_Next, _Newhead);

  0000c	89 00		 mov	 DWORD PTR [eax], eax

; 1845 :         _Construct_in_place(_Newhead->_Prev, _Newhead);

  0000e	89 40 04	 mov	 DWORD PTR [eax+4], eax

; 1846 :         _Mypair._Myval2._Myhead = _Newhead;

  00011	a3 00 00 00 00	 mov	 DWORD PTR ?GraphicTextInstances@@3V?$list@PAVCGraphicTextInstance@@V?$allocator@PAVCGraphicTextInstance@@@std@@@std@@A, eax
; File C:\Marty 5.5\Src-Client\Client\EterLib\GrpTextInstance.cpp

; 33   : t_GraphicTextInstances GraphicTextInstances;

  00016	e8 00 00 00 00	 call	 _atexit
  0001b	83 c4 08	 add	 esp, 8
  0001e	c3		 ret	 0
??__EGraphicTextInstances@@YAXXZ ENDP			; `dynamic initializer for 'GraphicTextInstances''
text$di	ENDS
; Function compile flags: /Ogtp
; File D:\Program Files\Microsoft Visual Studio\2022\Community\VC\Tools\MSVC\14.43.34808\include\xstring
; File D:\Program Files\Microsoft Visual Studio\2022\Community\VC\Tools\MSVC\14.43.34808\include\xmemory
; File D:\Program Files\Microsoft Visual Studio\2022\Community\VC\Tools\MSVC\14.43.34808\include\xstring
;	COMDAT ??__Fgs_hyperlinkText@@YAXXZ
text$yd	SEGMENT
??__Fgs_hyperlinkText@@YAXXZ PROC			; `dynamic atexit destructor for 'gs_hyperlinkText'', COMDAT

; 434  :         return _Myres > _Small_string_capacity;

  00000	8b 0d 14 00 00
	00		 mov	 ecx, DWORD PTR ?gs_hyperlinkText@@3V?$basic_string@_WU?$char_traits@_W@std@@V?$allocator@_W@2@@std@@A+20
  00006	83 f9 07	 cmp	 ecx, 7

; 3047 :         if (_My_data._Large_mode_engaged()) {

  00009	76 35		 jbe	 SHORT $LN23@dynamic
; File D:\Program Files\Microsoft Visual Studio\2022\Community\VC\Tools\MSVC\14.43.34808\include\xmemory

; 981  :         _STD _Deallocate<_New_alignof<_Ty>>(_Ptr, sizeof(_Ty) * _Count);

  0000b	8b 15 00 00 00
	00		 mov	 edx, DWORD PTR ?gs_hyperlinkText@@3V?$basic_string@_WU?$char_traits@_W@std@@V?$allocator@_W@2@@std@@A
  00011	8d 0c 4d 02 00
	00 00		 lea	 ecx, DWORD PTR [ecx*2+2]
  00018	8b c2		 mov	 eax, edx

; 284  :         if (_Bytes >= _Big_allocation_threshold) {

  0001a	81 f9 00 10 00
	00		 cmp	 ecx, 4096		; 00001000H
  00020	72 14		 jb	 SHORT $LN34@dynamic

; 205  :     const uintptr_t _Ptr_container   = _Ptr_user[-1];

  00022	8b 50 fc	 mov	 edx, DWORD PTR [eax-4]
  00025	83 c1 23	 add	 ecx, 35			; 00000023H
  00028	2b c2		 sub	 eax, edx

; 206  : 
; 207  :     // If the following asserts, it likely means that we are performing
; 208  :     // an aligned delete on memory coming from an unaligned allocation.
; 209  :     _STL_ASSERT(_Ptr_user[-2] == _Big_allocation_sentinel, "invalid argument");
; 210  : 
; 211  :     // Extra paranoia on aligned allocation/deallocation; ensure _Ptr_container is
; 212  :     // in range [_Min_back_shift, _Non_user_size]
; 213  : #ifdef _DEBUG
; 214  :     constexpr uintptr_t _Min_back_shift = 2 * sizeof(void*);
; 215  : #else // ^^^ defined(_DEBUG) / !defined(_DEBUG) vvv
; 216  :     constexpr uintptr_t _Min_back_shift = sizeof(void*);
; 217  : #endif // ^^^ !defined(_DEBUG) ^^^
; 218  :     const uintptr_t _Back_shift = reinterpret_cast<uintptr_t>(_Ptr) - _Ptr_container;
; 219  :     _STL_VERIFY(_Back_shift >= _Min_back_shift && _Back_shift <= _Non_user_size, "invalid argument");

  0002a	83 c0 fc	 add	 eax, -4			; fffffffcH
  0002d	83 f8 1f	 cmp	 eax, 31			; 0000001fH
  00030	0f 87 00 00 00
	00		 ja	 __invalid_parameter_noinfo_noreturn
$LN34@dynamic:

; 289  :         ::operator delete(_Ptr, _Bytes);

  00036	51		 push	 ecx
  00037	52		 push	 edx
  00038	e8 00 00 00 00	 call	 ??3@YAXPAXI@Z		; operator delete
  0003d	83 c4 08	 add	 esp, 8
$LN23@dynamic:
; File D:\Program Files\Microsoft Visual Studio\2022\Community\VC\Tools\MSVC\14.43.34808\include\xstring

; 3057 :         _Traits::assign(_My_data._Bx._Buf[0], _Elem());

  00040	33 c0		 xor	 eax, eax
  00042	c7 05 10 00 00
	00 00 00 00 00	 mov	 DWORD PTR ?gs_hyperlinkText@@3V?$basic_string@_WU?$char_traits@_W@std@@V?$allocator@_W@2@@std@@A+16, 0
  0004c	c7 05 14 00 00
	00 07 00 00 00	 mov	 DWORD PTR ?gs_hyperlinkText@@3V?$basic_string@_WU?$char_traits@_W@std@@V?$allocator@_W@2@@std@@A+20, 7
  00056	66 a3 00 00 00
	00		 mov	 WORD PTR ?gs_hyperlinkText@@3V?$basic_string@_WU?$char_traits@_W@std@@V?$allocator@_W@2@@std@@A, ax
  0005c	c3		 ret	 0
??__Fgs_hyperlinkText@@YAXXZ ENDP			; `dynamic atexit destructor for 'gs_hyperlinkText''
text$yd	ENDS
; Function compile flags: /Ogtp
; File C:\Marty 5.5\Src-Client\Client\EterLib\GrpTextInstance.cpp
;	COMDAT ??__Egs_hyperlinkText@@YAXXZ
text$di	SEGMENT
??__Egs_hyperlinkText@@YAXXZ PROC			; `dynamic initializer for 'gs_hyperlinkText'', COMDAT

; 26   : static std::wstring gs_hyperlinkText;

  00000	68 00 00 00 00	 push	 OFFSET ??__Fgs_hyperlinkText@@YAXXZ ; `dynamic atexit destructor for 'gs_hyperlinkText''
  00005	e8 00 00 00 00	 call	 _atexit
  0000a	59		 pop	 ecx
  0000b	c3		 ret	 0
??__Egs_hyperlinkText@@YAXXZ ENDP			; `dynamic initializer for 'gs_hyperlinkText''
text$di	ENDS
; Function compile flags: /Ogtp
;	COMDAT ??__F?ms_kPool@CGraphicTextInstance@@2V?$CDynamicPool@VCGraphicTextInstance@@@@A@@YAXXZ
text$yd	SEGMENT
??__F?ms_kPool@CGraphicTextInstance@@2V?$CDynamicPool@VCGraphicTextInstance@@@@A@@YAXXZ PROC ; `dynamic atexit destructor for 'CGraphicTextInstance::ms_kPool'', COMDAT
  00000	b9 00 00 00 00	 mov	 ecx, OFFSET ?ms_kPool@CGraphicTextInstance@@2V?$CDynamicPool@VCGraphicTextInstance@@@@A ; CGraphicTextInstance::ms_kPool
  00005	e9 00 00 00 00	 jmp	 ??1?$CDynamicPool@VCGraphicTextInstance@@@@UAE@XZ ; CDynamicPool<CGraphicTextInstance>::~CDynamicPool<CGraphicTextInstance>
??__F?ms_kPool@CGraphicTextInstance@@2V?$CDynamicPool@VCGraphicTextInstance@@@@A@@YAXXZ ENDP ; `dynamic atexit destructor for 'CGraphicTextInstance::ms_kPool''
text$yd	ENDS
; Function compile flags: /Ogtp
; File C:\Marty 5.5\Src-Client\Client\EterLib\GrpTextInstance.cpp
;	COMDAT ??__E?ms_kPool@CGraphicTextInstance@@2V?$CDynamicPool@VCGraphicTextInstance@@@@A@@YAXXZ
text$di	SEGMENT
??__E?ms_kPool@CGraphicTextInstance@@2V?$CDynamicPool@VCGraphicTextInstance@@@@A@@YAXXZ PROC ; `dynamic initializer for 'CGraphicTextInstance::ms_kPool'', COMDAT

; 21   : CDynamicPool<CGraphicTextInstance>		CGraphicTextInstance::ms_kPool;

  00000	68 00 00 00 00	 push	 OFFSET ??__F?ms_kPool@CGraphicTextInstance@@2V?$CDynamicPool@VCGraphicTextInstance@@@@A@@YAXXZ ; `dynamic atexit destructor for 'CGraphicTextInstance::ms_kPool''
  00005	e8 00 00 00 00	 call	 _atexit
  0000a	59		 pop	 ecx
  0000b	c3		 ret	 0
??__E?ms_kPool@CGraphicTextInstance@@2V?$CDynamicPool@VCGraphicTextInstance@@@@A@@YAXXZ ENDP ; `dynamic initializer for 'CGraphicTextInstance::ms_kPool''
text$di	ENDS
; Function compile flags: /Ogtp
;	COMDAT ??_G?$CDynamicPool@VCGraphicTextInstance@@@@UAEPAXI@Z
_TEXT	SEGMENT
___flags$ = 8						; size = 4
??_G?$CDynamicPool@VCGraphicTextInstance@@@@UAEPAXI@Z PROC ; CDynamicPool<CGraphicTextInstance>::`scalar deleting destructor', COMDAT
; _this$ = ecx
  00000	55		 push	 ebp
  00001	8b ec		 mov	 ebp, esp
  00003	56		 push	 esi
  00004	8b f1		 mov	 esi, ecx
  00006	e8 00 00 00 00	 call	 ??1?$CDynamicPool@VCGraphicTextInstance@@@@UAE@XZ ; CDynamicPool<CGraphicTextInstance>::~CDynamicPool<CGraphicTextInstance>
  0000b	f6 45 08 01	 test	 BYTE PTR ___flags$[ebp], 1
  0000f	74 0b		 je	 SHORT $LN5@scalar
  00011	6a 24		 push	 36			; 00000024H
  00013	56		 push	 esi
  00014	e8 00 00 00 00	 call	 ??3@YAXPAXI@Z		; operator delete
  00019	83 c4 08	 add	 esp, 8
$LN5@scalar:
  0001c	8b c6		 mov	 eax, esi
  0001e	5e		 pop	 esi
  0001f	5d		 pop	 ebp
  00020	c2 04 00	 ret	 4
??_G?$CDynamicPool@VCGraphicTextInstance@@@@UAEPAXI@Z ENDP ; CDynamicPool<CGraphicTextInstance>::`scalar deleting destructor'
_TEXT	ENDS
; Function compile flags: /Ogtp
; File D:\Program Files\Microsoft Visual Studio\2022\Community\VC\Tools\MSVC\14.43.34808\include\vector
;	COMDAT ?_Xlength@?$vector@PAVCGraphicTextInstance@@V?$allocator@PAVCGraphicTextInstance@@@std@@@std@@CAXXZ
_TEXT	SEGMENT
?_Xlength@?$vector@PAVCGraphicTextInstance@@V?$allocator@PAVCGraphicTextInstance@@@std@@@std@@CAXXZ PROC ; std::vector<CGraphicTextInstance *,std::allocator<CGraphicTextInstance *> >::_Xlength, COMDAT

; 2169 :         _Xlength_error("vector too long");

  00000	68 00 00 00 00	 push	 OFFSET ??_C@_0BA@FOIKENOD@vector?5too?5long@
  00005	e8 00 00 00 00	 call	 ?_Xlength_error@std@@YAXPBD@Z ; std::_Xlength_error
$LN3@Xlength:
  0000a	cc		 int	 3
?_Xlength@?$vector@PAVCGraphicTextInstance@@V?$allocator@PAVCGraphicTextInstance@@@std@@@std@@CAXXZ ENDP ; std::vector<CGraphicTextInstance *,std::allocator<CGraphicTextInstance *> >::_Xlength
_TEXT	ENDS
; Function compile flags: /Ogtp
; File D:\Program Files\Microsoft Visual Studio\2022\Community\VC\Tools\MSVC\14.43.34808\include\vector
; File D:\Program Files\Microsoft Visual Studio\2022\Community\VC\Tools\MSVC\14.43.34808\include\xmemory
; File D:\Program Files\Microsoft Visual Studio\2022\Community\VC\Tools\MSVC\14.43.34808\include\vector
; File D:\Program Files\Microsoft Visual Studio\2022\Community\VC\Tools\MSVC\14.43.34808\include\xmemory
; File D:\Program Files\Microsoft Visual Studio\2022\Community\VC\Tools\MSVC\14.43.34808\include\vector
;	COMDAT ?_Change_array@?$vector@PAVCGraphicTextInstance@@V?$allocator@PAVCGraphicTextInstance@@@std@@@std@@AAEXQAPAVCGraphicTextInstance@@II@Z
_TEXT	SEGMENT
__Newvec$ = 8						; size = 4
__Newsize$ = 12						; size = 4
__Newcapacity$ = 16					; size = 4
?_Change_array@?$vector@PAVCGraphicTextInstance@@V?$allocator@PAVCGraphicTextInstance@@@std@@@std@@AAEXQAPAVCGraphicTextInstance@@II@Z PROC ; std::vector<CGraphicTextInstance *,std::allocator<CGraphicTextInstance *> >::_Change_array, COMDAT
; _this$ = ecx

; 2044 :         const pointer _Newvec, const size_type _Newsize, const size_type _Newcapacity) noexcept {

  00000	55		 push	 ebp
  00001	8b ec		 mov	 ebp, esp
  00003	56		 push	 esi
  00004	8b f1		 mov	 esi, ecx

; 2045 :         // orphan all iterators, discard old array, acquire new array
; 2046 :         auto& _Al         = _Getal();
; 2047 :         auto& _My_data    = _Mypair._Myval2;
; 2048 :         pointer& _Myfirst = _My_data._Myfirst;
; 2049 :         pointer& _Mylast  = _My_data._Mylast;
; 2050 :         pointer& _Myend   = _My_data._Myend;
; 2051 : 
; 2052 :         _My_data._Orphan_all();
; 2053 : 
; 2054 :         if (_Myfirst) { // destroy and deallocate old array

  00006	8b 06		 mov	 eax, DWORD PTR [esi]
  00008	85 c0		 test	 eax, eax
  0000a	74 2c		 je	 SHORT $LN10@Change_arr

; 2055 :             _STD _Destroy_range(_Myfirst, _Mylast, _Al);
; 2056 :             _ASAN_VECTOR_REMOVE;
; 2057 :             _Al.deallocate(_Myfirst, static_cast<size_type>(_Myend - _Myfirst));

  0000c	8b 4e 08	 mov	 ecx, DWORD PTR [esi+8]
  0000f	2b c8		 sub	 ecx, eax
; File D:\Program Files\Microsoft Visual Studio\2022\Community\VC\Tools\MSVC\14.43.34808\include\xmemory

; 981  :         _STD _Deallocate<_New_alignof<_Ty>>(_Ptr, sizeof(_Ty) * _Count);

  00011	83 e1 fc	 and	 ecx, -4			; fffffffcH

; 284  :         if (_Bytes >= _Big_allocation_threshold) {

  00014	81 f9 00 10 00
	00		 cmp	 ecx, 4096		; 00001000H
  0001a	72 12		 jb	 SHORT $LN21@Change_arr

; 205  :     const uintptr_t _Ptr_container   = _Ptr_user[-1];

  0001c	8b 50 fc	 mov	 edx, DWORD PTR [eax-4]
  0001f	83 c1 23	 add	 ecx, 35			; 00000023H

; 206  : 
; 207  :     // If the following asserts, it likely means that we are performing
; 208  :     // an aligned delete on memory coming from an unaligned allocation.
; 209  :     _STL_ASSERT(_Ptr_user[-2] == _Big_allocation_sentinel, "invalid argument");
; 210  : 
; 211  :     // Extra paranoia on aligned allocation/deallocation; ensure _Ptr_container is
; 212  :     // in range [_Min_back_shift, _Non_user_size]
; 213  : #ifdef _DEBUG
; 214  :     constexpr uintptr_t _Min_back_shift = 2 * sizeof(void*);
; 215  : #else // ^^^ defined(_DEBUG) / !defined(_DEBUG) vvv
; 216  :     constexpr uintptr_t _Min_back_shift = sizeof(void*);
; 217  : #endif // ^^^ !defined(_DEBUG) ^^^
; 218  :     const uintptr_t _Back_shift = reinterpret_cast<uintptr_t>(_Ptr) - _Ptr_container;

  00022	2b c2		 sub	 eax, edx

; 219  :     _STL_VERIFY(_Back_shift >= _Min_back_shift && _Back_shift <= _Non_user_size, "invalid argument");

  00024	83 c0 fc	 add	 eax, -4			; fffffffcH
  00027	83 f8 1f	 cmp	 eax, 31			; 0000001fH
  0002a	77 28		 ja	 SHORT $LN18@Change_arr

; 220  :     _Ptr = reinterpret_cast<void*>(_Ptr_container);

  0002c	8b c2		 mov	 eax, edx
$LN21@Change_arr:

; 289  :         ::operator delete(_Ptr, _Bytes);

  0002e	51		 push	 ecx
  0002f	50		 push	 eax
  00030	e8 00 00 00 00	 call	 ??3@YAXPAXI@Z		; operator delete
  00035	83 c4 08	 add	 esp, 8
$LN10@Change_arr:
; File D:\Program Files\Microsoft Visual Studio\2022\Community\VC\Tools\MSVC\14.43.34808\include\vector

; 2060 :         _Myfirst = _Newvec;

  00038	8b 4d 08	 mov	 ecx, DWORD PTR __Newvec$[ebp]

; 2061 :         _Mylast  = _Newvec + _Newsize;

  0003b	8b 45 0c	 mov	 eax, DWORD PTR __Newsize$[ebp]
  0003e	89 0e		 mov	 DWORD PTR [esi], ecx
  00040	8d 04 81	 lea	 eax, DWORD PTR [ecx+eax*4]
  00043	89 46 04	 mov	 DWORD PTR [esi+4], eax

; 2062 :         _Myend   = _Newvec + _Newcapacity;

  00046	8b 45 10	 mov	 eax, DWORD PTR __Newcapacity$[ebp]
  00049	8d 04 81	 lea	 eax, DWORD PTR [ecx+eax*4]
  0004c	89 46 08	 mov	 DWORD PTR [esi+8], eax
  0004f	5e		 pop	 esi

; 2064 :     }

  00050	5d		 pop	 ebp
  00051	c2 0c 00	 ret	 12			; 0000000cH
$LN18@Change_arr:
; File D:\Program Files\Microsoft Visual Studio\2022\Community\VC\Tools\MSVC\14.43.34808\include\xmemory

; 219  :     _STL_VERIFY(_Back_shift >= _Min_back_shift && _Back_shift <= _Non_user_size, "invalid argument");

  00054	e8 00 00 00 00	 call	 __invalid_parameter_noinfo_noreturn
$LN28@Change_arr:
  00059	cc		 int	 3
?_Change_array@?$vector@PAVCGraphicTextInstance@@V?$allocator@PAVCGraphicTextInstance@@@std@@@std@@AAEXQAPAVCGraphicTextInstance@@II@Z ENDP ; std::vector<CGraphicTextInstance *,std::allocator<CGraphicTextInstance *> >::_Change_array
_TEXT	ENDS
; Function compile flags: /Ogtp
; File D:\Program Files\Microsoft Visual Studio\2022\Community\VC\Tools\MSVC\14.43.34808\include\vector
; File D:\Program Files\Microsoft Visual Studio\2022\Community\VC\Tools\MSVC\14.43.34808\include\xmemory
; File D:\Program Files\Microsoft Visual Studio\2022\Community\VC\Tools\MSVC\14.43.34808\include\vector
; File D:\Program Files\Microsoft Visual Studio\2022\Community\VC\Tools\MSVC\14.43.34808\include\xmemory
; File D:\Program Files\Microsoft Visual Studio\2022\Community\VC\Tools\MSVC\14.43.34808\include\vector
; File D:\Program Files\Microsoft Visual Studio\2022\Community\VC\Tools\MSVC\14.43.34808\include\xmemory
; File D:\Program Files\Microsoft Visual Studio\2022\Community\VC\Tools\MSVC\14.43.34808\include\vector
; File D:\Program Files\Microsoft Visual Studio\2022\Community\VC\Tools\MSVC\14.43.34808\include\xmemory
; File D:\Program Files\Microsoft Visual Studio\2022\Community\VC\Tools\MSVC\14.43.34808\include\vector
; File D:\Program Files\Microsoft Visual Studio\2022\Community\VC\Tools\MSVC\14.43.34808\include\xmemory
; File D:\Program Files\Microsoft Visual Studio\2022\Community\VC\Tools\MSVC\14.43.34808\include\vector
;	COMDAT ?reserve@?$vector@PAVCGraphicTextInstance@@V?$allocator@PAVCGraphicTextInstance@@@std@@@std@@QAEXI@Z
_TEXT	SEGMENT
__Newcapacity$ = 8					; size = 4
__Size$1$ = 8						; size = 4
?reserve@?$vector@PAVCGraphicTextInstance@@V?$allocator@PAVCGraphicTextInstance@@@std@@@std@@QAEXI@Z PROC ; std::vector<CGraphicTextInstance *,std::allocator<CGraphicTextInstance *> >::reserve, COMDAT
; _this$ = ecx

; 1708 :     _CONSTEXPR20 void reserve(_CRT_GUARDOVERFLOW size_type _Newcapacity) {

  00000	55		 push	 ebp
  00001	8b ec		 mov	 ebp, esp
  00003	56		 push	 esi
  00004	8b f1		 mov	 esi, ecx

; 1709 :         // increase capacity to _Newcapacity (without geometric growth), provide strong guarantee
; 1710 :         if (_Newcapacity > capacity()) { // something to do (reserve() never shrinks)

  00006	8b 4d 08	 mov	 ecx, DWORD PTR __Newcapacity$[ebp]

; 1909 :         return static_cast<size_type>(_My_data._Myend - _My_data._Myfirst);

  00009	8b 46 08	 mov	 eax, DWORD PTR [esi+8]
  0000c	8b 16		 mov	 edx, DWORD PTR [esi]
  0000e	2b c2		 sub	 eax, edx
  00010	c1 f8 02	 sar	 eax, 2

; 1709 :         // increase capacity to _Newcapacity (without geometric growth), provide strong guarantee
; 1710 :         if (_Newcapacity > capacity()) { // something to do (reserve() never shrinks)

  00013	3b c8		 cmp	 ecx, eax
  00015	0f 86 95 00 00
	00		 jbe	 $LN71@reserve

; 1711 :             if (_Newcapacity > max_size()) {

  0001b	81 f9 ff ff ff
	3f		 cmp	 ecx, 1073741823		; 3fffffffH
  00021	0f 87 93 00 00
	00		 ja	 $LN97@reserve

; 1634 :         const auto _Size = static_cast<size_type>(_Mylast - _Myfirst);

  00027	8b 46 04	 mov	 eax, DWORD PTR [esi+4]
  0002a	53		 push	 ebx
  0002b	2b c2		 sub	 eax, edx
; File D:\Program Files\Microsoft Visual Studio\2022\Community\VC\Tools\MSVC\14.43.34808\include\xmemory

; 122  :     return _Count * _Ty_size;

  0002d	8d 1c 8d 00 00
	00 00		 lea	 ebx, DWORD PTR [ecx*4]
; File D:\Program Files\Microsoft Visual Studio\2022\Community\VC\Tools\MSVC\14.43.34808\include\vector

; 1634 :         const auto _Size = static_cast<size_type>(_Mylast - _Myfirst);

  00034	c1 f8 02	 sar	 eax, 2
  00037	89 45 08	 mov	 DWORD PTR __Size$1$[ebp], eax
  0003a	57		 push	 edi
; File D:\Program Files\Microsoft Visual Studio\2022\Community\VC\Tools\MSVC\14.43.34808\include\xmemory

; 227  :     if (_Bytes == 0) {

  0003b	85 db		 test	 ebx, ebx
  0003d	75 04		 jne	 SHORT $LN20@reserve

; 228  :         return nullptr;

  0003f	33 ff		 xor	 edi, edi
  00041	eb 1a		 jmp	 SHORT $LN19@reserve
$LN20@reserve:

; 229  :     }
; 230  : 
; 231  : #if _HAS_CXX20 // TRANSITION, GH-1532
; 232  :     if (_STD is_constant_evaluated()) {
; 233  :         return _Traits::_Allocate(_Bytes);
; 234  :     }
; 235  : #endif // _HAS_CXX20
; 236  : 
; 237  : #ifdef __cpp_aligned_new
; 238  :     if constexpr (_Align > __STDCPP_DEFAULT_NEW_ALIGNMENT__) {
; 239  :         size_t _Passed_align = _Align;
; 240  : #if defined(_M_IX86) || defined(_M_X64)
; 241  :         if (_Bytes >= _Big_allocation_threshold) {
; 242  :             // boost the alignment of big allocations to help autovectorization
; 243  :             _Passed_align = (_STD max)(_Align, _Big_allocation_alignment);
; 244  :         }
; 245  : #endif // defined(_M_IX86) || defined(_M_X64)
; 246  :         return _Traits::_Allocate_aligned(_Bytes, _Passed_align);
; 247  :     } else
; 248  : #endif // defined(__cpp_aligned_new)
; 249  :     {
; 250  : #if defined(_M_IX86) || defined(_M_X64)
; 251  :         if (_Bytes >= _Big_allocation_threshold) {

  00043	53		 push	 ebx
  00044	81 fb 00 10 00
	00		 cmp	 ebx, 4096		; 00001000H
  0004a	72 07		 jb	 SHORT $LN21@reserve

; 252  :             // boost the alignment of big allocations to help autovectorization
; 253  :             return _Allocate_manually_vector_aligned<_Traits>(_Bytes);

  0004c	e8 00 00 00 00	 call	 ??$_Allocate_manually_vector_aligned@U_Default_allocate_traits@std@@@std@@YAPAXI@Z ; std::_Allocate_manually_vector_aligned<std::_Default_allocate_traits>
  00051	eb 05		 jmp	 SHORT $LN95@reserve
$LN21@reserve:

; 136  :         return ::operator new(_Bytes);

  00053	e8 00 00 00 00	 call	 ??2@YAPAXI@Z		; operator new
$LN95@reserve:

; 1955 :             _STD _Copy_memmove(_UFirst, _ULast, _STD _Unfancy(_Dest));

  00058	8b f8		 mov	 edi, eax
  0005a	83 c4 04	 add	 esp, 4
$LN19@reserve:
  0005d	57		 push	 edi
  0005e	ff 76 04	 push	 DWORD PTR [esi+4]
  00061	ff 36		 push	 DWORD PTR [esi]
  00063	e8 00 00 00 00	 call	 ??$_Copy_memmove@PAPAVCGraphicTextInstance@@PAPAV1@@std@@YAPAPAVCGraphicTextInstance@@PAPAV1@00@Z ; std::_Copy_memmove<CGraphicTextInstance * *,CGraphicTextInstance * *>
; File D:\Program Files\Microsoft Visual Studio\2022\Community\VC\Tools\MSVC\14.43.34808\include\vector

; 2054 :         if (_Myfirst) { // destroy and deallocate old array

  00068	8b 06		 mov	 eax, DWORD PTR [esi]
; File D:\Program Files\Microsoft Visual Studio\2022\Community\VC\Tools\MSVC\14.43.34808\include\xmemory

; 1955 :             _STD _Copy_memmove(_UFirst, _ULast, _STD _Unfancy(_Dest));

  0006a	83 c4 0c	 add	 esp, 12			; 0000000cH
; File D:\Program Files\Microsoft Visual Studio\2022\Community\VC\Tools\MSVC\14.43.34808\include\vector

; 2054 :         if (_Myfirst) { // destroy and deallocate old array

  0006d	85 c0		 test	 eax, eax
  0006f	74 2c		 je	 SHORT $LN47@reserve

; 2055 :             _STD _Destroy_range(_Myfirst, _Mylast, _Al);
; 2056 :             _ASAN_VECTOR_REMOVE;
; 2057 :             _Al.deallocate(_Myfirst, static_cast<size_type>(_Myend - _Myfirst));

  00071	8b 4e 08	 mov	 ecx, DWORD PTR [esi+8]
  00074	2b c8		 sub	 ecx, eax
; File D:\Program Files\Microsoft Visual Studio\2022\Community\VC\Tools\MSVC\14.43.34808\include\xmemory

; 981  :         _STD _Deallocate<_New_alignof<_Ty>>(_Ptr, sizeof(_Ty) * _Count);

  00076	83 e1 fc	 and	 ecx, -4			; fffffffcH

; 284  :         if (_Bytes >= _Big_allocation_threshold) {

  00079	81 f9 00 10 00
	00		 cmp	 ecx, 4096		; 00001000H
  0007f	72 12		 jb	 SHORT $LN58@reserve

; 205  :     const uintptr_t _Ptr_container   = _Ptr_user[-1];

  00081	8b 50 fc	 mov	 edx, DWORD PTR [eax-4]
  00084	83 c1 23	 add	 ecx, 35			; 00000023H

; 206  : 
; 207  :     // If the following asserts, it likely means that we are performing
; 208  :     // an aligned delete on memory coming from an unaligned allocation.
; 209  :     _STL_ASSERT(_Ptr_user[-2] == _Big_allocation_sentinel, "invalid argument");
; 210  : 
; 211  :     // Extra paranoia on aligned allocation/deallocation; ensure _Ptr_container is
; 212  :     // in range [_Min_back_shift, _Non_user_size]
; 213  : #ifdef _DEBUG
; 214  :     constexpr uintptr_t _Min_back_shift = 2 * sizeof(void*);
; 215  : #else // ^^^ defined(_DEBUG) / !defined(_DEBUG) vvv
; 216  :     constexpr uintptr_t _Min_back_shift = sizeof(void*);
; 217  : #endif // ^^^ !defined(_DEBUG) ^^^
; 218  :     const uintptr_t _Back_shift = reinterpret_cast<uintptr_t>(_Ptr) - _Ptr_container;

  00087	2b c2		 sub	 eax, edx

; 219  :     _STL_VERIFY(_Back_shift >= _Min_back_shift && _Back_shift <= _Non_user_size, "invalid argument");

  00089	83 c0 fc	 add	 eax, -4			; fffffffcH
  0008c	83 f8 1f	 cmp	 eax, 31			; 0000001fH
  0008f	77 24		 ja	 SHORT $LN55@reserve

; 220  :     _Ptr = reinterpret_cast<void*>(_Ptr_container);

  00091	8b c2		 mov	 eax, edx
$LN58@reserve:

; 289  :         ::operator delete(_Ptr, _Bytes);

  00093	51		 push	 ecx
  00094	50		 push	 eax
  00095	e8 00 00 00 00	 call	 ??3@YAXPAXI@Z		; operator delete
  0009a	83 c4 08	 add	 esp, 8
$LN47@reserve:
; File D:\Program Files\Microsoft Visual Studio\2022\Community\VC\Tools\MSVC\14.43.34808\include\vector

; 2061 :         _Mylast  = _Newvec + _Newsize;

  0009d	8b 45 08	 mov	 eax, DWORD PTR __Size$1$[ebp]
  000a0	89 3e		 mov	 DWORD PTR [esi], edi
  000a2	8d 04 87	 lea	 eax, DWORD PTR [edi+eax*4]
  000a5	89 46 04	 mov	 DWORD PTR [esi+4], eax

; 2062 :         _Myend   = _Newvec + _Newcapacity;

  000a8	8d 04 3b	 lea	 eax, DWORD PTR [ebx+edi]
  000ab	5f		 pop	 edi
  000ac	89 46 08	 mov	 DWORD PTR [esi+8], eax
  000af	5b		 pop	 ebx
$LN71@reserve:
  000b0	5e		 pop	 esi

; 1713 :             }
; 1714 : 
; 1715 :             _Reallocate<_Reallocation_policy::_At_least>(_Newcapacity);
; 1716 :         }
; 1717 :     }

  000b1	5d		 pop	 ebp
  000b2	c2 04 00	 ret	 4
$LN55@reserve:
; File D:\Program Files\Microsoft Visual Studio\2022\Community\VC\Tools\MSVC\14.43.34808\include\xmemory

; 219  :     _STL_VERIFY(_Back_shift >= _Min_back_shift && _Back_shift <= _Non_user_size, "invalid argument");

  000b5	e8 00 00 00 00	 call	 __invalid_parameter_noinfo_noreturn
$LN97@reserve:
; File D:\Program Files\Microsoft Visual Studio\2022\Community\VC\Tools\MSVC\14.43.34808\include\vector

; 1712 :                 _Xlength();

  000ba	e8 00 00 00 00	 call	 ?_Xlength@?$vector@PAVCGraphicTextInstance@@V?$allocator@PAVCGraphicTextInstance@@@std@@@std@@CAXXZ ; std::vector<CGraphicTextInstance *,std::allocator<CGraphicTextInstance *> >::_Xlength
$LN94@reserve:
  000bf	cc		 int	 3
?reserve@?$vector@PAVCGraphicTextInstance@@V?$allocator@PAVCGraphicTextInstance@@@std@@@std@@QAEXI@Z ENDP ; std::vector<CGraphicTextInstance *,std::allocator<CGraphicTextInstance *> >::reserve
_TEXT	ENDS
; Function compile flags: /Ogtp
; File D:\Program Files\Microsoft Visual Studio\2022\Community\VC\Tools\MSVC\14.43.34808\include\vector
; File D:\Program Files\Microsoft Visual Studio\2022\Community\VC\Tools\MSVC\14.43.34808\include\xmemory
; File D:\Program Files\Microsoft Visual Studio\2022\Community\VC\Tools\MSVC\14.43.34808\include\vector
; File D:\Program Files\Microsoft Visual Studio\2022\Community\VC\Tools\MSVC\14.43.34808\include\xmemory
; File D:\Program Files\Microsoft Visual Studio\2022\Community\VC\Tools\MSVC\14.43.34808\include\vector
; File D:\Program Files\Microsoft Visual Studio\2022\Community\VC\Tools\MSVC\14.43.34808\include\xmemory
; File D:\Program Files\Microsoft Visual Studio\2022\Community\VC\Tools\MSVC\14.43.34808\include\vector
; File D:\Program Files\Microsoft Visual Studio\2022\Community\VC\Tools\MSVC\14.43.34808\include\xmemory
; File D:\Program Files\Microsoft Visual Studio\2022\Community\VC\Tools\MSVC\14.43.34808\include\vector
; File D:\Program Files\Microsoft Visual Studio\2022\Community\VC\Tools\MSVC\14.43.34808\include\xmemory
; File D:\Program Files\Microsoft Visual Studio\2022\Community\VC\Tools\MSVC\14.43.34808\include\vector
; File D:\Program Files\Microsoft Visual Studio\2022\Community\VC\Tools\MSVC\14.43.34808\include\xmemory
; File D:\Program Files\Microsoft Visual Studio\2022\Community\VC\Tools\MSVC\14.43.34808\include\vector
; File D:\Program Files\Microsoft Visual Studio\2022\Community\VC\Tools\MSVC\14.43.34808\include\xmemory
; File D:\Program Files\Microsoft Visual Studio\2022\Community\VC\Tools\MSVC\14.43.34808\include\vector
;	COMDAT ?push_back@?$vector@PAVCGraphicTextInstance@@V?$allocator@PAVCGraphicTextInstance@@@std@@@std@@QAEXABQAVCGraphicTextInstance@@@Z
_TEXT	SEGMENT
__Oldsize$1$ = -12					; size = 4
tv621 = -12						; size = 4
__Newsize$1$ = -8					; size = 4
$T1 = -4						; size = 4
__Val$ = 8						; size = 4
?push_back@?$vector@PAVCGraphicTextInstance@@V?$allocator@PAVCGraphicTextInstance@@@std@@@std@@QAEXABQAVCGraphicTextInstance@@@Z PROC ; std::vector<CGraphicTextInstance *,std::allocator<CGraphicTextInstance *> >::push_back, COMDAT
; _this$ = ecx

; 917  :     _CONSTEXPR20 void push_back(const _Ty& _Val) { // insert element at end, provide strong guarantee

  00000	55		 push	 ebp
  00001	8b ec		 mov	 ebp, esp
  00003	83 ec 0c	 sub	 esp, 12			; 0000000cH
  00006	53		 push	 ebx
  00007	56		 push	 esi
  00008	8b f1		 mov	 esi, ecx
  0000a	57		 push	 edi

; 829  :         if (_Mylast != _My_data._Myend) {

  0000b	8b 4e 04	 mov	 ecx, DWORD PTR [esi+4]
  0000e	8b 56 08	 mov	 edx, DWORD PTR [esi+8]
  00011	89 4d fc	 mov	 DWORD PTR $T1[ebp], ecx
  00014	3b ca		 cmp	 ecx, edx
  00016	74 14		 je	 SHORT $LN4@push_back

; 845  :             _STD _Construct_in_place(*_Mylast, _STD forward<_Valty>(_Val)...);

  00018	8b 45 08	 mov	 eax, DWORD PTR __Val$[ebp]
  0001b	8b 00		 mov	 eax, DWORD PTR [eax]
  0001d	89 01		 mov	 DWORD PTR [ecx], eax

; 846  :         } else {
; 847  :             _ASAN_VECTOR_EXTEND_GUARD(static_cast<size_type>(_Mylast - _My_data._Myfirst) + 1);
; 848  :             _Alty_traits::construct(_Getal(), _Unfancy(_Mylast), _STD forward<_Valty>(_Val)...);
; 849  :             _ASAN_VECTOR_RELEASE_GUARD;
; 850  :         }
; 851  : 
; 852  :         _Orphan_range(_Mylast, _Mylast);
; 853  :         _Ty& _Result = *_Mylast;
; 854  :         ++_Mylast;

  0001f	83 46 04 04	 add	 DWORD PTR [esi+4], 4

; 919  :     }

  00023	5f		 pop	 edi
  00024	5e		 pop	 esi
  00025	5b		 pop	 ebx
  00026	8b e5		 mov	 esp, ebp
  00028	5d		 pop	 ebp
  00029	c2 04 00	 ret	 4
$LN4@push_back:

; 869  :         const auto _Whereoff = static_cast<size_type>(_Whereptr - _Myfirst);

  0002c	8b 3e		 mov	 edi, DWORD PTR [esi]
  0002e	8b c1		 mov	 eax, ecx
  00030	2b c7		 sub	 eax, edi
  00032	c1 f8 02	 sar	 eax, 2
  00035	89 45 f4	 mov	 DWORD PTR __Oldsize$1$[ebp], eax

; 870  :         const auto _Oldsize  = static_cast<size_type>(_Mylast - _Myfirst);
; 871  : 
; 872  :         if (_Oldsize == max_size()) {

  00038	3d ff ff ff 3f	 cmp	 eax, 1073741823		; 3fffffffH
  0003d	0f 84 c0 00 00
	00		 je	 $LN106@push_back

; 1909 :         return static_cast<size_type>(_My_data._Myend - _My_data._Myfirst);

  00043	2b d7		 sub	 edx, edi

; 876  :         const size_type _Newsize = _Oldsize + 1;

  00045	8d 58 01	 lea	 ebx, DWORD PTR [eax+1]

; 1909 :         return static_cast<size_type>(_My_data._Myend - _My_data._Myfirst);

  00048	c1 fa 02	 sar	 edx, 2

; 1996 :         if (_Oldcapacity > _Max - _Oldcapacity / 2) {

  0004b	b8 ff ff ff 3f	 mov	 eax, 1073741823		; 3fffffffH
  00050	8b fa		 mov	 edi, edx

; 876  :         const size_type _Newsize = _Oldsize + 1;

  00052	89 5d f8	 mov	 DWORD PTR __Newsize$1$[ebp], ebx

; 1996 :         if (_Oldcapacity > _Max - _Oldcapacity / 2) {

  00055	d1 ef		 shr	 edi, 1
  00057	2b c7		 sub	 eax, edi
  00059	3b d0		 cmp	 edx, eax
  0005b	76 12		 jbe	 SHORT $LN15@push_back

; 1997 :             return _Max; // geometric growth would overflow

  0005d	b8 fc ff ff ff	 mov	 eax, -4			; fffffffcH
  00062	bb ff ff ff 3f	 mov	 ebx, 1073741823		; 3fffffffH
; File D:\Program Files\Microsoft Visual Studio\2022\Community\VC\Tools\MSVC\14.43.34808\include\xmemory

; 253  :             return _Allocate_manually_vector_aligned<_Traits>(_Bytes);

  00067	50		 push	 eax
  00068	e8 00 00 00 00	 call	 ??$_Allocate_manually_vector_aligned@U_Default_allocate_traits@std@@@std@@YAPAXI@Z ; std::_Allocate_manually_vector_aligned<std::_Default_allocate_traits>
  0006d	eb 38		 jmp	 SHORT $LN104@push_back
$LN15@push_back:
; File D:\Program Files\Microsoft Visual Studio\2022\Community\VC\Tools\MSVC\14.43.34808\include\vector

; 2000 :         const size_type _Geometric = _Oldcapacity + _Oldcapacity / 2;

  0006f	8d 04 17	 lea	 eax, DWORD PTR [edi+edx]
; File D:\Program Files\Microsoft Visual Studio\2022\Community\VC\Tools\MSVC\14.43.34808\include\xmemory

; 117  :         if (_Count > _Max_possible) {

  00072	3b c3		 cmp	 eax, ebx
  00074	0f 43 d8	 cmovae	 ebx, eax
  00077	81 fb ff ff ff
	3f		 cmp	 ebx, 1073741823		; 3fffffffH
  0007d	0f 87 85 00 00
	00		 ja	 $LN107@push_back

; 119  :         }
; 120  :     }
; 121  : 
; 122  :     return _Count * _Ty_size;

  00083	8d 04 9d 00 00
	00 00		 lea	 eax, DWORD PTR [ebx*4]

; 227  :     if (_Bytes == 0) {

  0008a	85 c0		 test	 eax, eax
  0008c	75 04		 jne	 SHORT $LN30@push_back

; 228  :         return nullptr;

  0008e	33 ff		 xor	 edi, edi
  00090	eb 1d		 jmp	 SHORT $LN29@push_back
$LN30@push_back:

; 229  :     }
; 230  : 
; 231  : #if _HAS_CXX20 // TRANSITION, GH-1532
; 232  :     if (_STD is_constant_evaluated()) {
; 233  :         return _Traits::_Allocate(_Bytes);
; 234  :     }
; 235  : #endif // _HAS_CXX20
; 236  : 
; 237  : #ifdef __cpp_aligned_new
; 238  :     if constexpr (_Align > __STDCPP_DEFAULT_NEW_ALIGNMENT__) {
; 239  :         size_t _Passed_align = _Align;
; 240  : #if defined(_M_IX86) || defined(_M_X64)
; 241  :         if (_Bytes >= _Big_allocation_threshold) {
; 242  :             // boost the alignment of big allocations to help autovectorization
; 243  :             _Passed_align = (_STD max)(_Align, _Big_allocation_alignment);
; 244  :         }
; 245  : #endif // defined(_M_IX86) || defined(_M_X64)
; 246  :         return _Traits::_Allocate_aligned(_Bytes, _Passed_align);
; 247  :     } else
; 248  : #endif // defined(__cpp_aligned_new)
; 249  :     {
; 250  : #if defined(_M_IX86) || defined(_M_X64)
; 251  :         if (_Bytes >= _Big_allocation_threshold) {

  00092	3d 00 10 00 00	 cmp	 eax, 4096		; 00001000H
  00097	72 08		 jb	 SHORT $LN31@push_back

; 253  :             return _Allocate_manually_vector_aligned<_Traits>(_Bytes);

  00099	50		 push	 eax
  0009a	e8 00 00 00 00	 call	 ??$_Allocate_manually_vector_aligned@U_Default_allocate_traits@std@@@std@@YAPAXI@Z ; std::_Allocate_manually_vector_aligned<std::_Default_allocate_traits>
  0009f	eb 06		 jmp	 SHORT $LN104@push_back
$LN31@push_back:

; 136  :         return ::operator new(_Bytes);

  000a1	50		 push	 eax
  000a2	e8 00 00 00 00	 call	 ??2@YAPAXI@Z		; operator new
$LN104@push_back:
; File D:\Program Files\Microsoft Visual Studio\2022\Community\VC\Tools\MSVC\14.43.34808\include\vector

; 885  :         _Alty_traits::construct(_Al, _STD _Unfancy(_Newvec + _Whereoff), _STD forward<_Valty>(_Val)...);

  000a7	8b 4d fc	 mov	 ecx, DWORD PTR $T1[ebp]
  000aa	8b f8		 mov	 edi, eax
  000ac	83 c4 04	 add	 esp, 4
$LN29@push_back:
  000af	8b 45 f4	 mov	 eax, DWORD PTR __Oldsize$1$[ebp]
  000b2	8d 14 87	 lea	 edx, DWORD PTR [edi+eax*4]
  000b5	8b 45 08	 mov	 eax, DWORD PTR __Val$[ebp]
  000b8	89 55 f4	 mov	 DWORD PTR tv621[ebp], edx
  000bb	8b 00		 mov	 eax, DWORD PTR [eax]
  000bd	89 02		 mov	 DWORD PTR [edx], eax

; 886  :         _Constructed_first = _Newvec + _Whereoff;
; 887  : 
; 888  :         if (_Whereptr == _Mylast) { // at back, provide strong guarantee

  000bf	8b 46 04	 mov	 eax, DWORD PTR [esi+4]
  000c2	8b 16		 mov	 edx, DWORD PTR [esi]
  000c4	3b c8		 cmp	 ecx, eax
  000c6	75 04		 jne	 SHORT $LN10@push_back
; File D:\Program Files\Microsoft Visual Studio\2022\Community\VC\Tools\MSVC\14.43.34808\include\xmemory

; 1955 :             _STD _Copy_memmove(_UFirst, _ULast, _STD _Unfancy(_Dest));

  000c8	8b cf		 mov	 ecx, edi
; File D:\Program Files\Microsoft Visual Studio\2022\Community\VC\Tools\MSVC\14.43.34808\include\vector

; 894  :         } else { // provide basic guarantee

  000ca	eb 17		 jmp	 SHORT $LN59@push_back
$LN10@push_back:
; File D:\Program Files\Microsoft Visual Studio\2022\Community\VC\Tools\MSVC\14.43.34808\include\xmemory

; 1955 :             _STD _Copy_memmove(_UFirst, _ULast, _STD _Unfancy(_Dest));

  000cc	57		 push	 edi
  000cd	51		 push	 ecx
  000ce	52		 push	 edx
  000cf	e8 00 00 00 00	 call	 ??$_Copy_memmove@PAPAVCGraphicTextInstance@@PAPAV1@@std@@YAPAPAVCGraphicTextInstance@@PAPAV1@00@Z ; std::_Copy_memmove<CGraphicTextInstance * *,CGraphicTextInstance * *>
; File D:\Program Files\Microsoft Visual Studio\2022\Community\VC\Tools\MSVC\14.43.34808\include\vector

; 897  :             _STD _Uninitialized_move(_Whereptr, _Mylast, _Newvec + _Whereoff + 1, _Al);

  000d4	8b 4d f4	 mov	 ecx, DWORD PTR tv621[ebp]
; File D:\Program Files\Microsoft Visual Studio\2022\Community\VC\Tools\MSVC\14.43.34808\include\xmemory

; 1955 :             _STD _Copy_memmove(_UFirst, _ULast, _STD _Unfancy(_Dest));

  000d7	83 c4 0c	 add	 esp, 12			; 0000000cH
  000da	8b 55 fc	 mov	 edx, DWORD PTR $T1[ebp]
; File D:\Program Files\Microsoft Visual Studio\2022\Community\VC\Tools\MSVC\14.43.34808\include\vector

; 897  :             _STD _Uninitialized_move(_Whereptr, _Mylast, _Newvec + _Whereoff + 1, _Al);

  000dd	83 c1 04	 add	 ecx, 4
; File D:\Program Files\Microsoft Visual Studio\2022\Community\VC\Tools\MSVC\14.43.34808\include\xmemory

; 1955 :             _STD _Copy_memmove(_UFirst, _ULast, _STD _Unfancy(_Dest));

  000e0	8b 46 04	 mov	 eax, DWORD PTR [esi+4]
$LN59@push_back:
; File D:\Program Files\Microsoft Visual Studio\2022\Community\VC\Tools\MSVC\14.43.34808\include\vector

; 900  :         _Guard._New_begin = nullptr;

  000e3	51		 push	 ecx
  000e4	50		 push	 eax
  000e5	52		 push	 edx
  000e6	e8 00 00 00 00	 call	 ??$_Copy_memmove@PAPAVCGraphicTextInstance@@PAPAV1@@std@@YAPAPAVCGraphicTextInstance@@PAPAV1@00@Z ; std::_Copy_memmove<CGraphicTextInstance * *,CGraphicTextInstance * *>
  000eb	83 c4 0c	 add	 esp, 12			; 0000000cH

; 901  :         _Change_array(_Newvec, _Newsize, _Newcapacity);

  000ee	8b ce		 mov	 ecx, esi
  000f0	53		 push	 ebx
  000f1	ff 75 f8	 push	 DWORD PTR __Newsize$1$[ebp]
  000f4	57		 push	 edi
  000f5	e8 00 00 00 00	 call	 ?_Change_array@?$vector@PAVCGraphicTextInstance@@V?$allocator@PAVCGraphicTextInstance@@@std@@@std@@AAEXQAPAVCGraphicTextInstance@@II@Z ; std::vector<CGraphicTextInstance *,std::allocator<CGraphicTextInstance *> >::_Change_array

; 919  :     }

  000fa	5f		 pop	 edi
  000fb	5e		 pop	 esi
  000fc	5b		 pop	 ebx
  000fd	8b e5		 mov	 esp, ebp
  000ff	5d		 pop	 ebp
  00100	c2 04 00	 ret	 4
$LN106@push_back:

; 873  :             _Xlength();

  00103	e8 00 00 00 00	 call	 ?_Xlength@?$vector@PAVCGraphicTextInstance@@V?$allocator@PAVCGraphicTextInstance@@@std@@@std@@CAXXZ ; std::vector<CGraphicTextInstance *,std::allocator<CGraphicTextInstance *> >::_Xlength
$LN107@push_back:
; File D:\Program Files\Microsoft Visual Studio\2022\Community\VC\Tools\MSVC\14.43.34808\include\xmemory

; 118  :             _Throw_bad_array_new_length(); // multiply overflow

  00108	e8 00 00 00 00	 call	 ?_Throw_bad_array_new_length@std@@YAXXZ ; std::_Throw_bad_array_new_length
$LN103@push_back:
  0010d	cc		 int	 3
?push_back@?$vector@PAVCGraphicTextInstance@@V?$allocator@PAVCGraphicTextInstance@@@std@@@std@@QAEXABQAVCGraphicTextInstance@@@Z ENDP ; std::vector<CGraphicTextInstance *,std::allocator<CGraphicTextInstance *> >::push_back
_TEXT	ENDS
; Function compile flags: /Ogtp
; File C:\Marty 5.5\Src-Client\Client\EterLib\Pool.h
; File D:\Program Files\Microsoft Visual Studio\2022\Community\VC\Tools\MSVC\14.43.34808\include\vector
; File D:\Program Files\Microsoft Visual Studio\2022\Community\VC\Tools\MSVC\14.43.34808\include\xmemory
; File D:\Program Files\Microsoft Visual Studio\2022\Community\VC\Tools\MSVC\14.43.34808\include\vector
; File D:\Program Files\Microsoft Visual Studio\2022\Community\VC\Tools\MSVC\14.43.34808\include\xmemory
; File D:\Program Files\Microsoft Visual Studio\2022\Community\VC\Tools\MSVC\14.43.34808\include\vector
; File D:\Program Files\Microsoft Visual Studio\2022\Community\VC\Tools\MSVC\14.43.34808\include\xmemory
; File D:\Program Files\Microsoft Visual Studio\2022\Community\VC\Tools\MSVC\14.43.34808\include\vector
; File D:\Program Files\Microsoft Visual Studio\2022\Community\VC\Tools\MSVC\14.43.34808\include\xmemory
; File D:\Program Files\Microsoft Visual Studio\2022\Community\VC\Tools\MSVC\14.43.34808\include\vector
; File C:\Marty 5.5\Src-Client\Client\EterLib\Pool.h
; File D:\Program Files\Microsoft Visual Studio\2022\Community\VC\Tools\MSVC\14.43.34808\include\xmemory
; File C:\Marty 5.5\Src-Client\Client\EterLib\Pool.h
;	COMDAT ??1?$CDynamicPool@VCGraphicTextInstance@@@@UAE@XZ
_TEXT	SEGMENT
??1?$CDynamicPool@VCGraphicTextInstance@@@@UAE@XZ PROC	; CDynamicPool<CGraphicTextInstance>::~CDynamicPool<CGraphicTextInstance>, COMDAT
; _this$ = ecx

; 18   : 		{

  00000	56		 push	 esi
  00001	8b f1		 mov	 esi, ecx
  00003	c7 06 00 00 00
	00		 mov	 DWORD PTR [esi], OFFSET ??_7?$CDynamicPool@VCGraphicTextInstance@@@@6B@
; File D:\Program Files\Microsoft Visual Studio\2022\Community\VC\Tools\MSVC\14.43.34808\include\vector

; 2075 :         if (_Myfirst) { // destroy and deallocate old array

  00009	8b 46 10	 mov	 eax, DWORD PTR [esi+16]
  0000c	85 c0		 test	 eax, eax
  0000e	74 41		 je	 SHORT $LN8@CDynamicPo

; 2076 :             _STD _Destroy_range(_Myfirst, _Mylast, _Al);
; 2077 :             _ASAN_VECTOR_REMOVE;
; 2078 :             _Al.deallocate(_Myfirst, static_cast<size_type>(_Myend - _Myfirst));

  00010	8b 4e 18	 mov	 ecx, DWORD PTR [esi+24]
  00013	2b c8		 sub	 ecx, eax
; File D:\Program Files\Microsoft Visual Studio\2022\Community\VC\Tools\MSVC\14.43.34808\include\xmemory

; 981  :         _STD _Deallocate<_New_alignof<_Ty>>(_Ptr, sizeof(_Ty) * _Count);

  00015	83 e1 fc	 and	 ecx, -4			; fffffffcH

; 284  :         if (_Bytes >= _Big_allocation_threshold) {

  00018	81 f9 00 10 00
	00		 cmp	 ecx, 4096		; 00001000H
  0001e	72 12		 jb	 SHORT $LN27@CDynamicPo

; 205  :     const uintptr_t _Ptr_container   = _Ptr_user[-1];

  00020	8b 50 fc	 mov	 edx, DWORD PTR [eax-4]
  00023	83 c1 23	 add	 ecx, 35			; 00000023H

; 206  : 
; 207  :     // If the following asserts, it likely means that we are performing
; 208  :     // an aligned delete on memory coming from an unaligned allocation.
; 209  :     _STL_ASSERT(_Ptr_user[-2] == _Big_allocation_sentinel, "invalid argument");
; 210  : 
; 211  :     // Extra paranoia on aligned allocation/deallocation; ensure _Ptr_container is
; 212  :     // in range [_Min_back_shift, _Non_user_size]
; 213  : #ifdef _DEBUG
; 214  :     constexpr uintptr_t _Min_back_shift = 2 * sizeof(void*);
; 215  : #else // ^^^ defined(_DEBUG) / !defined(_DEBUG) vvv
; 216  :     constexpr uintptr_t _Min_back_shift = sizeof(void*);
; 217  : #endif // ^^^ !defined(_DEBUG) ^^^
; 218  :     const uintptr_t _Back_shift = reinterpret_cast<uintptr_t>(_Ptr) - _Ptr_container;

  00026	2b c2		 sub	 eax, edx

; 219  :     _STL_VERIFY(_Back_shift >= _Min_back_shift && _Back_shift <= _Non_user_size, "invalid argument");

  00028	83 c0 fc	 add	 eax, -4			; fffffffcH
  0002b	83 f8 1f	 cmp	 eax, 31			; 0000001fH
  0002e	77 6b		 ja	 SHORT $LN53@CDynamicPo

; 220  :     _Ptr = reinterpret_cast<void*>(_Ptr_container);

  00030	8b c2		 mov	 eax, edx
$LN27@CDynamicPo:

; 289  :         ::operator delete(_Ptr, _Bytes);

  00032	51		 push	 ecx
  00033	50		 push	 eax
  00034	e8 00 00 00 00	 call	 ??3@YAXPAXI@Z		; operator delete
; File D:\Program Files\Microsoft Visual Studio\2022\Community\VC\Tools\MSVC\14.43.34808\include\vector

; 2080 :             _Myfirst = nullptr;

  00039	c7 46 10 00 00
	00 00		 mov	 DWORD PTR [esi+16], 0
; File D:\Program Files\Microsoft Visual Studio\2022\Community\VC\Tools\MSVC\14.43.34808\include\xmemory

; 289  :         ::operator delete(_Ptr, _Bytes);

  00040	83 c4 08	 add	 esp, 8
; File D:\Program Files\Microsoft Visual Studio\2022\Community\VC\Tools\MSVC\14.43.34808\include\vector

; 2081 :             _Mylast  = nullptr;

  00043	c7 46 14 00 00
	00 00		 mov	 DWORD PTR [esi+20], 0

; 2082 :             _Myend   = nullptr;

  0004a	c7 46 18 00 00
	00 00		 mov	 DWORD PTR [esi+24], 0
$LN8@CDynamicPo:

; 2075 :         if (_Myfirst) { // destroy and deallocate old array

  00051	8b 46 04	 mov	 eax, DWORD PTR [esi+4]
  00054	85 c0		 test	 eax, eax
  00056	74 41		 je	 SHORT $LN37@CDynamicPo

; 2076 :             _STD _Destroy_range(_Myfirst, _Mylast, _Al);
; 2077 :             _ASAN_VECTOR_REMOVE;
; 2078 :             _Al.deallocate(_Myfirst, static_cast<size_type>(_Myend - _Myfirst));

  00058	8b 4e 0c	 mov	 ecx, DWORD PTR [esi+12]
  0005b	2b c8		 sub	 ecx, eax
; File D:\Program Files\Microsoft Visual Studio\2022\Community\VC\Tools\MSVC\14.43.34808\include\xmemory

; 981  :         _STD _Deallocate<_New_alignof<_Ty>>(_Ptr, sizeof(_Ty) * _Count);

  0005d	83 e1 fc	 and	 ecx, -4			; fffffffcH

; 284  :         if (_Bytes >= _Big_allocation_threshold) {

  00060	81 f9 00 10 00
	00		 cmp	 ecx, 4096		; 00001000H
  00066	72 12		 jb	 SHORT $LN56@CDynamicPo

; 205  :     const uintptr_t _Ptr_container   = _Ptr_user[-1];

  00068	8b 50 fc	 mov	 edx, DWORD PTR [eax-4]
  0006b	83 c1 23	 add	 ecx, 35			; 00000023H

; 206  : 
; 207  :     // If the following asserts, it likely means that we are performing
; 208  :     // an aligned delete on memory coming from an unaligned allocation.
; 209  :     _STL_ASSERT(_Ptr_user[-2] == _Big_allocation_sentinel, "invalid argument");
; 210  : 
; 211  :     // Extra paranoia on aligned allocation/deallocation; ensure _Ptr_container is
; 212  :     // in range [_Min_back_shift, _Non_user_size]
; 213  : #ifdef _DEBUG
; 214  :     constexpr uintptr_t _Min_back_shift = 2 * sizeof(void*);
; 215  : #else // ^^^ defined(_DEBUG) / !defined(_DEBUG) vvv
; 216  :     constexpr uintptr_t _Min_back_shift = sizeof(void*);
; 217  : #endif // ^^^ !defined(_DEBUG) ^^^
; 218  :     const uintptr_t _Back_shift = reinterpret_cast<uintptr_t>(_Ptr) - _Ptr_container;

  0006e	2b c2		 sub	 eax, edx

; 219  :     _STL_VERIFY(_Back_shift >= _Min_back_shift && _Back_shift <= _Non_user_size, "invalid argument");

  00070	83 c0 fc	 add	 eax, -4			; fffffffcH
  00073	83 f8 1f	 cmp	 eax, 31			; 0000001fH
  00076	77 23		 ja	 SHORT $LN53@CDynamicPo

; 220  :     _Ptr = reinterpret_cast<void*>(_Ptr_container);

  00078	8b c2		 mov	 eax, edx
$LN56@CDynamicPo:

; 289  :         ::operator delete(_Ptr, _Bytes);

  0007a	51		 push	 ecx
  0007b	50		 push	 eax
  0007c	e8 00 00 00 00	 call	 ??3@YAXPAXI@Z		; operator delete
; File D:\Program Files\Microsoft Visual Studio\2022\Community\VC\Tools\MSVC\14.43.34808\include\vector

; 2080 :             _Myfirst = nullptr;

  00081	c7 46 04 00 00
	00 00		 mov	 DWORD PTR [esi+4], 0
; File D:\Program Files\Microsoft Visual Studio\2022\Community\VC\Tools\MSVC\14.43.34808\include\xmemory

; 289  :         ::operator delete(_Ptr, _Bytes);

  00088	83 c4 08	 add	 esp, 8
; File D:\Program Files\Microsoft Visual Studio\2022\Community\VC\Tools\MSVC\14.43.34808\include\vector

; 2081 :             _Mylast  = nullptr;

  0008b	c7 46 08 00 00
	00 00		 mov	 DWORD PTR [esi+8], 0

; 2082 :             _Myend   = nullptr;

  00092	c7 46 0c 00 00
	00 00		 mov	 DWORD PTR [esi+12], 0
$LN37@CDynamicPo:
  00099	5e		 pop	 esi
; File C:\Marty 5.5\Src-Client\Client\EterLib\Pool.h

; 26   : 		}

  0009a	c3		 ret	 0
$LN53@CDynamicPo:
; File D:\Program Files\Microsoft Visual Studio\2022\Community\VC\Tools\MSVC\14.43.34808\include\xmemory

; 219  :     _STL_VERIFY(_Back_shift >= _Min_back_shift && _Back_shift <= _Non_user_size, "invalid argument");

  0009b	e8 00 00 00 00	 call	 __invalid_parameter_noinfo_noreturn
$LN67@CDynamicPo:
  000a0	cc		 int	 3
??1?$CDynamicPool@VCGraphicTextInstance@@@@UAE@XZ ENDP	; CDynamicPool<CGraphicTextInstance>::~CDynamicPool<CGraphicTextInstance>
_TEXT	ENDS
; Function compile flags: /Ogtp
; File C:\Marty 5.5\Src-Client\Client\EterLib\GrpTextInstance.cpp
;	COMDAT ?ReadToken@@YAHPBD@Z
_TEXT	SEGMENT
_token$ = 8						; size = 4
?ReadToken@@YAHPBD@Z PROC				; ReadToken, COMDAT

; 170  : {

  00000	55		 push	 ebp
  00001	8b ec		 mov	 ebp, esp

; 171  : 	int nRet = (token[1]-'0')*1000 + (token[2]-'0')*100 + (token[3]-'0')*10 + (token[4]-'0');

  00003	8b 55 08	 mov	 edx, DWORD PTR _token$[ebp]
  00006	0f be 42 01	 movsx	 eax, BYTE PTR [edx+1]
  0000a	8d 0c 80	 lea	 ecx, DWORD PTR [eax+eax*4]
  0000d	0f be 42 02	 movsx	 eax, BYTE PTR [edx+2]
  00011	8d 04 48	 lea	 eax, DWORD PTR [eax+ecx*2]
  00014	8d 0c 80	 lea	 ecx, DWORD PTR [eax+eax*4]
  00017	0f be 42 03	 movsx	 eax, BYTE PTR [edx+3]
  0001b	8d 04 48	 lea	 eax, DWORD PTR [eax+ecx*2]
  0001e	8d 0c 80	 lea	 ecx, DWORD PTR [eax+eax*4]
  00021	0f be 42 04	 movsx	 eax, BYTE PTR [edx+4]
  00025	8d 04 48	 lea	 eax, DWORD PTR [eax+ecx*2]

; 172  : 	if (nRet == 9999)

  00028	b9 e9 fd 00 00	 mov	 ecx, 65001		; 0000fde9H
  0002d	05 b0 2f ff ff	 add	 eax, -53328		; ffff2fb0H
  00032	3d 0f 27 00 00	 cmp	 eax, 9999		; 0000270fH
  00037	0f 44 c1	 cmove	 eax, ecx

; 173  : 		return CP_UTF8;
; 174  : 	return nRet;
; 175  : }

  0003a	5d		 pop	 ebp
  0003b	c3		 ret	 0
?ReadToken@@YAHPBD@Z ENDP				; ReadToken
_TEXT	ENDS
; Function compile flags: /Ogtp
; File C:\Marty 5.5\Src-Client\Client\EterLib\GrpTextInstance.cpp
; File D:\Program Files\Microsoft Visual Studio\2022\Community\VC\Tools\MSVC\14.43.34808\include\xutility
; File C:\Marty 5.5\Src-Client\Client\EterLib\GrpTextInstance.cpp
;	COMDAT ?FindToken@@YAPBDPBD0@Z
_TEXT	SEGMENT
_begin$ = 8						; size = 4
_end$ = 12						; size = 4
?FindToken@@YAPBDPBD0@Z PROC				; FindToken, COMDAT

; 151  : {

  00000	55		 push	 ebp
  00001	8b ec		 mov	 ebp, esp
  00003	56		 push	 esi

; 152  : 	while(begin < end)

  00004	8b 75 08	 mov	 esi, DWORD PTR _begin$[ebp]
  00007	57		 push	 edi
  00008	8b 7d 0c	 mov	 edi, DWORD PTR _end$[ebp]
  0000b	3b f7		 cmp	 esi, edi
  0000d	73 2a		 jae	 SHORT $LN18@FindToken
  0000f	90		 npad	 1
$LL2@FindToken:
; File D:\Program Files\Microsoft Visual Studio\2022\Community\VC\Tools\MSVC\14.43.34808\include\xutility

; 6143 :             const auto _Result    = _STD _Find_vectorized(_First_ptr, _STD _To_address(_Last), _Val);

  00010	6a 40		 push	 64			; 00000040H
  00012	57		 push	 edi
  00013	56		 push	 esi
  00014	e8 00 00 00 00	 call	 ??$_Find_vectorized@$$CBDD@std@@YAPBDQBD0D@Z ; std::_Find_vectorized<char const ,char>
  00019	8b f0		 mov	 esi, eax
  0001b	83 c4 0c	 add	 esp, 12			; 0000000cH
; File C:\Marty 5.5\Src-Client\Client\EterLib\GrpTextInstance.cpp

; 156  : 		if(end-begin>5 && IsValidToken(begin))

  0001e	8b c7		 mov	 eax, edi
  00020	2b c6		 sub	 eax, esi
  00022	83 f8 05	 cmp	 eax, 5
  00025	7e 0d		 jle	 SHORT $LN4@FindToken
  00027	56		 push	 esi
  00028	e8 00 00 00 00	 call	 ?IsValidToken@@YA_NPBD@Z ; IsValidToken
  0002d	83 c4 04	 add	 esp, 4
  00030	84 c0		 test	 al, al
  00032	75 0b		 jne	 SHORT $LN17@FindToken
$LN4@FindToken:

; 159  : 		}
; 160  : 		else
; 161  : 		{
; 162  : 			++begin;

  00034	46		 inc	 esi
  00035	3b f7		 cmp	 esi, edi
  00037	72 d7		 jb	 SHORT $LL2@FindToken
$LN18@FindToken:

; 163  : 		}
; 164  : 	}
; 165  : 
; 166  : 	return end;

  00039	8b c7		 mov	 eax, edi
  0003b	5f		 pop	 edi

; 167  : }

  0003c	5e		 pop	 esi
  0003d	5d		 pop	 ebp
  0003e	c3		 ret	 0
$LN17@FindToken:
  0003f	5f		 pop	 edi

; 157  : 		{
; 158  : 			return begin;

  00040	8b c6		 mov	 eax, esi

; 167  : }

  00042	5e		 pop	 esi
  00043	5d		 pop	 ebp
  00044	c3		 ret	 0
?FindToken@@YAPBDPBD0@Z ENDP				; FindToken
_TEXT	ENDS
; Function compile flags: /Ogtp
;	COMDAT ??_GCGraphicTextInstance@@UAEPAXI@Z
_TEXT	SEGMENT
___flags$ = 8						; size = 4
??_GCGraphicTextInstance@@UAEPAXI@Z PROC		; CGraphicTextInstance::`scalar deleting destructor', COMDAT
; _this$ = ecx
  00000	55		 push	 ebp
  00001	8b ec		 mov	 ebp, esp
  00003	56		 push	 esi
  00004	8b f1		 mov	 esi, ecx
  00006	e8 00 00 00 00	 call	 ??1CGraphicTextInstance@@UAE@XZ ; CGraphicTextInstance::~CGraphicTextInstance
  0000b	f6 45 08 01	 test	 BYTE PTR ___flags$[ebp], 1
  0000f	74 0b		 je	 SHORT $LN5@scalar
  00011	6a 7c		 push	 124			; 0000007cH
  00013	56		 push	 esi
  00014	e8 00 00 00 00	 call	 ??3@YAXPAXI@Z		; operator delete
  00019	83 c4 08	 add	 esp, 8
$LN5@scalar:
  0001c	8b c6		 mov	 eax, esi
  0001e	5e		 pop	 esi
  0001f	5d		 pop	 ebp
  00020	c2 04 00	 ret	 4
??_GCGraphicTextInstance@@UAEPAXI@Z ENDP		; CGraphicTextInstance::`scalar deleting destructor'
_TEXT	ENDS
; Function compile flags: /Ogtp
; File C:\Marty 5.5\Src-Client\Client\EterLib\GrpTextInstance.cpp
; File C:\Marty 5.5\Src-Client\Client\EterLib\Pool.h
; File C:\Marty 5.5\Src-Client\Client\EterLib\GrpTextInstance.cpp
; File C:\Marty 5.5\Src-Client\Client\EterLib\Pool.h
; File C:\Marty 5.5\Src-Client\Client\EterLib\GrpTextInstance.cpp
;	COMDAT ?Delete@CGraphicTextInstance@@SAXPAV1@@Z
_TEXT	SEGMENT
_pkInst$ = 8						; size = 4
_pkData$ = 8						; size = 4
?Delete@CGraphicTextInstance@@SAXPAV1@@Z PROC		; CGraphicTextInstance::Delete, COMDAT

; 1151 : {

  00000	55		 push	 ebp
  00001	8b ec		 mov	 ebp, esp
  00003	56		 push	 esi

; 1152 : #ifdef ENABLE_DYNAMIC_FONTS
; 1153 : 	__GraphicTextInstancesList(pkInst, false);

  00004	8b 75 08	 mov	 esi, DWORD PTR _pkInst$[ebp]
  00007	6a 00		 push	 0
  00009	56		 push	 esi
  0000a	e8 00 00 00 00	 call	 ?__GraphicTextInstancesList@@YAXPAVCGraphicTextInstance@@_N@Z ; __GraphicTextInstancesList
  0000f	83 c4 08	 add	 esp, 8

; 1154 : #endif
; 1155 : 
; 1156 : 	pkInst->Destroy();

  00012	8b ce		 mov	 ecx, esi
  00014	e8 00 00 00 00	 call	 ?Destroy@CGraphicTextInstance@@QAEXXZ ; CGraphicTextInstance::Destroy
; File C:\Marty 5.5\Src-Client\Client\EterLib\Pool.h

; 82   : 			m_kVct_pkFree.push_back(pkData);

  00019	8d 45 08	 lea	 eax, DWORD PTR _pkData$[ebp]
; File C:\Marty 5.5\Src-Client\Client\EterLib\GrpTextInstance.cpp

; 1157 : 	ms_kPool.Free(pkInst);

  0001c	89 75 08	 mov	 DWORD PTR _pkData$[ebp], esi
; File C:\Marty 5.5\Src-Client\Client\EterLib\Pool.h

; 82   : 			m_kVct_pkFree.push_back(pkData);

  0001f	50		 push	 eax
  00020	b9 10 00 00 00	 mov	 ecx, OFFSET ?ms_kPool@CGraphicTextInstance@@2V?$CDynamicPool@VCGraphicTextInstance@@@@A+16
  00025	e8 00 00 00 00	 call	 ?push_back@?$vector@PAVCGraphicTextInstance@@V?$allocator@PAVCGraphicTextInstance@@@std@@@std@@QAEXABQAVCGraphicTextInstance@@@Z ; std::vector<CGraphicTextInstance *,std::allocator<CGraphicTextInstance *> >::push_back
  0002a	5e		 pop	 esi
; File C:\Marty 5.5\Src-Client\Client\EterLib\GrpTextInstance.cpp

; 1158 : }

  0002b	5d		 pop	 ebp
  0002c	c3		 ret	 0
?Delete@CGraphicTextInstance@@SAXPAV1@@Z ENDP		; CGraphicTextInstance::Delete
_TEXT	ENDS
; Function compile flags: /Ogtp
; File C:\Marty 5.5\Src-Client\Client\EterLib\GrpTextInstance.cpp
; File D:\Program Files\Microsoft Visual Studio\2022\Community\VC\Tools\MSVC\14.43.34808\include\vector
; File C:\Marty 5.5\Src-Client\Client\EterLib\Pool.h
; File D:\Program Files\Microsoft Visual Studio\2022\Community\VC\Tools\MSVC\14.43.34808\include\vector
; File C:\Marty 5.5\Src-Client\Client\EterLib\GrpTextInstance.cpp
;	COMDAT ?New@CGraphicTextInstance@@SAPAV1@XZ
_TEXT	SEGMENT
_pkNewData$2 = -16					; size = 4
$T3 = -16						; size = 4
__$EHRec$ = -12						; size = 12
?New@CGraphicTextInstance@@SAPAV1@XZ PROC		; CGraphicTextInstance::New, COMDAT

; 1140 : {

  00000	55		 push	 ebp
  00001	8b ec		 mov	 ebp, esp
  00003	6a ff		 push	 -1
  00005	68 00 00 00 00	 push	 __ehhandler$?New@CGraphicTextInstance@@SAPAV1@XZ
  0000a	64 a1 00 00 00
	00		 mov	 eax, DWORD PTR fs:0
  00010	50		 push	 eax
  00011	51		 push	 ecx
  00012	56		 push	 esi
  00013	a1 00 00 00 00	 mov	 eax, DWORD PTR ___security_cookie
  00018	33 c5		 xor	 eax, ebp
  0001a	50		 push	 eax
  0001b	8d 45 f4	 lea	 eax, DWORD PTR __$EHRec$[ebp]
  0001e	64 a3 00 00 00
	00		 mov	 DWORD PTR fs:0, eax
; File D:\Program Files\Microsoft Visual Studio\2022\Community\VC\Tools\MSVC\14.43.34808\include\vector

; 1895 :         return _My_data._Myfirst == _My_data._Mylast;

  00024	8b 0d 14 00 00
	00		 mov	 ecx, DWORD PTR ?ms_kPool@CGraphicTextInstance@@2V?$CDynamicPool@VCGraphicTextInstance@@@@A+20
  0002a	39 0d 10 00 00
	00		 cmp	 DWORD PTR ?ms_kPool@CGraphicTextInstance@@2V?$CDynamicPool@VCGraphicTextInstance@@@@A+16, ecx
; File C:\Marty 5.5\Src-Client\Client\EterLib\Pool.h

; 64   : 			if (m_kVct_pkFree.empty())

  00030	75 46		 jne	 SHORT $LN4@New

; 65   : 			{
; 66   : 				T* pkNewData=new T;

  00032	6a 7c		 push	 124			; 0000007cH
  00034	e8 00 00 00 00	 call	 ??2@YAPAXI@Z		; operator new
  00039	83 c4 04	 add	 esp, 4
  0003c	89 45 f0	 mov	 DWORD PTR $T3[ebp], eax
  0003f	c7 45 fc 00 00
	00 00		 mov	 DWORD PTR __$EHRec$[ebp+8], 0
  00046	85 c0		 test	 eax, eax
  00048	74 09		 je	 SHORT $LN6@New
  0004a	8b c8		 mov	 ecx, eax
  0004c	e8 00 00 00 00	 call	 ??0CGraphicTextInstance@@QAE@XZ ; CGraphicTextInstance::CGraphicTextInstance
  00051	eb 02		 jmp	 SHORT $LN7@New
$LN6@New:
  00053	33 c0		 xor	 eax, eax
$LN7@New:
  00055	89 45 f0	 mov	 DWORD PTR _pkNewData$2[ebp], eax

; 67   : 				m_kVct_pkData.push_back(pkNewData);

  00058	b9 04 00 00 00	 mov	 ecx, OFFSET ?ms_kPool@CGraphicTextInstance@@2V?$CDynamicPool@VCGraphicTextInstance@@@@A+4
  0005d	8d 45 f0	 lea	 eax, DWORD PTR _pkNewData$2[ebp]
  00060	c7 45 fc ff ff
	ff ff		 mov	 DWORD PTR __$EHRec$[ebp+8], -1
  00067	50		 push	 eax
  00068	e8 00 00 00 00	 call	 ?push_back@?$vector@PAVCGraphicTextInstance@@V?$allocator@PAVCGraphicTextInstance@@@std@@@std@@QAEXABQAVCGraphicTextInstance@@@Z ; std::vector<CGraphicTextInstance *,std::allocator<CGraphicTextInstance *> >::push_back

; 68   : 				++m_uUsedCapacity;

  0006d	ff 05 20 00 00
	00		 inc	 DWORD PTR ?ms_kPool@CGraphicTextInstance@@2V?$CDynamicPool@VCGraphicTextInstance@@@@A+32

; 69   : 				return pkNewData;

  00073	8b 75 f0	 mov	 esi, DWORD PTR _pkNewData$2[ebp]
  00076	eb 0c		 jmp	 SHORT $LN3@New
$LN4@New:

; 70   : 			}
; 71   : 
; 72   : 			T* pkFreeData=m_kVct_pkFree.back();

  00078	8b 71 fc	 mov	 esi, DWORD PTR [ecx-4]
; File D:\Program Files\Microsoft Visual Studio\2022\Community\VC\Tools\MSVC\14.43.34808\include\vector

; 1744 :         --_Mylast;

  0007b	83 c1 fc	 add	 ecx, -4			; fffffffcH
  0007e	89 0d 14 00 00
	00		 mov	 DWORD PTR ?ms_kPool@CGraphicTextInstance@@2V?$CDynamicPool@VCGraphicTextInstance@@@@A+20, ecx
$LN3@New:
; File C:\Marty 5.5\Src-Client\Client\EterLib\GrpTextInstance.cpp

; 1143 : 	__GraphicTextInstancesList(t);

  00084	6a 01		 push	 1
  00086	56		 push	 esi
  00087	e8 00 00 00 00	 call	 ?__GraphicTextInstancesList@@YAXPAVCGraphicTextInstance@@_N@Z ; __GraphicTextInstancesList
  0008c	83 c4 08	 add	 esp, 8

; 1144 : 	return t;

  0008f	8b c6		 mov	 eax, esi

; 1145 : #else
; 1146 : 	return ms_kPool.Alloc();
; 1147 : #endif
; 1148 : }

  00091	8b 4d f4	 mov	 ecx, DWORD PTR __$EHRec$[ebp]
  00094	64 89 0d 00 00
	00 00		 mov	 DWORD PTR fs:0, ecx
  0009b	59		 pop	 ecx
  0009c	5e		 pop	 esi
  0009d	8b e5		 mov	 esp, ebp
  0009f	5d		 pop	 ebp
  000a0	c3		 ret	 0
_TEXT	ENDS
;	COMDAT text$x
text$x	SEGMENT
__unwindfunclet$?New@CGraphicTextInstance@@SAPAV1@XZ$0:
  00000	6a 7c		 push	 124			; 0000007cH
  00002	8b 45 f0	 mov	 eax, DWORD PTR $T3[ebp]
  00005	50		 push	 eax
  00006	e8 00 00 00 00	 call	 ??3@YAXPAXI@Z		; operator delete
  0000b	83 c4 08	 add	 esp, 8
  0000e	c3		 ret	 0
  0000f	cc		 int	 3
  00010	cc		 int	 3
  00011	cc		 int	 3
  00012	cc		 int	 3
  00013	cc		 int	 3
__ehhandler$?New@CGraphicTextInstance@@SAPAV1@XZ:
  00014	90		 npad	 1
  00015	90		 npad	 1
  00016	8b 54 24 08	 mov	 edx, DWORD PTR [esp+8]
