; Listing generated by Microsoft (R) Optimizing Compiler Version 19.43.34808.0 

	TITLE	C:\Marty 5.5\Src-Client\Client\EterLib\Distribute\ResourceManager.obj
	.686P
	.XMM
	include listing.inc
	.model	flat

INCLUDELIB LIBCMT
INCLUDELIB OLDNAMES

PUBLIC	?g_iLoadingDelayTime@@3HA			; g_iLoadingDelayTime
PUBLIC	?m_totalKB@FDumpPrint@@2MA			; FDumpPrint::m_totalKB
_BSS	SEGMENT
?m_totalKB@FDumpPrint@@2MA DD 01H DUP (?)		; FDumpPrint::m_totalKB
_BSS	ENDS
_DATA	SEGMENT
?g_iLoadingDelayTime@@3HA DD 01H			; g_iLoadingDelayTime
_DATA	ENDS
PUBLIC	___local_stdio_printf_options
PUBLIC	_fprintf
PUBLIC	??0exception@std@@QAE@ABV01@@Z			; std::exception::exception
PUBLIC	??1exception@std@@UAE@XZ			; std::exception::~exception
PUBLIC	?what@exception@std@@UBEPBDXZ			; std::exception::what
PUBLIC	??_Gexception@std@@UAEPAXI@Z			; std::exception::`scalar deleting destructor'
PUBLIC	??0bad_alloc@std@@QAE@ABV01@@Z			; std::bad_alloc::bad_alloc
PUBLIC	??_Gbad_alloc@std@@UAEPAXI@Z			; std::bad_alloc::`scalar deleting destructor'
PUBLIC	??0bad_array_new_length@std@@QAE@XZ		; std::bad_array_new_length::bad_array_new_length
PUBLIC	??1bad_array_new_length@std@@UAE@XZ		; std::bad_array_new_length::~bad_array_new_length
PUBLIC	??0bad_array_new_length@std@@QAE@ABV01@@Z	; std::bad_array_new_length::bad_array_new_length
PUBLIC	??_Gbad_array_new_length@std@@UAEPAXI@Z		; std::bad_array_new_length::`scalar deleting destructor'
PUBLIC	?_Throw_bad_array_new_length@std@@YAXXZ		; std::_Throw_bad_array_new_length
PUBLIC	?_Xlen_string@std@@YAXXZ			; std::_Xlen_string
PUBLIC	??0?$basic_string@DU?$char_traits@D@std@@V?$allocator@D@2@@std@@QAE@ABV01@@Z ; std::basic_string<char,std::char_traits<char>,std::allocator<char> >::basic_string<char,std::char_traits<char>,std::allocator<char> >
PUBLIC	??1?$basic_string@DU?$char_traits@D@std@@V?$allocator@D@2@@std@@QAE@XZ ; std::basic_string<char,std::char_traits<char>,std::allocator<char> >::~basic_string<char,std::char_traits<char>,std::allocator<char> >
PUBLIC	?_Throw_tree_length_error@std@@YAXXZ		; std::_Throw_tree_length_error
PUBLIC	??$_Construct@$00PBD@?$basic_string@DU?$char_traits@D@std@@V?$allocator@D@2@@std@@AAEXQBDI@Z ; std::basic_string<char,std::char_traits<char>,std::allocator<char> >::_Construct<1,char const *>
PUBLIC	??$_Allocate_manually_vector_aligned@U_Default_allocate_traits@std@@@std@@YAPAXI@Z ; std::_Allocate_manually_vector_aligned<std::_Default_allocate_traits>
PUBLIC	??1?$CSingleton@VCResourceManager@@@@UAE@XZ	; CSingleton<CResourceManager>::~CSingleton<CResourceManager>
PUBLIC	??_G?$CSingleton@VCResourceManager@@@@UAEPAXI@Z	; CSingleton<CResourceManager>::`scalar deleting destructor'
PUBLIC	??0CResourceManager@@QAE@XZ			; CResourceManager::CResourceManager
PUBLIC	??1CResourceManager@@UAE@XZ			; CResourceManager::~CResourceManager
PUBLIC	?LoadStaticCache@CResourceManager@@QAEXPBD@Z	; CResourceManager::LoadStaticCache
PUBLIC	?DestroyDeletingList@CResourceManager@@QAEXXZ	; CResourceManager::DestroyDeletingList
PUBLIC	?Destroy@CResourceManager@@QAEXXZ		; CResourceManager::Destroy
PUBLIC	?InsertResourcePointer@CResourceManager@@QAEPAVCResource@@KPAV2@@Z ; CResourceManager::InsertResourcePointer
PUBLIC	?FindResourcePointer@CResourceManager@@QAEPAVCResource@@K@Z ; CResourceManager::FindResourcePointer
PUBLIC	?GetResourcePointer@CResourceManager@@QAEPAVCResource@@PBD@Z ; CResourceManager::GetResourcePointer
PUBLIC	?GetTypeResourcePointer@CResourceManager@@QAEPAVCResource@@PBDH@Z ; CResourceManager::GetTypeResourcePointer
PUBLIC	?isResourcePointerData@CResourceManager@@QAE_NK@Z ; CResourceManager::isResourcePointerData
PUBLIC	?RegisterResourceNewFunctionPointer@CResourceManager@@QAEXPBDP6APAVCResource@@0@Z@Z ; CResourceManager::RegisterResourceNewFunctionPointer
PUBLIC	?RegisterResourceNewFunctionByTypePointer@CResourceManager@@QAEXHP6APAVCResource@@PBD@Z@Z ; CResourceManager::RegisterResourceNewFunctionByTypePointer
PUBLIC	?DumpFileListToTextFile@CResourceManager@@QAEXPBD@Z ; CResourceManager::DumpFileListToTextFile
PUBLIC	?IsFileExist@CResourceManager@@QAE_NPBD@Z	; CResourceManager::IsFileExist
PUBLIC	?Update@CResourceManager@@QAEXXZ		; CResourceManager::Update
PUBLIC	?ReserveDeletingResource@CResourceManager@@QAEXPAVCResource@@@Z ; CResourceManager::ReserveDeletingResource
PUBLIC	?ProcessBackgroundLoading@CResourceManager@@QAEXXZ ; CResourceManager::ProcessBackgroundLoading
PUBLIC	?PushBackgroundLoadingSet@CResourceManager@@QAEXAAV?$set@V?$basic_string@DU?$char_traits@D@std@@V?$allocator@D@2@@std@@U?$less@V?$basic_string@DU?$char_traits@D@std@@V?$allocator@D@2@@std@@@2@V?$allocator@V?$basic_string@DU?$char_traits@D@std@@V?$allocator@D@2@@std@@@2@@std@@@Z ; CResourceManager::PushBackgroundLoadingSet
PUBLIC	?__DestroyDeletingResourceMap@CResourceManager@@IAEXXZ ; CResourceManager::__DestroyDeletingResourceMap
PUBLIC	?__DestroyResourceMap@CResourceManager@@IAEXXZ	; CResourceManager::__DestroyResourceMap
PUBLIC	?__DestroyCacheMap@CResourceManager@@IAEXXZ	; CResourceManager::__DestroyCacheMap
PUBLIC	?__GetFileCRC@CResourceManager@@IAEKPBDPAPBD@Z	; CResourceManager::__GetFileCRC
PUBLIC	??1?$_Tree@V?$_Tmap_traits@KPAVCResource@@U?$less@K@std@@V?$allocator@U?$pair@$$CBKPAVCResource@@@std@@@3@$0A@@std@@@std@@QAE@XZ ; std::_Tree<std::_Tmap_traits<unsigned long,CResource *,std::less<unsigned long>,std::allocator<std::pair<unsigned long const ,CResource *> >,0> >::~_Tree<std::_Tmap_traits<unsigned long,CResource *,std::less<unsigned long>,std::allocator<std::pair<unsigned long const ,CResource *> >,0> >
PUBLIC	?clear@?$_Tree@V?$_Tmap_traits@KPAVCResource@@U?$less@K@std@@V?$allocator@U?$pair@$$CBKPAVCResource@@@std@@@3@$0A@@std@@@std@@QAEXXZ ; std::_Tree<std::_Tmap_traits<unsigned long,CResource *,std::less<unsigned long>,std::allocator<std::pair<unsigned long const ,CResource *> >,0> >::clear
PUBLIC	?_Insert_node@?$_Tree_val@U?$_Tree_simple_types@U?$pair@$$CBKPAVCResource@@@std@@@std@@@std@@QAEPAU?$_Tree_node@U?$pair@$$CBKPAVCResource@@@std@@PAX@2@U?$_Tree_id@PAU?$_Tree_node@U?$pair@$$CBKPAVCResource@@@std@@PAX@std@@@2@QAU32@@Z ; std::_Tree_val<std::_Tree_simple_types<std::pair<unsigned long const ,CResource *> > >::_Insert_node
PUBLIC	??1?$map@KPAVCResource@@U?$less@K@std@@V?$allocator@U?$pair@$$CBKPAVCResource@@@std@@@3@@std@@QAE@XZ ; std::map<unsigned long,CResource *,std::less<unsigned long>,std::allocator<std::pair<unsigned long const ,CResource *> > >::~map<unsigned long,CResource *,std::less<unsigned long>,std::allocator<std::pair<unsigned long const ,CResource *> > >
PUBLIC	?find@?$_Tree@V?$_Tmap_traits@V?$basic_string@DU?$char_traits@D@std@@V?$allocator@D@2@@std@@P6APAVCResource@@PBD@ZU?$less@V?$basic_string@DU?$char_traits@D@std@@V?$allocator@D@2@@std@@@2@V?$allocator@U?$pair@$$CBV?$basic_string@DU?$char_traits@D@std@@V?$allocator@D@2@@std@@P6APAVCResource@@PBD@Z@std@@@2@$0A@@std@@@std@@QAE?AV?$_Tree_iterator@V?$_Tree_val@U?$_Tree_simple_types@U?$pair@$$CBV?$basic_string@DU?$char_traits@D@std@@V?$allocator@D@2@@std@@P6APAVCResource@@PBD@Z@std@@@std@@@std@@@2@ABV?$basic_string@DU?$char_traits@D@std@@V?$allocator@D@2@@2@@Z ; std::_Tree<std::_Tmap_traits<std::basic_string<char,std::char_traits<char>,std::allocator<char> >,CResource * (__cdecl*)(char const *),std::less<std::basic_string<char,std::char_traits<char>,std::allocator<char> > >,std::allocator<std::pair<std::basic_string<char,std::char_traits<char>,std::allocator<char> > const ,CResource * (__cdecl*)(char const *)> >,0> >::find
PUBLIC	?_Insert_node@?$_Tree_val@U?$_Tree_simple_types@U?$pair@$$CBV?$basic_string@DU?$char_traits@D@std@@V?$allocator@D@2@@std@@P6APAVCResource@@PBD@Z@std@@@std@@@std@@QAEPAU?$_Tree_node@U?$pair@$$CBV?$basic_string@DU?$char_traits@D@std@@V?$allocator@D@2@@std@@P6APAVCResource@@PBD@Z@std@@PAX@2@U?$_Tree_id@PAU?$_Tree_node@U?$pair@$$CBV?$basic_string@DU?$char_traits@D@std@@V?$allocator@D@2@@std@@P6APAVCResource@@PBD@Z@std@@PAX@std@@@2@QAU32@@Z ; std::_Tree_val<std::_Tree_simple_types<std::pair<std::basic_string<char,std::char_traits<char>,std::allocator<char> > const ,CResource * (__cdecl*)(char const *)> > >::_Insert_node
PUBLIC	??1?$map@V?$basic_string@DU?$char_traits@D@std@@V?$allocator@D@2@@std@@P6APAVCResource@@PBD@ZU?$less@V?$basic_string@DU?$char_traits@D@std@@V?$allocator@D@2@@std@@@2@V?$allocator@U?$pair@$$CBV?$basic_string@DU?$char_traits@D@std@@V?$allocator@D@2@@std@@P6APAVCResource@@PBD@Z@std@@@2@@std@@QAE@XZ ; std::map<std::basic_string<char,std::char_traits<char>,std::allocator<char> >,CResource * (__cdecl*)(char const *),std::less<std::basic_string<char,std::char_traits<char>,std::allocator<char> > >,std::allocator<std::pair<std::basic_string<char,std::char_traits<char>,std::allocator<char> > const ,CResource * (__cdecl*)(char const *)> > >::~map<std::basic_string<char,std::char_traits<char>,std::allocator<char> >,CResource * (__cdecl*)(char const *),std::less<std::basic_string<char,std::char_traits<char>,std::allocator<char> > >,std::allocator<std::pair<std::basic_string<char,std::char_traits<char>,std::allocator<char> > const ,CResource * (__cdecl*)(char const *)> > >
PUBLIC	??1?$_Tree@V?$_Tmap_traits@HP6APAVCResource@@PBD@ZU?$less@H@std@@V?$allocator@U?$pair@$$CBHP6APAVCResource@@PBD@Z@std@@@3@$0A@@std@@@std@@QAE@XZ ; std::_Tree<std::_Tmap_traits<int,CResource * (__cdecl*)(char const *),std::less<int>,std::allocator<std::pair<int const ,CResource * (__cdecl*)(char const *)> >,0> >::~_Tree<std::_Tmap_traits<int,CResource * (__cdecl*)(char const *),std::less<int>,std::allocator<std::pair<int const ,CResource * (__cdecl*)(char const *)> >,0> >
PUBLIC	?_Insert_node@?$_Tree_val@U?$_Tree_simple_types@U?$pair@$$CBHP6APAVCResource@@PBD@Z@std@@@std@@@std@@QAEPAU?$_Tree_node@U?$pair@$$CBHP6APAVCResource@@PBD@Z@std@@PAX@2@U?$_Tree_id@PAU?$_Tree_node@U?$pair@$$CBHP6APAVCResource@@PBD@Z@std@@PAX@std@@@2@QAU32@@Z ; std::_Tree_val<std::_Tree_simple_types<std::pair<int const ,CResource * (__cdecl*)(char const *)> > >::_Insert_node
PUBLIC	??1?$map@HP6APAVCResource@@PBD@ZU?$less@H@std@@V?$allocator@U?$pair@$$CBHP6APAVCResource@@PBD@Z@std@@@3@@std@@QAE@XZ ; std::map<int,CResource * (__cdecl*)(char const *),std::less<int>,std::allocator<std::pair<int const ,CResource * (__cdecl*)(char const *)> > >::~map<int,CResource * (__cdecl*)(char const *),std::less<int>,std::allocator<std::pair<int const ,CResource * (__cdecl*)(char const *)> > >
PUBLIC	??1?$_Tree@V?$_Tmap_traits@PAVCResource@@KU?$less@PAVCResource@@@std@@V?$allocator@U?$pair@QAVCResource@@K@std@@@3@$0A@@std@@@std@@QAE@XZ ; std::_Tree<std::_Tmap_traits<CResource *,unsigned long,std::less<CResource *>,std::allocator<std::pair<CResource * const,unsigned long> >,0> >::~_Tree<std::_Tmap_traits<CResource *,unsigned long,std::less<CResource *>,std::allocator<std::pair<CResource * const,unsigned long> >,0> >
PUBLIC	?_Lrotate@?$_Tree_val@U?$_Tree_simple_types@U?$pair@QAVCResource@@K@std@@@std@@@std@@QAEXPAU?$_Tree_node@U?$pair@QAVCResource@@K@std@@PAX@2@@Z ; std::_Tree_val<std::_Tree_simple_types<std::pair<CResource * const,unsigned long> > >::_Lrotate
PUBLIC	?_Rrotate@?$_Tree_val@U?$_Tree_simple_types@U?$pair@QAVCResource@@K@std@@@std@@@std@@QAEXPAU?$_Tree_node@U?$pair@QAVCResource@@K@std@@PAX@2@@Z ; std::_Tree_val<std::_Tree_simple_types<std::pair<CResource * const,unsigned long> > >::_Rrotate
PUBLIC	?_Extract@?$_Tree_val@U?$_Tree_simple_types@U?$pair@QAVCResource@@K@std@@@std@@@std@@QAEPAU?$_Tree_node@U?$pair@QAVCResource@@K@std@@PAX@2@V?$_Tree_unchecked_const_iterator@V?$_Tree_val@U?$_Tree_simple_types@U?$pair@QAVCResource@@K@std@@@std@@@std@@U_Iterator_base0@2@@2@@Z ; std::_Tree_val<std::_Tree_simple_types<std::pair<CResource * const,unsigned long> > >::_Extract
PUBLIC	?_Insert_node@?$_Tree_val@U?$_Tree_simple_types@U?$pair@QAVCResource@@K@std@@@std@@@std@@QAEPAU?$_Tree_node@U?$pair@QAVCResource@@K@std@@PAX@2@U?$_Tree_id@PAU?$_Tree_node@U?$pair@QAVCResource@@K@std@@PAX@std@@@2@QAU32@@Z ; std::_Tree_val<std::_Tree_simple_types<std::pair<CResource * const,unsigned long> > >::_Insert_node
PUBLIC	??1?$map@PAVCResource@@KU?$less@PAVCResource@@@std@@V?$allocator@U?$pair@QAVCResource@@K@std@@@3@@std@@QAE@XZ ; std::map<CResource *,unsigned long,std::less<CResource *>,std::allocator<std::pair<CResource * const,unsigned long> > >::~map<CResource *,unsigned long,std::less<CResource *>,std::allocator<std::pair<CResource * const,unsigned long> > >
PUBLIC	?_Lrotate@?$_Tree_val@U?$_Tree_simple_types@U?$pair@$$CBKV?$basic_string@DU?$char_traits@D@std@@V?$allocator@D@2@@std@@@std@@@std@@@std@@QAEXPAU?$_Tree_node@U?$pair@$$CBKV?$basic_string@DU?$char_traits@D@std@@V?$allocator@D@2@@std@@@std@@PAX@2@@Z ; std::_Tree_val<std::_Tree_simple_types<std::pair<unsigned long const ,std::basic_string<char,std::char_traits<char>,std::allocator<char> > > > >::_Lrotate
PUBLIC	?_Rrotate@?$_Tree_val@U?$_Tree_simple_types@U?$pair@$$CBKV?$basic_string@DU?$char_traits@D@std@@V?$allocator@D@2@@std@@@std@@@std@@@std@@QAEXPAU?$_Tree_node@U?$pair@$$CBKV?$basic_string@DU?$char_traits@D@std@@V?$allocator@D@2@@std@@@std@@PAX@2@@Z ; std::_Tree_val<std::_Tree_simple_types<std::pair<unsigned long const ,std::basic_string<char,std::char_traits<char>,std::allocator<char> > > > >::_Rrotate
PUBLIC	?_Extract@?$_Tree_val@U?$_Tree_simple_types@U?$pair@$$CBKV?$basic_string@DU?$char_traits@D@std@@V?$allocator@D@2@@std@@@std@@@std@@@std@@QAEPAU?$_Tree_node@U?$pair@$$CBKV?$basic_string@DU?$char_traits@D@std@@V?$allocator@D@2@@std@@@std@@PAX@2@V?$_Tree_unchecked_const_iterator@V?$_Tree_val@U?$_Tree_simple_types@U?$pair@$$CBKV?$basic_string@DU?$char_traits@D@std@@V?$allocator@D@2@@std@@@std@@@std@@@std@@U_Iterator_base0@2@@2@@Z ; std::_Tree_val<std::_Tree_simple_types<std::pair<unsigned long const ,std::basic_string<char,std::char_traits<char>,std::allocator<char> > > > >::_Extract
PUBLIC	?_Insert_node@?$_Tree_val@U?$_Tree_simple_types@U?$pair@$$CBKV?$basic_string@DU?$char_traits@D@std@@V?$allocator@D@2@@std@@@std@@@std@@@std@@QAEPAU?$_Tree_node@U?$pair@$$CBKV?$basic_string@DU?$char_traits@D@std@@V?$allocator@D@2@@std@@@std@@PAX@2@U?$_Tree_id@PAU?$_Tree_node@U?$pair@$$CBKV?$basic_string@DU?$char_traits@D@std@@V?$allocator@D@2@@std@@@std@@PAX@std@@@2@QAU32@@Z ; std::_Tree_val<std::_Tree_simple_types<std::pair<unsigned long const ,std::basic_string<char,std::char_traits<char>,std::allocator<char> > > > >::_Insert_node
PUBLIC	??1?$map@KV?$basic_string@DU?$char_traits@D@std@@V?$allocator@D@2@@std@@U?$less@K@2@V?$allocator@U?$pair@$$CBKV?$basic_string@DU?$char_traits@D@std@@V?$allocator@D@2@@std@@@std@@@2@@std@@QAE@XZ ; std::map<unsigned long,std::basic_string<char,std::char_traits<char>,std::allocator<char> >,std::less<unsigned long>,std::allocator<std::pair<unsigned long const ,std::basic_string<char,std::char_traits<char>,std::allocator<char> > > > >::~map<unsigned long,std::basic_string<char,std::char_traits<char>,std::allocator<char> >,std::less<unsigned long>,std::allocator<std::pair<unsigned long const ,std::basic_string<char,std::char_traits<char>,std::allocator<char> > > > >
PUBLIC	??1?$_Tree@V?$_Tmap_traits@JPAVCResource@@U?$less@J@std@@V?$allocator@U?$pair@$$CBJPAVCResource@@@std@@@3@$0A@@std@@@std@@QAE@XZ ; std::_Tree<std::_Tmap_traits<long,CResource *,std::less<long>,std::allocator<std::pair<long const ,CResource *> >,0> >::~_Tree<std::_Tmap_traits<long,CResource *,std::less<long>,std::allocator<std::pair<long const ,CResource *> >,0> >
PUBLIC	?_Lrotate@?$_Tree_val@U?$_Tree_simple_types@U?$pair@$$CBJPAVCResource@@@std@@@std@@@std@@QAEXPAU?$_Tree_node@U?$pair@$$CBJPAVCResource@@@std@@PAX@2@@Z ; std::_Tree_val<std::_Tree_simple_types<std::pair<long const ,CResource *> > >::_Lrotate
PUBLIC	?_Rrotate@?$_Tree_val@U?$_Tree_simple_types@U?$pair@$$CBJPAVCResource@@@std@@@std@@@std@@QAEXPAU?$_Tree_node@U?$pair@$$CBJPAVCResource@@@std@@PAX@2@@Z ; std::_Tree_val<std::_Tree_simple_types<std::pair<long const ,CResource *> > >::_Rrotate
PUBLIC	?_Extract@?$_Tree_val@U?$_Tree_simple_types@U?$pair@$$CBJPAVCResource@@@std@@@std@@@std@@QAEPAU?$_Tree_node@U?$pair@$$CBJPAVCResource@@@std@@PAX@2@V?$_Tree_unchecked_const_iterator@V?$_Tree_val@U?$_Tree_simple_types@U?$pair@$$CBJPAVCResource@@@std@@@std@@@std@@U_Iterator_base0@2@@2@@Z ; std::_Tree_val<std::_Tree_simple_types<std::pair<long const ,CResource *> > >::_Extract
PUBLIC	?_Insert_node@?$_Tree_val@U?$_Tree_simple_types@U?$pair@$$CBJPAVCResource@@@std@@@std@@@std@@QAEPAU?$_Tree_node@U?$pair@$$CBJPAVCResource@@@std@@PAX@2@U?$_Tree_id@PAU?$_Tree_node@U?$pair@$$CBJPAVCResource@@@std@@PAX@std@@@2@QAU32@@Z ; std::_Tree_val<std::_Tree_simple_types<std::pair<long const ,CResource *> > >::_Insert_node
PUBLIC	??_GCResourceManager@@UAEPAXI@Z			; CResourceManager::`scalar deleting destructor'
PUBLIC	??E?$_Tree_unchecked_const_iterator@V?$_Tree_val@U?$_Tree_simple_types@U?$pair@$$CBKV?$basic_string@DU?$char_traits@D@std@@V?$allocator@D@2@@std@@@std@@@std@@@std@@U_Iterator_base0@2@@std@@QAEAAV01@XZ ; std::_Tree_unchecked_const_iterator<std::_Tree_val<std::_Tree_simple_types<std::pair<unsigned long const ,std::basic_string<char,std::char_traits<char>,std::allocator<char> > > > >,std::_Iterator_base0>::operator++
PUBLIC	??1?$pair@$$CBKV?$basic_string@DU?$char_traits@D@std@@V?$allocator@D@2@@std@@@std@@QAE@XZ ; std::pair<unsigned long const ,std::basic_string<char,std::char_traits<char>,std::allocator<char> > >::~pair<unsigned long const ,std::basic_string<char,std::char_traits<char>,std::allocator<char> > >
PUBLIC	??E?$_Tree_unchecked_const_iterator@V?$_Tree_val@U?$_Tree_simple_types@U?$pair@$$CBJPAVCResource@@@std@@@std@@@std@@U_Iterator_base0@2@@std@@QAEAAV01@XZ ; std::_Tree_unchecked_const_iterator<std::_Tree_val<std::_Tree_simple_types<std::pair<long const ,CResource *> > >,std::_Iterator_base0>::operator++
PUBLIC	??E?$_Tree_unchecked_const_iterator@V?$_Tree_val@U?$_Tree_simple_types@U?$pair@QAVCResource@@K@std@@@std@@@std@@U_Iterator_base0@2@@std@@QAEAAV01@XZ ; std::_Tree_unchecked_const_iterator<std::_Tree_val<std::_Tree_simple_types<std::pair<CResource * const,unsigned long> > >,std::_Iterator_base0>::operator++
PUBLIC	?__ConvertPathName@@YAHPBDPADH@Z		; __ConvertPathName
PUBLIC	?DumpKBCompare@@YA_NABUSDumpData@@0@Z		; DumpKBCompare
PUBLIC	?DumpCostCompare@@YA_NABUSDumpData@@0@Z		; DumpCostCompare
PUBLIC	??1?$vector@USDumpData@@V?$allocator@USDumpData@@@std@@@std@@QAE@XZ ; std::vector<SDumpData,std::allocator<SDumpData> >::~vector<SDumpData,std::allocator<SDumpData> >
PUBLIC	?_Xlength@?$vector@USDumpData@@V?$allocator@USDumpData@@@std@@@std@@CAXXZ ; std::vector<SDumpData,std::allocator<SDumpData> >::_Xlength
PUBLIC	??$_Erase_tree@V?$allocator@U?$_Tree_node@U?$pair@QAVCResource@@K@std@@PAX@std@@@std@@@?$_Tree_val@U?$_Tree_simple_types@U?$pair@QAVCResource@@K@std@@@std@@@std@@QAEXAAV?$allocator@U?$_Tree_node@U?$pair@QAVCResource@@K@std@@PAX@std@@@1@PAU?$_Tree_node@U?$pair@QAVCResource@@K@std@@PAX@1@@Z ; std::_Tree_val<std::_Tree_simple_types<std::pair<CResource * const,unsigned long> > >::_Erase_tree<std::allocator<std::_Tree_node<std::pair<CResource * const,unsigned long>,void *> > >
PUBLIC	??$_Erase_tree@V?$allocator@U?$_Tree_node@U?$pair@$$CBKPAVCResource@@@std@@PAX@std@@@std@@@?$_Tree_val@U?$_Tree_simple_types@U?$pair@$$CBKPAVCResource@@@std@@@std@@@std@@QAEXAAV?$allocator@U?$_Tree_node@U?$pair@$$CBKPAVCResource@@@std@@PAX@std@@@1@PAU?$_Tree_node@U?$pair@$$CBKPAVCResource@@@std@@PAX@1@@Z ; std::_Tree_val<std::_Tree_simple_types<std::pair<unsigned long const ,CResource *> > >::_Erase_tree<std::allocator<std::_Tree_node<std::pair<unsigned long const ,CResource *>,void *> > >
PUBLIC	??$_Erase_tree@V?$allocator@U?$_Tree_node@U?$pair@$$CBKV?$basic_string@DU?$char_traits@D@std@@V?$allocator@D@2@@std@@@std@@PAX@std@@@std@@@?$_Tree_val@U?$_Tree_simple_types@U?$pair@$$CBKV?$basic_string@DU?$char_traits@D@std@@V?$allocator@D@2@@std@@@std@@@std@@@std@@QAEXAAV?$allocator@U?$_Tree_node@U?$pair@$$CBKV?$basic_string@DU?$char_traits@D@std@@V?$allocator@D@2@@std@@@std@@PAX@std@@@1@PAU?$_Tree_node@U?$pair@$$CBKV?$basic_string@DU?$char_traits@D@std@@V?$allocator@D@2@@std@@@std@@PAX@1@@Z ; std::_Tree_val<std::_Tree_simple_types<std::pair<unsigned long const ,std::basic_string<char,std::char_traits<char>,std::allocator<char> > > > >::_Erase_tree<std::allocator<std::_Tree_node<std::pair<unsigned long const ,std::basic_string<char,std::char_traits<char>,std::allocator<char> > >,void *> > >
PUBLIC	??$_Freenode@V?$allocator@U?$_Tree_node@U?$pair@$$CBKV?$basic_string@DU?$char_traits@D@std@@V?$allocator@D@2@@std@@@std@@PAX@std@@@std@@@?$_Tree_node@U?$pair@$$CBKV?$basic_string@DU?$char_traits@D@std@@V?$allocator@D@2@@std@@@std@@PAX@std@@SAXAAV?$allocator@U?$_Tree_node@U?$pair@$$CBKV?$basic_string@DU?$char_traits@D@std@@V?$allocator@D@2@@std@@@std@@PAX@std@@@1@PAU01@@Z ; std::_Tree_node<std::pair<unsigned long const ,std::basic_string<char,std::char_traits<char>,std::allocator<char> > >,void *>::_Freenode<std::allocator<std::_Tree_node<std::pair<unsigned long const ,std::basic_string<char,std::char_traits<char>,std::allocator<char> > >,void *> > >
PUBLIC	??$_Sort_unchecked@PAUSDumpData@@P6A_NABU1@0@Z@std@@YAXPAUSDumpData@@0HP6A_NABU1@1@Z@Z ; std::_Sort_unchecked<SDumpData *,bool (__cdecl*)(SDumpData const &,SDumpData const &)>
PUBLIC	??$_Emplace_reallocate@ABUSDumpData@@@?$vector@USDumpData@@V?$allocator@USDumpData@@@std@@@std@@AAEPAUSDumpData@@QAU2@ABU2@@Z ; std::vector<SDumpData,std::allocator<SDumpData> >::_Emplace_reallocate<SDumpData const &>
PUBLIC	??$_Erase_tree@V?$allocator@U?$_Tree_node@U?$pair@$$CBJPAVCResource@@@std@@PAX@std@@@std@@@?$_Tree_val@U?$_Tree_simple_types@U?$pair@$$CBJPAVCResource@@@std@@@std@@@std@@QAEXAAV?$allocator@U?$_Tree_node@U?$pair@$$CBJPAVCResource@@@std@@PAX@std@@@1@PAU?$_Tree_node@U?$pair@$$CBJPAVCResource@@@std@@PAX@1@@Z ; std::_Tree_val<std::_Tree_simple_types<std::pair<long const ,CResource *> > >::_Erase_tree<std::allocator<std::_Tree_node<std::pair<long const ,CResource *>,void *> > >
PUBLIC	??$_Find_lower_bound@K@?$_Tree@V?$_Tmap_traits@KV?$basic_string@DU?$char_traits@D@std@@V?$allocator@D@2@@std@@U?$less@K@2@V?$allocator@U?$pair@$$CBKV?$basic_string@DU?$char_traits@D@std@@V?$allocator@D@2@@std@@@std@@@2@$0A@@std@@@std@@IBE?AU?$_Tree_find_result@PAU?$_Tree_node@U?$pair@$$CBKV?$basic_string@DU?$char_traits@D@std@@V?$allocator@D@2@@std@@@std@@PAX@std@@@1@ABK@Z ; std::_Tree<std::_Tmap_traits<unsigned long,std::basic_string<char,std::char_traits<char>,std::allocator<char> >,std::less<unsigned long>,std::allocator<std::pair<unsigned long const ,std::basic_string<char,std::char_traits<char>,std::allocator<char> > > >,0> >::_Find_lower_bound<unsigned long>
PUBLIC	??$_Find_lower_bound@H@?$_Tree@V?$_Tmap_traits@HP6APAVCResource@@PBD@ZU?$less@H@std@@V?$allocator@U?$pair@$$CBHP6APAVCResource@@PBD@Z@std@@@3@$0A@@std@@@std@@IBE?AU?$_Tree_find_result@PAU?$_Tree_node@U?$pair@$$CBHP6APAVCResource@@PBD@Z@std@@PAX@std@@@1@ABH@Z ; std::_Tree<std::_Tmap_traits<int,CResource * (__cdecl*)(char const *),std::less<int>,std::allocator<std::pair<int const ,CResource * (__cdecl*)(char const *)> >,0> >::_Find_lower_bound<int>
PUBLIC	??1?$_Alloc_construct_ptr@V?$allocator@U?$_Tree_node@U?$pair@$$CBHP6APAVCResource@@PBD@Z@std@@PAX@std@@@std@@@std@@QAE@XZ ; std::_Alloc_construct_ptr<std::allocator<std::_Tree_node<std::pair<int const ,CResource * (__cdecl*)(char const *)>,void *> > >::~_Alloc_construct_ptr<std::allocator<std::_Tree_node<std::pair<int const ,CResource * (__cdecl*)(char const *)>,void *> > >
PUBLIC	??$_Erase_tree@V?$allocator@U?$_Tree_node@U?$pair@$$CBHP6APAVCResource@@PBD@Z@std@@PAX@std@@@std@@@?$_Tree_val@U?$_Tree_simple_types@U?$pair@$$CBHP6APAVCResource@@PBD@Z@std@@@std@@@std@@QAEXAAV?$allocator@U?$_Tree_node@U?$pair@$$CBHP6APAVCResource@@PBD@Z@std@@PAX@std@@@1@PAU?$_Tree_node@U?$pair@$$CBHP6APAVCResource@@PBD@Z@std@@PAX@1@@Z ; std::_Tree_val<std::_Tree_simple_types<std::pair<int const ,CResource * (__cdecl*)(char const *)> > >::_Erase_tree<std::allocator<std::_Tree_node<std::pair<int const ,CResource * (__cdecl*)(char const *)>,void *> > >
PUBLIC	??$_Find_lower_bound@V?$basic_string@DU?$char_traits@D@std@@V?$allocator@D@2@@std@@@?$_Tree@V?$_Tmap_traits@V?$basic_string@DU?$char_traits@D@std@@V?$allocator@D@2@@std@@P6APAVCResource@@PBD@ZU?$less@V?$basic_string@DU?$char_traits@D@std@@V?$allocator@D@2@@std@@@2@V?$allocator@U?$pair@$$CBV?$basic_string@DU?$char_traits@D@std@@V?$allocator@D@2@@std@@P6APAVCResource@@PBD@Z@std@@@2@$0A@@std@@@std@@IBE?AU?$_Tree_find_result@PAU?$_Tree_node@U?$pair@$$CBV?$basic_string@DU?$char_traits@D@std@@V?$allocator@D@2@@std@@P6APAVCResource@@PBD@Z@std@@PAX@std@@@1@ABV?$basic_string@DU?$char_traits@D@std@@V?$allocator@D@2@@1@@Z ; std::_Tree<std::_Tmap_traits<std::basic_string<char,std::char_traits<char>,std::allocator<char> >,CResource * (__cdecl*)(char const *),std::less<std::basic_string<char,std::char_traits<char>,std::allocator<char> > >,std::allocator<std::pair<std::basic_string<char,std::char_traits<char>,std::allocator<char> > const ,CResource * (__cdecl*)(char const *)> >,0> >::_Find_lower_bound<std::basic_string<char,std::char_traits<char>,std::allocator<char> > >
PUBLIC	??1?$_Alloc_construct_ptr@V?$allocator@U?$_Tree_node@U?$pair@$$CBV?$basic_string@DU?$char_traits@D@std@@V?$allocator@D@2@@std@@P6APAVCResource@@PBD@Z@std@@PAX@std@@@std@@@std@@QAE@XZ ; std::_Alloc_construct_ptr<std::allocator<std::_Tree_node<std::pair<std::basic_string<char,std::char_traits<char>,std::allocator<char> > const ,CResource * (__cdecl*)(char const *)>,void *> > >::~_Alloc_construct_ptr<std::allocator<std::_Tree_node<std::pair<std::basic_string<char,std::char_traits<char>,std::allocator<char> > const ,CResource * (__cdecl*)(char const *)>,void *> > >
PUBLIC	??$_Erase_tree@V?$allocator@U?$_Tree_node@U?$pair@$$CBV?$basic_string@DU?$char_traits@D@std@@V?$allocator@D@2@@std@@P6APAVCResource@@PBD@Z@std@@PAX@std@@@std@@@?$_Tree_val@U?$_Tree_simple_types@U?$pair@$$CBV?$basic_string@DU?$char_traits@D@std@@V?$allocator@D@2@@std@@P6APAVCResource@@PBD@Z@std@@@std@@@std@@QAEXAAV?$allocator@U?$_Tree_node@U?$pair@$$CBV?$basic_string@DU?$char_traits@D@std@@V?$allocator@D@2@@std@@P6APAVCResource@@PBD@Z@std@@PAX@std@@@1@PAU?$_Tree_node@U?$pair@$$CBV?$basic_string@DU?$char_traits@D@std@@V?$allocator@D@2@@std@@P6APAVCResource@@PBD@Z@std@@PAX@1@@Z ; std::_Tree_val<std::_Tree_simple_types<std::pair<std::basic_string<char,std::char_traits<char>,std::allocator<char> > const ,CResource * (__cdecl*)(char const *)> > >::_Erase_tree<std::allocator<std::_Tree_node<std::pair<std::basic_string<char,std::char_traits<char>,std::allocator<char> > const ,CResource * (__cdecl*)(char const *)>,void *> > >
PUBLIC	??$_Find_lower_bound@K@?$_Tree@V?$_Tmap_traits@KPAVCResource@@U?$less@K@std@@V?$allocator@U?$pair@$$CBKPAVCResource@@@std@@@3@$0A@@std@@@std@@IBE?AU?$_Tree_find_result@PAU?$_Tree_node@U?$pair@$$CBKPAVCResource@@@std@@PAX@std@@@1@ABK@Z ; std::_Tree<std::_Tmap_traits<unsigned long,CResource *,std::less<unsigned long>,std::allocator<std::pair<unsigned long const ,CResource *> >,0> >::_Find_lower_bound<unsigned long>
PUBLIC	??1?$_Alloc_construct_ptr@V?$allocator@U?$_Tree_node@U?$pair@$$CBKPAVCResource@@@std@@PAX@std@@@std@@@std@@QAE@XZ ; std::_Alloc_construct_ptr<std::allocator<std::_Tree_node<std::pair<unsigned long const ,CResource *>,void *> > >::~_Alloc_construct_ptr<std::allocator<std::_Tree_node<std::pair<unsigned long const ,CResource *>,void *> > >
PUBLIC	??1?$_Alloc_construct_ptr@V?$allocator@U?$_Tree_node@U?$pair@$$CBKV?$basic_string@DU?$char_traits@D@std@@V?$allocator@D@2@@std@@@std@@PAX@std@@@std@@@std@@QAE@XZ ; std::_Alloc_construct_ptr<std::allocator<std::_Tree_node<std::pair<unsigned long const ,std::basic_string<char,std::char_traits<char>,std::allocator<char> > >,void *> > >::~_Alloc_construct_ptr<std::allocator<std::_Tree_node<std::pair<unsigned long const ,std::basic_string<char,std::char_traits<char>,std::allocator<char> > >,void *> > >
PUBLIC	??1?$_Alloc_construct_ptr@V?$allocator@U?$_Tree_node@U?$pair@$$CBJPAVCResource@@@std@@PAX@std@@@std@@@std@@QAE@XZ ; std::_Alloc_construct_ptr<std::allocator<std::_Tree_node<std::pair<long const ,CResource *>,void *> > >::~_Alloc_construct_ptr<std::allocator<std::_Tree_node<std::pair<long const ,CResource *>,void *> > >
PUBLIC	??$_Make_heap_unchecked@PAUSDumpData@@P6A_NABU1@0@Z@std@@YAXPAUSDumpData@@0P6A_NABU1@1@Z@Z ; std::_Make_heap_unchecked<SDumpData *,bool (__cdecl*)(SDumpData const &,SDumpData const &)>
PUBLIC	??$_Partition_by_median_guess_unchecked@PAUSDumpData@@P6A_NABU1@0@Z@std@@YA?AU?$pair@PAUSDumpData@@PAU1@@0@PAUSDumpData@@0P6A_NABU2@1@Z@Z ; std::_Partition_by_median_guess_unchecked<SDumpData *,bool (__cdecl*)(SDumpData const &,SDumpData const &)>
PUBLIC	??1?$_Alloc_construct_ptr@V?$allocator@U?$_Tree_node@U?$pair@QAVCResource@@K@std@@PAX@std@@@std@@@std@@QAE@XZ ; std::_Alloc_construct_ptr<std::allocator<std::_Tree_node<std::pair<CResource * const,unsigned long>,void *> > >::~_Alloc_construct_ptr<std::allocator<std::_Tree_node<std::pair<CResource * const,unsigned long>,void *> > >
PUBLIC	??$?MDU?$char_traits@D@std@@V?$allocator@D@1@@std@@YA_NABV?$basic_string@DU?$char_traits@D@std@@V?$allocator@D@2@@0@0@Z ; std::operator<<char,std::char_traits<char>,std::allocator<char> >
PUBLIC	??$_Pop_heap_hole_by_index@PAUSDumpData@@U1@P6A_NABU1@0@Z@std@@YAXPAUSDumpData@@HH$$QAU1@P6A_NABU1@2@Z@Z ; std::_Pop_heap_hole_by_index<SDumpData *,SDumpData,bool (__cdecl*)(SDumpData const &,SDumpData const &)>
PUBLIC	??$_Copy_memmove@PAUSDumpData@@PAU1@@std@@YAPAUSDumpData@@PAU1@00@Z ; std::_Copy_memmove<SDumpData *,SDumpData *>
PUBLIC	??$_Copy_backward_memmove@PAUSDumpData@@PAU1@@std@@YAPAUSDumpData@@PAU1@00@Z ; std::_Copy_backward_memmove<SDumpData *,SDumpData *>
PUBLIC	??$_Med3_unchecked@PAUSDumpData@@P6A_NABU1@0@Z@std@@YAXPAUSDumpData@@00P6A_NABU1@1@Z@Z ; std::_Med3_unchecked<SDumpData *,bool (__cdecl*)(SDumpData const &,SDumpData const &)>
PUBLIC	??$_Copy_memmove_tail@PAUSDumpData@@@std@@YAPAUSDumpData@@QBDQAU1@II@Z ; std::_Copy_memmove_tail<SDumpData *>
PUBLIC	?_OptionsStorage@?1??__local_stdio_printf_options@@9@4_KA ; `__local_stdio_printf_options'::`2'::_OptionsStorage
PUBLIC	??_7exception@std@@6B@				; std::exception::`vftable'
PUBLIC	??_C@_0BC@EOODALEL@Unknown?5exception@		; `string'
PUBLIC	??_7bad_alloc@std@@6B@				; std::bad_alloc::`vftable'
PUBLIC	??_7bad_array_new_length@std@@6B@		; std::bad_array_new_length::`vftable'
PUBLIC	??_C@_0BF@KINCDENJ@bad?5array?5new?5length@	; `string'
PUBLIC	??_R0?AVexception@std@@@8			; std::exception `RTTI Type Descriptor'
PUBLIC	__CT??_R0?AVexception@std@@@8??0exception@std@@QAE@ABV01@@Z12
PUBLIC	__TI3?AVbad_array_new_length@std@@
PUBLIC	__CTA3?AVbad_array_new_length@std@@
PUBLIC	??_R0?AVbad_array_new_length@std@@@8		; std::bad_array_new_length `RTTI Type Descriptor'
PUBLIC	__CT??_R0?AVbad_array_new_length@std@@@8??0bad_array_new_length@std@@QAE@ABV01@@Z12
PUBLIC	??_R0?AVbad_alloc@std@@@8			; std::bad_alloc `RTTI Type Descriptor'
PUBLIC	__CT??_R0?AVbad_alloc@std@@@8??0bad_alloc@std@@QAE@ABV01@@Z12
PUBLIC	??_C@_0BA@JFNIOLAK@string?5too?5long@		; `string'
PUBLIC	??_C@_0BB@GCADKGJO@map?1set?5too?5long@		; `string'
PUBLIC	??_R4exception@std@@6B@				; std::exception::`RTTI Complete Object Locator'
PUBLIC	??_R3exception@std@@8				; std::exception::`RTTI Class Hierarchy Descriptor'
PUBLIC	??_R2exception@std@@8				; std::exception::`RTTI Base Class Array'
PUBLIC	??_R1A@?0A@EA@exception@std@@8			; std::exception::`RTTI Base Class Descriptor at (0,-1,0,64)'
PUBLIC	??_R4bad_array_new_length@std@@6B@		; std::bad_array_new_length::`RTTI Complete Object Locator'
PUBLIC	??_R3bad_array_new_length@std@@8		; std::bad_array_new_length::`RTTI Class Hierarchy Descriptor'
PUBLIC	??_R2bad_array_new_length@std@@8		; std::bad_array_new_length::`RTTI Base Class Array'
PUBLIC	??_R1A@?0A@EA@bad_array_new_length@std@@8	; std::bad_array_new_length::`RTTI Base Class Descriptor at (0,-1,0,64)'
PUBLIC	??_R1A@?0A@EA@bad_alloc@std@@8			; std::bad_alloc::`RTTI Base Class Descriptor at (0,-1,0,64)'
PUBLIC	??_R3bad_alloc@std@@8				; std::bad_alloc::`RTTI Class Hierarchy Descriptor'
PUBLIC	??_R2bad_alloc@std@@8				; std::bad_alloc::`RTTI Base Class Array'
PUBLIC	??_R4bad_alloc@std@@6B@				; std::bad_alloc::`RTTI Complete Object Locator'
PUBLIC	?ms_singleton@?$CSingleton@VCEterPackManager@@@@0PAVCEterPackManager@@A ; CSingleton<CEterPackManager>::ms_singleton
PUBLIC	?ms_singleton@?$CSingleton@VCResourceManager@@@@0PAVCResourceManager@@A ; CSingleton<CResourceManager>::ms_singleton
PUBLIC	??_7?$CSingleton@VCResourceManager@@@@6B@	; CSingleton<CResourceManager>::`vftable'
PUBLIC	?ms_loadingThread@CResourceManager@@1VCFileLoaderThread@@A ; CResourceManager::ms_loadingThread
PUBLIC	??_7CResourceManager@@6B@			; CResourceManager::`vftable'
PUBLIC	??_C@_0CO@DICKOBGD@CResourceManager?3?3LoadStaticCac@ ; `string'
PUBLIC	??_C@_0DC@JIBACBGM@CResourceManager?3?3__DestroyDele@ ; `string'
PUBLIC	??_C@_0CK@GGPMOLNJ@CResourceManager?3?3__DestroyReso@ ; `string'
PUBLIC	??_C@_0DM@HFOFINBK@CResource?3?3InsertResourcePointe@ ; `string'
PUBLIC	??_C@_0DJ@NILLFGHO@ResourceManager?3?3GetResourcePoi@ ; `string'
PUBLIC	??_C@_0DG@LGINPHCP@CResourceManager?3?3GetResourcePo@ ; `string'
PUBLIC	??_C@_09COBKJKAL@?$CF6?41f?5?$CFs?6@		; `string'
PUBLIC	??_C@_08IGNPNJLM@?$CF?94d?5?$CFs?6@		; `string'
PUBLIC	??_C@_04DLFHDFGL@?4sub@				; `string'
PUBLIC	??_C@_02JDPG@rb@				; `string'
PUBLIC	??_C@_01NOFIACDB@w@				; `string'
PUBLIC	??_C@_0O@LJOLOKII@total?3?5?$CF?42fmb@		; `string'
PUBLIC	??_C@_0BA@FOIKENOD@vector?5too?5long@		; `string'
PUBLIC	??_R4CResourceManager@@6B@			; CResourceManager::`RTTI Complete Object Locator'
PUBLIC	??_R0?AVCResourceManager@@@8			; CResourceManager `RTTI Type Descriptor'
PUBLIC	??_R3CResourceManager@@8			; CResourceManager::`RTTI Class Hierarchy Descriptor'
PUBLIC	??_R2CResourceManager@@8			; CResourceManager::`RTTI Base Class Array'
PUBLIC	??_R1A@?0A@EA@CResourceManager@@8		; CResourceManager::`RTTI Base Class Descriptor at (0,-1,0,64)'
PUBLIC	??_R1A@?0A@EA@?$CSingleton@VCResourceManager@@@@8 ; CSingleton<CResourceManager>::`RTTI Base Class Descriptor at (0,-1,0,64)'
PUBLIC	??_R0?AV?$CSingleton@VCResourceManager@@@@@8	; CSingleton<CResourceManager> `RTTI Type Descriptor'
PUBLIC	??_R3?$CSingleton@VCResourceManager@@@@8	; CSingleton<CResourceManager>::`RTTI Class Hierarchy Descriptor'
PUBLIC	??_R2?$CSingleton@VCResourceManager@@@@8	; CSingleton<CResourceManager>::`RTTI Base Class Array'
PUBLIC	??_R4?$CSingleton@VCResourceManager@@@@6B@	; CSingleton<CResourceManager>::`RTTI Complete Object Locator'
PUBLIC	__real@3a800000
EXTRN	??2@YAPAXI@Z:PROC				; operator new
EXTRN	??3@YAXPAXI@Z:PROC				; operator delete
EXTRN	??_V@YAXPAX@Z:PROC				; operator delete[]
EXTRN	_atexit:PROC
EXTRN	__invalid_parameter_noinfo_noreturn:PROC
EXTRN	_strrchr:PROC
EXTRN	__strnicmp:PROC
EXTRN	_strncpy:PROC
EXTRN	_fclose:PROC
EXTRN	_fopen:PROC
EXTRN	_fseek:PROC
EXTRN	_ftell:PROC
EXTRN	___stdio_common_vfprintf:PROC
EXTRN	?_Xlength_error@std@@YAXPBD@Z:PROC		; std::_Xlength_error
EXTRN	___std_exception_copy:PROC
EXTRN	___std_exception_destroy:PROC
EXTRN	??_Eexception@std@@UAEPAXI@Z:PROC		; std::exception::`vector deleting destructor'
EXTRN	??_Ebad_alloc@std@@UAEPAXI@Z:PROC		; std::bad_alloc::`vector deleting destructor'
EXTRN	??_Ebad_array_new_length@std@@UAEPAXI@Z:PROC	; std::bad_array_new_length::`vector deleting destructor'
EXTRN	?Lognf@@YAXIPBDZZ:PROC				; Lognf
EXTRN	?Tracenf@@YAXPBDZZ:PROC				; Tracenf
EXTRN	?TraceError@@YAXPBDZZ:PROC			; TraceError
EXTRN	?GetCRC32@@YAKPBDI@Z:PROC			; GetCRC32
EXTRN	?ELTimer_GetMSec@@YAKXZ:PROC			; ELTimer_GetMSec
EXTRN	?korean_tolower@@YADD@Z:PROC			; korean_tolower
EXTRN	??1CMappedFile@@UAE@XZ:PROC			; CMappedFile::~CMappedFile
EXTRN	?isExist@CEterPackManager@@QAE_NPBD@Z:PROC	; CEterPackManager::isExist
EXTRN	?AddReference@CReferenceObject@@QAEXXZ:PROC	; CReferenceObject::AddReference
EXTRN	?AddReferenceOnly@CReferenceObject@@QAEXXZ:PROC	; CReferenceObject::AddReferenceOnly
EXTRN	?Release@CReferenceObject@@QAEXXZ:PROC		; CReferenceObject::Release
EXTRN	?canDestroy@CReferenceObject@@QAE_NXZ:PROC	; CReferenceObject::canDestroy
EXTRN	?Clear@CResource@@QAEXXZ:PROC			; CResource::Clear
EXTRN	?SetDeleteImmediately@CResource@@SAX_N@Z:PROC	; CResource::SetDeleteImmediately
EXTRN	?IsData@CResource@@QBE_NXZ:PROC			; CResource::IsData
EXTRN	?IsEmpty@CResource@@QBE_NXZ:PROC		; CResource::IsEmpty
EXTRN	?IsType@CResource@@QAE_NK@Z:PROC		; CResource::IsType
EXTRN	??0CFileLoaderThread@@QAE@XZ:PROC		; CFileLoaderThread::CFileLoaderThread
EXTRN	??1CFileLoaderThread@@QAE@XZ:PROC		; CFileLoaderThread::~CFileLoaderThread
EXTRN	?Request@CFileLoaderThread@@QAEXAAV?$basic_string@DU?$char_traits@D@std@@V?$allocator@D@2@@std@@@Z:PROC ; CFileLoaderThread::Request
EXTRN	?Fetch@CFileLoaderThread@@QAE_NPAPAUSData@1@@Z:PROC ; CFileLoaderThread::Fetch
EXTRN	??_E?$CSingleton@VCResourceManager@@@@UAEPAXI@Z:PROC ; CSingleton<CResourceManager>::`vector deleting destructor'
EXTRN	??_ECResourceManager@@UAEPAXI@Z:PROC		; CResourceManager::`vector deleting destructor'
EXTRN	?Type@CGraphicImage@@SAKXZ:PROC			; CGraphicImage::Type
EXTRN	?GetWidth@CGraphicImage@@QBEHXZ:PROC		; CGraphicImage::GetWidth
EXTRN	?GetHeight@CGraphicImage@@QBEHXZ:PROC		; CGraphicImage::GetHeight
EXTRN	@__security_check_cookie@4:PROC
EXTRN	__CxxThrowException@8:PROC
EXTRN	___CxxFrameHandler3:PROC
EXTRN	_memcpy:PROC
EXTRN	_memmove:PROC
EXTRN	??_7type_info@@6B@:QWORD			; type_info::`vftable'
EXTRN	___security_cookie:DWORD
EXTRN	__fltused:DWORD
;	COMDAT ?_OptionsStorage@?1??__local_stdio_printf_options@@9@4_KA
_BSS	SEGMENT
?_OptionsStorage@?1??__local_stdio_printf_options@@9@4_KA DQ 01H DUP (?) ; `__local_stdio_printf_options'::`2'::_OptionsStorage
_BSS	ENDS
;	COMDAT ?ms_singleton@?$CSingleton@VCEterPackManager@@@@0PAVCEterPackManager@@A
_BSS	SEGMENT
?ms_singleton@?$CSingleton@VCEterPackManager@@@@0PAVCEterPackManager@@A DD 01H DUP (?) ; CSingleton<CEterPackManager>::ms_singleton
_BSS	ENDS
;	COMDAT ?ms_singleton@?$CSingleton@VCResourceManager@@@@0PAVCResourceManager@@A
_BSS	SEGMENT
?ms_singleton@?$CSingleton@VCResourceManager@@@@0PAVCResourceManager@@A DD 01H DUP (?) ; CSingleton<CResourceManager>::ms_singleton
_BSS	ENDS
_BSS	SEGMENT
?ms_loadingThread@CResourceManager@@1VCFileLoaderThread@@A DB 070H DUP (?) ; CResourceManager::ms_loadingThread
_BSS	ENDS
;	COMDAT ?s_szFileExt@?BB@??GetTypeResourcePointer@CResourceManager@@QAEPAVCResource@@PBDH@Z@4PADA
_BSS	SEGMENT
?s_szFileExt@?BB@??GetTypeResourcePointer@CResourceManager@@QAEPAVCResource@@PBDH@Z@4PADA DB 09H DUP (?) ; `CResourceManager::GetTypeResourcePointer'::`17'::s_szFileExt
_BSS	ENDS
;	COMDAT ?s_szFileExt@?9??GetResourcePointer@CResourceManager@@QAEPAVCResource@@PBD@Z@4PADA
_BSS	SEGMENT
?s_szFileExt@?9??GetResourcePointer@CResourceManager@@QAEPAVCResource@@PBD@Z@4PADA DB 09H DUP (?) ; `CResourceManager::GetResourcePointer'::`10'::s_szFileExt
_BSS	ENDS
;	COMDAT ?s_szFullPathFileName@?1??__GetFileCRC@CResourceManager@@IAEKPBDPAPBD@Z@4PADA
_BSS	SEGMENT
?s_szFullPathFileName@?1??__GetFileCRC@CResourceManager@@IAEKPBDPAPBD@Z@4PADA DB 0104H DUP (?) ; `CResourceManager::__GetFileCRC'::`2'::s_szFullPathFileName
_BSS	ENDS
CRT$XCU	SEGMENT
??ms_loadingThread$initializer$@CResourceManager@@1P6AXXZA@@3P6AXXZA DD FLAT:??__E?ms_loadingThread@CResourceManager@@1VCFileLoaderThread@@A@@YAXXZ ; ??ms_loadingThread$initializer$@CResourceManager@@1P6AXXZA@@3P6AXXZA
CRT$XCU	ENDS
;	COMDAT __real@3a800000
CONST	SEGMENT
__real@3a800000 DD 03a800000r			; 0.000976562
CONST	ENDS
;	COMDAT ??_R4?$CSingleton@VCResourceManager@@@@6B@
rdata$r	SEGMENT
??_R4?$CSingleton@VCResourceManager@@@@6B@ DD 00H	; CSingleton<CResourceManager>::`RTTI Complete Object Locator'
	DD	00H
	DD	00H
	DD	FLAT:??_R0?AV?$CSingleton@VCResourceManager@@@@@8
	DD	FLAT:??_R3?$CSingleton@VCResourceManager@@@@8
rdata$r	ENDS
;	COMDAT ??_R2?$CSingleton@VCResourceManager@@@@8
rdata$r	SEGMENT
??_R2?$CSingleton@VCResourceManager@@@@8 DD FLAT:??_R1A@?0A@EA@?$CSingleton@VCResourceManager@@@@8 ; CSingleton<CResourceManager>::`RTTI Base Class Array'
rdata$r	ENDS
;	COMDAT ??_R3?$CSingleton@VCResourceManager@@@@8
rdata$r	SEGMENT
??_R3?$CSingleton@VCResourceManager@@@@8 DD 00H		; CSingleton<CResourceManager>::`RTTI Class Hierarchy Descriptor'
	DD	00H
	DD	01H
	DD	FLAT:??_R2?$CSingleton@VCResourceManager@@@@8
rdata$r	ENDS
;	COMDAT ??_R0?AV?$CSingleton@VCResourceManager@@@@@8
data$rs	SEGMENT
??_R0?AV?$CSingleton@VCResourceManager@@@@@8 DD FLAT:??_7type_info@@6B@ ; CSingleton<CResourceManager> `RTTI Type Descriptor'
	DD	00H
	DB	'.?AV?$CSingleton@VCResourceManager@@@@', 00H
data$rs	ENDS
;	COMDAT ??_R1A@?0A@EA@?$CSingleton@VCResourceManager@@@@8
rdata$r	SEGMENT
??_R1A@?0A@EA@?$CSingleton@VCResourceManager@@@@8 DD FLAT:??_R0?AV?$CSingleton@VCResourceManager@@@@@8 ; CSingleton<CResourceManager>::`RTTI Base Class Descriptor at (0,-1,0,64)'
	DD	00H
	DD	00H
	DD	0ffffffffH
	DD	00H
	DD	040H
	DD	FLAT:??_R3?$CSingleton@VCResourceManager@@@@8
rdata$r	ENDS
;	COMDAT ??_R1A@?0A@EA@CResourceManager@@8
rdata$r	SEGMENT
??_R1A@?0A@EA@CResourceManager@@8 DD FLAT:??_R0?AVCResourceManager@@@8 ; CResourceManager::`RTTI Base Class Descriptor at (0,-1,0,64)'
	DD	01H
	DD	00H
	DD	0ffffffffH
	DD	00H
	DD	040H
	DD	FLAT:??_R3CResourceManager@@8
rdata$r	ENDS
;	COMDAT ??_R2CResourceManager@@8
rdata$r	SEGMENT
??_R2CResourceManager@@8 DD FLAT:??_R1A@?0A@EA@CResourceManager@@8 ; CResourceManager::`RTTI Base Class Array'
	DD	FLAT:??_R1A@?0A@EA@?$CSingleton@VCResourceManager@@@@8
rdata$r	ENDS
;	COMDAT ??_R3CResourceManager@@8
rdata$r	SEGMENT
??_R3CResourceManager@@8 DD 00H				; CResourceManager::`RTTI Class Hierarchy Descriptor'
	DD	00H
	DD	02H
	DD	FLAT:??_R2CResourceManager@@8
rdata$r	ENDS
;	COMDAT ??_R0?AVCResourceManager@@@8
data$rs	SEGMENT
??_R0?AVCResourceManager@@@8 DD FLAT:??_7type_info@@6B@	; CResourceManager `RTTI Type Descriptor'
	DD	00H
	DB	'.?AVCResourceManager@@', 00H
data$rs	ENDS
;	COMDAT ??_R4CResourceManager@@6B@
rdata$r	SEGMENT
??_R4CResourceManager@@6B@ DD 00H			; CResourceManager::`RTTI Complete Object Locator'
	DD	00H
	DD	00H
	DD	FLAT:??_R0?AVCResourceManager@@@8
	DD	FLAT:??_R3CResourceManager@@8
rdata$r	ENDS
;	COMDAT ??_C@_0BA@FOIKENOD@vector?5too?5long@
CONST	SEGMENT
??_C@_0BA@FOIKENOD@vector?5too?5long@ DB 'vector too long', 00H ; `string'
CONST	ENDS
;	COMDAT ??_C@_0O@LJOLOKII@total?3?5?$CF?42fmb@
CONST	SEGMENT
??_C@_0O@LJOLOKII@total?3?5?$CF?42fmb@ DB 'total: %.2fmb', 00H ; `string'
CONST	ENDS
;	COMDAT ??_C@_01NOFIACDB@w@
CONST	SEGMENT
??_C@_01NOFIACDB@w@ DB 'w', 00H				; `string'
CONST	ENDS
;	COMDAT ??_C@_02JDPG@rb@
CONST	SEGMENT
??_C@_02JDPG@rb@ DB 'rb', 00H				; `string'
CONST	ENDS
;	COMDAT ??_C@_04DLFHDFGL@?4sub@
CONST	SEGMENT
??_C@_04DLFHDFGL@?4sub@ DB '.sub', 00H			; `string'
CONST	ENDS
;	COMDAT ??_C@_08IGNPNJLM@?$CF?94d?5?$CFs?6@
CONST	SEGMENT
??_C@_08IGNPNJLM@?$CF?94d?5?$CFs?6@ DB '%-4d %s', 0aH, 00H ; `string'
CONST	ENDS
;	COMDAT ??_C@_09COBKJKAL@?$CF6?41f?5?$CFs?6@
CONST	SEGMENT
??_C@_09COBKJKAL@?$CF6?41f?5?$CFs?6@ DB '%6.1f %s', 0aH, 00H ; `string'
CONST	ENDS
;	COMDAT ??_C@_0DG@LGINPHCP@CResourceManager?3?3GetResourcePo@
CONST	SEGMENT
??_C@_0DG@LGINPHCP@CResourceManager?3?3GetResourcePo@ DB 'CResourceManage'
	DB	'r::GetResourcePointer: filename error!', 00H ; `string'
CONST	ENDS
;	COMDAT ??_C@_0DJ@NILLFGHO@ResourceManager?3?3GetResourcePoi@
CONST	SEGMENT
??_C@_0DJ@NILLFGHO@ResourceManager?3?3GetResourcePoi@ DB 'ResourceManager'
	DB	'::GetResourcePointer: NOT SUPPORT FILE %s', 00H ; `string'
CONST	ENDS
;	COMDAT ??_C@_0DM@HFOFINBK@CResource?3?3InsertResourcePointe@
CONST	SEGMENT
??_C@_0DM@HFOFINBK@CResource?3?3InsertResourcePointe@ DB 'CResource::Inse'
	DB	'rtResourcePointer: %s is already registered', 0aH, 00H ; `string'
CONST	ENDS
;	COMDAT ??_C@_0CK@GGPMOLNJ@CResourceManager?3?3__DestroyReso@
CONST	SEGMENT
??_C@_0CK@GGPMOLNJ@CResourceManager?3?3__DestroyReso@ DB 'CResourceManage'
	DB	'r::__DestroyResourceMap %d', 00H		; `string'
CONST	ENDS
;	COMDAT ??_C@_0DC@JIBACBGM@CResourceManager?3?3__DestroyDele@
CONST	SEGMENT
??_C@_0DC@JIBACBGM@CResourceManager?3?3__DestroyDele@ DB 'CResourceManage'
	DB	'r::__DestroyDeletingResourceMap %d', 00H	; `string'
CONST	ENDS
;	COMDAT ??_C@_0CO@DICKOBGD@CResourceManager?3?3LoadStaticCac@
CONST	SEGMENT
??_C@_0CO@DICKOBGD@CResourceManager?3?3LoadStaticCac@ DB 'CResourceManage'
	DB	'r::LoadStaticCache %s - FAILED', 00H	; `string'
CONST	ENDS
;	COMDAT ??_7CResourceManager@@6B@
CONST	SEGMENT
??_7CResourceManager@@6B@ DD FLAT:??_R4CResourceManager@@6B@ ; CResourceManager::`vftable'
	DD	FLAT:??_ECResourceManager@@UAEPAXI@Z
CONST	ENDS
;	COMDAT ??_7?$CSingleton@VCResourceManager@@@@6B@
CONST	SEGMENT
??_7?$CSingleton@VCResourceManager@@@@6B@ DD FLAT:??_R4?$CSingleton@VCResourceManager@@@@6B@ ; CSingleton<CResourceManager>::`vftable'
	DD	FLAT:??_E?$CSingleton@VCResourceManager@@@@UAEPAXI@Z
CONST	ENDS
;	COMDAT ??_R4bad_alloc@std@@6B@
rdata$r	SEGMENT
??_R4bad_alloc@std@@6B@ DD 00H				; std::bad_alloc::`RTTI Complete Object Locator'
	DD	00H
	DD	00H
	DD	FLAT:??_R0?AVbad_alloc@std@@@8
	DD	FLAT:??_R3bad_alloc@std@@8
rdata$r	ENDS
;	COMDAT ??_R2bad_alloc@std@@8
rdata$r	SEGMENT
??_R2bad_alloc@std@@8 DD FLAT:??_R1A@?0A@EA@bad_alloc@std@@8 ; std::bad_alloc::`RTTI Base Class Array'
	DD	FLAT:??_R1A@?0A@EA@exception@std@@8
rdata$r	ENDS
;	COMDAT ??_R3bad_alloc@std@@8
rdata$r	SEGMENT
??_R3bad_alloc@std@@8 DD 00H				; std::bad_alloc::`RTTI Class Hierarchy Descriptor'
	DD	00H
	DD	02H
	DD	FLAT:??_R2bad_alloc@std@@8
rdata$r	ENDS
;	COMDAT ??_R1A@?0A@EA@bad_alloc@std@@8
rdata$r	SEGMENT
??_R1A@?0A@EA@bad_alloc@std@@8 DD FLAT:??_R0?AVbad_alloc@std@@@8 ; std::bad_alloc::`RTTI Base Class Descriptor at (0,-1,0,64)'
	DD	01H
	DD	00H
	DD	0ffffffffH
	DD	00H
	DD	040H
	DD	FLAT:??_R3bad_alloc@std@@8
rdata$r	ENDS
;	COMDAT ??_R1A@?0A@EA@bad_array_new_length@std@@8
rdata$r	SEGMENT
??_R1A@?0A@EA@bad_array_new_length@std@@8 DD FLAT:??_R0?AVbad_array_new_length@std@@@8 ; std::bad_array_new_length::`RTTI Base Class Descriptor at (0,-1,0,64)'
	DD	02H
	DD	00H
	DD	0ffffffffH
	DD	00H
	DD	040H
	DD	FLAT:??_R3bad_array_new_length@std@@8
rdata$r	ENDS
;	COMDAT ??_R2bad_array_new_length@std@@8
rdata$r	SEGMENT
??_R2bad_array_new_length@std@@8 DD FLAT:??_R1A@?0A@EA@bad_array_new_length@std@@8 ; std::bad_array_new_length::`RTTI Base Class Array'
	DD	FLAT:??_R1A@?0A@EA@bad_alloc@std@@8
	DD	FLAT:??_R1A@?0A@EA@exception@std@@8
rdata$r	ENDS
;	COMDAT ??_R3bad_array_new_length@std@@8
rdata$r	SEGMENT
??_R3bad_array_new_length@std@@8 DD 00H			; std::bad_array_new_length::`RTTI Class Hierarchy Descriptor'
	DD	00H
	DD	03H
	DD	FLAT:??_R2bad_array_new_length@std@@8
rdata$r	ENDS
;	COMDAT ??_R4bad_array_new_length@std@@6B@
rdata$r	SEGMENT
??_R4bad_array_new_length@std@@6B@ DD 00H		; std::bad_array_new_length::`RTTI Complete Object Locator'
	DD	00H
	DD	00H
	DD	FLAT:??_R0?AVbad_array_new_length@std@@@8
	DD	FLAT:??_R3bad_array_new_length@std@@8
rdata$r	ENDS
;	COMDAT ??_R1A@?0A@EA@exception@std@@8
rdata$r	SEGMENT
??_R1A@?0A@EA@exception@std@@8 DD FLAT:??_R0?AVexception@std@@@8 ; std::exception::`RTTI Base Class Descriptor at (0,-1,0,64)'
	DD	00H
	DD	00H
	DD	0ffffffffH
	DD	00H
	DD	040H
	DD	FLAT:??_R3exception@std@@8
rdata$r	ENDS
;	COMDAT ??_R2exception@std@@8
rdata$r	SEGMENT
??_R2exception@std@@8 DD FLAT:??_R1A@?0A@EA@exception@std@@8 ; std::exception::`RTTI Base Class Array'
rdata$r	ENDS
;	COMDAT ??_R3exception@std@@8
rdata$r	SEGMENT
??_R3exception@std@@8 DD 00H				; std::exception::`RTTI Class Hierarchy Descriptor'
	DD	00H
	DD	01H
	DD	FLAT:??_R2exception@std@@8
rdata$r	ENDS
;	COMDAT ??_R4exception@std@@6B@
rdata$r	SEGMENT
??_R4exception@std@@6B@ DD 00H				; std::exception::`RTTI Complete Object Locator'
	DD	00H
	DD	00H
	DD	FLAT:??_R0?AVexception@std@@@8
	DD	FLAT:??_R3exception@std@@8
rdata$r	ENDS
;	COMDAT ??_C@_0BB@GCADKGJO@map?1set?5too?5long@
CONST	SEGMENT
??_C@_0BB@GCADKGJO@map?1set?5too?5long@ DB 'map/set too long', 00H ; `string'
CONST	ENDS
;	COMDAT ??_C@_0BA@JFNIOLAK@string?5too?5long@
CONST	SEGMENT
??_C@_0BA@JFNIOLAK@string?5too?5long@ DB 'string too long', 00H ; `string'
CONST	ENDS
;	COMDAT __CT??_R0?AVbad_alloc@std@@@8??0bad_alloc@std@@QAE@ABV01@@Z12
xdata$x	SEGMENT
__CT??_R0?AVbad_alloc@std@@@8??0bad_alloc@std@@QAE@ABV01@@Z12 DD 010H
	DD	FLAT:??_R0?AVbad_alloc@std@@@8
	DD	00H
	DD	0ffffffffH
	ORG $+4
	DD	0cH
	DD	FLAT:??0bad_alloc@std@@QAE@ABV01@@Z
xdata$x	ENDS
;	COMDAT ??_R0?AVbad_alloc@std@@@8
data$r	SEGMENT
??_R0?AVbad_alloc@std@@@8 DD FLAT:??_7type_info@@6B@	; std::bad_alloc `RTTI Type Descriptor'
	DD	00H
	DB	'.?AVbad_alloc@std@@', 00H
data$r	ENDS
;	COMDAT __CT??_R0?AVbad_array_new_length@std@@@8??0bad_array_new_length@std@@QAE@ABV01@@Z12
xdata$x	SEGMENT
__CT??_R0?AVbad_array_new_length@std@@@8??0bad_array_new_length@std@@QAE@ABV01@@Z12 DD 00H
	DD	FLAT:??_R0?AVbad_array_new_length@std@@@8
	DD	00H
	DD	0ffffffffH
	ORG $+4
	DD	0cH
	DD	FLAT:??0bad_array_new_length@std@@QAE@ABV01@@Z
xdata$x	ENDS
;	COMDAT ??_R0?AVbad_array_new_length@std@@@8
data$r	SEGMENT
??_R0?AVbad_array_new_length@std@@@8 DD FLAT:??_7type_info@@6B@ ; std::bad_array_new_length `RTTI Type Descriptor'
	DD	00H
	DB	'.?AVbad_array_new_length@std@@', 00H
data$r	ENDS
;	COMDAT __CTA3?AVbad_array_new_length@std@@
xdata$x	SEGMENT
__CTA3?AVbad_array_new_length@std@@ DD 03H
	DD	FLAT:__CT??_R0?AVbad_array_new_length@std@@@8??0bad_array_new_length@std@@QAE@ABV01@@Z12
	DD	FLAT:__CT??_R0?AVbad_alloc@std@@@8??0bad_alloc@std@@QAE@ABV01@@Z12
	DD	FLAT:__CT??_R0?AVexception@std@@@8??0exception@std@@QAE@ABV01@@Z12
xdata$x	ENDS
;	COMDAT __TI3?AVbad_array_new_length@std@@
xdata$x	SEGMENT
__TI3?AVbad_array_new_length@std@@ DD 00H
	DD	FLAT:??1bad_array_new_length@std@@UAE@XZ
	DD	00H
	DD	FLAT:__CTA3?AVbad_array_new_length@std@@
xdata$x	ENDS
;	COMDAT __CT??_R0?AVexception@std@@@8??0exception@std@@QAE@ABV01@@Z12
xdata$x	SEGMENT
__CT??_R0?AVexception@std@@@8??0exception@std@@QAE@ABV01@@Z12 DD 00H
	DD	FLAT:??_R0?AVexception@std@@@8
	DD	00H
	DD	0ffffffffH
	ORG $+4
	DD	0cH
	DD	FLAT:??0exception@std@@QAE@ABV01@@Z
xdata$x	ENDS
;	COMDAT ??_R0?AVexception@std@@@8
data$r	SEGMENT
??_R0?AVexception@std@@@8 DD FLAT:??_7type_info@@6B@	; std::exception `RTTI Type Descriptor'
	DD	00H
	DB	'.?AVexception@std@@', 00H
data$r	ENDS
;	COMDAT ??_C@_0BF@KINCDENJ@bad?5array?5new?5length@
CONST	SEGMENT
??_C@_0BF@KINCDENJ@bad?5array?5new?5length@ DB 'bad array new length', 00H ; `string'
CONST	ENDS
;	COMDAT ??_7bad_array_new_length@std@@6B@
CONST	SEGMENT
??_7bad_array_new_length@std@@6B@ DD FLAT:??_R4bad_array_new_length@std@@6B@ ; std::bad_array_new_length::`vftable'
	DD	FLAT:??_Ebad_array_new_length@std@@UAEPAXI@Z
	DD	FLAT:?what@exception@std@@UBEPBDXZ
CONST	ENDS
;	COMDAT ??_7bad_alloc@std@@6B@
CONST	SEGMENT
??_7bad_alloc@std@@6B@ DD FLAT:??_R4bad_alloc@std@@6B@	; std::bad_alloc::`vftable'
	DD	FLAT:??_Ebad_alloc@std@@UAEPAXI@Z
	DD	FLAT:?what@exception@std@@UBEPBDXZ
CONST	ENDS
;	COMDAT ??_C@_0BC@EOODALEL@Unknown?5exception@
CONST	SEGMENT
??_C@_0BC@EOODALEL@Unknown?5exception@ DB 'Unknown exception', 00H ; `string'
CONST	ENDS
;	COMDAT ??_7exception@std@@6B@
CONST	SEGMENT
??_7exception@std@@6B@ DD FLAT:??_R4exception@std@@6B@	; std::exception::`vftable'
	DD	FLAT:??_Eexception@std@@UAEPAXI@Z
	DD	FLAT:?what@exception@std@@UBEPBDXZ
CONST	ENDS
;	COMDAT xdata$x
xdata$x	SEGMENT
__unwindtable$??$?0U?$pair@QAVCResource@@K@std@@@?$_Tree_temp_node@V?$allocator@U?$_Tree_node@U?$pair@QAVCResource@@K@std@@PAX@std@@@std@@@std@@QAE@AAV?$allocator@U?$_Tree_node@U?$pair@QAVCResource@@K@std@@PAX@std@@@1@PAU?$_Tree_node@U?$pair@QAVCResource@@K@std@@PAX@1@$$QAU?$pair@QAVCResource@@K@1@@Z DD 0ffffffffH
	DD	FLAT:__unwindfunclet$??$?0U?$pair@QAVCResource@@K@std@@@?$_Tree_temp_node@V?$allocator@U?$_Tree_node@U?$pair@QAVCResource@@K@std@@PAX@std@@@std@@@std@@QAE@AAV?$allocator@U?$_Tree_node@U?$pair@QAVCResource@@K@std@@PAX@std@@@1@PAU?$_Tree_node@U?$pair@QAVCResource@@K@std@@PAX@1@$$QAU?$pair@QAVCResource@@K@1@@Z$1
__ehfuncinfo$??$?0U?$pair@QAVCResource@@K@std@@@?$_Tree_temp_node@V?$allocator@U?$_Tree_node@U?$pair@QAVCResource@@K@std@@PAX@std@@@std@@@std@@QAE@AAV?$allocator@U?$_Tree_node@U?$pair@QAVCResource@@K@std@@PAX@std@@@1@PAU?$_Tree_node@U?$pair@QAVCResource@@K@std@@PAX@1@$$QAU?$pair@QAVCResource@@K@1@@Z DD 019930522H
	DD	01H
	DD	FLAT:__unwindtable$??$?0U?$pair@QAVCResource@@K@std@@@?$_Tree_temp_node@V?$allocator@U?$_Tree_node@U?$pair@QAVCResource@@K@std@@PAX@std@@@std@@@std@@QAE@AAV?$allocator@U?$_Tree_node@U?$pair@QAVCResource@@K@std@@PAX@std@@@1@PAU?$_Tree_node@U?$pair@QAVCResource@@K@std@@PAX@1@$$QAU?$pair@QAVCResource@@K@1@@Z
	DD	2 DUP(00H)
	DD	2 DUP(00H)
	DD	00H
	DD	01H
xdata$x	ENDS
;	COMDAT xdata$x
xdata$x	SEGMENT
__unwindtable$??0?$_Tree_temp_node_alloc@V?$allocator@U?$_Tree_node@U?$pair@QAVCResource@@K@std@@PAX@std@@@std@@@std@@QAE@AAV?$allocator@U?$_Tree_node@U?$pair@QAVCResource@@K@std@@PAX@std@@@1@@Z DD 0ffffffffH
	DD	FLAT:__unwindfunclet$??0?$_Tree_temp_node_alloc@V?$allocator@U?$_Tree_node@U?$pair@QAVCResource@@K@std@@PAX@std@@@std@@@std@@QAE@AAV?$allocator@U?$_Tree_node@U?$pair@QAVCResource@@K@std@@PAX@std@@@1@@Z$0
__ehfuncinfo$??0?$_Tree_temp_node_alloc@V?$allocator@U?$_Tree_node@U?$pair@QAVCResource@@K@std@@PAX@std@@@std@@@std@@QAE@AAV?$allocator@U?$_Tree_node@U?$pair@QAVCResource@@K@std@@PAX@std@@@1@@Z DD 019930522H
	DD	01H
	DD	FLAT:__unwindtable$??0?$_Tree_temp_node_alloc@V?$allocator@U?$_Tree_node@U?$pair@QAVCResource@@K@std@@PAX@std@@@std@@@std@@QAE@AAV?$allocator@U?$_Tree_node@U?$pair@QAVCResource@@K@std@@PAX@std@@@1@@Z
	DD	2 DUP(00H)
	DD	2 DUP(00H)
	DD	00H
	DD	01H
xdata$x	ENDS
;	COMDAT xdata$x
xdata$x	SEGMENT
__unwindtable$??$?0U?$pair@$$CBKPAVCResource@@@std@@@?$_Tree_temp_node@V?$allocator@U?$_Tree_node@U?$pair@$$CBKPAVCResource@@@std@@PAX@std@@@std@@@std@@QAE@AAV?$allocator@U?$_Tree_node@U?$pair@$$CBKPAVCResource@@@std@@PAX@std@@@1@PAU?$_Tree_node@U?$pair@$$CBKPAVCResource@@@std@@PAX@1@$$QAU?$pair@$$CBKPAVCResource@@@1@@Z DD 0ffffffffH
	DD	FLAT:__unwindfunclet$??$?0U?$pair@$$CBKPAVCResource@@@std@@@?$_Tree_temp_node@V?$allocator@U?$_Tree_node@U?$pair@$$CBKPAVCResource@@@std@@PAX@std@@@std@@@std@@QAE@AAV?$allocator@U?$_Tree_node@U?$pair@$$CBKPAVCResource@@@std@@PAX@std@@@1@PAU?$_Tree_node@U?$pair@$$CBKPAVCResource@@@std@@PAX@1@$$QAU?$pair@$$CBKPAVCResource@@@1@@Z$1
__ehfuncinfo$??$?0U?$pair@$$CBKPAVCResource@@@std@@@?$_Tree_temp_node@V?$allocator@U?$_Tree_node@U?$pair@$$CBKPAVCResource@@@std@@PAX@std@@@std@@@std@@QAE@AAV?$allocator@U?$_Tree_node@U?$pair@$$CBKPAVCResource@@@std@@PAX@std@@@1@PAU?$_Tree_node@U?$pair@$$CBKPAVCResource@@@std@@PAX@1@$$QAU?$pair@$$CBKPAVCResource@@@1@@Z DD 019930522H
	DD	01H
	DD	FLAT:__unwindtable$??$?0U?$pair@$$CBKPAVCResource@@@std@@@?$_Tree_temp_node@V?$allocator@U?$_Tree_node@U?$pair@$$CBKPAVCResource@@@std@@PAX@std@@@std@@@std@@QAE@AAV?$allocator@U?$_Tree_node@U?$pair@$$CBKPAVCResource@@@std@@PAX@std@@@1@PAU?$_Tree_node@U?$pair@$$CBKPAVCResource@@@std@@PAX@1@$$QAU?$pair@$$CBKPAVCResource@@@1@@Z
	DD	2 DUP(00H)
	DD	2 DUP(00H)
	DD	00H
	DD	01H
xdata$x	ENDS
;	COMDAT xdata$x
xdata$x	SEGMENT
__unwindtable$??$?0U?$pair@$$CBJPAVCResource@@@std@@@?$_Tree_temp_node@V?$allocator@U?$_Tree_node@U?$pair@$$CBJPAVCResource@@@std@@PAX@std@@@std@@@std@@QAE@AAV?$allocator@U?$_Tree_node@U?$pair@$$CBJPAVCResource@@@std@@PAX@std@@@1@PAU?$_Tree_node@U?$pair@$$CBJPAVCResource@@@std@@PAX@1@$$QAU?$pair@$$CBJPAVCResource@@@1@@Z DD 0ffffffffH
	DD	FLAT:__unwindfunclet$??$?0U?$pair@$$CBJPAVCResource@@@std@@@?$_Tree_temp_node@V?$allocator@U?$_Tree_node@U?$pair@$$CBJPAVCResource@@@std@@PAX@std@@@std@@@std@@QAE@AAV?$allocator@U?$_Tree_node@U?$pair@$$CBJPAVCResource@@@std@@PAX@std@@@1@PAU?$_Tree_node@U?$pair@$$CBJPAVCResource@@@std@@PAX@1@$$QAU?$pair@$$CBJPAVCResource@@@1@@Z$1
__ehfuncinfo$??$?0U?$pair@$$CBJPAVCResource@@@std@@@?$_Tree_temp_node@V?$allocator@U?$_Tree_node@U?$pair@$$CBJPAVCResource@@@std@@PAX@std@@@std@@@std@@QAE@AAV?$allocator@U?$_Tree_node@U?$pair@$$CBJPAVCResource@@@std@@PAX@std@@@1@PAU?$_Tree_node@U?$pair@$$CBJPAVCResource@@@std@@PAX@1@$$QAU?$pair@$$CBJPAVCResource@@@1@@Z DD 019930522H
	DD	01H
	DD	FLAT:__unwindtable$??$?0U?$pair@$$CBJPAVCResource@@@std@@@?$_Tree_temp_node@V?$allocator@U?$_Tree_node@U?$pair@$$CBJPAVCResource@@@std@@PAX@std@@@std@@@std@@QAE@AAV?$allocator@U?$_Tree_node@U?$pair@$$CBJPAVCResource@@@std@@PAX@std@@@1@PAU?$_Tree_node@U?$pair@$$CBJPAVCResource@@@std@@PAX@1@$$QAU?$pair@$$CBJPAVCResource@@@1@@Z
	DD	2 DUP(00H)
	DD	2 DUP(00H)
	DD	00H
	DD	01H
xdata$x	ENDS
;	COMDAT xdata$x
xdata$x	SEGMENT
__unwindtable$??0?$_Tree_temp_node_alloc@V?$allocator@U?$_Tree_node@U?$pair@$$CBJPAVCResource@@@std@@PAX@std@@@std@@@std@@QAE@AAV?$allocator@U?$_Tree_node@U?$pair@$$CBJPAVCResource@@@std@@PAX@std@@@1@@Z DD 0ffffffffH
	DD	FLAT:__unwindfunclet$??0?$_Tree_temp_node_alloc@V?$allocator@U?$_Tree_node@U?$pair@$$CBJPAVCResource@@@std@@PAX@std@@@std@@@std@@QAE@AAV?$allocator@U?$_Tree_node@U?$pair@$$CBJPAVCResource@@@std@@PAX@std@@@1@@Z$0
__ehfuncinfo$??0?$_Tree_temp_node_alloc@V?$allocator@U?$_Tree_node@U?$pair@$$CBJPAVCResource@@@std@@PAX@std@@@std@@@std@@QAE@AAV?$allocator@U?$_Tree_node@U?$pair@$$CBJPAVCResource@@@std@@PAX@std@@@1@@Z DD 019930522H
	DD	01H
	DD	FLAT:__unwindtable$??0?$_Tree_temp_node_alloc@V?$allocator@U?$_Tree_node@U?$pair@$$CBJPAVCResource@@@std@@PAX@std@@@std@@@std@@QAE@AAV?$allocator@U?$_Tree_node@U?$pair@$$CBJPAVCResource@@@std@@PAX@std@@@1@@Z
	DD	2 DUP(00H)
	DD	2 DUP(00H)
	DD	00H
	DD	01H
xdata$x	ENDS
;	COMDAT xdata$x
xdata$x	SEGMENT
__unwindtable$??$?0U?$pair@$$CBKV?$basic_string@DU?$char_traits@D@std@@V?$allocator@D@2@@std@@@std@@@?$_Tree_temp_node@V?$allocator@U?$_Tree_node@U?$pair@$$CBKV?$basic_string@DU?$char_traits@D@std@@V?$allocator@D@2@@std@@@std@@PAX@std@@@std@@@std@@QAE@AAV?$allocator@U?$_Tree_node@U?$pair@$$CBKV?$basic_string@DU?$char_traits@D@std@@V?$allocator@D@2@@std@@@std@@PAX@std@@@1@PAU?$_Tree_node@U?$pair@$$CBKV?$basic_string@DU?$char_traits@D@std@@V?$allocator@D@2@@std@@@std@@PAX@1@$$QAU?$pair@$$CBKV?$basic_string@DU?$char_traits@D@std@@V?$allocator@D@2@@std@@@1@@Z DD 0ffffffffH
	DD	FLAT:__unwindfunclet$??$?0U?$pair@$$CBKV?$basic_string@DU?$char_traits@D@std@@V?$allocator@D@2@@std@@@std@@@?$_Tree_temp_node@V?$allocator@U?$_Tree_node@U?$pair@$$CBKV?$basic_string@DU?$char_traits@D@std@@V?$allocator@D@2@@std@@@std@@PAX@std@@@std@@@std@@QAE@AAV?$allocator@U?$_Tree_node@U?$pair@$$CBKV?$basic_string@DU?$char_traits@D@std@@V?$allocator@D@2@@std@@@std@@PAX@std@@@1@PAU?$_Tree_node@U?$pair@$$CBKV?$basic_string@DU?$char_traits@D@std@@V?$allocator@D@2@@std@@@std@@PAX@1@$$QAU?$pair@$$CBKV?$basic_string@DU?$char_traits@D@std@@V?$allocator@D@2@@std@@@1@@Z$1
__ehfuncinfo$??$?0U?$pair@$$CBKV?$basic_string@DU?$char_traits@D@std@@V?$allocator@D@2@@std@@@std@@@?$_Tree_temp_node@V?$allocator@U?$_Tree_node@U?$pair@$$CBKV?$basic_string@DU?$char_traits@D@std@@V?$allocator@D@2@@std@@@std@@PAX@std@@@std@@@std@@QAE@AAV?$allocator@U?$_Tree_node@U?$pair@$$CBKV?$basic_string@DU?$char_traits@D@std@@V?$allocator@D@2@@std@@@std@@PAX@std@@@1@PAU?$_Tree_node@U?$pair@$$CBKV?$basic_string@DU?$char_traits@D@std@@V?$allocator@D@2@@std@@@std@@PAX@1@$$QAU?$pair@$$CBKV?$basic_string@DU?$char_traits@D@std@@V?$allocator@D@2@@std@@@1@@Z DD 019930522H
	DD	01H
	DD	FLAT:__unwindtable$??$?0U?$pair@$$CBKV?$basic_string@DU?$char_traits@D@std@@V?$allocator@D@2@@std@@@std@@@?$_Tree_temp_node@V?$allocator@U?$_Tree_node@U?$pair@$$CBKV?$basic_string@DU?$char_traits@D@std@@V?$allocator@D@2@@std@@@std@@PAX@std@@@std@@@std@@QAE@AAV?$allocator@U?$_Tree_node@U?$pair@$$CBKV?$basic_string@DU?$char_traits@D@std@@V?$allocator@D@2@@std@@@std@@PAX@std@@@1@PAU?$_Tree_node@U?$pair@$$CBKV?$basic_string@DU?$char_traits@D@std@@V?$allocator@D@2@@std@@@std@@PAX@1@$$QAU?$pair@$$CBKV?$basic_string@DU?$char_traits@D@std@@V?$allocator@D@2@@std@@@1@@Z
	DD	2 DUP(00H)
	DD	2 DUP(00H)
	DD	00H
	DD	01H
xdata$x	ENDS
;	COMDAT xdata$x
xdata$x	SEGMENT
__unwindtable$??0?$_Tree_temp_node_alloc@V?$allocator@U?$_Tree_node@U?$pair@$$CBKV?$basic_string@DU?$char_traits@D@std@@V?$allocator@D@2@@std@@@std@@PAX@std@@@std@@@std@@QAE@AAV?$allocator@U?$_Tree_node@U?$pair@$$CBKV?$basic_string@DU?$char_traits@D@std@@V?$allocator@D@2@@std@@@std@@PAX@std@@@1@@Z DD 0ffffffffH
	DD	FLAT:__unwindfunclet$??0?$_Tree_temp_node_alloc@V?$allocator@U?$_Tree_node@U?$pair@$$CBKV?$basic_string@DU?$char_traits@D@std@@V?$allocator@D@2@@std@@@std@@PAX@std@@@std@@@std@@QAE@AAV?$allocator@U?$_Tree_node@U?$pair@$$CBKV?$basic_string@DU?$char_traits@D@std@@V?$allocator@D@2@@std@@@std@@PAX@std@@@1@@Z$0
__ehfuncinfo$??0?$_Tree_temp_node_alloc@V?$allocator@U?$_Tree_node@U?$pair@$$CBKV?$basic_string@DU?$char_traits@D@std@@V?$allocator@D@2@@std@@@std@@PAX@std@@@std@@@std@@QAE@AAV?$allocator@U?$_Tree_node@U?$pair@$$CBKV?$basic_string@DU?$char_traits@D@std@@V?$allocator@D@2@@std@@@std@@PAX@std@@@1@@Z DD 019930522H
	DD	01H
	DD	FLAT:__unwindtable$??0?$_Tree_temp_node_alloc@V?$allocator@U?$_Tree_node@U?$pair@$$CBKV?$basic_string@DU?$char_traits@D@std@@V?$allocator@D@2@@std@@@std@@PAX@std@@@std@@@std@@QAE@AAV?$allocator@U?$_Tree_node@U?$pair@$$CBKV?$basic_string@DU?$char_traits@D@std@@V?$allocator@D@2@@std@@@std@@PAX@std@@@1@@Z
	DD	2 DUP(00H)
	DD	2 DUP(00H)
	DD	00H
	DD	01H
xdata$x	ENDS
;	COMDAT xdata$x
xdata$x	SEGMENT
__unwindtable$??$?0AAKAAPAVCResource@@@?$_Tree_temp_node@V?$allocator@U?$_Tree_node@U?$pair@$$CBKPAVCResource@@@std@@PAX@std@@@std@@@std@@QAE@AAV?$allocator@U?$_Tree_node@U?$pair@$$CBKPAVCResource@@@std@@PAX@std@@@1@PAU?$_Tree_node@U?$pair@$$CBKPAVCResource@@@std@@PAX@1@AAKAAPAVCResource@@@Z DD 0ffffffffH
	DD	FLAT:__unwindfunclet$??$?0AAKAAPAVCResource@@@?$_Tree_temp_node@V?$allocator@U?$_Tree_node@U?$pair@$$CBKPAVCResource@@@std@@PAX@std@@@std@@@std@@QAE@AAV?$allocator@U?$_Tree_node@U?$pair@$$CBKPAVCResource@@@std@@PAX@std@@@1@PAU?$_Tree_node@U?$pair@$$CBKPAVCResource@@@std@@PAX@1@AAKAAPAVCResource@@@Z$1
__ehfuncinfo$??$?0AAKAAPAVCResource@@@?$_Tree_temp_node@V?$allocator@U?$_Tree_node@U?$pair@$$CBKPAVCResource@@@std@@PAX@std@@@std@@@std@@QAE@AAV?$allocator@U?$_Tree_node@U?$pair@$$CBKPAVCResource@@@std@@PAX@std@@@1@PAU?$_Tree_node@U?$pair@$$CBKPAVCResource@@@std@@PAX@1@AAKAAPAVCResource@@@Z DD 019930522H
	DD	01H
	DD	FLAT:__unwindtable$??$?0AAKAAPAVCResource@@@?$_Tree_temp_node@V?$allocator@U?$_Tree_node@U?$pair@$$CBKPAVCResource@@@std@@PAX@std@@@std@@@std@@QAE@AAV?$allocator@U?$_Tree_node@U?$pair@$$CBKPAVCResource@@@std@@PAX@std@@@1@PAU?$_Tree_node@U?$pair@$$CBKPAVCResource@@@std@@PAX@1@AAKAAPAVCResource@@@Z
	DD	2 DUP(00H)
	DD	2 DUP(00H)
	DD	00H
	DD	01H
xdata$x	ENDS
;	COMDAT xdata$x
xdata$x	SEGMENT
__unwindtable$??0?$_Tree_temp_node_alloc@V?$allocator@U?$_Tree_node@U?$pair@$$CBKPAVCResource@@@std@@PAX@std@@@std@@@std@@QAE@AAV?$allocator@U?$_Tree_node@U?$pair@$$CBKPAVCResource@@@std@@PAX@std@@@1@@Z DD 0ffffffffH
	DD	FLAT:__unwindfunclet$??0?$_Tree_temp_node_alloc@V?$allocator@U?$_Tree_node@U?$pair@$$CBKPAVCResource@@@std@@PAX@std@@@std@@@std@@QAE@AAV?$allocator@U?$_Tree_node@U?$pair@$$CBKPAVCResource@@@std@@PAX@std@@@1@@Z$0
__ehfuncinfo$??0?$_Tree_temp_node_alloc@V?$allocator@U?$_Tree_node@U?$pair@$$CBKPAVCResource@@@std@@PAX@std@@@std@@@std@@QAE@AAV?$allocator@U?$_Tree_node@U?$pair@$$CBKPAVCResource@@@std@@PAX@std@@@1@@Z DD 019930522H
	DD	01H
	DD	FLAT:__unwindtable$??0?$_Tree_temp_node_alloc@V?$allocator@U?$_Tree_node@U?$pair@$$CBKPAVCResource@@@std@@PAX@std@@@std@@@std@@QAE@AAV?$allocator@U?$_Tree_node@U?$pair@$$CBKPAVCResource@@@std@@PAX@std@@@1@@Z
	DD	2 DUP(00H)
	DD	2 DUP(00H)
	DD	00H
	DD	01H
xdata$x	ENDS
;	COMDAT xdata$x
xdata$x	SEGMENT
__unwindtable$??$?0ABUpiecewise_construct_t@std@@V?$tuple@$$QAV?$basic_string@DU?$char_traits@D@std@@V?$allocator@D@2@@std@@@1@V?$tuple@$$V@1@@?$_Tree_temp_node@V?$allocator@U?$_Tree_node@U?$pair@$$CBV?$basic_string@DU?$char_traits@D@std@@V?$allocator@D@2@@std@@P6APAVCResource@@PBD@Z@std@@PAX@std@@@std@@@std@@QAE@AAV?$allocator@U?$_Tree_node@U?$pair@$$CBV?$basic_string@DU?$char_traits@D@std@@V?$allocator@D@2@@std@@P6APAVCResource@@PBD@Z@std@@PAX@std@@@1@PAU?$_Tree_node@U?$pair@$$CBV?$basic_string@DU?$char_traits@D@std@@V?$allocator@D@2@@std@@P6APAVCResource@@PBD@Z@std@@PAX@1@ABUpiecewise_construct_t@1@$$QAV?$tuple@$$QAV?$basic_string@DU?$char_traits@D@std@@V?$allocator@D@2@@std@@@1@$$QAV?$tuple@$$V@1@@Z DD 0ffffffffH
	DD	FLAT:__unwindfunclet$??$?0ABUpiecewise_construct_t@std@@V?$tuple@$$QAV?$basic_string@DU?$char_traits@D@std@@V?$allocator@D@2@@std@@@1@V?$tuple@$$V@1@@?$_Tree_temp_node@V?$allocator@U?$_Tree_node@U?$pair@$$CBV?$basic_string@DU?$char_traits@D@std@@V?$allocator@D@2@@std@@P6APAVCResource@@PBD@Z@std@@PAX@std@@@std@@@std@@QAE@AAV?$allocator@U?$_Tree_node@U?$pair@$$CBV?$basic_string@DU?$char_traits@D@std@@V?$allocator@D@2@@std@@P6APAVCResource@@PBD@Z@std@@PAX@std@@@1@PAU?$_Tree_node@U?$pair@$$CBV?$basic_string@DU?$char_traits@D@std@@V?$allocator@D@2@@std@@P6APAVCResource@@PBD@Z@std@@PAX@1@ABUpiecewise_construct_t@1@$$QAV?$tuple@$$QAV?$basic_string@DU?$char_traits@D@std@@V?$allocator@D@2@@std@@@1@$$QAV?$tuple@$$V@1@@Z$1
__ehfuncinfo$??$?0ABUpiecewise_construct_t@std@@V?$tuple@$$QAV?$basic_string@DU?$char_traits@D@std@@V?$allocator@D@2@@std@@@1@V?$tuple@$$V@1@@?$_Tree_temp_node@V?$allocator@U?$_Tree_node@U?$pair@$$CBV?$basic_string@DU?$char_traits@D@std@@V?$allocator@D@2@@std@@P6APAVCResource@@PBD@Z@std@@PAX@std@@@std@@@std@@QAE@AAV?$allocator@U?$_Tree_node@U?$pair@$$CBV?$basic_string@DU?$char_traits@D@std@@V?$allocator@D@2@@std@@P6APAVCResource@@PBD@Z@std@@PAX@std@@@1@PAU?$_Tree_node@U?$pair@$$CBV?$basic_string@DU?$char_traits@D@std@@V?$allocator@D@2@@std@@P6APAVCResource@@PBD@Z@std@@PAX@1@ABUpiecewise_construct_t@1@$$QAV?$tuple@$$QAV?$basic_string@DU?$char_traits@D@std@@V?$allocator@D@2@@std@@@1@$$QAV?$tuple@$$V@1@@Z DD 019930522H
	DD	01H
	DD	FLAT:__unwindtable$??$?0ABUpiecewise_construct_t@std@@V?$tuple@$$QAV?$basic_string@DU?$char_traits@D@std@@V?$allocator@D@2@@std@@@1@V?$tuple@$$V@1@@?$_Tree_temp_node@V?$allocator@U?$_Tree_node@U?$pair@$$CBV?$basic_string@DU?$char_traits@D@std@@V?$allocator@D@2@@std@@P6APAVCResource@@PBD@Z@std@@PAX@std@@@std@@@std@@QAE@AAV?$allocator@U?$_Tree_node@U?$pair@$$CBV?$basic_string@DU?$char_traits@D@std@@V?$allocator@D@2@@std@@P6APAVCResource@@PBD@Z@std@@PAX@std@@@1@PAU?$_Tree_node@U?$pair@$$CBV?$basic_string@DU?$char_traits@D@std@@V?$allocator@D@2@@std@@P6APAVCResource@@PBD@Z@std@@PAX@1@ABUpiecewise_construct_t@1@$$QAV?$tuple@$$QAV?$basic_string@DU?$char_traits@D@std@@V?$allocator@D@2@@std@@@1@$$QAV?$tuple@$$V@1@@Z
	DD	2 DUP(00H)
	DD	2 DUP(00H)
	DD	00H
	DD	01H
xdata$x	ENDS
;	COMDAT xdata$x
xdata$x	SEGMENT
__unwindtable$??0?$_Tree_temp_node_alloc@V?$allocator@U?$_Tree_node@U?$pair@$$CBV?$basic_string@DU?$char_traits@D@std@@V?$allocator@D@2@@std@@P6APAVCResource@@PBD@Z@std@@PAX@std@@@std@@@std@@QAE@AAV?$allocator@U?$_Tree_node@U?$pair@$$CBV?$basic_string@DU?$char_traits@D@std@@V?$allocator@D@2@@std@@P6APAVCResource@@PBD@Z@std@@PAX@std@@@1@@Z DD 0ffffffffH
	DD	FLAT:__unwindfunclet$??0?$_Tree_temp_node_alloc@V?$allocator@U?$_Tree_node@U?$pair@$$CBV?$basic_string@DU?$char_traits@D@std@@V?$allocator@D@2@@std@@P6APAVCResource@@PBD@Z@std@@PAX@std@@@std@@@std@@QAE@AAV?$allocator@U?$_Tree_node@U?$pair@$$CBV?$basic_string@DU?$char_traits@D@std@@V?$allocator@D@2@@std@@P6APAVCResource@@PBD@Z@std@@PAX@std@@@1@@Z$0
__ehfuncinfo$??0?$_Tree_temp_node_alloc@V?$allocator@U?$_Tree_node@U?$pair@$$CBV?$basic_string@DU?$char_traits@D@std@@V?$allocator@D@2@@std@@P6APAVCResource@@PBD@Z@std@@PAX@std@@@std@@@std@@QAE@AAV?$allocator@U?$_Tree_node@U?$pair@$$CBV?$basic_string@DU?$char_traits@D@std@@V?$allocator@D@2@@std@@P6APAVCResource@@PBD@Z@std@@PAX@std@@@1@@Z DD 019930522H
	DD	01H
	DD	FLAT:__unwindtable$??0?$_Tree_temp_node_alloc@V?$allocator@U?$_Tree_node@U?$pair@$$CBV?$basic_string@DU?$char_traits@D@std@@V?$allocator@D@2@@std@@P6APAVCResource@@PBD@Z@std@@PAX@std@@@std@@@std@@QAE@AAV?$allocator@U?$_Tree_node@U?$pair@$$CBV?$basic_string@DU?$char_traits@D@std@@V?$allocator@D@2@@std@@P6APAVCResource@@PBD@Z@std@@PAX@std@@@1@@Z
	DD	2 DUP(00H)
	DD	2 DUP(00H)
	DD	00H
	DD	01H
xdata$x	ENDS
;	COMDAT xdata$x
xdata$x	SEGMENT
__unwindtable$??$?0ABUpiecewise_construct_t@std@@V?$tuple@ABH@1@V?$tuple@$$V@1@@?$_Tree_temp_node@V?$allocator@U?$_Tree_node@U?$pair@$$CBHP6APAVCResource@@PBD@Z@std@@PAX@std@@@std@@@std@@QAE@AAV?$allocator@U?$_Tree_node@U?$pair@$$CBHP6APAVCResource@@PBD@Z@std@@PAX@std@@@1@PAU?$_Tree_node@U?$pair@$$CBHP6APAVCResource@@PBD@Z@std@@PAX@1@ABUpiecewise_construct_t@1@$$QAV?$tuple@ABH@1@$$QAV?$tuple@$$V@1@@Z DD 0ffffffffH
	DD	FLAT:__unwindfunclet$??$?0ABUpiecewise_construct_t@std@@V?$tuple@ABH@1@V?$tuple@$$V@1@@?$_Tree_temp_node@V?$allocator@U?$_Tree_node@U?$pair@$$CBHP6APAVCResource@@PBD@Z@std@@PAX@std@@@std@@@std@@QAE@AAV?$allocator@U?$_Tree_node@U?$pair@$$CBHP6APAVCResource@@PBD@Z@std@@PAX@std@@@1@PAU?$_Tree_node@U?$pair@$$CBHP6APAVCResource@@PBD@Z@std@@PAX@1@ABUpiecewise_construct_t@1@$$QAV?$tuple@ABH@1@$$QAV?$tuple@$$V@1@@Z$1
__ehfuncinfo$??$?0ABUpiecewise_construct_t@std@@V?$tuple@ABH@1@V?$tuple@$$V@1@@?$_Tree_temp_node@V?$allocator@U?$_Tree_node@U?$pair@$$CBHP6APAVCResource@@PBD@Z@std@@PAX@std@@@std@@@std@@QAE@AAV?$allocator@U?$_Tree_node@U?$pair@$$CBHP6APAVCResource@@PBD@Z@std@@PAX@std@@@1@PAU?$_Tree_node@U?$pair@$$CBHP6APAVCResource@@PBD@Z@std@@PAX@1@ABUpiecewise_construct_t@1@$$QAV?$tuple@ABH@1@$$QAV?$tuple@$$V@1@@Z DD 019930522H
	DD	01H
	DD	FLAT:__unwindtable$??$?0ABUpiecewise_construct_t@std@@V?$tuple@ABH@1@V?$tuple@$$V@1@@?$_Tree_temp_node@V?$allocator@U?$_Tree_node@U?$pair@$$CBHP6APAVCResource@@PBD@Z@std@@PAX@std@@@std@@@std@@QAE@AAV?$allocator@U?$_Tree_node@U?$pair@$$CBHP6APAVCResource@@PBD@Z@std@@PAX@std@@@1@PAU?$_Tree_node@U?$pair@$$CBHP6APAVCResource@@PBD@Z@std@@PAX@1@ABUpiecewise_construct_t@1@$$QAV?$tuple@ABH@1@$$QAV?$tuple@$$V@1@@Z
	DD	2 DUP(00H)
	DD	2 DUP(00H)
	DD	00H
	DD	01H
xdata$x	ENDS
;	COMDAT xdata$x
xdata$x	SEGMENT
__unwindtable$??0?$_Tree_temp_node_alloc@V?$allocator@U?$_Tree_node@U?$pair@$$CBHP6APAVCResource@@PBD@Z@std@@PAX@std@@@std@@@std@@QAE@AAV?$allocator@U?$_Tree_node@U?$pair@$$CBHP6APAVCResource@@PBD@Z@std@@PAX@std@@@1@@Z DD 0ffffffffH
	DD	FLAT:__unwindfunclet$??0?$_Tree_temp_node_alloc@V?$allocator@U?$_Tree_node@U?$pair@$$CBHP6APAVCResource@@PBD@Z@std@@PAX@std@@@std@@@std@@QAE@AAV?$allocator@U?$_Tree_node@U?$pair@$$CBHP6APAVCResource@@PBD@Z@std@@PAX@std@@@1@@Z$0
__ehfuncinfo$??0?$_Tree_temp_node_alloc@V?$allocator@U?$_Tree_node@U?$pair@$$CBHP6APAVCResource@@PBD@Z@std@@PAX@std@@@std@@@std@@QAE@AAV?$allocator@U?$_Tree_node@U?$pair@$$CBHP6APAVCResource@@PBD@Z@std@@PAX@std@@@1@@Z DD 019930522H
	DD	01H
	DD	FLAT:__unwindtable$??0?$_Tree_temp_node_alloc@V?$allocator@U?$_Tree_node@U?$pair@$$CBHP6APAVCResource@@PBD@Z@std@@PAX@std@@@std@@@std@@QAE@AAV?$allocator@U?$_Tree_node@U?$pair@$$CBHP6APAVCResource@@PBD@Z@std@@PAX@std@@@1@@Z
	DD	2 DUP(00H)
	DD	2 DUP(00H)
	DD	00H
	DD	01H
xdata$x	ENDS
;	COMDAT xdata$x
xdata$x	SEGMENT
__unwindtable$??$_Emplace@U?$pair@QAVCResource@@K@std@@@?$_Tree@V?$_Tmap_traits@PAVCResource@@KU?$less@PAVCResource@@@std@@V?$allocator@U?$pair@QAVCResource@@K@std@@@3@$0A@@std@@@std@@IAE?AU?$pair@PAU?$_Tree_node@U?$pair@QAVCResource@@K@std@@PAX@std@@_N@1@$$QAU?$pair@QAVCResource@@K@1@@Z DD 0ffffffffH
	DD	FLAT:__unwindfunclet$??$_Emplace@U?$pair@QAVCResource@@K@std@@@?$_Tree@V?$_Tmap_traits@PAVCResource@@KU?$less@PAVCResource@@@std@@V?$allocator@U?$pair@QAVCResource@@K@std@@@3@$0A@@std@@@std@@IAE?AU?$pair@PAU?$_Tree_node@U?$pair@QAVCResource@@K@std@@PAX@std@@_N@1@$$QAU?$pair@QAVCResource@@K@1@@Z$2
__ehfuncinfo$??$_Emplace@U?$pair@QAVCResource@@K@std@@@?$_Tree@V?$_Tmap_traits@PAVCResource@@KU?$less@PAVCResource@@@std@@V?$allocator@U?$pair@QAVCResource@@K@std@@@3@$0A@@std@@@std@@IAE?AU?$pair@PAU?$_Tree_node@U?$pair@QAVCResource@@K@std@@PAX@std@@_N@1@$$QAU?$pair@QAVCResource@@K@1@@Z DD 019930522H
	DD	01H
	DD	FLAT:__unwindtable$??$_Emplace@U?$pair@QAVCResource@@K@std@@@?$_Tree@V?$_Tmap_traits@PAVCResource@@KU?$less@PAVCResource@@@std@@V?$allocator@U?$pair@QAVCResource@@K@std@@@3@$0A@@std@@@std@@IAE?AU?$pair@PAU?$_Tree_node@U?$pair@QAVCResource@@K@std@@PAX@std@@_N@1@$$QAU?$pair@QAVCResource@@K@1@@Z
	DD	2 DUP(00H)
	DD	2 DUP(00H)
	DD	00H
	DD	01H
xdata$x	ENDS
;	COMDAT xdata$x
xdata$x	SEGMENT
__unwindtable$??$_Emplace@U?$pair@$$CBKPAVCResource@@@std@@@?$_Tree@V?$_Tmap_traits@KPAVCResource@@U?$less@K@std@@V?$allocator@U?$pair@$$CBKPAVCResource@@@std@@@3@$0A@@std@@@std@@IAE?AU?$pair@PAU?$_Tree_node@U?$pair@$$CBKPAVCResource@@@std@@PAX@std@@_N@1@$$QAU?$pair@$$CBKPAVCResource@@@1@@Z DD 0ffffffffH
	DD	FLAT:__unwindfunclet$??$_Emplace@U?$pair@$$CBKPAVCResource@@@std@@@?$_Tree@V?$_Tmap_traits@KPAVCResource@@U?$less@K@std@@V?$allocator@U?$pair@$$CBKPAVCResource@@@std@@@3@$0A@@std@@@std@@IAE?AU?$pair@PAU?$_Tree_node@U?$pair@$$CBKPAVCResource@@@std@@PAX@std@@_N@1@$$QAU?$pair@$$CBKPAVCResource@@@1@@Z$2
__ehfuncinfo$??$_Emplace@U?$pair@$$CBKPAVCResource@@@std@@@?$_Tree@V?$_Tmap_traits@KPAVCResource@@U?$less@K@std@@V?$allocator@U?$pair@$$CBKPAVCResource@@@std@@@3@$0A@@std@@@std@@IAE?AU?$pair@PAU?$_Tree_node@U?$pair@$$CBKPAVCResource@@@std@@PAX@std@@_N@1@$$QAU?$pair@$$CBKPAVCResource@@@1@@Z DD 019930522H
	DD	01H
	DD	FLAT:__unwindtable$??$_Emplace@U?$pair@$$CBKPAVCResource@@@std@@@?$_Tree@V?$_Tmap_traits@KPAVCResource@@U?$less@K@std@@V?$allocator@U?$pair@$$CBKPAVCResource@@@std@@@3@$0A@@std@@@std@@IAE?AU?$pair@PAU?$_Tree_node@U?$pair@$$CBKPAVCResource@@@std@@PAX@std@@_N@1@$$QAU?$pair@$$CBKPAVCResource@@@1@@Z
	DD	2 DUP(00H)
	DD	2 DUP(00H)
	DD	00H
	DD	01H
xdata$x	ENDS
;	COMDAT xdata$x
xdata$x	SEGMENT
__unwindtable$??$_Emplace@U?$pair@$$CBJPAVCResource@@@std@@@?$_Tree@V?$_Tmap_traits@JPAVCResource@@U?$less@J@std@@V?$allocator@U?$pair@$$CBJPAVCResource@@@std@@@3@$0A@@std@@@std@@IAE?AU?$pair@PAU?$_Tree_node@U?$pair@$$CBJPAVCResource@@@std@@PAX@std@@_N@1@$$QAU?$pair@$$CBJPAVCResource@@@1@@Z DD 0ffffffffH
	DD	FLAT:__unwindfunclet$??$_Emplace@U?$pair@$$CBJPAVCResource@@@std@@@?$_Tree@V?$_Tmap_traits@JPAVCResource@@U?$less@J@std@@V?$allocator@U?$pair@$$CBJPAVCResource@@@std@@@3@$0A@@std@@@std@@IAE?AU?$pair@PAU?$_Tree_node@U?$pair@$$CBJPAVCResource@@@std@@PAX@std@@_N@1@$$QAU?$pair@$$CBJPAVCResource@@@1@@Z$2
__ehfuncinfo$??$_Emplace@U?$pair@$$CBJPAVCResource@@@std@@@?$_Tree@V?$_Tmap_traits@JPAVCResource@@U?$less@J@std@@V?$allocator@U?$pair@$$CBJPAVCResource@@@std@@@3@$0A@@std@@@std@@IAE?AU?$pair@PAU?$_Tree_node@U?$pair@$$CBJPAVCResource@@@std@@PAX@std@@_N@1@$$QAU?$pair@$$CBJPAVCResource@@@1@@Z DD 019930522H
	DD	01H
	DD	FLAT:__unwindtable$??$_Emplace@U?$pair@$$CBJPAVCResource@@@std@@@?$_Tree@V?$_Tmap_traits@JPAVCResource@@U?$less@J@std@@V?$allocator@U?$pair@$$CBJPAVCResource@@@std@@@3@$0A@@std@@@std@@IAE?AU?$pair@PAU?$_Tree_node@U?$pair@$$CBJPAVCResource@@@std@@PAX@std@@_N@1@$$QAU?$pair@$$CBJPAVCResource@@@1@@Z
	DD	2 DUP(00H)
	DD	2 DUP(00H)
	DD	00H
	DD	01H
xdata$x	ENDS
;	COMDAT xdata$x
xdata$x	SEGMENT
__unwindtable$??$_Emplace@U?$pair@$$CBKV?$basic_string@DU?$char_traits@D@std@@V?$allocator@D@2@@std@@@std@@@?$_Tree@V?$_Tmap_traits@KV?$basic_string@DU?$char_traits@D@std@@V?$allocator@D@2@@std@@U?$less@K@2@V?$allocator@U?$pair@$$CBKV?$basic_string@DU?$char_traits@D@std@@V?$allocator@D@2@@std@@@std@@@2@$0A@@std@@@std@@IAE?AU?$pair@PAU?$_Tree_node@U?$pair@$$CBKV?$basic_string@DU?$char_traits@D@std@@V?$allocator@D@2@@std@@@std@@PAX@std@@_N@1@$$QAU?$pair@$$CBKV?$basic_string@DU?$char_traits@D@std@@V?$allocator@D@2@@std@@@1@@Z DD 0ffffffffH
	DD	FLAT:__unwindfunclet$??$_Emplace@U?$pair@$$CBKV?$basic_string@DU?$char_traits@D@std@@V?$allocator@D@2@@std@@@std@@@?$_Tree@V?$_Tmap_traits@KV?$basic_string@DU?$char_traits@D@std@@V?$allocator@D@2@@std@@U?$less@K@2@V?$allocator@U?$pair@$$CBKV?$basic_string@DU?$char_traits@D@std@@V?$allocator@D@2@@std@@@std@@@2@$0A@@std@@@std@@IAE?AU?$pair@PAU?$_Tree_node@U?$pair@$$CBKV?$basic_string@DU?$char_traits@D@std@@V?$allocator@D@2@@std@@@std@@PAX@std@@_N@1@$$QAU?$pair@$$CBKV?$basic_string@DU?$char_traits@D@std@@V?$allocator@D@2@@std@@@1@@Z$2
__ehfuncinfo$??$_Emplace@U?$pair@$$CBKV?$basic_string@DU?$char_traits@D@std@@V?$allocator@D@2@@std@@@std@@@?$_Tree@V?$_Tmap_traits@KV?$basic_string@DU?$char_traits@D@std@@V?$allocator@D@2@@std@@U?$less@K@2@V?$allocator@U?$pair@$$CBKV?$basic_string@DU?$char_traits@D@std@@V?$allocator@D@2@@std@@@std@@@2@$0A@@std@@@std@@IAE?AU?$pair@PAU?$_Tree_node@U?$pair@$$CBKV?$basic_string@DU?$char_traits@D@std@@V?$allocator@D@2@@std@@@std@@PAX@std@@_N@1@$$QAU?$pair@$$CBKV?$basic_string@DU?$char_traits@D@std@@V?$allocator@D@2@@std@@@1@@Z DD 019930522H
	DD	01H
	DD	FLAT:__unwindtable$??$_Emplace@U?$pair@$$CBKV?$basic_string@DU?$char_traits@D@std@@V?$allocator@D@2@@std@@@std@@@?$_Tree@V?$_Tmap_traits@KV?$basic_string@DU?$char_traits@D@std@@V?$allocator@D@2@@std@@U?$less@K@2@V?$allocator@U?$pair@$$CBKV?$basic_string@DU?$char_traits@D@std@@V?$allocator@D@2@@std@@@std@@@2@$0A@@std@@@std@@IAE?AU?$pair@PAU?$_Tree_node@U?$pair@$$CBKV?$basic_string@DU?$char_traits@D@std@@V?$allocator@D@2@@std@@@std@@PAX@std@@_N@1@$$QAU?$pair@$$CBKV?$basic_string@DU?$char_traits@D@std@@V?$allocator@D@2@@std@@@1@@Z
	DD	2 DUP(00H)
	DD	2 DUP(00H)
	DD	00H
	DD	01H
xdata$x	ENDS
;	COMDAT xdata$x
xdata$x	SEGMENT
__unwindtable$??$_Emplace@AAKAAPAVCResource@@@?$_Tree@V?$_Tmap_traits@KPAVCResource@@U?$less@K@std@@V?$allocator@U?$pair@$$CBKPAVCResource@@@std@@@3@$0A@@std@@@std@@IAE?AU?$pair@PAU?$_Tree_node@U?$pair@$$CBKPAVCResource@@@std@@PAX@std@@_N@1@AAKAAPAVCResource@@@Z DD 0ffffffffH
	DD	FLAT:__unwindfunclet$??$_Emplace@AAKAAPAVCResource@@@?$_Tree@V?$_Tmap_traits@KPAVCResource@@U?$less@K@std@@V?$allocator@U?$pair@$$CBKPAVCResource@@@std@@@3@$0A@@std@@@std@@IAE?AU?$pair@PAU?$_Tree_node@U?$pair@$$CBKPAVCResource@@@std@@PAX@std@@_N@1@AAKAAPAVCResource@@@Z$2
__ehfuncinfo$??$_Emplace@AAKAAPAVCResource@@@?$_Tree@V?$_Tmap_traits@KPAVCResource@@U?$less@K@std@@V?$allocator@U?$pair@$$CBKPAVCResource@@@std@@@3@$0A@@std@@@std@@IAE?AU?$pair@PAU?$_Tree_node@U?$pair@$$CBKPAVCResource@@@std@@PAX@std@@_N@1@AAKAAPAVCResource@@@Z DD 019930522H
	DD	01H
	DD	FLAT:__unwindtable$??$_Emplace@AAKAAPAVCResource@@@?$_Tree@V?$_Tmap_traits@KPAVCResource@@U?$less@K@std@@V?$allocator@U?$pair@$$CBKPAVCResource@@@std@@@3@$0A@@std@@@std@@IAE?AU?$pair@PAU?$_Tree_node@U?$pair@$$CBKPAVCResource@@@std@@PAX@std@@_N@1@AAKAAPAVCResource@@@Z
	DD	2 DUP(00H)
	DD	2 DUP(00H)
	DD	00H
	DD	01H
xdata$x	ENDS
;	COMDAT xdata$x
xdata$x	SEGMENT
__unwindtable$??$_Try_emplace@V?$basic_string@DU?$char_traits@D@std@@V?$allocator@D@2@@std@@$$V@?$map@V?$basic_string@DU?$char_traits@D@std@@V?$allocator@D@2@@std@@P6APAVCResource@@PBD@ZU?$less@V?$basic_string@DU?$char_traits@D@std@@V?$allocator@D@2@@std@@@2@V?$allocator@U?$pair@$$CBV?$basic_string@DU?$char_traits@D@std@@V?$allocator@D@2@@std@@P6APAVCResource@@PBD@Z@std@@@2@@std@@AAE?AU?$pair@PAU?$_Tree_node@U?$pair@$$CBV?$basic_string@DU?$char_traits@D@std@@V?$allocator@D@2@@std@@P6APAVCResource@@PBD@Z@std@@PAX@std@@_N@1@$$QAV?$basic_string@DU?$char_traits@D@std@@V?$allocator@D@2@@1@@Z DD 0ffffffffH
	DD	FLAT:__unwindfunclet$??$_Try_emplace@V?$basic_string@DU?$char_traits@D@std@@V?$allocator@D@2@@std@@$$V@?$map@V?$basic_string@DU?$char_traits@D@std@@V?$allocator@D@2@@std@@P6APAVCResource@@PBD@ZU?$less@V?$basic_string@DU?$char_traits@D@std@@V?$allocator@D@2@@std@@@2@V?$allocator@U?$pair@$$CBV?$basic_string@DU?$char_traits@D@std@@V?$allocator@D@2@@std@@P6APAVCResource@@PBD@Z@std@@@2@@std@@AAE?AU?$pair@PAU?$_Tree_node@U?$pair@$$CBV?$basic_string@DU?$char_traits@D@std@@V?$allocator@D@2@@std@@P6APAVCResource@@PBD@Z@std@@PAX@std@@_N@1@$$QAV?$basic_string@DU?$char_traits@D@std@@V?$allocator@D@2@@1@@Z$2
__ehfuncinfo$??$_Try_emplace@V?$basic_string@DU?$char_traits@D@std@@V?$allocator@D@2@@std@@$$V@?$map@V?$basic_string@DU?$char_traits@D@std@@V?$allocator@D@2@@std@@P6APAVCResource@@PBD@ZU?$less@V?$basic_string@DU?$char_traits@D@std@@V?$allocator@D@2@@std@@@2@V?$allocator@U?$pair@$$CBV?$basic_string@DU?$char_traits@D@std@@V?$allocator@D@2@@std@@P6APAVCResource@@PBD@Z@std@@@2@@std@@AAE?AU?$pair@PAU?$_Tree_node@U?$pair@$$CBV?$basic_string@DU?$char_traits@D@std@@V?$allocator@D@2@@std@@P6APAVCResource@@PBD@Z@std@@PAX@std@@_N@1@$$QAV?$basic_string@DU?$char_traits@D@std@@V?$allocator@D@2@@1@@Z DD 019930522H
	DD	01H
	DD	FLAT:__unwindtable$??$_Try_emplace@V?$basic_string@DU?$char_traits@D@std@@V?$allocator@D@2@@std@@$$V@?$map@V?$basic_string@DU?$char_traits@D@std@@V?$allocator@D@2@@std@@P6APAVCResource@@PBD@ZU?$less@V?$basic_string@DU?$char_traits@D@std@@V?$allocator@D@2@@std@@@2@V?$allocator@U?$pair@$$CBV?$basic_string@DU?$char_traits@D@std@@V?$allocator@D@2@@std@@P6APAVCResource@@PBD@Z@std@@@2@@std@@AAE?AU?$pair@PAU?$_Tree_node@U?$pair@$$CBV?$basic_string@DU?$char_traits@D@std@@V?$allocator@D@2@@std@@P6APAVCResource@@PBD@Z@std@@PAX@std@@_N@1@$$QAV?$basic_string@DU?$char_traits@D@std@@V?$allocator@D@2@@1@@Z
	DD	2 DUP(00H)
	DD	2 DUP(00H)
	DD	00H
	DD	01H
xdata$x	ENDS
;	COMDAT xdata$x
xdata$x	SEGMENT
__unwindtable$??$_Try_emplace@ABH$$V@?$map@HP6APAVCResource@@PBD@ZU?$less@H@std@@V?$allocator@U?$pair@$$CBHP6APAVCResource@@PBD@Z@std@@@3@@std@@AAE?AU?$pair@PAU?$_Tree_node@U?$pair@$$CBHP6APAVCResource@@PBD@Z@std@@PAX@std@@_N@1@ABH@Z DD 0ffffffffH
	DD	FLAT:__unwindfunclet$??$_Try_emplace@ABH$$V@?$map@HP6APAVCResource@@PBD@ZU?$less@H@std@@V?$allocator@U?$pair@$$CBHP6APAVCResource@@PBD@Z@std@@@3@@std@@AAE?AU?$pair@PAU?$_Tree_node@U?$pair@$$CBHP6APAVCResource@@PBD@Z@std@@PAX@std@@_N@1@ABH@Z$2
__ehfuncinfo$??$_Try_emplace@ABH$$V@?$map@HP6APAVCResource@@PBD@ZU?$less@H@std@@V?$allocator@U?$pair@$$CBHP6APAVCResource@@PBD@Z@std@@@3@@std@@AAE?AU?$pair@PAU?$_Tree_node@U?$pair@$$CBHP6APAVCResource@@PBD@Z@std@@PAX@std@@_N@1@ABH@Z DD 019930522H
	DD	01H
	DD	FLAT:__unwindtable$??$_Try_emplace@ABH$$V@?$map@HP6APAVCResource@@PBD@ZU?$less@H@std@@V?$allocator@U?$pair@$$CBHP6APAVCResource@@PBD@Z@std@@@3@@std@@AAE?AU?$pair@PAU?$_Tree_node@U?$pair@$$CBHP6APAVCResource@@PBD@Z@std@@PAX@std@@_N@1@ABH@Z
	DD	2 DUP(00H)
	DD	2 DUP(00H)
	DD	00H
	DD	01H
xdata$x	ENDS
;	COMDAT xdata$x
xdata$x	SEGMENT
__unwindtable$??$insert@$0A@$0A@@?$_Tree@V?$_Tmap_traits@PAVCResource@@KU?$less@PAVCResource@@@std@@V?$allocator@U?$pair@QAVCResource@@K@std@@@3@$0A@@std@@@std@@QAE?AU?$pair@V?$_Tree_iterator@V?$_Tree_val@U?$_Tree_simple_types@U?$pair@QAVCResource@@K@std@@@std@@@std@@@std@@_N@1@$$QAU?$pair@QAVCResource@@K@1@@Z DD 0ffffffffH
	DD	FLAT:__unwindfunclet$??$insert@$0A@$0A@@?$_Tree@V?$_Tmap_traits@PAVCResource@@KU?$less@PAVCResource@@@std@@V?$allocator@U?$pair@QAVCResource@@K@std@@@3@$0A@@std@@@std@@QAE?AU?$pair@V?$_Tree_iterator@V?$_Tree_val@U?$_Tree_simple_types@U?$pair@QAVCResource@@K@std@@@std@@@std@@@std@@_N@1@$$QAU?$pair@QAVCResource@@K@1@@Z$2
__ehfuncinfo$??$insert@$0A@$0A@@?$_Tree@V?$_Tmap_traits@PAVCResource@@KU?$less@PAVCResource@@@std@@V?$allocator@U?$pair@QAVCResource@@K@std@@@3@$0A@@std@@@std@@QAE?AU?$pair@V?$_Tree_iterator@V?$_Tree_val@U?$_Tree_simple_types@U?$pair@QAVCResource@@K@std@@@std@@@std@@@std@@_N@1@$$QAU?$pair@QAVCResource@@K@1@@Z DD 019930522H
	DD	01H
	DD	FLAT:__unwindtable$??$insert@$0A@$0A@@?$_Tree@V?$_Tmap_traits@PAVCResource@@KU?$less@PAVCResource@@@std@@V?$allocator@U?$pair@QAVCResource@@K@std@@@3@$0A@@std@@@std@@QAE?AU?$pair@V?$_Tree_iterator@V?$_Tree_val@U?$_Tree_simple_types@U?$pair@QAVCResource@@K@std@@@std@@@std@@@std@@_N@1@$$QAU?$pair@QAVCResource@@K@1@@Z
	DD	2 DUP(00H)
	DD	2 DUP(00H)
	DD	00H
	DD	01H
xdata$x	ENDS
;	COMDAT xdata$x
xdata$x	SEGMENT
__unwindtable$??$insert@$0A@$0A@@?$_Tree@V?$_Tmap_traits@KPAVCResource@@U?$less@K@std@@V?$allocator@U?$pair@$$CBKPAVCResource@@@std@@@3@$0A@@std@@@std@@QAE?AU?$pair@V?$_Tree_iterator@V?$_Tree_val@U?$_Tree_simple_types@U?$pair@$$CBKPAVCResource@@@std@@@std@@@std@@@std@@_N@1@$$QAU?$pair@$$CBKPAVCResource@@@1@@Z DD 0ffffffffH
	DD	FLAT:__unwindfunclet$??$insert@$0A@$0A@@?$_Tree@V?$_Tmap_traits@KPAVCResource@@U?$less@K@std@@V?$allocator@U?$pair@$$CBKPAVCResource@@@std@@@3@$0A@@std@@@std@@QAE?AU?$pair@V?$_Tree_iterator@V?$_Tree_val@U?$_Tree_simple_types@U?$pair@$$CBKPAVCResource@@@std@@@std@@@std@@@std@@_N@1@$$QAU?$pair@$$CBKPAVCResource@@@1@@Z$2
__ehfuncinfo$??$insert@$0A@$0A@@?$_Tree@V?$_Tmap_traits@KPAVCResource@@U?$less@K@std@@V?$allocator@U?$pair@$$CBKPAVCResource@@@std@@@3@$0A@@std@@@std@@QAE?AU?$pair@V?$_Tree_iterator@V?$_Tree_val@U?$_Tree_simple_types@U?$pair@$$CBKPAVCResource@@@std@@@std@@@std@@@std@@_N@1@$$QAU?$pair@$$CBKPAVCResource@@@1@@Z DD 019930522H
	DD	01H
	DD	FLAT:__unwindtable$??$insert@$0A@$0A@@?$_Tree@V?$_Tmap_traits@KPAVCResource@@U?$less@K@std@@V?$allocator@U?$pair@$$CBKPAVCResource@@@std@@@3@$0A@@std@@@std@@QAE?AU?$pair@V?$_Tree_iterator@V?$_Tree_val@U?$_Tree_simple_types@U?$pair@$$CBKPAVCResource@@@std@@@std@@@std@@@std@@_N@1@$$QAU?$pair@$$CBKPAVCResource@@@1@@Z
	DD	2 DUP(00H)
	DD	2 DUP(00H)
	DD	00H
	DD	01H
xdata$x	ENDS
;	COMDAT xdata$x
xdata$x	SEGMENT
__unwindtable$??$insert@$0A@$0A@@?$_Tree@V?$_Tmap_traits@JPAVCResource@@U?$less@J@std@@V?$allocator@U?$pair@$$CBJPAVCResource@@@std@@@3@$0A@@std@@@std@@QAE?AU?$pair@V?$_Tree_iterator@V?$_Tree_val@U?$_Tree_simple_types@U?$pair@$$CBJPAVCResource@@@std@@@std@@@std@@@std@@_N@1@$$QAU?$pair@$$CBJPAVCResource@@@1@@Z DD 0ffffffffH
	DD	FLAT:__unwindfunclet$??$insert@$0A@$0A@@?$_Tree@V?$_Tmap_traits@JPAVCResource@@U?$less@J@std@@V?$allocator@U?$pair@$$CBJPAVCResource@@@std@@@3@$0A@@std@@@std@@QAE?AU?$pair@V?$_Tree_iterator@V?$_Tree_val@U?$_Tree_simple_types@U?$pair@$$CBJPAVCResource@@@std@@@std@@@std@@@std@@_N@1@$$QAU?$pair@$$CBJPAVCResource@@@1@@Z$2
__ehfuncinfo$??$insert@$0A@$0A@@?$_Tree@V?$_Tmap_traits@JPAVCResource@@U?$less@J@std@@V?$allocator@U?$pair@$$CBJPAVCResource@@@std@@@3@$0A@@std@@@std@@QAE?AU?$pair@V?$_Tree_iterator@V?$_Tree_val@U?$_Tree_simple_types@U?$pair@$$CBJPAVCResource@@@std@@@std@@@std@@@std@@_N@1@$$QAU?$pair@$$CBJPAVCResource@@@1@@Z DD 019930522H
	DD	01H
	DD	FLAT:__unwindtable$??$insert@$0A@$0A@@?$_Tree@V?$_Tmap_traits@JPAVCResource@@U?$less@J@std@@V?$allocator@U?$pair@$$CBJPAVCResource@@@std@@@3@$0A@@std@@@std@@QAE?AU?$pair@V?$_Tree_iterator@V?$_Tree_val@U?$_Tree_simple_types@U?$pair@$$CBJPAVCResource@@@std@@@std@@@std@@@std@@_N@1@$$QAU?$pair@$$CBJPAVCResource@@@1@@Z
	DD	2 DUP(00H)
	DD	2 DUP(00H)
	DD	00H
	DD	01H
xdata$x	ENDS
;	COMDAT xdata$x
xdata$x	SEGMENT
__unwindtable$??$insert@$0A@$0A@@?$_Tree@V?$_Tmap_traits@KV?$basic_string@DU?$char_traits@D@std@@V?$allocator@D@2@@std@@U?$less@K@2@V?$allocator@U?$pair@$$CBKV?$basic_string@DU?$char_traits@D@std@@V?$allocator@D@2@@std@@@std@@@2@$0A@@std@@@std@@QAE?AU?$pair@V?$_Tree_iterator@V?$_Tree_val@U?$_Tree_simple_types@U?$pair@$$CBKV?$basic_string@DU?$char_traits@D@std@@V?$allocator@D@2@@std@@@std@@@std@@@std@@@std@@_N@1@$$QAU?$pair@$$CBKV?$basic_string@DU?$char_traits@D@std@@V?$allocator@D@2@@std@@@1@@Z DD 0ffffffffH
	DD	FLAT:__unwindfunclet$??$insert@$0A@$0A@@?$_Tree@V?$_Tmap_traits@KV?$basic_string@DU?$char_traits@D@std@@V?$allocator@D@2@@std@@U?$less@K@2@V?$allocator@U?$pair@$$CBKV?$basic_string@DU?$char_traits@D@std@@V?$allocator@D@2@@std@@@std@@@2@$0A@@std@@@std@@QAE?AU?$pair@V?$_Tree_iterator@V?$_Tree_val@U?$_Tree_simple_types@U?$pair@$$CBKV?$basic_string@DU?$char_traits@D@std@@V?$allocator@D@2@@std@@@std@@@std@@@std@@@std@@_N@1@$$QAU?$pair@$$CBKV?$basic_string@DU?$char_traits@D@std@@V?$allocator@D@2@@std@@@1@@Z$2
__ehfuncinfo$??$insert@$0A@$0A@@?$_Tree@V?$_Tmap_traits@KV?$basic_string@DU?$char_traits@D@std@@V?$allocator@D@2@@std@@U?$less@K@2@V?$allocator@U?$pair@$$CBKV?$basic_string@DU?$char_traits@D@std@@V?$allocator@D@2@@std@@@std@@@2@$0A@@std@@@std@@QAE?AU?$pair@V?$_Tree_iterator@V?$_Tree_val@U?$_Tree_simple_types@U?$pair@$$CBKV?$basic_string@DU?$char_traits@D@std@@V?$allocator@D@2@@std@@@std@@@std@@@std@@@std@@_N@1@$$QAU?$pair@$$CBKV?$basic_string@DU?$char_traits@D@std@@V?$allocator@D@2@@std@@@1@@Z DD 019930522H
	DD	01H
	DD	FLAT:__unwindtable$??$insert@$0A@$0A@@?$_Tree@V?$_Tmap_traits@KV?$basic_string@DU?$char_traits@D@std@@V?$allocator@D@2@@std@@U?$less@K@2@V?$allocator@U?$pair@$$CBKV?$basic_string@DU?$char_traits@D@std@@V?$allocator@D@2@@std@@@std@@@2@$0A@@std@@@std@@QAE?AU?$pair@V?$_Tree_iterator@V?$_Tree_val@U?$_Tree_simple_types@U?$pair@$$CBKV?$basic_string@DU?$char_traits@D@std@@V?$allocator@D@2@@std@@@std@@@std@@@std@@@std@@_N@1@$$QAU?$pair@$$CBKV?$basic_string@DU?$char_traits@D@std@@V?$allocator@D@2@@std@@@1@@Z
	DD	2 DUP(00H)
	DD	2 DUP(00H)
	DD	00H
	DD	01H
xdata$x	ENDS
;	COMDAT xdata$x
xdata$x	SEGMENT
__unwindtable$??$emplace@AAKAAPAVCResource@@@?$_Tree@V?$_Tmap_traits@KPAVCResource@@U?$less@K@std@@V?$allocator@U?$pair@$$CBKPAVCResource@@@std@@@3@$0A@@std@@@std@@QAE?AU?$pair@V?$_Tree_iterator@V?$_Tree_val@U?$_Tree_simple_types@U?$pair@$$CBKPAVCResource@@@std@@@std@@@std@@@std@@_N@1@AAKAAPAVCResource@@@Z DD 0ffffffffH
	DD	FLAT:__unwindfunclet$??$emplace@AAKAAPAVCResource@@@?$_Tree@V?$_Tmap_traits@KPAVCResource@@U?$less@K@std@@V?$allocator@U?$pair@$$CBKPAVCResource@@@std@@@3@$0A@@std@@@std@@QAE?AU?$pair@V?$_Tree_iterator@V?$_Tree_val@U?$_Tree_simple_types@U?$pair@$$CBKPAVCResource@@@std@@@std@@@std@@@std@@_N@1@AAKAAPAVCResource@@@Z$2
__ehfuncinfo$??$emplace@AAKAAPAVCResource@@@?$_Tree@V?$_Tmap_traits@KPAVCResource@@U?$less@K@std@@V?$allocator@U?$pair@$$CBKPAVCResource@@@std@@@3@$0A@@std@@@std@@QAE?AU?$pair@V?$_Tree_iterator@V?$_Tree_val@U?$_Tree_simple_types@U?$pair@$$CBKPAVCResource@@@std@@@std@@@std@@@std@@_N@1@AAKAAPAVCResource@@@Z DD 019930522H
	DD	01H
	DD	FLAT:__unwindtable$??$emplace@AAKAAPAVCResource@@@?$_Tree@V?$_Tmap_traits@KPAVCResource@@U?$less@K@std@@V?$allocator@U?$pair@$$CBKPAVCResource@@@std@@@3@$0A@@std@@@std@@QAE?AU?$pair@V?$_Tree_iterator@V?$_Tree_val@U?$_Tree_simple_types@U?$pair@$$CBKPAVCResource@@@std@@@std@@@std@@@std@@_N@1@AAKAAPAVCResource@@@Z
	DD	2 DUP(00H)
	DD	2 DUP(00H)
	DD	00H
	DD	01H
xdata$x	ENDS
;	COMDAT xdata$x
xdata$x	SEGMENT
__unwindtable$??A?$map@HP6APAVCResource@@PBD@ZU?$less@H@std@@V?$allocator@U?$pair@$$CBHP6APAVCResource@@PBD@Z@std@@@3@@std@@QAEAAP6APAVCResource@@PBD@ZABH@Z DD 0ffffffffH
	DD	FLAT:__unwindfunclet$??A?$map@HP6APAVCResource@@PBD@ZU?$less@H@std@@V?$allocator@U?$pair@$$CBHP6APAVCResource@@PBD@Z@std@@@3@@std@@QAEAAP6APAVCResource@@PBD@ZABH@Z$2
__ehfuncinfo$??A?$map@HP6APAVCResource@@PBD@ZU?$less@H@std@@V?$allocator@U?$pair@$$CBHP6APAVCResource@@PBD@Z@std@@@3@@std@@QAEAAP6APAVCResource@@PBD@ZABH@Z DD 019930522H
	DD	01H
	DD	FLAT:__unwindtable$??A?$map@HP6APAVCResource@@PBD@ZU?$less@H@std@@V?$allocator@U?$pair@$$CBHP6APAVCResource@@PBD@Z@std@@@3@@std@@QAEAAP6APAVCResource@@PBD@ZABH@Z
	DD	2 DUP(00H)
	DD	2 DUP(00H)
	DD	00H
	DD	01H
xdata$x	ENDS
;	COMDAT xdata$x
xdata$x	SEGMENT
__unwindtable$??A?$map@V?$basic_string@DU?$char_traits@D@std@@V?$allocator@D@2@@std@@P6APAVCResource@@PBD@ZU?$less@V?$basic_string@DU?$char_traits@D@std@@V?$allocator@D@2@@std@@@2@V?$allocator@U?$pair@$$CBV?$basic_string@DU?$char_traits@D@std@@V?$allocator@D@2@@std@@P6APAVCResource@@PBD@Z@std@@@2@@std@@QAEAAP6APAVCResource@@PBD@Z$$QAV?$basic_string@DU?$char_traits@D@std@@V?$allocator@D@2@@1@@Z DD 0ffffffffH
	DD	FLAT:__unwindfunclet$??A?$map@V?$basic_string@DU?$char_traits@D@std@@V?$allocator@D@2@@std@@P6APAVCResource@@PBD@ZU?$less@V?$basic_string@DU?$char_traits@D@std@@V?$allocator@D@2@@std@@@2@V?$allocator@U?$pair@$$CBV?$basic_string@DU?$char_traits@D@std@@V?$allocator@D@2@@std@@P6APAVCResource@@PBD@Z@std@@@2@@std@@QAEAAP6APAVCResource@@PBD@Z$$QAV?$basic_string@DU?$char_traits@D@std@@V?$allocator@D@2@@1@@Z$2
__ehfuncinfo$??A?$map@V?$basic_string@DU?$char_traits@D@std@@V?$allocator@D@2@@std@@P6APAVCResource@@PBD@ZU?$less@V?$basic_string@DU?$char_traits@D@std@@V?$allocator@D@2@@std@@@2@V?$allocator@U?$pair@$$CBV?$basic_string@DU?$char_traits@D@std@@V?$allocator@D@2@@std@@P6APAVCResource@@PBD@Z@std@@@2@@std@@QAEAAP6APAVCResource@@PBD@Z$$QAV?$basic_string@DU?$char_traits@D@std@@V?$allocator@D@2@@1@@Z DD 019930522H
	DD	01H
	DD	FLAT:__unwindtable$??A?$map@V?$basic_string@DU?$char_traits@D@std@@V?$allocator@D@2@@std@@P6APAVCResource@@PBD@ZU?$less@V?$basic_string@DU?$char_traits@D@std@@V?$allocator@D@2@@std@@@2@V?$allocator@U?$pair@$$CBV?$basic_string@DU?$char_traits@D@std@@V?$allocator@D@2@@std@@P6APAVCResource@@PBD@Z@std@@@2@@std@@QAEAAP6APAVCResource@@PBD@Z$$QAV?$basic_string@DU?$char_traits@D@std@@V?$allocator@D@2@@1@@Z
	DD	2 DUP(00H)
	DD	2 DUP(00H)
	DD	00H
	DD	01H
xdata$x	ENDS
;	COMDAT xdata$x
xdata$x	SEGMENT
__unwindtable$?PushBackgroundLoadingSet@CResourceManager@@QAEXAAV?$set@V?$basic_string@DU?$char_traits@D@std@@V?$allocator@D@2@@std@@U?$less@V?$basic_string@DU?$char_traits@D@std@@V?$allocator@D@2@@std@@@2@V?$allocator@V?$basic_string@DU?$char_traits@D@std@@V?$allocator@D@2@@std@@@2@@std@@@Z DD 0ffffffffH
	DD	FLAT:__unwindfunclet$?PushBackgroundLoadingSet@CResourceManager@@QAEXAAV?$set@V?$basic_string@DU?$char_traits@D@std@@V?$allocator@D@2@@std@@U?$less@V?$basic_string@DU?$char_traits@D@std@@V?$allocator@D@2@@std@@@2@V?$allocator@V?$basic_string@DU?$char_traits@D@std@@V?$allocator@D@2@@std@@@2@@std@@@Z$0
	DD	00H
	DD	FLAT:__unwindfunclet$?PushBackgroundLoadingSet@CResourceManager@@QAEXAAV?$set@V?$basic_string@DU?$char_traits@D@std@@V?$allocator@D@2@@std@@U?$less@V?$basic_string@DU?$char_traits@D@std@@V?$allocator@D@2@@std@@@2@V?$allocator@V?$basic_string@DU?$char_traits@D@std@@V?$allocator@D@2@@std@@@2@@std@@@Z$6
__ehfuncinfo$?PushBackgroundLoadingSet@CResourceManager@@QAEXAAV?$set@V?$basic_string@DU?$char_traits@D@std@@V?$allocator@D@2@@std@@U?$less@V?$basic_string@DU?$char_traits@D@std@@V?$allocator@D@2@@std@@@2@V?$allocator@V?$basic_string@DU?$char_traits@D@std@@V?$allocator@D@2@@std@@@2@@std@@@Z DD 019930522H
	DD	02H
	DD	FLAT:__unwindtable$?PushBackgroundLoadingSet@CResourceManager@@QAEXAAV?$set@V?$basic_string@DU?$char_traits@D@std@@V?$allocator@D@2@@std@@U?$less@V?$basic_string@DU?$char_traits@D@std@@V?$allocator@D@2@@std@@@2@V?$allocator@V?$basic_string@DU?$char_traits@D@std@@V?$allocator@D@2@@std@@@2@@std@@@Z
	DD	2 DUP(00H)
	DD	2 DUP(00H)
	DD	00H
	DD	01H
xdata$x	ENDS
;	COMDAT xdata$x
xdata$x	SEGMENT
__unwindtable$?ProcessBackgroundLoading@CResourceManager@@QAEXXZ DD 0ffffffffH
	DD	FLAT:__unwindfunclet$?ProcessBackgroundLoading@CResourceManager@@QAEXXZ$0
	DD	00H
	DD	FLAT:__unwindfunclet$?ProcessBackgroundLoading@CResourceManager@@QAEXXZ$6
	DD	0ffffffffH
	DD	FLAT:__unwindfunclet$?ProcessBackgroundLoading@CResourceManager@@QAEXXZ$17
__ehfuncinfo$?ProcessBackgroundLoading@CResourceManager@@QAEXXZ DD 019930522H
	DD	03H
	DD	FLAT:__unwindtable$?ProcessBackgroundLoading@CResourceManager@@QAEXXZ
	DD	2 DUP(00H)
	DD	2 DUP(00H)
	DD	00H
	DD	01H
xdata$x	ENDS
;	COMDAT xdata$x
xdata$x	SEGMENT
__unwindtable$?ReserveDeletingResource@CResourceManager@@QAEXPAVCResource@@@Z DD 0ffffffffH
	DD	FLAT:__unwindfunclet$?ReserveDeletingResource@CResourceManager@@QAEXPAVCResource@@@Z$2
__ehfuncinfo$?ReserveDeletingResource@CResourceManager@@QAEXPAVCResource@@@Z DD 019930522H
	DD	01H
	DD	FLAT:__unwindtable$?ReserveDeletingResource@CResourceManager@@QAEXPAVCResource@@@Z
	DD	2 DUP(00H)
	DD	2 DUP(00H)
	DD	00H
	DD	01H
xdata$x	ENDS
;	COMDAT xdata$x
xdata$x	SEGMENT
__unwindtable$?DumpFileListToTextFile@CResourceManager@@QAEXPBD@Z DD 0ffffffffH
	DD	FLAT:__unwindfunclet$?DumpFileListToTextFile@CResourceManager@@QAEXPBD@Z$0
__ehfuncinfo$?DumpFileListToTextFile@CResourceManager@@QAEXPBD@Z DD 019930522H
	DD	01H
	DD	FLAT:__unwindtable$?DumpFileListToTextFile@CResourceManager@@QAEXPBD@Z
	DD	2 DUP(00H)
	DD	2 DUP(00H)
	DD	00H
	DD	01H
xdata$x	ENDS
;	COMDAT xdata$x
xdata$x	SEGMENT
__unwindtable$?RegisterResourceNewFunctionByTypePointer@CResourceManager@@QAEXHP6APAVCResource@@PBD@Z@Z DD 0ffffffffH
	DD	FLAT:__unwindfunclet$?RegisterResourceNewFunctionByTypePointer@CResourceManager@@QAEXHP6APAVCResource@@PBD@Z@Z$2
__ehfuncinfo$?RegisterResourceNewFunctionByTypePointer@CResourceManager@@QAEXHP6APAVCResource@@PBD@Z@Z DD 019930522H
	DD	01H
	DD	FLAT:__unwindtable$?RegisterResourceNewFunctionByTypePointer@CResourceManager@@QAEXHP6APAVCResource@@PBD@Z@Z
	DD	2 DUP(00H)
	DD	2 DUP(00H)
	DD	00H
	DD	01H
xdata$x	ENDS
;	COMDAT xdata$x
xdata$x	SEGMENT
__unwindtable$?RegisterResourceNewFunctionPointer@CResourceManager@@QAEXPBDP6APAVCResource@@0@Z@Z DD 0ffffffffH
	DD	FLAT:__unwindfunclet$?RegisterResourceNewFunctionPointer@CResourceManager@@QAEXPBDP6APAVCResource@@0@Z@Z$0
	DD	00H
	DD	FLAT:__unwindfunclet$?RegisterResourceNewFunctionPointer@CResourceManager@@QAEXPBDP6APAVCResource@@0@Z@Z$5
__ehfuncinfo$?RegisterResourceNewFunctionPointer@CResourceManager@@QAEXPBDP6APAVCResource@@0@Z@Z DD 019930522H
	DD	02H
	DD	FLAT:__unwindtable$?RegisterResourceNewFunctionPointer@CResourceManager@@QAEXPBDP6APAVCResource@@0@Z@Z
	DD	2 DUP(00H)
	DD	2 DUP(00H)
	DD	00H
	DD	01H
xdata$x	ENDS
;	COMDAT xdata$x
xdata$x	SEGMENT
__unwindtable$?InsertResourcePointer@CResourceManager@@QAEPAVCResource@@KPAV2@@Z DD 0ffffffffH
	DD	FLAT:__unwindfunclet$?InsertResourcePointer@CResourceManager@@QAEPAVCResource@@KPAV2@@Z$2
__ehfuncinfo$?InsertResourcePointer@CResourceManager@@QAEPAVCResource@@KPAV2@@Z DD 019930522H
	DD	01H
	DD	FLAT:__unwindtable$?InsertResourcePointer@CResourceManager@@QAEPAVCResource@@KPAV2@@Z
	DD	2 DUP(00H)
	DD	2 DUP(00H)
	DD	00H
	DD	01H
xdata$x	ENDS
;	COMDAT xdata$x
xdata$x	SEGMENT
__unwindtable$?LoadStaticCache@CResourceManager@@QAEXPBD@Z DD 0ffffffffH
	DD	FLAT:__unwindfunclet$?LoadStaticCache@CResourceManager@@QAEXPBD@Z$2
__ehfuncinfo$?LoadStaticCache@CResourceManager@@QAEXPBD@Z DD 019930522H
	DD	01H
	DD	FLAT:__unwindtable$?LoadStaticCache@CResourceManager@@QAEXPBD@Z
	DD	2 DUP(00H)
	DD	2 DUP(00H)
	DD	00H
	DD	01H
xdata$x	ENDS
;	COMDAT xdata$x
xdata$x	SEGMENT
__ehfuncinfo$??1CResourceManager@@UAE@XZ DD 019930522H
	DD	00H
	DD	00H
	DD	2 DUP(00H)
	DD	2 DUP(00H)
	DD	00H
	DD	05H
xdata$x	ENDS
;	COMDAT xdata$x
xdata$x	SEGMENT
__ehfuncinfo$??0CResourceManager@@QAE@XZ DD 019930522H
	DD	08H
	DD	FLAT:__unwindtable$??0CResourceManager@@QAE@XZ
	DD	2 DUP(00H)
	DD	2 DUP(00H)
	DD	00H
	DD	01H
__unwindtable$??0CResourceManager@@QAE@XZ DD 0ffffffffH
	DD	FLAT:__unwindfunclet$??0CResourceManager@@QAE@XZ$0
	DD	00H
	DD	FLAT:__unwindfunclet$??0CResourceManager@@QAE@XZ$1
	DD	01H
	DD	FLAT:__unwindfunclet$??0CResourceManager@@QAE@XZ$2
	DD	02H
	DD	FLAT:__unwindfunclet$??0CResourceManager@@QAE@XZ$3
	DD	03H
	DD	FLAT:__unwindfunclet$??0CResourceManager@@QAE@XZ$4
	DD	04H
	DD	FLAT:__unwindfunclet$??0CResourceManager@@QAE@XZ$5
	DD	05H
	DD	FLAT:__unwindfunclet$??0CResourceManager@@QAE@XZ$6
	DD	06H
	DD	FLAT:__unwindfunclet$??0CResourceManager@@QAE@XZ$7
xdata$x	ENDS
; Function compile flags: /Ogtp
; File D:\Program Files\Microsoft Visual Studio\2022\Community\VC\Tools\MSVC\14.43.34808\include\xutility
;	COMDAT ??$_Copy_memmove_tail@PAUSDumpData@@@std@@YAPAUSDumpData@@QBDQAU1@II@Z
_TEXT	SEGMENT
__First_ch$ = 8						; size = 4
__Dest$ = 12						; size = 4
__Byte_count$ = 16					; size = 4
__Object_count$ = 20					; size = 4
??$_Copy_memmove_tail@PAUSDumpData@@@std@@YAPAUSDumpData@@QBDQAU1@II@Z PROC ; std::_Copy_memmove_tail<SDumpData *>, COMDAT

; 4763 :     const char* const _First_ch, const _OutCtgIt _Dest, const size_t _Byte_count, const size_t _Object_count) {

  00000	55		 push	 ebp
  00001	8b ec		 mov	 ebp, esp
  00003	56		 push	 esi

; 4764 :     _STL_INTERNAL_CHECK(_Byte_count == _Object_count * sizeof(*_Dest));
; 4765 :     const auto _Dest_ptr = _STD _To_address(_Dest);
; 4766 :     const auto _Dest_ch  = const_cast<char*>(reinterpret_cast<const volatile char*>(_Dest_ptr));
; 4767 :     _CSTD memmove(_Dest_ch, _First_ch, _Byte_count);

  00004	8b 75 0c	 mov	 esi, DWORD PTR __Dest$[ebp]
  00007	57		 push	 edi
  00008	8b 7d 10	 mov	 edi, DWORD PTR __Byte_count$[ebp]
  0000b	57		 push	 edi
  0000c	ff 75 08	 push	 DWORD PTR __First_ch$[ebp]
  0000f	56		 push	 esi
  00010	e8 00 00 00 00	 call	 _memmove
  00015	83 c4 0c	 add	 esp, 12			; 0000000cH

; 4768 :     if constexpr (is_pointer_v<_OutCtgIt>) {
; 4769 :         (void) _Object_count;
; 4770 :         // CodeQL [SM02986] This cast is correct: we're bypassing pointer arithmetic for performance.
; 4771 :         return reinterpret_cast<_OutCtgIt>(_Dest_ch + _Byte_count);

  00018	8d 04 3e	 lea	 eax, DWORD PTR [esi+edi]
  0001b	5f		 pop	 edi
  0001c	5e		 pop	 esi

; 4772 :     } else {
; 4773 :         return _Dest + static_cast<_Iter_diff_t<_OutCtgIt>>(_Object_count);
; 4774 :     }
; 4775 : }

  0001d	5d		 pop	 ebp
  0001e	c3		 ret	 0
??$_Copy_memmove_tail@PAUSDumpData@@@std@@YAPAUSDumpData@@QBDQAU1@II@Z ENDP ; std::_Copy_memmove_tail<SDumpData *>
_TEXT	ENDS
; Function compile flags: /Ogtp
; File D:\Program Files\Microsoft Visual Studio\2022\Community\VC\Tools\MSVC\14.43.34808\include\algorithm
; File D:\Program Files\Microsoft Visual Studio\2022\Community\VC\Tools\MSVC\14.43.34808\include\utility
; File D:\Program Files\Microsoft Visual Studio\2022\Community\VC\Tools\MSVC\14.43.34808\include\algorithm
; File D:\Program Files\Microsoft Visual Studio\2022\Community\VC\Tools\MSVC\14.43.34808\include\utility
; File D:\Program Files\Microsoft Visual Studio\2022\Community\VC\Tools\MSVC\14.43.34808\include\algorithm
; File D:\Program Files\Microsoft Visual Studio\2022\Community\VC\Tools\MSVC\14.43.34808\include\utility
; File D:\Program Files\Microsoft Visual Studio\2022\Community\VC\Tools\MSVC\14.43.34808\include\algorithm
; File D:\Program Files\Microsoft Visual Studio\2022\Community\VC\Tools\MSVC\14.43.34808\include\utility
; File D:\Program Files\Microsoft Visual Studio\2022\Community\VC\Tools\MSVC\14.43.34808\include\algorithm
;	COMDAT ??$_Med3_unchecked@PAUSDumpData@@P6A_NABU1@0@Z@std@@YAXPAUSDumpData@@00P6A_NABU1@1@Z@Z
_TEXT	SEGMENT
__First$ = 8						; size = 4
__Mid$ = 12						; size = 4
__Last$ = 16						; size = 4
__Pred$ = 20						; size = 4
??$_Med3_unchecked@PAUSDumpData@@P6A_NABU1@0@Z@std@@YAXPAUSDumpData@@00P6A_NABU1@1@Z@Z PROC ; std::_Med3_unchecked<SDumpData *,bool (__cdecl*)(SDumpData const &,SDumpData const &)>, COMDAT

; 8235 : _CONSTEXPR20 void _Med3_unchecked(_RanIt _First, _RanIt _Mid, _RanIt _Last, _Pr _Pred) {

  00000	55		 push	 ebp
  00001	8b ec		 mov	 ebp, esp
  00003	53		 push	 ebx

; 8236 :     // sort median of three elements to middle
; 8237 :     if (_DEBUG_LT_PRED(_Pred, *_Mid, *_First)) {

  00004	8b 5d 14	 mov	 ebx, DWORD PTR __Pred$[ebp]
  00007	56		 push	 esi
  00008	8b 75 0c	 mov	 esi, DWORD PTR __Mid$[ebp]
  0000b	57		 push	 edi
  0000c	8b 7d 08	 mov	 edi, DWORD PTR __First$[ebp]
  0000f	57		 push	 edi
  00010	56		 push	 esi
  00011	ff d3		 call	 ebx
  00013	83 c4 08	 add	 esp, 8
  00016	84 c0		 test	 al, al
  00018	74 1c		 je	 SHORT $LN7@Med3_unche
; File D:\Program Files\Microsoft Visual Studio\2022\Community\VC\Tools\MSVC\14.43.34808\include\utility

; 140  :     _Left    = _STD move(_Right);

  0001a	f3 0f 7e 07	 movq	 xmm0, QWORD PTR [edi]
  0001e	f3 0f 7e 0e	 movq	 xmm1, QWORD PTR [esi]
  00022	8b 4e 08	 mov	 ecx, DWORD PTR [esi+8]
  00025	66 0f d6 06	 movq	 QWORD PTR [esi], xmm0
  00029	8b 47 08	 mov	 eax, DWORD PTR [edi+8]
  0002c	89 46 08	 mov	 DWORD PTR [esi+8], eax

; 141  :     _Right   = _STD move(_Tmp);

  0002f	66 0f d6 0f	 movq	 QWORD PTR [edi], xmm1
  00033	89 4f 08	 mov	 DWORD PTR [edi+8], ecx
$LN7@Med3_unche:
; File D:\Program Files\Microsoft Visual Studio\2022\Community\VC\Tools\MSVC\14.43.34808\include\algorithm

; 8241 :     if (_DEBUG_LT_PRED(_Pred, *_Last, *_Mid)) { // swap middle and last, then test first again

  00036	56		 push	 esi
  00037	ff 75 10	 push	 DWORD PTR __Last$[ebp]
  0003a	ff d3		 call	 ebx
  0003c	83 c4 08	 add	 esp, 8
  0003f	84 c0		 test	 al, al
  00041	74 46		 je	 SHORT $LN13@Med3_unche
; File D:\Program Files\Microsoft Visual Studio\2022\Community\VC\Tools\MSVC\14.43.34808\include\utility

; 139  :     _Ty _Tmp = _STD move(_Left);

  00043	8b 55 10	 mov	 edx, DWORD PTR __Last$[ebp]

; 140  :     _Left    = _STD move(_Right);

  00046	f3 0f 7e 06	 movq	 xmm0, QWORD PTR [esi]
; File D:\Program Files\Microsoft Visual Studio\2022\Community\VC\Tools\MSVC\14.43.34808\include\algorithm

; 8244 :         if (_DEBUG_LT_PRED(_Pred, *_Mid, *_First)) {

  0004a	57		 push	 edi
  0004b	56		 push	 esi
; File D:\Program Files\Microsoft Visual Studio\2022\Community\VC\Tools\MSVC\14.43.34808\include\utility

; 139  :     _Ty _Tmp = _STD move(_Left);

  0004c	f3 0f 7e 0a	 movq	 xmm1, QWORD PTR [edx]
  00050	8b 4a 08	 mov	 ecx, DWORD PTR [edx+8]

; 140  :     _Left    = _STD move(_Right);

  00053	66 0f d6 02	 movq	 QWORD PTR [edx], xmm0
  00057	8b 46 08	 mov	 eax, DWORD PTR [esi+8]
  0005a	89 42 08	 mov	 DWORD PTR [edx+8], eax

; 141  :     _Right   = _STD move(_Tmp);

  0005d	66 0f d6 0e	 movq	 QWORD PTR [esi], xmm1
  00061	89 4e 08	 mov	 DWORD PTR [esi+8], ecx
; File D:\Program Files\Microsoft Visual Studio\2022\Community\VC\Tools\MSVC\14.43.34808\include\algorithm

; 8244 :         if (_DEBUG_LT_PRED(_Pred, *_Mid, *_First)) {

  00064	ff d3		 call	 ebx
  00066	83 c4 08	 add	 esp, 8
  00069	84 c0		 test	 al, al
  0006b	74 1c		 je	 SHORT $LN13@Med3_unche
; File D:\Program Files\Microsoft Visual Studio\2022\Community\VC\Tools\MSVC\14.43.34808\include\utility

; 140  :     _Left    = _STD move(_Right);

  0006d	f3 0f 7e 07	 movq	 xmm0, QWORD PTR [edi]
  00071	f3 0f 7e 0e	 movq	 xmm1, QWORD PTR [esi]
  00075	8b 4e 08	 mov	 ecx, DWORD PTR [esi+8]
  00078	66 0f d6 06	 movq	 QWORD PTR [esi], xmm0
  0007c	8b 47 08	 mov	 eax, DWORD PTR [edi+8]
  0007f	89 46 08	 mov	 DWORD PTR [esi+8], eax

; 141  :     _Right   = _STD move(_Tmp);

  00082	66 0f d6 0f	 movq	 QWORD PTR [edi], xmm1
  00086	89 4f 08	 mov	 DWORD PTR [edi+8], ecx
$LN13@Med3_unche:
  00089	5f		 pop	 edi
; File D:\Program Files\Microsoft Visual Studio\2022\Community\VC\Tools\MSVC\14.43.34808\include\algorithm

; 8248 : }

  0008a	5e		 pop	 esi
  0008b	5b		 pop	 ebx
  0008c	5d		 pop	 ebp
  0008d	c3		 ret	 0
??$_Med3_unchecked@PAUSDumpData@@P6A_NABU1@0@Z@std@@YAXPAUSDumpData@@00P6A_NABU1@1@Z@Z ENDP ; std::_Med3_unchecked<SDumpData *,bool (__cdecl*)(SDumpData const &,SDumpData const &)>
_TEXT	ENDS
; Function compile flags: /Ogtp
; File D:\Program Files\Microsoft Visual Studio\2022\Community\VC\Tools\MSVC\14.43.34808\include\xutility
;	COMDAT ??$_Copy_backward_memmove@PAUSDumpData@@PAU1@@std@@YAPAUSDumpData@@PAU1@00@Z
_TEXT	SEGMENT
__First$ = 8						; size = 4
__Last$ = 12						; size = 4
__Dest$ = 16						; size = 4
??$_Copy_backward_memmove@PAUSDumpData@@PAU1@@std@@YAPAUSDumpData@@PAU1@00@Z PROC ; std::_Copy_backward_memmove<SDumpData *,SDumpData *>, COMDAT

; 5099 : _CtgIt2 _Copy_backward_memmove(_CtgIt1 _First, _CtgIt1 _Last, _CtgIt2 _Dest) {

  00000	55		 push	 ebp
  00001	8b ec		 mov	 ebp, esp

; 5100 :     // implement copy_backward-like function as memmove
; 5101 :     const auto _First_ptr = _STD _To_address(_First);
; 5102 :     const auto _Last_ptr  = _STD _To_address(_Last);
; 5103 :     const auto _Dest_ptr  = _STD _To_address(_Dest);
; 5104 :     const auto _First_ch  = const_cast<const char*>(reinterpret_cast<const volatile char*>(_First_ptr));
; 5105 :     const auto _Last_ch   = const_cast<const char*>(reinterpret_cast<const volatile char*>(_Last_ptr));
; 5106 :     const auto _Dest_ch   = const_cast<char*>(reinterpret_cast<const volatile char*>(_Dest_ptr));
; 5107 :     const auto _Count     = static_cast<size_t>(_Last_ch - _First_ch);

  00003	8b 45 08	 mov	 eax, DWORD PTR __First$[ebp]
  00006	8b 4d 0c	 mov	 ecx, DWORD PTR __Last$[ebp]
  00009	2b c8		 sub	 ecx, eax

; 5108 :     const auto _Result    = _CSTD memmove(_Dest_ch - _Count, _First_ch, _Count);

  0000b	51		 push	 ecx
  0000c	50		 push	 eax
  0000d	8b 45 10	 mov	 eax, DWORD PTR __Dest$[ebp]
  00010	2b c1		 sub	 eax, ecx
  00012	50		 push	 eax
  00013	e8 00 00 00 00	 call	 _memmove
  00018	83 c4 0c	 add	 esp, 12			; 0000000cH

; 5109 :     if constexpr (is_pointer_v<_CtgIt2>) {
; 5110 :         return static_cast<_CtgIt2>(_Result);
; 5111 :     } else {
; 5112 :         return _Dest - static_cast<_Iter_diff_t<_CtgIt2>>(_Last_ptr - _First_ptr);
; 5113 :     }
; 5114 : }

  0001b	5d		 pop	 ebp
  0001c	c3		 ret	 0
??$_Copy_backward_memmove@PAUSDumpData@@PAU1@@std@@YAPAUSDumpData@@PAU1@00@Z ENDP ; std::_Copy_backward_memmove<SDumpData *,SDumpData *>
_TEXT	ENDS
; Function compile flags: /Ogtp
; File D:\Program Files\Microsoft Visual Studio\2022\Community\VC\Tools\MSVC\14.43.34808\include\xutility
;	COMDAT ??$_Copy_memmove@PAUSDumpData@@PAU1@@std@@YAPAUSDumpData@@PAU1@00@Z
_TEXT	SEGMENT
__First$ = 8						; size = 4
__Last$ = 12						; size = 4
__Dest$ = 16						; size = 4
??$_Copy_memmove@PAUSDumpData@@PAU1@@std@@YAPAUSDumpData@@PAU1@00@Z PROC ; std::_Copy_memmove<SDumpData *,SDumpData *>, COMDAT

; 4778 : _OutCtgIt _Copy_memmove(_CtgIt _First, _CtgIt _Last, _OutCtgIt _Dest) {

  00000	55		 push	 ebp
  00001	8b ec		 mov	 ebp, esp

; 4779 :     _STL_INTERNAL_CHECK(_First <= _Last);
; 4780 :     const auto _First_ptr    = _STD _To_address(_First);
; 4781 :     const auto _Last_ptr     = _STD _To_address(_Last);
; 4782 :     const auto _Object_count = static_cast<size_t>(_Last_ptr - _First_ptr);

  00003	8b 4d 0c	 mov	 ecx, DWORD PTR __Last$[ebp]
  00006	b8 ab aa aa 2a	 mov	 eax, 715827883		; 2aaaaaabH
  0000b	2b 4d 08	 sub	 ecx, DWORD PTR __First$[ebp]
  0000e	f7 e9		 imul	 ecx
  00010	d1 fa		 sar	 edx, 1
  00012	8b c2		 mov	 eax, edx
  00014	c1 e8 1f	 shr	 eax, 31			; 0000001fH
  00017	03 c2		 add	 eax, edx

; 4783 :     const auto _First_ch     = const_cast<const char*>(reinterpret_cast<const volatile char*>(_First_ptr));
; 4784 :     const auto _Last_ch      = const_cast<const char*>(reinterpret_cast<const volatile char*>(_Last_ptr));
; 4785 :     const auto _Byte_count   = static_cast<size_t>(_Last_ch - _First_ch);
; 4786 :     return _STD _Copy_memmove_tail(_First_ch, _STD move(_Dest), _Byte_count, _Object_count);

  00019	50		 push	 eax
  0001a	51		 push	 ecx
  0001b	ff 75 10	 push	 DWORD PTR __Dest$[ebp]
  0001e	ff 75 08	 push	 DWORD PTR __First$[ebp]
  00021	e8 00 00 00 00	 call	 ??$_Copy_memmove_tail@PAUSDumpData@@@std@@YAPAUSDumpData@@QBDQAU1@II@Z ; std::_Copy_memmove_tail<SDumpData *>
  00026	83 c4 10	 add	 esp, 16			; 00000010H

; 4787 : }

  00029	5d		 pop	 ebp
  0002a	c3		 ret	 0
??$_Copy_memmove@PAUSDumpData@@PAU1@@std@@YAPAUSDumpData@@PAU1@00@Z ENDP ; std::_Copy_memmove<SDumpData *,SDumpData *>
_TEXT	ENDS
; Function compile flags: /Ogtp
; File D:\Program Files\Microsoft Visual Studio\2022\Community\VC\Tools\MSVC\14.43.34808\include\__msvc_heap_algorithms.hpp
;	COMDAT ??$_Pop_heap_hole_by_index@PAUSDumpData@@U1@P6A_NABU1@0@Z@std@@YAXPAUSDumpData@@HH$$QAU1@P6A_NABU1@2@Z@Z
_TEXT	SEGMENT
tv294 = -8						; size = 4
__Max_sequence_non_leaf$1$ = -4				; size = 4
__First$ = 8						; size = 4
__Hole$ = 12						; size = 4
__Top$1$ = 12						; size = 4
__Bottom$ = 16						; size = 4
__Val$ = 20						; size = 4
__Pred$ = 24						; size = 4
??$_Pop_heap_hole_by_index@PAUSDumpData@@U1@P6A_NABU1@0@Z@std@@YAXPAUSDumpData@@HH$$QAU1@P6A_NABU1@2@Z@Z PROC ; std::_Pop_heap_hole_by_index<SDumpData *,SDumpData,bool (__cdecl*)(SDumpData const &,SDumpData const &)>, COMDAT

; 58   :     _RanIt _First, _Iter_diff_t<_RanIt> _Hole, _Iter_diff_t<_RanIt> _Bottom, _Ty&& _Val, _Pr _Pred) {

  00000	55		 push	 ebp
  00001	8b ec		 mov	 ebp, esp
  00003	83 ec 08	 sub	 esp, 8

; 59   :     // percolate _Hole to _Bottom, then push _Val
; 60   :     _STL_INTERNAL_CHECK(_Bottom > 0);
; 61   : 
; 62   :     using _Diff      = _Iter_diff_t<_RanIt>;
; 63   :     const _Diff _Top = _Hole;
; 64   :     _Diff _Idx       = _Hole;
; 65   : 
; 66   :     // Check whether _Idx can have a child before calculating that child's index, since
; 67   :     // calculating the child's index can trigger integer overflows
; 68   :     const _Diff _Max_sequence_non_leaf = (_Bottom - 1) >> 1; // shift for codegen

  00006	8b 4d 10	 mov	 ecx, DWORD PTR __Bottom$[ebp]
  00009	53		 push	 ebx

; 69   :     while (_Idx < _Max_sequence_non_leaf) { // move _Hole down to larger child

  0000a	8b 5d 08	 mov	 ebx, DWORD PTR __First$[ebp]
  0000d	56		 push	 esi
  0000e	8d 41 ff	 lea	 eax, DWORD PTR [ecx-1]
  00011	89 45 f8	 mov	 DWORD PTR tv294[ebp], eax
  00014	d1 f8		 sar	 eax, 1
  00016	57		 push	 edi
  00017	8b 7d 0c	 mov	 edi, DWORD PTR __Hole$[ebp]
  0001a	8b f7		 mov	 esi, edi
  0001c	89 7d 0c	 mov	 DWORD PTR __Top$1$[ebp], edi
  0001f	89 45 fc	 mov	 DWORD PTR __Max_sequence_non_leaf$1$[ebp], eax
  00022	3b f8		 cmp	 edi, eax
  00024	7d 49		 jge	 SHORT $LN3@Pop_heap_h
$LL2@Pop_heap_h:

; 70   :         _Idx = 2 * _Idx + 2;

  00026	03 f6		 add	 esi, esi

; 71   :         if (_DEBUG_LT_PRED(_Pred, *(_First + _Idx), *(_First + (_Idx - 1)))) {

  00028	8d 46 02	 lea	 eax, DWORD PTR [esi+2]
  0002b	8d 04 40	 lea	 eax, DWORD PTR [eax+eax*2]
  0002e	8d 0c 83	 lea	 ecx, DWORD PTR [ebx+eax*4]
  00031	8d 41 f4	 lea	 eax, DWORD PTR [ecx-12]
  00034	50		 push	 eax
  00035	51		 push	 ecx
  00036	ff 55 18	 call	 DWORD PTR __Pred$[ebp]

; 72   :             --_Idx;
; 73   :         }
; 74   :         *(_First + _Hole) = _STD move(*(_First + _Idx));

  00039	0f b6 c0	 movzx	 eax, al
  0003c	83 c4 08	 add	 esp, 8
  0003f	f7 d8		 neg	 eax
  00041	1b c0		 sbb	 eax, eax
  00043	83 c0 02	 add	 eax, 2
  00046	03 f0		 add	 esi, eax
  00048	8d 04 76	 lea	 eax, DWORD PTR [esi+esi*2]
  0004b	f3 0f 7e 04 83	 movq	 xmm0, QWORD PTR [ebx+eax*4]
  00050	8d 14 83	 lea	 edx, DWORD PTR [ebx+eax*4]
  00053	8d 04 7f	 lea	 eax, DWORD PTR [edi+edi*2]

; 75   :         _Hole             = _Idx;

  00056	8b fe		 mov	 edi, esi
  00058	8d 0c 83	 lea	 ecx, DWORD PTR [ebx+eax*4]
  0005b	66 0f d6 01	 movq	 QWORD PTR [ecx], xmm0
  0005f	8b 42 08	 mov	 eax, DWORD PTR [edx+8]
  00062	89 41 08	 mov	 DWORD PTR [ecx+8], eax
  00065	8b 45 fc	 mov	 eax, DWORD PTR __Max_sequence_non_leaf$1$[ebp]
  00068	3b f0		 cmp	 esi, eax
  0006a	7c ba		 jl	 SHORT $LL2@Pop_heap_h

; 69   :     while (_Idx < _Max_sequence_non_leaf) { // move _Hole down to larger child

  0006c	8b 4d 10	 mov	 ecx, DWORD PTR __Bottom$[ebp]
$LN3@Pop_heap_h:

; 76   :     }
; 77   : 
; 78   :     if (_Idx == _Max_sequence_non_leaf && _Bottom % 2 == 0) { // only child at bottom, move _Hole down to it

  0006f	3b f0		 cmp	 esi, eax
  00071	75 24		 jne	 SHORT $LN5@Pop_heap_h
  00073	f6 c1 01	 test	 cl, 1
  00076	75 1f		 jne	 SHORT $LN5@Pop_heap_h

; 79   :         *(_First + _Hole) = _STD move(*(_First + (_Bottom - 1)));

  00078	8d 04 49	 lea	 eax, DWORD PTR [ecx+ecx*2]
  0007b	f3 0f 7e 44 83
	f4		 movq	 xmm0, QWORD PTR [ebx+eax*4-12]
  00081	8d 14 83	 lea	 edx, DWORD PTR [ebx+eax*4]
  00084	8d 04 7f	 lea	 eax, DWORD PTR [edi+edi*2]

; 80   :         _Hole             = _Bottom - 1;

  00087	8b 7d f8	 mov	 edi, DWORD PTR tv294[ebp]
  0008a	8d 0c 83	 lea	 ecx, DWORD PTR [ebx+eax*4]
  0008d	66 0f d6 01	 movq	 QWORD PTR [ecx], xmm0
  00091	8b 42 fc	 mov	 eax, DWORD PTR [edx-4]
  00094	89 41 08	 mov	 DWORD PTR [ecx+8], eax
$LN5@Pop_heap_h:

; 27   :          _Top < _Hole && _DEBUG_LT_PRED(_Pred, *(_First + _Idx), _Val); _Idx = (_Hole - 1) >> 1) { // shift for codegen

  00097	39 7d 0c	 cmp	 DWORD PTR __Top$1$[ebp], edi
  0009a	7c 26		 jl	 SHORT $LN10@Pop_heap_h
  0009c	8b 55 08	 mov	 edx, DWORD PTR __First$[ebp]
$LN9@Pop_heap_h:

; 31   :     }
; 32   : 
; 33   :     *(_First + _Hole) = _STD forward<_Ty>(_Val); // drop _Val into final hole

  0009f	8d 04 7f	 lea	 eax, DWORD PTR [edi+edi*2]
  000a2	8d 0c 82	 lea	 ecx, DWORD PTR [edx+eax*4]
  000a5	8b 45 14	 mov	 eax, DWORD PTR __Val$[ebp]
  000a8	5f		 pop	 edi
  000a9	5e		 pop	 esi
  000aa	5b		 pop	 ebx
  000ab	f3 0f 7e 00	 movq	 xmm0, QWORD PTR [eax]
  000af	66 0f d6 01	 movq	 QWORD PTR [ecx], xmm0
  000b3	8b 40 08	 mov	 eax, DWORD PTR [eax+8]
  000b6	89 41 08	 mov	 DWORD PTR [ecx+8], eax

; 81   :     }
; 82   : 
; 83   :     _STD _Push_heap_by_index(_First, _Hole, _Top, _STD forward<_Ty>(_Val), _Pred);
; 84   : }

  000b9	8b e5		 mov	 esp, ebp
  000bb	5d		 pop	 ebp
  000bc	c3		 ret	 0
  000bd	0f 1f 00	 npad	 3
$LL23@Pop_heap_h:

; 27   :          _Top < _Hole && _DEBUG_LT_PRED(_Pred, *(_First + _Idx), _Val); _Idx = (_Hole - 1) >> 1) { // shift for codegen

  000c0	8b da		 mov	 ebx, edx
$LN10@Pop_heap_h:
  000c2	ff 75 14	 push	 DWORD PTR __Val$[ebp]
  000c5	8d 77 ff	 lea	 esi, DWORD PTR [edi-1]
  000c8	d1 fe		 sar	 esi, 1
  000ca	8d 04 76	 lea	 eax, DWORD PTR [esi+esi*2]
  000cd	8d 1c 83	 lea	 ebx, DWORD PTR [ebx+eax*4]
  000d0	53		 push	 ebx
  000d1	ff 55 18	 call	 DWORD PTR __Pred$[ebp]
  000d4	8b 55 08	 mov	 edx, DWORD PTR __First$[ebp]
  000d7	83 c4 08	 add	 esp, 8
  000da	84 c0		 test	 al, al
  000dc	74 c1		 je	 SHORT $LN9@Pop_heap_h

; 28   :         // move _Hole up to parent
; 29   :         *(_First + _Hole) = _STD move(*(_First + _Idx));

  000de	8d 04 7f	 lea	 eax, DWORD PTR [edi+edi*2]
  000e1	f3 0f 7e 03	 movq	 xmm0, QWORD PTR [ebx]
  000e5	8d 0c 82	 lea	 ecx, DWORD PTR [edx+eax*4]

; 30   :         _Hole             = _Idx;

  000e8	8b fe		 mov	 edi, esi
  000ea	66 0f d6 01	 movq	 QWORD PTR [ecx], xmm0
  000ee	8b 43 08	 mov	 eax, DWORD PTR [ebx+8]
  000f1	89 41 08	 mov	 DWORD PTR [ecx+8], eax
  000f4	39 75 0c	 cmp	 DWORD PTR __Top$1$[ebp], esi
  000f7	7c c7		 jl	 SHORT $LL23@Pop_heap_h

; 27   :          _Top < _Hole && _DEBUG_LT_PRED(_Pred, *(_First + _Idx), _Val); _Idx = (_Hole - 1) >> 1) { // shift for codegen

  000f9	eb a4		 jmp	 SHORT $LN9@Pop_heap_h
??$_Pop_heap_hole_by_index@PAUSDumpData@@U1@P6A_NABU1@0@Z@std@@YAXPAUSDumpData@@HH$$QAU1@P6A_NABU1@2@Z@Z ENDP ; std::_Pop_heap_hole_by_index<SDumpData *,SDumpData,bool (__cdecl*)(SDumpData const &,SDumpData const &)>
_TEXT	ENDS
; Function compile flags: /Ogtp
; File D:\Program Files\Microsoft Visual Studio\2022\Community\VC\Tools\MSVC\14.43.34808\include\xstring
; File D:\Program Files\Microsoft Visual Studio\2022\Community\VC\Tools\MSVC\14.43.34808\include\__msvc_string_view.hpp
; File D:\Program Files\Microsoft Visual Studio\2022\Community\VC\Tools\MSVC\14.43.34808\include\xstring
; File D:\Program Files\Microsoft Visual Studio\2022\Community\VC\Tools\MSVC\14.43.34808\include\__msvc_string_view.hpp
; File D:\Program Files\Microsoft Visual Studio\2022\Community\VC\Tools\MSVC\14.43.34808\include\xstring
;	COMDAT ??$?MDU?$char_traits@D@std@@V?$allocator@D@1@@std@@YA_NABV?$basic_string@DU?$char_traits@D@std@@V?$allocator@D@2@@0@0@Z
_TEXT	SEGMENT
__Left$ = 8						; size = 4
__Right$ = 12						; size = 4
??$?MDU?$char_traits@D@std@@V?$allocator@D@1@@std@@YA_NABV?$basic_string@DU?$char_traits@D@std@@V?$allocator@D@2@@0@0@Z PROC ; std::operator<<char,std::char_traits<char>,std::allocator<char> >, COMDAT

; 3271 :     const basic_string<_Elem, _Traits, _Alloc>& _Left, const basic_string<_Elem, _Traits, _Alloc>& _Right) noexcept {

  00000	55		 push	 ebp
  00001	8b ec		 mov	 ebp, esp

; 2854 :         return _Traits_compare<_Traits>(_Mypair._Myval2._Myptr(), _Mypair._Myval2._Mysize,

  00003	8b 4d 0c	 mov	 ecx, DWORD PTR __Right$[ebp]

; 3271 :     const basic_string<_Elem, _Traits, _Alloc>& _Left, const basic_string<_Elem, _Traits, _Alloc>& _Right) noexcept {

  00006	53		 push	 ebx
  00007	57		 push	 edi

; 434  :         return _Myres > _Small_string_capacity;

  00008	83 79 14 0f	 cmp	 DWORD PTR [ecx+20], 15	; 0000000fH

; 2854 :         return _Traits_compare<_Traits>(_Mypair._Myval2._Myptr(), _Mypair._Myval2._Mysize,

  0000c	8b 79 10	 mov	 edi, DWORD PTR [ecx+16]

; 426  :         if (_Large_mode_engaged()) {

  0000f	76 02		 jbe	 SHORT $LN8@operator

; 427  :             _Result = _Unfancy(_Bx._Ptr);

  00011	8b 09		 mov	 ecx, DWORD PTR [ecx]
$LN8@operator:

; 2854 :         return _Traits_compare<_Traits>(_Mypair._Myval2._Myptr(), _Mypair._Myval2._Mysize,

  00013	8b 55 08	 mov	 edx, DWORD PTR __Left$[ebp]

; 434  :         return _Myres > _Small_string_capacity;

  00016	83 7a 14 0f	 cmp	 DWORD PTR [edx+20], 15	; 0000000fH

; 2854 :         return _Traits_compare<_Traits>(_Mypair._Myval2._Myptr(), _Mypair._Myval2._Mysize,

  0001a	8b 5a 10	 mov	 ebx, DWORD PTR [edx+16]

; 426  :         if (_Large_mode_engaged()) {

  0001d	76 02		 jbe	 SHORT $LN15@operator

; 427  :             _Result = _Unfancy(_Bx._Ptr);

  0001f	8b 12		 mov	 edx, DWORD PTR [edx]
$LN15@operator:
  00021	56		 push	 esi

; 2854 :         return _Traits_compare<_Traits>(_Mypair._Myval2._Myptr(), _Mypair._Myval2._Mysize,

  00022	3b fb		 cmp	 edi, ebx
  00024	8b f3		 mov	 esi, ebx
  00026	0f 42 f7	 cmovb	 esi, edi
; File D:\Program Files\Microsoft Visual Studio\2022\Community\VC\Tools\MSVC\14.43.34808\include\__msvc_string_view.hpp

; 411  :         return __builtin_memcmp(_First1, _First2, _Count);

  00029	83 ee 04	 sub	 esi, 4
  0002c	72 13		 jb	 SHORT $LN35@operator
  0002e	66 90		 npad	 2
$LL36@operator:
  00030	8b 02		 mov	 eax, DWORD PTR [edx]
  00032	3b 01		 cmp	 eax, DWORD PTR [ecx]
  00034	75 10		 jne	 SHORT $LN34@operator
  00036	83 c2 04	 add	 edx, 4
  00039	83 c1 04	 add	 ecx, 4
  0003c	83 ee 04	 sub	 esi, 4
  0003f	73 ef		 jae	 SHORT $LL36@operator
$LN35@operator:
  00041	83 fe fc	 cmp	 esi, -4			; fffffffcH
  00044	74 34		 je	 SHORT $LN33@operator
$LN34@operator:
  00046	8a 02		 mov	 al, BYTE PTR [edx]
  00048	3a 01		 cmp	 al, BYTE PTR [ecx]
  0004a	75 27		 jne	 SHORT $LN37@operator
  0004c	83 fe fd	 cmp	 esi, -3			; fffffffdH
  0004f	74 29		 je	 SHORT $LN33@operator
  00051	8a 42 01	 mov	 al, BYTE PTR [edx+1]
  00054	3a 41 01	 cmp	 al, BYTE PTR [ecx+1]
  00057	75 1a		 jne	 SHORT $LN37@operator
  00059	83 fe fe	 cmp	 esi, -2			; fffffffeH
  0005c	74 1c		 je	 SHORT $LN33@operator
  0005e	8a 42 02	 mov	 al, BYTE PTR [edx+2]
  00061	3a 41 02	 cmp	 al, BYTE PTR [ecx+2]
  00064	75 0d		 jne	 SHORT $LN37@operator
  00066	83 fe ff	 cmp	 esi, -1
  00069	74 0f		 je	 SHORT $LN33@operator
  0006b	8a 42 03	 mov	 al, BYTE PTR [edx+3]
  0006e	3a 41 03	 cmp	 al, BYTE PTR [ecx+3]
  00071	74 07		 je	 SHORT $LN33@operator
$LN37@operator:
  00073	1b c0		 sbb	 eax, eax
  00075	83 c8 01	 or	 eax, 1
  00078	eb 02		 jmp	 SHORT $LN38@operator
$LN33@operator:
  0007a	33 c0		 xor	 eax, eax
$LN38@operator:
  0007c	5e		 pop	 esi

; 595  :     if (_Ans != 0) {

  0007d	85 c0		 test	 eax, eax
  0007f	75 12		 jne	 SHORT $LN24@operator

; 596  :         return _Ans;
; 597  :     }
; 598  : 
; 599  :     if (_Left_size < _Right_size) {

  00081	3b fb		 cmp	 edi, ebx
  00083	76 0a		 jbe	 SHORT $LN51@operator

; 600  :         return -1;

  00085	83 c8 ff	 or	 eax, -1
; File D:\Program Files\Microsoft Visual Studio\2022\Community\VC\Tools\MSVC\14.43.34808\include\xstring

; 3272 :     return _Left.compare(_Right) < 0;

  00088	5f		 pop	 edi
  00089	c1 e8 1f	 shr	 eax, 31			; 0000001fH
  0008c	5b		 pop	 ebx

; 3273 : }

  0008d	5d		 pop	 ebp
  0008e	c3		 ret	 0
$LN51@operator:
; File D:\Program Files\Microsoft Visual Studio\2022\Community\VC\Tools\MSVC\14.43.34808\include\__msvc_string_view.hpp

; 603  :     if (_Left_size > _Right_size) {

  0008f	1b c0		 sbb	 eax, eax
  00091	f7 d8		 neg	 eax
$LN24@operator:
; File D:\Program Files\Microsoft Visual Studio\2022\Community\VC\Tools\MSVC\14.43.34808\include\xstring

; 3272 :     return _Left.compare(_Right) < 0;

  00093	5f		 pop	 edi
  00094	c1 e8 1f	 shr	 eax, 31			; 0000001fH
  00097	5b		 pop	 ebx

; 3273 : }

  00098	5d		 pop	 ebp
  00099	c3		 ret	 0
??$?MDU?$char_traits@D@std@@V?$allocator@D@1@@std@@YA_NABV?$basic_string@DU?$char_traits@D@std@@V?$allocator@D@2@@0@0@Z ENDP ; std::operator<<char,std::char_traits<char>,std::allocator<char> >
_TEXT	ENDS
; Function compile flags: /Ogtp
; File D:\Program Files\Microsoft Visual Studio\2022\Community\VC\Tools\MSVC\14.43.34808\include\xmemory
;	COMDAT ??1?$_Alloc_construct_ptr@V?$allocator@U?$_Tree_node@U?$pair@QAVCResource@@K@std@@PAX@std@@@std@@@std@@QAE@XZ
_TEXT	SEGMENT
??1?$_Alloc_construct_ptr@V?$allocator@U?$_Tree_node@U?$pair@QAVCResource@@K@std@@PAX@std@@@std@@@std@@QAE@XZ PROC ; std::_Alloc_construct_ptr<std::allocator<std::_Tree_node<std::pair<CResource * const,unsigned long>,void *> > >::~_Alloc_construct_ptr<std::allocator<std::_Tree_node<std::pair<CResource * const,unsigned long>,void *> > >, COMDAT
; _this$ = ecx

; 1168 :         if (_Ptr) {

  00000	8b 41 04	 mov	 eax, DWORD PTR [ecx+4]
  00003	85 c0		 test	 eax, eax
  00005	74 0b		 je	 SHORT $LN10@Alloc_cons

; 289  :         ::operator delete(_Ptr, _Bytes);

  00007	6a 18		 push	 24			; 00000018H
  00009	50		 push	 eax
  0000a	e8 00 00 00 00	 call	 ??3@YAXPAXI@Z		; operator delete
  0000f	83 c4 08	 add	 esp, 8
$LN10@Alloc_cons:

; 1169 :             _Al.deallocate(_Ptr, 1);
; 1170 :         }
; 1171 :     }

  00012	c3		 ret	 0
??1?$_Alloc_construct_ptr@V?$allocator@U?$_Tree_node@U?$pair@QAVCResource@@K@std@@PAX@std@@@std@@@std@@QAE@XZ ENDP ; std::_Alloc_construct_ptr<std::allocator<std::_Tree_node<std::pair<CResource * const,unsigned long>,void *> > >::~_Alloc_construct_ptr<std::allocator<std::_Tree_node<std::pair<CResource * const,unsigned long>,void *> > >
_TEXT	ENDS
; Function compile flags: /Ogtp
; File D:\Program Files\Microsoft Visual Studio\2022\Community\VC\Tools\MSVC\14.43.34808\include\algorithm
; File D:\Program Files\Microsoft Visual Studio\2022\Community\VC\Tools\MSVC\14.43.34808\include\utility
; File D:\Program Files\Microsoft Visual Studio\2022\Community\VC\Tools\MSVC\14.43.34808\include\algorithm
; File D:\Program Files\Microsoft Visual Studio\2022\Community\VC\Tools\MSVC\14.43.34808\include\utility
; File D:\Program Files\Microsoft Visual Studio\2022\Community\VC\Tools\MSVC\14.43.34808\include\algorithm
; File D:\Program Files\Microsoft Visual Studio\2022\Community\VC\Tools\MSVC\14.43.34808\include\utility
; File D:\Program Files\Microsoft Visual Studio\2022\Community\VC\Tools\MSVC\14.43.34808\include\algorithm
; File D:\Program Files\Microsoft Visual Studio\2022\Community\VC\Tools\MSVC\14.43.34808\include\utility
; File D:\Program Files\Microsoft Visual Studio\2022\Community\VC\Tools\MSVC\14.43.34808\include\algorithm
; File D:\Program Files\Microsoft Visual Studio\2022\Community\VC\Tools\MSVC\14.43.34808\include\utility
; File D:\Program Files\Microsoft Visual Studio\2022\Community\VC\Tools\MSVC\14.43.34808\include\algorithm
; File D:\Program Files\Microsoft Visual Studio\2022\Community\VC\Tools\MSVC\14.43.34808\include\utility
; File D:\Program Files\Microsoft Visual Studio\2022\Community\VC\Tools\MSVC\14.43.34808\include\algorithm
; File D:\Program Files\Microsoft Visual Studio\2022\Community\VC\Tools\MSVC\14.43.34808\include\utility
; File D:\Program Files\Microsoft Visual Studio\2022\Community\VC\Tools\MSVC\14.43.34808\include\algorithm
; File D:\Program Files\Microsoft Visual Studio\2022\Community\VC\Tools\MSVC\14.43.34808\include\utility
; File D:\Program Files\Microsoft Visual Studio\2022\Community\VC\Tools\MSVC\14.43.34808\include\algorithm
; File D:\Program Files\Microsoft Visual Studio\2022\Community\VC\Tools\MSVC\14.43.34808\include\utility
; File D:\Program Files\Microsoft Visual Studio\2022\Community\VC\Tools\MSVC\14.43.34808\include\algorithm
; File D:\Program Files\Microsoft Visual Studio\2022\Community\VC\Tools\MSVC\14.43.34808\include\utility
; File D:\Program Files\Microsoft Visual Studio\2022\Community\VC\Tools\MSVC\14.43.34808\include\algorithm
; File D:\Program Files\Microsoft Visual Studio\2022\Community\VC\Tools\MSVC\14.43.34808\include\utility
; File D:\Program Files\Microsoft Visual Studio\2022\Community\VC\Tools\MSVC\14.43.34808\include\algorithm
; File D:\Program Files\Microsoft Visual Studio\2022\Community\VC\Tools\MSVC\14.43.34808\include\utility
; File D:\Program Files\Microsoft Visual Studio\2022\Community\VC\Tools\MSVC\14.43.34808\include\algorithm
; File D:\Program Files\Microsoft Visual Studio\2022\Community\VC\Tools\MSVC\14.43.34808\include\utility
; File D:\Program Files\Microsoft Visual Studio\2022\Community\VC\Tools\MSVC\14.43.34808\include\algorithm
;	COMDAT ??$_Partition_by_median_guess_unchecked@PAUSDumpData@@P6A_NABU1@0@Z@std@@YA?AU?$pair@PAUSDumpData@@PAU1@@0@PAUSDumpData@@0P6A_NABU2@1@Z@Z
_TEXT	SEGMENT
__Gfirst$1$ = -12					; size = 4
__Last$1$ = -12						; size = 4
$T1 = -12						; size = 4
tv448 = -12						; size = 4
__Glast$1$ = -8						; size = 4
$T2 = -8						; size = 4
__Plast$1$ = -4						; size = 4
___$ReturnUdt$ = 8					; size = 4
__First$ = 12						; size = 4
__Last$ = 16						; size = 4
__Pred$ = 20						; size = 4
??$_Partition_by_median_guess_unchecked@PAUSDumpData@@P6A_NABU1@0@Z@std@@YA?AU?$pair@PAUSDumpData@@PAU1@@0@PAUSDumpData@@0P6A_NABU2@1@Z@Z PROC ; std::_Partition_by_median_guess_unchecked<SDumpData *,bool (__cdecl*)(SDumpData const &,SDumpData const &)>, COMDAT

; 8268 : _CONSTEXPR20 pair<_RanIt, _RanIt> _Partition_by_median_guess_unchecked(_RanIt _First, _RanIt _Last, _Pr _Pred) {

  00000	55		 push	 ebp
  00001	8b ec		 mov	 ebp, esp
  00003	83 ec 0c	 sub	 esp, 12			; 0000000cH
  00006	53		 push	 ebx

; 8269 :     // partition [_First, _Last)
; 8270 :     _RanIt _Mid = _First + ((_Last - _First) >> 1); // shift for codegen

  00007	8b 5d 10	 mov	 ebx, DWORD PTR __Last$[ebp]
  0000a	b8 ab aa aa 2a	 mov	 eax, 715827883		; 2aaaaaabH
  0000f	56		 push	 esi
  00010	57		 push	 edi
  00011	8b 7d 0c	 mov	 edi, DWORD PTR __First$[ebp]
  00014	8b cb		 mov	 ecx, ebx
  00016	2b cf		 sub	 ecx, edi

; 8271 :     _STD _Guess_median_unchecked(_First, _Mid, _STD _Prev_iter(_Last), _Pred);

  00018	83 c3 f4	 add	 ebx, -12		; fffffff4H
  0001b	f7 e9		 imul	 ecx

; 8254 :     const _Diff _Count = _Last - _First;

  0001d	b8 ab aa aa 2a	 mov	 eax, 715827883		; 2aaaaaabH

; 8271 :     _STD _Guess_median_unchecked(_First, _Mid, _STD _Prev_iter(_Last), _Pred);

  00022	89 5d f4	 mov	 DWORD PTR __Last$1$[ebp], ebx
  00025	d1 fa		 sar	 edx, 1
  00027	8b ca		 mov	 ecx, edx
  00029	c1 e9 1f	 shr	 ecx, 31			; 0000001fH
  0002c	03 ca		 add	 ecx, edx
  0002e	d1 f9		 sar	 ecx, 1
  00030	8d 0c 49	 lea	 ecx, DWORD PTR [ecx+ecx*2]
  00033	8d 34 8f	 lea	 esi, DWORD PTR [edi+ecx*4]

; 8254 :     const _Diff _Count = _Last - _First;

  00036	8b cb		 mov	 ecx, ebx
  00038	2b cf		 sub	 ecx, edi

; 8255 :     if (40 < _Count) { // Tukey's ninther

  0003a	8b 7d 14	 mov	 edi, DWORD PTR __Pred$[ebp]
  0003d	f7 e9		 imul	 ecx
  0003f	8b 4d 0c	 mov	 ecx, DWORD PTR __First$[ebp]
  00042	d1 fa		 sar	 edx, 1
  00044	8b c2		 mov	 eax, edx
  00046	c1 e8 1f	 shr	 eax, 31			; 0000001fH
  00049	03 c2		 add	 eax, edx
  0004b	83 f8 28	 cmp	 eax, 40			; 00000028H
  0004e	7e 59		 jle	 SHORT $LN59@Partition_

; 8256 :         const _Diff _Step     = (_Count + 1) >> 3; // +1 can't overflow because range was made inclusive in caller
; 8257 :         const _Diff _Two_step = _Step << 1; // note: intentionally discards low-order bit
; 8258 :         _STD _Med3_unchecked(_First, _First + _Step, _First + _Two_step, _Pred);

  00050	ff 75 14	 push	 DWORD PTR __Pred$[ebp]
  00053	40		 inc	 eax
  00054	c1 f8 03	 sar	 eax, 3
  00057	8d 1c 40	 lea	 ebx, DWORD PTR [eax+eax*2]
  0005a	8d 3c 40	 lea	 edi, DWORD PTR [eax+eax*2]
  0005d	c1 e3 03	 shl	 ebx, 3
  00060	c1 e7 02	 shl	 edi, 2
  00063	8d 04 0b	 lea	 eax, DWORD PTR [ebx+ecx]
  00066	8d 14 0f	 lea	 edx, DWORD PTR [edi+ecx]
  00069	50		 push	 eax
  0006a	52		 push	 edx
  0006b	51		 push	 ecx
  0006c	89 55 f8	 mov	 DWORD PTR $T2[ebp], edx
  0006f	e8 00 00 00 00	 call	 ??$_Med3_unchecked@PAUSDumpData@@P6A_NABU1@0@Z@std@@YAXPAUSDumpData@@00P6A_NABU1@1@Z@Z ; std::_Med3_unchecked<SDumpData *,bool (__cdecl*)(SDumpData const &,SDumpData const &)>

; 8259 :         _STD _Med3_unchecked(_Mid - _Step, _Mid, _Mid + _Step, _Pred);

  00074	ff 75 14	 push	 DWORD PTR __Pred$[ebp]
  00077	8d 04 37	 lea	 eax, DWORD PTR [edi+esi]
  0007a	50		 push	 eax
  0007b	8b c6		 mov	 eax, esi
  0007d	2b c7		 sub	 eax, edi
  0007f	56		 push	 esi
  00080	50		 push	 eax
  00081	e8 00 00 00 00	 call	 ??$_Med3_unchecked@PAUSDumpData@@P6A_NABU1@0@Z@std@@YAXPAUSDumpData@@00P6A_NABU1@1@Z@Z ; std::_Med3_unchecked<SDumpData *,bool (__cdecl*)(SDumpData const &,SDumpData const &)>

; 8260 :         _STD _Med3_unchecked(_Last - _Two_step, _Last - _Step, _Last, _Pred);

  00086	8b 4d f4	 mov	 ecx, DWORD PTR __Last$1$[ebp]
  00089	8b c1		 mov	 eax, ecx
  0008b	2b c7		 sub	 eax, edi
  0008d	8b 7d 14	 mov	 edi, DWORD PTR __Pred$[ebp]
  00090	57		 push	 edi
  00091	51		 push	 ecx
  00092	50		 push	 eax
  00093	2b cb		 sub	 ecx, ebx
  00095	89 45 f4	 mov	 DWORD PTR $T1[ebp], eax
  00098	51		 push	 ecx
  00099	e8 00 00 00 00	 call	 ??$_Med3_unchecked@PAUSDumpData@@P6A_NABU1@0@Z@std@@YAXPAUSDumpData@@00P6A_NABU1@1@Z@Z ; std::_Med3_unchecked<SDumpData *,bool (__cdecl*)(SDumpData const &,SDumpData const &)>

; 8261 :         _STD _Med3_unchecked(_First + _Step, _Mid, _Last - _Step, _Pred);
; 8262 :     } else {

  0009e	8b 45 f4	 mov	 eax, DWORD PTR $T1[ebp]
  000a1	83 c4 30	 add	 esp, 48			; 00000030H
  000a4	8b 4d f8	 mov	 ecx, DWORD PTR $T2[ebp]
  000a7	eb 02		 jmp	 SHORT $LN60@Partition_
$LN59@Partition_:

; 8263 :         _STD _Med3_unchecked(_First, _Mid, _Last, _Pred);

  000a9	8b c3		 mov	 eax, ebx
$LN60@Partition_:

; 8272 :     _RanIt _Pfirst = _Mid;

  000ab	57		 push	 edi
  000ac	50		 push	 eax
  000ad	56		 push	 esi
  000ae	51		 push	 ecx
  000af	e8 00 00 00 00	 call	 ??$_Med3_unchecked@PAUSDumpData@@P6A_NABU1@0@Z@std@@YAXPAUSDumpData@@00P6A_NABU1@1@Z@Z ; std::_Med3_unchecked<SDumpData *,bool (__cdecl*)(SDumpData const &,SDumpData const &)>
  000b4	83 c4 10	 add	 esp, 16			; 00000010H

; 8273 :     _RanIt _Plast  = _STD _Next_iter(_Pfirst);

  000b7	8d 5e 0c	 lea	 ebx, DWORD PTR [esi+12]
  000ba	89 5d fc	 mov	 DWORD PTR __Plast$1$[ebp], ebx

; 8274 : 
; 8275 :     while (_First < _Pfirst && !_DEBUG_LT_PRED(_Pred, *_STD _Prev_iter(_Pfirst), *_Pfirst)
; 8276 :            && !_Pred(*_Pfirst, *_STD _Prev_iter(_Pfirst))) {

  000bd	39 75 0c	 cmp	 DWORD PTR __First$[ebp], esi
  000c0	73 2b		 jae	 SHORT $LN64@Partition_
  000c2	8b 5d 0c	 mov	 ebx, DWORD PTR __First$[ebp]
$LL2@Partition_:
  000c5	8d 46 f4	 lea	 eax, DWORD PTR [esi-12]
  000c8	56		 push	 esi
  000c9	50		 push	 eax
  000ca	89 45 f4	 mov	 DWORD PTR tv448[ebp], eax
  000cd	ff d7		 call	 edi
  000cf	83 c4 08	 add	 esp, 8
  000d2	84 c0		 test	 al, al
  000d4	75 14		 jne	 SHORT $LN89@Partition_
  000d6	ff 75 f4	 push	 DWORD PTR tv448[ebp]
  000d9	56		 push	 esi
  000da	ff d7		 call	 edi
  000dc	83 c4 08	 add	 esp, 8
  000df	84 c0		 test	 al, al
  000e1	75 07		 jne	 SHORT $LN89@Partition_

; 8277 :         --_Pfirst;

  000e3	8b 75 f4	 mov	 esi, DWORD PTR tv448[ebp]
  000e6	3b de		 cmp	 ebx, esi
  000e8	72 db		 jb	 SHORT $LL2@Partition_
$LN89@Partition_:
  000ea	8b 5d fc	 mov	 ebx, DWORD PTR __Plast$1$[ebp]
$LN64@Partition_:

; 8278 :     }
; 8279 : 
; 8280 :     while (_Plast < _Last && !_DEBUG_LT_PRED(_Pred, *_Plast, *_Pfirst) && !_Pred(*_Pfirst, *_Plast)) {

  000ed	8b 45 10	 mov	 eax, DWORD PTR __Last$[ebp]
  000f0	3b d8		 cmp	 ebx, eax
  000f2	73 28		 jae	 SHORT $LN5@Partition_
$LL4@Partition_:
  000f4	56		 push	 esi
  000f5	53		 push	 ebx
  000f6	ff d7		 call	 edi
  000f8	83 c4 08	 add	 esp, 8
  000fb	84 c0		 test	 al, al
  000fd	75 17		 jne	 SHORT $LN94@Partition_
  000ff	53		 push	 ebx
  00100	56		 push	 esi
  00101	ff d7		 call	 edi
  00103	83 c4 08	 add	 esp, 8
  00106	84 c0		 test	 al, al
  00108	8b 45 10	 mov	 eax, DWORD PTR __Last$[ebp]
  0010b	75 0c		 jne	 SHORT $LN90@Partition_

; 8281 :         ++_Plast;

  0010d	83 c3 0c	 add	 ebx, 12			; 0000000cH
  00110	3b d8		 cmp	 ebx, eax
  00112	72 e0		 jb	 SHORT $LL4@Partition_

; 8278 :     }
; 8279 : 
; 8280 :     while (_Plast < _Last && !_DEBUG_LT_PRED(_Pred, *_Plast, *_Pfirst) && !_Pred(*_Pfirst, *_Plast)) {

  00114	eb 03		 jmp	 SHORT $LN90@Partition_
$LN94@Partition_:
  00116	8b 45 10	 mov	 eax, DWORD PTR __Last$[ebp]
$LN90@Partition_:
  00119	89 5d fc	 mov	 DWORD PTR __Plast$1$[ebp], ebx
$LN5@Partition_:

; 8282 :     }
; 8283 : 
; 8284 :     _RanIt _Gfirst = _Plast;

  0011c	8b fb		 mov	 edi, ebx

; 8285 :     _RanIt _Glast  = _Pfirst;

  0011e	8b d6		 mov	 edx, esi
$LN120@Partition_:

; 8288 :         for (; _Gfirst < _Last; ++_Gfirst) {

  00120	89 55 f8	 mov	 DWORD PTR __Glast$1$[ebp], edx
$LN119@Partition_:
  00123	89 7d f4	 mov	 DWORD PTR __Gfirst$1$[ebp], edi
$LL8@Partition_:
  00126	3b f8		 cmp	 edi, eax
  00128	73 52		 jae	 SHORT $LN68@Partition_
  0012a	66 0f 1f 44 00
	00		 npad	 6
$LL11@Partition_:

; 8289 :             if (_DEBUG_LT_PRED(_Pred, *_Pfirst, *_Gfirst)) {

  00130	57		 push	 edi
  00131	56		 push	 esi
  00132	ff 55 14	 call	 DWORD PTR __Pred$[ebp]
  00135	83 c4 08	 add	 esp, 8
  00138	84 c0		 test	 al, al
  0013a	75 2f		 jne	 SHORT $LN9@Partition_

; 8290 :                 continue;
; 8291 :             } else if (_Pred(*_Gfirst, *_Pfirst)) {

  0013c	56		 push	 esi
  0013d	57		 push	 edi
  0013e	ff 55 14	 call	 DWORD PTR __Pred$[ebp]
  00141	83 c4 08	 add	 esp, 8
  00144	84 c0		 test	 al, al
  00146	75 2b		 jne	 SHORT $LN91@Partition_

; 8292 :                 break;
; 8293 :             } else if (_Plast != _Gfirst) {

  00148	3b df		 cmp	 ebx, edi
  0014a	74 1c		 je	 SHORT $LN19@Partition_
; File D:\Program Files\Microsoft Visual Studio\2022\Community\VC\Tools\MSVC\14.43.34808\include\utility

; 140  :     _Left    = _STD move(_Right);

  0014c	f3 0f 7e 07	 movq	 xmm0, QWORD PTR [edi]
  00150	f3 0f 7e 0b	 movq	 xmm1, QWORD PTR [ebx]
  00154	8b 4b 08	 mov	 ecx, DWORD PTR [ebx+8]
  00157	66 0f d6 03	 movq	 QWORD PTR [ebx], xmm0
  0015b	8b 47 08	 mov	 eax, DWORD PTR [edi+8]
  0015e	89 43 08	 mov	 DWORD PTR [ebx+8], eax

; 141  :     _Right   = _STD move(_Tmp);

  00161	66 0f d6 0f	 movq	 QWORD PTR [edi], xmm1
  00165	89 4f 08	 mov	 DWORD PTR [edi+8], ecx
$LN19@Partition_:
; File D:\Program Files\Microsoft Visual Studio\2022\Community\VC\Tools\MSVC\14.43.34808\include\algorithm

; 8288 :         for (; _Gfirst < _Last; ++_Gfirst) {

  00168	83 c3 0c	 add	 ebx, 12			; 0000000cH
$LN9@Partition_:
  0016b	83 c7 0c	 add	 edi, 12			; 0000000cH
  0016e	3b 7d 10	 cmp	 edi, DWORD PTR __Last$[ebp]
  00171	72 bd		 jb	 SHORT $LL11@Partition_
$LN91@Partition_:
  00173	8b 55 f8	 mov	 edx, DWORD PTR __Glast$1$[ebp]
  00176	89 5d fc	 mov	 DWORD PTR __Plast$1$[ebp], ebx
  00179	89 7d f4	 mov	 DWORD PTR __Gfirst$1$[ebp], edi
$LN68@Partition_:

; 8301 :         for (; _First < _Glast; --_Glast) {

  0017c	8b 45 0c	 mov	 eax, DWORD PTR __First$[ebp]
  0017f	3b d0		 cmp	 edx, eax
  00181	76 68		 jbe	 SHORT $LN118@Partition_
  00183	8b 5d f8	 mov	 ebx, DWORD PTR __Glast$1$[ebp]
  00186	8d 7b f4	 lea	 edi, DWORD PTR [ebx-12]
  00189	0f 1f 80 00 00
	00 00		 npad	 7
$LL14@Partition_:

; 8302 :             const auto _Glast_prev = _STD _Prev_iter(_Glast);
; 8303 :             if (_DEBUG_LT_PRED(_Pred, *_Glast_prev, *_Pfirst)) {

  00190	56		 push	 esi
  00191	57		 push	 edi
  00192	ff 55 14	 call	 DWORD PTR __Pred$[ebp]
  00195	83 c4 08	 add	 esp, 8
  00198	84 c0		 test	 al, al
  0019a	75 2f		 jne	 SHORT $LN12@Partition_

; 8304 :                 continue;
; 8305 :             } else if (_Pred(*_Pfirst, *_Glast_prev)) {

  0019c	57		 push	 edi
  0019d	56		 push	 esi
  0019e	ff 55 14	 call	 DWORD PTR __Pred$[ebp]
  001a1	83 c4 08	 add	 esp, 8
  001a4	84 c0		 test	 al, al
  001a6	75 32		 jne	 SHORT $LN95@Partition_

; 8306 :                 break;
; 8307 :             } else if (--_Pfirst != _Glast_prev) {

  001a8	83 ee 0c	 sub	 esi, 12			; 0000000cH
  001ab	3b f7		 cmp	 esi, edi
  001ad	74 1c		 je	 SHORT $LN12@Partition_
; File D:\Program Files\Microsoft Visual Studio\2022\Community\VC\Tools\MSVC\14.43.34808\include\utility

; 140  :     _Left    = _STD move(_Right);

  001af	f3 0f 7e 07	 movq	 xmm0, QWORD PTR [edi]
  001b3	f3 0f 7e 0e	 movq	 xmm1, QWORD PTR [esi]
  001b7	8b 4e 08	 mov	 ecx, DWORD PTR [esi+8]
  001ba	66 0f d6 06	 movq	 QWORD PTR [esi], xmm0
  001be	8b 47 08	 mov	 eax, DWORD PTR [edi+8]
  001c1	89 46 08	 mov	 DWORD PTR [esi+8], eax

; 141  :     _Right   = _STD move(_Tmp);

  001c4	66 0f d6 0f	 movq	 QWORD PTR [edi], xmm1
  001c8	89 4f 08	 mov	 DWORD PTR [edi+8], ecx
$LN12@Partition_:
; File D:\Program Files\Microsoft Visual Studio\2022\Community\VC\Tools\MSVC\14.43.34808\include\algorithm

; 8301 :         for (; _First < _Glast; --_Glast) {

  001cb	8b 45 0c	 mov	 eax, DWORD PTR __First$[ebp]
  001ce	83 eb 0c	 sub	 ebx, 12			; 0000000cH
  001d1	83 ef 0c	 sub	 edi, 12			; 0000000cH
  001d4	3b c3		 cmp	 eax, ebx
  001d6	72 b8		 jb	 SHORT $LL14@Partition_

; 8304 :                 continue;
; 8305 :             } else if (_Pred(*_Pfirst, *_Glast_prev)) {

  001d8	eb 03		 jmp	 SHORT $LN92@Partition_
$LN95@Partition_:
  001da	8b 45 0c	 mov	 eax, DWORD PTR __First$[ebp]
$LN92@Partition_:
  001dd	8b 7d f4	 mov	 edi, DWORD PTR __Gfirst$1$[ebp]
  001e0	89 5d f8	 mov	 DWORD PTR __Glast$1$[ebp], ebx
  001e3	8b 55 f8	 mov	 edx, DWORD PTR __Glast$1$[ebp]

; 8308 :                 swap(*_Pfirst, *_Glast_prev); // intentional ADL
; 8309 :             }
; 8310 :         }
; 8311 : 
; 8312 :         if (_Glast == _First && _Gfirst == _Last) {

  001e6	3b d0		 cmp	 edx, eax
  001e8	8b 5d fc	 mov	 ebx, DWORD PTR __Plast$1$[ebp]
$LN118@Partition_:
  001eb	75 59		 jne	 SHORT $LN27@Partition_
  001ed	3b 7d 10	 cmp	 edi, DWORD PTR __Last$[ebp]
  001f0	0f 84 d0 00 00
	00		 je	 $LN70@Partition_

; 8314 :         }
; 8315 : 
; 8316 :         if (_Glast == _First) { // no room at bottom, rotate pivot upward
; 8317 :             if (_Plast != _Gfirst) {

  001f6	3b df		 cmp	 ebx, edi
  001f8	74 1c		 je	 SHORT $LN41@Partition_
; File D:\Program Files\Microsoft Visual Studio\2022\Community\VC\Tools\MSVC\14.43.34808\include\utility

; 140  :     _Left    = _STD move(_Right);

  001fa	f3 0f 7e 03	 movq	 xmm0, QWORD PTR [ebx]
  001fe	f3 0f 7e 0e	 movq	 xmm1, QWORD PTR [esi]
  00202	8b 4e 08	 mov	 ecx, DWORD PTR [esi+8]
  00205	66 0f d6 06	 movq	 QWORD PTR [esi], xmm0
  00209	8b 43 08	 mov	 eax, DWORD PTR [ebx+8]
  0020c	89 46 08	 mov	 DWORD PTR [esi+8], eax

; 141  :     _Right   = _STD move(_Tmp);

  0020f	66 0f d6 0b	 movq	 QWORD PTR [ebx], xmm1
  00213	89 4b 08	 mov	 DWORD PTR [ebx+8], ecx
$LN41@Partition_:

; 140  :     _Left    = _STD move(_Right);

  00216	f3 0f 7e 07	 movq	 xmm0, QWORD PTR [edi]
; File D:\Program Files\Microsoft Visual Studio\2022\Community\VC\Tools\MSVC\14.43.34808\include\algorithm

; 8321 :             ++_Plast;

  0021a	83 c3 0c	 add	 ebx, 12			; 0000000cH
; File D:\Program Files\Microsoft Visual Studio\2022\Community\VC\Tools\MSVC\14.43.34808\include\utility

; 139  :     _Ty _Tmp = _STD move(_Left);

  0021d	f3 0f 7e 0e	 movq	 xmm1, QWORD PTR [esi]
  00221	8b 4e 08	 mov	 ecx, DWORD PTR [esi+8]

; 140  :     _Left    = _STD move(_Right);

  00224	66 0f d6 06	 movq	 QWORD PTR [esi], xmm0
  00228	8b 47 08	 mov	 eax, DWORD PTR [edi+8]
  0022b	89 46 08	 mov	 DWORD PTR [esi+8], eax
; File D:\Program Files\Microsoft Visual Studio\2022\Community\VC\Tools\MSVC\14.43.34808\include\algorithm

; 8323 :             ++_Pfirst;

  0022e	83 c6 0c	 add	 esi, 12			; 0000000cH

; 8324 :             ++_Gfirst;

  00231	8b 45 10	 mov	 eax, DWORD PTR __Last$[ebp]
; File D:\Program Files\Microsoft Visual Studio\2022\Community\VC\Tools\MSVC\14.43.34808\include\utility

; 141  :     _Right   = _STD move(_Tmp);

  00234	66 0f d6 0f	 movq	 QWORD PTR [edi], xmm1
  00238	89 4f 08	 mov	 DWORD PTR [edi+8], ecx
; File D:\Program Files\Microsoft Visual Studio\2022\Community\VC\Tools\MSVC\14.43.34808\include\algorithm

; 8324 :             ++_Gfirst;

  0023b	83 c7 0c	 add	 edi, 12			; 0000000cH
  0023e	89 5d fc	 mov	 DWORD PTR __Plast$1$[ebp], ebx
  00241	e9 dd fe ff ff	 jmp	 $LN119@Partition_
$LN27@Partition_:

; 8325 :         } else if (_Gfirst == _Last) { // no room at top, rotate pivot downward

  00246	83 c2 f4	 add	 edx, -12		; fffffff4H
  00249	89 55 f8	 mov	 DWORD PTR __Glast$1$[ebp], edx
  0024c	3b 7d 10	 cmp	 edi, DWORD PTR __Last$[ebp]
  0024f	75 4e		 jne	 SHORT $LN30@Partition_

; 8326 :             if (--_Glast != --_Pfirst) {

  00251	83 ee 0c	 sub	 esi, 12			; 0000000cH
  00254	3b d6		 cmp	 edx, esi
  00256	74 1c		 je	 SHORT $LN53@Partition_
; File D:\Program Files\Microsoft Visual Studio\2022\Community\VC\Tools\MSVC\14.43.34808\include\utility

; 140  :     _Left    = _STD move(_Right);

  00258	f3 0f 7e 06	 movq	 xmm0, QWORD PTR [esi]
  0025c	f3 0f 7e 0a	 movq	 xmm1, QWORD PTR [edx]
  00260	8b 4a 08	 mov	 ecx, DWORD PTR [edx+8]
  00263	66 0f d6 02	 movq	 QWORD PTR [edx], xmm0
  00267	8b 46 08	 mov	 eax, DWORD PTR [esi+8]
  0026a	89 42 08	 mov	 DWORD PTR [edx+8], eax

; 141  :     _Right   = _STD move(_Tmp);

  0026d	66 0f d6 0e	 movq	 QWORD PTR [esi], xmm1
  00271	89 4e 08	 mov	 DWORD PTR [esi+8], ecx
$LN53@Partition_:

; 140  :     _Left    = _STD move(_Right);

  00274	f3 0f 7e 43 f4	 movq	 xmm0, QWORD PTR [ebx-12]
; File D:\Program Files\Microsoft Visual Studio\2022\Community\VC\Tools\MSVC\14.43.34808\include\algorithm

; 8330 :             swap(*_Pfirst, *--_Plast); // intentional ADL

  00279	83 eb 0c	 sub	 ebx, 12			; 0000000cH
; File D:\Program Files\Microsoft Visual Studio\2022\Community\VC\Tools\MSVC\14.43.34808\include\utility

; 139  :     _Ty _Tmp = _STD move(_Left);

  0027c	f3 0f 7e 0e	 movq	 xmm1, QWORD PTR [esi]
  00280	8b 4e 08	 mov	 ecx, DWORD PTR [esi+8]

; 140  :     _Left    = _STD move(_Right);

  00283	66 0f d6 06	 movq	 QWORD PTR [esi], xmm0
  00287	8b 43 08	 mov	 eax, DWORD PTR [ebx+8]
  0028a	89 46 08	 mov	 DWORD PTR [esi+8], eax
; File D:\Program Files\Microsoft Visual Studio\2022\Community\VC\Tools\MSVC\14.43.34808\include\algorithm

; 8331 :         } else {

  0028d	8b 45 10	 mov	 eax, DWORD PTR __Last$[ebp]
; File D:\Program Files\Microsoft Visual Studio\2022\Community\VC\Tools\MSVC\14.43.34808\include\utility

; 141  :     _Right   = _STD move(_Tmp);

  00290	66 0f d6 0b	 movq	 QWORD PTR [ebx], xmm1
; File D:\Program Files\Microsoft Visual Studio\2022\Community\VC\Tools\MSVC\14.43.34808\include\algorithm

; 8330 :             swap(*_Pfirst, *--_Plast); // intentional ADL

  00294	89 5d fc	 mov	 DWORD PTR __Plast$1$[ebp], ebx
; File D:\Program Files\Microsoft Visual Studio\2022\Community\VC\Tools\MSVC\14.43.34808\include\utility

; 141  :     _Right   = _STD move(_Tmp);

  00297	89 4b 08	 mov	 DWORD PTR [ebx+8], ecx
; File D:\Program Files\Microsoft Visual Studio\2022\Community\VC\Tools\MSVC\14.43.34808\include\algorithm

; 8331 :         } else {

  0029a	e9 87 fe ff ff	 jmp	 $LL8@Partition_
$LN30@Partition_:
; File D:\Program Files\Microsoft Visual Studio\2022\Community\VC\Tools\MSVC\14.43.34808\include\utility

; 139  :     _Ty _Tmp = _STD move(_Left);

  0029f	f3 0f 7e 0f	 movq	 xmm1, QWORD PTR [edi]
  002a3	8b 4f 08	 mov	 ecx, DWORD PTR [edi+8]

; 140  :     _Left    = _STD move(_Right);

  002a6	f3 0f 7e 02	 movq	 xmm0, QWORD PTR [edx]
  002aa	66 0f d6 07	 movq	 QWORD PTR [edi], xmm0
  002ae	8b 42 08	 mov	 eax, DWORD PTR [edx+8]
  002b1	89 47 08	 mov	 DWORD PTR [edi+8], eax
; File D:\Program Files\Microsoft Visual Studio\2022\Community\VC\Tools\MSVC\14.43.34808\include\algorithm

; 8333 :             ++_Gfirst;

  002b4	83 c7 0c	 add	 edi, 12			; 0000000cH
  002b7	8b 45 10	 mov	 eax, DWORD PTR __Last$[ebp]
; File D:\Program Files\Microsoft Visual Studio\2022\Community\VC\Tools\MSVC\14.43.34808\include\utility

; 141  :     _Right   = _STD move(_Tmp);

  002ba	66 0f d6 0a	 movq	 QWORD PTR [edx], xmm1
  002be	89 4a 08	 mov	 DWORD PTR [edx+8], ecx
  002c1	e9 5a fe ff ff	 jmp	 $LN120@Partition_
$LN70@Partition_:

; 274  :         : first(_STD forward<_Other1>(_Val1)), second(_STD forward<_Other2>(_Val2)) {

  002c6	8b 45 08	 mov	 eax, DWORD PTR ___$ReturnUdt$[ebp]
; File D:\Program Files\Microsoft Visual Studio\2022\Community\VC\Tools\MSVC\14.43.34808\include\algorithm

; 8313 :             return pair<_RanIt, _RanIt>(_Pfirst, _Plast);

  002c9	5f		 pop	 edi
; File D:\Program Files\Microsoft Visual Studio\2022\Community\VC\Tools\MSVC\14.43.34808\include\utility

; 274  :         : first(_STD forward<_Other1>(_Val1)), second(_STD forward<_Other2>(_Val2)) {

  002ca	89 30		 mov	 DWORD PTR [eax], esi
; File D:\Program Files\Microsoft Visual Studio\2022\Community\VC\Tools\MSVC\14.43.34808\include\algorithm

; 8313 :             return pair<_RanIt, _RanIt>(_Pfirst, _Plast);

  002cc	5e		 pop	 esi
; File D:\Program Files\Microsoft Visual Studio\2022\Community\VC\Tools\MSVC\14.43.34808\include\utility

; 274  :         : first(_STD forward<_Other1>(_Val1)), second(_STD forward<_Other2>(_Val2)) {

  002cd	89 58 04	 mov	 DWORD PTR [eax+4], ebx
; File D:\Program Files\Microsoft Visual Studio\2022\Community\VC\Tools\MSVC\14.43.34808\include\algorithm

; 8313 :             return pair<_RanIt, _RanIt>(_Pfirst, _Plast);

  002d0	5b		 pop	 ebx

; 8334 :         }
; 8335 :     }
; 8336 : }

  002d1	8b e5		 mov	 esp, ebp
  002d3	5d		 pop	 ebp
  002d4	c3		 ret	 0
??$_Partition_by_median_guess_unchecked@PAUSDumpData@@P6A_NABU1@0@Z@std@@YA?AU?$pair@PAUSDumpData@@PAU1@@0@PAUSDumpData@@0P6A_NABU2@1@Z@Z ENDP ; std::_Partition_by_median_guess_unchecked<SDumpData *,bool (__cdecl*)(SDumpData const &,SDumpData const &)>
_TEXT	ENDS
; Function compile flags: /Ogtp
; File D:\Program Files\Microsoft Visual Studio\2022\Community\VC\Tools\MSVC\14.43.34808\include\__msvc_heap_algorithms.hpp
;	COMDAT ??$_Make_heap_unchecked@PAUSDumpData@@P6A_NABU1@0@Z@std@@YAXPAUSDumpData@@0P6A_NABU1@1@Z@Z
_TEXT	SEGMENT
__Val$1 = -32						; size = 12
tv273 = -20						; size = 4
tv295 = -16						; size = 4
__Idx$1$ = -12						; size = 4
__Max_sequence_non_leaf$1$ = -8				; size = 4
__Bottom$1$ = -4					; size = 4
__First$ = 8						; size = 4
__Last$ = 12						; size = 4
__Hole$1$ = 12						; size = 4
__Pred$ = 16						; size = 4
??$_Make_heap_unchecked@PAUSDumpData@@P6A_NABU1@0@Z@std@@YAXPAUSDumpData@@0P6A_NABU1@1@Z@Z PROC ; std::_Make_heap_unchecked<SDumpData *,bool (__cdecl*)(SDumpData const &,SDumpData const &)>, COMDAT

; 121  : _CONSTEXPR20 void _Make_heap_unchecked(_RanIt _First, _RanIt _Last, _Pr _Pred) {

  00000	55		 push	 ebp
  00001	8b ec		 mov	 ebp, esp
  00003	83 ec 20	 sub	 esp, 32			; 00000020H

; 122  :     // make [_First, _Last) into a heap
; 123  :     using _Diff   = _Iter_diff_t<_RanIt>;
; 124  :     _Diff _Bottom = _Last - _First;

  00006	8b 4d 0c	 mov	 ecx, DWORD PTR __Last$[ebp]
  00009	b8 ab aa aa 2a	 mov	 eax, 715827883		; 2aaaaaabH
  0000e	53		 push	 ebx
  0000f	8b 5d 08	 mov	 ebx, DWORD PTR __First$[ebp]
  00012	2b cb		 sub	 ecx, ebx
  00014	f7 e9		 imul	 ecx
  00016	56		 push	 esi
  00017	d1 fa		 sar	 edx, 1
  00019	8b ca		 mov	 ecx, edx
  0001b	c1 e9 1f	 shr	 ecx, 31			; 0000001fH
  0001e	03 ca		 add	 ecx, edx

; 125  :     for (_Diff _Hole = _Bottom >> 1; _Hole > 0;) { // shift for codegen

  00020	8b f1		 mov	 esi, ecx
  00022	89 4d fc	 mov	 DWORD PTR __Bottom$1$[ebp], ecx
  00025	d1 fe		 sar	 esi, 1
  00027	85 f6		 test	 esi, esi
  00029	0f 8e 19 01 00
	00		 jle	 $LN3@Make_heap_

; 122  :     // make [_First, _Last) into a heap
; 123  :     using _Diff   = _Iter_diff_t<_RanIt>;
; 124  :     _Diff _Bottom = _Last - _First;

  0002f	8d 41 ff	 lea	 eax, DWORD PTR [ecx-1]
  00032	8b d0		 mov	 edx, eax
  00034	89 45 f0	 mov	 DWORD PTR tv295[ebp], eax
  00037	d1 fa		 sar	 edx, 1
  00039	8d 04 76	 lea	 eax, DWORD PTR [esi+esi*2]
  0003c	89 55 f8	 mov	 DWORD PTR __Max_sequence_non_leaf$1$[ebp], edx
  0003f	8d 04 83	 lea	 eax, DWORD PTR [ebx+eax*4]
  00042	57		 push	 edi
$LL4@Make_heap_:

; 126  :         // reheap top half, bottom to top
; 127  :         --_Hole;
; 128  :         _Iter_value_t<_RanIt> _Val(_STD move(*(_First + _Hole)));

  00043	f3 0f 7e 40 f4	 movq	 xmm0, QWORD PTR [eax-12]
  00048	83 e8 0c	 sub	 eax, 12			; 0000000cH
  0004b	4e		 dec	 esi
  0004c	89 45 ec	 mov	 DWORD PTR tv273[ebp], eax
  0004f	89 75 0c	 mov	 DWORD PTR __Hole$1$[ebp], esi

; 129  :         _STD _Pop_heap_hole_by_index(_First, _Hole, _Bottom, _STD move(_Val), _Pred);

  00052	8b fe		 mov	 edi, esi
  00054	66 0f d6 45 e0	 movq	 QWORD PTR __Val$1[ebp], xmm0
  00059	8b 40 08	 mov	 eax, DWORD PTR [eax+8]
  0005c	89 45 e8	 mov	 DWORD PTR __Val$1[ebp+8], eax

; 64   :     _Diff _Idx       = _Hole;

  0005f	89 75 f4	 mov	 DWORD PTR __Idx$1$[ebp], esi

; 65   : 
; 66   :     // Check whether _Idx can have a child before calculating that child's index, since
; 67   :     // calculating the child's index can trigger integer overflows
; 68   :     const _Diff _Max_sequence_non_leaf = (_Bottom - 1) >> 1; // shift for codegen
; 69   :     while (_Idx < _Max_sequence_non_leaf) { // move _Hole down to larger child

  00062	3b f2		 cmp	 esi, edx
  00064	7d 4c		 jge	 SHORT $LN8@Make_heap_
$LL7@Make_heap_:

; 70   :         _Idx = 2 * _Idx + 2;

  00066	03 f6		 add	 esi, esi

; 71   :         if (_DEBUG_LT_PRED(_Pred, *(_First + _Idx), *(_First + (_Idx - 1)))) {

  00068	8d 46 02	 lea	 eax, DWORD PTR [esi+2]
  0006b	8d 04 40	 lea	 eax, DWORD PTR [eax+eax*2]
  0006e	8d 0c 83	 lea	 ecx, DWORD PTR [ebx+eax*4]
  00071	8d 41 f4	 lea	 eax, DWORD PTR [ecx-12]
  00074	50		 push	 eax
  00075	51		 push	 ecx
  00076	ff 55 10	 call	 DWORD PTR __Pred$[ebp]

; 72   :             --_Idx;
; 73   :         }
; 74   :         *(_First + _Hole) = _STD move(*(_First + _Idx));

  00079	0f b6 c0	 movzx	 eax, al
  0007c	83 c4 08	 add	 esp, 8
  0007f	f7 d8		 neg	 eax
  00081	1b c0		 sbb	 eax, eax
  00083	83 c0 02	 add	 eax, 2
  00086	03 f0		 add	 esi, eax
  00088	8d 04 76	 lea	 eax, DWORD PTR [esi+esi*2]
  0008b	f3 0f 7e 04 83	 movq	 xmm0, QWORD PTR [ebx+eax*4]
  00090	8d 14 83	 lea	 edx, DWORD PTR [ebx+eax*4]
  00093	8d 04 7f	 lea	 eax, DWORD PTR [edi+edi*2]

; 75   :         _Hole             = _Idx;

  00096	8b fe		 mov	 edi, esi
  00098	8d 0c 83	 lea	 ecx, DWORD PTR [ebx+eax*4]
  0009b	66 0f d6 01	 movq	 QWORD PTR [ecx], xmm0
  0009f	8b 42 08	 mov	 eax, DWORD PTR [edx+8]
  000a2	8b 55 f8	 mov	 edx, DWORD PTR __Max_sequence_non_leaf$1$[ebp]
  000a5	89 41 08	 mov	 DWORD PTR [ecx+8], eax
  000a8	3b f2		 cmp	 esi, edx
  000aa	7c ba		 jl	 SHORT $LL7@Make_heap_
  000ac	8b 75 0c	 mov	 esi, DWORD PTR __Hole$1$[ebp]
  000af	8b 4d fc	 mov	 ecx, DWORD PTR __Bottom$1$[ebp]
$LN8@Make_heap_:

; 76   :     }
; 77   : 
; 78   :     if (_Idx == _Max_sequence_non_leaf && _Bottom % 2 == 0) { // only child at bottom, move _Hole down to it

  000b2	3b fa		 cmp	 edi, edx
  000b4	75 24		 jne	 SHORT $LN10@Make_heap_
  000b6	f6 c1 01	 test	 cl, 1
  000b9	75 1f		 jne	 SHORT $LN10@Make_heap_

; 79   :         *(_First + _Hole) = _STD move(*(_First + (_Bottom - 1)));

  000bb	8d 04 49	 lea	 eax, DWORD PTR [ecx+ecx*2]
  000be	f3 0f 7e 44 83
	f4		 movq	 xmm0, QWORD PTR [ebx+eax*4-12]
  000c4	8d 14 83	 lea	 edx, DWORD PTR [ebx+eax*4]
  000c7	8d 04 7f	 lea	 eax, DWORD PTR [edi+edi*2]

; 80   :         _Hole             = _Bottom - 1;

  000ca	8b 7d f0	 mov	 edi, DWORD PTR tv295[ebp]
  000cd	8d 0c 83	 lea	 ecx, DWORD PTR [ebx+eax*4]
  000d0	66 0f d6 01	 movq	 QWORD PTR [ecx], xmm0
  000d4	8b 42 fc	 mov	 eax, DWORD PTR [edx-4]
  000d7	89 41 08	 mov	 DWORD PTR [ecx+8], eax
$LN10@Make_heap_:

; 27   :          _Top < _Hole && _DEBUG_LT_PRED(_Pred, *(_First + _Idx), _Val); _Idx = (_Hole - 1) >> 1) { // shift for codegen

  000da	3b f7		 cmp	 esi, edi
  000dc	7d 43		 jge	 SHORT $LN29@Make_heap_
  000de	66 90		 npad	 2
$LL15@Make_heap_:

; 26   :     for (_Diff _Idx                                                          = (_Hole - 1) >> 1; // shift for codegen

  000e0	8d 77 ff	 lea	 esi, DWORD PTR [edi-1]
  000e3	d1 fe		 sar	 esi, 1

; 27   :          _Top < _Hole && _DEBUG_LT_PRED(_Pred, *(_First + _Idx), _Val); _Idx = (_Hole - 1) >> 1) { // shift for codegen

  000e5	8d 04 76	 lea	 eax, DWORD PTR [esi+esi*2]
  000e8	8d 1c 83	 lea	 ebx, DWORD PTR [ebx+eax*4]
  000eb	8d 45 e0	 lea	 eax, DWORD PTR __Val$1[ebp]
  000ee	50		 push	 eax
  000ef	53		 push	 ebx
  000f0	ff 55 10	 call	 DWORD PTR __Pred$[ebp]
  000f3	83 c4 08	 add	 esp, 8
  000f6	84 c0		 test	 al, al
  000f8	74 21		 je	 SHORT $LN30@Make_heap_

; 28   :         // move _Hole up to parent
; 29   :         *(_First + _Hole) = _STD move(*(_First + _Idx));

  000fa	8d 04 7f	 lea	 eax, DWORD PTR [edi+edi*2]
  000fd	8b 4d 08	 mov	 ecx, DWORD PTR __First$[ebp]
  00100	8d 0c 81	 lea	 ecx, DWORD PTR [ecx+eax*4]
  00103	f3 0f 7e 03	 movq	 xmm0, QWORD PTR [ebx]

; 30   :         _Hole             = _Idx;

  00107	8b fe		 mov	 edi, esi
  00109	66 0f d6 01	 movq	 QWORD PTR [ecx], xmm0
  0010d	8b 43 08	 mov	 eax, DWORD PTR [ebx+8]
  00110	8b 5d 08	 mov	 ebx, DWORD PTR __First$[ebp]
  00113	89 41 08	 mov	 DWORD PTR [ecx+8], eax
  00116	39 75 0c	 cmp	 DWORD PTR __Hole$1$[ebp], esi
  00119	7c c5		 jl	 SHORT $LL15@Make_heap_
$LN30@Make_heap_:
  0011b	8b 5d 08	 mov	 ebx, DWORD PTR __First$[ebp]
  0011e	8b 75 0c	 mov	 esi, DWORD PTR __Hole$1$[ebp]
$LN29@Make_heap_:

; 31   :     }
; 32   : 
; 33   :     *(_First + _Hole) = _STD forward<_Ty>(_Val); // drop _Val into final hole

  00121	f3 0f 7e 45 e0	 movq	 xmm0, QWORD PTR __Val$1[ebp]
  00126	8d 04 7f	 lea	 eax, DWORD PTR [edi+edi*2]

; 125  :     for (_Diff _Hole = _Bottom >> 1; _Hole > 0;) { // shift for codegen

  00129	8b 55 f8	 mov	 edx, DWORD PTR __Max_sequence_non_leaf$1$[ebp]

; 33   :     *(_First + _Hole) = _STD forward<_Ty>(_Val); // drop _Val into final hole

  0012c	8d 0c 83	 lea	 ecx, DWORD PTR [ebx+eax*4]
  0012f	8b 45 e8	 mov	 eax, DWORD PTR __Val$1[ebp+8]
  00132	66 0f d6 01	 movq	 QWORD PTR [ecx], xmm0
  00136	89 41 08	 mov	 DWORD PTR [ecx+8], eax

; 125  :     for (_Diff _Hole = _Bottom >> 1; _Hole > 0;) { // shift for codegen

  00139	8b 4d fc	 mov	 ecx, DWORD PTR __Bottom$1$[ebp]
  0013c	8b 45 ec	 mov	 eax, DWORD PTR tv273[ebp]
  0013f	85 f6		 test	 esi, esi
  00141	0f 8f fc fe ff
	ff		 jg	 $LL4@Make_heap_
  00147	5f		 pop	 edi
$LN3@Make_heap_:
  00148	5e		 pop	 esi

; 130  :     }
; 131  : }

  00149	5b		 pop	 ebx
  0014a	8b e5		 mov	 esp, ebp
  0014c	5d		 pop	 ebp
  0014d	c3		 ret	 0
??$_Make_heap_unchecked@PAUSDumpData@@P6A_NABU1@0@Z@std@@YAXPAUSDumpData@@0P6A_NABU1@1@Z@Z ENDP ; std::_Make_heap_unchecked<SDumpData *,bool (__cdecl*)(SDumpData const &,SDumpData const &)>
_TEXT	ENDS
; Function compile flags: /Ogtp
; File D:\Program Files\Microsoft Visual Studio\2022\Community\VC\Tools\MSVC\14.43.34808\include\xmemory
;	COMDAT ??1?$_Alloc_construct_ptr@V?$allocator@U?$_Tree_node@U?$pair@$$CBJPAVCResource@@@std@@PAX@std@@@std@@@std@@QAE@XZ
_TEXT	SEGMENT
??1?$_Alloc_construct_ptr@V?$allocator@U?$_Tree_node@U?$pair@$$CBJPAVCResource@@@std@@PAX@std@@@std@@@std@@QAE@XZ PROC ; std::_Alloc_construct_ptr<std::allocator<std::_Tree_node<std::pair<long const ,CResource *>,void *> > >::~_Alloc_construct_ptr<std::allocator<std::_Tree_node<std::pair<long const ,CResource *>,void *> > >, COMDAT
; _this$ = ecx

; 1168 :         if (_Ptr) {

  00000	8b 41 04	 mov	 eax, DWORD PTR [ecx+4]
  00003	85 c0		 test	 eax, eax
  00005	74 0b		 je	 SHORT $LN10@Alloc_cons

; 289  :         ::operator delete(_Ptr, _Bytes);

  00007	6a 18		 push	 24			; 00000018H
  00009	50		 push	 eax
  0000a	e8 00 00 00 00	 call	 ??3@YAXPAXI@Z		; operator delete
  0000f	83 c4 08	 add	 esp, 8
$LN10@Alloc_cons:

; 1169 :             _Al.deallocate(_Ptr, 1);
; 1170 :         }
; 1171 :     }

  00012	c3		 ret	 0
??1?$_Alloc_construct_ptr@V?$allocator@U?$_Tree_node@U?$pair@$$CBJPAVCResource@@@std@@PAX@std@@@std@@@std@@QAE@XZ ENDP ; std::_Alloc_construct_ptr<std::allocator<std::_Tree_node<std::pair<long const ,CResource *>,void *> > >::~_Alloc_construct_ptr<std::allocator<std::_Tree_node<std::pair<long const ,CResource *>,void *> > >
_TEXT	ENDS
; Function compile flags: /Ogtp
; File D:\Program Files\Microsoft Visual Studio\2022\Community\VC\Tools\MSVC\14.43.34808\include\xmemory
;	COMDAT ??1?$_Alloc_construct_ptr@V?$allocator@U?$_Tree_node@U?$pair@$$CBKV?$basic_string@DU?$char_traits@D@std@@V?$allocator@D@2@@std@@@std@@PAX@std@@@std@@@std@@QAE@XZ
_TEXT	SEGMENT
??1?$_Alloc_construct_ptr@V?$allocator@U?$_Tree_node@U?$pair@$$CBKV?$basic_string@DU?$char_traits@D@std@@V?$allocator@D@2@@std@@@std@@PAX@std@@@std@@@std@@QAE@XZ PROC ; std::_Alloc_construct_ptr<std::allocator<std::_Tree_node<std::pair<unsigned long const ,std::basic_string<char,std::char_traits<char>,std::allocator<char> > >,void *> > >::~_Alloc_construct_ptr<std::allocator<std::_Tree_node<std::pair<unsigned long const ,std::basic_string<char,std::char_traits<char>,std::allocator<char> > >,void *> > >, COMDAT
; _this$ = ecx

; 1168 :         if (_Ptr) {

  00000	8b 41 04	 mov	 eax, DWORD PTR [ecx+4]
  00003	85 c0		 test	 eax, eax
  00005	74 0b		 je	 SHORT $LN10@Alloc_cons

; 289  :         ::operator delete(_Ptr, _Bytes);

  00007	6a 2c		 push	 44			; 0000002cH
  00009	50		 push	 eax
  0000a	e8 00 00 00 00	 call	 ??3@YAXPAXI@Z		; operator delete
  0000f	83 c4 08	 add	 esp, 8
$LN10@Alloc_cons:

; 1169 :             _Al.deallocate(_Ptr, 1);
; 1170 :         }
; 1171 :     }

  00012	c3		 ret	 0
??1?$_Alloc_construct_ptr@V?$allocator@U?$_Tree_node@U?$pair@$$CBKV?$basic_string@DU?$char_traits@D@std@@V?$allocator@D@2@@std@@@std@@PAX@std@@@std@@@std@@QAE@XZ ENDP ; std::_Alloc_construct_ptr<std::allocator<std::_Tree_node<std::pair<unsigned long const ,std::basic_string<char,std::char_traits<char>,std::allocator<char> > >,void *> > >::~_Alloc_construct_ptr<std::allocator<std::_Tree_node<std::pair<unsigned long const ,std::basic_string<char,std::char_traits<char>,std::allocator<char> > >,void *> > >
_TEXT	ENDS
; Function compile flags: /Ogtp
; File D:\Program Files\Microsoft Visual Studio\2022\Community\VC\Tools\MSVC\14.43.34808\include\xmemory
;	COMDAT ??1?$_Alloc_construct_ptr@V?$allocator@U?$_Tree_node@U?$pair@$$CBKPAVCResource@@@std@@PAX@std@@@std@@@std@@QAE@XZ
_TEXT	SEGMENT
??1?$_Alloc_construct_ptr@V?$allocator@U?$_Tree_node@U?$pair@$$CBKPAVCResource@@@std@@PAX@std@@@std@@@std@@QAE@XZ PROC ; std::_Alloc_construct_ptr<std::allocator<std::_Tree_node<std::pair<unsigned long const ,CResource *>,void *> > >::~_Alloc_construct_ptr<std::allocator<std::_Tree_node<std::pair<unsigned long const ,CResource *>,void *> > >, COMDAT
; _this$ = ecx

; 1168 :         if (_Ptr) {

  00000	8b 41 04	 mov	 eax, DWORD PTR [ecx+4]
  00003	85 c0		 test	 eax, eax
  00005	74 0b		 je	 SHORT $LN10@Alloc_cons

; 289  :         ::operator delete(_Ptr, _Bytes);

  00007	6a 18		 push	 24			; 00000018H
  00009	50		 push	 eax
  0000a	e8 00 00 00 00	 call	 ??3@YAXPAXI@Z		; operator delete
  0000f	83 c4 08	 add	 esp, 8
$LN10@Alloc_cons:

; 1169 :             _Al.deallocate(_Ptr, 1);
; 1170 :         }
; 1171 :     }

  00012	c3		 ret	 0
??1?$_Alloc_construct_ptr@V?$allocator@U?$_Tree_node@U?$pair@$$CBKPAVCResource@@@std@@PAX@std@@@std@@@std@@QAE@XZ ENDP ; std::_Alloc_construct_ptr<std::allocator<std::_Tree_node<std::pair<unsigned long const ,CResource *>,void *> > >::~_Alloc_construct_ptr<std::allocator<std::_Tree_node<std::pair<unsigned long const ,CResource *>,void *> > >
_TEXT	ENDS
; Function compile flags: /Ogtp
; File D:\Program Files\Microsoft Visual Studio\2022\Community\VC\Tools\MSVC\14.43.34808\include\xtree
; File D:\Program Files\Microsoft Visual Studio\2022\Community\VC\Tools\MSVC\14.43.34808\include\type_traits
; File D:\Program Files\Microsoft Visual Studio\2022\Community\VC\Tools\MSVC\14.43.34808\include\xtree
; File D:\Program Files\Microsoft Visual Studio\2022\Community\VC\Tools\MSVC\14.43.34808\include\type_traits
; File D:\Program Files\Microsoft Visual Studio\2022\Community\VC\Tools\MSVC\14.43.34808\include\xtree
;	COMDAT ??$_Find_lower_bound@K@?$_Tree@V?$_Tmap_traits@KPAVCResource@@U?$less@K@std@@V?$allocator@U?$pair@$$CBKPAVCResource@@@std@@@3@$0A@@std@@@std@@IBE?AU?$_Tree_find_result@PAU?$_Tree_node@U?$pair@$$CBKPAVCResource@@@std@@PAX@std@@@1@ABK@Z
_TEXT	SEGMENT
___$ReturnUdt$ = 8					; size = 4
__Keyval$ = 12						; size = 4
??$_Find_lower_bound@K@?$_Tree@V?$_Tmap_traits@KPAVCResource@@U?$less@K@std@@V?$allocator@U?$pair@$$CBKPAVCResource@@@std@@@3@$0A@@std@@@std@@IBE?AU?$_Tree_find_result@PAU?$_Tree_node@U?$pair@$$CBKPAVCResource@@@std@@PAX@std@@@1@ABK@Z PROC ; std::_Tree<std::_Tmap_traits<unsigned long,CResource *,std::less<unsigned long>,std::allocator<std::pair<unsigned long const ,CResource *> >,0> >::_Find_lower_bound<unsigned long>, COMDAT
; _this$ = ecx

; 1618 :     _Tree_find_result<_Nodeptr> _Find_lower_bound(const _Keyty& _Keyval) const {

  00000	55		 push	 ebp
  00001	8b ec		 mov	 ebp, esp

; 1619 :         const auto _Scary = _Get_scary();
; 1620 :         _Tree_find_result<_Nodeptr> _Result{{_Scary->_Myhead->_Parent, _Tree_child::_Right}, _Scary->_Myhead};

  00003	8b 09		 mov	 ecx, DWORD PTR [ecx]
  00005	8b 55 08	 mov	 edx, DWORD PTR ___$ReturnUdt$[ebp]
  00008	8b 41 04	 mov	 eax, DWORD PTR [ecx+4]
  0000b	89 02		 mov	 DWORD PTR [edx], eax
  0000d	c7 42 04 00 00
	00 00		 mov	 DWORD PTR [edx+4], 0
  00014	89 4a 08	 mov	 DWORD PTR [edx+8], ecx

; 1621 :         _Nodeptr _Trynode = _Result._Location._Parent;
; 1622 :         while (!_Trynode->_Isnil) {

  00017	80 78 0d 00	 cmp	 BYTE PTR [eax+13], 0
  0001b	75 28		 jne	 SHORT $LN13@Find_lower
; File D:\Program Files\Microsoft Visual Studio\2022\Community\VC\Tools\MSVC\14.43.34808\include\type_traits

; 2412 :         return _Left < _Right;

  0001d	8b 4d 0c	 mov	 ecx, DWORD PTR __Keyval$[ebp]
  00020	56		 push	 esi
  00021	8b 31		 mov	 esi, DWORD PTR [ecx]
$LL2@Find_lower:
; File D:\Program Files\Microsoft Visual Studio\2022\Community\VC\Tools\MSVC\14.43.34808\include\xtree

; 1623 :             _Result._Location._Parent = _Trynode;

  00023	89 02		 mov	 DWORD PTR [edx], eax
; File D:\Program Files\Microsoft Visual Studio\2022\Community\VC\Tools\MSVC\14.43.34808\include\type_traits

; 2412 :         return _Left < _Right;

  00025	39 70 10	 cmp	 DWORD PTR [eax+16], esi
; File D:\Program Files\Microsoft Visual Studio\2022\Community\VC\Tools\MSVC\14.43.34808\include\xtree

; 1624 :             if (_DEBUG_LT_PRED(_Getcomp(), _Traits::_Kfn(_Trynode->_Myval), _Keyval)) {

  00028	73 07		 jae	 SHORT $LN4@Find_lower

; 1625 :                 _Result._Location._Child = _Tree_child::_Right;
; 1626 :                 _Trynode                 = _Trynode->_Right;

  0002a	8b 40 08	 mov	 eax, DWORD PTR [eax+8]
  0002d	33 c9		 xor	 ecx, ecx

; 1627 :             } else {

  0002f	eb 0a		 jmp	 SHORT $LN5@Find_lower
$LN4@Find_lower:

; 1628 :                 _Result._Location._Child = _Tree_child::_Left;
; 1629 :                 _Result._Bound           = _Trynode;

  00031	89 42 08	 mov	 DWORD PTR [edx+8], eax

; 1630 :                 _Trynode                 = _Trynode->_Left;

  00034	b9 01 00 00 00	 mov	 ecx, 1
  00039	8b 00		 mov	 eax, DWORD PTR [eax]
$LN5@Find_lower:

; 1621 :         _Nodeptr _Trynode = _Result._Location._Parent;
; 1622 :         while (!_Trynode->_Isnil) {

  0003b	89 4a 04	 mov	 DWORD PTR [edx+4], ecx
  0003e	80 78 0d 00	 cmp	 BYTE PTR [eax+13], 0
  00042	74 df		 je	 SHORT $LL2@Find_lower
  00044	5e		 pop	 esi
$LN13@Find_lower:

; 1631 :             }
; 1632 :         }
; 1633 : 
; 1634 :         return _Result;
; 1635 :     }

  00045	8b c2		 mov	 eax, edx
  00047	5d		 pop	 ebp
  00048	c2 08 00	 ret	 8
??$_Find_lower_bound@K@?$_Tree@V?$_Tmap_traits@KPAVCResource@@U?$less@K@std@@V?$allocator@U?$pair@$$CBKPAVCResource@@@std@@@3@$0A@@std@@@std@@IBE?AU?$_Tree_find_result@PAU?$_Tree_node@U?$pair@$$CBKPAVCResource@@@std@@PAX@std@@@1@ABK@Z ENDP ; std::_Tree<std::_Tmap_traits<unsigned long,CResource *,std::less<unsigned long>,std::allocator<std::pair<unsigned long const ,CResource *> >,0> >::_Find_lower_bound<unsigned long>
_TEXT	ENDS
; Function compile flags: /Ogtp
; File D:\Program Files\Microsoft Visual Studio\2022\Community\VC\Tools\MSVC\14.43.34808\include\xtree
; File D:\Program Files\Microsoft Visual Studio\2022\Community\VC\Tools\MSVC\14.43.34808\include\utility
; File D:\Program Files\Microsoft Visual Studio\2022\Community\VC\Tools\MSVC\14.43.34808\include\xstring
; File D:\Program Files\Microsoft Visual Studio\2022\Community\VC\Tools\MSVC\14.43.34808\include\xmemory
; File D:\Program Files\Microsoft Visual Studio\2022\Community\VC\Tools\MSVC\14.43.34808\include\xstring
; File D:\Program Files\Microsoft Visual Studio\2022\Community\VC\Tools\MSVC\14.43.34808\include\xmemory
; File D:\Program Files\Microsoft Visual Studio\2022\Community\VC\Tools\MSVC\14.43.34808\include\xstring
; File D:\Program Files\Microsoft Visual Studio\2022\Community\VC\Tools\MSVC\14.43.34808\include\xmemory
; File D:\Program Files\Microsoft Visual Studio\2022\Community\VC\Tools\MSVC\14.43.34808\include\xtree
; File D:\Program Files\Microsoft Visual Studio\2022\Community\VC\Tools\MSVC\14.43.34808\include\xmemory
; File D:\Program Files\Microsoft Visual Studio\2022\Community\VC\Tools\MSVC\14.43.34808\include\xtree
;	COMDAT ??$_Erase_tree@V?$allocator@U?$_Tree_node@U?$pair@$$CBV?$basic_string@DU?$char_traits@D@std@@V?$allocator@D@2@@std@@P6APAVCResource@@PBD@Z@std@@PAX@std@@@std@@@?$_Tree_val@U?$_Tree_simple_types@U?$pair@$$CBV?$basic_string@DU?$char_traits@D@std@@V?$allocator@D@2@@std@@P6APAVCResource@@PBD@Z@std@@@std@@@std@@QAEXAAV?$allocator@U?$_Tree_node@U?$pair@$$CBV?$basic_string@DU?$char_traits@D@std@@V?$allocator@D@2@@std@@P6APAVCResource@@PBD@Z@std@@PAX@std@@@1@PAU?$_Tree_node@U?$pair@$$CBV?$basic_string@DU?$char_traits@D@std@@V?$allocator@D@2@@std@@P6APAVCResource@@PBD@Z@std@@PAX@1@@Z
_TEXT	SEGMENT
_this$1$ = -4						; size = 4
__Al$ = 8						; size = 4
__Rootnode$ = 12					; size = 4
??$_Erase_tree@V?$allocator@U?$_Tree_node@U?$pair@$$CBV?$basic_string@DU?$char_traits@D@std@@V?$allocator@D@2@@std@@P6APAVCResource@@PBD@Z@std@@PAX@std@@@std@@@?$_Tree_val@U?$_Tree_simple_types@U?$pair@$$CBV?$basic_string@DU?$char_traits@D@std@@V?$allocator@D@2@@std@@P6APAVCResource@@PBD@Z@std@@@std@@@std@@QAEXAAV?$allocator@U?$_Tree_node@U?$pair@$$CBV?$basic_string@DU?$char_traits@D@std@@V?$allocator@D@2@@std@@P6APAVCResource@@PBD@Z@std@@PAX@std@@@1@PAU?$_Tree_node@U?$pair@$$CBV?$basic_string@DU?$char_traits@D@std@@V?$allocator@D@2@@std@@P6APAVCResource@@PBD@Z@std@@PAX@1@@Z PROC ; std::_Tree_val<std::_Tree_simple_types<std::pair<std::basic_string<char,std::char_traits<char>,std::allocator<char> > const ,CResource * (__cdecl*)(char const *)> > >::_Erase_tree<std::allocator<std::_Tree_node<std::pair<std::basic_string<char,std::char_traits<char>,std::allocator<char> > const ,CResource * (__cdecl*)(char const *)>,void *> > >, COMDAT
; _this$ = ecx

; 757  :     void _Erase_tree(_Alnode& _Al, _Nodeptr _Rootnode) noexcept {

  00000	55		 push	 ebp
  00001	8b ec		 mov	 ebp, esp
  00003	51		 push	 ecx
  00004	57		 push	 edi

; 758  :         while (!_Rootnode->_Isnil) { // free subtrees, then node

  00005	8b 7d 0c	 mov	 edi, DWORD PTR __Rootnode$[ebp]
  00008	8b c1		 mov	 eax, ecx
  0000a	89 45 fc	 mov	 DWORD PTR _this$1$[ebp], eax
  0000d	80 7f 0d 00	 cmp	 BYTE PTR [edi+13], 0
  00011	75 6e		 jne	 SHORT $LN90@Erase_tree
  00013	53		 push	 ebx
  00014	8b 5d 08	 mov	 ebx, DWORD PTR __Al$[ebp]
  00017	56		 push	 esi
$LL2@Erase_tree:

; 759  :             _Erase_tree(_Al, _Rootnode->_Right);

  00018	ff 77 08	 push	 DWORD PTR [edi+8]
  0001b	8b c8		 mov	 ecx, eax
  0001d	53		 push	 ebx
  0001e	e8 00 00 00 00	 call	 ??$_Erase_tree@V?$allocator@U?$_Tree_node@U?$pair@$$CBV?$basic_string@DU?$char_traits@D@std@@V?$allocator@D@2@@std@@P6APAVCResource@@PBD@Z@std@@PAX@std@@@std@@@?$_Tree_val@U?$_Tree_simple_types@U?$pair@$$CBV?$basic_string@DU?$char_traits@D@std@@V?$allocator@D@2@@std@@P6APAVCResource@@PBD@Z@std@@@std@@@std@@QAEXAAV?$allocator@U?$_Tree_node@U?$pair@$$CBV?$basic_string@DU?$char_traits@D@std@@V?$allocator@D@2@@std@@P6APAVCResource@@PBD@Z@std@@PAX@std@@@1@PAU?$_Tree_node@U?$pair@$$CBV?$basic_string@DU?$char_traits@D@std@@V?$allocator@D@2@@std@@P6APAVCResource@@PBD@Z@std@@PAX@1@@Z ; std::_Tree_val<std::_Tree_simple_types<std::pair<std::basic_string<char,std::char_traits<char>,std::allocator<char> > const ,CResource * (__cdecl*)(char const *)> > >::_Erase_tree<std::allocator<std::_Tree_node<std::pair<std::basic_string<char,std::char_traits<char>,std::allocator<char> > const ,CResource * (__cdecl*)(char const *)>,void *> > >
; File D:\Program Files\Microsoft Visual Studio\2022\Community\VC\Tools\MSVC\14.43.34808\include\utility

; 773  :     _Ty _Old_val = static_cast<_Ty&&>(_Val);

  00023	8b f7		 mov	 esi, edi

; 774  :     _Val         = static_cast<_Other&&>(_New_val);

  00025	8b 3f		 mov	 edi, DWORD PTR [edi]
; File D:\Program Files\Microsoft Visual Studio\2022\Community\VC\Tools\MSVC\14.43.34808\include\xstring

; 434  :         return _Myres > _Small_string_capacity;

  00027	8b 4e 24	 mov	 ecx, DWORD PTR [esi+36]
  0002a	83 f9 0f	 cmp	 ecx, 15			; 0000000fH

; 3047 :         if (_My_data._Large_mode_engaged()) {

  0002d	76 28		 jbe	 SHORT $LN43@Erase_tree
; File D:\Program Files\Microsoft Visual Studio\2022\Community\VC\Tools\MSVC\14.43.34808\include\xmemory

; 981  :         _STD _Deallocate<_New_alignof<_Ty>>(_Ptr, sizeof(_Ty) * _Count);

  0002f	8b 46 10	 mov	 eax, DWORD PTR [esi+16]
; File D:\Program Files\Microsoft Visual Studio\2022\Community\VC\Tools\MSVC\14.43.34808\include\xstring

; 828  :         _Al.deallocate(_Old_ptr, _Capacity + 1); // +1 for null terminator

  00032	41		 inc	 ecx
; File D:\Program Files\Microsoft Visual Studio\2022\Community\VC\Tools\MSVC\14.43.34808\include\xmemory

; 284  :         if (_Bytes >= _Big_allocation_threshold) {

  00033	81 f9 00 10 00
	00		 cmp	 ecx, 4096		; 00001000H
  00039	72 12		 jb	 SHORT $LN54@Erase_tree

; 205  :     const uintptr_t _Ptr_container   = _Ptr_user[-1];

  0003b	8b 50 fc	 mov	 edx, DWORD PTR [eax-4]
  0003e	83 c1 23	 add	 ecx, 35			; 00000023H

; 206  : 
; 207  :     // If the following asserts, it likely means that we are performing
; 208  :     // an aligned delete on memory coming from an unaligned allocation.
; 209  :     _STL_ASSERT(_Ptr_user[-2] == _Big_allocation_sentinel, "invalid argument");
; 210  : 
; 211  :     // Extra paranoia on aligned allocation/deallocation; ensure _Ptr_container is
; 212  :     // in range [_Min_back_shift, _Non_user_size]
; 213  : #ifdef _DEBUG
; 214  :     constexpr uintptr_t _Min_back_shift = 2 * sizeof(void*);
; 215  : #else // ^^^ defined(_DEBUG) / !defined(_DEBUG) vvv
; 216  :     constexpr uintptr_t _Min_back_shift = sizeof(void*);
; 217  : #endif // ^^^ !defined(_DEBUG) ^^^
; 218  :     const uintptr_t _Back_shift = reinterpret_cast<uintptr_t>(_Ptr) - _Ptr_container;

  00041	2b c2		 sub	 eax, edx

; 219  :     _STL_VERIFY(_Back_shift >= _Min_back_shift && _Back_shift <= _Non_user_size, "invalid argument");

  00043	83 c0 fc	 add	 eax, -4			; fffffffcH
  00046	83 f8 1f	 cmp	 eax, 31			; 0000001fH
  00049	77 3d		 ja	 SHORT $LN51@Erase_tree

; 220  :     _Ptr = reinterpret_cast<void*>(_Ptr_container);

  0004b	8b c2		 mov	 eax, edx
$LN54@Erase_tree:

; 289  :         ::operator delete(_Ptr, _Bytes);

  0004d	51		 push	 ecx
  0004e	50		 push	 eax
  0004f	e8 00 00 00 00	 call	 ??3@YAXPAXI@Z		; operator delete
  00054	83 c4 08	 add	 esp, 8
$LN43@Erase_tree:
  00057	6a 2c		 push	 44			; 0000002cH
  00059	56		 push	 esi
; File D:\Program Files\Microsoft Visual Studio\2022\Community\VC\Tools\MSVC\14.43.34808\include\xstring

; 3054 :         _My_data._Mysize = 0;

  0005a	c7 46 20 00 00
	00 00		 mov	 DWORD PTR [esi+32], 0

; 3055 :         _My_data._Myres  = _Small_string_capacity;

  00061	c7 46 24 0f 00
	00 00		 mov	 DWORD PTR [esi+36], 15	; 0000000fH

; 3056 :         // the _Traits::assign is last so the codegen doesn't think the char write can alias this
; 3057 :         _Traits::assign(_My_data._Bx._Buf[0], _Elem());

  00068	c6 46 10 00	 mov	 BYTE PTR [esi+16], 0
; File D:\Program Files\Microsoft Visual Studio\2022\Community\VC\Tools\MSVC\14.43.34808\include\xmemory

; 289  :         ::operator delete(_Ptr, _Bytes);

  0006c	e8 00 00 00 00	 call	 ??3@YAXPAXI@Z		; operator delete
  00071	83 c4 08	 add	 esp, 8
; File D:\Program Files\Microsoft Visual Studio\2022\Community\VC\Tools\MSVC\14.43.34808\include\xtree

; 758  :         while (!_Rootnode->_Isnil) { // free subtrees, then node

  00074	80 7f 0d 00	 cmp	 BYTE PTR [edi+13], 0
  00078	75 05		 jne	 SHORT $LN99@Erase_tree
  0007a	8b 45 fc	 mov	 eax, DWORD PTR _this$1$[ebp]
  0007d	eb 99		 jmp	 SHORT $LL2@Erase_tree
$LN99@Erase_tree:
  0007f	5e		 pop	 esi
  00080	5b		 pop	 ebx
$LN90@Erase_tree:
  00081	5f		 pop	 edi

; 762  :     }

  00082	8b e5		 mov	 esp, ebp
  00084	5d		 pop	 ebp
  00085	c2 08 00	 ret	 8
$LN51@Erase_tree:
; File D:\Program Files\Microsoft Visual Studio\2022\Community\VC\Tools\MSVC\14.43.34808\include\xmemory

; 219  :     _STL_VERIFY(_Back_shift >= _Min_back_shift && _Back_shift <= _Non_user_size, "invalid argument");

  00088	e8 00 00 00 00	 call	 __invalid_parameter_noinfo_noreturn
$LN100@Erase_tree:
  0008d	cc		 int	 3
??$_Erase_tree@V?$allocator@U?$_Tree_node@U?$pair@$$CBV?$basic_string@DU?$char_traits@D@std@@V?$allocator@D@2@@std@@P6APAVCResource@@PBD@Z@std@@PAX@std@@@std@@@?$_Tree_val@U?$_Tree_simple_types@U?$pair@$$CBV?$basic_string@DU?$char_traits@D@std@@V?$allocator@D@2@@std@@P6APAVCResource@@PBD@Z@std@@@std@@@std@@QAEXAAV?$allocator@U?$_Tree_node@U?$pair@$$CBV?$basic_string@DU?$char_traits@D@std@@V?$allocator@D@2@@std@@P6APAVCResource@@PBD@Z@std@@PAX@std@@@1@PAU?$_Tree_node@U?$pair@$$CBV?$basic_string@DU?$char_traits@D@std@@V?$allocator@D@2@@std@@P6APAVCResource@@PBD@Z@std@@PAX@1@@Z ENDP ; std::_Tree_val<std::_Tree_simple_types<std::pair<std::basic_string<char,std::char_traits<char>,std::allocator<char> > const ,CResource * (__cdecl*)(char const *)> > >::_Erase_tree<std::allocator<std::_Tree_node<std::pair<std::basic_string<char,std::char_traits<char>,std::allocator<char> > const ,CResource * (__cdecl*)(char const *)>,void *> > >
_TEXT	ENDS
; Function compile flags: /Ogtp
; File D:\Program Files\Microsoft Visual Studio\2022\Community\VC\Tools\MSVC\14.43.34808\include\xmemory
;	COMDAT ??1?$_Alloc_construct_ptr@V?$allocator@U?$_Tree_node@U?$pair@$$CBV?$basic_string@DU?$char_traits@D@std@@V?$allocator@D@2@@std@@P6APAVCResource@@PBD@Z@std@@PAX@std@@@std@@@std@@QAE@XZ
_TEXT	SEGMENT
??1?$_Alloc_construct_ptr@V?$allocator@U?$_Tree_node@U?$pair@$$CBV?$basic_string@DU?$char_traits@D@std@@V?$allocator@D@2@@std@@P6APAVCResource@@PBD@Z@std@@PAX@std@@@std@@@std@@QAE@XZ PROC ; std::_Alloc_construct_ptr<std::allocator<std::_Tree_node<std::pair<std::basic_string<char,std::char_traits<char>,std::allocator<char> > const ,CResource * (__cdecl*)(char const *)>,void *> > >::~_Alloc_construct_ptr<std::allocator<std::_Tree_node<std::pair<std::basic_string<char,std::char_traits<char>,std::allocator<char> > const ,CResource * (__cdecl*)(char const *)>,void *> > >, COMDAT
; _this$ = ecx

; 1168 :         if (_Ptr) {

  00000	8b 41 04	 mov	 eax, DWORD PTR [ecx+4]
  00003	85 c0		 test	 eax, eax
  00005	74 0b		 je	 SHORT $LN10@Alloc_cons

; 289  :         ::operator delete(_Ptr, _Bytes);

  00007	6a 2c		 push	 44			; 0000002cH
  00009	50		 push	 eax
  0000a	e8 00 00 00 00	 call	 ??3@YAXPAXI@Z		; operator delete
  0000f	83 c4 08	 add	 esp, 8
$LN10@Alloc_cons:

; 1169 :             _Al.deallocate(_Ptr, 1);
; 1170 :         }
; 1171 :     }

  00012	c3		 ret	 0
??1?$_Alloc_construct_ptr@V?$allocator@U?$_Tree_node@U?$pair@$$CBV?$basic_string@DU?$char_traits@D@std@@V?$allocator@D@2@@std@@P6APAVCResource@@PBD@Z@std@@PAX@std@@@std@@@std@@QAE@XZ ENDP ; std::_Alloc_construct_ptr<std::allocator<std::_Tree_node<std::pair<std::basic_string<char,std::char_traits<char>,std::allocator<char> > const ,CResource * (__cdecl*)(char const *)>,void *> > >::~_Alloc_construct_ptr<std::allocator<std::_Tree_node<std::pair<std::basic_string<char,std::char_traits<char>,std::allocator<char> > const ,CResource * (__cdecl*)(char const *)>,void *> > >
_TEXT	ENDS
; Function compile flags: /Ogtp
; File D:\Program Files\Microsoft Visual Studio\2022\Community\VC\Tools\MSVC\14.43.34808\include\xtree
; File D:\Program Files\Microsoft Visual Studio\2022\Community\VC\Tools\MSVC\14.43.34808\include\type_traits
; File D:\Program Files\Microsoft Visual Studio\2022\Community\VC\Tools\MSVC\14.43.34808\include\xtree
;	COMDAT ??$_Find_lower_bound@V?$basic_string@DU?$char_traits@D@std@@V?$allocator@D@2@@std@@@?$_Tree@V?$_Tmap_traits@V?$basic_string@DU?$char_traits@D@std@@V?$allocator@D@2@@std@@P6APAVCResource@@PBD@ZU?$less@V?$basic_string@DU?$char_traits@D@std@@V?$allocator@D@2@@std@@@2@V?$allocator@U?$pair@$$CBV?$basic_string@DU?$char_traits@D@std@@V?$allocator@D@2@@std@@P6APAVCResource@@PBD@Z@std@@@2@$0A@@std@@@std@@IBE?AU?$_Tree_find_result@PAU?$_Tree_node@U?$pair@$$CBV?$basic_string@DU?$char_traits@D@std@@V?$allocator@D@2@@std@@P6APAVCResource@@PBD@Z@std@@PAX@std@@@1@ABV?$basic_string@DU?$char_traits@D@std@@V?$allocator@D@2@@1@@Z
_TEXT	SEGMENT
___$ReturnUdt$ = 8					; size = 4
__Keyval$ = 12						; size = 4
??$_Find_lower_bound@V?$basic_string@DU?$char_traits@D@std@@V?$allocator@D@2@@std@@@?$_Tree@V?$_Tmap_traits@V?$basic_string@DU?$char_traits@D@std@@V?$allocator@D@2@@std@@P6APAVCResource@@PBD@ZU?$less@V?$basic_string@DU?$char_traits@D@std@@V?$allocator@D@2@@std@@@2@V?$allocator@U?$pair@$$CBV?$basic_string@DU?$char_traits@D@std@@V?$allocator@D@2@@std@@P6APAVCResource@@PBD@Z@std@@@2@$0A@@std@@@std@@IBE?AU?$_Tree_find_result@PAU?$_Tree_node@U?$pair@$$CBV?$basic_string@DU?$char_traits@D@std@@V?$allocator@D@2@@std@@P6APAVCResource@@PBD@Z@std@@PAX@std@@@1@ABV?$basic_string@DU?$char_traits@D@std@@V?$allocator@D@2@@1@@Z PROC ; std::_Tree<std::_Tmap_traits<std::basic_string<char,std::char_traits<char>,std::allocator<char> >,CResource * (__cdecl*)(char const *),std::less<std::basic_string<char,std::char_traits<char>,std::allocator<char> > >,std::allocator<std::pair<std::basic_string<char,std::char_traits<char>,std::allocator<char> > const ,CResource * (__cdecl*)(char const *)> >,0> >::_Find_lower_bound<std::basic_string<char,std::char_traits<char>,std::allocator<char> > >, COMDAT
; _this$ = ecx

; 1618 :     _Tree_find_result<_Nodeptr> _Find_lower_bound(const _Keyty& _Keyval) const {

  00000	55		 push	 ebp
  00001	8b ec		 mov	 ebp, esp

; 1619 :         const auto _Scary = _Get_scary();
; 1620 :         _Tree_find_result<_Nodeptr> _Result{{_Scary->_Myhead->_Parent, _Tree_child::_Right}, _Scary->_Myhead};

  00003	8b 01		 mov	 eax, DWORD PTR [ecx]
  00005	56		 push	 esi
  00006	57		 push	 edi
  00007	8b 7d 08	 mov	 edi, DWORD PTR ___$ReturnUdt$[ebp]
  0000a	8b 70 04	 mov	 esi, DWORD PTR [eax+4]
  0000d	89 37		 mov	 DWORD PTR [edi], esi

; 1621 :         _Nodeptr _Trynode = _Result._Location._Parent;
; 1622 :         while (!_Trynode->_Isnil) {

  0000f	80 7e 0d 00	 cmp	 BYTE PTR [esi+13], 0
  00013	c7 47 04 00 00
	00 00		 mov	 DWORD PTR [edi+4], 0
  0001a	89 47 08	 mov	 DWORD PTR [edi+8], eax
  0001d	75 32		 jne	 SHORT $LN13@Find_lower
  0001f	53		 push	 ebx
  00020	8b 5d 0c	 mov	 ebx, DWORD PTR __Keyval$[ebp]
$LL2@Find_lower:

; 1624 :             if (_DEBUG_LT_PRED(_Getcomp(), _Traits::_Kfn(_Trynode->_Myval), _Keyval)) {

  00023	8d 46 10	 lea	 eax, DWORD PTR [esi+16]
  00026	89 37		 mov	 DWORD PTR [edi], esi
; File D:\Program Files\Microsoft Visual Studio\2022\Community\VC\Tools\MSVC\14.43.34808\include\type_traits

; 2412 :         return _Left < _Right;

  00028	53		 push	 ebx
  00029	50		 push	 eax
  0002a	e8 00 00 00 00	 call	 ??$?MDU?$char_traits@D@std@@V?$allocator@D@1@@std@@YA_NABV?$basic_string@DU?$char_traits@D@std@@V?$allocator@D@2@@0@0@Z ; std::operator<<char,std::char_traits<char>,std::allocator<char> >
  0002f	83 c4 08	 add	 esp, 8
; File D:\Program Files\Microsoft Visual Studio\2022\Community\VC\Tools\MSVC\14.43.34808\include\xtree

; 1624 :             if (_DEBUG_LT_PRED(_Getcomp(), _Traits::_Kfn(_Trynode->_Myval), _Keyval)) {

  00032	84 c0		 test	 al, al
  00034	74 07		 je	 SHORT $LN4@Find_lower

; 1625 :                 _Result._Location._Child = _Tree_child::_Right;
; 1626 :                 _Trynode                 = _Trynode->_Right;

  00036	8b 76 08	 mov	 esi, DWORD PTR [esi+8]
  00039	33 c0		 xor	 eax, eax

; 1627 :             } else {

  0003b	eb 0a		 jmp	 SHORT $LN5@Find_lower
$LN4@Find_lower:

; 1628 :                 _Result._Location._Child = _Tree_child::_Left;
; 1629 :                 _Result._Bound           = _Trynode;

  0003d	89 77 08	 mov	 DWORD PTR [edi+8], esi

; 1630 :                 _Trynode                 = _Trynode->_Left;

  00040	b8 01 00 00 00	 mov	 eax, 1
  00045	8b 36		 mov	 esi, DWORD PTR [esi]
$LN5@Find_lower:

; 1621 :         _Nodeptr _Trynode = _Result._Location._Parent;
; 1622 :         while (!_Trynode->_Isnil) {

  00047	89 47 04	 mov	 DWORD PTR [edi+4], eax
  0004a	80 7e 0d 00	 cmp	 BYTE PTR [esi+13], 0
  0004e	74 d3		 je	 SHORT $LL2@Find_lower
  00050	5b		 pop	 ebx
$LN13@Find_lower:

; 1631 :             }
; 1632 :         }
; 1633 : 
; 1634 :         return _Result;
; 1635 :     }

  00051	8b c7		 mov	 eax, edi
  00053	5f		 pop	 edi
  00054	5e		 pop	 esi
  00055	5d		 pop	 ebp
  00056	c2 08 00	 ret	 8
??$_Find_lower_bound@V?$basic_string@DU?$char_traits@D@std@@V?$allocator@D@2@@std@@@?$_Tree@V?$_Tmap_traits@V?$basic_string@DU?$char_traits@D@std@@V?$allocator@D@2@@std@@P6APAVCResource@@PBD@ZU?$less@V?$basic_string@DU?$char_traits@D@std@@V?$allocator@D@2@@std@@@2@V?$allocator@U?$pair@$$CBV?$basic_string@DU?$char_traits@D@std@@V?$allocator@D@2@@std@@P6APAVCResource@@PBD@Z@std@@@2@$0A@@std@@@std@@IBE?AU?$_Tree_find_result@PAU?$_Tree_node@U?$pair@$$CBV?$basic_string@DU?$char_traits@D@std@@V?$allocator@D@2@@std@@P6APAVCResource@@PBD@Z@std@@PAX@std@@@1@ABV?$basic_string@DU?$char_traits@D@std@@V?$allocator@D@2@@1@@Z ENDP ; std::_Tree<std::_Tmap_traits<std::basic_string<char,std::char_traits<char>,std::allocator<char> >,CResource * (__cdecl*)(char const *),std::less<std::basic_string<char,std::char_traits<char>,std::allocator<char> > >,std::allocator<std::pair<std::basic_string<char,std::char_traits<char>,std::allocator<char> > const ,CResource * (__cdecl*)(char const *)> >,0> >::_Find_lower_bound<std::basic_string<char,std::char_traits<char>,std::allocator<char> > >
_TEXT	ENDS
; Function compile flags: /Ogtp
; File D:\Program Files\Microsoft Visual Studio\2022\Community\VC\Tools\MSVC\14.43.34808\include\xtree
; File D:\Program Files\Microsoft Visual Studio\2022\Community\VC\Tools\MSVC\14.43.34808\include\utility
; File D:\Program Files\Microsoft Visual Studio\2022\Community\VC\Tools\MSVC\14.43.34808\include\xmemory
; File D:\Program Files\Microsoft Visual Studio\2022\Community\VC\Tools\MSVC\14.43.34808\include\xtree
;	COMDAT ??$_Erase_tree@V?$allocator@U?$_Tree_node@U?$pair@$$CBHP6APAVCResource@@PBD@Z@std@@PAX@std@@@std@@@?$_Tree_val@U?$_Tree_simple_types@U?$pair@$$CBHP6APAVCResource@@PBD@Z@std@@@std@@@std@@QAEXAAV?$allocator@U?$_Tree_node@U?$pair@$$CBHP6APAVCResource@@PBD@Z@std@@PAX@std@@@1@PAU?$_Tree_node@U?$pair@$$CBHP6APAVCResource@@PBD@Z@std@@PAX@1@@Z
_TEXT	SEGMENT
__Al$ = 8						; size = 4
__Rootnode$ = 12					; size = 4
??$_Erase_tree@V?$allocator@U?$_Tree_node@U?$pair@$$CBHP6APAVCResource@@PBD@Z@std@@PAX@std@@@std@@@?$_Tree_val@U?$_Tree_simple_types@U?$pair@$$CBHP6APAVCResource@@PBD@Z@std@@@std@@@std@@QAEXAAV?$allocator@U?$_Tree_node@U?$pair@$$CBHP6APAVCResource@@PBD@Z@std@@PAX@std@@@1@PAU?$_Tree_node@U?$pair@$$CBHP6APAVCResource@@PBD@Z@std@@PAX@1@@Z PROC ; std::_Tree_val<std::_Tree_simple_types<std::pair<int const ,CResource * (__cdecl*)(char const *)> > >::_Erase_tree<std::allocator<std::_Tree_node<std::pair<int const ,CResource * (__cdecl*)(char const *)>,void *> > >, COMDAT
; _this$ = ecx

; 757  :     void _Erase_tree(_Alnode& _Al, _Nodeptr _Rootnode) noexcept {

  00000	55		 push	 ebp
  00001	8b ec		 mov	 ebp, esp
  00003	53		 push	 ebx
  00004	56		 push	 esi

; 758  :         while (!_Rootnode->_Isnil) { // free subtrees, then node

  00005	8b 75 0c	 mov	 esi, DWORD PTR __Rootnode$[ebp]
  00008	8b d9		 mov	 ebx, ecx
  0000a	80 7e 0d 00	 cmp	 BYTE PTR [esi+13], 0
  0000e	75 25		 jne	 SHORT $LN39@Erase_tree
  00010	57		 push	 edi
  00011	8b 7d 08	 mov	 edi, DWORD PTR __Al$[ebp]
$LL2@Erase_tree:

; 759  :             _Erase_tree(_Al, _Rootnode->_Right);

  00014	ff 76 08	 push	 DWORD PTR [esi+8]
  00017	8b cb		 mov	 ecx, ebx
  00019	57		 push	 edi
  0001a	e8 00 00 00 00	 call	 ??$_Erase_tree@V?$allocator@U?$_Tree_node@U?$pair@$$CBHP6APAVCResource@@PBD@Z@std@@PAX@std@@@std@@@?$_Tree_val@U?$_Tree_simple_types@U?$pair@$$CBHP6APAVCResource@@PBD@Z@std@@@std@@@std@@QAEXAAV?$allocator@U?$_Tree_node@U?$pair@$$CBHP6APAVCResource@@PBD@Z@std@@PAX@std@@@1@PAU?$_Tree_node@U?$pair@$$CBHP6APAVCResource@@PBD@Z@std@@PAX@1@@Z ; std::_Tree_val<std::_Tree_simple_types<std::pair<int const ,CResource * (__cdecl*)(char const *)> > >::_Erase_tree<std::allocator<std::_Tree_node<std::pair<int const ,CResource * (__cdecl*)(char const *)>,void *> > >
; File D:\Program Files\Microsoft Visual Studio\2022\Community\VC\Tools\MSVC\14.43.34808\include\utility

; 773  :     _Ty _Old_val = static_cast<_Ty&&>(_Val);

  0001f	8b c6		 mov	 eax, esi

; 774  :     _Val         = static_cast<_Other&&>(_New_val);

  00021	8b 36		 mov	 esi, DWORD PTR [esi]
; File D:\Program Files\Microsoft Visual Studio\2022\Community\VC\Tools\MSVC\14.43.34808\include\xmemory

; 289  :         ::operator delete(_Ptr, _Bytes);

  00023	6a 18		 push	 24			; 00000018H
  00025	50		 push	 eax
  00026	e8 00 00 00 00	 call	 ??3@YAXPAXI@Z		; operator delete
  0002b	83 c4 08	 add	 esp, 8
; File D:\Program Files\Microsoft Visual Studio\2022\Community\VC\Tools\MSVC\14.43.34808\include\xtree

; 758  :         while (!_Rootnode->_Isnil) { // free subtrees, then node

  0002e	80 7e 0d 00	 cmp	 BYTE PTR [esi+13], 0
  00032	74 e0		 je	 SHORT $LL2@Erase_tree
  00034	5f		 pop	 edi
$LN39@Erase_tree:
  00035	5e		 pop	 esi

; 760  :             _Alnode::value_type::_Freenode(_Al, _STD exchange(_Rootnode, _Rootnode->_Left));
; 761  :         }
; 762  :     }

  00036	5b		 pop	 ebx
  00037	5d		 pop	 ebp
  00038	c2 08 00	 ret	 8
??$_Erase_tree@V?$allocator@U?$_Tree_node@U?$pair@$$CBHP6APAVCResource@@PBD@Z@std@@PAX@std@@@std@@@?$_Tree_val@U?$_Tree_simple_types@U?$pair@$$CBHP6APAVCResource@@PBD@Z@std@@@std@@@std@@QAEXAAV?$allocator@U?$_Tree_node@U?$pair@$$CBHP6APAVCResource@@PBD@Z@std@@PAX@std@@@1@PAU?$_Tree_node@U?$pair@$$CBHP6APAVCResource@@PBD@Z@std@@PAX@1@@Z ENDP ; std::_Tree_val<std::_Tree_simple_types<std::pair<int const ,CResource * (__cdecl*)(char const *)> > >::_Erase_tree<std::allocator<std::_Tree_node<std::pair<int const ,CResource * (__cdecl*)(char const *)>,void *> > >
_TEXT	ENDS
; Function compile flags: /Ogtp
; File D:\Program Files\Microsoft Visual Studio\2022\Community\VC\Tools\MSVC\14.43.34808\include\xmemory
;	COMDAT ??1?$_Alloc_construct_ptr@V?$allocator@U?$_Tree_node@U?$pair@$$CBHP6APAVCResource@@PBD@Z@std@@PAX@std@@@std@@@std@@QAE@XZ
_TEXT	SEGMENT
??1?$_Alloc_construct_ptr@V?$allocator@U?$_Tree_node@U?$pair@$$CBHP6APAVCResource@@PBD@Z@std@@PAX@std@@@std@@@std@@QAE@XZ PROC ; std::_Alloc_construct_ptr<std::allocator<std::_Tree_node<std::pair<int const ,CResource * (__cdecl*)(char const *)>,void *> > >::~_Alloc_construct_ptr<std::allocator<std::_Tree_node<std::pair<int const ,CResource * (__cdecl*)(char const *)>,void *> > >, COMDAT
; _this$ = ecx

; 1168 :         if (_Ptr) {

  00000	8b 41 04	 mov	 eax, DWORD PTR [ecx+4]
  00003	85 c0		 test	 eax, eax
  00005	74 0b		 je	 SHORT $LN10@Alloc_cons

; 289  :         ::operator delete(_Ptr, _Bytes);

  00007	6a 18		 push	 24			; 00000018H
  00009	50		 push	 eax
  0000a	e8 00 00 00 00	 call	 ??3@YAXPAXI@Z		; operator delete
  0000f	83 c4 08	 add	 esp, 8
$LN10@Alloc_cons:

; 1169 :             _Al.deallocate(_Ptr, 1);
; 1170 :         }
; 1171 :     }

  00012	c3		 ret	 0
??1?$_Alloc_construct_ptr@V?$allocator@U?$_Tree_node@U?$pair@$$CBHP6APAVCResource@@PBD@Z@std@@PAX@std@@@std@@@std@@QAE@XZ ENDP ; std::_Alloc_construct_ptr<std::allocator<std::_Tree_node<std::pair<int const ,CResource * (__cdecl*)(char const *)>,void *> > >::~_Alloc_construct_ptr<std::allocator<std::_Tree_node<std::pair<int const ,CResource * (__cdecl*)(char const *)>,void *> > >
_TEXT	ENDS
; Function compile flags: /Ogtp
; File D:\Program Files\Microsoft Visual Studio\2022\Community\VC\Tools\MSVC\14.43.34808\include\xtree
; File D:\Program Files\Microsoft Visual Studio\2022\Community\VC\Tools\MSVC\14.43.34808\include\type_traits
; File D:\Program Files\Microsoft Visual Studio\2022\Community\VC\Tools\MSVC\14.43.34808\include\xtree
; File D:\Program Files\Microsoft Visual Studio\2022\Community\VC\Tools\MSVC\14.43.34808\include\type_traits
; File D:\Program Files\Microsoft Visual Studio\2022\Community\VC\Tools\MSVC\14.43.34808\include\xtree
;	COMDAT ??$_Find_lower_bound@H@?$_Tree@V?$_Tmap_traits@HP6APAVCResource@@PBD@ZU?$less@H@std@@V?$allocator@U?$pair@$$CBHP6APAVCResource@@PBD@Z@std@@@3@$0A@@std@@@std@@IBE?AU?$_Tree_find_result@PAU?$_Tree_node@U?$pair@$$CBHP6APAVCResource@@PBD@Z@std@@PAX@std@@@1@ABH@Z
_TEXT	SEGMENT
___$ReturnUdt$ = 8					; size = 4
__Keyval$ = 12						; size = 4
??$_Find_lower_bound@H@?$_Tree@V?$_Tmap_traits@HP6APAVCResource@@PBD@ZU?$less@H@std@@V?$allocator@U?$pair@$$CBHP6APAVCResource@@PBD@Z@std@@@3@$0A@@std@@@std@@IBE?AU?$_Tree_find_result@PAU?$_Tree_node@U?$pair@$$CBHP6APAVCResource@@PBD@Z@std@@PAX@std@@@1@ABH@Z PROC ; std::_Tree<std::_Tmap_traits<int,CResource * (__cdecl*)(char const *),std::less<int>,std::allocator<std::pair<int const ,CResource * (__cdecl*)(char const *)> >,0> >::_Find_lower_bound<int>, COMDAT
; _this$ = ecx

; 1618 :     _Tree_find_result<_Nodeptr> _Find_lower_bound(const _Keyty& _Keyval) const {

  00000	55		 push	 ebp
  00001	8b ec		 mov	 ebp, esp

; 1619 :         const auto _Scary = _Get_scary();
; 1620 :         _Tree_find_result<_Nodeptr> _Result{{_Scary->_Myhead->_Parent, _Tree_child::_Right}, _Scary->_Myhead};

  00003	8b 09		 mov	 ecx, DWORD PTR [ecx]
  00005	8b 55 08	 mov	 edx, DWORD PTR ___$ReturnUdt$[ebp]
  00008	8b 41 04	 mov	 eax, DWORD PTR [ecx+4]
  0000b	89 02		 mov	 DWORD PTR [edx], eax
  0000d	c7 42 04 00 00
	00 00		 mov	 DWORD PTR [edx+4], 0
  00014	89 4a 08	 mov	 DWORD PTR [edx+8], ecx

; 1621 :         _Nodeptr _Trynode = _Result._Location._Parent;
; 1622 :         while (!_Trynode->_Isnil) {

  00017	80 78 0d 00	 cmp	 BYTE PTR [eax+13], 0
  0001b	75 28		 jne	 SHORT $LN13@Find_lower
; File D:\Program Files\Microsoft Visual Studio\2022\Community\VC\Tools\MSVC\14.43.34808\include\type_traits

; 2412 :         return _Left < _Right;

  0001d	8b 4d 0c	 mov	 ecx, DWORD PTR __Keyval$[ebp]
  00020	56		 push	 esi
  00021	8b 31		 mov	 esi, DWORD PTR [ecx]
$LL2@Find_lower:
; File D:\Program Files\Microsoft Visual Studio\2022\Community\VC\Tools\MSVC\14.43.34808\include\xtree

; 1623 :             _Result._Location._Parent = _Trynode;

  00023	89 02		 mov	 DWORD PTR [edx], eax
; File D:\Program Files\Microsoft Visual Studio\2022\Community\VC\Tools\MSVC\14.43.34808\include\type_traits

; 2412 :         return _Left < _Right;

  00025	39 70 10	 cmp	 DWORD PTR [eax+16], esi
; File D:\Program Files\Microsoft Visual Studio\2022\Community\VC\Tools\MSVC\14.43.34808\include\xtree

; 1624 :             if (_DEBUG_LT_PRED(_Getcomp(), _Traits::_Kfn(_Trynode->_Myval), _Keyval)) {

  00028	7d 07		 jge	 SHORT $LN4@Find_lower

; 1625 :                 _Result._Location._Child = _Tree_child::_Right;
; 1626 :                 _Trynode                 = _Trynode->_Right;

  0002a	8b 40 08	 mov	 eax, DWORD PTR [eax+8]
  0002d	33 c9		 xor	 ecx, ecx

; 1627 :             } else {

  0002f	eb 0a		 jmp	 SHORT $LN5@Find_lower
$LN4@Find_lower:

; 1628 :                 _Result._Location._Child = _Tree_child::_Left;
; 1629 :                 _Result._Bound           = _Trynode;

  00031	89 42 08	 mov	 DWORD PTR [edx+8], eax

; 1630 :                 _Trynode                 = _Trynode->_Left;

  00034	b9 01 00 00 00	 mov	 ecx, 1
  00039	8b 00		 mov	 eax, DWORD PTR [eax]
$LN5@Find_lower:

; 1621 :         _Nodeptr _Trynode = _Result._Location._Parent;
; 1622 :         while (!_Trynode->_Isnil) {

  0003b	89 4a 04	 mov	 DWORD PTR [edx+4], ecx
  0003e	80 78 0d 00	 cmp	 BYTE PTR [eax+13], 0
  00042	74 df		 je	 SHORT $LL2@Find_lower
  00044	5e		 pop	 esi
$LN13@Find_lower:

; 1631 :             }
; 1632 :         }
; 1633 : 
; 1634 :         return _Result;
; 1635 :     }

  00045	8b c2		 mov	 eax, edx
  00047	5d		 pop	 ebp
  00048	c2 08 00	 ret	 8
??$_Find_lower_bound@H@?$_Tree@V?$_Tmap_traits@HP6APAVCResource@@PBD@ZU?$less@H@std@@V?$allocator@U?$pair@$$CBHP6APAVCResource@@PBD@Z@std@@@3@$0A@@std@@@std@@IBE?AU?$_Tree_find_result@PAU?$_Tree_node@U?$pair@$$CBHP6APAVCResource@@PBD@Z@std@@PAX@std@@@1@ABH@Z ENDP ; std::_Tree<std::_Tmap_traits<int,CResource * (__cdecl*)(char const *),std::less<int>,std::allocator<std::pair<int const ,CResource * (__cdecl*)(char const *)> >,0> >::_Find_lower_bound<int>
_TEXT	ENDS
; Function compile flags: /Ogtp
; File D:\Program Files\Microsoft Visual Studio\2022\Community\VC\Tools\MSVC\14.43.34808\include\xtree
; File D:\Program Files\Microsoft Visual Studio\2022\Community\VC\Tools\MSVC\14.43.34808\include\type_traits
; File D:\Program Files\Microsoft Visual Studio\2022\Community\VC\Tools\MSVC\14.43.34808\include\xtree
; File D:\Program Files\Microsoft Visual Studio\2022\Community\VC\Tools\MSVC\14.43.34808\include\type_traits
; File D:\Program Files\Microsoft Visual Studio\2022\Community\VC\Tools\MSVC\14.43.34808\include\xtree
;	COMDAT ??$_Find_lower_bound@K@?$_Tree@V?$_Tmap_traits@KV?$basic_string@DU?$char_traits@D@std@@V?$allocator@D@2@@std@@U?$less@K@2@V?$allocator@U?$pair@$$CBKV?$basic_string@DU?$char_traits@D@std@@V?$allocator@D@2@@std@@@std@@@2@$0A@@std@@@std@@IBE?AU?$_Tree_find_result@PAU?$_Tree_node@U?$pair@$$CBKV?$basic_string@DU?$char_traits@D@std@@V?$allocator@D@2@@std@@@std@@PAX@std@@@1@ABK@Z
_TEXT	SEGMENT
___$ReturnUdt$ = 8					; size = 4
__Keyval$ = 12						; size = 4
??$_Find_lower_bound@K@?$_Tree@V?$_Tmap_traits@KV?$basic_string@DU?$char_traits@D@std@@V?$allocator@D@2@@std@@U?$less@K@2@V?$allocator@U?$pair@$$CBKV?$basic_string@DU?$char_traits@D@std@@V?$allocator@D@2@@std@@@std@@@2@$0A@@std@@@std@@IBE?AU?$_Tree_find_result@PAU?$_Tree_node@U?$pair@$$CBKV?$basic_string@DU?$char_traits@D@std@@V?$allocator@D@2@@std@@@std@@PAX@std@@@1@ABK@Z PROC ; std::_Tree<std::_Tmap_traits<unsigned long,std::basic_string<char,std::char_traits<char>,std::allocator<char> >,std::less<unsigned long>,std::allocator<std::pair<unsigned long const ,std::basic_string<char,std::char_traits<char>,std::allocator<char> > > >,0> >::_Find_lower_bound<unsigned long>, COMDAT
; _this$ = ecx

; 1618 :     _Tree_find_result<_Nodeptr> _Find_lower_bound(const _Keyty& _Keyval) const {

  00000	55		 push	 ebp
  00001	8b ec		 mov	 ebp, esp

; 1619 :         const auto _Scary = _Get_scary();
; 1620 :         _Tree_find_result<_Nodeptr> _Result{{_Scary->_Myhead->_Parent, _Tree_child::_Right}, _Scary->_Myhead};

  00003	8b 09		 mov	 ecx, DWORD PTR [ecx]
  00005	8b 55 08	 mov	 edx, DWORD PTR ___$ReturnUdt$[ebp]
  00008	8b 41 04	 mov	 eax, DWORD PTR [ecx+4]
  0000b	89 02		 mov	 DWORD PTR [edx], eax
  0000d	c7 42 04 00 00
	00 00		 mov	 DWORD PTR [edx+4], 0
  00014	89 4a 08	 mov	 DWORD PTR [edx+8], ecx

; 1621 :         _Nodeptr _Trynode = _Result._Location._Parent;
; 1622 :         while (!_Trynode->_Isnil) {

  00017	80 78 0d 00	 cmp	 BYTE PTR [eax+13], 0
  0001b	75 28		 jne	 SHORT $LN13@Find_lower
; File D:\Program Files\Microsoft Visual Studio\2022\Community\VC\Tools\MSVC\14.43.34808\include\type_traits

; 2412 :         return _Left < _Right;

  0001d	8b 4d 0c	 mov	 ecx, DWORD PTR __Keyval$[ebp]
  00020	56		 push	 esi
  00021	8b 31		 mov	 esi, DWORD PTR [ecx]
$LL2@Find_lower:
; File D:\Program Files\Microsoft Visual Studio\2022\Community\VC\Tools\MSVC\14.43.34808\include\xtree

; 1623 :             _Result._Location._Parent = _Trynode;

  00023	89 02		 mov	 DWORD PTR [edx], eax
; File D:\Program Files\Microsoft Visual Studio\2022\Community\VC\Tools\MSVC\14.43.34808\include\type_traits

; 2412 :         return _Left < _Right;

  00025	39 70 10	 cmp	 DWORD PTR [eax+16], esi
; File D:\Program Files\Microsoft Visual Studio\2022\Community\VC\Tools\MSVC\14.43.34808\include\xtree

; 1624 :             if (_DEBUG_LT_PRED(_Getcomp(), _Traits::_Kfn(_Trynode->_Myval), _Keyval)) {

  00028	73 07		 jae	 SHORT $LN4@Find_lower

; 1625 :                 _Result._Location._Child = _Tree_child::_Right;
; 1626 :                 _Trynode                 = _Trynode->_Right;

  0002a	8b 40 08	 mov	 eax, DWORD PTR [eax+8]
  0002d	33 c9		 xor	 ecx, ecx

; 1627 :             } else {

  0002f	eb 0a		 jmp	 SHORT $LN5@Find_lower
$LN4@Find_lower:

; 1628 :                 _Result._Location._Child = _Tree_child::_Left;
; 1629 :                 _Result._Bound           = _Trynode;

  00031	89 42 08	 mov	 DWORD PTR [edx+8], eax

; 1630 :                 _Trynode                 = _Trynode->_Left;

  00034	b9 01 00 00 00	 mov	 ecx, 1
  00039	8b 00		 mov	 eax, DWORD PTR [eax]
$LN5@Find_lower:

; 1621 :         _Nodeptr _Trynode = _Result._Location._Parent;
; 1622 :         while (!_Trynode->_Isnil) {

  0003b	89 4a 04	 mov	 DWORD PTR [edx+4], ecx
  0003e	80 78 0d 00	 cmp	 BYTE PTR [eax+13], 0
  00042	74 df		 je	 SHORT $LL2@Find_lower
  00044	5e		 pop	 esi
$LN13@Find_lower:

; 1631 :             }
; 1632 :         }
; 1633 : 
; 1634 :         return _Result;
; 1635 :     }

  00045	8b c2		 mov	 eax, edx
  00047	5d		 pop	 ebp
  00048	c2 08 00	 ret	 8
??$_Find_lower_bound@K@?$_Tree@V?$_Tmap_traits@KV?$basic_string@DU?$char_traits@D@std@@V?$allocator@D@2@@std@@U?$less@K@2@V?$allocator@U?$pair@$$CBKV?$basic_string@DU?$char_traits@D@std@@V?$allocator@D@2@@std@@@std@@@2@$0A@@std@@@std@@IBE?AU?$_Tree_find_result@PAU?$_Tree_node@U?$pair@$$CBKV?$basic_string@DU?$char_traits@D@std@@V?$allocator@D@2@@std@@@std@@PAX@std@@@1@ABK@Z ENDP ; std::_Tree<std::_Tmap_traits<unsigned long,std::basic_string<char,std::char_traits<char>,std::allocator<char> >,std::less<unsigned long>,std::allocator<std::pair<unsigned long const ,std::basic_string<char,std::char_traits<char>,std::allocator<char> > > >,0> >::_Find_lower_bound<unsigned long>
_TEXT	ENDS
; Function compile flags: /Ogtp
; File D:\Program Files\Microsoft Visual Studio\2022\Community\VC\Tools\MSVC\14.43.34808\include\xtree
; File D:\Program Files\Microsoft Visual Studio\2022\Community\VC\Tools\MSVC\14.43.34808\include\utility
; File D:\Program Files\Microsoft Visual Studio\2022\Community\VC\Tools\MSVC\14.43.34808\include\xmemory
; File D:\Program Files\Microsoft Visual Studio\2022\Community\VC\Tools\MSVC\14.43.34808\include\xtree
;	COMDAT ??$_Erase_tree@V?$allocator@U?$_Tree_node@U?$pair@$$CBJPAVCResource@@@std@@PAX@std@@@std@@@?$_Tree_val@U?$_Tree_simple_types@U?$pair@$$CBJPAVCResource@@@std@@@std@@@std@@QAEXAAV?$allocator@U?$_Tree_node@U?$pair@$$CBJPAVCResource@@@std@@PAX@std@@@1@PAU?$_Tree_node@U?$pair@$$CBJPAVCResource@@@std@@PAX@1@@Z
_TEXT	SEGMENT
__Al$ = 8						; size = 4
__Rootnode$ = 12					; size = 4
??$_Erase_tree@V?$allocator@U?$_Tree_node@U?$pair@$$CBJPAVCResource@@@std@@PAX@std@@@std@@@?$_Tree_val@U?$_Tree_simple_types@U?$pair@$$CBJPAVCResource@@@std@@@std@@@std@@QAEXAAV?$allocator@U?$_Tree_node@U?$pair@$$CBJPAVCResource@@@std@@PAX@std@@@1@PAU?$_Tree_node@U?$pair@$$CBJPAVCResource@@@std@@PAX@1@@Z PROC ; std::_Tree_val<std::_Tree_simple_types<std::pair<long const ,CResource *> > >::_Erase_tree<std::allocator<std::_Tree_node<std::pair<long const ,CResource *>,void *> > >, COMDAT
; _this$ = ecx

; 757  :     void _Erase_tree(_Alnode& _Al, _Nodeptr _Rootnode) noexcept {

  00000	55		 push	 ebp
  00001	8b ec		 mov	 ebp, esp
  00003	53		 push	 ebx
  00004	56		 push	 esi

; 758  :         while (!_Rootnode->_Isnil) { // free subtrees, then node

  00005	8b 75 0c	 mov	 esi, DWORD PTR __Rootnode$[ebp]
  00008	8b d9		 mov	 ebx, ecx
  0000a	80 7e 0d 00	 cmp	 BYTE PTR [esi+13], 0
  0000e	75 25		 jne	 SHORT $LN39@Erase_tree
  00010	57		 push	 edi
  00011	8b 7d 08	 mov	 edi, DWORD PTR __Al$[ebp]
$LL2@Erase_tree:

; 759  :             _Erase_tree(_Al, _Rootnode->_Right);

  00014	ff 76 08	 push	 DWORD PTR [esi+8]
  00017	8b cb		 mov	 ecx, ebx
  00019	57		 push	 edi
  0001a	e8 00 00 00 00	 call	 ??$_Erase_tree@V?$allocator@U?$_Tree_node@U?$pair@$$CBJPAVCResource@@@std@@PAX@std@@@std@@@?$_Tree_val@U?$_Tree_simple_types@U?$pair@$$CBJPAVCResource@@@std@@@std@@@std@@QAEXAAV?$allocator@U?$_Tree_node@U?$pair@$$CBJPAVCResource@@@std@@PAX@std@@@1@PAU?$_Tree_node@U?$pair@$$CBJPAVCResource@@@std@@PAX@1@@Z ; std::_Tree_val<std::_Tree_simple_types<std::pair<long const ,CResource *> > >::_Erase_tree<std::allocator<std::_Tree_node<std::pair<long const ,CResource *>,void *> > >
; File D:\Program Files\Microsoft Visual Studio\2022\Community\VC\Tools\MSVC\14.43.34808\include\utility

; 773  :     _Ty _Old_val = static_cast<_Ty&&>(_Val);

  0001f	8b c6		 mov	 eax, esi

; 774  :     _Val         = static_cast<_Other&&>(_New_val);

  00021	8b 36		 mov	 esi, DWORD PTR [esi]
; File D:\Program Files\Microsoft Visual Studio\2022\Community\VC\Tools\MSVC\14.43.34808\include\xmemory

; 289  :         ::operator delete(_Ptr, _Bytes);

  00023	6a 18		 push	 24			; 00000018H
  00025	50		 push	 eax
  00026	e8 00 00 00 00	 call	 ??3@YAXPAXI@Z		; operator delete
  0002b	83 c4 08	 add	 esp, 8
; File D:\Program Files\Microsoft Visual Studio\2022\Community\VC\Tools\MSVC\14.43.34808\include\xtree

; 758  :         while (!_Rootnode->_Isnil) { // free subtrees, then node

  0002e	80 7e 0d 00	 cmp	 BYTE PTR [esi+13], 0
  00032	74 e0		 je	 SHORT $LL2@Erase_tree
  00034	5f		 pop	 edi
$LN39@Erase_tree:
  00035	5e		 pop	 esi

; 760  :             _Alnode::value_type::_Freenode(_Al, _STD exchange(_Rootnode, _Rootnode->_Left));
; 761  :         }
; 762  :     }

  00036	5b		 pop	 ebx
  00037	5d		 pop	 ebp
  00038	c2 08 00	 ret	 8
??$_Erase_tree@V?$allocator@U?$_Tree_node@U?$pair@$$CBJPAVCResource@@@std@@PAX@std@@@std@@@?$_Tree_val@U?$_Tree_simple_types@U?$pair@$$CBJPAVCResource@@@std@@@std@@@std@@QAEXAAV?$allocator@U?$_Tree_node@U?$pair@$$CBJPAVCResource@@@std@@PAX@std@@@1@PAU?$_Tree_node@U?$pair@$$CBJPAVCResource@@@std@@PAX@1@@Z ENDP ; std::_Tree_val<std::_Tree_simple_types<std::pair<long const ,CResource *> > >::_Erase_tree<std::allocator<std::_Tree_node<std::pair<long const ,CResource *>,void *> > >
_TEXT	ENDS
; Function compile flags: /Ogtp
; File D:\Program Files\Microsoft Visual Studio\2022\Community\VC\Tools\MSVC\14.43.34808\include\vector
; File D:\Program Files\Microsoft Visual Studio\2022\Community\VC\Tools\MSVC\14.43.34808\include\xmemory
; File D:\Program Files\Microsoft Visual Studio\2022\Community\VC\Tools\MSVC\14.43.34808\include\vector
; File D:\Program Files\Microsoft Visual Studio\2022\Community\VC\Tools\MSVC\14.43.34808\include\xmemory
; File D:\Program Files\Microsoft Visual Studio\2022\Community\VC\Tools\MSVC\14.43.34808\include\vector
; File D:\Program Files\Microsoft Visual Studio\2022\Community\VC\Tools\MSVC\14.43.34808\include\xmemory
; File D:\Program Files\Microsoft Visual Studio\2022\Community\VC\Tools\MSVC\14.43.34808\include\vector
; File D:\Program Files\Microsoft Visual Studio\2022\Community\VC\Tools\MSVC\14.43.34808\include\xmemory
; File D:\Program Files\Microsoft Visual Studio\2022\Community\VC\Tools\MSVC\14.43.34808\include\vector
; File D:\Program Files\Microsoft Visual Studio\2022\Community\VC\Tools\MSVC\14.43.34808\include\xmemory
; File D:\Program Files\Microsoft Visual Studio\2022\Community\VC\Tools\MSVC\14.43.34808\include\vector
; File D:\Program Files\Microsoft Visual Studio\2022\Community\VC\Tools\MSVC\14.43.34808\include\xmemory
; File D:\Program Files\Microsoft Visual Studio\2022\Community\VC\Tools\MSVC\14.43.34808\include\vector
; File D:\Program Files\Microsoft Visual Studio\2022\Community\VC\Tools\MSVC\14.43.34808\include\xmemory
; File D:\Program Files\Microsoft Visual Studio\2022\Community\VC\Tools\MSVC\14.43.34808\include\vector
; File D:\Program Files\Microsoft Visual Studio\2022\Community\VC\Tools\MSVC\14.43.34808\include\xmemory
; File D:\Program Files\Microsoft Visual Studio\2022\Community\VC\Tools\MSVC\14.43.34808\include\vector
; File D:\Program Files\Microsoft Visual Studio\2022\Community\VC\Tools\MSVC\14.43.34808\include\xmemory
; File D:\Program Files\Microsoft Visual Studio\2022\Community\VC\Tools\MSVC\14.43.34808\include\vector
;	COMDAT ??$_Emplace_reallocate@ABUSDumpData@@@?$vector@USDumpData@@V?$allocator@USDumpData@@@std@@@std@@AAEPAUSDumpData@@QAU2@ABU2@@Z
_TEXT	SEGMENT
__Oldsize$1$ = -12					; size = 4
__Whereoff$1$ = -8					; size = 4
tv650 = -8						; size = 4
tv652 = -4						; size = 4
__Whereptr$ = 8						; size = 4
_<_Val_0>$ = 12						; size = 4
??$_Emplace_reallocate@ABUSDumpData@@@?$vector@USDumpData@@V?$allocator@USDumpData@@@std@@@std@@AAEPAUSDumpData@@QAU2@ABU2@@Z PROC ; std::vector<SDumpData,std::allocator<SDumpData> >::_Emplace_reallocate<SDumpData const &>, COMDAT
; _this$ = ecx

; 860  :     _CONSTEXPR20 pointer _Emplace_reallocate(const pointer _Whereptr, _Valty&&... _Val) {

  00000	55		 push	 ebp
  00001	8b ec		 mov	 ebp, esp
  00003	83 ec 0c	 sub	 esp, 12			; 0000000cH

; 861  :         // reallocate and insert by perfectly forwarding _Val at _Whereptr
; 862  :         _Alty& _Al        = _Getal();
; 863  :         auto& _My_data    = _Mypair._Myval2;
; 864  :         pointer& _Myfirst = _My_data._Myfirst;
; 865  :         pointer& _Mylast  = _My_data._Mylast;
; 866  : 
; 867  :         _STL_INTERNAL_CHECK(_Mylast == _My_data._Myend); // check that we have no unused capacity
; 868  : 
; 869  :         const auto _Whereoff = static_cast<size_type>(_Whereptr - _Myfirst);

  00006	8b 55 08	 mov	 edx, DWORD PTR __Whereptr$[ebp]
  00009	b8 ab aa aa 2a	 mov	 eax, 715827883		; 2aaaaaabH
  0000e	53		 push	 ebx
  0000f	8b d9		 mov	 ebx, ecx
  00011	57		 push	 edi
  00012	8b 3b		 mov	 edi, DWORD PTR [ebx]
  00014	2b d7		 sub	 edx, edi

; 870  :         const auto _Oldsize  = static_cast<size_type>(_Mylast - _Myfirst);

  00016	8b 4b 04	 mov	 ecx, DWORD PTR [ebx+4]
  00019	f7 ea		 imul	 edx
  0001b	2b cf		 sub	 ecx, edi
  0001d	d1 fa		 sar	 edx, 1
  0001f	8b c2		 mov	 eax, edx
  00021	c1 e8 1f	 shr	 eax, 31			; 0000001fH
  00024	03 c2		 add	 eax, edx
  00026	89 45 f8	 mov	 DWORD PTR __Whereoff$1$[ebp], eax
  00029	b8 ab aa aa 2a	 mov	 eax, 715827883		; 2aaaaaabH
  0002e	f7 e9		 imul	 ecx
  00030	d1 fa		 sar	 edx, 1
  00032	8b c2		 mov	 eax, edx
  00034	c1 e8 1f	 shr	 eax, 31			; 0000001fH
  00037	03 c2		 add	 eax, edx
  00039	89 45 f4	 mov	 DWORD PTR __Oldsize$1$[ebp], eax

; 871  : 
; 872  :         if (_Oldsize == max_size()) {

  0003c	3d 55 55 55 15	 cmp	 eax, 357913941		; 15555555H
  00041	0f 84 38 01 00
	00		 je	 $LN131@Emplace_re

; 1909 :         return static_cast<size_type>(_My_data._Myend - _My_data._Myfirst);

  00047	8b 4b 08	 mov	 ecx, DWORD PTR [ebx+8]
  0004a	2b cf		 sub	 ecx, edi
  0004c	56		 push	 esi

; 874  :         }
; 875  : 
; 876  :         const size_type _Newsize = _Oldsize + 1;

  0004d	8d 70 01	 lea	 esi, DWORD PTR [eax+1]

; 1909 :         return static_cast<size_type>(_My_data._Myend - _My_data._Myfirst);

  00050	b8 ab aa aa 2a	 mov	 eax, 715827883		; 2aaaaaabH
  00055	f7 e9		 imul	 ecx

; 1996 :         if (_Oldcapacity > _Max - _Oldcapacity / 2) {

  00057	b8 55 55 55 15	 mov	 eax, 357913941		; 15555555H

; 1909 :         return static_cast<size_type>(_My_data._Myend - _My_data._Myfirst);

  0005c	d1 fa		 sar	 edx, 1
  0005e	8b ca		 mov	 ecx, edx
  00060	c1 e9 1f	 shr	 ecx, 31			; 0000001fH
  00063	03 ca		 add	 ecx, edx

; 1996 :         if (_Oldcapacity > _Max - _Oldcapacity / 2) {

  00065	8b d1		 mov	 edx, ecx
  00067	d1 ea		 shr	 edx, 1
  00069	2b c2		 sub	 eax, edx
  0006b	3b c8		 cmp	 ecx, eax
  0006d	76 14		 jbe	 SHORT $LN8@Emplace_re

; 1997 :             return _Max; // geometric growth would overflow

  0006f	b8 fc ff ff ff	 mov	 eax, -4			; fffffffcH
  00074	c7 45 fc fc ff
	ff ff		 mov	 DWORD PTR tv652[ebp], -4 ; fffffffcH
; File D:\Program Files\Microsoft Visual Studio\2022\Community\VC\Tools\MSVC\14.43.34808\include\xmemory

; 253  :             return _Allocate_manually_vector_aligned<_Traits>(_Bytes);

  0007b	50		 push	 eax
  0007c	e8 00 00 00 00	 call	 ??$_Allocate_manually_vector_aligned@U_Default_allocate_traits@std@@@std@@YAPAXI@Z ; std::_Allocate_manually_vector_aligned<std::_Default_allocate_traits>
  00081	eb 3e		 jmp	 SHORT $LN129@Emplace_re
$LN8@Emplace_re:
; File D:\Program Files\Microsoft Visual Studio\2022\Community\VC\Tools\MSVC\14.43.34808\include\vector

; 2000 :         const size_type _Geometric = _Oldcapacity + _Oldcapacity / 2;

  00083	8d 04 0a	 lea	 eax, DWORD PTR [edx+ecx]
; File D:\Program Files\Microsoft Visual Studio\2022\Community\VC\Tools\MSVC\14.43.34808\include\xmemory

; 117  :         if (_Count > _Max_possible) {

  00086	8b ce		 mov	 ecx, esi
  00088	3b c6		 cmp	 eax, esi
  0008a	0f 43 c8	 cmovae	 ecx, eax
  0008d	81 f9 55 55 55
	15		 cmp	 ecx, 357913941		; 15555555H
  00093	0f 87 eb 00 00
	00		 ja	 $LN132@Emplace_re

; 119  :         }
; 120  :     }
; 121  : 
; 122  :     return _Count * _Ty_size;

  00099	8d 34 49	 lea	 esi, DWORD PTR [ecx+ecx*2]
  0009c	c1 e6 02	 shl	 esi, 2

; 986  :         return static_cast<_Ty*>(_STD _Allocate<_New_alignof<_Ty>>(_Get_size_of_n<sizeof(_Ty)>(_Count)));

  0009f	8b c6		 mov	 eax, esi

; 122  :     return _Count * _Ty_size;

  000a1	89 75 fc	 mov	 DWORD PTR tv652[ebp], esi

; 227  :     if (_Bytes == 0) {

  000a4	85 c0		 test	 eax, eax
  000a6	75 04		 jne	 SHORT $LN23@Emplace_re

; 228  :         return nullptr;

  000a8	33 ff		 xor	 edi, edi
  000aa	eb 1a		 jmp	 SHORT $LN22@Emplace_re
$LN23@Emplace_re:

; 229  :     }
; 230  : 
; 231  : #if _HAS_CXX20 // TRANSITION, GH-1532
; 232  :     if (_STD is_constant_evaluated()) {
; 233  :         return _Traits::_Allocate(_Bytes);
; 234  :     }
; 235  : #endif // _HAS_CXX20
; 236  : 
; 237  : #ifdef __cpp_aligned_new
; 238  :     if constexpr (_Align > __STDCPP_DEFAULT_NEW_ALIGNMENT__) {
; 239  :         size_t _Passed_align = _Align;
; 240  : #if defined(_M_IX86) || defined(_M_X64)
; 241  :         if (_Bytes >= _Big_allocation_threshold) {
; 242  :             // boost the alignment of big allocations to help autovectorization
; 243  :             _Passed_align = (_STD max)(_Align, _Big_allocation_alignment);
; 244  :         }
; 245  : #endif // defined(_M_IX86) || defined(_M_X64)
; 246  :         return _Traits::_Allocate_aligned(_Bytes, _Passed_align);
; 247  :     } else
; 248  : #endif // defined(__cpp_aligned_new)
; 249  :     {
; 250  : #if defined(_M_IX86) || defined(_M_X64)
; 251  :         if (_Bytes >= _Big_allocation_threshold) {

  000ac	3d 00 10 00 00	 cmp	 eax, 4096		; 00001000H
  000b1	72 08		 jb	 SHORT $LN24@Emplace_re

; 253  :             return _Allocate_manually_vector_aligned<_Traits>(_Bytes);

  000b3	50		 push	 eax
  000b4	e8 00 00 00 00	 call	 ??$_Allocate_manually_vector_aligned@U_Default_allocate_traits@std@@@std@@YAPAXI@Z ; std::_Allocate_manually_vector_aligned<std::_Default_allocate_traits>
  000b9	eb 06		 jmp	 SHORT $LN129@Emplace_re
$LN24@Emplace_re:

; 136  :         return ::operator new(_Bytes);

  000bb	50		 push	 eax
  000bc	e8 00 00 00 00	 call	 ??2@YAPAXI@Z		; operator new
$LN129@Emplace_re:
; File D:\Program Files\Microsoft Visual Studio\2022\Community\VC\Tools\MSVC\14.43.34808\include\vector

; 885  :         _Alty_traits::construct(_Al, _STD _Unfancy(_Newvec + _Whereoff), _STD forward<_Valty>(_Val)...);

  000c1	8b f8		 mov	 edi, eax
  000c3	83 c4 04	 add	 esp, 4
$LN22@Emplace_re:
  000c6	8b 45 f8	 mov	 eax, DWORD PTR __Whereoff$1$[ebp]

; 888  :         if (_Whereptr == _Mylast) { // at back, provide strong guarantee

  000c9	8b 55 08	 mov	 edx, DWORD PTR __Whereptr$[ebp]
  000cc	8d 04 40	 lea	 eax, DWORD PTR [eax+eax*2]
  000cf	8d 34 87	 lea	 esi, DWORD PTR [edi+eax*4]
; File D:\Program Files\Microsoft Visual Studio\2022\Community\VC\Tools\MSVC\14.43.34808\include\xmemory

; 732  :         ::new (const_cast<void*>(static_cast<const volatile void*>(_Ptr))) _Objty(_STD forward<_Types>(_Args)...);

  000d2	8b 45 0c	 mov	 eax, DWORD PTR _<_Val_0>$[ebp]
; File D:\Program Files\Microsoft Visual Studio\2022\Community\VC\Tools\MSVC\14.43.34808\include\vector

; 885  :         _Alty_traits::construct(_Al, _STD _Unfancy(_Newvec + _Whereoff), _STD forward<_Valty>(_Val)...);

  000d5	89 75 f8	 mov	 DWORD PTR tv650[ebp], esi
; File D:\Program Files\Microsoft Visual Studio\2022\Community\VC\Tools\MSVC\14.43.34808\include\xmemory

; 732  :         ::new (const_cast<void*>(static_cast<const volatile void*>(_Ptr))) _Objty(_STD forward<_Types>(_Args)...);

  000d8	f3 0f 7e 00	 movq	 xmm0, QWORD PTR [eax]
  000dc	66 0f d6 06	 movq	 QWORD PTR [esi], xmm0
  000e0	8b 40 08	 mov	 eax, DWORD PTR [eax+8]
  000e3	89 46 08	 mov	 DWORD PTR [esi+8], eax
; File D:\Program Files\Microsoft Visual Studio\2022\Community\VC\Tools\MSVC\14.43.34808\include\vector

; 888  :         if (_Whereptr == _Mylast) { // at back, provide strong guarantee

  000e6	8b 4b 04	 mov	 ecx, DWORD PTR [ebx+4]
  000e9	8b 03		 mov	 eax, DWORD PTR [ebx]
  000eb	3b d1		 cmp	 edx, ecx
  000ed	75 04		 jne	 SHORT $LN3@Emplace_re
; File D:\Program Files\Microsoft Visual Studio\2022\Community\VC\Tools\MSVC\14.43.34808\include\xmemory

; 1955 :             _STD _Copy_memmove(_UFirst, _ULast, _STD _Unfancy(_Dest));

  000ef	8b f7		 mov	 esi, edi
; File D:\Program Files\Microsoft Visual Studio\2022\Community\VC\Tools\MSVC\14.43.34808\include\vector

; 894  :         } else { // provide basic guarantee

  000f1	eb 14		 jmp	 SHORT $LN58@Emplace_re
$LN3@Emplace_re:
; File D:\Program Files\Microsoft Visual Studio\2022\Community\VC\Tools\MSVC\14.43.34808\include\xmemory

; 1955 :             _STD _Copy_memmove(_UFirst, _ULast, _STD _Unfancy(_Dest));

  000f3	57		 push	 edi
  000f4	52		 push	 edx
  000f5	50		 push	 eax
  000f6	e8 00 00 00 00	 call	 ??$_Copy_memmove@PAUSDumpData@@PAU1@@std@@YAPAUSDumpData@@PAU1@00@Z ; std::_Copy_memmove<SDumpData *,SDumpData *>
  000fb	8b 45 08	 mov	 eax, DWORD PTR __Whereptr$[ebp]
  000fe	83 c4 0c	 add	 esp, 12			; 0000000cH
  00101	8b 4b 04	 mov	 ecx, DWORD PTR [ebx+4]
; File D:\Program Files\Microsoft Visual Studio\2022\Community\VC\Tools\MSVC\14.43.34808\include\vector

; 897  :             _STD _Uninitialized_move(_Whereptr, _Mylast, _Newvec + _Whereoff + 1, _Al);

  00104	83 c6 0c	 add	 esi, 12			; 0000000cH
$LN58@Emplace_re:

; 898  :         }
; 899  : 
; 900  :         _Guard._New_begin = nullptr;

  00107	56		 push	 esi
  00108	51		 push	 ecx
  00109	50		 push	 eax
  0010a	e8 00 00 00 00	 call	 ??$_Copy_memmove@PAUSDumpData@@PAU1@@std@@YAPAUSDumpData@@PAU1@00@Z ; std::_Copy_memmove<SDumpData *,SDumpData *>

; 2054 :         if (_Myfirst) { // destroy and deallocate old array

  0010f	8b 33		 mov	 esi, DWORD PTR [ebx]

; 898  :         }
; 899  : 
; 900  :         _Guard._New_begin = nullptr;

  00111	83 c4 0c	 add	 esp, 12			; 0000000cH

; 2054 :         if (_Myfirst) { // destroy and deallocate old array

  00114	85 f6		 test	 esi, esi
  00116	74 3f		 je	 SHORT $LN80@Emplace_re

; 2055 :             _STD _Destroy_range(_Myfirst, _Mylast, _Al);
; 2056 :             _ASAN_VECTOR_REMOVE;
; 2057 :             _Al.deallocate(_Myfirst, static_cast<size_type>(_Myend - _Myfirst));

  00118	8b 4b 08	 mov	 ecx, DWORD PTR [ebx+8]
  0011b	b8 ab aa aa 2a	 mov	 eax, 715827883		; 2aaaaaabH
  00120	2b ce		 sub	 ecx, esi
  00122	f7 e9		 imul	 ecx
  00124	d1 fa		 sar	 edx, 1
  00126	8b c2		 mov	 eax, edx
  00128	c1 e8 1f	 shr	 eax, 31			; 0000001fH
  0012b	03 c2		 add	 eax, edx
; File D:\Program Files\Microsoft Visual Studio\2022\Community\VC\Tools\MSVC\14.43.34808\include\xmemory

; 981  :         _STD _Deallocate<_New_alignof<_Ty>>(_Ptr, sizeof(_Ty) * _Count);

  0012d	8d 0c 40	 lea	 ecx, DWORD PTR [eax+eax*2]
  00130	c1 e1 02	 shl	 ecx, 2

; 284  :         if (_Bytes >= _Big_allocation_threshold) {

  00133	81 f9 00 10 00
	00		 cmp	 ecx, 4096		; 00001000H
  00139	72 12		 jb	 SHORT $LN91@Emplace_re

; 205  :     const uintptr_t _Ptr_container   = _Ptr_user[-1];

  0013b	8b 56 fc	 mov	 edx, DWORD PTR [esi-4]
  0013e	83 c1 23	 add	 ecx, 35			; 00000023H

; 206  : 
; 207  :     // If the following asserts, it likely means that we are performing
; 208  :     // an aligned delete on memory coming from an unaligned allocation.
; 209  :     _STL_ASSERT(_Ptr_user[-2] == _Big_allocation_sentinel, "invalid argument");
; 210  : 
; 211  :     // Extra paranoia on aligned allocation/deallocation; ensure _Ptr_container is
; 212  :     // in range [_Min_back_shift, _Non_user_size]
; 213  : #ifdef _DEBUG
; 214  :     constexpr uintptr_t _Min_back_shift = 2 * sizeof(void*);
; 215  : #else // ^^^ defined(_DEBUG) / !defined(_DEBUG) vvv
; 216  :     constexpr uintptr_t _Min_back_shift = sizeof(void*);
; 217  : #endif // ^^^ !defined(_DEBUG) ^^^
; 218  :     const uintptr_t _Back_shift = reinterpret_cast<uintptr_t>(_Ptr) - _Ptr_container;

  00141	2b f2		 sub	 esi, edx

; 219  :     _STL_VERIFY(_Back_shift >= _Min_back_shift && _Back_shift <= _Non_user_size, "invalid argument");

  00143	8d 46 fc	 lea	 eax, DWORD PTR [esi-4]
  00146	83 f8 1f	 cmp	 eax, 31			; 0000001fH
  00149	77 2f		 ja	 SHORT $LN88@Emplace_re

; 220  :     _Ptr = reinterpret_cast<void*>(_Ptr_container);

  0014b	8b f2		 mov	 esi, edx
$LN91@Emplace_re:

; 289  :         ::operator delete(_Ptr, _Bytes);

  0014d	51		 push	 ecx
  0014e	56		 push	 esi
  0014f	e8 00 00 00 00	 call	 ??3@YAXPAXI@Z		; operator delete
  00154	83 c4 08	 add	 esp, 8
$LN80@Emplace_re:
; File D:\Program Files\Microsoft Visual Studio\2022\Community\VC\Tools\MSVC\14.43.34808\include\vector

; 2061 :         _Mylast  = _Newvec + _Newsize;

  00157	8b 45 f4	 mov	 eax, DWORD PTR __Oldsize$1$[ebp]
  0015a	40		 inc	 eax
  0015b	89 3b		 mov	 DWORD PTR [ebx], edi

; 901  :         _Change_array(_Newvec, _Newsize, _Newcapacity);
; 902  :         return _Newvec + _Whereoff;

  0015d	5e		 pop	 esi

; 2061 :         _Mylast  = _Newvec + _Newsize;

  0015e	8d 0c 40	 lea	 ecx, DWORD PTR [eax+eax*2]

; 901  :         _Change_array(_Newvec, _Newsize, _Newcapacity);
; 902  :         return _Newvec + _Whereoff;

  00161	8b 45 f8	 mov	 eax, DWORD PTR tv650[ebp]

; 2061 :         _Mylast  = _Newvec + _Newsize;

  00164	8d 0c 8f	 lea	 ecx, DWORD PTR [edi+ecx*4]
  00167	89 4b 04	 mov	 DWORD PTR [ebx+4], ecx

; 2062 :         _Myend   = _Newvec + _Newcapacity;

  0016a	8b 4d fc	 mov	 ecx, DWORD PTR tv652[ebp]
  0016d	03 cf		 add	 ecx, edi

; 903  :     }

  0016f	5f		 pop	 edi

; 2062 :         _Myend   = _Newvec + _Newcapacity;

  00170	89 4b 08	 mov	 DWORD PTR [ebx+8], ecx

; 903  :     }

  00173	5b		 pop	 ebx
  00174	8b e5		 mov	 esp, ebp
  00176	5d		 pop	 ebp
  00177	c2 08 00	 ret	 8
$LN88@Emplace_re:
; File D:\Program Files\Microsoft Visual Studio\2022\Community\VC\Tools\MSVC\14.43.34808\include\xmemory

; 219  :     _STL_VERIFY(_Back_shift >= _Min_back_shift && _Back_shift <= _Non_user_size, "invalid argument");

  0017a	e8 00 00 00 00	 call	 __invalid_parameter_noinfo_noreturn
$LN131@Emplace_re:
; File D:\Program Files\Microsoft Visual Studio\2022\Community\VC\Tools\MSVC\14.43.34808\include\vector

; 873  :             _Xlength();

  0017f	e8 00 00 00 00	 call	 ?_Xlength@?$vector@USDumpData@@V?$allocator@USDumpData@@@std@@@std@@CAXXZ ; std::vector<SDumpData,std::allocator<SDumpData> >::_Xlength
$LN132@Emplace_re:
; File D:\Program Files\Microsoft Visual Studio\2022\Community\VC\Tools\MSVC\14.43.34808\include\xmemory

; 118  :             _Throw_bad_array_new_length(); // multiply overflow

  00184	e8 00 00 00 00	 call	 ?_Throw_bad_array_new_length@std@@YAXXZ ; std::_Throw_bad_array_new_length
$LN128@Emplace_re:
  00189	cc		 int	 3
??$_Emplace_reallocate@ABUSDumpData@@@?$vector@USDumpData@@V?$allocator@USDumpData@@@std@@@std@@AAEPAUSDumpData@@QAU2@ABU2@@Z ENDP ; std::vector<SDumpData,std::allocator<SDumpData> >::_Emplace_reallocate<SDumpData const &>
_TEXT	ENDS
; Function compile flags: /Ogtp
; File D:\Program Files\Microsoft Visual Studio\2022\Community\VC\Tools\MSVC\14.43.34808\include\algorithm
; File D:\Program Files\Microsoft Visual Studio\2022\Community\VC\Tools\MSVC\14.43.34808\include\xutility
; File D:\Program Files\Microsoft Visual Studio\2022\Community\VC\Tools\MSVC\14.43.34808\include\algorithm
; File D:\Program Files\Microsoft Visual Studio\2022\Community\VC\Tools\MSVC\14.43.34808\include\xutility
; File D:\Program Files\Microsoft Visual Studio\2022\Community\VC\Tools\MSVC\14.43.34808\include\algorithm
; File D:\Program Files\Microsoft Visual Studio\2022\Community\VC\Tools\MSVC\14.43.34808\include\__msvc_heap_algorithms.hpp
; File D:\Program Files\Microsoft Visual Studio\2022\Community\VC\Tools\MSVC\14.43.34808\include\algorithm
;	COMDAT ??$_Sort_unchecked@PAUSDumpData@@P6A_NABU1@0@Z@std@@YAXPAUSDumpData@@0HP6A_NABU1@1@Z@Z
_TEXT	SEGMENT
__Val$1 = -20						; size = 12
__Val$2 = -20						; size = 12
__Mid$3 = -8						; size = 8
__Mid$1$ = -4						; size = 4
__First$ = 8						; size = 4
tv255 = 8						; size = 4
__Last$ = 12						; size = 4
tv262 = 12						; size = 4
__Ideal$ = 16						; size = 4
__Pred$ = 20						; size = 4
??$_Sort_unchecked@PAUSDumpData@@P6A_NABU1@0@Z@std@@YAXPAUSDumpData@@0HP6A_NABU1@1@Z@Z PROC ; std::_Sort_unchecked<SDumpData *,bool (__cdecl*)(SDumpData const &,SDumpData const &)>, COMDAT

; 8339 : _CONSTEXPR20 void _Sort_unchecked(_RanIt _First, _RanIt _Last, _Iter_diff_t<_RanIt> _Ideal, _Pr _Pred) {

  00000	55		 push	 ebp
  00001	8b ec		 mov	 ebp, esp
  00003	83 ec 14	 sub	 esp, 20			; 00000014H
  00006	53		 push	 ebx

; 8340 :     // order [_First, _Last)
; 8341 :     for (;;) {
; 8342 :         if (_Last - _First <= _ISORT_MAX) { // small

  00007	8b 5d 08	 mov	 ebx, DWORD PTR __First$[ebp]
  0000a	56		 push	 esi
  0000b	8b 75 0c	 mov	 esi, DWORD PTR __Last$[ebp]
  0000e	8b c6		 mov	 eax, esi
  00010	2b c3		 sub	 eax, ebx
  00012	57		 push	 edi
  00013	8b 7d 14	 mov	 edi, DWORD PTR __Pred$[ebp]
  00016	3d 8c 01 00 00	 cmp	 eax, 396		; 0000018cH
  0001b	0f 8c 90 00 00
	00		 jl	 $LN40@Sort_unche
$LL4@Sort_unche:

; 8343 :             _STD _Insertion_sort_unchecked(_First, _Last, _Pred);
; 8344 :             return;
; 8345 :         }
; 8346 : 
; 8347 :         if (_Ideal <= 0) { // heap sort if too many divisions

  00021	83 7d 10 00	 cmp	 DWORD PTR __Ideal$[ebp], 0
  00025	57		 push	 edi
  00026	56		 push	 esi
  00027	53		 push	 ebx
  00028	0f 8e eb 00 00
	00		 jle	 $LN41@Sort_unche

; 8349 :             _STD _Sort_heap_unchecked(_First, _Last, _Pred);
; 8350 :             return;
; 8351 :         }
; 8352 : 
; 8353 :         // divide and conquer by quicksort
; 8354 :         auto _Mid = _STD _Partition_by_median_guess_unchecked(_First, _Last, _Pred);

  0002e	8d 45 f8	 lea	 eax, DWORD PTR __Mid$3[ebp]
  00031	50		 push	 eax
  00032	e8 00 00 00 00	 call	 ??$_Partition_by_median_guess_unchecked@PAUSDumpData@@P6A_NABU1@0@Z@std@@YA?AU?$pair@PAUSDumpData@@PAU1@@0@PAUSDumpData@@0P6A_NABU2@1@Z@Z ; std::_Partition_by_median_guess_unchecked<SDumpData *,bool (__cdecl*)(SDumpData const &,SDumpData const &)>

; 8355 : 
; 8356 :         _Ideal = (_Ideal >> 1) + (_Ideal >> 2); // allow 1.5 log2(N) divisions

  00037	8b 4d 10	 mov	 ecx, DWORD PTR __Ideal$[ebp]
  0003a	83 c4 10	 add	 esp, 16			; 00000010H
  0003d	8b c1		 mov	 eax, ecx
  0003f	d1 f9		 sar	 ecx, 1
  00041	c1 f8 02	 sar	 eax, 2
  00044	03 c8		 add	 ecx, eax

; 8357 : 
; 8358 :         if (_Mid.first - _First < _Last - _Mid.second) { // loop on second half

  00046	b8 ab aa aa 2a	 mov	 eax, 715827883		; 2aaaaaabH
  0004b	89 4d 10	 mov	 DWORD PTR __Ideal$[ebp], ecx
  0004e	8b ce		 mov	 ecx, esi
  00050	2b 4d fc	 sub	 ecx, DWORD PTR __Mid$3[ebp+4]
  00053	f7 e9		 imul	 ecx
  00055	8b 4d f8	 mov	 ecx, DWORD PTR __Mid$3[ebp]
  00058	b8 ab aa aa 2a	 mov	 eax, 715827883		; 2aaaaaabH
  0005d	d1 fa		 sar	 edx, 1
  0005f	2b cb		 sub	 ecx, ebx
  00061	8b f2		 mov	 esi, edx
  00063	c1 ee 1f	 shr	 esi, 31			; 0000001fH
  00066	03 f2		 add	 esi, edx
  00068	f7 e9		 imul	 ecx
  0006a	57		 push	 edi
  0006b	ff 75 10	 push	 DWORD PTR __Ideal$[ebp]
  0006e	d1 fa		 sar	 edx, 1
  00070	8b c2		 mov	 eax, edx
  00072	c1 e8 1f	 shr	 eax, 31			; 0000001fH
  00075	03 c2		 add	 eax, edx
  00077	3b c6		 cmp	 eax, esi
  00079	7d 12		 jge	 SHORT $LN7@Sort_unche

; 8359 :             _STD _Sort_unchecked(_First, _Mid.first, _Ideal, _Pred);

  0007b	8b 75 f8	 mov	 esi, DWORD PTR __Mid$3[ebp]
  0007e	56		 push	 esi
  0007f	53		 push	 ebx
  00080	e8 00 00 00 00	 call	 ??$_Sort_unchecked@PAUSDumpData@@P6A_NABU1@0@Z@std@@YAXPAUSDumpData@@0HP6A_NABU1@1@Z@Z ; std::_Sort_unchecked<SDumpData *,bool (__cdecl*)(SDumpData const &,SDumpData const &)>

; 8360 :             _First = _Mid.second;

  00085	8b 5d fc	 mov	 ebx, DWORD PTR __Mid$3[ebp+4]

; 8361 :         } else { // loop on first half

  00088	8b 75 0c	 mov	 esi, DWORD PTR __Last$[ebp]
  0008b	eb 12		 jmp	 SHORT $LN67@Sort_unche
$LN7@Sort_unche:

; 8362 :             _STD _Sort_unchecked(_Mid.second, _Last, _Ideal, _Pred);

  0008d	ff 75 0c	 push	 DWORD PTR __Last$[ebp]
  00090	8b 45 fc	 mov	 eax, DWORD PTR __Mid$3[ebp+4]
  00093	50		 push	 eax
  00094	e8 00 00 00 00	 call	 ??$_Sort_unchecked@PAUSDumpData@@P6A_NABU1@0@Z@std@@YAXPAUSDumpData@@0HP6A_NABU1@1@Z@Z ; std::_Sort_unchecked<SDumpData *,bool (__cdecl*)(SDumpData const &,SDumpData const &)>

; 8363 :             _Last = _Mid.first;

  00099	8b 75 f8	 mov	 esi, DWORD PTR __Mid$3[ebp]
  0009c	89 75 0c	 mov	 DWORD PTR __Last$[ebp], esi
$LN67@Sort_unche:

; 8340 :     // order [_First, _Last)
; 8341 :     for (;;) {
; 8342 :         if (_Last - _First <= _ISORT_MAX) { // small

  0009f	8b c6		 mov	 eax, esi
  000a1	83 c4 10	 add	 esp, 16			; 00000010H
  000a4	2b c3		 sub	 eax, ebx
  000a6	3d 8c 01 00 00	 cmp	 eax, 396		; 0000018cH
  000ab	0f 8d 70 ff ff
	ff		 jge	 $LL4@Sort_unche
$LN40@Sort_unche:

; 8213 :     if (_First != _Last) {

  000b1	3b de		 cmp	 ebx, esi
  000b3	0f 84 3e 01 00
	00		 je	 $LN12@Sort_unche

; 8214 :         for (_BidIt _Mid = _First; ++_Mid != _Last;) { // order next element

  000b9	8d 73 0c	 lea	 esi, DWORD PTR [ebx+12]
  000bc	89 75 fc	 mov	 DWORD PTR __Mid$1$[ebp], esi
  000bf	3b 75 0c	 cmp	 esi, DWORD PTR __Last$[ebp]
  000c2	0f 84 2f 01 00
	00		 je	 $LN12@Sort_unche
  000c8	89 5d 08	 mov	 DWORD PTR tv255[ebp], ebx
  000cb	0f 1f 44 00 00	 npad	 5
$LL13@Sort_unche:

; 8215 :             _BidIt _Hole = _Mid;
; 8216 :             _Iter_value_t<_BidIt> _Val(_STD move(*_Mid));

  000d0	8b 46 08	 mov	 eax, DWORD PTR [esi+8]
  000d3	8b fe		 mov	 edi, esi
  000d5	f3 0f 7e 06	 movq	 xmm0, QWORD PTR [esi]
  000d9	89 45 f4	 mov	 DWORD PTR __Val$1[ebp+8], eax

; 8217 : 
; 8218 :             if (_DEBUG_LT_PRED(_Pred, _Val, *_First)) { // found new earliest element, move to front

  000dc	8d 45 ec	 lea	 eax, DWORD PTR __Val$1[ebp]
  000df	53		 push	 ebx
  000e0	50		 push	 eax
  000e1	66 0f d6 45 ec	 movq	 QWORD PTR __Val$1[ebp], xmm0
  000e6	ff 55 14	 call	 DWORD PTR __Pred$[ebp]
  000e9	83 c4 08	 add	 esp, 8
  000ec	84 c0		 test	 al, al
  000ee	8b 45 08	 mov	 eax, DWORD PTR tv255[ebp]
  000f1	0f 84 a2 00 00
	00		 je	 $LN18@Sort_unche
; File D:\Program Files\Microsoft Visual Studio\2022\Community\VC\Tools\MSVC\14.43.34808\include\xutility

; 5206 :             return _STD _Copy_backward_memmove(_First, _Last, _Dest);

  000f7	83 c0 18	 add	 eax, 24			; 00000018H
  000fa	50		 push	 eax
  000fb	56		 push	 esi
  000fc	53		 push	 ebx
  000fd	e8 00 00 00 00	 call	 ??$_Copy_backward_memmove@PAUSDumpData@@PAU1@@std@@YAPAUSDumpData@@PAU1@00@Z ; std::_Copy_backward_memmove<SDumpData *,SDumpData *>
; File D:\Program Files\Microsoft Visual Studio\2022\Community\VC\Tools\MSVC\14.43.34808\include\algorithm

; 8220 :                 *_First = _STD move(_Val);

  00102	f3 0f 7e 45 ec	 movq	 xmm0, QWORD PTR __Val$1[ebp]
; File D:\Program Files\Microsoft Visual Studio\2022\Community\VC\Tools\MSVC\14.43.34808\include\xutility

; 5206 :             return _STD _Copy_backward_memmove(_First, _Last, _Dest);

  00107	83 c4 0c	 add	 esp, 12			; 0000000cH
; File D:\Program Files\Microsoft Visual Studio\2022\Community\VC\Tools\MSVC\14.43.34808\include\algorithm

; 8220 :                 *_First = _STD move(_Val);

  0010a	8b 45 f4	 mov	 eax, DWORD PTR __Val$1[ebp+8]
  0010d	66 0f d6 03	 movq	 QWORD PTR [ebx], xmm0
  00111	89 43 08	 mov	 DWORD PTR [ebx+8], eax

; 8221 :             } else { // look for insertion point after first

  00114	e9 cb 00 00 00	 jmp	 $LN11@Sort_unche
$LN41@Sort_unche:

; 8348 :             _STD _Make_heap_unchecked(_First, _Last, _Pred);

  00119	e8 00 00 00 00	 call	 ??$_Make_heap_unchecked@PAUSDumpData@@P6A_NABU1@0@Z@std@@YAXPAUSDumpData@@0P6A_NABU1@1@Z@Z ; std::_Make_heap_unchecked<SDumpData *,bool (__cdecl*)(SDumpData const &,SDumpData const &)>

; 7118 :     for (; _Last - _First >= 2; --_Last) {

  0011e	8b ce		 mov	 ecx, esi

; 8348 :             _STD _Make_heap_unchecked(_First, _Last, _Pred);

  00120	83 c4 0c	 add	 esp, 12			; 0000000cH

; 7118 :     for (; _Last - _First >= 2; --_Last) {

  00123	2b cb		 sub	 ecx, ebx
  00125	83 f9 18	 cmp	 ecx, 24			; 00000018H
  00128	0f 8c c9 00 00
	00		 jl	 $LN12@Sort_unche

; 8348 :             _STD _Make_heap_unchecked(_First, _Last, _Pred);

  0012e	83 c6 f4	 add	 esi, -12		; fffffff4H
$LL28@Sort_unche:
; File D:\Program Files\Microsoft Visual Studio\2022\Community\VC\Tools\MSVC\14.43.34808\include\__msvc_heap_algorithms.hpp

; 100  :     if (2 <= _Last - _First) {

  00131	b8 ab aa aa aa	 mov	 eax, -1431655765	; aaaaaaabH
  00136	89 75 0c	 mov	 DWORD PTR tv262[ebp], esi
  00139	f7 e1		 mul	 ecx
  0013b	c1 ea 03	 shr	 edx, 3
  0013e	83 fa 02	 cmp	 edx, 2
  00141	7c 42		 jl	 SHORT $LN26@Sort_unche

; 101  :         --_Last;
; 102  :         _Iter_value_t<_RanIt> _Val(_STD move(*_Last));

  00143	f3 0f 7e 06	 movq	 xmm0, QWORD PTR [esi]

; 93   :     _STD _Pop_heap_hole_by_index(

  00147	8b ce		 mov	 ecx, esi

; 102  :         _Iter_value_t<_RanIt> _Val(_STD move(*_Last));

  00149	8b 46 08	 mov	 eax, DWORD PTR [esi+8]

; 93   :     _STD _Pop_heap_hole_by_index(

  0014c	2b cb		 sub	 ecx, ebx

; 102  :         _Iter_value_t<_RanIt> _Val(_STD move(*_Last));

  0014e	89 45 f4	 mov	 DWORD PTR __Val$2[ebp+8], eax
  00151	66 0f d6 45 ec	 movq	 QWORD PTR __Val$2[ebp], xmm0

; 91   :     *_Dest      = _STD move(*_First);

  00156	f3 0f 7e 03	 movq	 xmm0, QWORD PTR [ebx]
  0015a	66 0f d6 06	 movq	 QWORD PTR [esi], xmm0
  0015e	8b 43 08	 mov	 eax, DWORD PTR [ebx+8]
  00161	89 46 08	 mov	 DWORD PTR [esi+8], eax

; 92   :     using _Diff = _Iter_diff_t<_RanIt>;
; 93   :     _STD _Pop_heap_hole_by_index(

  00164	8d 45 ec	 lea	 eax, DWORD PTR __Val$2[ebp]
  00167	57		 push	 edi
  00168	50		 push	 eax
  00169	b8 ab aa aa 2a	 mov	 eax, 715827883		; 2aaaaaabH
  0016e	f7 e9		 imul	 ecx
  00170	d1 fa		 sar	 edx, 1
  00172	8b c2		 mov	 eax, edx
  00174	c1 e8 1f	 shr	 eax, 31			; 0000001fH
  00177	03 c2		 add	 eax, edx
  00179	50		 push	 eax
  0017a	6a 00		 push	 0
  0017c	53		 push	 ebx
  0017d	e8 00 00 00 00	 call	 ??$_Pop_heap_hole_by_index@PAUSDumpData@@U1@P6A_NABU1@0@Z@std@@YAXPAUSDumpData@@HH$$QAU1@P6A_NABU1@2@Z@Z ; std::_Pop_heap_hole_by_index<SDumpData *,SDumpData,bool (__cdecl*)(SDumpData const &,SDumpData const &)>
  00182	83 c4 14	 add	 esp, 20			; 00000014H
$LN26@Sort_unche:
; File D:\Program Files\Microsoft Visual Studio\2022\Community\VC\Tools\MSVC\14.43.34808\include\algorithm

; 7118 :     for (; _Last - _First >= 2; --_Last) {

  00185	8b 4d 0c	 mov	 ecx, DWORD PTR tv262[ebp]
  00188	83 ee 0c	 sub	 esi, 12			; 0000000cH
  0018b	2b cb		 sub	 ecx, ebx
  0018d	83 f9 18	 cmp	 ecx, 24			; 00000018H
  00190	7d 9f		 jge	 SHORT $LL28@Sort_unche

; 8364 :         }
; 8365 :     }
; 8366 : }

  00192	5f		 pop	 edi
  00193	5e		 pop	 esi
  00194	5b		 pop	 ebx
  00195	8b e5		 mov	 esp, ebp
  00197	5d		 pop	 ebp
  00198	c3		 ret	 0
$LN18@Sort_unche:

; 8222 :                 for (_BidIt _Prev = _Hole; _DEBUG_LT_PRED(_Pred, _Val, *--_Prev); _Hole = _Prev) {

  00199	50		 push	 eax
  0019a	8b f0		 mov	 esi, eax
  0019c	8d 45 ec	 lea	 eax, DWORD PTR __Val$1[ebp]
  0019f	50		 push	 eax
  001a0	ff 55 14	 call	 DWORD PTR __Pred$[ebp]
  001a3	83 c4 08	 add	 esp, 8
  001a6	84 c0		 test	 al, al
  001a8	74 28		 je	 SHORT $LN15@Sort_unche
  001aa	66 0f 1f 44 00
	00		 npad	 6
$LL16@Sort_unche:

; 8223 :                     *_Hole = _STD move(*_Prev); // move hole down

  001b0	f3 0f 7e 06	 movq	 xmm0, QWORD PTR [esi]
  001b4	66 0f d6 07	 movq	 QWORD PTR [edi], xmm0
  001b8	8b 46 08	 mov	 eax, DWORD PTR [esi+8]
  001bb	89 47 08	 mov	 DWORD PTR [edi+8], eax
  001be	8b fe		 mov	 edi, esi
  001c0	83 ee 0c	 sub	 esi, 12			; 0000000cH
  001c3	8d 45 ec	 lea	 eax, DWORD PTR __Val$1[ebp]
  001c6	56		 push	 esi
  001c7	50		 push	 eax
  001c8	ff 55 14	 call	 DWORD PTR __Pred$[ebp]
  001cb	83 c4 08	 add	 esp, 8
  001ce	84 c0		 test	 al, al
  001d0	75 de		 jne	 SHORT $LL16@Sort_unche
$LN15@Sort_unche:

; 8224 :                 }
; 8225 : 
; 8226 :                 *_Hole = _STD move(_Val); // insert element in hole

  001d2	f3 0f 7e 45 ec	 movq	 xmm0, QWORD PTR __Val$1[ebp]
  001d7	8b 45 f4	 mov	 eax, DWORD PTR __Val$1[ebp+8]
  001da	8b 75 fc	 mov	 esi, DWORD PTR __Mid$1$[ebp]
  001dd	66 0f d6 07	 movq	 QWORD PTR [edi], xmm0
  001e1	89 47 08	 mov	 DWORD PTR [edi+8], eax
$LN11@Sort_unche:

; 8214 :         for (_BidIt _Mid = _First; ++_Mid != _Last;) { // order next element

  001e4	83 45 08 0c	 add	 DWORD PTR tv255[ebp], 12 ; 0000000cH
  001e8	83 c6 0c	 add	 esi, 12			; 0000000cH
  001eb	89 75 fc	 mov	 DWORD PTR __Mid$1$[ebp], esi
  001ee	3b 75 0c	 cmp	 esi, DWORD PTR __Last$[ebp]
  001f1	0f 85 d9 fe ff
	ff		 jne	 $LL13@Sort_unche
$LN12@Sort_unche:
  001f7	5f		 pop	 edi

; 8364 :         }
; 8365 :     }
; 8366 : }

  001f8	5e		 pop	 esi
  001f9	5b		 pop	 ebx
  001fa	8b e5		 mov	 esp, ebp
  001fc	5d		 pop	 ebp
  001fd	c3		 ret	 0
??$_Sort_unchecked@PAUSDumpData@@P6A_NABU1@0@Z@std@@YAXPAUSDumpData@@0HP6A_NABU1@1@Z@Z ENDP ; std::_Sort_unchecked<SDumpData *,bool (__cdecl*)(SDumpData const &,SDumpData const &)>
_TEXT	ENDS
; Function compile flags: /Ogtp
; File D:\Program Files\Microsoft Visual Studio\2022\Community\VC\Tools\MSVC\14.43.34808\include\xtree
; File D:\Program Files\Microsoft Visual Studio\2022\Community\VC\Tools\MSVC\14.43.34808\include\xstring
; File D:\Program Files\Microsoft Visual Studio\2022\Community\VC\Tools\MSVC\14.43.34808\include\xmemory
; File D:\Program Files\Microsoft Visual Studio\2022\Community\VC\Tools\MSVC\14.43.34808\include\xstring
; File D:\Program Files\Microsoft Visual Studio\2022\Community\VC\Tools\MSVC\14.43.34808\include\xmemory
; File D:\Program Files\Microsoft Visual Studio\2022\Community\VC\Tools\MSVC\14.43.34808\include\xstring
; File D:\Program Files\Microsoft Visual Studio\2022\Community\VC\Tools\MSVC\14.43.34808\include\xmemory
; File D:\Program Files\Microsoft Visual Studio\2022\Community\VC\Tools\MSVC\14.43.34808\include\xtree
; File D:\Program Files\Microsoft Visual Studio\2022\Community\VC\Tools\MSVC\14.43.34808\include\xmemory
; File D:\Program Files\Microsoft Visual Studio\2022\Community\VC\Tools\MSVC\14.43.34808\include\xtree
;	COMDAT ??$_Freenode@V?$allocator@U?$_Tree_node@U?$pair@$$CBKV?$basic_string@DU?$char_traits@D@std@@V?$allocator@D@2@@std@@@std@@PAX@std@@@std@@@?$_Tree_node@U?$pair@$$CBKV?$basic_string@DU?$char_traits@D@std@@V?$allocator@D@2@@std@@@std@@PAX@std@@SAXAAV?$allocator@U?$_Tree_node@U?$pair@$$CBKV?$basic_string@DU?$char_traits@D@std@@V?$allocator@D@2@@std@@@std@@PAX@std@@@1@PAU01@@Z
_TEXT	SEGMENT
__Al$ = 8						; size = 4
__Ptr$ = 12						; size = 4
??$_Freenode@V?$allocator@U?$_Tree_node@U?$pair@$$CBKV?$basic_string@DU?$char_traits@D@std@@V?$allocator@D@2@@std@@@std@@PAX@std@@@std@@@?$_Tree_node@U?$pair@$$CBKV?$basic_string@DU?$char_traits@D@std@@V?$allocator@D@2@@std@@@std@@PAX@std@@SAXAAV?$allocator@U?$_Tree_node@U?$pair@$$CBKV?$basic_string@DU?$char_traits@D@std@@V?$allocator@D@2@@std@@@std@@PAX@std@@@1@PAU01@@Z PROC ; std::_Tree_node<std::pair<unsigned long const ,std::basic_string<char,std::char_traits<char>,std::allocator<char> > >,void *>::_Freenode<std::allocator<std::_Tree_node<std::pair<unsigned long const ,std::basic_string<char,std::char_traits<char>,std::allocator<char> > >,void *> > >, COMDAT

; 379  :     static void _Freenode(_Alloc& _Al, _Nodeptr _Ptr) noexcept {

  00000	55		 push	 ebp
  00001	8b ec		 mov	 ebp, esp
  00003	56		 push	 esi

; 380  :         static_assert(is_same_v<typename _Alloc::value_type, _Tree_node>, "Bad _Freenode call");
; 381  :         allocator_traits<_Alloc>::destroy(_Al, _STD addressof(_Ptr->_Myval));

  00004	8b 75 0c	 mov	 esi, DWORD PTR __Ptr$[ebp]
; File D:\Program Files\Microsoft Visual Studio\2022\Community\VC\Tools\MSVC\14.43.34808\include\xstring

; 434  :         return _Myres > _Small_string_capacity;

  00007	8b 4e 28	 mov	 ecx, DWORD PTR [esi+40]
  0000a	83 f9 0f	 cmp	 ecx, 15			; 0000000fH

; 3047 :         if (_My_data._Large_mode_engaged()) {

  0000d	76 28		 jbe	 SHORT $LN35@Freenode
; File D:\Program Files\Microsoft Visual Studio\2022\Community\VC\Tools\MSVC\14.43.34808\include\xmemory

; 981  :         _STD _Deallocate<_New_alignof<_Ty>>(_Ptr, sizeof(_Ty) * _Count);

  0000f	8b 46 14	 mov	 eax, DWORD PTR [esi+20]
; File D:\Program Files\Microsoft Visual Studio\2022\Community\VC\Tools\MSVC\14.43.34808\include\xstring

; 828  :         _Al.deallocate(_Old_ptr, _Capacity + 1); // +1 for null terminator

  00012	41		 inc	 ecx
; File D:\Program Files\Microsoft Visual Studio\2022\Community\VC\Tools\MSVC\14.43.34808\include\xmemory

; 284  :         if (_Bytes >= _Big_allocation_threshold) {

  00013	81 f9 00 10 00
	00		 cmp	 ecx, 4096		; 00001000H
  00019	72 12		 jb	 SHORT $LN46@Freenode

; 205  :     const uintptr_t _Ptr_container   = _Ptr_user[-1];

  0001b	8b 50 fc	 mov	 edx, DWORD PTR [eax-4]
  0001e	83 c1 23	 add	 ecx, 35			; 00000023H

; 206  : 
; 207  :     // If the following asserts, it likely means that we are performing
; 208  :     // an aligned delete on memory coming from an unaligned allocation.
; 209  :     _STL_ASSERT(_Ptr_user[-2] == _Big_allocation_sentinel, "invalid argument");
; 210  : 
; 211  :     // Extra paranoia on aligned allocation/deallocation; ensure _Ptr_container is
; 212  :     // in range [_Min_back_shift, _Non_user_size]
; 213  : #ifdef _DEBUG
; 214  :     constexpr uintptr_t _Min_back_shift = 2 * sizeof(void*);
; 215  : #else // ^^^ defined(_DEBUG) / !defined(_DEBUG) vvv
; 216  :     constexpr uintptr_t _Min_back_shift = sizeof(void*);
; 217  : #endif // ^^^ !defined(_DEBUG) ^^^
; 218  :     const uintptr_t _Back_shift = reinterpret_cast<uintptr_t>(_Ptr) - _Ptr_container;

  00021	2b c2		 sub	 eax, edx

; 219  :     _STL_VERIFY(_Back_shift >= _Min_back_shift && _Back_shift <= _Non_user_size, "invalid argument");

  00023	83 c0 fc	 add	 eax, -4			; fffffffcH
  00026	83 f8 1f	 cmp	 eax, 31			; 0000001fH
  00029	77 2c		 ja	 SHORT $LN43@Freenode

; 220  :     _Ptr = reinterpret_cast<void*>(_Ptr_container);

  0002b	8b c2		 mov	 eax, edx
$LN46@Freenode:

; 289  :         ::operator delete(_Ptr, _Bytes);

  0002d	51		 push	 ecx
  0002e	50		 push	 eax
  0002f	e8 00 00 00 00	 call	 ??3@YAXPAXI@Z		; operator delete
  00034	83 c4 08	 add	 esp, 8
$LN35@Freenode:
  00037	6a 2c		 push	 44			; 0000002cH
  00039	56		 push	 esi
; File D:\Program Files\Microsoft Visual Studio\2022\Community\VC\Tools\MSVC\14.43.34808\include\xstring

; 3054 :         _My_data._Mysize = 0;

  0003a	c7 46 24 00 00
	00 00		 mov	 DWORD PTR [esi+36], 0

; 3055 :         _My_data._Myres  = _Small_string_capacity;

  00041	c7 46 28 0f 00
	00 00		 mov	 DWORD PTR [esi+40], 15	; 0000000fH

; 3056 :         // the _Traits::assign is last so the codegen doesn't think the char write can alias this
; 3057 :         _Traits::assign(_My_data._Bx._Buf[0], _Elem());

  00048	c6 46 14 00	 mov	 BYTE PTR [esi+20], 0
; File D:\Program Files\Microsoft Visual Studio\2022\Community\VC\Tools\MSVC\14.43.34808\include\xmemory

; 289  :         ::operator delete(_Ptr, _Bytes);

  0004c	e8 00 00 00 00	 call	 ??3@YAXPAXI@Z		; operator delete
  00051	83 c4 08	 add	 esp, 8
  00054	5e		 pop	 esi
; File D:\Program Files\Microsoft Visual Studio\2022\Community\VC\Tools\MSVC\14.43.34808\include\xtree

; 383  :     }

  00055	5d		 pop	 ebp
  00056	c3		 ret	 0
$LN43@Freenode:
; File D:\Program Files\Microsoft Visual Studio\2022\Community\VC\Tools\MSVC\14.43.34808\include\xmemory

; 219  :     _STL_VERIFY(_Back_shift >= _Min_back_shift && _Back_shift <= _Non_user_size, "invalid argument");

  00057	e8 00 00 00 00	 call	 __invalid_parameter_noinfo_noreturn
$LN82@Freenode:
  0005c	cc		 int	 3
??$_Freenode@V?$allocator@U?$_Tree_node@U?$pair@$$CBKV?$basic_string@DU?$char_traits@D@std@@V?$allocator@D@2@@std@@@std@@PAX@std@@@std@@@?$_Tree_node@U?$pair@$$CBKV?$basic_string@DU?$char_traits@D@std@@V?$allocator@D@2@@std@@@std@@PAX@std@@SAXAAV?$allocator@U?$_Tree_node@U?$pair@$$CBKV?$basic_string@DU?$char_traits@D@std@@V?$allocator@D@2@@std@@@std@@PAX@std@@@1@PAU01@@Z ENDP ; std::_Tree_node<std::pair<unsigned long const ,std::basic_string<char,std::char_traits<char>,std::allocator<char> > >,void *>::_Freenode<std::allocator<std::_Tree_node<std::pair<unsigned long const ,std::basic_string<char,std::char_traits<char>,std::allocator<char> > >,void *> > >
_TEXT	ENDS
; Function compile flags: /Ogtp
; File D:\Program Files\Microsoft Visual Studio\2022\Community\VC\Tools\MSVC\14.43.34808\include\xtree
; File D:\Program Files\Microsoft Visual Studio\2022\Community\VC\Tools\MSVC\14.43.34808\include\utility
; File D:\Program Files\Microsoft Visual Studio\2022\Community\VC\Tools\MSVC\14.43.34808\include\xstring
; File D:\Program Files\Microsoft Visual Studio\2022\Community\VC\Tools\MSVC\14.43.34808\include\xmemory
; File D:\Program Files\Microsoft Visual Studio\2022\Community\VC\Tools\MSVC\14.43.34808\include\xstring
; File D:\Program Files\Microsoft Visual Studio\2022\Community\VC\Tools\MSVC\14.43.34808\include\xmemory
; File D:\Program Files\Microsoft Visual Studio\2022\Community\VC\Tools\MSVC\14.43.34808\include\xstring
; File D:\Program Files\Microsoft Visual Studio\2022\Community\VC\Tools\MSVC\14.43.34808\include\xmemory
; File D:\Program Files\Microsoft Visual Studio\2022\Community\VC\Tools\MSVC\14.43.34808\include\xtree
; File D:\Program Files\Microsoft Visual Studio\2022\Community\VC\Tools\MSVC\14.43.34808\include\xmemory
; File D:\Program Files\Microsoft Visual Studio\2022\Community\VC\Tools\MSVC\14.43.34808\include\xtree
;	COMDAT ??$_Erase_tree@V?$allocator@U?$_Tree_node@U?$pair@$$CBKV?$basic_string@DU?$char_traits@D@std@@V?$allocator@D@2@@std@@@std@@PAX@std@@@std@@@?$_Tree_val@U?$_Tree_simple_types@U?$pair@$$CBKV?$basic_string@DU?$char_traits@D@std@@V?$allocator@D@2@@std@@@std@@@std@@@std@@QAEXAAV?$allocator@U?$_Tree_node@U?$pair@$$CBKV?$basic_string@DU?$char_traits@D@std@@V?$allocator@D@2@@std@@@std@@PAX@std@@@1@PAU?$_Tree_node@U?$pair@$$CBKV?$basic_string@DU?$char_traits@D@std@@V?$allocator@D@2@@std@@@std@@PAX@1@@Z
_TEXT	SEGMENT
_this$1$ = -4						; size = 4
__Al$ = 8						; size = 4
__Rootnode$ = 12					; size = 4
??$_Erase_tree@V?$allocator@U?$_Tree_node@U?$pair@$$CBKV?$basic_string@DU?$char_traits@D@std@@V?$allocator@D@2@@std@@@std@@PAX@std@@@std@@@?$_Tree_val@U?$_Tree_simple_types@U?$pair@$$CBKV?$basic_string@DU?$char_traits@D@std@@V?$allocator@D@2@@std@@@std@@@std@@@std@@QAEXAAV?$allocator@U?$_Tree_node@U?$pair@$$CBKV?$basic_string@DU?$char_traits@D@std@@V?$allocator@D@2@@std@@@std@@PAX@std@@@1@PAU?$_Tree_node@U?$pair@$$CBKV?$basic_string@DU?$char_traits@D@std@@V?$allocator@D@2@@std@@@std@@PAX@1@@Z PROC ; std::_Tree_val<std::_Tree_simple_types<std::pair<unsigned long const ,std::basic_string<char,std::char_traits<char>,std::allocator<char> > > > >::_Erase_tree<std::allocator<std::_Tree_node<std::pair<unsigned long const ,std::basic_string<char,std::char_traits<char>,std::allocator<char> > >,void *> > >, COMDAT
; _this$ = ecx

; 757  :     void _Erase_tree(_Alnode& _Al, _Nodeptr _Rootnode) noexcept {

  00000	55		 push	 ebp
  00001	8b ec		 mov	 ebp, esp
  00003	51		 push	 ecx
  00004	57		 push	 edi

; 758  :         while (!_Rootnode->_Isnil) { // free subtrees, then node

  00005	8b 7d 0c	 mov	 edi, DWORD PTR __Rootnode$[ebp]
  00008	8b c1		 mov	 eax, ecx
  0000a	89 45 fc	 mov	 DWORD PTR _this$1$[ebp], eax
  0000d	80 7f 0d 00	 cmp	 BYTE PTR [edi+13], 0
  00011	75 6e		 jne	 SHORT $LN90@Erase_tree
  00013	53		 push	 ebx
  00014	8b 5d 08	 mov	 ebx, DWORD PTR __Al$[ebp]
  00017	56		 push	 esi
$LL2@Erase_tree:

; 759  :             _Erase_tree(_Al, _Rootnode->_Right);

  00018	ff 77 08	 push	 DWORD PTR [edi+8]
  0001b	8b c8		 mov	 ecx, eax
  0001d	53		 push	 ebx
  0001e	e8 00 00 00 00	 call	 ??$_Erase_tree@V?$allocator@U?$_Tree_node@U?$pair@$$CBKV?$basic_string@DU?$char_traits@D@std@@V?$allocator@D@2@@std@@@std@@PAX@std@@@std@@@?$_Tree_val@U?$_Tree_simple_types@U?$pair@$$CBKV?$basic_string@DU?$char_traits@D@std@@V?$allocator@D@2@@std@@@std@@@std@@@std@@QAEXAAV?$allocator@U?$_Tree_node@U?$pair@$$CBKV?$basic_string@DU?$char_traits@D@std@@V?$allocator@D@2@@std@@@std@@PAX@std@@@1@PAU?$_Tree_node@U?$pair@$$CBKV?$basic_string@DU?$char_traits@D@std@@V?$allocator@D@2@@std@@@std@@PAX@1@@Z ; std::_Tree_val<std::_Tree_simple_types<std::pair<unsigned long const ,std::basic_string<char,std::char_traits<char>,std::allocator<char> > > > >::_Erase_tree<std::allocator<std::_Tree_node<std::pair<unsigned long const ,std::basic_string<char,std::char_traits<char>,std::allocator<char> > >,void *> > >
; File D:\Program Files\Microsoft Visual Studio\2022\Community\VC\Tools\MSVC\14.43.34808\include\utility

; 773  :     _Ty _Old_val = static_cast<_Ty&&>(_Val);

  00023	8b f7		 mov	 esi, edi

; 774  :     _Val         = static_cast<_Other&&>(_New_val);

  00025	8b 3f		 mov	 edi, DWORD PTR [edi]
; File D:\Program Files\Microsoft Visual Studio\2022\Community\VC\Tools\MSVC\14.43.34808\include\xstring

; 434  :         return _Myres > _Small_string_capacity;

  00027	8b 4e 28	 mov	 ecx, DWORD PTR [esi+40]
  0002a	83 f9 0f	 cmp	 ecx, 15			; 0000000fH

; 3047 :         if (_My_data._Large_mode_engaged()) {

  0002d	76 28		 jbe	 SHORT $LN43@Erase_tree
; File D:\Program Files\Microsoft Visual Studio\2022\Community\VC\Tools\MSVC\14.43.34808\include\xmemory

; 981  :         _STD _Deallocate<_New_alignof<_Ty>>(_Ptr, sizeof(_Ty) * _Count);

  0002f	8b 46 14	 mov	 eax, DWORD PTR [esi+20]
; File D:\Program Files\Microsoft Visual Studio\2022\Community\VC\Tools\MSVC\14.43.34808\include\xstring

; 828  :         _Al.deallocate(_Old_ptr, _Capacity + 1); // +1 for null terminator

  00032	41		 inc	 ecx
; File D:\Program Files\Microsoft Visual Studio\2022\Community\VC\Tools\MSVC\14.43.34808\include\xmemory

; 284  :         if (_Bytes >= _Big_allocation_threshold) {

  00033	81 f9 00 10 00
	00		 cmp	 ecx, 4096		; 00001000H
  00039	72 12		 jb	 SHORT $LN54@Erase_tree

; 205  :     const uintptr_t _Ptr_container   = _Ptr_user[-1];

  0003b	8b 50 fc	 mov	 edx, DWORD PTR [eax-4]
  0003e	83 c1 23	 add	 ecx, 35			; 00000023H

; 206  : 
; 207  :     // If the following asserts, it likely means that we are performing
; 208  :     // an aligned delete on memory coming from an unaligned allocation.
; 209  :     _STL_ASSERT(_Ptr_user[-2] == _Big_allocation_sentinel, "invalid argument");
; 210  : 
; 211  :     // Extra paranoia on aligned allocation/deallocation; ensure _Ptr_container is
