; Listing generated by Microsoft (R) Optimizing Compiler Version 19.43.34808.0 

	TITLE	C:\Marty 5.5\Src-Client\Client\EterLib\Distribute\Util.obj
	.686P
	.XMM
	include listing.inc
	.model	flat

INCLUDELIB LIBCMT
INCLUDELIB OLDNAMES

PUBLIC	??_C@_00CNPNBAHC@@				; `string'
;	COMDAT ??_C@_00CNPNBAHC@@
CONST	SEGMENT
??_C@_00CNPNBAHC@@ DB 00H				; `string'
CONST	ENDS
PUBLIC	___local_stdio_printf_options
PUBLIC	_fprintf
PUBLIC	??0exception@std@@QAE@ABV01@@Z			; std::exception::exception
PUBLIC	??1exception@std@@UAE@XZ			; std::exception::~exception
PUBLIC	?what@exception@std@@UBEPBDXZ			; std::exception::what
PUBLIC	??_Gexception@std@@UAEPAXI@Z			; std::exception::`scalar deleting destructor'
PUBLIC	??0bad_alloc@std@@QAE@ABV01@@Z			; std::bad_alloc::bad_alloc
PUBLIC	??_Gbad_alloc@std@@UAEPAXI@Z			; std::bad_alloc::`scalar deleting destructor'
PUBLIC	??0bad_array_new_length@std@@QAE@XZ		; std::bad_array_new_length::bad_array_new_length
PUBLIC	??1bad_array_new_length@std@@UAE@XZ		; std::bad_array_new_length::~bad_array_new_length
PUBLIC	??0bad_array_new_length@std@@QAE@ABV01@@Z	; std::bad_array_new_length::bad_array_new_length
PUBLIC	??_Gbad_array_new_length@std@@UAEPAXI@Z		; std::bad_array_new_length::`scalar deleting destructor'
PUBLIC	?_Throw_bad_array_new_length@std@@YAXXZ		; std::_Throw_bad_array_new_length
PUBLIC	?_Xlen_string@std@@YAXXZ			; std::_Xlen_string
PUBLIC	??0?$basic_string@DU?$char_traits@D@std@@V?$allocator@D@2@@std@@QAE@ABV01@@Z ; std::basic_string<char,std::char_traits<char>,std::allocator<char> >::basic_string<char,std::char_traits<char>,std::allocator<char> >
PUBLIC	??1?$basic_string@DU?$char_traits@D@std@@V?$allocator@D@2@@std@@QAE@XZ ; std::basic_string<char,std::char_traits<char>,std::allocator<char> >::~basic_string<char,std::char_traits<char>,std::allocator<char> >
PUBLIC	?assign@?$basic_string@DU?$char_traits@D@std@@V?$allocator@D@2@@std@@QAEAAV12@QBDI@Z ; std::basic_string<char,std::char_traits<char>,std::allocator<char> >::assign
PUBLIC	?_Tidy_deallocate@?$basic_string@DU?$char_traits@D@std@@V?$allocator@D@2@@std@@AAEXXZ ; std::basic_string<char,std::char_traits<char>,std::allocator<char> >::_Tidy_deallocate
PUBLIC	?_Throw_tree_length_error@std@@YAXXZ		; std::_Throw_tree_length_error
PUBLIC	??$_Traits_compare@U?$char_traits@D@std@@@std@@YAHQBDI0I@Z ; std::_Traits_compare<std::char_traits<char> >
PUBLIC	??$_Construct@$00PBD@?$basic_string@DU?$char_traits@D@std@@V?$allocator@D@2@@std@@AAEXQBDI@Z ; std::basic_string<char,std::char_traits<char>,std::allocator<char> >::_Construct<1,char const *>
PUBLIC	??$_Allocate_manually_vector_aligned@U_Default_allocate_traits@std@@@std@@YAPAXI@Z ; std::_Allocate_manually_vector_aligned<std::_Default_allocate_traits>
PUBLIC	??1?$vector@V?$basic_string@DU?$char_traits@D@std@@V?$allocator@D@2@@std@@V?$allocator@V?$basic_string@DU?$char_traits@D@std@@V?$allocator@D@2@@std@@@2@@std@@QAE@XZ ; std::vector<std::basic_string<char,std::char_traits<char>,std::allocator<char> >,std::allocator<std::basic_string<char,std::char_traits<char>,std::allocator<char> > > >::~vector<std::basic_string<char,std::char_traits<char>,std::allocator<char> >,std::allocator<std::basic_string<char,std::char_traits<char>,std::allocator<char> > > >
PUBLIC	?_Tidy@?$vector@V?$basic_string@DU?$char_traits@D@std@@V?$allocator@D@2@@std@@V?$allocator@V?$basic_string@DU?$char_traits@D@std@@V?$allocator@D@2@@std@@@2@@std@@AAEXXZ ; std::vector<std::basic_string<char,std::char_traits<char>,std::allocator<char> >,std::allocator<std::basic_string<char,std::char_traits<char>,std::allocator<char> > > >::_Tidy
PUBLIC	?_Xlength@?$vector@V?$basic_string@DU?$char_traits@D@std@@V?$allocator@D@2@@std@@V?$allocator@V?$basic_string@DU?$char_traits@D@std@@V?$allocator@D@2@@std@@@2@@std@@CAXXZ ; std::vector<std::basic_string<char,std::char_traits<char>,std::allocator<char> >,std::allocator<std::basic_string<char,std::char_traits<char>,std::allocator<char> > > >::_Xlength
PUBLIC	?PrintfTabs@@YAXPAU_iobuf@@HPBDZZ		; PrintfTabs
PUBLIC	?LoadTextData@@YA_NPBDAAV?$map@V?$basic_string@DU?$char_traits@D@std@@V?$allocator@D@2@@std@@V12@U?$less@V?$basic_string@DU?$char_traits@D@std@@V?$allocator@D@2@@std@@@2@V?$allocator@U?$pair@$$CBV?$basic_string@DU?$char_traits@D@std@@V?$allocator@D@2@@std@@V12@@std@@@2@@std@@@Z ; LoadTextData
PUBLIC	?LoadMultipleTextData@@YA_NPBDAAV?$map@V?$basic_string@DU?$char_traits@D@std@@V?$allocator@D@2@@std@@V?$vector@V?$basic_string@DU?$char_traits@D@std@@V?$allocator@D@2@@std@@V?$allocator@V?$basic_string@DU?$char_traits@D@std@@V?$allocator@D@2@@std@@@2@@2@U?$less@V?$basic_string@DU?$char_traits@D@std@@V?$allocator@D@2@@std@@@2@V?$allocator@U?$pair@$$CBV?$basic_string@DU?$char_traits@D@std@@V?$allocator@D@2@@std@@V?$vector@V?$basic_string@DU?$char_traits@D@std@@V?$allocator@D@2@@std@@V?$allocator@V?$basic_string@DU?$char_traits@D@std@@V?$allocator@D@2@@std@@@2@@2@@std@@@2@@std@@@Z ; LoadMultipleTextData
PUBLIC	?TokenToVector@@YA?AUD3DXVECTOR3@@AAV?$vector@V?$basic_string@DU?$char_traits@D@std@@V?$allocator@D@2@@std@@V?$allocator@V?$basic_string@DU?$char_traits@D@std@@V?$allocator@D@2@@std@@@2@@std@@@Z ; TokenToVector
PUBLIC	?TokenToColor@@YA?AUD3DXCOLOR@@AAV?$vector@V?$basic_string@DU?$char_traits@D@std@@V?$allocator@D@2@@std@@V?$allocator@V?$basic_string@DU?$char_traits@D@std@@V?$allocator@D@2@@std@@@2@@std@@@Z ; TokenToColor
PUBLIC	?EnumFontFamExProc@@YGHPBUtagLOGFONTA@@PBUtagTEXTMETRICA@@KJ@Z ; EnumFontFamExProc
PUBLIC	?GetCharsetFromCodePage@@YAHG@Z			; GetCharsetFromCodePage
PUBLIC	?GetFontFaceFromCodePageNT@@YAPBDG@Z		; GetFontFaceFromCodePageNT
PUBLIC	?GetFontFaceFromCodePage9x@@YAPBDG@Z		; GetFontFaceFromCodePage9x
PUBLIC	?GetDefaultCodePage@@YAKXZ			; GetDefaultCodePage
PUBLIC	?GetDefaultFontFace@@YAPBDXZ			; GetDefaultFontFace
PUBLIC	?GetFontFaceFromCodePage@@YAPBDG@Z		; GetFontFaceFromCodePage
PUBLIC	?SetDefaultFontFace@@YAXPBD@Z			; SetDefaultFontFace
PUBLIC	?SetDefaultCodePage@@YA_NK@Z			; SetDefaultCodePage
PUBLIC	?base64_decode@@YAXPBDPAD@Z			; base64_decode
PUBLIC	?_Insert_node@?$_Tree_val@U?$_Tree_simple_types@U?$pair@$$CBV?$basic_string@DU?$char_traits@D@std@@V?$allocator@D@2@@std@@V12@@std@@@std@@@std@@QAEPAU?$_Tree_node@U?$pair@$$CBV?$basic_string@DU?$char_traits@D@std@@V?$allocator@D@2@@std@@V12@@std@@PAX@2@U?$_Tree_id@PAU?$_Tree_node@U?$pair@$$CBV?$basic_string@DU?$char_traits@D@std@@V?$allocator@D@2@@std@@V12@@std@@PAX@std@@@2@QAU32@@Z ; std::_Tree_val<std::_Tree_simple_types<std::pair<std::basic_string<char,std::char_traits<char>,std::allocator<char> > const ,std::basic_string<char,std::char_traits<char>,std::allocator<char> > > > >::_Insert_node
PUBLIC	?_Insert_node@?$_Tree_val@U?$_Tree_simple_types@U?$pair@$$CBV?$basic_string@DU?$char_traits@D@std@@V?$allocator@D@2@@std@@V?$vector@V?$basic_string@DU?$char_traits@D@std@@V?$allocator@D@2@@std@@V?$allocator@V?$basic_string@DU?$char_traits@D@std@@V?$allocator@D@2@@std@@@2@@2@@std@@@std@@@std@@QAEPAU?$_Tree_node@U?$pair@$$CBV?$basic_string@DU?$char_traits@D@std@@V?$allocator@D@2@@std@@V?$vector@V?$basic_string@DU?$char_traits@D@std@@V?$allocator@D@2@@std@@V?$allocator@V?$basic_string@DU?$char_traits@D@std@@V?$allocator@D@2@@std@@@2@@2@@std@@PAX@2@U?$_Tree_id@PAU?$_Tree_node@U?$pair@$$CBV?$basic_string@DU?$char_traits@D@std@@V?$allocator@D@2@@std@@V?$vector@V?$basic_string@DU?$char_traits@D@std@@V?$allocator@D@2@@std@@V?$allocator@V?$basic_string@DU?$char_traits@D@std@@V?$allocator@D@2@@std@@@2@@2@@std@@PAX@std@@@2@QAU32@@Z ; std::_Tree_val<std::_Tree_simple_types<std::pair<std::basic_string<char,std::char_traits<char>,std::allocator<char> > const ,std::vector<std::basic_string<char,std::char_traits<char>,std::allocator<char> >,std::allocator<std::basic_string<char,std::char_traits<char>,std::allocator<char> > > > > > >::_Insert_node
PUBLIC	??1?$pair@$$CBV?$basic_string@DU?$char_traits@D@std@@V?$allocator@D@2@@std@@V?$vector@V?$basic_string@DU?$char_traits@D@std@@V?$allocator@D@2@@std@@V?$allocator@V?$basic_string@DU?$char_traits@D@std@@V?$allocator@D@2@@std@@@2@@2@@std@@QAE@XZ ; std::pair<std::basic_string<char,std::char_traits<char>,std::allocator<char> > const ,std::vector<std::basic_string<char,std::char_traits<char>,std::allocator<char> >,std::allocator<std::basic_string<char,std::char_traits<char>,std::allocator<char> > > > >::~pair<std::basic_string<char,std::char_traits<char>,std::allocator<char> > const ,std::vector<std::basic_string<char,std::char_traits<char>,std::allocator<char> >,std::allocator<std::basic_string<char,std::char_traits<char>,std::allocator<char> > > > >
PUBLIC	??$?0AAV?$basic_string@DU?$char_traits@D@std@@V?$allocator@D@2@@std@@AAV?$vector@V?$basic_string@DU?$char_traits@D@std@@V?$allocator@D@2@@std@@V?$allocator@V?$basic_string@DU?$char_traits@D@std@@V?$allocator@D@2@@std@@@2@@1@$0A@@?$pair@$$CBV?$basic_string@DU?$char_traits@D@std@@V?$allocator@D@2@@std@@V?$vector@V?$basic_string@DU?$char_traits@D@std@@V?$allocator@D@2@@std@@V?$allocator@V?$basic_string@DU?$char_traits@D@std@@V?$allocator@D@2@@std@@@2@@2@@std@@QAE@AAV?$basic_string@DU?$char_traits@D@std@@V?$allocator@D@2@@1@AAV?$vector@V?$basic_string@DU?$char_traits@D@std@@V?$allocator@D@2@@std@@V?$allocator@V?$basic_string@DU?$char_traits@D@std@@V?$allocator@D@2@@std@@@2@@1@@Z ; std::pair<std::basic_string<char,std::char_traits<char>,std::allocator<char> > const ,std::vector<std::basic_string<char,std::char_traits<char>,std::allocator<char> >,std::allocator<std::basic_string<char,std::char_traits<char>,std::allocator<char> > > > >::pair<std::basic_string<char,std::char_traits<char>,std::allocator<char> > const ,std::vector<std::basic_string<char,std::char_traits<char>,std::allocator<char> >,std::allocator<std::basic_string<char,std::char_traits<char>,std::allocator<char> > > > ><std::basic_string<char,std::char_traits<char>,std::allocator<char> > &,std::vector<std::basic_string<char,std::char_traits<char>,std::allocator<char> >,std::allocator<std::basic_string<char,std::char_traits<char>,std::allocator<char> > > > &,0>
PUBLIC	??$insert@$0A@$0A@@?$_Tree@V?$_Tmap_traits@V?$basic_string@DU?$char_traits@D@std@@V?$allocator@D@2@@std@@V?$vector@V?$basic_string@DU?$char_traits@D@std@@V?$allocator@D@2@@std@@V?$allocator@V?$basic_string@DU?$char_traits@D@std@@V?$allocator@D@2@@std@@@2@@2@U?$less@V?$basic_string@DU?$char_traits@D@std@@V?$allocator@D@2@@std@@@2@V?$allocator@U?$pair@$$CBV?$basic_string@DU?$char_traits@D@std@@V?$allocator@D@2@@std@@V?$vector@V?$basic_string@DU?$char_traits@D@std@@V?$allocator@D@2@@std@@V?$allocator@V?$basic_string@DU?$char_traits@D@std@@V?$allocator@D@2@@std@@@2@@2@@std@@@2@$0A@@std@@@std@@QAE?AU?$pair@V?$_Tree_iterator@V?$_Tree_val@U?$_Tree_simple_types@U?$pair@$$CBV?$basic_string@DU?$char_traits@D@std@@V?$allocator@D@2@@std@@V?$vector@V?$basic_string@DU?$char_traits@D@std@@V?$allocator@D@2@@std@@V?$allocator@V?$basic_string@DU?$char_traits@D@std@@V?$allocator@D@2@@std@@@2@@2@@std@@@std@@@std@@@std@@_N@1@$$QAU?$pair@$$CBV?$basic_string@DU?$char_traits@D@std@@V?$allocator@D@2@@std@@V?$vector@V?$basic_string@DU?$char_traits@D@std@@V?$allocator@D@2@@std@@V?$allocator@V?$basic_string@DU?$char_traits@D@std@@V?$allocator@D@2@@std@@@2@@2@@1@@Z ; std::_Tree<std::_Tmap_traits<std::basic_string<char,std::char_traits<char>,std::allocator<char> >,std::vector<std::basic_string<char,std::char_traits<char>,std::allocator<char> >,std::allocator<std::basic_string<char,std::char_traits<char>,std::allocator<char> > > >,std::less<std::basic_string<char,std::char_traits<char>,std::allocator<char> > >,std::allocator<std::pair<std::basic_string<char,std::char_traits<char>,std::allocator<char> > const ,std::vector<std::basic_string<char,std::char_traits<char>,std::allocator<char> >,std::allocator<std::basic_string<char,std::char_traits<char>,std::allocator<char> > > > > >,0> >::insert<0,0>
PUBLIC	?__base64_get@@YAHH@Z				; __base64_get
PUBLIC	?__strcat1@@YAXPADH@Z				; __strcat1
PUBLIC	??$_Destroy_range@V?$allocator@V?$basic_string@DU?$char_traits@D@std@@V?$allocator@D@2@@std@@@std@@@std@@YAXPAV?$basic_string@DU?$char_traits@D@std@@V?$allocator@D@2@@0@QAV10@AAV?$allocator@V?$basic_string@DU?$char_traits@D@std@@V?$allocator@D@2@@std@@@0@@Z ; std::_Destroy_range<std::allocator<std::basic_string<char,std::char_traits<char>,std::allocator<char> > > >
PUBLIC	??1?$_Alloc_construct_ptr@V?$allocator@U?$_Tree_node@U?$pair@$$CBV?$basic_string@DU?$char_traits@D@std@@V?$allocator@D@2@@std@@V12@@std@@PAX@std@@@std@@@std@@QAE@XZ ; std::_Alloc_construct_ptr<std::allocator<std::_Tree_node<std::pair<std::basic_string<char,std::char_traits<char>,std::allocator<char> > const ,std::basic_string<char,std::char_traits<char>,std::allocator<char> > >,void *> > >::~_Alloc_construct_ptr<std::allocator<std::_Tree_node<std::pair<std::basic_string<char,std::char_traits<char>,std::allocator<char> > const ,std::basic_string<char,std::char_traits<char>,std::allocator<char> > >,void *> > >
PUBLIC	??1?$_Tree_temp_node_alloc@V?$allocator@U?$_Tree_node@U?$pair@$$CBV?$basic_string@DU?$char_traits@D@std@@V?$allocator@D@2@@std@@V12@@std@@PAX@std@@@std@@@std@@QAE@XZ ; std::_Tree_temp_node_alloc<std::allocator<std::_Tree_node<std::pair<std::basic_string<char,std::char_traits<char>,std::allocator<char> > const ,std::basic_string<char,std::char_traits<char>,std::allocator<char> > >,void *> > >::~_Tree_temp_node_alloc<std::allocator<std::_Tree_node<std::pair<std::basic_string<char,std::char_traits<char>,std::allocator<char> > const ,std::basic_string<char,std::char_traits<char>,std::allocator<char> > >,void *> > >
PUBLIC	??$_Emplace_reallocate@ABV?$basic_string@DU?$char_traits@D@std@@V?$allocator@D@2@@std@@@?$vector@V?$basic_string@DU?$char_traits@D@std@@V?$allocator@D@2@@std@@V?$allocator@V?$basic_string@DU?$char_traits@D@std@@V?$allocator@D@2@@std@@@2@@std@@AAEPAV?$basic_string@DU?$char_traits@D@std@@V?$allocator@D@2@@1@QAV21@ABV21@@Z ; std::vector<std::basic_string<char,std::char_traits<char>,std::allocator<char> >,std::allocator<std::basic_string<char,std::char_traits<char>,std::allocator<char> > > >::_Emplace_reallocate<std::basic_string<char,std::char_traits<char>,std::allocator<char> > const &>
PUBLIC	??1?$_Alloc_construct_ptr@V?$allocator@U?$_Tree_node@U?$pair@$$CBV?$basic_string@DU?$char_traits@D@std@@V?$allocator@D@2@@std@@V?$vector@V?$basic_string@DU?$char_traits@D@std@@V?$allocator@D@2@@std@@V?$allocator@V?$basic_string@DU?$char_traits@D@std@@V?$allocator@D@2@@std@@@2@@2@@std@@PAX@std@@@std@@@std@@QAE@XZ ; std::_Alloc_construct_ptr<std::allocator<std::_Tree_node<std::pair<std::basic_string<char,std::char_traits<char>,std::allocator<char> > const ,std::vector<std::basic_string<char,std::char_traits<char>,std::allocator<char> >,std::allocator<std::basic_string<char,std::char_traits<char>,std::allocator<char> > > > >,void *> > >::~_Alloc_construct_ptr<std::allocator<std::_Tree_node<std::pair<std::basic_string<char,std::char_traits<char>,std::allocator<char> > const ,std::vector<std::basic_string<char,std::char_traits<char>,std::allocator<char> >,std::allocator<std::basic_string<char,std::char_traits<char>,std::allocator<char> > > > >,void *> > >
PUBLIC	??1?$_Tree_temp_node_alloc@V?$allocator@U?$_Tree_node@U?$pair@$$CBV?$basic_string@DU?$char_traits@D@std@@V?$allocator@D@2@@std@@V?$vector@V?$basic_string@DU?$char_traits@D@std@@V?$allocator@D@2@@std@@V?$allocator@V?$basic_string@DU?$char_traits@D@std@@V?$allocator@D@2@@std@@@2@@2@@std@@PAX@std@@@std@@@std@@QAE@XZ ; std::_Tree_temp_node_alloc<std::allocator<std::_Tree_node<std::pair<std::basic_string<char,std::char_traits<char>,std::allocator<char> > const ,std::vector<std::basic_string<char,std::char_traits<char>,std::allocator<char> >,std::allocator<std::basic_string<char,std::char_traits<char>,std::allocator<char> > > > >,void *> > >::~_Tree_temp_node_alloc<std::allocator<std::_Tree_node<std::pair<std::basic_string<char,std::char_traits<char>,std::allocator<char> > const ,std::vector<std::basic_string<char,std::char_traits<char>,std::allocator<char> >,std::allocator<std::basic_string<char,std::char_traits<char>,std::allocator<char> > > > >,void *> > >
PUBLIC	??$?MDU?$char_traits@D@std@@V?$allocator@D@1@@std@@YA_NABV?$basic_string@DU?$char_traits@D@std@@V?$allocator@D@2@@0@0@Z ; std::operator<<char,std::char_traits<char>,std::allocator<char> >
PUBLIC	??1_Reallocation_guard@?$vector@V?$basic_string@DU?$char_traits@D@std@@V?$allocator@D@2@@std@@V?$allocator@V?$basic_string@DU?$char_traits@D@std@@V?$allocator@D@2@@std@@@2@@std@@QAE@XZ ; std::vector<std::basic_string<char,std::char_traits<char>,std::allocator<char> >,std::allocator<std::basic_string<char,std::char_traits<char>,std::allocator<char> > > >::_Reallocation_guard::~_Reallocation_guard
PUBLIC	??$_Uninitialized_move@PAV?$basic_string@DU?$char_traits@D@std@@V?$allocator@D@2@@std@@V?$allocator@V?$basic_string@DU?$char_traits@D@std@@V?$allocator@D@2@@std@@@2@@std@@YAPAV?$basic_string@DU?$char_traits@D@std@@V?$allocator@D@2@@0@QAV10@0PAV10@AAV?$allocator@V?$basic_string@DU?$char_traits@D@std@@V?$allocator@D@2@@std@@@0@@Z ; std::_Uninitialized_move<std::basic_string<char,std::char_traits<char>,std::allocator<char> > *,std::allocator<std::basic_string<char,std::char_traits<char>,std::allocator<char> > > >
PUBLIC	??1?$_Tidy_guard@V?$vector@V?$basic_string@DU?$char_traits@D@std@@V?$allocator@D@2@@std@@V?$allocator@V?$basic_string@DU?$char_traits@D@std@@V?$allocator@D@2@@std@@@2@@std@@@std@@QAE@XZ ; std::_Tidy_guard<std::vector<std::basic_string<char,std::char_traits<char>,std::allocator<char> >,std::allocator<std::basic_string<char,std::char_traits<char>,std::allocator<char> > > > >::~_Tidy_guard<std::vector<std::basic_string<char,std::char_traits<char>,std::allocator<char> >,std::allocator<std::basic_string<char,std::char_traits<char>,std::allocator<char> > > > >
PUBLIC	??1?$_Uninitialized_backout_al@V?$allocator@V?$basic_string@DU?$char_traits@D@std@@V?$allocator@D@2@@std@@@std@@@std@@QAE@XZ ; std::_Uninitialized_backout_al<std::allocator<std::basic_string<char,std::char_traits<char>,std::allocator<char> > > >::~_Uninitialized_backout_al<std::allocator<std::basic_string<char,std::char_traits<char>,std::allocator<char> > > >
PUBLIC	?_OptionsStorage@?1??__local_stdio_printf_options@@9@4_KA ; `__local_stdio_printf_options'::`2'::_OptionsStorage
PUBLIC	??_7exception@std@@6B@				; std::exception::`vftable'
PUBLIC	??_C@_0BC@EOODALEL@Unknown?5exception@		; `string'
PUBLIC	??_7bad_alloc@std@@6B@				; std::bad_alloc::`vftable'
PUBLIC	??_7bad_array_new_length@std@@6B@		; std::bad_array_new_length::`vftable'
PUBLIC	??_C@_0BF@KINCDENJ@bad?5array?5new?5length@	; `string'
PUBLIC	??_R0?AVexception@std@@@8			; std::exception `RTTI Type Descriptor'
PUBLIC	__CT??_R0?AVexception@std@@@8??0exception@std@@QAE@ABV01@@Z12
PUBLIC	__TI3?AVbad_array_new_length@std@@
PUBLIC	__CTA3?AVbad_array_new_length@std@@
PUBLIC	??_R0?AVbad_array_new_length@std@@@8		; std::bad_array_new_length `RTTI Type Descriptor'
PUBLIC	__CT??_R0?AVbad_array_new_length@std@@@8??0bad_array_new_length@std@@QAE@ABV01@@Z12
PUBLIC	??_R0?AVbad_alloc@std@@@8			; std::bad_alloc `RTTI Type Descriptor'
PUBLIC	__CT??_R0?AVbad_alloc@std@@@8??0bad_alloc@std@@QAE@ABV01@@Z12
PUBLIC	??_C@_0BA@JFNIOLAK@string?5too?5long@		; `string'
PUBLIC	??_C@_0BB@GCADKGJO@map?1set?5too?5long@		; `string'
PUBLIC	??_R4exception@std@@6B@				; std::exception::`RTTI Complete Object Locator'
PUBLIC	??_R3exception@std@@8				; std::exception::`RTTI Class Hierarchy Descriptor'
PUBLIC	??_R2exception@std@@8				; std::exception::`RTTI Base Class Array'
PUBLIC	??_R1A@?0A@EA@exception@std@@8			; std::exception::`RTTI Base Class Descriptor at (0,-1,0,64)'
PUBLIC	??_R4bad_array_new_length@std@@6B@		; std::bad_array_new_length::`RTTI Complete Object Locator'
PUBLIC	??_R3bad_array_new_length@std@@8		; std::bad_array_new_length::`RTTI Class Hierarchy Descriptor'
PUBLIC	??_R2bad_array_new_length@std@@8		; std::bad_array_new_length::`RTTI Base Class Array'
PUBLIC	??_R1A@?0A@EA@bad_array_new_length@std@@8	; std::bad_array_new_length::`RTTI Base Class Descriptor at (0,-1,0,64)'
PUBLIC	??_R1A@?0A@EA@bad_alloc@std@@8			; std::bad_alloc::`RTTI Base Class Descriptor at (0,-1,0,64)'
PUBLIC	??_R3bad_alloc@std@@8				; std::bad_alloc::`RTTI Class Hierarchy Descriptor'
PUBLIC	??_R2bad_alloc@std@@8				; std::bad_alloc::`RTTI Base Class Array'
PUBLIC	??_R4bad_alloc@std@@6B@				; std::bad_alloc::`RTTI Complete Object Locator'
PUBLIC	?ms_singleton@?$CSingleton@VCEterPackManager@@@@0PAVCEterPackManager@@A ; CSingleton<CEterPackManager>::ms_singleton
PUBLIC	??_C@_04PFOHOKJK@?5?5?5?5@			; `string'
PUBLIC	??_C@_02OJDBNLEE@?5?7@				; `string'
PUBLIC	??_C@_05FAGFPHJG@start@				; `string'
PUBLIC	??_C@_03JBJLGPFL@end@				; `string'
PUBLIC	??_C@_0L@IPEIPBIF@MS?5PGothic@			; `string'
PUBLIC	??_C@_08JCBFCDDN@GulimChe@			; `string'
PUBLIC	??_C@_06EOALHCBL@SimSun@			; `string'
PUBLIC	??_C@_07HOIPIFNA@MingLiU@			; `string'
PUBLIC	??_C@_06IAEPOIJG@Tahoma@			; `string'
PUBLIC	??_C@_05MPFIAJAP@Arial@				; `string'
PUBLIC	??_C@_0BA@GNIPJLFD@?$ICl?$ICr?5?$ICo?$IDS?$IDV?$IDb?$IDN@ ; `string'
PUBLIC	??_C@_06MFMMLLPC@?$LB?$LM?$LI?$LC?C?$LM@	; `string'
PUBLIC	??_C@_04IKDGCAJA@?K?N?L?e@			; `string'
PUBLIC	??_C@_06MNOHAHKD@?$LC?S?$KJ?z?E?i@		; `string'
PUBLIC	??_C@_0BA@FOIKENOD@vector?5too?5long@		; `string'
EXTRN	??2@YAPAXI@Z:PROC				; operator new
EXTRN	??3@YAXPAXI@Z:PROC				; operator delete
EXTRN	_atexit:PROC
EXTRN	__invalid_parameter_noinfo_noreturn:PROC
EXTRN	_atof:PROC
EXTRN	__stricmp:PROC
EXTRN	__imp__EnumFontFamiliesExA@20:PROC
EXTRN	__imp__GetDC@4:PROC
EXTRN	__imp__ReleaseDC@8:PROC
EXTRN	___stdio_common_vfprintf:PROC
EXTRN	___stdio_common_vsprintf:PROC
EXTRN	?_Xlength_error@std@@YAXPBD@Z:PROC		; std::_Xlength_error
EXTRN	___std_exception_copy:PROC
EXTRN	___std_exception_destroy:PROC
EXTRN	??_Eexception@std@@UAEPAXI@Z:PROC		; std::exception::`vector deleting destructor'
EXTRN	??_Ebad_alloc@std@@UAEPAXI@Z:PROC		; std::bad_alloc::`vector deleting destructor'
EXTRN	??_Ebad_array_new_length@std@@UAEPAXI@Z:PROC	; std::bad_array_new_length::`vector deleting destructor'
EXTRN	?stl_lowers@@YAXAAV?$basic_string@DU?$char_traits@D@std@@V?$allocator@D@2@@std@@@Z:PROC ; stl_lowers
EXTRN	??0CMappedFile@@QAE@XZ:PROC			; CMappedFile::CMappedFile
EXTRN	??1CMappedFile@@UAE@XZ:PROC			; CMappedFile::~CMappedFile
EXTRN	?Size@CMappedFile@@QAEKXZ:PROC			; CMappedFile::Size
EXTRN	?Get@CEterPackManager@@QAE_NAAVCMappedFile@@PBDPAPBX@Z:PROC ; CEterPackManager::Get
EXTRN	??0CMemoryTextFileLoader@@QAE@XZ:PROC		; CMemoryTextFileLoader::CMemoryTextFileLoader
EXTRN	??1CMemoryTextFileLoader@@UAE@XZ:PROC		; CMemoryTextFileLoader::~CMemoryTextFileLoader
EXTRN	?Bind@CMemoryTextFileLoader@@QAEXHPBX@Z:PROC	; CMemoryTextFileLoader::Bind
EXTRN	?GetLineCount@CMemoryTextFileLoader@@QAEKXZ:PROC ; CMemoryTextFileLoader::GetLineCount
EXTRN	?SplitLine@CMemoryTextFileLoader@@QAE_NKPAV?$vector@V?$basic_string@DU?$char_traits@D@std@@V?$allocator@D@2@@std@@V?$allocator@V?$basic_string@DU?$char_traits@D@std@@V?$allocator@D@2@@std@@@2@@std@@PBD@Z:PROC ; CMemoryTextFileLoader::SplitLine
EXTRN	@__security_check_cookie@4:PROC
EXTRN	__CxxThrowException@8:PROC
EXTRN	___CxxFrameHandler3:PROC
EXTRN	_memcpy:PROC
EXTRN	_memmove:PROC
EXTRN	_memset:PROC
EXTRN	??_7type_info@@6B@:QWORD			; type_info::`vftable'
EXTRN	___security_cookie:DWORD
EXTRN	__fltused:DWORD
;	COMDAT ?_OptionsStorage@?1??__local_stdio_printf_options@@9@4_KA
_BSS	SEGMENT
?_OptionsStorage@?1??__local_stdio_printf_options@@9@4_KA DQ 01H DUP (?) ; `__local_stdio_printf_options'::`2'::_OptionsStorage
_BSS	ENDS
;	COMDAT ?ms_singleton@?$CSingleton@VCEterPackManager@@@@0PAVCEterPackManager@@A
_BSS	SEGMENT
?ms_singleton@?$CSingleton@VCEterPackManager@@@@0PAVCEterPackManager@@A DD 01H DUP (?) ; CSingleton<CEterPackManager>::ms_singleton
_BSS	ENDS
;	COMDAT ?szBuf@?1??PrintfTabs@@YAXPAU_iobuf@@HPBDZZ@4PADA
_BSS	SEGMENT
?szBuf@?1??PrintfTabs@@YAXPAU_iobuf@@HPBDZZ@4PADA DB 0400H DUP (?) ; `PrintfTabs'::`2'::szBuf
_BSS	ENDS
_BSS	SEGMENT
?gs_codePage@@3KA DD 01H DUP (?)			; gs_codePage
_BSS	ENDS
CRT$XCU	SEGMENT
?gs_fontFace$initializer$@@3P6AXXZA DD FLAT:??__Egs_fontFace@@YAXXZ ; gs_fontFace$initializer$
CRT$XCU	ENDS
;	COMDAT ??_C@_0BA@FOIKENOD@vector?5too?5long@
CONST	SEGMENT
??_C@_0BA@FOIKENOD@vector?5too?5long@ DB 'vector too long', 00H ; `string'
CONST	ENDS
;	COMDAT ??_C@_06MNOHAHKD@?$LC?S?$KJ?z?E?i@
CONST	SEGMENT
??_C@_06MNOHAHKD@?$LC?S?$KJ?z?E?i@ DB 0b2H, 0d3H, 0a9H, 0faH, 0c5H, 0e9H, 00H ; `string'
CONST	ENDS
;	COMDAT ??_C@_04IKDGCAJA@?K?N?L?e@
CONST	SEGMENT
??_C@_04IKDGCAJA@?K?N?L?e@ DB 0cbH, 0ceH, 0ccH, 0e5H, 00H ; `string'
CONST	ENDS
;	COMDAT ??_C@_06MFMMLLPC@?$LB?$LM?$LI?$LC?C?$LM@
CONST	SEGMENT
??_C@_06MFMMLLPC@?$LB?$LM?$LI?$LC?C?$LM@ DB 0b1H, 0bcH, 0b8H, 0b2H, 0c3H, 0bcH
	DB	00H						; `string'
CONST	ENDS
;	COMDAT ??_C@_0BA@GNIPJLFD@?$ICl?$ICr?5?$ICo?$IDS?$IDV?$IDb?$IDN@
CONST	SEGMENT
??_C@_0BA@GNIPJLFD@?$ICl?$ICr?5?$ICo?$IDS?$IDV?$IDb?$IDN@ DB 082H, 'l', 082H
	DB	'r ', 082H, 'o', 083H, 'S', 083H, 'V', 083H, 'b', 083H, 'N', 00H ; `string'
CONST	ENDS
;	COMDAT ??_C@_05MPFIAJAP@Arial@
CONST	SEGMENT
??_C@_05MPFIAJAP@Arial@ DB 'Arial', 00H			; `string'
CONST	ENDS
;	COMDAT ??_C@_06IAEPOIJG@Tahoma@
CONST	SEGMENT
??_C@_06IAEPOIJG@Tahoma@ DB 'Tahoma', 00H		; `string'
CONST	ENDS
;	COMDAT ??_C@_07HOIPIFNA@MingLiU@
CONST	SEGMENT
??_C@_07HOIPIFNA@MingLiU@ DB 'MingLiU', 00H		; `string'
CONST	ENDS
;	COMDAT ??_C@_06EOALHCBL@SimSun@
CONST	SEGMENT
??_C@_06EOALHCBL@SimSun@ DB 'SimSun', 00H		; `string'
CONST	ENDS
;	COMDAT ??_C@_08JCBFCDDN@GulimChe@
CONST	SEGMENT
??_C@_08JCBFCDDN@GulimChe@ DB 'GulimChe', 00H		; `string'
CONST	ENDS
;	COMDAT ??_C@_0L@IPEIPBIF@MS?5PGothic@
CONST	SEGMENT
??_C@_0L@IPEIPBIF@MS?5PGothic@ DB 'MS PGothic', 00H	; `string'
CONST	ENDS
_DATA	SEGMENT
?gs_fontFace@@3V?$basic_string@DU?$char_traits@D@std@@V?$allocator@D@2@@std@@A DB 00H ; gs_fontFace
	DB	19 DUP(00H)
	DD	0fH
_DATA	ENDS
;	COMDAT ??_C@_03JBJLGPFL@end@
CONST	SEGMENT
??_C@_03JBJLGPFL@end@ DB 'end', 00H			; `string'
CONST	ENDS
;	COMDAT ??_C@_05FAGFPHJG@start@
CONST	SEGMENT
??_C@_05FAGFPHJG@start@ DB 'start', 00H			; `string'
CONST	ENDS
;	COMDAT ??_C@_02OJDBNLEE@?5?7@
CONST	SEGMENT
??_C@_02OJDBNLEE@?5?7@ DB ' ', 09H, 00H			; `string'
CONST	ENDS
;	COMDAT ??_C@_04PFOHOKJK@?5?5?5?5@
CONST	SEGMENT
??_C@_04PFOHOKJK@?5?5?5?5@ DB '    ', 00H		; `string'
CONST	ENDS
;	COMDAT ??_R4bad_alloc@std@@6B@
rdata$r	SEGMENT
??_R4bad_alloc@std@@6B@ DD 00H				; std::bad_alloc::`RTTI Complete Object Locator'
	DD	00H
	DD	00H
	DD	FLAT:??_R0?AVbad_alloc@std@@@8
	DD	FLAT:??_R3bad_alloc@std@@8
rdata$r	ENDS
;	COMDAT ??_R2bad_alloc@std@@8
rdata$r	SEGMENT
??_R2bad_alloc@std@@8 DD FLAT:??_R1A@?0A@EA@bad_alloc@std@@8 ; std::bad_alloc::`RTTI Base Class Array'
	DD	FLAT:??_R1A@?0A@EA@exception@std@@8
rdata$r	ENDS
;	COMDAT ??_R3bad_alloc@std@@8
rdata$r	SEGMENT
??_R3bad_alloc@std@@8 DD 00H				; std::bad_alloc::`RTTI Class Hierarchy Descriptor'
	DD	00H
	DD	02H
	DD	FLAT:??_R2bad_alloc@std@@8
rdata$r	ENDS
;	COMDAT ??_R1A@?0A@EA@bad_alloc@std@@8
rdata$r	SEGMENT
??_R1A@?0A@EA@bad_alloc@std@@8 DD FLAT:??_R0?AVbad_alloc@std@@@8 ; std::bad_alloc::`RTTI Base Class Descriptor at (0,-1,0,64)'
	DD	01H
	DD	00H
	DD	0ffffffffH
	DD	00H
	DD	040H
	DD	FLAT:??_R3bad_alloc@std@@8
rdata$r	ENDS
;	COMDAT ??_R1A@?0A@EA@bad_array_new_length@std@@8
rdata$r	SEGMENT
??_R1A@?0A@EA@bad_array_new_length@std@@8 DD FLAT:??_R0?AVbad_array_new_length@std@@@8 ; std::bad_array_new_length::`RTTI Base Class Descriptor at (0,-1,0,64)'
	DD	02H
	DD	00H
	DD	0ffffffffH
	DD	00H
	DD	040H
	DD	FLAT:??_R3bad_array_new_length@std@@8
rdata$r	ENDS
;	COMDAT ??_R2bad_array_new_length@std@@8
rdata$r	SEGMENT
??_R2bad_array_new_length@std@@8 DD FLAT:??_R1A@?0A@EA@bad_array_new_length@std@@8 ; std::bad_array_new_length::`RTTI Base Class Array'
	DD	FLAT:??_R1A@?0A@EA@bad_alloc@std@@8
	DD	FLAT:??_R1A@?0A@EA@exception@std@@8
rdata$r	ENDS
;	COMDAT ??_R3bad_array_new_length@std@@8
rdata$r	SEGMENT
??_R3bad_array_new_length@std@@8 DD 00H			; std::bad_array_new_length::`RTTI Class Hierarchy Descriptor'
	DD	00H
	DD	03H
	DD	FLAT:??_R2bad_array_new_length@std@@8
rdata$r	ENDS
;	COMDAT ??_R4bad_array_new_length@std@@6B@
rdata$r	SEGMENT
??_R4bad_array_new_length@std@@6B@ DD 00H		; std::bad_array_new_length::`RTTI Complete Object Locator'
	DD	00H
	DD	00H
	DD	FLAT:??_R0?AVbad_array_new_length@std@@@8
	DD	FLAT:??_R3bad_array_new_length@std@@8
rdata$r	ENDS
;	COMDAT ??_R1A@?0A@EA@exception@std@@8
rdata$r	SEGMENT
??_R1A@?0A@EA@exception@std@@8 DD FLAT:??_R0?AVexception@std@@@8 ; std::exception::`RTTI Base Class Descriptor at (0,-1,0,64)'
	DD	00H
	DD	00H
	DD	0ffffffffH
	DD	00H
	DD	040H
	DD	FLAT:??_R3exception@std@@8
rdata$r	ENDS
;	COMDAT ??_R2exception@std@@8
rdata$r	SEGMENT
??_R2exception@std@@8 DD FLAT:??_R1A@?0A@EA@exception@std@@8 ; std::exception::`RTTI Base Class Array'
rdata$r	ENDS
;	COMDAT ??_R3exception@std@@8
rdata$r	SEGMENT
??_R3exception@std@@8 DD 00H				; std::exception::`RTTI Class Hierarchy Descriptor'
	DD	00H
	DD	01H
	DD	FLAT:??_R2exception@std@@8
rdata$r	ENDS
;	COMDAT ??_R4exception@std@@6B@
rdata$r	SEGMENT
??_R4exception@std@@6B@ DD 00H				; std::exception::`RTTI Complete Object Locator'
	DD	00H
	DD	00H
	DD	FLAT:??_R0?AVexception@std@@@8
	DD	FLAT:??_R3exception@std@@8
rdata$r	ENDS
;	COMDAT ??_C@_0BB@GCADKGJO@map?1set?5too?5long@
CONST	SEGMENT
??_C@_0BB@GCADKGJO@map?1set?5too?5long@ DB 'map/set too long', 00H ; `string'
CONST	ENDS
;	COMDAT ??_C@_0BA@JFNIOLAK@string?5too?5long@
CONST	SEGMENT
??_C@_0BA@JFNIOLAK@string?5too?5long@ DB 'string too long', 00H ; `string'
CONST	ENDS
;	COMDAT __CT??_R0?AVbad_alloc@std@@@8??0bad_alloc@std@@QAE@ABV01@@Z12
xdata$x	SEGMENT
__CT??_R0?AVbad_alloc@std@@@8??0bad_alloc@std@@QAE@ABV01@@Z12 DD 010H
	DD	FLAT:??_R0?AVbad_alloc@std@@@8
	DD	00H
	DD	0ffffffffH
	ORG $+4
	DD	0cH
	DD	FLAT:??0bad_alloc@std@@QAE@ABV01@@Z
xdata$x	ENDS
;	COMDAT ??_R0?AVbad_alloc@std@@@8
data$r	SEGMENT
??_R0?AVbad_alloc@std@@@8 DD FLAT:??_7type_info@@6B@	; std::bad_alloc `RTTI Type Descriptor'
	DD	00H
	DB	'.?AVbad_alloc@std@@', 00H
data$r	ENDS
;	COMDAT __CT??_R0?AVbad_array_new_length@std@@@8??0bad_array_new_length@std@@QAE@ABV01@@Z12
xdata$x	SEGMENT
__CT??_R0?AVbad_array_new_length@std@@@8??0bad_array_new_length@std@@QAE@ABV01@@Z12 DD 00H
	DD	FLAT:??_R0?AVbad_array_new_length@std@@@8
	DD	00H
	DD	0ffffffffH
	ORG $+4
	DD	0cH
	DD	FLAT:??0bad_array_new_length@std@@QAE@ABV01@@Z
xdata$x	ENDS
;	COMDAT ??_R0?AVbad_array_new_length@std@@@8
data$r	SEGMENT
??_R0?AVbad_array_new_length@std@@@8 DD FLAT:??_7type_info@@6B@ ; std::bad_array_new_length `RTTI Type Descriptor'
	DD	00H
	DB	'.?AVbad_array_new_length@std@@', 00H
data$r	ENDS
;	COMDAT __CTA3?AVbad_array_new_length@std@@
xdata$x	SEGMENT
__CTA3?AVbad_array_new_length@std@@ DD 03H
	DD	FLAT:__CT??_R0?AVbad_array_new_length@std@@@8??0bad_array_new_length@std@@QAE@ABV01@@Z12
	DD	FLAT:__CT??_R0?AVbad_alloc@std@@@8??0bad_alloc@std@@QAE@ABV01@@Z12
	DD	FLAT:__CT??_R0?AVexception@std@@@8??0exception@std@@QAE@ABV01@@Z12
xdata$x	ENDS
;	COMDAT __TI3?AVbad_array_new_length@std@@
xdata$x	SEGMENT
__TI3?AVbad_array_new_length@std@@ DD 00H
	DD	FLAT:??1bad_array_new_length@std@@UAE@XZ
	DD	00H
	DD	FLAT:__CTA3?AVbad_array_new_length@std@@
xdata$x	ENDS
;	COMDAT __CT??_R0?AVexception@std@@@8??0exception@std@@QAE@ABV01@@Z12
xdata$x	SEGMENT
__CT??_R0?AVexception@std@@@8??0exception@std@@QAE@ABV01@@Z12 DD 00H
	DD	FLAT:??_R0?AVexception@std@@@8
	DD	00H
	DD	0ffffffffH
	ORG $+4
	DD	0cH
	DD	FLAT:??0exception@std@@QAE@ABV01@@Z
xdata$x	ENDS
;	COMDAT ??_R0?AVexception@std@@@8
data$r	SEGMENT
??_R0?AVexception@std@@@8 DD FLAT:??_7type_info@@6B@	; std::exception `RTTI Type Descriptor'
	DD	00H
	DB	'.?AVexception@std@@', 00H
data$r	ENDS
;	COMDAT ??_C@_0BF@KINCDENJ@bad?5array?5new?5length@
CONST	SEGMENT
??_C@_0BF@KINCDENJ@bad?5array?5new?5length@ DB 'bad array new length', 00H ; `string'
CONST	ENDS
;	COMDAT ??_7bad_array_new_length@std@@6B@
CONST	SEGMENT
??_7bad_array_new_length@std@@6B@ DD FLAT:??_R4bad_array_new_length@std@@6B@ ; std::bad_array_new_length::`vftable'
	DD	FLAT:??_Ebad_array_new_length@std@@UAEPAXI@Z
	DD	FLAT:?what@exception@std@@UBEPBDXZ
CONST	ENDS
;	COMDAT ??_7bad_alloc@std@@6B@
CONST	SEGMENT
??_7bad_alloc@std@@6B@ DD FLAT:??_R4bad_alloc@std@@6B@	; std::bad_alloc::`vftable'
	DD	FLAT:??_Ebad_alloc@std@@UAEPAXI@Z
	DD	FLAT:?what@exception@std@@UBEPBDXZ
CONST	ENDS
;	COMDAT ??_C@_0BC@EOODALEL@Unknown?5exception@
CONST	SEGMENT
??_C@_0BC@EOODALEL@Unknown?5exception@ DB 'Unknown exception', 00H ; `string'
CONST	ENDS
;	COMDAT ??_7exception@std@@6B@
CONST	SEGMENT
??_7exception@std@@6B@ DD FLAT:??_R4exception@std@@6B@	; std::exception::`vftable'
	DD	FLAT:??_Eexception@std@@UAEPAXI@Z
	DD	FLAT:?what@exception@std@@UBEPBDXZ
CONST	ENDS
;	COMDAT xdata$x
xdata$x	SEGMENT
__unwindtable$??$_Uninitialized_copy@PAV?$basic_string@DU?$char_traits@D@std@@V?$allocator@D@2@@std@@PAV12@V?$allocator@V?$basic_string@DU?$char_traits@D@std@@V?$allocator@D@2@@std@@@2@@std@@YAPAV?$basic_string@DU?$char_traits@D@std@@V?$allocator@D@2@@0@PAV10@00AAV?$allocator@V?$basic_string@DU?$char_traits@D@std@@V?$allocator@D@2@@std@@@0@@Z DD 0ffffffffH
	DD	FLAT:__unwindfunclet$??$_Uninitialized_copy@PAV?$basic_string@DU?$char_traits@D@std@@V?$allocator@D@2@@std@@PAV12@V?$allocator@V?$basic_string@DU?$char_traits@D@std@@V?$allocator@D@2@@std@@@2@@std@@YAPAV?$basic_string@DU?$char_traits@D@std@@V?$allocator@D@2@@0@PAV10@00AAV?$allocator@V?$basic_string@DU?$char_traits@D@std@@V?$allocator@D@2@@std@@@0@@Z$0
__ehfuncinfo$??$_Uninitialized_copy@PAV?$basic_string@DU?$char_traits@D@std@@V?$allocator@D@2@@std@@PAV12@V?$allocator@V?$basic_string@DU?$char_traits@D@std@@V?$allocator@D@2@@std@@@2@@std@@YAPAV?$basic_string@DU?$char_traits@D@std@@V?$allocator@D@2@@0@PAV10@00AAV?$allocator@V?$basic_string@DU?$char_traits@D@std@@V?$allocator@D@2@@std@@@0@@Z DD 019930522H
	DD	01H
	DD	FLAT:__unwindtable$??$_Uninitialized_copy@PAV?$basic_string@DU?$char_traits@D@std@@V?$allocator@D@2@@std@@PAV12@V?$allocator@V?$basic_string@DU?$char_traits@D@std@@V?$allocator@D@2@@std@@@2@@std@@YAPAV?$basic_string@DU?$char_traits@D@std@@V?$allocator@D@2@@0@PAV10@00AAV?$allocator@V?$basic_string@DU?$char_traits@D@std@@V?$allocator@D@2@@std@@@0@@Z
	DD	2 DUP(00H)
	DD	2 DUP(00H)
	DD	00H
	DD	01H
xdata$x	ENDS
;	COMDAT xdata$x
xdata$x	SEGMENT
__unwindtable$??$?0U?$pair@$$CBV?$basic_string@DU?$char_traits@D@std@@V?$allocator@D@2@@std@@V?$vector@V?$basic_string@DU?$char_traits@D@std@@V?$allocator@D@2@@std@@V?$allocator@V?$basic_string@DU?$char_traits@D@std@@V?$allocator@D@2@@std@@@2@@2@@std@@@?$_Tree_temp_node@V?$allocator@U?$_Tree_node@U?$pair@$$CBV?$basic_string@DU?$char_traits@D@std@@V?$allocator@D@2@@std@@V?$vector@V?$basic_string@DU?$char_traits@D@std@@V?$allocator@D@2@@std@@V?$allocator@V?$basic_string@DU?$char_traits@D@std@@V?$allocator@D@2@@std@@@2@@2@@std@@PAX@std@@@std@@@std@@QAE@AAV?$allocator@U?$_Tree_node@U?$pair@$$CBV?$basic_string@DU?$char_traits@D@std@@V?$allocator@D@2@@std@@V?$vector@V?$basic_string@DU?$char_traits@D@std@@V?$allocator@D@2@@std@@V?$allocator@V?$basic_string@DU?$char_traits@D@std@@V?$allocator@D@2@@std@@@2@@2@@std@@PAX@std@@@1@PAU?$_Tree_node@U?$pair@$$CBV?$basic_string@DU?$char_traits@D@std@@V?$allocator@D@2@@std@@V?$vector@V?$basic_string@DU?$char_traits@D@std@@V?$allocator@D@2@@std@@V?$allocator@V?$basic_string@DU?$char_traits@D@std@@V?$allocator@D@2@@std@@@2@@2@@std@@PAX@1@$$QAU?$pair@$$CBV?$basic_string@DU?$char_traits@D@std@@V?$allocator@D@2@@std@@V?$vector@V?$basic_string@DU?$char_traits@D@std@@V?$allocator@D@2@@std@@V?$allocator@V?$basic_string@DU?$char_traits@D@std@@V?$allocator@D@2@@std@@@2@@2@@1@@Z DD 0ffffffffH
	DD	FLAT:__unwindfunclet$??$?0U?$pair@$$CBV?$basic_string@DU?$char_traits@D@std@@V?$allocator@D@2@@std@@V?$vector@V?$basic_string@DU?$char_traits@D@std@@V?$allocator@D@2@@std@@V?$allocator@V?$basic_string@DU?$char_traits@D@std@@V?$allocator@D@2@@std@@@2@@2@@std@@@?$_Tree_temp_node@V?$allocator@U?$_Tree_node@U?$pair@$$CBV?$basic_string@DU?$char_traits@D@std@@V?$allocator@D@2@@std@@V?$vector@V?$basic_string@DU?$char_traits@D@std@@V?$allocator@D@2@@std@@V?$allocator@V?$basic_string@DU?$char_traits@D@std@@V?$allocator@D@2@@std@@@2@@2@@std@@PAX@std@@@std@@@std@@QAE@AAV?$allocator@U?$_Tree_node@U?$pair@$$CBV?$basic_string@DU?$char_traits@D@std@@V?$allocator@D@2@@std@@V?$vector@V?$basic_string@DU?$char_traits@D@std@@V?$allocator@D@2@@std@@V?$allocator@V?$basic_string@DU?$char_traits@D@std@@V?$allocator@D@2@@std@@@2@@2@@std@@PAX@std@@@1@PAU?$_Tree_node@U?$pair@$$CBV?$basic_string@DU?$char_traits@D@std@@V?$allocator@D@2@@std@@V?$vector@V?$basic_string@DU?$char_traits@D@std@@V?$allocator@D@2@@std@@V?$allocator@V?$basic_string@DU?$char_traits@D@std@@V?$allocator@D@2@@std@@@2@@2@@std@@PAX@1@$$QAU?$pair@$$CBV?$basic_string@DU?$char_traits@D@std@@V?$allocator@D@2@@std@@V?$vector@V?$basic_string@DU?$char_traits@D@std@@V?$allocator@D@2@@std@@V?$allocator@V?$basic_string@DU?$char_traits@D@std@@V?$allocator@D@2@@std@@@2@@2@@1@@Z$1
	DD	0ffffffffH
	DD	FLAT:__unwindfunclet$??$?0U?$pair@$$CBV?$basic_string@DU?$char_traits@D@std@@V?$allocator@D@2@@std@@V?$vector@V?$basic_string@DU?$char_traits@D@std@@V?$allocator@D@2@@std@@V?$allocator@V?$basic_string@DU?$char_traits@D@std@@V?$allocator@D@2@@std@@@2@@2@@std@@@?$_Tree_temp_node@V?$allocator@U?$_Tree_node@U?$pair@$$CBV?$basic_string@DU?$char_traits@D@std@@V?$allocator@D@2@@std@@V?$vector@V?$basic_string@DU?$char_traits@D@std@@V?$allocator@D@2@@std@@V?$allocator@V?$basic_string@DU?$char_traits@D@std@@V?$allocator@D@2@@std@@@2@@2@@std@@PAX@std@@@std@@@std@@QAE@AAV?$allocator@U?$_Tree_node@U?$pair@$$CBV?$basic_string@DU?$char_traits@D@std@@V?$allocator@D@2@@std@@V?$vector@V?$basic_string@DU?$char_traits@D@std@@V?$allocator@D@2@@std@@V?$allocator@V?$basic_string@DU?$char_traits@D@std@@V?$allocator@D@2@@std@@@2@@2@@std@@PAX@std@@@1@PAU?$_Tree_node@U?$pair@$$CBV?$basic_string@DU?$char_traits@D@std@@V?$allocator@D@2@@std@@V?$vector@V?$basic_string@DU?$char_traits@D@std@@V?$allocator@D@2@@std@@V?$allocator@V?$basic_string@DU?$char_traits@D@std@@V?$allocator@D@2@@std@@@2@@2@@std@@PAX@1@$$QAU?$pair@$$CBV?$basic_string@DU?$char_traits@D@std@@V?$allocator@D@2@@std@@V?$vector@V?$basic_string@DU?$char_traits@D@std@@V?$allocator@D@2@@std@@V?$allocator@V?$basic_string@DU?$char_traits@D@std@@V?$allocator@D@2@@std@@@2@@2@@1@@Z$0
__ehfuncinfo$??$?0U?$pair@$$CBV?$basic_string@DU?$char_traits@D@std@@V?$allocator@D@2@@std@@V?$vector@V?$basic_string@DU?$char_traits@D@std@@V?$allocator@D@2@@std@@V?$allocator@V?$basic_string@DU?$char_traits@D@std@@V?$allocator@D@2@@std@@@2@@2@@std@@@?$_Tree_temp_node@V?$allocator@U?$_Tree_node@U?$pair@$$CBV?$basic_string@DU?$char_traits@D@std@@V?$allocator@D@2@@std@@V?$vector@V?$basic_string@DU?$char_traits@D@std@@V?$allocator@D@2@@std@@V?$allocator@V?$basic_string@DU?$char_traits@D@std@@V?$allocator@D@2@@std@@@2@@2@@std@@PAX@std@@@std@@@std@@QAE@AAV?$allocator@U?$_Tree_node@U?$pair@$$CBV?$basic_string@DU?$char_traits@D@std@@V?$allocator@D@2@@std@@V?$vector@V?$basic_string@DU?$char_traits@D@std@@V?$allocator@D@2@@std@@V?$allocator@V?$basic_string@DU?$char_traits@D@std@@V?$allocator@D@2@@std@@@2@@2@@std@@PAX@std@@@1@PAU?$_Tree_node@U?$pair@$$CBV?$basic_string@DU?$char_traits@D@std@@V?$allocator@D@2@@std@@V?$vector@V?$basic_string@DU?$char_traits@D@std@@V?$allocator@D@2@@std@@V?$allocator@V?$basic_string@DU?$char_traits@D@std@@V?$allocator@D@2@@std@@@2@@2@@std@@PAX@1@$$QAU?$pair@$$CBV?$basic_string@DU?$char_traits@D@std@@V?$allocator@D@2@@std@@V?$vector@V?$basic_string@DU?$char_traits@D@std@@V?$allocator@D@2@@std@@V?$allocator@V?$basic_string@DU?$char_traits@D@std@@V?$allocator@D@2@@std@@@2@@2@@1@@Z DD 019930522H
	DD	02H
	DD	FLAT:__unwindtable$??$?0U?$pair@$$CBV?$basic_string@DU?$char_traits@D@std@@V?$allocator@D@2@@std@@V?$vector@V?$basic_string@DU?$char_traits@D@std@@V?$allocator@D@2@@std@@V?$allocator@V?$basic_string@DU?$char_traits@D@std@@V?$allocator@D@2@@std@@@2@@2@@std@@@?$_Tree_temp_node@V?$allocator@U?$_Tree_node@U?$pair@$$CBV?$basic_string@DU?$char_traits@D@std@@V?$allocator@D@2@@std@@V?$vector@V?$basic_string@DU?$char_traits@D@std@@V?$allocator@D@2@@std@@V?$allocator@V?$basic_string@DU?$char_traits@D@std@@V?$allocator@D@2@@std@@@2@@2@@std@@PAX@std@@@std@@@std@@QAE@AAV?$allocator@U?$_Tree_node@U?$pair@$$CBV?$basic_string@DU?$char_traits@D@std@@V?$allocator@D@2@@std@@V?$vector@V?$basic_string@DU?$char_traits@D@std@@V?$allocator@D@2@@std@@V?$allocator@V?$basic_string@DU?$char_traits@D@std@@V?$allocator@D@2@@std@@@2@@2@@std@@PAX@std@@@1@PAU?$_Tree_node@U?$pair@$$CBV?$basic_string@DU?$char_traits@D@std@@V?$allocator@D@2@@std@@V?$vector@V?$basic_string@DU?$char_traits@D@std@@V?$allocator@D@2@@std@@V?$allocator@V?$basic_string@DU?$char_traits@D@std@@V?$allocator@D@2@@std@@@2@@2@@std@@PAX@1@$$QAU?$pair@$$CBV?$basic_string@DU?$char_traits@D@std@@V?$allocator@D@2@@std@@V?$vector@V?$basic_string@DU?$char_traits@D@std@@V?$allocator@D@2@@std@@V?$allocator@V?$basic_string@DU?$char_traits@D@std@@V?$allocator@D@2@@std@@@2@@2@@1@@Z
	DD	2 DUP(00H)
	DD	2 DUP(00H)
	DD	00H
	DD	01H
xdata$x	ENDS
;	COMDAT xdata$x
xdata$x	SEGMENT
__unwindtable$??0?$_Tree_temp_node_alloc@V?$allocator@U?$_Tree_node@U?$pair@$$CBV?$basic_string@DU?$char_traits@D@std@@V?$allocator@D@2@@std@@V?$vector@V?$basic_string@DU?$char_traits@D@std@@V?$allocator@D@2@@std@@V?$allocator@V?$basic_string@DU?$char_traits@D@std@@V?$allocator@D@2@@std@@@2@@2@@std@@PAX@std@@@std@@@std@@QAE@AAV?$allocator@U?$_Tree_node@U?$pair@$$CBV?$basic_string@DU?$char_traits@D@std@@V?$allocator@D@2@@std@@V?$vector@V?$basic_string@DU?$char_traits@D@std@@V?$allocator@D@2@@std@@V?$allocator@V?$basic_string@DU?$char_traits@D@std@@V?$allocator@D@2@@std@@@2@@2@@std@@PAX@std@@@1@@Z DD 0ffffffffH
	DD	FLAT:__unwindfunclet$??0?$_Tree_temp_node_alloc@V?$allocator@U?$_Tree_node@U?$pair@$$CBV?$basic_string@DU?$char_traits@D@std@@V?$allocator@D@2@@std@@V?$vector@V?$basic_string@DU?$char_traits@D@std@@V?$allocator@D@2@@std@@V?$allocator@V?$basic_string@DU?$char_traits@D@std@@V?$allocator@D@2@@std@@@2@@2@@std@@PAX@std@@@std@@@std@@QAE@AAV?$allocator@U?$_Tree_node@U?$pair@$$CBV?$basic_string@DU?$char_traits@D@std@@V?$allocator@D@2@@std@@V?$vector@V?$basic_string@DU?$char_traits@D@std@@V?$allocator@D@2@@std@@V?$allocator@V?$basic_string@DU?$char_traits@D@std@@V?$allocator@D@2@@std@@@2@@2@@std@@PAX@std@@@1@@Z$0
__ehfuncinfo$??0?$_Tree_temp_node_alloc@V?$allocator@U?$_Tree_node@U?$pair@$$CBV?$basic_string@DU?$char_traits@D@std@@V?$allocator@D@2@@std@@V?$vector@V?$basic_string@DU?$char_traits@D@std@@V?$allocator@D@2@@std@@V?$allocator@V?$basic_string@DU?$char_traits@D@std@@V?$allocator@D@2@@std@@@2@@2@@std@@PAX@std@@@std@@@std@@QAE@AAV?$allocator@U?$_Tree_node@U?$pair@$$CBV?$basic_string@DU?$char_traits@D@std@@V?$allocator@D@2@@std@@V?$vector@V?$basic_string@DU?$char_traits@D@std@@V?$allocator@D@2@@std@@V?$allocator@V?$basic_string@DU?$char_traits@D@std@@V?$allocator@D@2@@std@@@2@@2@@std@@PAX@std@@@1@@Z DD 019930522H
	DD	01H
	DD	FLAT:__unwindtable$??0?$_Tree_temp_node_alloc@V?$allocator@U?$_Tree_node@U?$pair@$$CBV?$basic_string@DU?$char_traits@D@std@@V?$allocator@D@2@@std@@V?$vector@V?$basic_string@DU?$char_traits@D@std@@V?$allocator@D@2@@std@@V?$allocator@V?$basic_string@DU?$char_traits@D@std@@V?$allocator@D@2@@std@@@2@@2@@std@@PAX@std@@@std@@@std@@QAE@AAV?$allocator@U?$_Tree_node@U?$pair@$$CBV?$basic_string@DU?$char_traits@D@std@@V?$allocator@D@2@@std@@V?$vector@V?$basic_string@DU?$char_traits@D@std@@V?$allocator@D@2@@std@@V?$allocator@V?$basic_string@DU?$char_traits@D@std@@V?$allocator@D@2@@std@@@2@@2@@std@@PAX@std@@@1@@Z
	DD	2 DUP(00H)
	DD	2 DUP(00H)
	DD	00H
	DD	01H
xdata$x	ENDS
;	COMDAT xdata$x
xdata$x	SEGMENT
__unwindtable$??$_Construct_n@ABQAV?$basic_string@DU?$char_traits@D@std@@V?$allocator@D@2@@std@@ABQAV12@@?$vector@V?$basic_string@DU?$char_traits@D@std@@V?$allocator@D@2@@std@@V?$allocator@V?$basic_string@DU?$char_traits@D@std@@V?$allocator@D@2@@std@@@2@@std@@AAEXIABQAV?$basic_string@DU?$char_traits@D@std@@V?$allocator@D@2@@1@0@Z DD 0ffffffffH
	DD	FLAT:__unwindfunclet$??$_Construct_n@ABQAV?$basic_string@DU?$char_traits@D@std@@V?$allocator@D@2@@std@@ABQAV12@@?$vector@V?$basic_string@DU?$char_traits@D@std@@V?$allocator@D@2@@std@@V?$allocator@V?$basic_string@DU?$char_traits@D@std@@V?$allocator@D@2@@std@@@2@@std@@AAEXIABQAV?$basic_string@DU?$char_traits@D@std@@V?$allocator@D@2@@1@0@Z$0
	DD	00H
	DD	FLAT:__unwindfunclet$??$_Construct_n@ABQAV?$basic_string@DU?$char_traits@D@std@@V?$allocator@D@2@@std@@ABQAV12@@?$vector@V?$basic_string@DU?$char_traits@D@std@@V?$allocator@D@2@@std@@V?$allocator@V?$basic_string@DU?$char_traits@D@std@@V?$allocator@D@2@@std@@@2@@std@@AAEXIABQAV?$basic_string@DU?$char_traits@D@std@@V?$allocator@D@2@@1@0@Z$1
__ehfuncinfo$??$_Construct_n@ABQAV?$basic_string@DU?$char_traits@D@std@@V?$allocator@D@2@@std@@ABQAV12@@?$vector@V?$basic_string@DU?$char_traits@D@std@@V?$allocator@D@2@@std@@V?$allocator@V?$basic_string@DU?$char_traits@D@std@@V?$allocator@D@2@@std@@@2@@std@@AAEXIABQAV?$basic_string@DU?$char_traits@D@std@@V?$allocator@D@2@@1@0@Z DD 019930522H
	DD	02H
	DD	FLAT:__unwindtable$??$_Construct_n@ABQAV?$basic_string@DU?$char_traits@D@std@@V?$allocator@D@2@@std@@ABQAV12@@?$vector@V?$basic_string@DU?$char_traits@D@std@@V?$allocator@D@2@@std@@V?$allocator@V?$basic_string@DU?$char_traits@D@std@@V?$allocator@D@2@@std@@@2@@std@@AAEXIABQAV?$basic_string@DU?$char_traits@D@std@@V?$allocator@D@2@@1@0@Z
	DD	2 DUP(00H)
	DD	2 DUP(00H)
	DD	00H
	DD	01H
xdata$x	ENDS
;	COMDAT xdata$x
xdata$x	SEGMENT
__unwindtable$??$_Emplace_reallocate@ABV?$basic_string@DU?$char_traits@D@std@@V?$allocator@D@2@@std@@@?$vector@V?$basic_string@DU?$char_traits@D@std@@V?$allocator@D@2@@std@@V?$allocator@V?$basic_string@DU?$char_traits@D@std@@V?$allocator@D@2@@std@@@2@@std@@AAEPAV?$basic_string@DU?$char_traits@D@std@@V?$allocator@D@2@@1@QAV21@ABV21@@Z DD 0ffffffffH
	DD	FLAT:__unwindfunclet$??$_Emplace_reallocate@ABV?$basic_string@DU?$char_traits@D@std@@V?$allocator@D@2@@std@@@?$vector@V?$basic_string@DU?$char_traits@D@std@@V?$allocator@D@2@@std@@V?$allocator@V?$basic_string@DU?$char_traits@D@std@@V?$allocator@D@2@@std@@@2@@std@@AAEPAV?$basic_string@DU?$char_traits@D@std@@V?$allocator@D@2@@1@QAV21@ABV21@@Z$0
__ehfuncinfo$??$_Emplace_reallocate@ABV?$basic_string@DU?$char_traits@D@std@@V?$allocator@D@2@@std@@@?$vector@V?$basic_string@DU?$char_traits@D@std@@V?$allocator@D@2@@std@@V?$allocator@V?$basic_string@DU?$char_traits@D@std@@V?$allocator@D@2@@std@@@2@@std@@AAEPAV?$basic_string@DU?$char_traits@D@std@@V?$allocator@D@2@@1@QAV21@ABV21@@Z DD 019930522H
	DD	01H
	DD	FLAT:__unwindtable$??$_Emplace_reallocate@ABV?$basic_string@DU?$char_traits@D@std@@V?$allocator@D@2@@std@@@?$vector@V?$basic_string@DU?$char_traits@D@std@@V?$allocator@D@2@@std@@V?$allocator@V?$basic_string@DU?$char_traits@D@std@@V?$allocator@D@2@@std@@@2@@std@@AAEPAV?$basic_string@DU?$char_traits@D@std@@V?$allocator@D@2@@1@QAV21@ABV21@@Z
	DD	2 DUP(00H)
	DD	2 DUP(00H)
	DD	00H
	DD	01H
xdata$x	ENDS
;	COMDAT xdata$x
xdata$x	SEGMENT
__unwindtable$??$?0ABUpiecewise_construct_t@std@@V?$tuple@ABV?$basic_string@DU?$char_traits@D@std@@V?$allocator@D@2@@std@@@1@V?$tuple@$$V@1@@?$_Tree_temp_node@V?$allocator@U?$_Tree_node@U?$pair@$$CBV?$basic_string@DU?$char_traits@D@std@@V?$allocator@D@2@@std@@V12@@std@@PAX@std@@@std@@@std@@QAE@AAV?$allocator@U?$_Tree_node@U?$pair@$$CBV?$basic_string@DU?$char_traits@D@std@@V?$allocator@D@2@@std@@V12@@std@@PAX@std@@@1@PAU?$_Tree_node@U?$pair@$$CBV?$basic_string@DU?$char_traits@D@std@@V?$allocator@D@2@@std@@V12@@std@@PAX@1@ABUpiecewise_construct_t@1@$$QAV?$tuple@ABV?$basic_string@DU?$char_traits@D@std@@V?$allocator@D@2@@std@@@1@$$QAV?$tuple@$$V@1@@Z DD 0ffffffffH
	DD	FLAT:__unwindfunclet$??$?0ABUpiecewise_construct_t@std@@V?$tuple@ABV?$basic_string@DU?$char_traits@D@std@@V?$allocator@D@2@@std@@@1@V?$tuple@$$V@1@@?$_Tree_temp_node@V?$allocator@U?$_Tree_node@U?$pair@$$CBV?$basic_string@DU?$char_traits@D@std@@V?$allocator@D@2@@std@@V12@@std@@PAX@std@@@std@@@std@@QAE@AAV?$allocator@U?$_Tree_node@U?$pair@$$CBV?$basic_string@DU?$char_traits@D@std@@V?$allocator@D@2@@std@@V12@@std@@PAX@std@@@1@PAU?$_Tree_node@U?$pair@$$CBV?$basic_string@DU?$char_traits@D@std@@V?$allocator@D@2@@std@@V12@@std@@PAX@1@ABUpiecewise_construct_t@1@$$QAV?$tuple@ABV?$basic_string@DU?$char_traits@D@std@@V?$allocator@D@2@@std@@@1@$$QAV?$tuple@$$V@1@@Z$1
	DD	0ffffffffH
	DD	FLAT:__unwindfunclet$??$?0ABUpiecewise_construct_t@std@@V?$tuple@ABV?$basic_string@DU?$char_traits@D@std@@V?$allocator@D@2@@std@@@1@V?$tuple@$$V@1@@?$_Tree_temp_node@V?$allocator@U?$_Tree_node@U?$pair@$$CBV?$basic_string@DU?$char_traits@D@std@@V?$allocator@D@2@@std@@V12@@std@@PAX@std@@@std@@@std@@QAE@AAV?$allocator@U?$_Tree_node@U?$pair@$$CBV?$basic_string@DU?$char_traits@D@std@@V?$allocator@D@2@@std@@V12@@std@@PAX@std@@@1@PAU?$_Tree_node@U?$pair@$$CBV?$basic_string@DU?$char_traits@D@std@@V?$allocator@D@2@@std@@V12@@std@@PAX@1@ABUpiecewise_construct_t@1@$$QAV?$tuple@ABV?$basic_string@DU?$char_traits@D@std@@V?$allocator@D@2@@std@@@1@$$QAV?$tuple@$$V@1@@Z$0
__ehfuncinfo$??$?0ABUpiecewise_construct_t@std@@V?$tuple@ABV?$basic_string@DU?$char_traits@D@std@@V?$allocator@D@2@@std@@@1@V?$tuple@$$V@1@@?$_Tree_temp_node@V?$allocator@U?$_Tree_node@U?$pair@$$CBV?$basic_string@DU?$char_traits@D@std@@V?$allocator@D@2@@std@@V12@@std@@PAX@std@@@std@@@std@@QAE@AAV?$allocator@U?$_Tree_node@U?$pair@$$CBV?$basic_string@DU?$char_traits@D@std@@V?$allocator@D@2@@std@@V12@@std@@PAX@std@@@1@PAU?$_Tree_node@U?$pair@$$CBV?$basic_string@DU?$char_traits@D@std@@V?$allocator@D@2@@std@@V12@@std@@PAX@1@ABUpiecewise_construct_t@1@$$QAV?$tuple@ABV?$basic_string@DU?$char_traits@D@std@@V?$allocator@D@2@@std@@@1@$$QAV?$tuple@$$V@1@@Z DD 019930522H
	DD	02H
	DD	FLAT:__unwindtable$??$?0ABUpiecewise_construct_t@std@@V?$tuple@ABV?$basic_string@DU?$char_traits@D@std@@V?$allocator@D@2@@std@@@1@V?$tuple@$$V@1@@?$_Tree_temp_node@V?$allocator@U?$_Tree_node@U?$pair@$$CBV?$basic_string@DU?$char_traits@D@std@@V?$allocator@D@2@@std@@V12@@std@@PAX@std@@@std@@@std@@QAE@AAV?$allocator@U?$_Tree_node@U?$pair@$$CBV?$basic_string@DU?$char_traits@D@std@@V?$allocator@D@2@@std@@V12@@std@@PAX@std@@@1@PAU?$_Tree_node@U?$pair@$$CBV?$basic_string@DU?$char_traits@D@std@@V?$allocator@D@2@@std@@V12@@std@@PAX@1@ABUpiecewise_construct_t@1@$$QAV?$tuple@ABV?$basic_string@DU?$char_traits@D@std@@V?$allocator@D@2@@std@@@1@$$QAV?$tuple@$$V@1@@Z
	DD	2 DUP(00H)
	DD	2 DUP(00H)
	DD	00H
	DD	01H
xdata$x	ENDS
;	COMDAT xdata$x
xdata$x	SEGMENT
__unwindtable$??0?$_Tree_temp_node_alloc@V?$allocator@U?$_Tree_node@U?$pair@$$CBV?$basic_string@DU?$char_traits@D@std@@V?$allocator@D@2@@std@@V12@@std@@PAX@std@@@std@@@std@@QAE@AAV?$allocator@U?$_Tree_node@U?$pair@$$CBV?$basic_string@DU?$char_traits@D@std@@V?$allocator@D@2@@std@@V12@@std@@PAX@std@@@1@@Z DD 0ffffffffH
	DD	FLAT:__unwindfunclet$??0?$_Tree_temp_node_alloc@V?$allocator@U?$_Tree_node@U?$pair@$$CBV?$basic_string@DU?$char_traits@D@std@@V?$allocator@D@2@@std@@V12@@std@@PAX@std@@@std@@@std@@QAE@AAV?$allocator@U?$_Tree_node@U?$pair@$$CBV?$basic_string@DU?$char_traits@D@std@@V?$allocator@D@2@@std@@V12@@std@@PAX@std@@@1@@Z$0
__ehfuncinfo$??0?$_Tree_temp_node_alloc@V?$allocator@U?$_Tree_node@U?$pair@$$CBV?$basic_string@DU?$char_traits@D@std@@V?$allocator@D@2@@std@@V12@@std@@PAX@std@@@std@@@std@@QAE@AAV?$allocator@U?$_Tree_node@U?$pair@$$CBV?$basic_string@DU?$char_traits@D@std@@V?$allocator@D@2@@std@@V12@@std@@PAX@std@@@1@@Z DD 019930522H
	DD	01H
	DD	FLAT:__unwindtable$??0?$_Tree_temp_node_alloc@V?$allocator@U?$_Tree_node@U?$pair@$$CBV?$basic_string@DU?$char_traits@D@std@@V?$allocator@D@2@@std@@V12@@std@@PAX@std@@@std@@@std@@QAE@AAV?$allocator@U?$_Tree_node@U?$pair@$$CBV?$basic_string@DU?$char_traits@D@std@@V?$allocator@D@2@@std@@V12@@std@@PAX@std@@@1@@Z
	DD	2 DUP(00H)
	DD	2 DUP(00H)
	DD	00H
	DD	01H
xdata$x	ENDS
;	COMDAT xdata$x
xdata$x	SEGMENT
__unwindtable$??$_Emplace@U?$pair@$$CBV?$basic_string@DU?$char_traits@D@std@@V?$allocator@D@2@@std@@V?$vector@V?$basic_string@DU?$char_traits@D@std@@V?$allocator@D@2@@std@@V?$allocator@V?$basic_string@DU?$char_traits@D@std@@V?$allocator@D@2@@std@@@2@@2@@std@@@?$_Tree@V?$_Tmap_traits@V?$basic_string@DU?$char_traits@D@std@@V?$allocator@D@2@@std@@V?$vector@V?$basic_string@DU?$char_traits@D@std@@V?$allocator@D@2@@std@@V?$allocator@V?$basic_string@DU?$char_traits@D@std@@V?$allocator@D@2@@std@@@2@@2@U?$less@V?$basic_string@DU?$char_traits@D@std@@V?$allocator@D@2@@std@@@2@V?$allocator@U?$pair@$$CBV?$basic_string@DU?$char_traits@D@std@@V?$allocator@D@2@@std@@V?$vector@V?$basic_string@DU?$char_traits@D@std@@V?$allocator@D@2@@std@@V?$allocator@V?$basic_string@DU?$char_traits@D@std@@V?$allocator@D@2@@std@@@2@@2@@std@@@2@$0A@@std@@@std@@IAE?AU?$pair@PAU?$_Tree_node@U?$pair@$$CBV?$basic_string@DU?$char_traits@D@std@@V?$allocator@D@2@@std@@V?$vector@V?$basic_string@DU?$char_traits@D@std@@V?$allocator@D@2@@std@@V?$allocator@V?$basic_string@DU?$char_traits@D@std@@V?$allocator@D@2@@std@@@2@@2@@std@@PAX@std@@_N@1@$$QAU?$pair@$$CBV?$basic_string@DU?$char_traits@D@std@@V?$allocator@D@2@@std@@V?$vector@V?$basic_string@DU?$char_traits@D@std@@V?$allocator@D@2@@std@@V?$allocator@V?$basic_string@DU?$char_traits@D@std@@V?$allocator@D@2@@std@@@2@@2@@1@@Z DD 0ffffffffH
	DD	FLAT:__unwindfunclet$??$_Emplace@U?$pair@$$CBV?$basic_string@DU?$char_traits@D@std@@V?$allocator@D@2@@std@@V?$vector@V?$basic_string@DU?$char_traits@D@std@@V?$allocator@D@2@@std@@V?$allocator@V?$basic_string@DU?$char_traits@D@std@@V?$allocator@D@2@@std@@@2@@2@@std@@@?$_Tree@V?$_Tmap_traits@V?$basic_string@DU?$char_traits@D@std@@V?$allocator@D@2@@std@@V?$vector@V?$basic_string@DU?$char_traits@D@std@@V?$allocator@D@2@@std@@V?$allocator@V?$basic_string@DU?$char_traits@D@std@@V?$allocator@D@2@@std@@@2@@2@U?$less@V?$basic_string@DU?$char_traits@D@std@@V?$allocator@D@2@@std@@@2@V?$allocator@U?$pair@$$CBV?$basic_string@DU?$char_traits@D@std@@V?$allocator@D@2@@std@@V?$vector@V?$basic_string@DU?$char_traits@D@std@@V?$allocator@D@2@@std@@V?$allocator@V?$basic_string@DU?$char_traits@D@std@@V?$allocator@D@2@@std@@@2@@2@@std@@@2@$0A@@std@@@std@@IAE?AU?$pair@PAU?$_Tree_node@U?$pair@$$CBV?$basic_string@DU?$char_traits@D@std@@V?$allocator@D@2@@std@@V?$vector@V?$basic_string@DU?$char_traits@D@std@@V?$allocator@D@2@@std@@V?$allocator@V?$basic_string@DU?$char_traits@D@std@@V?$allocator@D@2@@std@@@2@@2@@std@@PAX@std@@_N@1@$$QAU?$pair@$$CBV?$basic_string@DU?$char_traits@D@std@@V?$allocator@D@2@@std@@V?$vector@V?$basic_string@DU?$char_traits@D@std@@V?$allocator@D@2@@std@@V?$allocator@V?$basic_string@DU?$char_traits@D@std@@V?$allocator@D@2@@std@@@2@@2@@1@@Z$2
	DD	0ffffffffH
	DD	FLAT:__unwindfunclet$??$_Emplace@U?$pair@$$CBV?$basic_string@DU?$char_traits@D@std@@V?$allocator@D@2@@std@@V?$vector@V?$basic_string@DU?$char_traits@D@std@@V?$allocator@D@2@@std@@V?$allocator@V?$basic_string@DU?$char_traits@D@std@@V?$allocator@D@2@@std@@@2@@2@@std@@@?$_Tree@V?$_Tmap_traits@V?$basic_string@DU?$char_traits@D@std@@V?$allocator@D@2@@std@@V?$vector@V?$basic_string@DU?$char_traits@D@std@@V?$allocator@D@2@@std@@V?$allocator@V?$basic_string@DU?$char_traits@D@std@@V?$allocator@D@2@@std@@@2@@2@U?$less@V?$basic_string@DU?$char_traits@D@std@@V?$allocator@D@2@@std@@@2@V?$allocator@U?$pair@$$CBV?$basic_string@DU?$char_traits@D@std@@V?$allocator@D@2@@std@@V?$vector@V?$basic_string@DU?$char_traits@D@std@@V?$allocator@D@2@@std@@V?$allocator@V?$basic_string@DU?$char_traits@D@std@@V?$allocator@D@2@@std@@@2@@2@@std@@@2@$0A@@std@@@std@@IAE?AU?$pair@PAU?$_Tree_node@U?$pair@$$CBV?$basic_string@DU?$char_traits@D@std@@V?$allocator@D@2@@std@@V?$vector@V?$basic_string@DU?$char_traits@D@std@@V?$allocator@D@2@@std@@V?$allocator@V?$basic_string@DU?$char_traits@D@std@@V?$allocator@D@2@@std@@@2@@2@@std@@PAX@std@@_N@1@$$QAU?$pair@$$CBV?$basic_string@DU?$char_traits@D@std@@V?$allocator@D@2@@std@@V?$vector@V?$basic_string@DU?$char_traits@D@std@@V?$allocator@D@2@@std@@V?$allocator@V?$basic_string@DU?$char_traits@D@std@@V?$allocator@D@2@@std@@@2@@2@@1@@Z$1
__ehfuncinfo$??$_Emplace@U?$pair@$$CBV?$basic_string@DU?$char_traits@D@std@@V?$allocator@D@2@@std@@V?$vector@V?$basic_string@DU?$char_traits@D@std@@V?$allocator@D@2@@std@@V?$allocator@V?$basic_string@DU?$char_traits@D@std@@V?$allocator@D@2@@std@@@2@@2@@std@@@?$_Tree@V?$_Tmap_traits@V?$basic_string@DU?$char_traits@D@std@@V?$allocator@D@2@@std@@V?$vector@V?$basic_string@DU?$char_traits@D@std@@V?$allocator@D@2@@std@@V?$allocator@V?$basic_string@DU?$char_traits@D@std@@V?$allocator@D@2@@std@@@2@@2@U?$less@V?$basic_string@DU?$char_traits@D@std@@V?$allocator@D@2@@std@@@2@V?$allocator@U?$pair@$$CBV?$basic_string@DU?$char_traits@D@std@@V?$allocator@D@2@@std@@V?$vector@V?$basic_string@DU?$char_traits@D@std@@V?$allocator@D@2@@std@@V?$allocator@V?$basic_string@DU?$char_traits@D@std@@V?$allocator@D@2@@std@@@2@@2@@std@@@2@$0A@@std@@@std@@IAE?AU?$pair@PAU?$_Tree_node@U?$pair@$$CBV?$basic_string@DU?$char_traits@D@std@@V?$allocator@D@2@@std@@V?$vector@V?$basic_string@DU?$char_traits@D@std@@V?$allocator@D@2@@std@@V?$allocator@V?$basic_string@DU?$char_traits@D@std@@V?$allocator@D@2@@std@@@2@@2@@std@@PAX@std@@_N@1@$$QAU?$pair@$$CBV?$basic_string@DU?$char_traits@D@std@@V?$allocator@D@2@@std@@V?$vector@V?$basic_string@DU?$char_traits@D@std@@V?$allocator@D@2@@std@@V?$allocator@V?$basic_string@DU?$char_traits@D@std@@V?$allocator@D@2@@std@@@2@@2@@1@@Z DD 019930522H
	DD	02H
	DD	FLAT:__unwindtable$??$_Emplace@U?$pair@$$CBV?$basic_string@DU?$char_traits@D@std@@V?$allocator@D@2@@std@@V?$vector@V?$basic_string@DU?$char_traits@D@std@@V?$allocator@D@2@@std@@V?$allocator@V?$basic_string@DU?$char_traits@D@std@@V?$allocator@D@2@@std@@@2@@2@@std@@@?$_Tree@V?$_Tmap_traits@V?$basic_string@DU?$char_traits@D@std@@V?$allocator@D@2@@std@@V?$vector@V?$basic_string@DU?$char_traits@D@std@@V?$allocator@D@2@@std@@V?$allocator@V?$basic_string@DU?$char_traits@D@std@@V?$allocator@D@2@@std@@@2@@2@U?$less@V?$basic_string@DU?$char_traits@D@std@@V?$allocator@D@2@@std@@@2@V?$allocator@U?$pair@$$CBV?$basic_string@DU?$char_traits@D@std@@V?$allocator@D@2@@std@@V?$vector@V?$basic_string@DU?$char_traits@D@std@@V?$allocator@D@2@@std@@V?$allocator@V?$basic_string@DU?$char_traits@D@std@@V?$allocator@D@2@@std@@@2@@2@@std@@@2@$0A@@std@@@std@@IAE?AU?$pair@PAU?$_Tree_node@U?$pair@$$CBV?$basic_string@DU?$char_traits@D@std@@V?$allocator@D@2@@std@@V?$vector@V?$basic_string@DU?$char_traits@D@std@@V?$allocator@D@2@@std@@V?$allocator@V?$basic_string@DU?$char_traits@D@std@@V?$allocator@D@2@@std@@@2@@2@@std@@PAX@std@@_N@1@$$QAU?$pair@$$CBV?$basic_string@DU?$char_traits@D@std@@V?$allocator@D@2@@std@@V?$vector@V?$basic_string@DU?$char_traits@D@std@@V?$allocator@D@2@@std@@V?$allocator@V?$basic_string@DU?$char_traits@D@std@@V?$allocator@D@2@@std@@@2@@2@@1@@Z
	DD	2 DUP(00H)
	DD	2 DUP(00H)
	DD	00H
	DD	01H
xdata$x	ENDS
;	COMDAT xdata$x
xdata$x	SEGMENT
__unwindtable$??$_Try_emplace@ABV?$basic_string@DU?$char_traits@D@std@@V?$allocator@D@2@@std@@$$V@?$map@V?$basic_string@DU?$char_traits@D@std@@V?$allocator@D@2@@std@@V12@U?$less@V?$basic_string@DU?$char_traits@D@std@@V?$allocator@D@2@@std@@@2@V?$allocator@U?$pair@$$CBV?$basic_string@DU?$char_traits@D@std@@V?$allocator@D@2@@std@@V12@@std@@@2@@std@@AAE?AU?$pair@PAU?$_Tree_node@U?$pair@$$CBV?$basic_string@DU?$char_traits@D@std@@V?$allocator@D@2@@std@@V12@@std@@PAX@std@@_N@1@ABV?$basic_string@DU?$char_traits@D@std@@V?$allocator@D@2@@1@@Z DD 0ffffffffH
	DD	FLAT:__unwindfunclet$??$_Try_emplace@ABV?$basic_string@DU?$char_traits@D@std@@V?$allocator@D@2@@std@@$$V@?$map@V?$basic_string@DU?$char_traits@D@std@@V?$allocator@D@2@@std@@V12@U?$less@V?$basic_string@DU?$char_traits@D@std@@V?$allocator@D@2@@std@@@2@V?$allocator@U?$pair@$$CBV?$basic_string@DU?$char_traits@D@std@@V?$allocator@D@2@@std@@V12@@std@@@2@@std@@AAE?AU?$pair@PAU?$_Tree_node@U?$pair@$$CBV?$basic_string@DU?$char_traits@D@std@@V?$allocator@D@2@@std@@V12@@std@@PAX@std@@_N@1@ABV?$basic_string@DU?$char_traits@D@std@@V?$allocator@D@2@@1@@Z$2
	DD	0ffffffffH
	DD	FLAT:__unwindfunclet$??$_Try_emplace@ABV?$basic_string@DU?$char_traits@D@std@@V?$allocator@D@2@@std@@$$V@?$map@V?$basic_string@DU?$char_traits@D@std@@V?$allocator@D@2@@std@@V12@U?$less@V?$basic_string@DU?$char_traits@D@std@@V?$allocator@D@2@@std@@@2@V?$allocator@U?$pair@$$CBV?$basic_string@DU?$char_traits@D@std@@V?$allocator@D@2@@std@@V12@@std@@@2@@std@@AAE?AU?$pair@PAU?$_Tree_node@U?$pair@$$CBV?$basic_string@DU?$char_traits@D@std@@V?$allocator@D@2@@std@@V12@@std@@PAX@std@@_N@1@ABV?$basic_string@DU?$char_traits@D@std@@V?$allocator@D@2@@1@@Z$1
__ehfuncinfo$??$_Try_emplace@ABV?$basic_string@DU?$char_traits@D@std@@V?$allocator@D@2@@std@@$$V@?$map@V?$basic_string@DU?$char_traits@D@std@@V?$allocator@D@2@@std@@V12@U?$less@V?$basic_string@DU?$char_traits@D@std@@V?$allocator@D@2@@std@@@2@V?$allocator@U?$pair@$$CBV?$basic_string@DU?$char_traits@D@std@@V?$allocator@D@2@@std@@V12@@std@@@2@@std@@AAE?AU?$pair@PAU?$_Tree_node@U?$pair@$$CBV?$basic_string@DU?$char_traits@D@std@@V?$allocator@D@2@@std@@V12@@std@@PAX@std@@_N@1@ABV?$basic_string@DU?$char_traits@D@std@@V?$allocator@D@2@@1@@Z DD 019930522H
	DD	02H
	DD	FLAT:__unwindtable$??$_Try_emplace@ABV?$basic_string@DU?$char_traits@D@std@@V?$allocator@D@2@@std@@$$V@?$map@V?$basic_string@DU?$char_traits@D@std@@V?$allocator@D@2@@std@@V12@U?$less@V?$basic_string@DU?$char_traits@D@std@@V?$allocator@D@2@@std@@@2@V?$allocator@U?$pair@$$CBV?$basic_string@DU?$char_traits@D@std@@V?$allocator@D@2@@std@@V12@@std@@@2@@std@@AAE?AU?$pair@PAU?$_Tree_node@U?$pair@$$CBV?$basic_string@DU?$char_traits@D@std@@V?$allocator@D@2@@std@@V12@@std@@PAX@std@@_N@1@ABV?$basic_string@DU?$char_traits@D@std@@V?$allocator@D@2@@1@@Z
	DD	2 DUP(00H)
	DD	2 DUP(00H)
	DD	00H
	DD	01H
xdata$x	ENDS
;	COMDAT xdata$x
xdata$x	SEGMENT
__unwindtable$??$insert@$0A@$0A@@?$_Tree@V?$_Tmap_traits@V?$basic_string@DU?$char_traits@D@std@@V?$allocator@D@2@@std@@V?$vector@V?$basic_string@DU?$char_traits@D@std@@V?$allocator@D@2@@std@@V?$allocator@V?$basic_string@DU?$char_traits@D@std@@V?$allocator@D@2@@std@@@2@@2@U?$less@V?$basic_string@DU?$char_traits@D@std@@V?$allocator@D@2@@std@@@2@V?$allocator@U?$pair@$$CBV?$basic_string@DU?$char_traits@D@std@@V?$allocator@D@2@@std@@V?$vector@V?$basic_string@DU?$char_traits@D@std@@V?$allocator@D@2@@std@@V?$allocator@V?$basic_string@DU?$char_traits@D@std@@V?$allocator@D@2@@std@@@2@@2@@std@@@2@$0A@@std@@@std@@QAE?AU?$pair@V?$_Tree_iterator@V?$_Tree_val@U?$_Tree_simple_types@U?$pair@$$CBV?$basic_string@DU?$char_traits@D@std@@V?$allocator@D@2@@std@@V?$vector@V?$basic_string@DU?$char_traits@D@std@@V?$allocator@D@2@@std@@V?$allocator@V?$basic_string@DU?$char_traits@D@std@@V?$allocator@D@2@@std@@@2@@2@@std@@@std@@@std@@@std@@_N@1@$$QAU?$pair@$$CBV?$basic_string@DU?$char_traits@D@std@@V?$allocator@D@2@@std@@V?$vector@V?$basic_string@DU?$char_traits@D@std@@V?$allocator@D@2@@std@@V?$allocator@V?$basic_string@DU?$char_traits@D@std@@V?$allocator@D@2@@std@@@2@@2@@1@@Z DD 0ffffffffH
	DD	FLAT:__unwindfunclet$??$insert@$0A@$0A@@?$_Tree@V?$_Tmap_traits@V?$basic_string@DU?$char_traits@D@std@@V?$allocator@D@2@@std@@V?$vector@V?$basic_string@DU?$char_traits@D@std@@V?$allocator@D@2@@std@@V?$allocator@V?$basic_string@DU?$char_traits@D@std@@V?$allocator@D@2@@std@@@2@@2@U?$less@V?$basic_string@DU?$char_traits@D@std@@V?$allocator@D@2@@std@@@2@V?$allocator@U?$pair@$$CBV?$basic_string@DU?$char_traits@D@std@@V?$allocator@D@2@@std@@V?$vector@V?$basic_string@DU?$char_traits@D@std@@V?$allocator@D@2@@std@@V?$allocator@V?$basic_string@DU?$char_traits@D@std@@V?$allocator@D@2@@std@@@2@@2@@std@@@2@$0A@@std@@@std@@QAE?AU?$pair@V?$_Tree_iterator@V?$_Tree_val@U?$_Tree_simple_types@U?$pair@$$CBV?$basic_string@DU?$char_traits@D@std@@V?$allocator@D@2@@std@@V?$vector@V?$basic_string@DU?$char_traits@D@std@@V?$allocator@D@2@@std@@V?$allocator@V?$basic_string@DU?$char_traits@D@std@@V?$allocator@D@2@@std@@@2@@2@@std@@@std@@@std@@@std@@_N@1@$$QAU?$pair@$$CBV?$basic_string@DU?$char_traits@D@std@@V?$allocator@D@2@@std@@V?$vector@V?$basic_string@DU?$char_traits@D@std@@V?$allocator@D@2@@std@@V?$allocator@V?$basic_string@DU?$char_traits@D@std@@V?$allocator@D@2@@std@@@2@@2@@1@@Z$2
	DD	0ffffffffH
	DD	FLAT:__unwindfunclet$??$insert@$0A@$0A@@?$_Tree@V?$_Tmap_traits@V?$basic_string@DU?$char_traits@D@std@@V?$allocator@D@2@@std@@V?$vector@V?$basic_string@DU?$char_traits@D@std@@V?$allocator@D@2@@std@@V?$allocator@V?$basic_string@DU?$char_traits@D@std@@V?$allocator@D@2@@std@@@2@@2@U?$less@V?$basic_string@DU?$char_traits@D@std@@V?$allocator@D@2@@std@@@2@V?$allocator@U?$pair@$$CBV?$basic_string@DU?$char_traits@D@std@@V?$allocator@D@2@@std@@V?$vector@V?$basic_string@DU?$char_traits@D@std@@V?$allocator@D@2@@std@@V?$allocator@V?$basic_string@DU?$char_traits@D@std@@V?$allocator@D@2@@std@@@2@@2@@std@@@2@$0A@@std@@@std@@QAE?AU?$pair@V?$_Tree_iterator@V?$_Tree_val@U?$_Tree_simple_types@U?$pair@$$CBV?$basic_string@DU?$char_traits@D@std@@V?$allocator@D@2@@std@@V?$vector@V?$basic_string@DU?$char_traits@D@std@@V?$allocator@D@2@@std@@V?$allocator@V?$basic_string@DU?$char_traits@D@std@@V?$allocator@D@2@@std@@@2@@2@@std@@@std@@@std@@@std@@_N@1@$$QAU?$pair@$$CBV?$basic_string@DU?$char_traits@D@std@@V?$allocator@D@2@@std@@V?$vector@V?$basic_string@DU?$char_traits@D@std@@V?$allocator@D@2@@std@@V?$allocator@V?$basic_string@DU?$char_traits@D@std@@V?$allocator@D@2@@std@@@2@@2@@1@@Z$1
__ehfuncinfo$??$insert@$0A@$0A@@?$_Tree@V?$_Tmap_traits@V?$basic_string@DU?$char_traits@D@std@@V?$allocator@D@2@@std@@V?$vector@V?$basic_string@DU?$char_traits@D@std@@V?$allocator@D@2@@std@@V?$allocator@V?$basic_string@DU?$char_traits@D@std@@V?$allocator@D@2@@std@@@2@@2@U?$less@V?$basic_string@DU?$char_traits@D@std@@V?$allocator@D@2@@std@@@2@V?$allocator@U?$pair@$$CBV?$basic_string@DU?$char_traits@D@std@@V?$allocator@D@2@@std@@V?$vector@V?$basic_string@DU?$char_traits@D@std@@V?$allocator@D@2@@std@@V?$allocator@V?$basic_string@DU?$char_traits@D@std@@V?$allocator@D@2@@std@@@2@@2@@std@@@2@$0A@@std@@@std@@QAE?AU?$pair@V?$_Tree_iterator@V?$_Tree_val@U?$_Tree_simple_types@U?$pair@$$CBV?$basic_string@DU?$char_traits@D@std@@V?$allocator@D@2@@std@@V?$vector@V?$basic_string@DU?$char_traits@D@std@@V?$allocator@D@2@@std@@V?$allocator@V?$basic_string@DU?$char_traits@D@std@@V?$allocator@D@2@@std@@@2@@2@@std@@@std@@@std@@@std@@_N@1@$$QAU?$pair@$$CBV?$basic_string@DU?$char_traits@D@std@@V?$allocator@D@2@@std@@V?$vector@V?$basic_string@DU?$char_traits@D@std@@V?$allocator@D@2@@std@@V?$allocator@V?$basic_string@DU?$char_traits@D@std@@V?$allocator@D@2@@std@@@2@@2@@1@@Z DD 019930522H
	DD	02H
	DD	FLAT:__unwindtable$??$insert@$0A@$0A@@?$_Tree@V?$_Tmap_traits@V?$basic_string@DU?$char_traits@D@std@@V?$allocator@D@2@@std@@V?$vector@V?$basic_string@DU?$char_traits@D@std@@V?$allocator@D@2@@std@@V?$allocator@V?$basic_string@DU?$char_traits@D@std@@V?$allocator@D@2@@std@@@2@@2@U?$less@V?$basic_string@DU?$char_traits@D@std@@V?$allocator@D@2@@std@@@2@V?$allocator@U?$pair@$$CBV?$basic_string@DU?$char_traits@D@std@@V?$allocator@D@2@@std@@V?$vector@V?$basic_string@DU?$char_traits@D@std@@V?$allocator@D@2@@std@@V?$allocator@V?$basic_string@DU?$char_traits@D@std@@V?$allocator@D@2@@std@@@2@@2@@std@@@2@$0A@@std@@@std@@QAE?AU?$pair@V?$_Tree_iterator@V?$_Tree_val@U?$_Tree_simple_types@U?$pair@$$CBV?$basic_string@DU?$char_traits@D@std@@V?$allocator@D@2@@std@@V?$vector@V?$basic_string@DU?$char_traits@D@std@@V?$allocator@D@2@@std@@V?$allocator@V?$basic_string@DU?$char_traits@D@std@@V?$allocator@D@2@@std@@@2@@2@@std@@@std@@@std@@@std@@_N@1@$$QAU?$pair@$$CBV?$basic_string@DU?$char_traits@D@std@@V?$allocator@D@2@@std@@V?$vector@V?$basic_string@DU?$char_traits@D@std@@V?$allocator@D@2@@std@@V?$allocator@V?$basic_string@DU?$char_traits@D@std@@V?$allocator@D@2@@std@@@2@@2@@1@@Z
	DD	2 DUP(00H)
	DD	2 DUP(00H)
	DD	00H
	DD	01H
xdata$x	ENDS
;	COMDAT xdata$x
xdata$x	SEGMENT
__unwindtable$??$?0AAV?$basic_string@DU?$char_traits@D@std@@V?$allocator@D@2@@std@@AAV?$vector@V?$basic_string@DU?$char_traits@D@std@@V?$allocator@D@2@@std@@V?$allocator@V?$basic_string@DU?$char_traits@D@std@@V?$allocator@D@2@@std@@@2@@1@$0A@@?$pair@$$CBV?$basic_string@DU?$char_traits@D@std@@V?$allocator@D@2@@std@@V?$vector@V?$basic_string@DU?$char_traits@D@std@@V?$allocator@D@2@@std@@V?$allocator@V?$basic_string@DU?$char_traits@D@std@@V?$allocator@D@2@@std@@@2@@2@@std@@QAE@AAV?$basic_string@DU?$char_traits@D@std@@V?$allocator@D@2@@1@AAV?$vector@V?$basic_string@DU?$char_traits@D@std@@V?$allocator@D@2@@std@@V?$allocator@V?$basic_string@DU?$char_traits@D@std@@V?$allocator@D@2@@std@@@2@@1@@Z DD 0ffffffffH
	DD	FLAT:__unwindfunclet$??$?0AAV?$basic_string@DU?$char_traits@D@std@@V?$allocator@D@2@@std@@AAV?$vector@V?$basic_string@DU?$char_traits@D@std@@V?$allocator@D@2@@std@@V?$allocator@V?$basic_string@DU?$char_traits@D@std@@V?$allocator@D@2@@std@@@2@@1@$0A@@?$pair@$$CBV?$basic_string@DU?$char_traits@D@std@@V?$allocator@D@2@@std@@V?$vector@V?$basic_string@DU?$char_traits@D@std@@V?$allocator@D@2@@std@@V?$allocator@V?$basic_string@DU?$char_traits@D@std@@V?$allocator@D@2@@std@@@2@@2@@std@@QAE@AAV?$basic_string@DU?$char_traits@D@std@@V?$allocator@D@2@@1@AAV?$vector@V?$basic_string@DU?$char_traits@D@std@@V?$allocator@D@2@@std@@V?$allocator@V?$basic_string@DU?$char_traits@D@std@@V?$allocator@D@2@@std@@@2@@1@@Z$0
	DD	00H
	DD	FLAT:__unwindfunclet$??$?0AAV?$basic_string@DU?$char_traits@D@std@@V?$allocator@D@2@@std@@AAV?$vector@V?$basic_string@DU?$char_traits@D@std@@V?$allocator@D@2@@std@@V?$allocator@V?$basic_string@DU?$char_traits@D@std@@V?$allocator@D@2@@std@@@2@@1@$0A@@?$pair@$$CBV?$basic_string@DU?$char_traits@D@std@@V?$allocator@D@2@@std@@V?$vector@V?$basic_string@DU?$char_traits@D@std@@V?$allocator@D@2@@std@@V?$allocator@V?$basic_string@DU?$char_traits@D@std@@V?$allocator@D@2@@std@@@2@@2@@std@@QAE@AAV?$basic_string@DU?$char_traits@D@std@@V?$allocator@D@2@@1@AAV?$vector@V?$basic_string@DU?$char_traits@D@std@@V?$allocator@D@2@@std@@V?$allocator@V?$basic_string@DU?$char_traits@D@std@@V?$allocator@D@2@@std@@@2@@1@@Z$2
	DD	01H
	DD	FLAT:__unwindfunclet$??$?0AAV?$basic_string@DU?$char_traits@D@std@@V?$allocator@D@2@@std@@AAV?$vector@V?$basic_string@DU?$char_traits@D@std@@V?$allocator@D@2@@std@@V?$allocator@V?$basic_string@DU?$char_traits@D@std@@V?$allocator@D@2@@std@@@2@@1@$0A@@?$pair@$$CBV?$basic_string@DU?$char_traits@D@std@@V?$allocator@D@2@@std@@V?$vector@V?$basic_string@DU?$char_traits@D@std@@V?$allocator@D@2@@std@@V?$allocator@V?$basic_string@DU?$char_traits@D@std@@V?$allocator@D@2@@std@@@2@@2@@std@@QAE@AAV?$basic_string@DU?$char_traits@D@std@@V?$allocator@D@2@@1@AAV?$vector@V?$basic_string@DU?$char_traits@D@std@@V?$allocator@D@2@@std@@V?$allocator@V?$basic_string@DU?$char_traits@D@std@@V?$allocator@D@2@@std@@@2@@1@@Z$3
__ehfuncinfo$??$?0AAV?$basic_string@DU?$char_traits@D@std@@V?$allocator@D@2@@std@@AAV?$vector@V?$basic_string@DU?$char_traits@D@std@@V?$allocator@D@2@@std@@V?$allocator@V?$basic_string@DU?$char_traits@D@std@@V?$allocator@D@2@@std@@@2@@1@$0A@@?$pair@$$CBV?$basic_string@DU?$char_traits@D@std@@V?$allocator@D@2@@std@@V?$vector@V?$basic_string@DU?$char_traits@D@std@@V?$allocator@D@2@@std@@V?$allocator@V?$basic_string@DU?$char_traits@D@std@@V?$allocator@D@2@@std@@@2@@2@@std@@QAE@AAV?$basic_string@DU?$char_traits@D@std@@V?$allocator@D@2@@1@AAV?$vector@V?$basic_string@DU?$char_traits@D@std@@V?$allocator@D@2@@std@@V?$allocator@V?$basic_string@DU?$char_traits@D@std@@V?$allocator@D@2@@std@@@2@@1@@Z DD 019930522H
	DD	03H
	DD	FLAT:__unwindtable$??$?0AAV?$basic_string@DU?$char_traits@D@std@@V?$allocator@D@2@@std@@AAV?$vector@V?$basic_string@DU?$char_traits@D@std@@V?$allocator@D@2@@std@@V?$allocator@V?$basic_string@DU?$char_traits@D@std@@V?$allocator@D@2@@std@@@2@@1@$0A@@?$pair@$$CBV?$basic_string@DU?$char_traits@D@std@@V?$allocator@D@2@@std@@V?$vector@V?$basic_string@DU?$char_traits@D@std@@V?$allocator@D@2@@std@@V?$allocator@V?$basic_string@DU?$char_traits@D@std@@V?$allocator@D@2@@std@@@2@@2@@std@@QAE@AAV?$basic_string@DU?$char_traits@D@std@@V?$allocator@D@2@@1@AAV?$vector@V?$basic_string@DU?$char_traits@D@std@@V?$allocator@D@2@@std@@V?$allocator@V?$basic_string@DU?$char_traits@D@std@@V?$allocator@D@2@@std@@@2@@1@@Z
	DD	2 DUP(00H)
	DD	2 DUP(00H)
	DD	00H
	DD	01H
xdata$x	ENDS
;	COMDAT xdata$x
xdata$x	SEGMENT
__unwindtable$??A?$map@V?$basic_string@DU?$char_traits@D@std@@V?$allocator@D@2@@std@@V12@U?$less@V?$basic_string@DU?$char_traits@D@std@@V?$allocator@D@2@@std@@@2@V?$allocator@U?$pair@$$CBV?$basic_string@DU?$char_traits@D@std@@V?$allocator@D@2@@std@@V12@@std@@@2@@std@@QAEAAV?$basic_string@DU?$char_traits@D@std@@V?$allocator@D@2@@1@ABV21@@Z DD 0ffffffffH
	DD	FLAT:__unwindfunclet$??A?$map@V?$basic_string@DU?$char_traits@D@std@@V?$allocator@D@2@@std@@V12@U?$less@V?$basic_string@DU?$char_traits@D@std@@V?$allocator@D@2@@std@@@2@V?$allocator@U?$pair@$$CBV?$basic_string@DU?$char_traits@D@std@@V?$allocator@D@2@@std@@V12@@std@@@2@@std@@QAEAAV?$basic_string@DU?$char_traits@D@std@@V?$allocator@D@2@@1@ABV21@@Z$2
	DD	0ffffffffH
	DD	FLAT:__unwindfunclet$??A?$map@V?$basic_string@DU?$char_traits@D@std@@V?$allocator@D@2@@std@@V12@U?$less@V?$basic_string@DU?$char_traits@D@std@@V?$allocator@D@2@@std@@@2@V?$allocator@U?$pair@$$CBV?$basic_string@DU?$char_traits@D@std@@V?$allocator@D@2@@std@@V12@@std@@@2@@std@@QAEAAV?$basic_string@DU?$char_traits@D@std@@V?$allocator@D@2@@1@ABV21@@Z$1
__ehfuncinfo$??A?$map@V?$basic_string@DU?$char_traits@D@std@@V?$allocator@D@2@@std@@V12@U?$less@V?$basic_string@DU?$char_traits@D@std@@V?$allocator@D@2@@std@@@2@V?$allocator@U?$pair@$$CBV?$basic_string@DU?$char_traits@D@std@@V?$allocator@D@2@@std@@V12@@std@@@2@@std@@QAEAAV?$basic_string@DU?$char_traits@D@std@@V?$allocator@D@2@@1@ABV21@@Z DD 019930522H
	DD	02H
	DD	FLAT:__unwindtable$??A?$map@V?$basic_string@DU?$char_traits@D@std@@V?$allocator@D@2@@std@@V12@U?$less@V?$basic_string@DU?$char_traits@D@std@@V?$allocator@D@2@@std@@@2@V?$allocator@U?$pair@$$CBV?$basic_string@DU?$char_traits@D@std@@V?$allocator@D@2@@std@@V12@@std@@@2@@std@@QAEAAV?$basic_string@DU?$char_traits@D@std@@V?$allocator@D@2@@1@ABV21@@Z
	DD	2 DUP(00H)
	DD	2 DUP(00H)
	DD	00H
	DD	01H
xdata$x	ENDS
;	COMDAT xdata$x
xdata$x	SEGMENT
__unwindtable$?SetDefaultCodePage@@YA_NK@Z DD 0ffffffffH
	DD	FLAT:__unwindfunclet$?SetDefaultCodePage@@YA_NK@Z$0
__ehfuncinfo$?SetDefaultCodePage@@YA_NK@Z DD 019930522H
	DD	01H
	DD	FLAT:__unwindtable$?SetDefaultCodePage@@YA_NK@Z
	DD	2 DUP(00H)
	DD	2 DUP(00H)
	DD	00H
	DD	01H
xdata$x	ENDS
;	COMDAT xdata$x
xdata$x	SEGMENT
__ehfuncinfo$?LoadMultipleTextData@@YA_NPBDAAV?$map@V?$basic_string@DU?$char_traits@D@std@@V?$allocator@D@2@@std@@V?$vector@V?$basic_string@DU?$char_traits@D@std@@V?$allocator@D@2@@std@@V?$allocator@V?$basic_string@DU?$char_traits@D@std@@V?$allocator@D@2@@std@@@2@@2@U?$less@V?$basic_string@DU?$char_traits@D@std@@V?$allocator@D@2@@std@@@2@V?$allocator@U?$pair@$$CBV?$basic_string@DU?$char_traits@D@std@@V?$allocator@D@2@@std@@V?$vector@V?$basic_string@DU?$char_traits@D@std@@V?$allocator@D@2@@std@@V?$allocator@V?$basic_string@DU?$char_traits@D@std@@V?$allocator@D@2@@std@@@2@@2@@std@@@2@@std@@@Z DD 019930522H
	DD	0dH
	DD	FLAT:__unwindtable$?LoadMultipleTextData@@YA_NPBDAAV?$map@V?$basic_string@DU?$char_traits@D@std@@V?$allocator@D@2@@std@@V?$vector@V?$basic_string@DU?$char_traits@D@std@@V?$allocator@D@2@@std@@V?$allocator@V?$basic_string@DU?$char_traits@D@std@@V?$allocator@D@2@@std@@@2@@2@U?$less@V?$basic_string@DU?$char_traits@D@std@@V?$allocator@D@2@@std@@@2@V?$allocator@U?$pair@$$CBV?$basic_string@DU?$char_traits@D@std@@V?$allocator@D@2@@std@@V?$vector@V?$basic_string@DU?$char_traits@D@std@@V?$allocator@D@2@@std@@V?$allocator@V?$basic_string@DU?$char_traits@D@std@@V?$allocator@D@2@@std@@@2@@2@@std@@@2@@std@@@Z
	DD	2 DUP(00H)
	DD	2 DUP(00H)
	DD	00H
	DD	01H
__unwindtable$?LoadMultipleTextData@@YA_NPBDAAV?$map@V?$basic_string@DU?$char_traits@D@std@@V?$allocator@D@2@@std@@V?$vector@V?$basic_string@DU?$char_traits@D@std@@V?$allocator@D@2@@std@@V?$allocator@V?$basic_string@DU?$char_traits@D@std@@V?$allocator@D@2@@std@@@2@@2@U?$less@V?$basic_string@DU?$char_traits@D@std@@V?$allocator@D@2@@std@@@2@V?$allocator@U?$pair@$$CBV?$basic_string@DU?$char_traits@D@std@@V?$allocator@D@2@@std@@V?$vector@V?$basic_string@DU?$char_traits@D@std@@V?$allocator@D@2@@std@@V?$allocator@V?$basic_string@DU?$char_traits@D@std@@V?$allocator@D@2@@std@@@2@@2@@std@@@2@@std@@@Z DD 0ffffffffH
	DD	FLAT:__unwindfunclet$?LoadMultipleTextData@@YA_NPBDAAV?$map@V?$basic_string@DU?$char_traits@D@std@@V?$allocator@D@2@@std@@V?$vector@V?$basic_string@DU?$char_traits@D@std@@V?$allocator@D@2@@std@@V?$allocator@V?$basic_string@DU?$char_traits@D@std@@V?$allocator@D@2@@std@@@2@@2@U?$less@V?$basic_string@DU?$char_traits@D@std@@V?$allocator@D@2@@std@@@2@V?$allocator@U?$pair@$$CBV?$basic_string@DU?$char_traits@D@std@@V?$allocator@D@2@@std@@V?$vector@V?$basic_string@DU?$char_traits@D@std@@V?$allocator@D@2@@std@@V?$allocator@V?$basic_string@DU?$char_traits@D@std@@V?$allocator@D@2@@std@@@2@@2@@std@@@2@@std@@@Z$0
	DD	00H
	DD	FLAT:__unwindfunclet$?LoadMultipleTextData@@YA_NPBDAAV?$map@V?$basic_string@DU?$char_traits@D@std@@V?$allocator@D@2@@std@@V?$vector@V?$basic_string@DU?$char_traits@D@std@@V?$allocator@D@2@@std@@V?$allocator@V?$basic_string@DU?$char_traits@D@std@@V?$allocator@D@2@@std@@@2@@2@U?$less@V?$basic_string@DU?$char_traits@D@std@@V?$allocator@D@2@@std@@@2@V?$allocator@U?$pair@$$CBV?$basic_string@DU?$char_traits@D@std@@V?$allocator@D@2@@std@@V?$vector@V?$basic_string@DU?$char_traits@D@std@@V?$allocator@D@2@@std@@V?$allocator@V?$basic_string@DU?$char_traits@D@std@@V?$allocator@D@2@@std@@@2@@2@@std@@@2@@std@@@Z$1
	DD	01H
	DD	FLAT:__unwindfunclet$?LoadMultipleTextData@@YA_NPBDAAV?$map@V?$basic_string@DU?$char_traits@D@std@@V?$allocator@D@2@@std@@V?$vector@V?$basic_string@DU?$char_traits@D@std@@V?$allocator@D@2@@std@@V?$allocator@V?$basic_string@DU?$char_traits@D@std@@V?$allocator@D@2@@std@@@2@@2@U?$less@V?$basic_string@DU?$char_traits@D@std@@V?$allocator@D@2@@std@@@2@V?$allocator@U?$pair@$$CBV?$basic_string@DU?$char_traits@D@std@@V?$allocator@D@2@@std@@V?$vector@V?$basic_string@DU?$char_traits@D@std@@V?$allocator@D@2@@std@@V?$allocator@V?$basic_string@DU?$char_traits@D@std@@V?$allocator@D@2@@std@@@2@@2@@std@@@2@@std@@@Z$2
	DD	02H
	DD	FLAT:__unwindfunclet$?LoadMultipleTextData@@YA_NPBDAAV?$map@V?$basic_string@DU?$char_traits@D@std@@V?$allocator@D@2@@std@@V?$vector@V?$basic_string@DU?$char_traits@D@std@@V?$allocator@D@2@@std@@V?$allocator@V?$basic_string@DU?$char_traits@D@std@@V?$allocator@D@2@@std@@@2@@2@U?$less@V?$basic_string@DU?$char_traits@D@std@@V?$allocator@D@2@@std@@@2@V?$allocator@U?$pair@$$CBV?$basic_string@DU?$char_traits@D@std@@V?$allocator@D@2@@std@@V?$vector@V?$basic_string@DU?$char_traits@D@std@@V?$allocator@D@2@@std@@V?$allocator@V?$basic_string@DU?$char_traits@D@std@@V?$allocator@D@2@@std@@@2@@2@@std@@@2@@std@@@Z$3
	DD	03H
	DD	FLAT:__unwindfunclet$?LoadMultipleTextData@@YA_NPBDAAV?$map@V?$basic_string@DU?$char_traits@D@std@@V?$allocator@D@2@@std@@V?$vector@V?$basic_string@DU?$char_traits@D@std@@V?$allocator@D@2@@std@@V?$allocator@V?$basic_string@DU?$char_traits@D@std@@V?$allocator@D@2@@std@@@2@@2@U?$less@V?$basic_string@DU?$char_traits@D@std@@V?$allocator@D@2@@std@@@2@V?$allocator@U?$pair@$$CBV?$basic_string@DU?$char_traits@D@std@@V?$allocator@D@2@@std@@V?$vector@V?$basic_string@DU?$char_traits@D@std@@V?$allocator@D@2@@std@@V?$allocator@V?$basic_string@DU?$char_traits@D@std@@V?$allocator@D@2@@std@@@2@@2@@std@@@2@@std@@@Z$4
	DD	04H
	DD	FLAT:__unwindfunclet$?LoadMultipleTextData@@YA_NPBDAAV?$map@V?$basic_string@DU?$char_traits@D@std@@V?$allocator@D@2@@std@@V?$vector@V?$basic_string@DU?$char_traits@D@std@@V?$allocator@D@2@@std@@V?$allocator@V?$basic_string@DU?$char_traits@D@std@@V?$allocator@D@2@@std@@@2@@2@U?$less@V?$basic_string@DU?$char_traits@D@std@@V?$allocator@D@2@@std@@@2@V?$allocator@U?$pair@$$CBV?$basic_string@DU?$char_traits@D@std@@V?$allocator@D@2@@std@@V?$vector@V?$basic_string@DU?$char_traits@D@std@@V?$allocator@D@2@@std@@V?$allocator@V?$basic_string@DU?$char_traits@D@std@@V?$allocator@D@2@@std@@@2@@2@@std@@@2@@std@@@Z$8
	DD	05H
	DD	FLAT:__unwindfunclet$?LoadMultipleTextData@@YA_NPBDAAV?$map@V?$basic_string@DU?$char_traits@D@std@@V?$allocator@D@2@@std@@V?$vector@V?$basic_string@DU?$char_traits@D@std@@V?$allocator@D@2@@std@@V?$allocator@V?$basic_string@DU?$char_traits@D@std@@V?$allocator@D@2@@std@@@2@@2@U?$less@V?$basic_string@DU?$char_traits@D@std@@V?$allocator@D@2@@std@@@2@V?$allocator@U?$pair@$$CBV?$basic_string@DU?$char_traits@D@std@@V?$allocator@D@2@@std@@V?$vector@V?$basic_string@DU?$char_traits@D@std@@V?$allocator@D@2@@std@@V?$allocator@V?$basic_string@DU?$char_traits@D@std@@V?$allocator@D@2@@std@@@2@@2@@std@@@2@@std@@@Z$10
	DD	06H
	DD	FLAT:__unwindfunclet$?LoadMultipleTextData@@YA_NPBDAAV?$map@V?$basic_string@DU?$char_traits@D@std@@V?$allocator@D@2@@std@@V?$vector@V?$basic_string@DU?$char_traits@D@std@@V?$allocator@D@2@@std@@V?$allocator@V?$basic_string@DU?$char_traits@D@std@@V?$allocator@D@2@@std@@@2@@2@U?$less@V?$basic_string@DU?$char_traits@D@std@@V?$allocator@D@2@@std@@@2@V?$allocator@U?$pair@$$CBV?$basic_string@DU?$char_traits@D@std@@V?$allocator@D@2@@std@@V?$vector@V?$basic_string@DU?$char_traits@D@std@@V?$allocator@D@2@@std@@V?$allocator@V?$basic_string@DU?$char_traits@D@std@@V?$allocator@D@2@@std@@@2@@2@@std@@@2@@std@@@Z$11
	DD	04H
	DD	FLAT:__unwindfunclet$?LoadMultipleTextData@@YA_NPBDAAV?$map@V?$basic_string@DU?$char_traits@D@std@@V?$allocator@D@2@@std@@V?$vector@V?$basic_string@DU?$char_traits@D@std@@V?$allocator@D@2@@std@@V?$allocator@V?$basic_string@DU?$char_traits@D@std@@V?$allocator@D@2@@std@@@2@@2@U?$less@V?$basic_string@DU?$char_traits@D@std@@V?$allocator@D@2@@std@@@2@V?$allocator@U?$pair@$$CBV?$basic_string@DU?$char_traits@D@std@@V?$allocator@D@2@@std@@V?$vector@V?$basic_string@DU?$char_traits@D@std@@V?$allocator@D@2@@std@@V?$allocator@V?$basic_string@DU?$char_traits@D@std@@V?$allocator@D@2@@std@@@2@@2@@std@@@2@@std@@@Z$5
	DD	08H
	DD	FLAT:__unwindfunclet$?LoadMultipleTextData@@YA_NPBDAAV?$map@V?$basic_string@DU?$char_traits@D@std@@V?$allocator@D@2@@std@@V?$vector@V?$basic_string@DU?$char_traits@D@std@@V?$allocator@D@2@@std@@V?$allocator@V?$basic_string@DU?$char_traits@D@std@@V?$allocator@D@2@@std@@@2@@2@U?$less@V?$basic_string@DU?$char_traits@D@std@@V?$allocator@D@2@@std@@@2@V?$allocator@U?$pair@$$CBV?$basic_string@DU?$char_traits@D@std@@V?$allocator@D@2@@std@@V?$vector@V?$basic_string@DU?$char_traits@D@std@@V?$allocator@D@2@@std@@V?$allocator@V?$basic_string@DU?$char_traits@D@std@@V?$allocator@D@2@@std@@@2@@2@@std@@@2@@std@@@Z$15
	DD	08H
	DD	FLAT:__unwindfunclet$?LoadMultipleTextData@@YA_NPBDAAV?$map@V?$basic_string@DU?$char_traits@D@std@@V?$allocator@D@2@@std@@V?$vector@V?$basic_string@DU?$char_traits@D@std@@V?$allocator@D@2@@std@@V?$allocator@V?$basic_string@DU?$char_traits@D@std@@V?$allocator@D@2@@std@@@2@@2@U?$less@V?$basic_string@DU?$char_traits@D@std@@V?$allocator@D@2@@std@@@2@V?$allocator@U?$pair@$$CBV?$basic_string@DU?$char_traits@D@std@@V?$allocator@D@2@@std@@V?$vector@V?$basic_string@DU?$char_traits@D@std@@V?$allocator@D@2@@std@@V?$allocator@V?$basic_string@DU?$char_traits@D@std@@V?$allocator@D@2@@std@@@2@@2@@std@@@2@@std@@@Z$14
	DD	02H
	DD	FLAT:__unwindfunclet$?LoadMultipleTextData@@YA_NPBDAAV?$map@V?$basic_string@DU?$char_traits@D@std@@V?$allocator@D@2@@std@@V?$vector@V?$basic_string@DU?$char_traits@D@std@@V?$allocator@D@2@@std@@V?$allocator@V?$basic_string@DU?$char_traits@D@std@@V?$allocator@D@2@@std@@@2@@2@U?$less@V?$basic_string@DU?$char_traits@D@std@@V?$allocator@D@2@@std@@@2@V?$allocator@U?$pair@$$CBV?$basic_string@DU?$char_traits@D@std@@V?$allocator@D@2@@std@@V?$vector@V?$basic_string@DU?$char_traits@D@std@@V?$allocator@D@2@@std@@V?$allocator@V?$basic_string@DU?$char_traits@D@std@@V?$allocator@D@2@@std@@@2@@2@@std@@@2@@std@@@Z$6
	DD	0bH
	DD	FLAT:__unwindfunclet$?LoadMultipleTextData@@YA_NPBDAAV?$map@V?$basic_string@DU?$char_traits@D@std@@V?$allocator@D@2@@std@@V?$vector@V?$basic_string@DU?$char_traits@D@std@@V?$allocator@D@2@@std@@V?$allocator@V?$basic_string@DU?$char_traits@D@std@@V?$allocator@D@2@@std@@@2@@2@U?$less@V?$basic_string@DU?$char_traits@D@std@@V?$allocator@D@2@@std@@@2@V?$allocator@U?$pair@$$CBV?$basic_string@DU?$char_traits@D@std@@V?$allocator@D@2@@std@@V?$vector@V?$basic_string@DU?$char_traits@D@std@@V?$allocator@D@2@@std@@V?$allocator@V?$basic_string@DU?$char_traits@D@std@@V?$allocator@D@2@@std@@@2@@2@@std@@@2@@std@@@Z$7
xdata$x	ENDS
;	COMDAT xdata$x
xdata$x	SEGMENT
__ehfuncinfo$?LoadTextData@@YA_NPBDAAV?$map@V?$basic_string@DU?$char_traits@D@std@@V?$allocator@D@2@@std@@V12@U?$less@V?$basic_string@DU?$char_traits@D@std@@V?$allocator@D@2@@std@@@2@V?$allocator@U?$pair@$$CBV?$basic_string@DU?$char_traits@D@std@@V?$allocator@D@2@@std@@V12@@std@@@2@@std@@@Z DD 019930522H
	DD	05H
	DD	FLAT:__unwindtable$?LoadTextData@@YA_NPBDAAV?$map@V?$basic_string@DU?$char_traits@D@std@@V?$allocator@D@2@@std@@V12@U?$less@V?$basic_string@DU?$char_traits@D@std@@V?$allocator@D@2@@std@@@2@V?$allocator@U?$pair@$$CBV?$basic_string@DU?$char_traits@D@std@@V?$allocator@D@2@@std@@V12@@std@@@2@@std@@@Z
	DD	2 DUP(00H)
	DD	2 DUP(00H)
	DD	00H
	DD	01H
__unwindtable$?LoadTextData@@YA_NPBDAAV?$map@V?$basic_string@DU?$char_traits@D@std@@V?$allocator@D@2@@std@@V12@U?$less@V?$basic_string@DU?$char_traits@D@std@@V?$allocator@D@2@@std@@@2@V?$allocator@U?$pair@$$CBV?$basic_string@DU?$char_traits@D@std@@V?$allocator@D@2@@std@@V12@@std@@@2@@std@@@Z DD 0ffffffffH
	DD	FLAT:__unwindfunclet$?LoadTextData@@YA_NPBDAAV?$map@V?$basic_string@DU?$char_traits@D@std@@V?$allocator@D@2@@std@@V12@U?$less@V?$basic_string@DU?$char_traits@D@std@@V?$allocator@D@2@@std@@@2@V?$allocator@U?$pair@$$CBV?$basic_string@DU?$char_traits@D@std@@V?$allocator@D@2@@std@@V12@@std@@@2@@std@@@Z$0
	DD	00H
	DD	FLAT:__unwindfunclet$?LoadTextData@@YA_NPBDAAV?$map@V?$basic_string@DU?$char_traits@D@std@@V?$allocator@D@2@@std@@V12@U?$less@V?$basic_string@DU?$char_traits@D@std@@V?$allocator@D@2@@std@@@2@V?$allocator@U?$pair@$$CBV?$basic_string@DU?$char_traits@D@std@@V?$allocator@D@2@@std@@V12@@std@@@2@@std@@@Z$1
	DD	01H
	DD	FLAT:__unwindfunclet$?LoadTextData@@YA_NPBDAAV?$map@V?$basic_string@DU?$char_traits@D@std@@V?$allocator@D@2@@std@@V12@U?$less@V?$basic_string@DU?$char_traits@D@std@@V?$allocator@D@2@@std@@@2@V?$allocator@U?$pair@$$CBV?$basic_string@DU?$char_traits@D@std@@V?$allocator@D@2@@std@@V12@@std@@@2@@std@@@Z$2
	DD	02H
	DD	FLAT:__unwindfunclet$?LoadTextData@@YA_NPBDAAV?$map@V?$basic_string@DU?$char_traits@D@std@@V?$allocator@D@2@@std@@V12@U?$less@V?$basic_string@DU?$char_traits@D@std@@V?$allocator@D@2@@std@@@2@V?$allocator@U?$pair@$$CBV?$basic_string@DU?$char_traits@D@std@@V?$allocator@D@2@@std@@V12@@std@@@2@@std@@@Z$5
	DD	02H
	DD	FLAT:__unwindfunclet$?LoadTextData@@YA_NPBDAAV?$map@V?$basic_string@DU?$char_traits@D@std@@V?$allocator@D@2@@std@@V12@U?$less@V?$basic_string@DU?$char_traits@D@std@@V?$allocator@D@2@@std@@@2@V?$allocator@U?$pair@$$CBV?$basic_string@DU?$char_traits@D@std@@V?$allocator@D@2@@std@@V12@@std@@@2@@std@@@Z$4
xdata$x	ENDS
;	COMDAT xdata$x
xdata$x	SEGMENT
__unwindtable$??0?$vector@V?$basic_string@DU?$char_traits@D@std@@V?$allocator@D@2@@std@@V?$allocator@V?$basic_string@DU?$char_traits@D@std@@V?$allocator@D@2@@std@@@2@@std@@QAE@ABV01@@Z DD 0ffffffffH
	DD	FLAT:__unwindfunclet$??0?$vector@V?$basic_string@DU?$char_traits@D@std@@V?$allocator@D@2@@std@@V?$allocator@V?$basic_string@DU?$char_traits@D@std@@V?$allocator@D@2@@std@@@2@@std@@QAE@ABV01@@Z$0
	DD	00H
	DD	FLAT:__unwindfunclet$??0?$vector@V?$basic_string@DU?$char_traits@D@std@@V?$allocator@D@2@@std@@V?$allocator@V?$basic_string@DU?$char_traits@D@std@@V?$allocator@D@2@@std@@@2@@std@@QAE@ABV01@@Z$1
__ehfuncinfo$??0?$vector@V?$basic_string@DU?$char_traits@D@std@@V?$allocator@D@2@@std@@V?$allocator@V?$basic_string@DU?$char_traits@D@std@@V?$allocator@D@2@@std@@@2@@std@@QAE@ABV01@@Z DD 019930522H
	DD	02H
	DD	FLAT:__unwindtable$??0?$vector@V?$basic_string@DU?$char_traits@D@std@@V?$allocator@D@2@@std@@V?$allocator@V?$basic_string@DU?$char_traits@D@std@@V?$allocator@D@2@@std@@@2@@std@@QAE@ABV01@@Z
	DD	2 DUP(00H)
	DD	2 DUP(00H)
	DD	00H
	DD	01H
xdata$x	ENDS
; Function compile flags: /Ogtp
; File D:\Program Files\Microsoft Visual Studio\2022\Community\VC\Tools\MSVC\14.43.34808\include\xmemory
;	COMDAT ??1?$_Uninitialized_backout_al@V?$allocator@V?$basic_string@DU?$char_traits@D@std@@V?$allocator@D@2@@std@@@std@@@std@@QAE@XZ
_TEXT	SEGMENT
??1?$_Uninitialized_backout_al@V?$allocator@V?$basic_string@DU?$char_traits@D@std@@V?$allocator@D@2@@std@@@std@@@std@@QAE@XZ PROC ; std::_Uninitialized_backout_al<std::allocator<std::basic_string<char,std::char_traits<char>,std::allocator<char> > > >::~_Uninitialized_backout_al<std::allocator<std::basic_string<char,std::char_traits<char>,std::allocator<char> > > >, COMDAT
; _this$ = ecx

; 1802 :         _STD _Destroy_range(_First, _Last, _Al);

  00000	ff 71 08	 push	 DWORD PTR [ecx+8]
  00003	ff 71 04	 push	 DWORD PTR [ecx+4]
  00006	ff 31		 push	 DWORD PTR [ecx]
  00008	e8 00 00 00 00	 call	 ??$_Destroy_range@V?$allocator@V?$basic_string@DU?$char_traits@D@std@@V?$allocator@D@2@@std@@@std@@@std@@YAXPAV?$basic_string@DU?$char_traits@D@std@@V?$allocator@D@2@@0@QAV10@AAV?$allocator@V?$basic_string@DU?$char_traits@D@std@@V?$allocator@D@2@@std@@@0@@Z ; std::_Destroy_range<std::allocator<std::basic_string<char,std::char_traits<char>,std::allocator<char> > > >
  0000d	83 c4 0c	 add	 esp, 12			; 0000000cH

; 1803 :     }

  00010	c3		 ret	 0
??1?$_Uninitialized_backout_al@V?$allocator@V?$basic_string@DU?$char_traits@D@std@@V?$allocator@D@2@@std@@@std@@@std@@QAE@XZ ENDP ; std::_Uninitialized_backout_al<std::allocator<std::basic_string<char,std::char_traits<char>,std::allocator<char> > > >::~_Uninitialized_backout_al<std::allocator<std::basic_string<char,std::char_traits<char>,std::allocator<char> > > >
_TEXT	ENDS
; Function compile flags: /Ogtp
; File D:\Program Files\Microsoft Visual Studio\2022\Community\VC\Tools\MSVC\14.43.34808\include\xmemory
;	COMDAT ??1?$_Tidy_guard@V?$vector@V?$basic_string@DU?$char_traits@D@std@@V?$allocator@D@2@@std@@V?$allocator@V?$basic_string@DU?$char_traits@D@std@@V?$allocator@D@2@@std@@@2@@std@@@std@@QAE@XZ
_TEXT	SEGMENT
??1?$_Tidy_guard@V?$vector@V?$basic_string@DU?$char_traits@D@std@@V?$allocator@D@2@@std@@V?$allocator@V?$basic_string@DU?$char_traits@D@std@@V?$allocator@D@2@@std@@@2@@std@@@std@@QAE@XZ PROC ; std::_Tidy_guard<std::vector<std::basic_string<char,std::char_traits<char>,std::allocator<char> >,std::allocator<std::basic_string<char,std::char_traits<char>,std::allocator<char> > > > >::~_Tidy_guard<std::vector<std::basic_string<char,std::char_traits<char>,std::allocator<char> >,std::allocator<std::basic_string<char,std::char_traits<char>,std::allocator<char> > > > >, COMDAT
; _this$ = ecx

; 87   :         if (_Target) {

  00000	8b 09		 mov	 ecx, DWORD PTR [ecx]
  00002	85 c9		 test	 ecx, ecx
  00004	0f 85 00 00 00
	00		 jne	 ?_Tidy@?$vector@V?$basic_string@DU?$char_traits@D@std@@V?$allocator@D@2@@std@@V?$allocator@V?$basic_string@DU?$char_traits@D@std@@V?$allocator@D@2@@std@@@2@@std@@AAEXXZ ; std::vector<std::basic_string<char,std::char_traits<char>,std::allocator<char> >,std::allocator<std::basic_string<char,std::char_traits<char>,std::allocator<char> > > >::_Tidy

; 88   :             _Target->_Tidy();
; 89   :         }
; 90   :     }

  0000a	c3		 ret	 0
??1?$_Tidy_guard@V?$vector@V?$basic_string@DU?$char_traits@D@std@@V?$allocator@D@2@@std@@V?$allocator@V?$basic_string@DU?$char_traits@D@std@@V?$allocator@D@2@@std@@@2@@std@@@std@@QAE@XZ ENDP ; std::_Tidy_guard<std::vector<std::basic_string<char,std::char_traits<char>,std::allocator<char> >,std::allocator<std::basic_string<char,std::char_traits<char>,std::allocator<char> > > > >::~_Tidy_guard<std::vector<std::basic_string<char,std::char_traits<char>,std::allocator<char> >,std::allocator<std::basic_string<char,std::char_traits<char>,std::allocator<char> > > > >
_TEXT	ENDS
; Function compile flags: /Ogtp
; File D:\Program Files\Microsoft Visual Studio\2022\Community\VC\Tools\MSVC\14.43.34808\include\xmemory
; File D:\Program Files\Microsoft Visual Studio\2022\Community\VC\Tools\MSVC\14.43.34808\include\xstring
; File D:\Program Files\Microsoft Visual Studio\2022\Community\VC\Tools\MSVC\14.43.34808\include\xmemory
; File D:\Program Files\Microsoft Visual Studio\2022\Community\VC\Tools\MSVC\14.43.34808\include\xstring
; File D:\Program Files\Microsoft Visual Studio\2022\Community\VC\Tools\MSVC\14.43.34808\include\xmemory
;	COMDAT ??$_Uninitialized_move@PAV?$basic_string@DU?$char_traits@D@std@@V?$allocator@D@2@@std@@V?$allocator@V?$basic_string@DU?$char_traits@D@std@@V?$allocator@D@2@@std@@@2@@std@@YAPAV?$basic_string@DU?$char_traits@D@std@@V?$allocator@D@2@@0@QAV10@0PAV10@AAV?$allocator@V?$basic_string@DU?$char_traits@D@std@@V?$allocator@D@2@@std@@@0@@Z
_TEXT	SEGMENT
__First$ = 8						; size = 4
__Last$ = 12						; size = 4
__Dest$ = 16						; size = 4
__Al$ = 20						; size = 4
??$_Uninitialized_move@PAV?$basic_string@DU?$char_traits@D@std@@V?$allocator@D@2@@std@@V?$allocator@V?$basic_string@DU?$char_traits@D@std@@V?$allocator@D@2@@std@@@2@@std@@YAPAV?$basic_string@DU?$char_traits@D@std@@V?$allocator@D@2@@0@QAV10@0PAV10@AAV?$allocator@V?$basic_string@DU?$char_traits@D@std@@V?$allocator@D@2@@std@@@0@@Z PROC ; std::_Uninitialized_move<std::basic_string<char,std::char_traits<char>,std::allocator<char> > *,std::allocator<std::basic_string<char,std::char_traits<char>,std::allocator<char> > > >, COMDAT

; 1940 :     const _InIt _First, const _InIt _Last, _Alloc_ptr_t<_Alloc> _Dest, _Alloc& _Al) {

  00000	55		 push	 ebp
  00001	8b ec		 mov	 ebp, esp

; 1941 :     // move [_First, _Last) to raw _Dest, using _Al
; 1942 :     // note: only called internally from elsewhere in the STL
; 1943 : #ifdef _ENABLE_STL_INTERNAL_CHECK
; 1944 :     _STD _Adl_verify_range(_First, _Last);
; 1945 : #endif // ^^^ defined(_ENABLE_STL_INTERNAL_CHECK) ^^^
; 1946 :     using _Ptrval     = typename _Alloc::value_type*;
; 1947 :     auto _UFirst      = _STD _Get_unwrapped(_First);
; 1948 :     const auto _ULast = _STD _Get_unwrapped(_Last);
; 1949 :     if constexpr (conjunction_v<bool_constant<_Iter_move_cat<decltype(_UFirst), _Ptrval>::_Bitcopy_constructible>,
; 1950 :                       _Uses_default_construct<_Alloc, _Ptrval, decltype(_STD move(*_UFirst))>>) {
; 1951 : #if _HAS_CXX20
; 1952 :         if (!_STD is_constant_evaluated())
; 1953 : #endif // _HAS_CXX20
; 1954 :         {
; 1955 :             _STD _Copy_memmove(_UFirst, _ULast, _STD _Unfancy(_Dest));
; 1956 :             return _Dest + (_ULast - _UFirst);
; 1957 :         }
; 1958 :     }
; 1959 : 
; 1960 :     _Uninitialized_backout_al<_Alloc> _Backout{_Dest, _Al};
; 1961 :     for (; _UFirst != _ULast; ++_UFirst) {

  00003	8b 45 08	 mov	 eax, DWORD PTR __First$[ebp]
  00006	8b 55 0c	 mov	 edx, DWORD PTR __Last$[ebp]
  00009	56		 push	 esi

; 1796 :     _CONSTEXPR20 _Uninitialized_backout_al(pointer _Dest, _Alloc& _Al_) : _First(_Dest), _Last(_Dest), _Al(_Al_) {}

  0000a	8b 75 10	 mov	 esi, DWORD PTR __Dest$[ebp]

; 1941 :     // move [_First, _Last) to raw _Dest, using _Al
; 1942 :     // note: only called internally from elsewhere in the STL
; 1943 : #ifdef _ENABLE_STL_INTERNAL_CHECK
; 1944 :     _STD _Adl_verify_range(_First, _Last);
; 1945 : #endif // ^^^ defined(_ENABLE_STL_INTERNAL_CHECK) ^^^
; 1946 :     using _Ptrval     = typename _Alloc::value_type*;
; 1947 :     auto _UFirst      = _STD _Get_unwrapped(_First);
; 1948 :     const auto _ULast = _STD _Get_unwrapped(_Last);
; 1949 :     if constexpr (conjunction_v<bool_constant<_Iter_move_cat<decltype(_UFirst), _Ptrval>::_Bitcopy_constructible>,
; 1950 :                       _Uses_default_construct<_Alloc, _Ptrval, decltype(_STD move(*_UFirst))>>) {
; 1951 : #if _HAS_CXX20
; 1952 :         if (!_STD is_constant_evaluated())
; 1953 : #endif // _HAS_CXX20
; 1954 :         {
; 1955 :             _STD _Copy_memmove(_UFirst, _ULast, _STD _Unfancy(_Dest));
; 1956 :             return _Dest + (_ULast - _UFirst);
; 1957 :         }
; 1958 :     }
; 1959 : 
; 1960 :     _Uninitialized_backout_al<_Alloc> _Backout{_Dest, _Al};
; 1961 :     for (; _UFirst != _ULast; ++_UFirst) {

  0000d	3b c2		 cmp	 eax, edx
  0000f	74 4f		 je	 SHORT $LN3@Uninitiali

; 1796 :     _CONSTEXPR20 _Uninitialized_backout_al(pointer _Dest, _Alloc& _Al_) : _First(_Dest), _Last(_Dest), _Al(_Al_) {}

  00011	8b ce		 mov	 ecx, esi
  00013	2b c8		 sub	 ecx, eax
  00015	66 66 66 0f 1f
	84 00 00 00 00
	00		 npad	 11
$LL4@Uninitiali:
  00020	0f 57 c0	 xorps	 xmm0, xmm0
; File D:\Program Files\Microsoft Visual Studio\2022\Community\VC\Tools\MSVC\14.43.34808\include\xstring

; 474  :         _CONSTEXPR20 _Bxty() noexcept : _Buf() {} // user-provided, for fancy pointers

  00023	0f 11 06	 movups	 XMMWORD PTR [esi], xmm0

; 498  :     size_type _Mysize = 0; // current length of string (size)

  00026	c7 46 10 00 00
	00 00		 mov	 DWORD PTR [esi+16], 0

; 499  :     size_type _Myres  = 0; // current storage reserved for string (capacity)

  0002d	c7 44 01 14 00
	00 00 00	 mov	 DWORD PTR [ecx+eax+20], 0

; 1262 :                 _CSTD memcpy(_My_data_mem, _Right_data_mem, _Memcpy_val_size);

  00035	0f 10 00	 movups	 xmm0, XMMWORD PTR [eax]
  00038	0f 11 06	 movups	 XMMWORD PTR [esi], xmm0
  0003b	f3 0f 7e 40 10	 movq	 xmm0, QWORD PTR [eax+16]
  00040	66 0f d6 46 10	 movq	 QWORD PTR [esi+16], xmm0
; File D:\Program Files\Microsoft Visual Studio\2022\Community\VC\Tools\MSVC\14.43.34808\include\xmemory

; 1808 :         ++_Last;

  00045	83 c6 18	 add	 esi, 24			; 00000018H
; File D:\Program Files\Microsoft Visual Studio\2022\Community\VC\Tools\MSVC\14.43.34808\include\xstring

; 1264 :                 _Right_data._Mysize = 0;

  00048	c7 40 10 00 00
	00 00		 mov	 DWORD PTR [eax+16], 0

; 1265 :                 _Right_data._Myres  = _Small_string_capacity;

  0004f	c7 40 14 0f 00
	00 00		 mov	 DWORD PTR [eax+20], 15	; 0000000fH

; 1266 :                 _Right_data._Activate_SSO_buffer();
; 1267 :                 _Traits::assign(_Right_data._Bx._Buf[0], _Elem());

  00056	c6 00 00	 mov	 BYTE PTR [eax], 0
; File D:\Program Files\Microsoft Visual Studio\2022\Community\VC\Tools\MSVC\14.43.34808\include\xmemory

; 1808 :         ++_Last;

  00059	83 c0 18	 add	 eax, 24			; 00000018H

; 1941 :     // move [_First, _Last) to raw _Dest, using _Al
; 1942 :     // note: only called internally from elsewhere in the STL
; 1943 : #ifdef _ENABLE_STL_INTERNAL_CHECK
; 1944 :     _STD _Adl_verify_range(_First, _Last);
; 1945 : #endif // ^^^ defined(_ENABLE_STL_INTERNAL_CHECK) ^^^
; 1946 :     using _Ptrval     = typename _Alloc::value_type*;
; 1947 :     auto _UFirst      = _STD _Get_unwrapped(_First);
; 1948 :     const auto _ULast = _STD _Get_unwrapped(_Last);
; 1949 :     if constexpr (conjunction_v<bool_constant<_Iter_move_cat<decltype(_UFirst), _Ptrval>::_Bitcopy_constructible>,
; 1950 :                       _Uses_default_construct<_Alloc, _Ptrval, decltype(_STD move(*_UFirst))>>) {
; 1951 : #if _HAS_CXX20
; 1952 :         if (!_STD is_constant_evaluated())
; 1953 : #endif // _HAS_CXX20
; 1954 :         {
; 1955 :             _STD _Copy_memmove(_UFirst, _ULast, _STD _Unfancy(_Dest));
; 1956 :             return _Dest + (_ULast - _UFirst);
; 1957 :         }
; 1958 :     }
; 1959 : 
; 1960 :     _Uninitialized_backout_al<_Alloc> _Backout{_Dest, _Al};
; 1961 :     for (; _UFirst != _ULast; ++_UFirst) {

  0005c	3b c2		 cmp	 eax, edx
  0005e	75 c0		 jne	 SHORT $LL4@Uninitiali
$LN3@Uninitiali:

; 1802 :         _STD _Destroy_range(_First, _Last, _Al);

  00060	ff 75 14	 push	 DWORD PTR __Al$[ebp]
  00063	56		 push	 esi
  00064	56		 push	 esi
  00065	e8 00 00 00 00	 call	 ??$_Destroy_range@V?$allocator@V?$basic_string@DU?$char_traits@D@std@@V?$allocator@D@2@@std@@@std@@@std@@YAXPAV?$basic_string@DU?$char_traits@D@std@@V?$allocator@D@2@@0@QAV10@AAV?$allocator@V?$basic_string@DU?$char_traits@D@std@@V?$allocator@D@2@@std@@@0@@Z ; std::_Destroy_range<std::allocator<std::basic_string<char,std::char_traits<char>,std::allocator<char> > > >
  0006a	83 c4 0c	 add	 esp, 12			; 0000000cH

; 1962 :         _Backout._Emplace_back(_STD move(*_UFirst));
; 1963 :     }
; 1964 : 
; 1965 :     return _Backout._Release();

  0006d	8b c6		 mov	 eax, esi
  0006f	5e		 pop	 esi

; 1966 : }

  00070	5d		 pop	 ebp
  00071	c3		 ret	 0
??$_Uninitialized_move@PAV?$basic_string@DU?$char_traits@D@std@@V?$allocator@D@2@@std@@V?$allocator@V?$basic_string@DU?$char_traits@D@std@@V?$allocator@D@2@@std@@@2@@std@@YAPAV?$basic_string@DU?$char_traits@D@std@@V?$allocator@D@2@@0@QAV10@0PAV10@AAV?$allocator@V?$basic_string@DU?$char_traits@D@std@@V?$allocator@D@2@@std@@@0@@Z ENDP ; std::_Uninitialized_move<std::basic_string<char,std::char_traits<char>,std::allocator<char> > *,std::allocator<std::basic_string<char,std::char_traits<char>,std::allocator<char> > > >
_TEXT	ENDS
; Function compile flags: /Ogtp
; File D:\Program Files\Microsoft Visual Studio\2022\Community\VC\Tools\MSVC\14.43.34808\include\vector
; File D:\Program Files\Microsoft Visual Studio\2022\Community\VC\Tools\MSVC\14.43.34808\include\xmemory
; File D:\Program Files\Microsoft Visual Studio\2022\Community\VC\Tools\MSVC\14.43.34808\include\vector
; File D:\Program Files\Microsoft Visual Studio\2022\Community\VC\Tools\MSVC\14.43.34808\include\xmemory
; File D:\Program Files\Microsoft Visual Studio\2022\Community\VC\Tools\MSVC\14.43.34808\include\vector
; File D:\Program Files\Microsoft Visual Studio\2022\Community\VC\Tools\MSVC\14.43.34808\include\xmemory
; File D:\Program Files\Microsoft Visual Studio\2022\Community\VC\Tools\MSVC\14.43.34808\include\vector
;	COMDAT ??1_Reallocation_guard@?$vector@V?$basic_string@DU?$char_traits@D@std@@V?$allocator@D@2@@std@@V?$allocator@V?$basic_string@DU?$char_traits@D@std@@V?$allocator@D@2@@std@@@2@@std@@QAE@XZ
_TEXT	SEGMENT
??1_Reallocation_guard@?$vector@V?$basic_string@DU?$char_traits@D@std@@V?$allocator@D@2@@std@@V?$allocator@V?$basic_string@DU?$char_traits@D@std@@V?$allocator@D@2@@std@@@2@@std@@QAE@XZ PROC ; std::vector<std::basic_string<char,std::char_traits<char>,std::allocator<char> >,std::allocator<std::basic_string<char,std::char_traits<char>,std::allocator<char> > > >::_Reallocation_guard::~_Reallocation_guard, COMDAT
; _this$ = ecx

; 605  :         _CONSTEXPR20 ~_Reallocation_guard() noexcept {

  00000	56		 push	 esi
  00001	8b f1		 mov	 esi, ecx

; 606  :             if (_New_begin != nullptr) {

  00003	83 7e 04 00	 cmp	 DWORD PTR [esi+4], 0
  00007	74 40		 je	 SHORT $LN10@Reallocati

; 607  :                 _STD _Destroy_range(_Constructed_first, _Constructed_last, _Al);

  00009	ff 36		 push	 DWORD PTR [esi]
  0000b	ff 76 10	 push	 DWORD PTR [esi+16]
  0000e	ff 76 0c	 push	 DWORD PTR [esi+12]
  00011	e8 00 00 00 00	 call	 ??$_Destroy_range@V?$allocator@V?$basic_string@DU?$char_traits@D@std@@V?$allocator@D@2@@std@@@std@@@std@@YAXPAV?$basic_string@DU?$char_traits@D@std@@V?$allocator@D@2@@0@QAV10@AAV?$allocator@V?$basic_string@DU?$char_traits@D@std@@V?$allocator@D@2@@std@@@0@@Z ; std::_Destroy_range<std::allocator<std::basic_string<char,std::char_traits<char>,std::allocator<char> > > >
; File D:\Program Files\Microsoft Visual Studio\2022\Community\VC\Tools\MSVC\14.43.34808\include\xmemory

; 981  :         _STD _Deallocate<_New_alignof<_Ty>>(_Ptr, sizeof(_Ty) * _Count);

  00016	8b 46 08	 mov	 eax, DWORD PTR [esi+8]
; File D:\Program Files\Microsoft Visual Studio\2022\Community\VC\Tools\MSVC\14.43.34808\include\vector

; 607  :                 _STD _Destroy_range(_Constructed_first, _Constructed_last, _Al);

  00019	83 c4 0c	 add	 esp, 12			; 0000000cH
; File D:\Program Files\Microsoft Visual Studio\2022\Community\VC\Tools\MSVC\14.43.34808\include\xmemory

; 981  :         _STD _Deallocate<_New_alignof<_Ty>>(_Ptr, sizeof(_Ty) * _Count);

  0001c	8d 0c 40	 lea	 ecx, DWORD PTR [eax+eax*2]
  0001f	8b 46 04	 mov	 eax, DWORD PTR [esi+4]
  00022	c1 e1 03	 shl	 ecx, 3

; 284  :         if (_Bytes >= _Big_allocation_threshold) {

  00025	81 f9 00 10 00
	00		 cmp	 ecx, 4096		; 00001000H
  0002b	72 12		 jb	 SHORT $LN21@Reallocati

; 205  :     const uintptr_t _Ptr_container   = _Ptr_user[-1];

  0002d	8b 50 fc	 mov	 edx, DWORD PTR [eax-4]
  00030	83 c1 23	 add	 ecx, 35			; 00000023H

; 206  : 
; 207  :     // If the following asserts, it likely means that we are performing
; 208  :     // an aligned delete on memory coming from an unaligned allocation.
; 209  :     _STL_ASSERT(_Ptr_user[-2] == _Big_allocation_sentinel, "invalid argument");
; 210  : 
; 211  :     // Extra paranoia on aligned allocation/deallocation; ensure _Ptr_container is
; 212  :     // in range [_Min_back_shift, _Non_user_size]
; 213  : #ifdef _DEBUG
; 214  :     constexpr uintptr_t _Min_back_shift = 2 * sizeof(void*);
; 215  : #else // ^^^ defined(_DEBUG) / !defined(_DEBUG) vvv
; 216  :     constexpr uintptr_t _Min_back_shift = sizeof(void*);
; 217  : #endif // ^^^ !defined(_DEBUG) ^^^
; 218  :     const uintptr_t _Back_shift = reinterpret_cast<uintptr_t>(_Ptr) - _Ptr_container;

  00033	2b c2		 sub	 eax, edx

; 219  :     _STL_VERIFY(_Back_shift >= _Min_back_shift && _Back_shift <= _Non_user_size, "invalid argument");

  00035	83 c0 fc	 add	 eax, -4			; fffffffcH
  00038	83 f8 1f	 cmp	 eax, 31			; 0000001fH
  0003b	77 0e		 ja	 SHORT $LN18@Reallocati

; 220  :     _Ptr = reinterpret_cast<void*>(_Ptr_container);

  0003d	8b c2		 mov	 eax, edx
$LN21@Reallocati:

; 289  :         ::operator delete(_Ptr, _Bytes);

  0003f	51		 push	 ecx
  00040	50		 push	 eax
  00041	e8 00 00 00 00	 call	 ??3@YAXPAXI@Z		; operator delete
  00046	83 c4 08	 add	 esp, 8
$LN10@Reallocati:
  00049	5e		 pop	 esi
; File D:\Program Files\Microsoft Visual Studio\2022\Community\VC\Tools\MSVC\14.43.34808\include\vector

; 610  :         }

  0004a	c3		 ret	 0
$LN18@Reallocati:
; File D:\Program Files\Microsoft Visual Studio\2022\Community\VC\Tools\MSVC\14.43.34808\include\xmemory

; 219  :     _STL_VERIFY(_Back_shift >= _Min_back_shift && _Back_shift <= _Non_user_size, "invalid argument");

  0004b	e8 00 00 00 00	 call	 __invalid_parameter_noinfo_noreturn
$LN28@Reallocati:
  00050	cc		 int	 3
??1_Reallocation_guard@?$vector@V?$basic_string@DU?$char_traits@D@std@@V?$allocator@D@2@@std@@V?$allocator@V?$basic_string@DU?$char_traits@D@std@@V?$allocator@D@2@@std@@@2@@std@@QAE@XZ ENDP ; std::vector<std::basic_string<char,std::char_traits<char>,std::allocator<char> >,std::allocator<std::basic_string<char,std::char_traits<char>,std::allocator<char> > > >::_Reallocation_guard::~_Reallocation_guard
_TEXT	ENDS
; Function compile flags: /Ogtp
; File D:\Program Files\Microsoft Visual Studio\2022\Community\VC\Tools\MSVC\14.43.34808\include\xstring
;	COMDAT ??$?MDU?$char_traits@D@std@@V?$allocator@D@1@@std@@YA_NABV?$basic_string@DU?$char_traits@D@std@@V?$allocator@D@2@@0@0@Z
_TEXT	SEGMENT
__Left$ = 8						; size = 4
__Right$ = 12						; size = 4
??$?MDU?$char_traits@D@std@@V?$allocator@D@1@@std@@YA_NABV?$basic_string@DU?$char_traits@D@std@@V?$allocator@D@2@@0@0@Z PROC ; std::operator<<char,std::char_traits<char>,std::allocator<char> >, COMDAT

; 3271 :     const basic_string<_Elem, _Traits, _Alloc>& _Left, const basic_string<_Elem, _Traits, _Alloc>& _Right) noexcept {

  00000	55		 push	 ebp
  00001	8b ec		 mov	 ebp, esp

; 2854 :         return _Traits_compare<_Traits>(_Mypair._Myval2._Myptr(), _Mypair._Myval2._Mysize,

  00003	8b 45 0c	 mov	 eax, DWORD PTR __Right$[ebp]

; 434  :         return _Myres > _Small_string_capacity;

  00006	83 78 14 0f	 cmp	 DWORD PTR [eax+20], 15	; 0000000fH

; 2854 :         return _Traits_compare<_Traits>(_Mypair._Myval2._Myptr(), _Mypair._Myval2._Mysize,

  0000a	8b 50 10	 mov	 edx, DWORD PTR [eax+16]

; 426  :         if (_Large_mode_engaged()) {

  0000d	76 02		 jbe	 SHORT $LN8@operator

; 427  :             _Result = _Unfancy(_Bx._Ptr);

  0000f	8b 00		 mov	 eax, DWORD PTR [eax]
$LN8@operator:

; 2854 :         return _Traits_compare<_Traits>(_Mypair._Myval2._Myptr(), _Mypair._Myval2._Mysize,

  00011	8b 4d 08	 mov	 ecx, DWORD PTR __Left$[ebp]
  00014	56		 push	 esi

; 434  :         return _Myres > _Small_string_capacity;

  00015	83 79 14 0f	 cmp	 DWORD PTR [ecx+20], 15	; 0000000fH

; 2854 :         return _Traits_compare<_Traits>(_Mypair._Myval2._Myptr(), _Mypair._Myval2._Mysize,

  00019	8b 71 10	 mov	 esi, DWORD PTR [ecx+16]

; 426  :         if (_Large_mode_engaged()) {

  0001c	76 02		 jbe	 SHORT $LN15@operator

; 427  :             _Result = _Unfancy(_Bx._Ptr);

  0001e	8b 09		 mov	 ecx, DWORD PTR [ecx]
$LN15@operator:

; 2854 :         return _Traits_compare<_Traits>(_Mypair._Myval2._Myptr(), _Mypair._Myval2._Mysize,

  00020	52		 push	 edx
  00021	50		 push	 eax
  00022	56		 push	 esi
  00023	51		 push	 ecx
  00024	e8 00 00 00 00	 call	 ??$_Traits_compare@U?$char_traits@D@std@@@std@@YAHQBDI0I@Z ; std::_Traits_compare<std::char_traits<char> >
  00029	83 c4 10	 add	 esp, 16			; 00000010H

; 3272 :     return _Left.compare(_Right) < 0;

  0002c	c1 e8 1f	 shr	 eax, 31			; 0000001fH
  0002f	5e		 pop	 esi

; 3273 : }

  00030	5d		 pop	 ebp
  00031	c3		 ret	 0
??$?MDU?$char_traits@D@std@@V?$allocator@D@1@@std@@YA_NABV?$basic_string@DU?$char_traits@D@std@@V?$allocator@D@2@@0@0@Z ENDP ; std::operator<<char,std::char_traits<char>,std::allocator<char> >
_TEXT	ENDS
; Function compile flags: /Ogtp
; File D:\Program Files\Microsoft Visual Studio\2022\Community\VC\Tools\MSVC\14.43.34808\include\xmemory
;	COMDAT ??1?$_Tree_temp_node_alloc@V?$allocator@U?$_Tree_node@U?$pair@$$CBV?$basic_string@DU?$char_traits@D@std@@V?$allocator@D@2@@std@@V?$vector@V?$basic_string@DU?$char_traits@D@std@@V?$allocator@D@2@@std@@V?$allocator@V?$basic_string@DU?$char_traits@D@std@@V?$allocator@D@2@@std@@@2@@2@@std@@PAX@std@@@std@@@std@@QAE@XZ
_TEXT	SEGMENT
??1?$_Tree_temp_node_alloc@V?$allocator@U?$_Tree_node@U?$pair@$$CBV?$basic_string@DU?$char_traits@D@std@@V?$allocator@D@2@@std@@V?$vector@V?$basic_string@DU?$char_traits@D@std@@V?$allocator@D@2@@std@@V?$allocator@V?$basic_string@DU?$char_traits@D@std@@V?$allocator@D@2@@std@@@2@@2@@std@@PAX@std@@@std@@@std@@QAE@XZ PROC ; std::_Tree_temp_node_alloc<std::allocator<std::_Tree_node<std::pair<std::basic_string<char,std::char_traits<char>,std::allocator<char> > const ,std::vector<std::basic_string<char,std::char_traits<char>,std::allocator<char> >,std::allocator<std::basic_string<char,std::char_traits<char>,std::allocator<char> > > > >,void *> > >::~_Tree_temp_node_alloc<std::allocator<std::_Tree_node<std::pair<std::basic_string<char,std::char_traits<char>,std::allocator<char> > const ,std::vector<std::basic_string<char,std::char_traits<char>,std::allocator<char> >,std::allocator<std::basic_string<char,std::char_traits<char>,std::allocator<char> > > > >,void *> > >, COMDAT
; _this$ = ecx

; 1168 :         if (_Ptr) {

  00000	8b 41 04	 mov	 eax, DWORD PTR [ecx+4]
  00003	85 c0		 test	 eax, eax
  00005	74 0b		 je	 SHORT $LN13@Tree_temp_

; 289  :         ::operator delete(_Ptr, _Bytes);

  00007	6a 34		 push	 52			; 00000034H
  00009	50		 push	 eax
  0000a	e8 00 00 00 00	 call	 ??3@YAXPAXI@Z		; operator delete
  0000f	83 c4 08	 add	 esp, 8
$LN13@Tree_temp_:
  00012	c3		 ret	 0
??1?$_Tree_temp_node_alloc@V?$allocator@U?$_Tree_node@U?$pair@$$CBV?$basic_string@DU?$char_traits@D@std@@V?$allocator@D@2@@std@@V?$vector@V?$basic_string@DU?$char_traits@D@std@@V?$allocator@D@2@@std@@V?$allocator@V?$basic_string@DU?$char_traits@D@std@@V?$allocator@D@2@@std@@@2@@2@@std@@PAX@std@@@std@@@std@@QAE@XZ ENDP ; std::_Tree_temp_node_alloc<std::allocator<std::_Tree_node<std::pair<std::basic_string<char,std::char_traits<char>,std::allocator<char> > const ,std::vector<std::basic_string<char,std::char_traits<char>,std::allocator<char> >,std::allocator<std::basic_string<char,std::char_traits<char>,std::allocator<char> > > > >,void *> > >::~_Tree_temp_node_alloc<std::allocator<std::_Tree_node<std::pair<std::basic_string<char,std::char_traits<char>,std::allocator<char> > const ,std::vector<std::basic_string<char,std::char_traits<char>,std::allocator<char> >,std::allocator<std::basic_string<char,std::char_traits<char>,std::allocator<char> > > > >,void *> > >
_TEXT	ENDS
; Function compile flags: /Ogtp
; File D:\Program Files\Microsoft Visual Studio\2022\Community\VC\Tools\MSVC\14.43.34808\include\xmemory
;	COMDAT ??1?$_Alloc_construct_ptr@V?$allocator@U?$_Tree_node@U?$pair@$$CBV?$basic_string@DU?$char_traits@D@std@@V?$allocator@D@2@@std@@V?$vector@V?$basic_string@DU?$char_traits@D@std@@V?$allocator@D@2@@std@@V?$allocator@V?$basic_string@DU?$char_traits@D@std@@V?$allocator@D@2@@std@@@2@@2@@std@@PAX@std@@@std@@@std@@QAE@XZ
_TEXT	SEGMENT
??1?$_Alloc_construct_ptr@V?$allocator@U?$_Tree_node@U?$pair@$$CBV?$basic_string@DU?$char_traits@D@std@@V?$allocator@D@2@@std@@V?$vector@V?$basic_string@DU?$char_traits@D@std@@V?$allocator@D@2@@std@@V?$allocator@V?$basic_string@DU?$char_traits@D@std@@V?$allocator@D@2@@std@@@2@@2@@std@@PAX@std@@@std@@@std@@QAE@XZ PROC ; std::_Alloc_construct_ptr<std::allocator<std::_Tree_node<std::pair<std::basic_string<char,std::char_traits<char>,std::allocator<char> > const ,std::vector<std::basic_string<char,std::char_traits<char>,std::allocator<char> >,std::allocator<std::basic_string<char,std::char_traits<char>,std::allocator<char> > > > >,void *> > >::~_Alloc_construct_ptr<std::allocator<std::_Tree_node<std::pair<std::basic_string<char,std::char_traits<char>,std::allocator<char> > const ,std::vector<std::basic_string<char,std::char_traits<char>,std::allocator<char> >,std::allocator<std::basic_string<char,std::char_traits<char>,std::allocator<char> > > > >,void *> > >, COMDAT
; _this$ = ecx

; 1168 :         if (_Ptr) {

  00000	8b 41 04	 mov	 eax, DWORD PTR [ecx+4]
  00003	85 c0		 test	 eax, eax
  00005	74 0b		 je	 SHORT $LN10@Alloc_cons

; 289  :         ::operator delete(_Ptr, _Bytes);

  00007	6a 34		 push	 52			; 00000034H
  00009	50		 push	 eax
  0000a	e8 00 00 00 00	 call	 ??3@YAXPAXI@Z		; operator delete
  0000f	83 c4 08	 add	 esp, 8
$LN10@Alloc_cons:

; 1169 :             _Al.deallocate(_Ptr, 1);
; 1170 :         }
; 1171 :     }

  00012	c3		 ret	 0
??1?$_Alloc_construct_ptr@V?$allocator@U?$_Tree_node@U?$pair@$$CBV?$basic_string@DU?$char_traits@D@std@@V?$allocator@D@2@@std@@V?$vector@V?$basic_string@DU?$char_traits@D@std@@V?$allocator@D@2@@std@@V?$allocator@V?$basic_string@DU?$char_traits@D@std@@V?$allocator@D@2@@std@@@2@@2@@std@@PAX@std@@@std@@@std@@QAE@XZ ENDP ; std::_Alloc_construct_ptr<std::allocator<std::_Tree_node<std::pair<std::basic_string<char,std::char_traits<char>,std::allocator<char> > const ,std::vector<std::basic_string<char,std::char_traits<char>,std::allocator<char> >,std::allocator<std::basic_string<char,std::char_traits<char>,std::allocator<char> > > > >,void *> > >::~_Alloc_construct_ptr<std::allocator<std::_Tree_node<std::pair<std::basic_string<char,std::char_traits<char>,std::allocator<char> > const ,std::vector<std::basic_string<char,std::char_traits<char>,std::allocator<char> >,std::allocator<std::basic_string<char,std::char_traits<char>,std::allocator<char> > > > >,void *> > >
_TEXT	ENDS
; Function compile flags: /Ogtp
; File D:\Program Files\Microsoft Visual Studio\2022\Community\VC\Tools\MSVC\14.43.34808\include\vector
; File D:\Program Files\Microsoft Visual Studio\2022\Community\VC\Tools\MSVC\14.43.34808\include\xmemory
; File D:\Program Files\Microsoft Visual Studio\2022\Community\VC\Tools\MSVC\14.43.34808\include\vector
; File D:\Program Files\Microsoft Visual Studio\2022\Community\VC\Tools\MSVC\14.43.34808\include\xmemory
; File D:\Program Files\Microsoft Visual Studio\2022\Community\VC\Tools\MSVC\14.43.34808\include\vector
; File D:\Program Files\Microsoft Visual Studio\2022\Community\VC\Tools\MSVC\14.43.34808\include\xmemory
; File D:\Program Files\Microsoft Visual Studio\2022\Community\VC\Tools\MSVC\14.43.34808\include\vector
; File D:\Program Files\Microsoft Visual Studio\2022\Community\VC\Tools\MSVC\14.43.34808\include\xmemory
; File D:\Program Files\Microsoft Visual Studio\2022\Community\VC\Tools\MSVC\14.43.34808\include\vector
; File D:\Program Files\Microsoft Visual Studio\2022\Community\VC\Tools\MSVC\14.43.34808\include\xmemory
; File D:\Program Files\Microsoft Visual Studio\2022\Community\VC\Tools\MSVC\14.43.34808\include\vector
; File D:\Program Files\Microsoft Visual Studio\2022\Community\VC\Tools\MSVC\14.43.34808\include\xmemory
; File D:\Program Files\Microsoft Visual Studio\2022\Community\VC\Tools\MSVC\14.43.34808\include\vector
; File D:\Program Files\Microsoft Visual Studio\2022\Community\VC\Tools\MSVC\14.43.34808\include\xmemory
; File D:\Program Files\Microsoft Visual Studio\2022\Community\VC\Tools\MSVC\14.43.34808\include\vector
; File D:\Program Files\Microsoft Visual Studio\2022\Community\VC\Tools\MSVC\14.43.34808\include\xmemory
; File D:\Program Files\Microsoft Visual Studio\2022\Community\VC\Tools\MSVC\14.43.34808\include\vector
;	COMDAT ??$_Emplace_reallocate@ABV?$basic_string@DU?$char_traits@D@std@@V?$allocator@D@2@@std@@@?$vector@V?$basic_string@DU?$char_traits@D@std@@V?$allocator@D@2@@std@@V?$allocator@V?$basic_string@DU?$char_traits@D@std@@V?$allocator@D@2@@std@@@2@@std@@AAEPAV?$basic_string@DU?$char_traits@D@std@@V?$allocator@D@2@@1@QAV21@ABV21@@Z
_TEXT	SEGMENT
__Guard$ = -48						; size = 20
tv517 = -28						; size = 4
__Oldsize$1$ = -24					; size = 4
__Whereoff$1$ = -20					; size = 4
$T2 = -20						; size = 4
tv518 = -16						; size = 4
__$EHRec$ = -12						; size = 12
__Whereptr$ = 8						; size = 4
_<_Val_0>$ = 12						; size = 4
??$_Emplace_reallocate@ABV?$basic_string@DU?$char_traits@D@std@@V?$allocator@D@2@@std@@@?$vector@V?$basic_string@DU?$char_traits@D@std@@V?$allocator@D@2@@std@@V?$allocator@V?$basic_string@DU?$char_traits@D@std@@V?$allocator@D@2@@std@@@2@@std@@AAEPAV?$basic_string@DU?$char_traits@D@std@@V?$allocator@D@2@@1@QAV21@ABV21@@Z PROC ; std::vector<std::basic_string<char,std::char_traits<char>,std::allocator<char> >,std::allocator<std::basic_string<char,std::char_traits<char>,std::allocator<char> > > >::_Emplace_reallocate<std::basic_string<char,std::char_traits<char>,std::allocator<char> > const &>, COMDAT
; _this$ = ecx

; 860  :     _CONSTEXPR20 pointer _Emplace_reallocate(const pointer _Whereptr, _Valty&&... _Val) {

  00000	55		 push	 ebp
  00001	8b ec		 mov	 ebp, esp
  00003	6a ff		 push	 -1
  00005	68 00 00 00 00	 push	 __ehhandler$??$_Emplace_reallocate@ABV?$basic_string@DU?$char_traits@D@std@@V?$allocator@D@2@@std@@@?$vector@V?$basic_string@DU?$char_traits@D@std@@V?$allocator@D@2@@std@@V?$allocator@V?$basic_string@DU?$char_traits@D@std@@V?$allocator@D@2@@std@@@2@@std@@AAEPAV?$basic_string@DU?$char_traits@D@std@@V?$allocator@D@2@@1@QAV21@ABV21@@Z
  0000a	64 a1 00 00 00
	00		 mov	 eax, DWORD PTR fs:0
  00010	50		 push	 eax
  00011	83 ec 24	 sub	 esp, 36			; 00000024H
  00014	53		 push	 ebx
  00015	56		 push	 esi
  00016	57		 push	 edi
  00017	a1 00 00 00 00	 mov	 eax, DWORD PTR ___security_cookie
  0001c	33 c5		 xor	 eax, ebp
  0001e	50		 push	 eax
  0001f	8d 45 f4	 lea	 eax, DWORD PTR __$EHRec$[ebp]
  00022	64 a3 00 00 00
	00		 mov	 DWORD PTR fs:0, eax
  00028	8b f1		 mov	 esi, ecx

; 861  :         // reallocate and insert by perfectly forwarding _Val at _Whereptr
; 862  :         _Alty& _Al        = _Getal();
; 863  :         auto& _My_data    = _Mypair._Myval2;
; 864  :         pointer& _Myfirst = _My_data._Myfirst;
; 865  :         pointer& _Mylast  = _My_data._Mylast;
; 866  : 
; 867  :         _STL_INTERNAL_CHECK(_Mylast == _My_data._Myend); // check that we have no unused capacity
; 868  : 
; 869  :         const auto _Whereoff = static_cast<size_type>(_Whereptr - _Myfirst);

  0002a	8b 1e		 mov	 ebx, DWORD PTR [esi]
  0002c	b8 ab aa aa 2a	 mov	 eax, 715827883		; 2aaaaaabH
  00031	8b 55 08	 mov	 edx, DWORD PTR __Whereptr$[ebp]

; 870  :         const auto _Oldsize  = static_cast<size_type>(_Mylast - _Myfirst);

  00034	8b 4e 04	 mov	 ecx, DWORD PTR [esi+4]
  00037	2b d3		 sub	 edx, ebx
  00039	f7 ea		 imul	 edx
  0003b	2b cb		 sub	 ecx, ebx
  0003d	c1 fa 02	 sar	 edx, 2
  00040	8b c2		 mov	 eax, edx
  00042	c1 e8 1f	 shr	 eax, 31			; 0000001fH
  00045	03 c2		 add	 eax, edx
  00047	89 45 ec	 mov	 DWORD PTR __Whereoff$1$[ebp], eax
  0004a	b8 ab aa aa 2a	 mov	 eax, 715827883		; 2aaaaaabH
  0004f	f7 e9		 imul	 ecx
  00051	c1 fa 02	 sar	 edx, 2
  00054	8b c2		 mov	 eax, edx
  00056	c1 e8 1f	 shr	 eax, 31			; 0000001fH
  00059	03 c2		 add	 eax, edx
  0005b	89 45 e8	 mov	 DWORD PTR __Oldsize$1$[ebp], eax

; 871  : 
; 872  :         if (_Oldsize == max_size()) {

  0005e	3d aa aa aa 0a	 cmp	 eax, 178956970		; 0aaaaaaaH
  00063	0f 84 6a 01 00
	00		 je	 $LN85@Emplace_re

; 1909 :         return static_cast<size_type>(_My_data._Myend - _My_data._Myfirst);

  00069	8b 4e 08	 mov	 ecx, DWORD PTR [esi+8]

; 874  :         }
; 875  : 
; 876  :         const size_type _Newsize = _Oldsize + 1;

  0006c	8d 78 01	 lea	 edi, DWORD PTR [eax+1]

; 1909 :         return static_cast<size_type>(_My_data._Myend - _My_data._Myfirst);

  0006f	2b cb		 sub	 ecx, ebx
  00071	b8 ab aa aa 2a	 mov	 eax, 715827883		; 2aaaaaabH
  00076	f7 e9		 imul	 ecx

; 1996 :         if (_Oldcapacity > _Max - _Oldcapacity / 2) {

  00078	b8 aa aa aa 0a	 mov	 eax, 178956970		; 0aaaaaaaH

; 1909 :         return static_cast<size_type>(_My_data._Myend - _My_data._Myfirst);

  0007d	c1 fa 02	 sar	 edx, 2
  00080	8b ca		 mov	 ecx, edx
  00082	c1 e9 1f	 shr	 ecx, 31			; 0000001fH
  00085	03 ca		 add	 ecx, edx

; 1996 :         if (_Oldcapacity > _Max - _Oldcapacity / 2) {

  00087	8b d1		 mov	 edx, ecx
  00089	d1 ea		 shr	 edx, 1
  0008b	2b c2		 sub	 eax, edx
  0008d	3b c8		 cmp	 ecx, eax
  0008f	76 19		 jbe	 SHORT $LN8@Emplace_re

; 1997 :             return _Max; // geometric growth would overflow

  00091	b8 f0 ff ff ff	 mov	 eax, -16		; fffffff0H
  00096	c7 45 f0 f0 ff
	ff ff		 mov	 DWORD PTR tv518[ebp], -16 ; fffffff0H
; File D:\Program Files\Microsoft Visual Studio\2022\Community\VC\Tools\MSVC\14.43.34808\include\xmemory

; 253  :             return _Allocate_manually_vector_aligned<_Traits>(_Bytes);

  0009d	50		 push	 eax
; File D:\Program Files\Microsoft Visual Studio\2022\Community\VC\Tools\MSVC\14.43.34808\include\vector

; 1997 :             return _Max; // geometric growth would overflow

  0009e	bb aa aa aa 0a	 mov	 ebx, 178956970		; 0aaaaaaaH
; File D:\Program Files\Microsoft Visual Studio\2022\Community\VC\Tools\MSVC\14.43.34808\include\xmemory

; 253  :             return _Allocate_manually_vector_aligned<_Traits>(_Bytes);

  000a3	e8 00 00 00 00	 call	 ??$_Allocate_manually_vector_aligned@U_Default_allocate_traits@std@@@std@@YAPAXI@Z ; std::_Allocate_manually_vector_aligned<std::_Default_allocate_traits>
  000a8	eb 3c		 jmp	 SHORT $LN83@Emplace_re
$LN8@Emplace_re:
; File D:\Program Files\Microsoft Visual Studio\2022\Community\VC\Tools\MSVC\14.43.34808\include\vector

; 2000 :         const size_type _Geometric = _Oldcapacity + _Oldcapacity / 2;

  000aa	8d 04 0a	 lea	 eax, DWORD PTR [edx+ecx]
; File D:\Program Files\Microsoft Visual Studio\2022\Community\VC\Tools\MSVC\14.43.34808\include\xmemory

; 117  :         if (_Count > _Max_possible) {

  000ad	8b df		 mov	 ebx, edi
  000af	3b c7		 cmp	 eax, edi
  000b1	0f 43 d8	 cmovae	 ebx, eax
  000b4	81 fb aa aa aa
	0a		 cmp	 ebx, 178956970		; 0aaaaaaaH
  000ba	0f 87 18 01 00
	00		 ja	 $LN86@Emplace_re

; 119  :         }
; 120  :     }
; 121  : 
; 122  :     return _Count * _Ty_size;

  000c0	8d 04 5b	 lea	 eax, DWORD PTR [ebx+ebx*2]
  000c3	c1 e0 03	 shl	 eax, 3
  000c6	89 45 f0	 mov	 DWORD PTR tv518[ebp], eax

; 227  :     if (_Bytes == 0) {

  000c9	85 c0		 test	 eax, eax
  000cb	75 04		 jne	 SHORT $LN23@Emplace_re

; 228  :         return nullptr;

  000cd	33 ff		 xor	 edi, edi
  000cf	eb 1a		 jmp	 SHORT $LN22@Emplace_re
$LN23@Emplace_re:

; 229  :     }
; 230  : 
; 231  : #if _HAS_CXX20 // TRANSITION, GH-1532
; 232  :     if (_STD is_constant_evaluated()) {
; 233  :         return _Traits::_Allocate(_Bytes);
; 234  :     }
; 235  : #endif // _HAS_CXX20
; 236  : 
; 237  : #ifdef __cpp_aligned_new
; 238  :     if constexpr (_Align > __STDCPP_DEFAULT_NEW_ALIGNMENT__) {
; 239  :         size_t _Passed_align = _Align;
; 240  : #if defined(_M_IX86) || defined(_M_X64)
; 241  :         if (_Bytes >= _Big_allocation_threshold) {
; 242  :             // boost the alignment of big allocations to help autovectorization
; 243  :             _Passed_align = (_STD max)(_Align, _Big_allocation_alignment);
; 244  :         }
; 245  : #endif // defined(_M_IX86) || defined(_M_X64)
; 246  :         return _Traits::_Allocate_aligned(_Bytes, _Passed_align);
; 247  :     } else
; 248  : #endif // defined(__cpp_aligned_new)
; 249  :     {
; 250  : #if defined(_M_IX86) || defined(_M_X64)
; 251  :         if (_Bytes >= _Big_allocation_threshold) {

  000d1	3d 00 10 00 00	 cmp	 eax, 4096		; 00001000H
  000d6	72 08		 jb	 SHORT $LN24@Emplace_re

; 253  :             return _Allocate_manually_vector_aligned<_Traits>(_Bytes);

  000d8	50		 push	 eax
  000d9	e8 00 00 00 00	 call	 ??$_Allocate_manually_vector_aligned@U_Default_allocate_traits@std@@@std@@YAPAXI@Z ; std::_Allocate_manually_vector_aligned<std::_Default_allocate_traits>
  000de	eb 06		 jmp	 SHORT $LN83@Emplace_re
$LN24@Emplace_re:

; 136  :         return ::operator new(_Bytes);

  000e0	50		 push	 eax
  000e1	e8 00 00 00 00	 call	 ??2@YAPAXI@Z		; operator new
$LN83@Emplace_re:
; File D:\Program Files\Microsoft Visual Studio\2022\Community\VC\Tools\MSVC\14.43.34808\include\vector

; 880  :         const pointer _Constructed_last = _Newvec + _Whereoff + 1;

  000e6	8b f8		 mov	 edi, eax
  000e8	83 c4 04	 add	 esp, 4
$LN22@Emplace_re:
  000eb	8b 45 ec	 mov	 eax, DWORD PTR __Whereoff$1$[ebp]

; 882  :         _Reallocation_guard _Guard{_Al, _Newvec, _Newcapacity, _Constructed_last, _Constructed_last};

  000ee	89 75 d0	 mov	 DWORD PTR __Guard$[ebp], esi
  000f1	89 7d d4	 mov	 DWORD PTR __Guard$[ebp+4], edi
  000f4	89 5d d8	 mov	 DWORD PTR __Guard$[ebp+8], ebx
  000f7	8d 04 40	 lea	 eax, DWORD PTR [eax+eax*2]
  000fa	8d 0c c7	 lea	 ecx, DWORD PTR [edi+eax*8]
  000fd	8d 41 18	 lea	 eax, DWORD PTR [ecx+24]
  00100	89 4d e4	 mov	 DWORD PTR tv517[ebp], ecx
  00103	89 45 ec	 mov	 DWORD PTR $T2[ebp], eax
  00106	89 45 dc	 mov	 DWORD PTR __Guard$[ebp+12], eax
  00109	89 45 e0	 mov	 DWORD PTR __Guard$[ebp+16], eax
; File D:\Program Files\Microsoft Visual Studio\2022\Community\VC\Tools\MSVC\14.43.34808\include\xmemory

; 732  :         ::new (const_cast<void*>(static_cast<const volatile void*>(_Ptr))) _Objty(_STD forward<_Types>(_Args)...);

  0010c	ff 75 0c	 push	 DWORD PTR _<_Val_0>$[ebp]
; File D:\Program Files\Microsoft Visual Studio\2022\Community\VC\Tools\MSVC\14.43.34808\include\vector

; 882  :         _Reallocation_guard _Guard{_Al, _Newvec, _Newcapacity, _Constructed_last, _Constructed_last};

  0010f	c7 45 fc 00 00
	00 00		 mov	 DWORD PTR __$EHRec$[ebp+8], 0
; File D:\Program Files\Microsoft Visual Studio\2022\Community\VC\Tools\MSVC\14.43.34808\include\xmemory

; 732  :         ::new (const_cast<void*>(static_cast<const volatile void*>(_Ptr))) _Objty(_STD forward<_Types>(_Args)...);

  00116	e8 00 00 00 00	 call	 ??0?$basic_string@DU?$char_traits@D@std@@V?$allocator@D@2@@std@@QAE@ABV01@@Z ; std::basic_string<char,std::char_traits<char>,std::allocator<char> >::basic_string<char,std::char_traits<char>,std::allocator<char> >
; File D:\Program Files\Microsoft Visual Studio\2022\Community\VC\Tools\MSVC\14.43.34808\include\vector

; 888  :         if (_Whereptr == _Mylast) { // at back, provide strong guarantee

  0011b	8b 56 04	 mov	 edx, DWORD PTR [esi+4]
  0011e	8b 5d 08	 mov	 ebx, DWORD PTR __Whereptr$[ebp]
  00121	8b 0e		 mov	 ecx, DWORD PTR [esi]
  00123	3b da		 cmp	 ebx, edx
  00125	75 04		 jne	 SHORT $LN3@Emplace_re

; 889  :             if constexpr (is_nothrow_move_constructible_v<_Ty> || !is_copy_constructible_v<_Ty>) {
; 890  :                 _STD _Uninitialized_move(_Myfirst, _Mylast, _Newvec, _Al);

  00127	8b c7		 mov	 eax, edi

; 891  :             } else {
; 892  :                 _STD _Uninitialized_copy(_Myfirst, _Mylast, _Newvec, _Al);
; 893  :             }
; 894  :         } else { // provide basic guarantee

  00129	eb 14		 jmp	 SHORT $LN4@Emplace_re
$LN3@Emplace_re:

; 895  :             _STD _Uninitialized_move(_Myfirst, _Whereptr, _Newvec, _Al);

  0012b	56		 push	 esi
  0012c	57		 push	 edi
  0012d	53		 push	 ebx
  0012e	51		 push	 ecx
  0012f	e8 00 00 00 00	 call	 ??$_Uninitialized_move@PAV?$basic_string@DU?$char_traits@D@std@@V?$allocator@D@2@@std@@V?$allocator@V?$basic_string@DU?$char_traits@D@std@@V?$allocator@D@2@@std@@@2@@std@@YAPAV?$basic_string@DU?$char_traits@D@std@@V?$allocator@D@2@@0@QAV10@0PAV10@AAV?$allocator@V?$basic_string@DU?$char_traits@D@std@@V?$allocator@D@2@@std@@@0@@Z ; std::_Uninitialized_move<std::basic_string<char,std::char_traits<char>,std::allocator<char> > *,std::allocator<std::basic_string<char,std::char_traits<char>,std::allocator<char> > > >

; 896  :             _Constructed_first = _Newvec;
; 897  :             _STD _Uninitialized_move(_Whereptr, _Mylast, _Newvec + _Whereoff + 1, _Al);

  00134	8b 56 04	 mov	 edx, DWORD PTR [esi+4]
  00137	83 c4 10	 add	 esp, 16			; 00000010H
  0013a	8b 45 ec	 mov	 eax, DWORD PTR $T2[ebp]
  0013d	8b cb		 mov	 ecx, ebx
$LN4@Emplace_re:

; 898  :         }
; 899  : 
; 900  :         _Guard._New_begin = nullptr;

  0013f	56		 push	 esi
  00140	50		 push	 eax
  00141	52		 push	 edx
  00142	51		 push	 ecx
  00143	e8 00 00 00 00	 call	 ??$_Uninitialized_move@PAV?$basic_string@DU?$char_traits@D@std@@V?$allocator@D@2@@std@@V?$allocator@V?$basic_string@DU?$char_traits@D@std@@V?$allocator@D@2@@std@@@2@@std@@YAPAV?$basic_string@DU?$char_traits@D@std@@V?$allocator@D@2@@0@QAV10@0PAV10@AAV?$allocator@V?$basic_string@DU?$char_traits@D@std@@V?$allocator@D@2@@std@@@0@@Z ; std::_Uninitialized_move<std::basic_string<char,std::char_traits<char>,std::allocator<char> > *,std::allocator<std::basic_string<char,std::char_traits<char>,std::allocator<char> > > >

; 2054 :         if (_Myfirst) { // destroy and deallocate old array

  00148	8b 0e		 mov	 ecx, DWORD PTR [esi]

; 898  :         }
; 899  : 
; 900  :         _Guard._New_begin = nullptr;

  0014a	83 c4 10	 add	 esp, 16			; 00000010H

; 2054 :         if (_Myfirst) { // destroy and deallocate old array

  0014d	85 c9		 test	 ecx, ecx
  0014f	74 4f		 je	 SHORT $LN41@Emplace_re

; 2055 :             _STD _Destroy_range(_Myfirst, _Mylast, _Al);

  00151	56		 push	 esi
  00152	ff 76 04	 push	 DWORD PTR [esi+4]
  00155	51		 push	 ecx
  00156	e8 00 00 00 00	 call	 ??$_Destroy_range@V?$allocator@V?$basic_string@DU?$char_traits@D@std@@V?$allocator@D@2@@std@@@std@@@std@@YAXPAV?$basic_string@DU?$char_traits@D@std@@V?$allocator@D@2@@0@QAV10@AAV?$allocator@V?$basic_string@DU?$char_traits@D@std@@V?$allocator@D@2@@std@@@0@@Z ; std::_Destroy_range<std::allocator<std::basic_string<char,std::char_traits<char>,std::allocator<char> > > >

; 2056 :             _ASAN_VECTOR_REMOVE;
; 2057 :             _Al.deallocate(_Myfirst, static_cast<size_type>(_Myend - _Myfirst));

  0015b	8b 4e 08	 mov	 ecx, DWORD PTR [esi+8]
  0015e	b8 ab aa aa 2a	 mov	 eax, 715827883		; 2aaaaaabH
  00163	8b 1e		 mov	 ebx, DWORD PTR [esi]
  00165	83 c4 0c	 add	 esp, 12			; 0000000cH
  00168	2b cb		 sub	 ecx, ebx
  0016a	f7 e9		 imul	 ecx
  0016c	c1 fa 02	 sar	 edx, 2
  0016f	8b c2		 mov	 eax, edx
  00171	c1 e8 1f	 shr	 eax, 31			; 0000001fH
  00174	03 c2		 add	 eax, edx
; File D:\Program Files\Microsoft Visual Studio\2022\Community\VC\Tools\MSVC\14.43.34808\include\xmemory

; 981  :         _STD _Deallocate<_New_alignof<_Ty>>(_Ptr, sizeof(_Ty) * _Count);

  00176	8d 0c 40	 lea	 ecx, DWORD PTR [eax+eax*2]
  00179	c1 e1 03	 shl	 ecx, 3

; 284  :         if (_Bytes >= _Big_allocation_threshold) {

  0017c	81 f9 00 10 00
	00		 cmp	 ecx, 4096		; 00001000H
  00182	72 12		 jb	 SHORT $LN52@Emplace_re

; 205  :     const uintptr_t _Ptr_container   = _Ptr_user[-1];

  00184	8b 53 fc	 mov	 edx, DWORD PTR [ebx-4]
  00187	83 c1 23	 add	 ecx, 35			; 00000023H

; 206  : 
; 207  :     // If the following asserts, it likely means that we are performing
; 208  :     // an aligned delete on memory coming from an unaligned allocation.
; 209  :     _STL_ASSERT(_Ptr_user[-2] == _Big_allocation_sentinel, "invalid argument");
; 210  : 
; 211  :     // Extra paranoia on aligned allocation/deallocation; ensure _Ptr_container is
; 212  :     // in range [_Min_back_shift, _Non_user_size]
; 213  : #ifdef _DEBUG
; 214  :     constexpr uintptr_t _Min_back_shift = 2 * sizeof(void*);
; 215  : #else // ^^^ defined(_DEBUG) / !defined(_DEBUG) vvv
; 216  :     constexpr uintptr_t _Min_back_shift = sizeof(void*);
; 217  : #endif // ^^^ !defined(_DEBUG) ^^^
; 218  :     const uintptr_t _Back_shift = reinterpret_cast<uintptr_t>(_Ptr) - _Ptr_container;

  0018a	2b da		 sub	 ebx, edx

; 219  :     _STL_VERIFY(_Back_shift >= _Min_back_shift && _Back_shift <= _Non_user_size, "invalid argument");

  0018c	8d 43 fc	 lea	 eax, DWORD PTR [ebx-4]
  0018f	83 f8 1f	 cmp	 eax, 31			; 0000001fH
  00192	77 3a		 ja	 SHORT $LN49@Emplace_re

; 220  :     _Ptr = reinterpret_cast<void*>(_Ptr_container);

  00194	8b da		 mov	 ebx, edx
$LN52@Emplace_re:

; 289  :         ::operator delete(_Ptr, _Bytes);

  00196	51		 push	 ecx
  00197	53		 push	 ebx
  00198	e8 00 00 00 00	 call	 ??3@YAXPAXI@Z		; operator delete
  0019d	83 c4 08	 add	 esp, 8
$LN41@Emplace_re:
; File D:\Program Files\Microsoft Visual Studio\2022\Community\VC\Tools\MSVC\14.43.34808\include\vector

; 2061 :         _Mylast  = _Newvec + _Newsize;

  001a0	8b 45 e8	 mov	 eax, DWORD PTR __Oldsize$1$[ebp]
  001a3	40		 inc	 eax
  001a4	89 3e		 mov	 DWORD PTR [esi], edi
  001a6	8d 0c 40	 lea	 ecx, DWORD PTR [eax+eax*2]

; 901  :         _Change_array(_Newvec, _Newsize, _Newcapacity);
; 902  :         return _Newvec + _Whereoff;

  001a9	8b 45 e4	 mov	 eax, DWORD PTR tv517[ebp]

; 2061 :         _Mylast  = _Newvec + _Newsize;

  001ac	8d 0c cf	 lea	 ecx, DWORD PTR [edi+ecx*8]
  001af	89 4e 04	 mov	 DWORD PTR [esi+4], ecx

; 2062 :         _Myend   = _Newvec + _Newcapacity;

  001b2	8b 4d f0	 mov	 ecx, DWORD PTR tv518[ebp]
  001b5	03 cf		 add	 ecx, edi
  001b7	89 4e 08	 mov	 DWORD PTR [esi+8], ecx

; 903  :     }

  001ba	8b 4d f4	 mov	 ecx, DWORD PTR __$EHRec$[ebp]
  001bd	64 89 0d 00 00
	00 00		 mov	 DWORD PTR fs:0, ecx
  001c4	59		 pop	 ecx
  001c5	5f		 pop	 edi
  001c6	5e		 pop	 esi
  001c7	5b		 pop	 ebx
  001c8	8b e5		 mov	 esp, ebp
  001ca	5d		 pop	 ebp
  001cb	c2 08 00	 ret	 8
$LN49@Emplace_re:
; File D:\Program Files\Microsoft Visual Studio\2022\Community\VC\Tools\MSVC\14.43.34808\include\xmemory

; 219  :     _STL_VERIFY(_Back_shift >= _Min_back_shift && _Back_shift <= _Non_user_size, "invalid argument");

  001ce	e8 00 00 00 00	 call	 __invalid_parameter_noinfo_noreturn
$LN85@Emplace_re:
; File D:\Program Files\Microsoft Visual Studio\2022\Community\VC\Tools\MSVC\14.43.34808\include\vector

; 873  :             _Xlength();

  001d3	e8 00 00 00 00	 call	 ?_Xlength@?$vector@V?$basic_string@DU?$char_traits@D@std@@V?$allocator@D@2@@std@@V?$allocator@V?$basic_string@DU?$char_traits@D@std@@V?$allocator@D@2@@std@@@2@@std@@CAXXZ ; std::vector<std::basic_string<char,std::char_traits<char>,std::allocator<char> >,std::allocator<std::basic_string<char,std::char_traits<char>,std::allocator<char> > > >::_Xlength
$LN86@Emplace_re:
; File D:\Program Files\Microsoft Visual Studio\2022\Community\VC\Tools\MSVC\14.43.34808\include\xmemory

; 118  :             _Throw_bad_array_new_length(); // multiply overflow

  001d8	e8 00 00 00 00	 call	 ?_Throw_bad_array_new_length@std@@YAXXZ ; std::_Throw_bad_array_new_length
$LN82@Emplace_re:
  001dd	cc		 int	 3
_TEXT	ENDS
;	COMDAT text$x
text$x	SEGMENT
__unwindfunclet$??$_Emplace_reallocate@ABV?$basic_string@DU?$char_traits@D@std@@V?$allocator@D@2@@std@@@?$vector@V?$basic_string@DU?$char_traits@D@std@@V?$allocator@D@2@@std@@V?$allocator@V?$basic_string@DU?$char_traits@D@std@@V?$allocator@D@2@@std@@@2@@std@@AAEPAV?$basic_string@DU?$char_traits@D@std@@V?$allocator@D@2@@1@QAV21@ABV21@@Z$0:
  00000	8d 4d d0	 lea	 ecx, DWORD PTR __Guard$[ebp]
  00003	e9 00 00 00 00	 jmp	 ??1_Reallocation_guard@?$vector@V?$basic_string@DU?$char_traits@D@std@@V?$allocator@D@2@@std@@V?$allocator@V?$basic_string@DU?$char_traits@D@std@@V?$allocator@D@2@@std@@@2@@std@@QAE@XZ ; std::vector<std::basic_string<char,std::char_traits<char>,std::allocator<char> >,std::allocator<std::basic_string<char,std::char_traits<char>,std::allocator<char> > > >::_Reallocation_guard::~_Reallocation_guard
  00008	cc		 int	 3
  00009	cc		 int	 3
  0000a	cc		 int	 3
  0000b	cc		 int	 3
  0000c	cc		 int	 3
__ehhandler$??$_Emplace_reallocate@ABV?$basic_string@DU?$char_traits@D@std@@V?$allocator@D@2@@std@@@?$vector@V?$basic_string@DU?$char_traits@D@std@@V?$allocator@D@2@@std@@V?$allocator@V?$basic_string@DU?$char_traits@D@std@@V?$allocator@D@2@@std@@@2@@std@@AAEPAV?$basic_string@DU?$char_traits@D@std@@V?$allocator@D@2@@1@QAV21@ABV21@@Z:
  0000d	90		 npad	 1
  0000e	90		 npad	 1
  0000f	8b 54 24 08	 mov	 edx, DWORD PTR [esp+8]
  00013	8d 42 0c	 lea	 eax, DWORD PTR [edx+12]
  00016	8b 4a cc	 mov	 ecx, DWORD PTR [edx-52]
  00019	33 c8		 xor	 ecx, eax
  0001b	e8 00 00 00 00	 call	 @__security_check_cookie@4
  00020	b8 00 00 00 00	 mov	 eax, OFFSET __ehfuncinfo$??$_Emplace_reallocate@ABV?$basic_string@DU?$char_traits@D@std@@V?$allocator@D@2@@std@@@?$vector@V?$basic_string@DU?$char_traits@D@std@@V?$allocator@D@2@@std@@V?$allocator@V?$basic_string@DU?$char_traits@D@std@@V?$allocator@D@2@@std@@@2@@std@@AAEPAV?$basic_string@DU?$char_traits@D@std@@V?$allocator@D@2@@1@QAV21@ABV21@@Z
  00025	e9 00 00 00 00	 jmp	 ___CxxFrameHandler3
text$x	ENDS
??$_Emplace_reallocate@ABV?$basic_string@DU?$char_traits@D@std@@V?$allocator@D@2@@std@@@?$vector@V?$basic_string@DU?$char_traits@D@std@@V?$allocator@D@2@@std@@V?$allocator@V?$basic_string@DU?$char_traits@D@std@@V?$allocator@D@2@@std@@@2@@std@@AAEPAV?$basic_string@DU?$char_traits@D@std@@V?$allocator@D@2@@1@QAV21@ABV21@@Z ENDP ; std::vector<std::basic_string<char,std::char_traits<char>,std::allocator<char> >,std::allocator<std::basic_string<char,std::char_traits<char>,std::allocator<char> > > >::_Emplace_reallocate<std::basic_string<char,std::char_traits<char>,std::allocator<char> > const &>
; Function compile flags: /Ogtp
; File D:\Program Files\Microsoft Visual Studio\2022\Community\VC\Tools\MSVC\14.43.34808\include\xmemory
;	COMDAT ??1?$_Tree_temp_node_alloc@V?$allocator@U?$_Tree_node@U?$pair@$$CBV?$basic_string@DU?$char_traits@D@std@@V?$allocator@D@2@@std@@V12@@std@@PAX@std@@@std@@@std@@QAE@XZ
_TEXT	SEGMENT
??1?$_Tree_temp_node_alloc@V?$allocator@U?$_Tree_node@U?$pair@$$CBV?$basic_string@DU?$char_traits@D@std@@V?$allocator@D@2@@std@@V12@@std@@PAX@std@@@std@@@std@@QAE@XZ PROC ; std::_Tree_temp_node_alloc<std::allocator<std::_Tree_node<std::pair<std::basic_string<char,std::char_traits<char>,std::allocator<char> > const ,std::basic_string<char,std::char_traits<char>,std::allocator<char> > >,void *> > >::~_Tree_temp_node_alloc<std::allocator<std::_Tree_node<std::pair<std::basic_string<char,std::char_traits<char>,std::allocator<char> > const ,std::basic_string<char,std::char_traits<char>,std::allocator<char> > >,void *> > >, COMDAT
; _this$ = ecx

; 1168 :         if (_Ptr) {

  00000	8b 41 04	 mov	 eax, DWORD PTR [ecx+4]
  00003	85 c0		 test	 eax, eax
  00005	74 0b		 je	 SHORT $LN13@Tree_temp_

; 289  :         ::operator delete(_Ptr, _Bytes);

  00007	6a 40		 push	 64			; 00000040H
  00009	50		 push	 eax
  0000a	e8 00 00 00 00	 call	 ??3@YAXPAXI@Z		; operator delete
  0000f	83 c4 08	 add	 esp, 8
$LN13@Tree_temp_:
  00012	c3		 ret	 0
??1?$_Tree_temp_node_alloc@V?$allocator@U?$_Tree_node@U?$pair@$$CBV?$basic_string@DU?$char_traits@D@std@@V?$allocator@D@2@@std@@V12@@std@@PAX@std@@@std@@@std@@QAE@XZ ENDP ; std::_Tree_temp_node_alloc<std::allocator<std::_Tree_node<std::pair<std::basic_string<char,std::char_traits<char>,std::allocator<char> > const ,std::basic_string<char,std::char_traits<char>,std::allocator<char> > >,void *> > >::~_Tree_temp_node_alloc<std::allocator<std::_Tree_node<std::pair<std::basic_string<char,std::char_traits<char>,std::allocator<char> > const ,std::basic_string<char,std::char_traits<char>,std::allocator<char> > >,void *> > >
_TEXT	ENDS
; Function compile flags: /Ogtp
; File D:\Program Files\Microsoft Visual Studio\2022\Community\VC\Tools\MSVC\14.43.34808\include\xmemory
;	COMDAT ??1?$_Alloc_construct_ptr@V?$allocator@U?$_Tree_node@U?$pair@$$CBV?$basic_string@DU?$char_traits@D@std@@V?$allocator@D@2@@std@@V12@@std@@PAX@std@@@std@@@std@@QAE@XZ
_TEXT	SEGMENT
??1?$_Alloc_construct_ptr@V?$allocator@U?$_Tree_node@U?$pair@$$CBV?$basic_string@DU?$char_traits@D@std@@V?$allocator@D@2@@std@@V12@@std@@PAX@std@@@std@@@std@@QAE@XZ PROC ; std::_Alloc_construct_ptr<std::allocator<std::_Tree_node<std::pair<std::basic_string<char,std::char_traits<char>,std::allocator<char> > const ,std::basic_string<char,std::char_traits<char>,std::allocator<char> > >,void *> > >::~_Alloc_construct_ptr<std::allocator<std::_Tree_node<std::pair<std::basic_string<char,std::char_traits<char>,std::allocator<char> > const ,std::basic_string<char,std::char_traits<char>,std::allocator<char> > >,void *> > >, COMDAT
; _this$ = ecx

; 1168 :         if (_Ptr) {

  00000	8b 41 04	 mov	 eax, DWORD PTR [ecx+4]
  00003	85 c0		 test	 eax, eax
  00005	74 0b		 je	 SHORT $LN10@Alloc_cons

; 289  :         ::operator delete(_Ptr, _Bytes);

  00007	6a 40		 push	 64			; 00000040H
  00009	50		 push	 eax
  0000a	e8 00 00 00 00	 call	 ??3@YAXPAXI@Z		; operator delete
  0000f	83 c4 08	 add	 esp, 8
$LN10@Alloc_cons:

; 1169 :             _Al.deallocate(_Ptr, 1);
; 1170 :         }
; 1171 :     }

  00012	c3		 ret	 0
??1?$_Alloc_construct_ptr@V?$allocator@U?$_Tree_node@U?$pair@$$CBV?$basic_string@DU?$char_traits@D@std@@V?$allocator@D@2@@std@@V12@@std@@PAX@std@@@std@@@std@@QAE@XZ ENDP ; std::_Alloc_construct_ptr<std::allocator<std::_Tree_node<std::pair<std::basic_string<char,std::char_traits<char>,std::allocator<char> > const ,std::basic_string<char,std::char_traits<char>,std::allocator<char> > >,void *> > >::~_Alloc_construct_ptr<std::allocator<std::_Tree_node<std::pair<std::basic_string<char,std::char_traits<char>,std::allocator<char> > const ,std::basic_string<char,std::char_traits<char>,std::allocator<char> > >,void *> > >
_TEXT	ENDS
; Function compile flags: /Ogtp
; File D:\Program Files\Microsoft Visual Studio\2022\Community\VC\Tools\MSVC\14.43.34808\include\xmemory
; File D:\Program Files\Microsoft Visual Studio\2022\Community\VC\Tools\MSVC\14.43.34808\include\xstring
; File D:\Program Files\Microsoft Visual Studio\2022\Community\VC\Tools\MSVC\14.43.34808\include\xmemory
; File D:\Program Files\Microsoft Visual Studio\2022\Community\VC\Tools\MSVC\14.43.34808\include\xstring
; File D:\Program Files\Microsoft Visual Studio\2022\Community\VC\Tools\MSVC\14.43.34808\include\xmemory
; File D:\Program Files\Microsoft Visual Studio\2022\Community\VC\Tools\MSVC\14.43.34808\include\xstring
; File D:\Program Files\Microsoft Visual Studio\2022\Community\VC\Tools\MSVC\14.43.34808\include\xmemory
;	COMDAT ??$_Destroy_range@V?$allocator@V?$basic_string@DU?$char_traits@D@std@@V?$allocator@D@2@@std@@@std@@@std@@YAXPAV?$basic_string@DU?$char_traits@D@std@@V?$allocator@D@2@@0@QAV10@AAV?$allocator@V?$basic_string@DU?$char_traits@D@std@@V?$allocator@D@2@@std@@@0@@Z
_TEXT	SEGMENT
__First$ = 8						; size = 4
__Last$ = 12						; size = 4
__Al$ = 16						; size = 4
??$_Destroy_range@V?$allocator@V?$basic_string@DU?$char_traits@D@std@@V?$allocator@D@2@@std@@@std@@@std@@YAXPAV?$basic_string@DU?$char_traits@D@std@@V?$allocator@D@2@@0@QAV10@AAV?$allocator@V?$basic_string@DU?$char_traits@D@std@@V?$allocator@D@2@@std@@@0@@Z PROC ; std::_Destroy_range<std::allocator<std::basic_string<char,std::char_traits<char>,std::allocator<char> > > >, COMDAT

; 1094 : _CONSTEXPR20 void _Destroy_range(_Alloc_ptr_t<_Alloc> _First, const _Alloc_ptr_t<_Alloc> _Last, _Alloc& _Al) noexcept {

  00000	55		 push	 ebp
  00001	8b ec		 mov	 ebp, esp
  00003	56		 push	 esi

; 1098 :         for (; _First != _Last; ++_First) {

  00004	8b 75 08	 mov	 esi, DWORD PTR __First$[ebp]
  00007	57		 push	 edi
  00008	8b 7d 0c	 mov	 edi, DWORD PTR __Last$[ebp]
  0000b	3b f7		 cmp	 esi, edi
  0000d	74 48		 je	 SHORT $LN55@Destroy_ra
  0000f	90		 npad	 1
$LL4@Destroy_ra:
; File D:\Program Files\Microsoft Visual Studio\2022\Community\VC\Tools\MSVC\14.43.34808\include\xstring

; 434  :         return _Myres > _Small_string_capacity;

  00010	8b 4e 14	 mov	 ecx, DWORD PTR [esi+20]
  00013	83 f9 0f	 cmp	 ecx, 15			; 0000000fH

; 3047 :         if (_My_data._Large_mode_engaged()) {

  00016	76 27		 jbe	 SHORT $LN33@Destroy_ra
; File D:\Program Files\Microsoft Visual Studio\2022\Community\VC\Tools\MSVC\14.43.34808\include\xmemory

; 981  :         _STD _Deallocate<_New_alignof<_Ty>>(_Ptr, sizeof(_Ty) * _Count);

  00018	8b 06		 mov	 eax, DWORD PTR [esi]
; File D:\Program Files\Microsoft Visual Studio\2022\Community\VC\Tools\MSVC\14.43.34808\include\xstring

; 828  :         _Al.deallocate(_Old_ptr, _Capacity + 1); // +1 for null terminator

  0001a	41		 inc	 ecx
; File D:\Program Files\Microsoft Visual Studio\2022\Community\VC\Tools\MSVC\14.43.34808\include\xmemory

; 284  :         if (_Bytes >= _Big_allocation_threshold) {

  0001b	81 f9 00 10 00
	00		 cmp	 ecx, 4096		; 00001000H
  00021	72 12		 jb	 SHORT $LN44@Destroy_ra

; 205  :     const uintptr_t _Ptr_container   = _Ptr_user[-1];

  00023	8b 50 fc	 mov	 edx, DWORD PTR [eax-4]
  00026	83 c1 23	 add	 ecx, 35			; 00000023H

; 206  : 
; 207  :     // If the following asserts, it likely means that we are performing
; 208  :     // an aligned delete on memory coming from an unaligned allocation.
; 209  :     _STL_ASSERT(_Ptr_user[-2] == _Big_allocation_sentinel, "invalid argument");
; 210  : 
; 211  :     // Extra paranoia on aligned allocation/deallocation; ensure _Ptr_container is
; 212  :     // in range [_Min_back_shift, _Non_user_size]
; 213  : #ifdef _DEBUG
; 214  :     constexpr uintptr_t _Min_back_shift = 2 * sizeof(void*);
; 215  : #else // ^^^ defined(_DEBUG) / !defined(_DEBUG) vvv
; 216  :     constexpr uintptr_t _Min_back_shift = sizeof(void*);
; 217  : #endif // ^^^ !defined(_DEBUG) ^^^
; 218  :     const uintptr_t _Back_shift = reinterpret_cast<uintptr_t>(_Ptr) - _Ptr_container;

  00029	2b c2		 sub	 eax, edx

; 219  :     _STL_VERIFY(_Back_shift >= _Min_back_shift && _Back_shift <= _Non_user_size, "invalid argument");

  0002b	83 c0 fc	 add	 eax, -4			; fffffffcH
  0002e	83 f8 1f	 cmp	 eax, 31			; 0000001fH
  00031	77 28		 ja	 SHORT $LN41@Destroy_ra

; 220  :     _Ptr = reinterpret_cast<void*>(_Ptr_container);

  00033	8b c2		 mov	 eax, edx
$LN44@Destroy_ra:

; 289  :         ::operator delete(_Ptr, _Bytes);

  00035	51		 push	 ecx
  00036	50		 push	 eax
  00037	e8 00 00 00 00	 call	 ??3@YAXPAXI@Z		; operator delete
  0003c	83 c4 08	 add	 esp, 8
$LN33@Destroy_ra:
; File D:\Program Files\Microsoft Visual Studio\2022\Community\VC\Tools\MSVC\14.43.34808\include\xstring

; 3054 :         _My_data._Mysize = 0;

  0003f	c7 46 10 00 00
	00 00		 mov	 DWORD PTR [esi+16], 0

; 3055 :         _My_data._Myres  = _Small_string_capacity;

  00046	c7 46 14 0f 00
	00 00		 mov	 DWORD PTR [esi+20], 15	; 0000000fH

; 3056 :         // the _Traits::assign is last so the codegen doesn't think the char write can alias this
; 3057 :         _Traits::assign(_My_data._Bx._Buf[0], _Elem());

  0004d	c6 06 00	 mov	 BYTE PTR [esi], 0
; File D:\Program Files\Microsoft Visual Studio\2022\Community\VC\Tools\MSVC\14.43.34808\include\xmemory

; 1098 :         for (; _First != _Last; ++_First) {

  00050	83 c6 18	 add	 esi, 24			; 00000018H
  00053	3b f7		 cmp	 esi, edi
  00055	75 b9		 jne	 SHORT $LL4@Destroy_ra
$LN55@Destroy_ra:
  00057	5f		 pop	 edi

; 1099 :             allocator_traits<_Alloc>::destroy(_Al, _STD _Unfancy(_First));
; 1100 :         }
; 1101 :     }
; 1102 : }

  00058	5e		 pop	 esi
  00059	5d		 pop	 ebp
  0005a	c3		 ret	 0
$LN41@Destroy_ra:

; 219  :     _STL_VERIFY(_Back_shift >= _Min_back_shift && _Back_shift <= _Non_user_size, "invalid argument");

  0005b	e8 00 00 00 00	 call	 __invalid_parameter_noinfo_noreturn
$LN62@Destroy_ra:
  00060	cc		 int	 3
??$_Destroy_range@V?$allocator@V?$basic_string@DU?$char_traits@D@std@@V?$allocator@D@2@@std@@@std@@@std@@YAXPAV?$basic_string@DU?$char_traits@D@std@@V?$allocator@D@2@@0@QAV10@AAV?$allocator@V?$basic_string@DU?$char_traits@D@std@@V?$allocator@D@2@@std@@@0@@Z ENDP ; std::_Destroy_range<std::allocator<std::basic_string<char,std::char_traits<char>,std::allocator<char> > > >
_TEXT	ENDS
; Function compile flags: /Ogtp
; File C:\Marty 5.5\Src-Client\Client\EterLib\Util.cpp
;	COMDAT ?__strcat1@@YAXPADH@Z
_TEXT	SEGMENT
_str$ = 8						; size = 4
_i$ = 12						; size = 4
_result$ = 12						; size = 2
?__strcat1@@YAXPADH@Z PROC				; __strcat1, COMDAT

; 317  : {

  00000	55		 push	 ebp
  00001	8b ec		 mov	 ebp, esp

; 318  : 	char result[2];
; 319  : 	result[0] = i;

  00003	8a 45 0c	 mov	 al, BYTE PTR _i$[ebp]
  00006	56		 push	 esi
  00007	88 45 0c	 mov	 BYTE PTR _result$[ebp], al

; 320  : 	result[1] = NULL;
; 321  : 	strcat(str,result);

  0000a	8d 45 0c	 lea	 eax, DWORD PTR _result$[ebp]
  0000d	57		 push	 edi
  0000e	c6 45 0d 00	 mov	 BYTE PTR _result$[ebp+1], 0
  00012	8b f0		 mov	 esi, eax
$LL5@strcat1:
  00014	8a 08		 mov	 cl, BYTE PTR [eax]
  00016	40		 inc	 eax
  00017	84 c9		 test	 cl, cl
  00019	75 f9		 jne	 SHORT $LL5@strcat1
  0001b	8b 7d 08	 mov	 edi, DWORD PTR _str$[ebp]
  0001e	2b c6		 sub	 eax, esi
  00020	4f		 dec	 edi
$LL6@strcat1:
  00021	8a 4f 01	 mov	 cl, BYTE PTR [edi+1]
  00024	47		 inc	 edi
  00025	84 c9		 test	 cl, cl
  00027	75 f8		 jne	 SHORT $LL6@strcat1
  00029	8b c8		 mov	 ecx, eax
  0002b	c1 e9 02	 shr	 ecx, 2
  0002e	f3 a5		 rep movsd
  00030	8b c8		 mov	 ecx, eax
  00032	83 e1 03	 and	 ecx, 3
  00035	f3 a4		 rep movsb
  00037	5f		 pop	 edi
  00038	5e		 pop	 esi

; 322  : }

  00039	5d		 pop	 ebp
  0003a	c3		 ret	 0
?__strcat1@@YAXPADH@Z ENDP				; __strcat1
_TEXT	ENDS
; Function compile flags: /Ogtp
; File C:\Marty 5.5\Src-Client\Client\EterLib\Util.cpp
;	COMDAT ?__base64_get@@YAHH@Z
_TEXT	SEGMENT
_c$ = 8							; size = 4
?__base64_get@@YAHH@Z PROC				; __base64_get, COMDAT

; 300  : {

  00000	55		 push	 ebp
  00001	8b ec		 mov	 ebp, esp
  00003	8b 4d 08	 mov	 ecx, DWORD PTR _c$[ebp]

; 301  : 	if( 'A' <= c && c <= 'Z' )

  00006	8d 41 bf	 lea	 eax, DWORD PTR [ecx-65]
  00009	83 f8 19	 cmp	 eax, 25			; 00000019H
  0000c	76 3b		 jbe	 SHORT $LN1@base64_get

; 302  : 		return c-'A';
; 303  : 	if( 'a' <= c && c <= 'z' )

  0000e	8d 41 9f	 lea	 eax, DWORD PTR [ecx-97]
  00011	83 f8 19	 cmp	 eax, 25			; 00000019H
  00014	77 05		 ja	 SHORT $LN3@base64_get

; 304  : 		return c - 'a' + 26;

  00016	8d 41 b9	 lea	 eax, DWORD PTR [ecx-71]

; 312  : 		return -1;
; 313  : 	return -2;	// non value;
; 314  : }

  00019	5d		 pop	 ebp
  0001a	c3		 ret	 0
$LN3@base64_get:

; 305  : 	if( '0' <= c && c <= '9' )

  0001b	8d 41 d0	 lea	 eax, DWORD PTR [ecx-48]
  0001e	83 f8 09	 cmp	 eax, 9
  00021	77 05		 ja	 SHORT $LN4@base64_get

; 306  : 		return c - '0' + 52;

  00023	8d 41 04	 lea	 eax, DWORD PTR [ecx+4]

; 312  : 		return -1;
; 313  : 	return -2;	// non value;
; 314  : }

  00026	5d		 pop	 ebp
  00027	c3		 ret	 0
$LN4@base64_get:

; 307  : 	if( c == '+' )

  00028	83 f9 2b	 cmp	 ecx, 43			; 0000002bH
  0002b	75 05		 jne	 SHORT $LN5@base64_get

; 308  : 		return 62;

  0002d	8d 41 13	 lea	 eax, DWORD PTR [ecx+19]

; 312  : 		return -1;
; 313  : 	return -2;	// non value;
; 314  : }

  00030	5d		 pop	 ebp
  00031	c3		 ret	 0
$LN5@base64_get:

; 309  : 	if( c == '/' )

  00032	83 f9 2f	 cmp	 ecx, 47			; 0000002fH
  00035	75 07		 jne	 SHORT $LN6@base64_get

; 310  : 		return 63;

  00037	b8 3f 00 00 00	 mov	 eax, 63			; 0000003fH

; 312  : 		return -1;
; 313  : 	return -2;	// non value;
; 314  : }

  0003c	5d		 pop	 ebp
  0003d	c3		 ret	 0
$LN6@base64_get:

; 311  : 	if( c == '=' )	// end of line

  0003e	33 c0		 xor	 eax, eax
  00040	83 f9 3d	 cmp	 ecx, 61			; 0000003dH
  00043	0f 94 c0	 sete	 al
  00046	83 c0 fe	 add	 eax, -2			; fffffffeH
$LN1@base64_get:

; 312  : 		return -1;
; 313  : 	return -2;	// non value;
; 314  : }

  00049	5d		 pop	 ebp
  0004a	c3		 ret	 0
?__base64_get@@YAHH@Z ENDP				; __base64_get
_TEXT	ENDS
; Function compile flags: /Ogtp
; File D:\Program Files\Microsoft Visual Studio\2022\Community\VC\Tools\MSVC\14.43.34808\include\xstring
; File D:\Program Files\Microsoft Visual Studio\2022\Community\VC\Tools\MSVC\14.43.34808\include\xmemory
; File D:\Program Files\Microsoft Visual Studio\2022\Community\VC\Tools\MSVC\14.43.34808\include\xstring
; File D:\Program Files\Microsoft Visual Studio\2022\Community\VC\Tools\MSVC\14.43.34808\include\xmemory
; File D:\Program Files\Microsoft Visual Studio\2022\Community\VC\Tools\MSVC\14.43.34808\include\xstring
;	COMDAT ??__Fgs_fontFace@@YAXXZ
text$yd	SEGMENT
??__Fgs_fontFace@@YAXXZ PROC				; `dynamic atexit destructor for 'gs_fontFace'', COMDAT

; 434  :         return _Myres > _Small_string_capacity;

  00000	8b 0d 14 00 00
	00		 mov	 ecx, DWORD PTR ?gs_fontFace@@3V?$basic_string@DU?$char_traits@D@std@@V?$allocator@D@2@@std@@A+20
  00006	83 f9 0f	 cmp	 ecx, 15			; 0000000fH

; 3047 :         if (_My_data._Large_mode_engaged()) {

  00009	76 2f		 jbe	 SHORT $LN23@dynamic
; File D:\Program Files\Microsoft Visual Studio\2022\Community\VC\Tools\MSVC\14.43.34808\include\xmemory

; 981  :         _STD _Deallocate<_New_alignof<_Ty>>(_Ptr, sizeof(_Ty) * _Count);

  0000b	8b 15 00 00 00
	00		 mov	 edx, DWORD PTR ?gs_fontFace@@3V?$basic_string@DU?$char_traits@D@std@@V?$allocator@D@2@@std@@A
; File D:\Program Files\Microsoft Visual Studio\2022\Community\VC\Tools\MSVC\14.43.34808\include\xstring

; 828  :         _Al.deallocate(_Old_ptr, _Capacity + 1); // +1 for null terminator

  00011	41		 inc	 ecx
; File D:\Program Files\Microsoft Visual Studio\2022\Community\VC\Tools\MSVC\14.43.34808\include\xmemory

; 981  :         _STD _Deallocate<_New_alignof<_Ty>>(_Ptr, sizeof(_Ty) * _Count);

  00012	8b c2		 mov	 eax, edx

; 284  :         if (_Bytes >= _Big_allocation_threshold) {

  00014	81 f9 00 10 00
	00		 cmp	 ecx, 4096		; 00001000H
  0001a	72 14		 jb	 SHORT $LN34@dynamic

; 205  :     const uintptr_t _Ptr_container   = _Ptr_user[-1];

  0001c	8b 50 fc	 mov	 edx, DWORD PTR [eax-4]
  0001f	83 c1 23	 add	 ecx, 35			; 00000023H
  00022	2b c2		 sub	 eax, edx

; 206  : 
; 207  :     // If the following asserts, it likely means that we are performing
; 208  :     // an aligned delete on memory coming from an unaligned allocation.
; 209  :     _STL_ASSERT(_Ptr_user[-2] == _Big_allocation_sentinel, "invalid argument");
; 210  : 
; 211  :     // Extra paranoia on aligned allocation/deallocation; ensure _Ptr_container is
; 212  :     // in range [_Min_back_shift, _Non_user_size]
; 213  : #ifdef _DEBUG
; 214  :     constexpr uintptr_t _Min_back_shift = 2 * sizeof(void*);
; 215  : #else // ^^^ defined(_DEBUG) / !defined(_DEBUG) vvv
; 216  :     constexpr uintptr_t _Min_back_shift = sizeof(void*);
; 217  : #endif // ^^^ !defined(_DEBUG) ^^^
; 218  :     const uintptr_t _Back_shift = reinterpret_cast<uintptr_t>(_Ptr) - _Ptr_container;
; 219  :     _STL_VERIFY(_Back_shift >= _Min_back_shift && _Back_shift <= _Non_user_size, "invalid argument");

  00024	83 c0 fc	 add	 eax, -4			; fffffffcH
  00027	83 f8 1f	 cmp	 eax, 31			; 0000001fH
  0002a	0f 87 00 00 00
	00		 ja	 __invalid_parameter_noinfo_noreturn
$LN34@dynamic:

; 289  :         ::operator delete(_Ptr, _Bytes);

  00030	51		 push	 ecx
  00031	52		 push	 edx
  00032	e8 00 00 00 00	 call	 ??3@YAXPAXI@Z		; operator delete
  00037	83 c4 08	 add	 esp, 8
$LN23@dynamic:
; File D:\Program Files\Microsoft Visual Studio\2022\Community\VC\Tools\MSVC\14.43.34808\include\xstring

; 3054 :         _My_data._Mysize = 0;

  0003a	c7 05 10 00 00
	00 00 00 00 00	 mov	 DWORD PTR ?gs_fontFace@@3V?$basic_string@DU?$char_traits@D@std@@V?$allocator@D@2@@std@@A+16, 0

; 3055 :         _My_data._Myres  = _Small_string_capacity;

  00044	c7 05 14 00 00
	00 0f 00 00 00	 mov	 DWORD PTR ?gs_fontFace@@3V?$basic_string@DU?$char_traits@D@std@@V?$allocator@D@2@@std@@A+20, 15 ; 0000000fH

; 3056 :         // the _Traits::assign is last so the codegen doesn't think the char write can alias this
; 3057 :         _Traits::assign(_My_data._Bx._Buf[0], _Elem());

  0004e	c6 05 00 00 00
	00 00		 mov	 BYTE PTR ?gs_fontFace@@3V?$basic_string@DU?$char_traits@D@std@@V?$allocator@D@2@@std@@A, 0
  00055	c3		 ret	 0
??__Fgs_fontFace@@YAXXZ ENDP				; `dynamic atexit destructor for 'gs_fontFace''
text$yd	ENDS
; Function compile flags: /Ogtp
; File C:\Marty 5.5\Src-Client\Client\EterLib\Util.cpp
;	COMDAT ??__Egs_fontFace@@YAXXZ
text$di	SEGMENT
??__Egs_fontFace@@YAXXZ PROC				; `dynamic initializer for 'gs_fontFace'', COMDAT

; 142  : static std::string	gs_fontFace="";

  00000	68 00 00 00 00	 push	 OFFSET ??__Fgs_fontFace@@YAXXZ ; `dynamic atexit destructor for 'gs_fontFace''
  00005	e8 00 00 00 00	 call	 _atexit
  0000a	59		 pop	 ecx
  0000b	c3		 ret	 0
??__Egs_fontFace@@YAXXZ ENDP				; `dynamic initializer for 'gs_fontFace''
text$di	ENDS
; Function compile flags: /Ogtp
; File D:\Program Files\Microsoft Visual Studio\2022\Community\VC\Tools\MSVC\14.43.34808\include\xtree
; File D:\Program Files\Microsoft Visual Studio\2022\Community\VC\Tools\MSVC\14.43.34808\include\type_traits
; File D:\Program Files\Microsoft Visual Studio\2022\Community\VC\Tools\MSVC\14.43.34808\include\xtree
; File D:\Program Files\Microsoft Visual Studio\2022\Community\VC\Tools\MSVC\14.43.34808\include\type_traits
; File D:\Program Files\Microsoft Visual Studio\2022\Community\VC\Tools\MSVC\14.43.34808\include\xtree
; File D:\Program Files\Microsoft Visual Studio\2022\Community\VC\Tools\MSVC\14.43.34808\include\type_traits
; File D:\Program Files\Microsoft Visual Studio\2022\Community\VC\Tools\MSVC\14.43.34808\include\xtree
; File D:\Program Files\Microsoft Visual Studio\2022\Community\VC\Tools\MSVC\14.43.34808\include\utility
; File D:\Program Files\Microsoft Visual Studio\2022\Community\VC\Tools\MSVC\14.43.34808\include\xtree
; File D:\Program Files\Microsoft Visual Studio\2022\Community\VC\Tools\MSVC\14.43.34808\include\xmemory
; File D:\Program Files\Microsoft Visual Studio\2022\Community\VC\Tools\MSVC\14.43.34808\include\xtree
; File D:\Program Files\Microsoft Visual Studio\2022\Community\VC\Tools\MSVC\14.43.34808\include\xmemory
; File D:\Program Files\Microsoft Visual Studio\2022\Community\VC\Tools\MSVC\14.43.34808\include\utility
; File D:\Program Files\Microsoft Visual Studio\2022\Community\VC\Tools\MSVC\14.43.34808\include\xtree
; File D:\Program Files\Microsoft Visual Studio\2022\Community\VC\Tools\MSVC\14.43.34808\include\utility
; File D:\Program Files\Microsoft Visual Studio\2022\Community\VC\Tools\MSVC\14.43.34808\include\xtree
; File D:\Program Files\Microsoft Visual Studio\2022\Community\VC\Tools\MSVC\14.43.34808\include\utility
; File D:\Program Files\Microsoft Visual Studio\2022\Community\VC\Tools\MSVC\14.43.34808\include\xtree
; File D:\Program Files\Microsoft Visual Studio\2022\Community\VC\Tools\MSVC\14.43.34808\include\utility
; File D:\Program Files\Microsoft Visual Studio\2022\Community\VC\Tools\MSVC\14.43.34808\include\vector
; File D:\Program Files\Microsoft Visual Studio\2022\Community\VC\Tools\MSVC\14.43.34808\include\xtree
; File D:\Program Files\Microsoft Visual Studio\2022\Community\VC\Tools\MSVC\14.43.34808\include\vector
; File D:\Program Files\Microsoft Visual Studio\2022\Community\VC\Tools\MSVC\14.43.34808\include\xtree
; File D:\Program Files\Microsoft Visual Studio\2022\Community\VC\Tools\MSVC\14.43.34808\include\vector
; File D:\Program Files\Microsoft Visual Studio\2022\Community\VC\Tools\MSVC\14.43.34808\include\xtree
; File D:\Program Files\Microsoft Visual Studio\2022\Community\VC\Tools\MSVC\14.43.34808\include\utility
; File D:\Program Files\Microsoft Visual Studio\2022\Community\VC\Tools\MSVC\14.43.34808\include\xtree
;	COMDAT ??$insert@$0A@$0A@@?$_Tree@V?$_Tmap_traits@V?$basic_string@DU?$char_traits@D@std@@V?$allocator@D@2@@std@@V?$vector@V?$basic_string@DU?$char_traits@D@std@@V?$allocator@D@2@@std@@V?$allocator@V?$basic_string@DU?$char_traits@D@std@@V?$allocator@D@2@@std@@@2@@2@U?$less@V?$basic_string@DU?$char_traits@D@std@@V?$allocator@D@2@@std@@@2@V?$allocator@U?$pair@$$CBV?$basic_string@DU?$char_traits@D@std@@V?$allocator@D@2@@std@@V?$vector@V?$basic_string@DU?$char_traits@D@std@@V?$allocator@D@2@@std@@V?$allocator@V?$basic_string@DU?$char_traits@D@std@@V?$allocator@D@2@@std@@@2@@2@@std@@@2@$0A@@std@@@std@@QAE?AU?$pair@V?$_Tree_iterator@V?$_Tree_val@U?$_Tree_simple_types@U?$pair@$$CBV?$basic_string@DU?$char_traits@D@std@@V?$allocator@D@2@@std@@V?$vector@V?$basic_string@DU?$char_traits@D@std@@V?$allocator@D@2@@std@@V?$allocator@V?$basic_string@DU?$char_traits@D@std@@V?$allocator@D@2@@std@@@2@@2@@std@@@std@@@std@@@std@@_N@1@$$QAU?$pair@$$CBV?$basic_string@DU?$char_traits@D@std@@V?$allocator@D@2@@std@@V?$vector@V?$basic_string@DU?$char_traits@D@std@@V?$allocator@D@2@@std@@V?$allocator@V?$basic_string@DU?$char_traits@D@std@@V?$allocator@D@2@@std@@@2@@2@@1@@Z
_TEXT	SEGMENT
$T4 = -32						; size = 8
__Myhead$1$ = -24					; size = 4
_this$1$ = -20						; size = 4
__Loc$1$ = -16						; size = 4
__$EHRec$ = -12						; size = 12
___$ReturnUdt$ = 8					; size = 4
__Val$ = 12						; size = 4
??$insert@$0A@$0A@@?$_Tree@V?$_Tmap_traits@V?$basic_string@DU?$char_traits@D@std@@V?$allocator@D@2@@std@@V?$vector@V?$basic_string@DU?$char_traits@D@std@@V?$allocator@D@2@@std@@V?$allocator@V?$basic_string@DU?$char_traits@D@std@@V?$allocator@D@2@@std@@@2@@2@U?$less@V?$basic_string@DU?$char_traits@D@std@@V?$allocator@D@2@@std@@@2@V?$allocator@U?$pair@$$CBV?$basic_string@DU?$char_traits@D@std@@V?$allocator@D@2@@std@@V?$vector@V?$basic_string@DU?$char_traits@D@std@@V?$allocator@D@2@@std@@V?$allocator@V?$basic_string@DU?$char_traits@D@std@@V?$allocator@D@2@@std@@@2@@2@@std@@@2@$0A@@std@@@std@@QAE?AU?$pair@V?$_Tree_iterator@V?$_Tree_val@U?$_Tree_simple_types@U?$pair@$$CBV?$basic_string@DU?$char_traits@D@std@@V?$allocator@D@2@@std@@V?$vector@V?$basic_string@DU?$char_traits@D@std@@V?$allocator@D@2@@std@@V?$allocator@V?$basic_string@DU?$char_traits@D@std@@V?$allocator@D@2@@std@@@2@@2@@std@@@std@@@std@@@std@@_N@1@$$QAU?$pair@$$CBV?$basic_string@DU?$char_traits@D@std@@V?$allocator@D@2@@std@@V?$vector@V?$basic_string@DU?$char_traits@D@std@@V?$allocator@D@2@@std@@V?$allocator@V?$basic_string@DU?$char_traits@D@std@@V?$allocator@D@2@@std@@@2@@2@@1@@Z PROC ; std::_Tree<std::_Tmap_traits<std::basic_string<char,std::char_traits<char>,std::allocator<char> >,std::vector<std::basic_string<char,std::char_traits<char>,std::allocator<char> >,std::allocator<std::basic_string<char,std::char_traits<char>,std::allocator<char> > > >,std::less<std::basic_string<char,std::char_traits<char>,std::allocator<char> > >,std::allocator<std::pair<std::basic_string<char,std::char_traits<char>,std::allocator<char> > const ,std::vector<std::basic_string<char,std::char_traits<char>,std::allocator<char> >,std::allocator<std::basic_string<char,std::char_traits<char>,std::allocator<char> > > > > >,0> >::insert<0,0>, COMDAT
; _this$ = ecx

; 1235 :     pair<iterator, bool> insert(value_type&& _Val) {

  00000	55		 push	 ebp
  00001	8b ec		 mov	 ebp, esp
  00003	6a ff		 push	 -1
  00005	68 00 00 00 00	 push	 __ehhandler$??$insert@$0A@$0A@@?$_Tree@V?$_Tmap_traits@V?$basic_string@DU?$char_traits@D@std@@V?$allocator@D@2@@std@@V?$vector@V?$basic_string@DU?$char_traits@D@std@@V?$allocator@D@2@@std@@V?$allocator@V?$basic_string@DU?$char_traits@D@std@@V?$allocator@D@2@@std@@@2@@2@U?$less@V?$basic_string@DU?$char_traits@D@std@@V?$allocator@D@2@@std@@@2@V?$allocator@U?$pair@$$CBV?$basic_string@DU?$char_traits@D@std@@V?$allocator@D@2@@std@@V?$vector@V?$basic_string@DU?$char_traits@D@std@@V?$allocator@D@2@@std@@V?$allocator@V?$basic_string@DU?$char_traits@D@std@@V?$allocator@D@2@@std@@@2@@2@@std@@@2@$0A@@std@@@std@@QAE?AU?$pair@V?$_Tree_iterator@V?$_Tree_val@U?$_Tree_simple_types@U?$pair@$$CBV?$basic_string@DU?$char_traits@D@std@@V?$allocator@D@2@@std@@V?$vector@V?$basic_string@DU?$char_traits@D@std@@V?$allocator@D@2@@std@@V?$allocator@V?$basic_string@DU?$char_traits@D@std@@V?$allocator@D@2@@std@@@2@@2@@std@@@std@@@std@@@std@@_N@1@$$QAU?$pair@$$CBV?$basic_string@DU?$char_traits@D@std@@V?$allocator@D@2@@std@@V?$vector@V?$basic_string@DU?$char_traits@D@std@@V?$allocator@D@2@@std@@V?$allocator@V?$basic_string@DU?$char_traits@D@std@@V?$allocator@D@2@@std@@@2@@2@@1@@Z
  0000a	64 a1 00 00 00
	00		 mov	 eax, DWORD PTR fs:0
  00010	50		 push	 eax
  00011	83 ec 14	 sub	 esp, 20			; 00000014H
  00014	53		 push	 ebx
  00015	56		 push	 esi
  00016	57		 push	 edi
  00017	a1 00 00 00 00	 mov	 eax, DWORD PTR ___security_cookie
  0001c	33 c5		 xor	 eax, ebp
  0001e	50		 push	 eax
  0001f	8d 45 f4	 lea	 eax, DWORD PTR __$EHRec$[ebp]
  00022	64 a3 00 00 00
	00		 mov	 DWORD PTR fs:0, eax
  00028	8b f1		 mov	 esi, ecx
  0002a	89 75 ec	 mov	 DWORD PTR _this$1$[ebp], esi

; 1620 :         _Tree_find_result<_Nodeptr> _Result{{_Scary->_Myhead->_Parent, _Tree_child::_Right}, _Scary->_Myhead};

  0002d	8b 0e		 mov	 ecx, DWORD PTR [esi]
  0002f	33 db		 xor	 ebx, ebx
  00031	89 4d e8	 mov	 DWORD PTR __Myhead$1$[ebp], ecx
  00034	8b f9		 mov	 edi, ecx
  00036	8b 41 04	 mov	 eax, DWORD PTR [ecx+4]
  00039	89 45 f0	 mov	 DWORD PTR __Loc$1$[ebp], eax

; 1621 :         _Nodeptr _Trynode = _Result._Location._Parent;
; 1622 :         while (!_Trynode->_Isnil) {

  0003c	38 58 0d	 cmp	 BYTE PTR [eax+13], bl
  0003f	75 30		 jne	 SHORT $LN9@insert
  00041	8b f0		 mov	 esi, eax
$LL8@insert:
; File D:\Program Files\Microsoft Visual Studio\2022\Community\VC\Tools\MSVC\14.43.34808\include\type_traits

; 2412 :         return _Left < _Right;

  00043	ff 75 0c	 push	 DWORD PTR __Val$[ebp]
; File D:\Program Files\Microsoft Visual Studio\2022\Community\VC\Tools\MSVC\14.43.34808\include\xtree

; 1624 :             if (_DEBUG_LT_PRED(_Getcomp(), _Traits::_Kfn(_Trynode->_Myval), _Keyval)) {

  00046	8d 46 10	 lea	 eax, DWORD PTR [esi+16]
  00049	89 75 f0	 mov	 DWORD PTR __Loc$1$[ebp], esi
; File D:\Program Files\Microsoft Visual Studio\2022\Community\VC\Tools\MSVC\14.43.34808\include\type_traits

; 2412 :         return _Left < _Right;

  0004c	50		 push	 eax
  0004d	e8 00 00 00 00	 call	 ??$?MDU?$char_traits@D@std@@V?$allocator@D@1@@std@@YA_NABV?$basic_string@DU?$char_traits@D@std@@V?$allocator@D@2@@0@0@Z ; std::operator<<char,std::char_traits<char>,std::allocator<char> >
  00052	83 c4 08	 add	 esp, 8
; File D:\Program Files\Microsoft Visual Studio\2022\Community\VC\Tools\MSVC\14.43.34808\include\xtree

; 1624 :             if (_DEBUG_LT_PRED(_Getcomp(), _Traits::_Kfn(_Trynode->_Myval), _Keyval)) {

  00055	84 c0		 test	 al, al
  00057	74 05		 je	 SHORT $LN10@insert

; 1625 :                 _Result._Location._Child = _Tree_child::_Right;
; 1626 :                 _Trynode                 = _Trynode->_Right;

  00059	8b 76 08	 mov	 esi, DWORD PTR [esi+8]

; 1627 :             } else {

  0005c	eb 04		 jmp	 SHORT $LN11@insert
$LN10@insert:

; 1628 :                 _Result._Location._Child = _Tree_child::_Left;
; 1629 :                 _Result._Bound           = _Trynode;

  0005e	8b fe		 mov	 edi, esi

; 1630 :                 _Trynode                 = _Trynode->_Left;

  00060	8b 36		 mov	 esi, DWORD PTR [esi]
$LN11@insert:

; 1621 :         _Nodeptr _Trynode = _Result._Location._Parent;
; 1622 :         while (!_Trynode->_Isnil) {

  00062	0f b6 d8	 movzx	 ebx, al
  00065	83 f3 01	 xor	 ebx, 1
  00068	80 7e 0d 00	 cmp	 BYTE PTR [esi+13], 0
  0006c	74 d5		 je	 SHORT $LL8@insert
  0006e	8b 75 ec	 mov	 esi, DWORD PTR _this$1$[ebp]
$LN9@insert:

; 1614 :         return !_Bound->_Isnil && !_DEBUG_LT_PRED(_Getcomp(), _Keyval, _Traits::_Kfn(_Bound->_Myval));

  00071	80 7f 0d 00	 cmp	 BYTE PTR [edi+13], 0
  00075	75 1a		 jne	 SHORT $LN4@insert
  00077	8d 47 10	 lea	 eax, DWORD PTR [edi+16]
; File D:\Program Files\Microsoft Visual Studio\2022\Community\VC\Tools\MSVC\14.43.34808\include\type_traits

; 2412 :         return _Left < _Right;

  0007a	50		 push	 eax
  0007b	ff 75 0c	 push	 DWORD PTR __Val$[ebp]
  0007e	e8 00 00 00 00	 call	 ??$?MDU?$char_traits@D@std@@V?$allocator@D@1@@std@@YA_NABV?$basic_string@DU?$char_traits@D@std@@V?$allocator@D@2@@0@0@Z ; std::operator<<char,std::char_traits<char>,std::allocator<char> >
  00083	83 c4 08	 add	 esp, 8
; File D:\Program Files\Microsoft Visual Studio\2022\Community\VC\Tools\MSVC\14.43.34808\include\xtree

; 1614 :         return !_Bound->_Isnil && !_DEBUG_LT_PRED(_Getcomp(), _Keyval, _Traits::_Kfn(_Bound->_Myval));

  00086	84 c0		 test	 al, al
  00088	75 07		 jne	 SHORT $LN4@insert
; File D:\Program Files\Microsoft Visual Studio\2022\Community\VC\Tools\MSVC\14.43.34808\include\utility

; 274  :         : first(_STD forward<_Other1>(_Val1)), second(_STD forward<_Other2>(_Val2)) {

  0008a	32 c9		 xor	 cl, cl
; File D:\Program Files\Microsoft Visual Studio\2022\Community\VC\Tools\MSVC\14.43.34808\include\xtree

; 1009 :                 return {_Loc._Bound, false};

  0008c	e9 8e 00 00 00	 jmp	 $LN177@insert
$LN4@insert:

; 1638 :         if (max_size() == _Get_scary()->_Mysize) {

  00091	81 7e 04 c4 4e
	ec 04		 cmp	 DWORD PTR [esi+4], 82595524 ; 04ec4ec4H
  00098	0f 84 9d 00 00
	00		 je	 $LN199@insert
; File D:\Program Files\Microsoft Visual Studio\2022\Community\VC\Tools\MSVC\14.43.34808\include\xmemory

; 1156 :     _CONSTEXPR20 explicit _Alloc_construct_ptr(_Alloc& _Al_) : _Al(_Al_), _Ptr(nullptr) {}

  0009e	89 75 e0	 mov	 DWORD PTR $T4[ebp], esi

; 136  :         return ::operator new(_Bytes);

  000a1	6a 34		 push	 52			; 00000034H
; File D:\Program Files\Microsoft Visual Studio\2022\Community\VC\Tools\MSVC\14.43.34808\include\xtree

; 798  :     explicit _Tree_temp_node_alloc(_Alnode& _Al_) : _Alloc_construct_ptr<_Alnode>(_Al_) {

  000a3	c7 45 fc 00 00
	00 00		 mov	 DWORD PTR __$EHRec$[ebp+8], 0
; File D:\Program Files\Microsoft Visual Studio\2022\Community\VC\Tools\MSVC\14.43.34808\include\xmemory

; 1163 :         _Ptr = nullptr; // if allocate throws, prevents double-free

  000aa	c7 45 e4 00 00
	00 00		 mov	 DWORD PTR $T4[ebp+4], 0

; 136  :         return ::operator new(_Bytes);

  000b1	e8 00 00 00 00	 call	 ??2@YAPAXI@Z		; operator new

; 256  :         return _Traits::_Allocate(_Bytes);

  000b6	8b f8		 mov	 edi, eax

; 136  :         return ::operator new(_Bytes);

  000b8	83 c4 04	 add	 esp, 4

; 1164 :         _Ptr = _Al.allocate(1);

  000bb	89 7d e4	 mov	 DWORD PTR $T4[ebp+4], edi
; File D:\Program Files\Microsoft Visual Studio\2022\Community\VC\Tools\MSVC\14.43.34808\include\utility

; 278  :     pair(pair&&)      = default;

  000be	ff 75 0c	 push	 DWORD PTR __Val$[ebp]
; File D:\Program Files\Microsoft Visual Studio\2022\Community\VC\Tools\MSVC\14.43.34808\include\xtree

; 820  :         _Alnode_traits::construct(this->_Al, _STD addressof(this->_Ptr->_Myval), _STD forward<_Valtys>(_Vals)...);

  000c1	8d 4f 10	 lea	 ecx, DWORD PTR [edi+16]
  000c4	c7 45 fc 01 00
	00 00		 mov	 DWORD PTR __$EHRec$[ebp+8], 1
; File D:\Program Files\Microsoft Visual Studio\2022\Community\VC\Tools\MSVC\14.43.34808\include\utility

; 278  :     pair(pair&&)      = default;

  000cb	e8 00 00 00 00	 call	 ??0?$basic_string@DU?$char_traits@D@std@@V?$allocator@D@2@@std@@QAE@ABV01@@Z ; std::basic_string<char,std::char_traits<char>,std::allocator<char> >::basic_string<char,std::char_traits<char>,std::allocator<char> >

; 773  :     _Ty _Old_val = static_cast<_Ty&&>(_Val);

  000d0	8b 45 0c	 mov	 eax, DWORD PTR __Val$[ebp]

; 774  :     _Val         = static_cast<_Other&&>(_New_val);

  000d3	8b 75 0c	 mov	 esi, DWORD PTR __Val$[ebp]
; File D:\Program Files\Microsoft Visual Studio\2022\Community\VC\Tools\MSVC\14.43.34808\include\xtree

; 1032 :         return {_Scary->_Insert_node(_Loc._Location, _Inserted), true};

  000d6	57		 push	 edi
  000d7	53		 push	 ebx
; File D:\Program Files\Microsoft Visual Studio\2022\Community\VC\Tools\MSVC\14.43.34808\include\utility

; 773  :     _Ty _Old_val = static_cast<_Ty&&>(_Val);

  000d8	8b 48 1c	 mov	 ecx, DWORD PTR [eax+28]
  000db	8b 50 20	 mov	 edx, DWORD PTR [eax+32]
; File D:\Program Files\Microsoft Visual Studio\2022\Community\VC\Tools\MSVC\14.43.34808\include\xtree

; 1032 :         return {_Scary->_Insert_node(_Loc._Location, _Inserted), true};

  000de	ff 75 f0	 push	 DWORD PTR __Loc$1$[ebp]
; File D:\Program Files\Microsoft Visual Studio\2022\Community\VC\Tools\MSVC\14.43.34808\include\utility

; 774  :     _Val         = static_cast<_Other&&>(_New_val);

  000e1	c7 40 20 00 00
	00 00		 mov	 DWORD PTR [eax+32], 0
  000e8	c7 40 1c 00 00
	00 00		 mov	 DWORD PTR [eax+28], 0

; 773  :     _Ty _Old_val = static_cast<_Ty&&>(_Val);

  000ef	8b 40 18	 mov	 eax, DWORD PTR [eax+24]

; 774  :     _Val         = static_cast<_Other&&>(_New_val);

  000f2	c7 46 18 00 00
	00 00		 mov	 DWORD PTR [esi+24], 0
; File D:\Program Files\Microsoft Visual Studio\2022\Community\VC\Tools\MSVC\14.43.34808\include\vector

; 403  :         : _Myfirst(_First), _Mylast(_Last), _Myend(_End) {}

  000f9	89 47 28	 mov	 DWORD PTR [edi+40], eax
; File D:\Program Files\Microsoft Visual Studio\2022\Community\VC\Tools\MSVC\14.43.34808\include\xtree

; 821  :         _Construct_in_place(this->_Ptr->_Left, _Myhead);

  000fc	8b 45 e8	 mov	 eax, DWORD PTR __Myhead$1$[ebp]
; File D:\Program Files\Microsoft Visual Studio\2022\Community\VC\Tools\MSVC\14.43.34808\include\vector

; 403  :         : _Myfirst(_First), _Mylast(_Last), _Myend(_End) {}

  000ff	89 4f 2c	 mov	 DWORD PTR [edi+44], ecx
; File D:\Program Files\Microsoft Visual Studio\2022\Community\VC\Tools\MSVC\14.43.34808\include\xtree

; 1032 :         return {_Scary->_Insert_node(_Loc._Location, _Inserted), true};

  00102	8b 4d ec	 mov	 ecx, DWORD PTR _this$1$[ebp]
; File D:\Program Files\Microsoft Visual Studio\2022\Community\VC\Tools\MSVC\14.43.34808\include\vector

; 403  :         : _Myfirst(_First), _Mylast(_Last), _Myend(_End) {}

  00105	89 57 30	 mov	 DWORD PTR [edi+48], edx
; File D:\Program Files\Microsoft Visual Studio\2022\Community\VC\Tools\MSVC\14.43.34808\include\xtree

; 821  :         _Construct_in_place(this->_Ptr->_Left, _Myhead);

  00108	89 07		 mov	 DWORD PTR [edi], eax

; 822  :         _Construct_in_place(this->_Ptr->_Parent, _Myhead);

  0010a	89 47 04	 mov	 DWORD PTR [edi+4], eax

; 823  :         _Construct_in_place(this->_Ptr->_Right, _Myhead);

  0010d	89 47 08	 mov	 DWORD PTR [edi+8], eax

; 824  :         this->_Ptr->_Color = _Red;

  00110	66 c7 47 0c 00
	00		 mov	 WORD PTR [edi+12], 0

; 1032 :         return {_Scary->_Insert_node(_Loc._Location, _Inserted), true};

  00116	e8 00 00 00 00	 call	 ?_Insert_node@?$_Tree_val@U?$_Tree_simple_types@U?$pair@$$CBV?$basic_string@DU?$char_traits@D@std@@V?$allocator@D@2@@std@@V?$vector@V?$basic_string@DU?$char_traits@D@std@@V?$allocator@D@2@@std@@V?$allocator@V?$basic_string@DU?$char_traits@D@std@@V?$allocator@D@2@@std@@@2@@2@@std@@@std@@@std@@QAEPAU?$_Tree_node@U?$pair@$$CBV?$basic_string@DU?$char_traits@D@std@@V?$allocator@D@2@@std@@V?$vector@V?$basic_string@DU?$char_traits@D@std@@V?$allocator@D@2@@std@@V?$allocator@V?$basic_string@DU?$char_traits@D@std@@V?$allocator@D@2@@std@@@2@@2@@std@@PAX@2@U?$_Tree_id@PAU?$_Tree_node@U?$pair@$$CBV?$basic_string@DU?$char_traits@D@std@@V?$allocator@D@2@@std@@V?$vector@V?$basic_string@DU?$char_traits@D@std@@V?$allocator@D@2@@std@@V?$allocator@V?$basic_string@DU?$char_traits@D@std@@V?$allocator@D@2@@std@@@2@@2@@std@@PAX@std@@@2@QAU32@@Z ; std::_Tree_val<std::_Tree_simple_types<std::pair<std::basic_string<char,std::char_traits<char>,std::allocator<char> > const ,std::vector<std::basic_string<char,std::char_traits<char>,std::allocator<char> >,std::allocator<std::basic_string<char,std::char_traits<char>,std::allocator<char> > > > > > >::_Insert_node
; File D:\Program Files\Microsoft Visual Studio\2022\Community\VC\Tools\MSVC\14.43.34808\include\utility

; 274  :         : first(_STD forward<_Other1>(_Val1)), second(_STD forward<_Other2>(_Val2)) {

  0011b	8b f8		 mov	 edi, eax
  0011d	b1 01		 mov	 cl, 1
$LN177@insert:
  0011f	8b 45 08	 mov	 eax, DWORD PTR ___$ReturnUdt$[ebp]
  00122	89 38		 mov	 DWORD PTR [eax], edi
  00124	88 48 04	 mov	 BYTE PTR [eax+4], cl
; File D:\Program Files\Microsoft Visual Studio\2022\Community\VC\Tools\MSVC\14.43.34808\include\xtree

; 1238 :     }

  00127	8b 4d f4	 mov	 ecx, DWORD PTR __$EHRec$[ebp]
  0012a	64 89 0d 00 00
	00 00		 mov	 DWORD PTR fs:0, ecx
  00131	59		 pop	 ecx
  00132	5f		 pop	 edi
  00133	5e		 pop	 esi
  00134	5b		 pop	 ebx
  00135	8b e5		 mov	 esp, ebp
  00137	5d		 pop	 ebp
  00138	c2 08 00	 ret	 8
$LN199@insert:

; 1639 :             _Throw_tree_length_error();

  0013b	e8 00 00 00 00	 call	 ?_Throw_tree_length_error@std@@YAXXZ ; std::_Throw_tree_length_error
$LN197@insert:
  00140	cc		 int	 3
_TEXT	ENDS
;	COMDAT text$x
text$x	SEGMENT
__unwindfunclet$??$insert@$0A@$0A@@?$_Tree@V?$_Tmap_traits@V?$basic_string@DU?$char_traits@D@std@@V?$allocator@D@2@@std@@V?$vector@V?$basic_string@DU?$char_traits@D@std@@V?$allocator@D@2@@std@@V?$allocator@V?$basic_string@DU?$char_traits@D@std@@V?$allocator@D@2@@std@@@2@@2@U?$less@V?$basic_string@DU?$char_traits@D@std@@V?$allocator@D@2@@std@@@2@V?$allocator@U?$pair@$$CBV?$basic_string@DU?$char_traits@D@std@@V?$allocator@D@2@@std@@V?$vector@V?$basic_string@DU?$char_traits@D@std@@V?$allocator@D@2@@std@@V?$allocator@V?$basic_string@DU?$char_traits@D@std@@V?$allocator@D@2@@std@@@2@@2@@std@@@2@$0A@@std@@@std@@QAE?AU?$pair@V?$_Tree_iterator@V?$_Tree_val@U?$_Tree_simple_types@U?$pair@$$CBV?$basic_string@DU?$char_traits@D@std@@V?$allocator@D@2@@std@@V?$vector@V?$basic_string@DU?$char_traits@D@std@@V?$allocator@D@2@@std@@V?$allocator@V?$basic_string@DU?$char_traits@D@std@@V?$allocator@D@2@@std@@@2@@2@@std@@@std@@@std@@@std@@_N@1@$$QAU?$pair@$$CBV?$basic_string@DU?$char_traits@D@std@@V?$allocator@D@2@@std@@V?$vector@V?$basic_string@DU?$char_traits@D@std@@V?$allocator@D@2@@std@@V?$allocator@V?$basic_string@DU?$char_traits@D@std@@V?$allocator@D@2@@std@@@2@@2@@1@@Z$2:
  00000	8d 4d e0	 lea	 ecx, DWORD PTR $T4[ebp]
  00003	e9 00 00 00 00	 jmp	 ??1?$_Alloc_construct_ptr@V?$allocator@U?$_Tree_node@U?$pair@$$CBV?$basic_string@DU?$char_traits@D@std@@V?$allocator@D@2@@std@@V?$vector@V?$basic_string@DU?$char_traits@D@std@@V?$allocator@D@2@@std@@V?$allocator@V?$basic_string@DU?$char_traits@D@std@@V?$allocator@D@2@@std@@@2@@2@@std@@PAX@std@@@std@@@std@@QAE@XZ ; std::_Alloc_construct_ptr<std::allocator<std::_Tree_node<std::pair<std::basic_string<char,std::char_traits<char>,std::allocator<char> > const ,std::vector<std::basic_string<char,std::char_traits<char>,std::allocator<char> >,std::allocator<std::basic_string<char,std::char_traits<char>,std::allocator<char> > > > >,void *> > >::~_Alloc_construct_ptr<std::allocator<std::_Tree_node<std::pair<std::basic_string<char,std::char_traits<char>,std::allocator<char> > const ,std::vector<std::basic_string<char,std::char_traits<char>,std::allocator<char> >,std::allocator<std::basic_string<char,std::char_traits<char>,std::allocator<char> > > > >,void *> > >
__unwindfunclet$??$insert@$0A@$0A@@?$_Tree@V?$_Tmap_traits@V?$basic_string@DU?$char_traits@D@std@@V?$allocator@D@2@@std@@V?$vector@V?$basic_string@DU?$char_traits@D@std@@V?$allocator@D@2@@std@@V?$allocator@V?$basic_string@DU?$char_traits@D@std@@V?$allocator@D@2@@std@@@2@@2@U?$less@V?$basic_string@DU?$char_traits@D@std@@V?$allocator@D@2@@std@@@2@V?$allocator@U?$pair@$$CBV?$basic_string@DU?$char_traits@D@std@@V?$allocator@D@2@@std@@V?$vector@V?$basic_string@DU?$char_traits@D@std@@V?$allocator@D@2@@std@@V?$allocator@V?$basic_string@DU?$char_traits@D@std@@V?$allocator@D@2@@std@@@2@@2@@std@@@2@$0A@@std@@@std@@QAE?AU?$pair@V?$_Tree_iterator@V?$_Tree_val@U?$_Tree_simple_types@U?$pair@$$CBV?$basic_string@DU?$char_traits@D@std@@V?$allocator@D@2@@std@@V?$vector@V?$basic_string@DU?$char_traits@D@std@@V?$allocator@D@2@@std@@V?$allocator@V?$basic_string@DU?$char_traits@D@std@@V?$allocator@D@2@@std@@@2@@2@@std@@@std@@@std@@@std@@_N@1@$$QAU?$pair@$$CBV?$basic_string@DU?$char_traits@D@std@@V?$allocator@D@2@@std@@V?$vector@V?$basic_string@DU?$char_traits@D@std@@V?$allocator@D@2@@std@@V?$allocator@V?$basic_string@DU?$char_traits@D@std@@V?$allocator@D@2@@std@@@2@@2@@1@@Z$1:
  00008	8d 4d e0	 lea	 ecx, DWORD PTR $T4[ebp]
  0000b	e9 00 00 00 00	 jmp	 ??1?$_Tree_temp_node_alloc@V?$allocator@U?$_Tree_node@U?$pair@$$CBV?$basic_string@DU?$char_traits@D@std@@V?$allocator@D@2@@std@@V?$vector@V?$basic_string@DU?$char_traits@D@std@@V?$allocator@D@2@@std@@V?$allocator@V?$basic_string@DU?$char_traits@D@std@@V?$allocator@D@2@@std@@@2@@2@@std@@PAX@std@@@std@@@std@@QAE@XZ
  00010	cc		 int	 3
  00011	cc		 int	 3
  00012	cc		 int	 3
  00013	cc		 int	 3
  00014	cc		 int	 3
__ehhandler$??$insert@$0A@$0A@@?$_Tree@V?$_Tmap_traits@V?$basic_string@DU?$char_traits@D@std@@V?$allocator@D@2@@std@@V?$vector@V?$basic_string@DU?$char_traits@D@std@@V?$allocator@D@2@@std@@V?$allocator@V?$basic_string@DU?$char_traits@D@std@@V?$allocator@D@2@@std@@@2@@2@U?$less@V?$basic_string@DU?$char_traits@D@std@@V?$allocator@D@2@@std@@@2@V?$allocator@U?$pair@$$CBV?$basic_string@DU?$char_traits@D@std@@V?$allocator@D@2@@std@@V?$vector@V?$basic_string@DU?$char_traits@D@std@@V?$allocator@D@2@@std@@V?$allocator@V?$basic_string@DU?$char_traits@D@std@@V?$allocator@D@2@@std@@@2@@2@@std@@@2@$0A@@std@@@std@@QAE?AU?$pair@V?$_Tree_iterator@V?$_Tree_val@U?$_Tree_simple_types@U?$pair@$$CBV?$basic_string@DU?$char_traits@D@std@@V?$allocator@D@2@@std@@V?$vector@V?$basic_string@DU?$char_traits@D@std@@V?$allocator@D@2@@std@@V?$allocator@V?$basic_string@DU?$char_traits@D@std@@V?$allocator@D@2@@std@@@2@@2@@std@@@std@@@std@@@std@@_N@1@$$QAU?$pair@$$CBV?$basic_string@DU?$char_traits@D@std@@V?$allocator@D@2@@std@@V?$vector@V?$basic_string@DU?$char_traits@D@std@@V?$allocator@D@2@@std@@V?$allocator@V?$basic_string@DU?$char_traits@D@std@@V?$allocator@D@2@@std@@@2@@2@@1@@Z:
  00015	90		 npad	 1
  00016	90		 npad	 1
  00017	8b 54 24 08	 mov	 edx, DWORD PTR [esp+8]
  0001b	8d 42 0c	 lea	 eax, DWORD PTR [edx+12]
  0001e	8b 4a dc	 mov	 ecx, DWORD PTR [edx-36]
  00021	33 c8		 xor	 ecx, eax
  00023	e8 00 00 00 00	 call	 @__security_check_cookie@4
  00028	b8 00 00 00 00	 mov	 eax, OFFSET __ehfuncinfo$??$insert@$0A@$0A@@?$_Tree@V?$_Tmap_traits@V?$basic_string@DU?$char_traits@D@std@@V?$allocator@D@2@@std@@V?$vector@V?$basic_string@DU?$char_traits@D@std@@V?$allocator@D@2@@std@@V?$allocator@V?$basic_string@DU?$char_traits@D@std@@V?$allocator@D@2@@std@@@2@@2@U?$less@V?$basic_string@DU?$char_traits@D@std@@V?$allocator@D@2@@std@@@2@V?$allocator@U?$pair@$$CBV?$basic_string@DU?$char_traits@D@std@@V?$allocator@D@2@@std@@V?$vector@V?$basic_string@DU?$char_traits@D@std@@V?$allocator@D@2@@std@@V?$allocator@V?$basic_string@DU?$char_traits@D@std@@V?$allocator@D@2@@std@@@2@@2@@std@@@2@$0A@@std@@@std@@QAE?AU?$pair@V?$_Tree_iterator@V?$_Tree_val@U?$_Tree_simple_types@U?$pair@$$CBV?$basic_string@DU?$char_traits@D@std@@V?$allocator@D@2@@std@@V?$vector@V?$basic_string@DU?$char_traits@D@std@@V?$allocator@D@2@@std@@V?$allocator@V?$basic_string@DU?$char_traits@D@std@@V?$allocator@D@2@@std@@@2@@2@@std@@@std@@@std@@@std@@_N@1@$$QAU?$pair@$$CBV?$basic_string@DU?$char_traits@D@std@@V?$allocator@D@2@@std@@V?$vector@V?$basic_string@DU?$char_traits@D@std@@V?$allocator@D@2@@std@@V?$allocator@V?$basic_string@DU?$char_traits@D@std@@V?$allocator@D@2@@std@@@2@@2@@1@@Z
  0002d	e9 00 00 00 00	 jmp	 ___CxxFrameHandler3
text$x	ENDS
??$insert@$0A@$0A@@?$_Tree@V?$_Tmap_traits@V?$basic_string@DU?$char_traits@D@std@@V?$allocator@D@2@@std@@V?$vector@V?$basic_string@DU?$char_traits@D@std@@V?$allocator@D@2@@std@@V?$allocator@V?$basic_string@DU?$char_traits@D@std@@V?$allocator@D@2@@std@@@2@@2@U?$less@V?$basic_string@DU?$char_traits@D@std@@V?$allocator@D@2@@std@@@2@V?$allocator@U?$pair@$$CBV?$basic_string@DU?$char_traits@D@std@@V?$allocator@D@2@@std@@V?$vector@V?$basic_string@DU?$char_traits@D@std@@V?$allocator@D@2@@std@@V?$allocator@V?$basic_string@DU?$char_traits@D@std@@V?$allocator@D@2@@std@@@2@@2@@std@@@2@$0A@@std@@@std@@QAE?AU?$pair@V?$_Tree_iterator@V?$_Tree_val@U?$_Tree_simple_types@U?$pair@$$CBV?$basic_string@DU?$char_traits@D@std@@V?$allocator@D@2@@std@@V?$vector@V?$basic_string@DU?$char_traits@D@std@@V?$allocator@D@2@@std@@V?$allocator@V?$basic_string@DU?$char_traits@D@std@@V?$allocator@D@2@@std@@@2@@2@@std@@@std@@@std@@@std@@_N@1@$$QAU?$pair@$$CBV?$basic_string@DU?$char_traits@D@std@@V?$allocator@D@2@@std@@V?$vector@V?$basic_string@DU?$char_traits@D@std@@V?$allocator@D@2@@std@@V?$allocator@V?$basic_string@DU?$char_traits@D@std@@V?$allocator@D@2@@std@@@2@@2@@1@@Z ENDP ; std::_Tree<std::_Tmap_traits<std::basic_string<char,std::char_traits<char>,std::allocator<char> >,std::vector<std::basic_string<char,std::char_traits<char>,std::allocator<char> >,std::allocator<std::basic_string<char,std::char_traits<char>,std::allocator<char> > > >,std::less<std::basic_string<char,std::char_traits<char>,std::allocator<char> > >,std::allocator<std::pair<std::basic_string<char,std::char_traits<char>,std::allocator<char> > const ,std::vector<std::basic_string<char,std::char_traits<char>,std::allocator<char> >,std::allocator<std::basic_string<char,std::char_traits<char>,std::allocator<char> > > > > >,0> >::insert<0,0>
; Function compile flags: /Ogtp
; File D:\Program Files\Microsoft Visual Studio\2022\Community\VC\Tools\MSVC\14.43.34808\include\utility
; File D:\Program Files\Microsoft Visual Studio\2022\Community\VC\Tools\MSVC\14.43.34808\include\vector
; File D:\Program Files\Microsoft Visual Studio\2022\Community\VC\Tools\MSVC\14.43.34808\include\utility
; File D:\Program Files\Microsoft Visual Studio\2022\Community\VC\Tools\MSVC\14.43.34808\include\vector
; File D:\Program Files\Microsoft Visual Studio\2022\Community\VC\Tools\MSVC\14.43.34808\include\xmemory
; File D:\Program Files\Microsoft Visual Studio\2022\Community\VC\Tools\MSVC\14.43.34808\include\vector
; File D:\Program Files\Microsoft Visual Studio\2022\Community\VC\Tools\MSVC\14.43.34808\include\xmemory
; File D:\Program Files\Microsoft Visual Studio\2022\Community\VC\Tools\MSVC\14.43.34808\include\vector
; File D:\Program Files\Microsoft Visual Studio\2022\Community\VC\Tools\MSVC\14.43.34808\include\xmemory
; File D:\Program Files\Microsoft Visual Studio\2022\Community\VC\Tools\MSVC\14.43.34808\include\vector
; File D:\Program Files\Microsoft Visual Studio\2022\Community\VC\Tools\MSVC\14.43.34808\include\utility
; File D:\Program Files\Microsoft Visual Studio\2022\Community\VC\Tools\MSVC\14.43.34808\include\vector
; File D:\Program Files\Microsoft Visual Studio\2022\Community\VC\Tools\MSVC\14.43.34808\include\utility
;	COMDAT ??$?0AAV?$basic_string@DU?$char_traits@D@std@@V?$allocator@D@2@@std@@AAV?$vector@V?$basic_string@DU?$char_traits@D@std@@V?$allocator@D@2@@std@@V?$allocator@V?$basic_string@DU?$char_traits@D@std@@V?$allocator@D@2@@std@@@2@@1@$0A@@?$pair@$$CBV?$basic_string@DU?$char_traits@D@std@@V?$allocator@D@2@@std@@V?$vector@V?$basic_string@DU?$char_traits@D@std@@V?$allocator@D@2@@std@@V?$allocator@V?$basic_string@DU?$char_traits@D@std@@V?$allocator@D@2@@std@@@2@@2@@std@@QAE@AAV?$basic_string@DU?$char_traits@D@std@@V?$allocator@D@2@@1@AAV?$vector@V?$basic_string@DU?$char_traits@D@std@@V?$allocator@D@2@@std@@V?$allocator@V?$basic_string@DU?$char_traits@D@std@@V?$allocator@D@2@@std@@@2@@1@@Z
_TEXT	SEGMENT
__Backout$2 = -32					; size = 12
__Guard$3 = -20						; size = 4
_this$ = -16						; size = 4
__$EHRec$ = -12						; size = 12
__Val1$ = 8						; size = 4
$T4 = 8							; size = 4
__Val2$ = 12						; size = 4
??$?0AAV?$basic_string@DU?$char_traits@D@std@@V?$allocator@D@2@@std@@AAV?$vector@V?$basic_string@DU?$char_traits@D@std@@V?$allocator@D@2@@std@@V?$allocator@V?$basic_string@DU?$char_traits@D@std@@V?$allocator@D@2@@std@@@2@@1@$0A@@?$pair@$$CBV?$basic_string@DU?$char_traits@D@std@@V?$allocator@D@2@@std@@V?$vector@V?$basic_string@DU?$char_traits@D@std@@V?$allocator@D@2@@std@@V?$allocator@V?$basic_string@DU?$char_traits@D@std@@V?$allocator@D@2@@std@@@2@@2@@std@@QAE@AAV?$basic_string@DU?$char_traits@D@std@@V?$allocator@D@2@@1@AAV?$vector@V?$basic_string@DU?$char_traits@D@std@@V?$allocator@D@2@@std@@V?$allocator@V?$basic_string@DU?$char_traits@D@std@@V?$allocator@D@2@@std@@@2@@1@@Z PROC ; std::pair<std::basic_string<char,std::char_traits<char>,std::allocator<char> > const ,std::vector<std::basic_string<char,std::char_traits<char>,std::allocator<char> >,std::allocator<std::basic_string<char,std::char_traits<char>,std::allocator<char> > > > >::pair<std::basic_string<char,std::char_traits<char>,std::allocator<char> > const ,std::vector<std::basic_string<char,std::char_traits<char>,std::allocator<char> >,std::allocator<std::basic_string<char,std::char_traits<char>,std::allocator<char> > > > ><std::basic_string<char,std::char_traits<char>,std::allocator<char> > &,std::vector<std::basic_string<char,std::char_traits<char>,std::allocator<char> >,std::allocator<std::basic_string<char,std::char_traits<char>,std::allocator<char> > > > &,0>, COMDAT
; _this$ = ecx

; 274  :         : first(_STD forward<_Other1>(_Val1)), second(_STD forward<_Other2>(_Val2)) {

  00000	55		 push	 ebp
  00001	8b ec		 mov	 ebp, esp
  00003	6a ff		 push	 -1
  00005	68 00 00 00 00	 push	 __ehhandler$??$?0AAV?$basic_string@DU?$char_traits@D@std@@V?$allocator@D@2@@std@@AAV?$vector@V?$basic_string@DU?$char_traits@D@std@@V?$allocator@D@2@@std@@V?$allocator@V?$basic_string@DU?$char_traits@D@std@@V?$allocator@D@2@@std@@@2@@1@$0A@@?$pair@$$CBV?$basic_string@DU?$char_traits@D@std@@V?$allocator@D@2@@std@@V?$vector@V?$basic_string@DU?$char_traits@D@std@@V?$allocator@D@2@@std@@V?$allocator@V?$basic_string@DU?$char_traits@D@std@@V?$allocator@D@2@@std@@@2@@2@@std@@QAE@AAV?$basic_string@DU?$char_traits@D@std@@V?$allocator@D@2@@1@AAV?$vector@V?$basic_string@DU?$char_traits@D@std@@V?$allocator@D@2@@std@@V?$allocator@V?$basic_string@DU?$char_traits@D@std@@V?$allocator@D@2@@std@@@2@@1@@Z
  0000a	64 a1 00 00 00
	00		 mov	 eax, DWORD PTR fs:0
  00010	50		 push	 eax
  00011	83 ec 14	 sub	 esp, 20			; 00000014H
  00014	53		 push	 ebx
  00015	56		 push	 esi
  00016	57		 push	 edi
  00017	a1 00 00 00 00	 mov	 eax, DWORD PTR ___security_cookie
  0001c	33 c5		 xor	 eax, ebp
  0001e	50		 push	 eax
  0001f	8d 45 f4	 lea	 eax, DWORD PTR __$EHRec$[ebp]
  00022	64 a3 00 00 00
	00		 mov	 DWORD PTR fs:0, eax
  00028	8b d9		 mov	 ebx, ecx
  0002a	89 5d f0	 mov	 DWORD PTR _this$[ebp], ebx
  0002d	ff 75 08	 push	 DWORD PTR __Val1$[ebp]
  00030	e8 00 00 00 00	 call	 ??0?$basic_string@DU?$char_traits@D@std@@V?$allocator@D@2@@std@@QAE@ABV01@@Z ; std::basic_string<char,std::char_traits<char>,std::allocator<char> >::basic_string<char,std::char_traits<char>,std::allocator<char> >
; File D:\Program Files\Microsoft Visual Studio\2022\Community\VC\Tools\MSVC\14.43.34808\include\vector

; 733  :         const auto _Count       = static_cast<size_type>(_Right_data._Mylast - _Right_data._Myfirst);

  00035	8b 45 0c	 mov	 eax, DWORD PTR __Val2$[ebp]
; File D:\Program Files\Microsoft Visual Studio\2022\Community\VC\Tools\MSVC\14.43.34808\include\utility

; 274  :         : first(_STD forward<_Other1>(_Val1)), second(_STD forward<_Other2>(_Val2)) {

  00038	83 c3 18	 add	 ebx, 24			; 00000018H
  0003b	c7 45 fc 00 00
	00 00		 mov	 DWORD PTR __$EHRec$[ebp+8], 0
  00042	89 5d 08	 mov	 DWORD PTR $T4[ebp], ebx
; File D:\Program Files\Microsoft Visual Studio\2022\Community\VC\Tools\MSVC\14.43.34808\include\vector

; 400  :     _CONSTEXPR20 _Vector_val() noexcept : _Myfirst(), _Mylast(), _Myend() {}

  00045	c7 03 00 00 00
	00		 mov	 DWORD PTR [ebx], 0
  0004b	c7 43 04 00 00
	00 00		 mov	 DWORD PTR [ebx+4], 0
  00052	c7 43 08 00 00
	00 00		 mov	 DWORD PTR [ebx+8], 0

; 733  :         const auto _Count       = static_cast<size_type>(_Right_data._Mylast - _Right_data._Myfirst);

  00059	8b 48 04	 mov	 ecx, DWORD PTR [eax+4]
  0005c	2b 08		 sub	 ecx, DWORD PTR [eax]
  0005e	b8 ab aa aa 2a	 mov	 eax, 715827883		; 2aaaaaabH
  00063	f7 e9		 imul	 ecx
  00065	c1 fa 02	 sar	 edx, 2
  00068	8b c2		 mov	 eax, edx
  0006a	c1 e8 1f	 shr	 eax, 31			; 0000001fH
  0006d	03 c2		 add	 eax, edx

; 2096 :         if (_Count != 0) {

  0006f	74 7a		 je	 SHORT $LN112@allocator

; 2036 :         if (_Newcapacity > max_size()) {

  00071	3d aa aa aa 0a	 cmp	 eax, 178956970		; 0aaaaaaaH
  00076	0f 87 86 00 00
	00		 ja	 $LN130@allocator
; File D:\Program Files\Microsoft Visual Studio\2022\Community\VC\Tools\MSVC\14.43.34808\include\xmemory

; 122  :     return _Count * _Ty_size;

  0007c	8d 34 40	 lea	 esi, DWORD PTR [eax+eax*2]
  0007f	c1 e6 03	 shl	 esi, 3

; 227  :     if (_Bytes == 0) {

  00082	85 f6		 test	 esi, esi
  00084	75 04		 jne	 SHORT $LN31@allocator

; 228  :         return nullptr;

  00086	33 c0		 xor	 eax, eax
  00088	eb 18		 jmp	 SHORT $LN30@allocator
$LN31@allocator:

; 229  :     }
; 230  : 
; 231  : #if _HAS_CXX20 // TRANSITION, GH-1532
; 232  :     if (_STD is_constant_evaluated()) {
; 233  :         return _Traits::_Allocate(_Bytes);
; 234  :     }
; 235  : #endif // _HAS_CXX20
; 236  : 
; 237  : #ifdef __cpp_aligned_new
; 238  :     if constexpr (_Align > __STDCPP_DEFAULT_NEW_ALIGNMENT__) {
; 239  :         size_t _Passed_align = _Align;
; 240  : #if defined(_M_IX86) || defined(_M_X64)
; 241  :         if (_Bytes >= _Big_allocation_threshold) {
; 242  :             // boost the alignment of big allocations to help autovectorization
; 243  :             _Passed_align = (_STD max)(_Align, _Big_allocation_alignment);
; 244  :         }
; 245  : #endif // defined(_M_IX86) || defined(_M_X64)
; 246  :         return _Traits::_Allocate_aligned(_Bytes, _Passed_align);
; 247  :     } else
; 248  : #endif // defined(__cpp_aligned_new)
; 249  :     {
; 250  : #if defined(_M_IX86) || defined(_M_X64)
; 251  :         if (_Bytes >= _Big_allocation_threshold) {

  0008a	56		 push	 esi
  0008b	81 fe 00 10 00
	00		 cmp	 esi, 4096		; 00001000H
  00091	72 07		 jb	 SHORT $LN32@allocator

; 252  :             // boost the alignment of big allocations to help autovectorization
; 253  :             return _Allocate_manually_vector_aligned<_Traits>(_Bytes);

  00093	e8 00 00 00 00	 call	 ??$_Allocate_manually_vector_aligned@U_Default_allocate_traits@std@@@std@@YAPAXI@Z ; std::_Allocate_manually_vector_aligned<std::_Default_allocate_traits>
  00098	eb 05		 jmp	 SHORT $LN128@allocator
$LN32@allocator:

; 136  :         return ::operator new(_Bytes);

  0009a	e8 00 00 00 00	 call	 ??2@YAPAXI@Z		; operator new
$LN128@allocator:
; File D:\Program Files\Microsoft Visual Studio\2022\Community\VC\Tools\MSVC\14.43.34808\include\vector

; 2020 :         _Myfirst              = _Newvec;

  0009f	83 c4 04	 add	 esp, 4
$LN30@allocator:
  000a2	89 03		 mov	 DWORD PTR [ebx], eax

; 2021 :         _Mylast               = _Newvec;

  000a4	89 43 04	 mov	 DWORD PTR [ebx+4], eax

; 2022 :         _Myend                = _Newvec + _Newcapacity;

  000a7	03 c6		 add	 eax, esi
  000a9	89 43 08	 mov	 DWORD PTR [ebx+8], eax

; 2098 :             _Tidy_guard<vector> _Guard{this};

  000ac	89 5d ec	 mov	 DWORD PTR __Guard$3[ebp], ebx

; 2105 :                 _My_data._Mylast = _STD _Uninitialized_copy(_STD forward<_Valty>(_Val)..., _My_data._Myfirst, _Al);

  000af	8b 45 0c	 mov	 eax, DWORD PTR __Val2$[ebp]
  000b2	8b 3b		 mov	 edi, DWORD PTR [ebx]
; File D:\Program Files\Microsoft Visual Studio\2022\Community\VC\Tools\MSVC\14.43.34808\include\xmemory

; 1796 :     _CONSTEXPR20 _Uninitialized_backout_al(pointer _Dest, _Alloc& _Al_) : _First(_Dest), _Last(_Dest), _Al(_Al_) {}

  000b4	89 7d e0	 mov	 DWORD PTR __Backout$2[ebp], edi
  000b7	89 7d e4	 mov	 DWORD PTR __Backout$2[ebp+4], edi
; File D:\Program Files\Microsoft Visual Studio\2022\Community\VC\Tools\MSVC\14.43.34808\include\vector

; 2105 :                 _My_data._Mylast = _STD _Uninitialized_copy(_STD forward<_Valty>(_Val)..., _My_data._Myfirst, _Al);

  000ba	8b 58 04	 mov	 ebx, DWORD PTR [eax+4]
  000bd	8b 30		 mov	 esi, DWORD PTR [eax]
; File D:\Program Files\Microsoft Visual Studio\2022\Community\VC\Tools\MSVC\14.43.34808\include\xmemory

; 1796 :     _CONSTEXPR20 _Uninitialized_backout_al(pointer _Dest, _Alloc& _Al_) : _First(_Dest), _Last(_Dest), _Al(_Al_) {}

  000bf	8b 45 08	 mov	 eax, DWORD PTR $T4[ebp]
  000c2	89 45 e8	 mov	 DWORD PTR __Backout$2[ebp+8], eax

; 1863 :     _Uninitialized_backout_al<_Alloc> _Backout{_Dest, _Al};

  000c5	c6 45 fc 02	 mov	 BYTE PTR __$EHRec$[ebp+8], 2

; 1864 :     for (; _UFirst != _ULast; ++_UFirst) {

  000c9	3b f3		 cmp	 esi, ebx
  000cb	74 1b		 je	 SHORT $LN42@allocator
  000cd	0f 1f 00	 npad	 3
$LL43@allocator:

; 732  :         ::new (const_cast<void*>(static_cast<const volatile void*>(_Ptr))) _Objty(_STD forward<_Types>(_Args)...);

  000d0	56		 push	 esi
  000d1	8b cf		 mov	 ecx, edi
  000d3	e8 00 00 00 00	 call	 ??0?$basic_string@DU?$char_traits@D@std@@V?$allocator@D@2@@std@@QAE@ABV01@@Z ; std::basic_string<char,std::char_traits<char>,std::allocator<char> >::basic_string<char,std::char_traits<char>,std::allocator<char> >

; 1808 :         ++_Last;

  000d8	83 c7 18	 add	 edi, 24			; 00000018H

; 1864 :     for (; _UFirst != _ULast; ++_UFirst) {

  000db	83 c6 18	 add	 esi, 24			; 00000018H

; 1808 :         ++_Last;

  000de	89 7d e4	 mov	 DWORD PTR __Backout$2[ebp+4], edi

; 1864 :     for (; _UFirst != _ULast; ++_UFirst) {

  000e1	3b f3		 cmp	 esi, ebx
  000e3	75 eb		 jne	 SHORT $LL43@allocator
  000e5	8b 45 08	 mov	 eax, DWORD PTR $T4[ebp]
$LN42@allocator:
; File D:\Program Files\Microsoft Visual Studio\2022\Community\VC\Tools\MSVC\14.43.34808\include\vector

; 2105 :                 _My_data._Mylast = _STD _Uninitialized_copy(_STD forward<_Valty>(_Val)..., _My_data._Myfirst, _Al);

  000e8	89 78 04	 mov	 DWORD PTR [eax+4], edi
$LN112@allocator:
; File D:\Program Files\Microsoft Visual Studio\2022\Community\VC\Tools\MSVC\14.43.34808\include\utility

; 275  :     }

  000eb	8b 45 f0	 mov	 eax, DWORD PTR _this$[ebp]
  000ee	8b 4d f4	 mov	 ecx, DWORD PTR __$EHRec$[ebp]
  000f1	64 89 0d 00 00
	00 00		 mov	 DWORD PTR fs:0, ecx
  000f8	59		 pop	 ecx
  000f9	5f		 pop	 edi
  000fa	5e		 pop	 esi
  000fb	5b		 pop	 ebx
  000fc	8b e5		 mov	 esp, ebp
  000fe	5d		 pop	 ebp
  000ff	c2 08 00	 ret	 8
$LN130@allocator:
; File D:\Program Files\Microsoft Visual Studio\2022\Community\VC\Tools\MSVC\14.43.34808\include\vector

; 2037 :             _Xlength();

  00102	e8 00 00 00 00	 call	 ?_Xlength@?$vector@V?$basic_string@DU?$char_traits@D@std@@V?$allocator@D@2@@std@@V?$allocator@V?$basic_string@DU?$char_traits@D@std@@V?$allocator@D@2@@std@@@2@@std@@CAXXZ ; std::vector<std::basic_string<char,std::char_traits<char>,std::allocator<char> >,std::allocator<std::basic_string<char,std::char_traits<char>,std::allocator<char> > > >::_Xlength
$LN127@allocator:
  00107	cc		 int	 3
_TEXT	ENDS
;	COMDAT text$x
text$x	SEGMENT
__unwindfunclet$??$?0AAV?$basic_string@DU?$char_traits@D@std@@V?$allocator@D@2@@std@@AAV?$vector@V?$basic_string@DU?$char_traits@D@std@@V?$allocator@D@2@@std@@V?$allocator@V?$basic_string@DU?$char_traits@D@std@@V?$allocator@D@2@@std@@@2@@1@$0A@@?$pair@$$CBV?$basic_string@DU?$char_traits@D@std@@V?$allocator@D@2@@std@@V?$vector@V?$basic_string@DU?$char_traits@D@std@@V?$allocator@D@2@@std@@V?$allocator@V?$basic_string@DU?$char_traits@D@std@@V?$allocator@D@2@@std@@@2@@2@@std@@QAE@AAV?$basic_string@DU?$char_traits@D@std@@V?$allocator@D@2@@1@AAV?$vector@V?$basic_string@DU?$char_traits@D@std@@V?$allocator@D@2@@std@@V?$allocator@V?$basic_string@DU?$char_traits@D@std@@V?$allocator@D@2@@std@@@2@@1@@Z$0:
  00000	8b 4d f0	 mov	 ecx, DWORD PTR _this$[ebp]
  00003	e9 00 00 00 00	 jmp	 ??1?$basic_string@DU?$char_traits@D@std@@V?$allocator@D@2@@std@@QAE@XZ ; std::basic_string<char,std::char_traits<char>,std::allocator<char> >::~basic_string<char,std::char_traits<char>,std::allocator<char> >
__unwindfunclet$??$?0AAV?$basic_string@DU?$char_traits@D@std@@V?$allocator@D@2@@std@@AAV?$vector@V?$basic_string@DU?$char_traits@D@std@@V?$allocator@D@2@@std@@V?$allocator@V?$basic_string@DU?$char_traits@D@std@@V?$allocator@D@2@@std@@@2@@1@$0A@@?$pair@$$CBV?$basic_string@DU?$char_traits@D@std@@V?$allocator@D@2@@std@@V?$vector@V?$basic_string@DU?$char_traits@D@std@@V?$allocator@D@2@@std@@V?$allocator@V?$basic_string@DU?$char_traits@D@std@@V?$allocator@D@2@@std@@@2@@2@@std@@QAE@AAV?$basic_string@DU?$char_traits@D@std@@V?$allocator@D@2@@1@AAV?$vector@V?$basic_string@DU?$char_traits@D@std@@V?$allocator@D@2@@std@@V?$allocator@V?$basic_string@DU?$char_traits@D@std@@V?$allocator@D@2@@std@@@2@@1@@Z$2:
  00008	8d 4d ec	 lea	 ecx, DWORD PTR __Guard$3[ebp]
  0000b	e9 00 00 00 00	 jmp	 ??1?$_Tidy_guard@V?$vector@V?$basic_string@DU?$char_traits@D@std@@V?$allocator@D@2@@std@@V?$allocator@V?$basic_string@DU?$char_traits@D@std@@V?$allocator@D@2@@std@@@2@@std@@@std@@QAE@XZ ; std::_Tidy_guard<std::vector<std::basic_string<char,std::char_traits<char>,std::allocator<char> >,std::allocator<std::basic_string<char,std::char_traits<char>,std::allocator<char> > > > >::~_Tidy_guard<std::vector<std::basic_string<char,std::char_traits<char>,std::allocator<char> >,std::allocator<std::basic_string<char,std::char_traits<char>,std::allocator<char> > > > >
__unwindfunclet$??$?0AAV?$basic_string@DU?$char_traits@D@std@@V?$allocator@D@2@@std@@AAV?$vector@V?$basic_string@DU?$char_traits@D@std@@V?$allocator@D@2@@std@@V?$allocator@V?$basic_string@DU?$char_traits@D@std@@V?$allocator@D@2@@std@@@2@@1@$0A@@?$pair@$$CBV?$basic_string@DU?$char_traits@D@std@@V?$allocator@D@2@@std@@V?$vector@V?$basic_string@DU?$char_traits@D@std@@V?$allocator@D@2@@std@@V?$allocator@V?$basic_string@DU?$char_traits@D@std@@V?$allocator@D@2@@std@@@2@@2@@std@@QAE@AAV?$basic_string@DU?$char_traits@D@std@@V?$allocator@D@2@@1@AAV?$vector@V?$basic_string@DU?$char_traits@D@std@@V?$allocator@D@2@@std@@V?$allocator@V?$basic_string@DU?$char_traits@D@std@@V?$allocator@D@2@@std@@@2@@1@@Z$3:
  00010	8d 4d e0	 lea	 ecx, DWORD PTR __Backout$2[ebp]
  00013	e9 00 00 00 00	 jmp	 ??1?$_Uninitialized_backout_al@V?$allocator@V?$basic_string@DU?$char_traits@D@std@@V?$allocator@D@2@@std@@@std@@@std@@QAE@XZ ; std::_Uninitialized_backout_al<std::allocator<std::basic_string<char,std::char_traits<char>,std::allocator<char> > > >::~_Uninitialized_backout_al<std::allocator<std::basic_string<char,std::char_traits<char>,std::allocator<char> > > >
  00018	cc		 int	 3
  00019	cc		 int	 3
  0001a	cc		 int	 3
  0001b	cc		 int	 3
  0001c	cc		 int	 3
__ehhandler$??$?0AAV?$basic_string@DU?$char_traits@D@std@@V?$allocator@D@2@@std@@AAV?$vector@V?$basic_string@DU?$char_traits@D@std@@V?$allocator@D@2@@std@@V?$allocator@V?$basic_string@DU?$char_traits@D@std@@V?$allocator@D@2@@std@@@2@@1@$0A@@?$pair@$$CBV?$basic_string@DU?$char_traits@D@std@@V?$allocator@D@2@@std@@V?$vector@V?$basic_string@DU?$char_traits@D@std@@V?$allocator@D@2@@std@@V?$allocator@V?$basic_string@DU?$char_traits@D@std@@V?$allocator@D@2@@std@@@2@@2@@std@@QAE@AAV?$basic_string@DU?$char_traits@D@std@@V?$allocator@D@2@@1@AAV?$vector@V?$basic_string@DU?$char_traits@D@std@@V?$allocator@D@2@@std@@V?$allocator@V?$basic_string@DU?$char_traits@D@std@@V?$allocator@D@2@@std@@@2@@1@@Z:
  0001d	90		 npad	 1
  0001e	90		 npad	 1
  0001f	8b 54 24 08	 mov	 edx, DWORD PTR [esp+8]
  00023	8d 42 0c	 lea	 eax, DWORD PTR [edx+12]
  00026	8b 4a dc	 mov	 ecx, DWORD PTR [edx-36]
  00029	33 c8		 xor	 ecx, eax
  0002b	e8 00 00 00 00	 call	 @__security_check_cookie@4
  00030	b8 00 00 00 00	 mov	 eax, OFFSET __ehfuncinfo$??$?0AAV?$basic_string@DU?$char_traits@D@std@@V?$allocator@D@2@@std@@AAV?$vector@V?$basic_string@DU?$char_traits@D@std@@V?$allocator@D@2@@std@@V?$allocator@V?$basic_string@DU?$char_traits@D@std@@V?$allocator@D@2@@std@@@2@@1@$0A@@?$pair@$$CBV?$basic_string@DU?$char_traits@D@std@@V?$allocator@D@2@@std@@V?$vector@V?$basic_string@DU?$char_traits@D@std@@V?$allocator@D@2@@std@@V?$allocator@V?$basic_string@DU?$char_traits@D@std@@V?$allocator@D@2@@std@@@2@@2@@std@@QAE@AAV?$basic_string@DU?$char_traits@D@std@@V?$allocator@D@2@@1@AAV?$vector@V?$basic_string@DU?$char_traits@D@std@@V?$allocator@D@2@@std@@V?$allocator@V?$basic_string@DU?$char_traits@D@std@@V?$allocator@D@2@@std@@@2@@1@@Z
  00035	e9 00 00 00 00	 jmp	 ___CxxFrameHandler3
text$x	ENDS
??$?0AAV?$basic_string@DU?$char_traits@D@std@@V?$allocator@D@2@@std@@AAV?$vector@V?$basic_string@DU?$char_traits@D@std@@V?$allocator@D@2@@std@@V?$allocator@V?$basic_string@DU?$char_traits@D@std@@V?$allocator@D@2@@std@@@2@@1@$0A@@?$pair@$$CBV?$basic_string@DU?$char_traits@D@std@@V?$allocator@D@2@@std@@V?$vector@V?$basic_string@DU?$char_traits@D@std@@V?$allocator@D@2@@std@@V?$allocator@V?$basic_string@DU?$char_traits@D@std@@V?$allocator@D@2@@std@@@2@@2@@std@@QAE@AAV?$basic_string@DU?$char_traits@D@std@@V?$allocator@D@2@@1@AAV?$vector@V?$basic_string@DU?$char_traits@D@std@@V?$allocator@D@2@@std@@V?$allocator@V?$basic_string@DU?$char_traits@D@std@@V?$allocator@D@2@@std@@@2@@1@@Z ENDP ; std::pair<std::basic_string<char,std::char_traits<char>,std::allocator<char> > const ,std::vector<std::basic_string<char,std::char_traits<char>,std::allocator<char> >,std::allocator<std::basic_string<char,std::char_traits<char>,std::allocator<char> > > > >::pair<std::basic_string<char,std::char_traits<char>,std::allocator<char> > const ,std::vector<std::basic_string<char,std::char_traits<char>,std::allocator<char> >,std::allocator<std::basic_string<char,std::char_traits<char>,std::allocator<char> > > > ><std::basic_string<char,std::char_traits<char>,std::allocator<char> > &,std::vector<std::basic_string<char,std::char_traits<char>,std::allocator<char> >,std::allocator<std::basic_string<char,std::char_traits<char>,std::allocator<char> > > > &,0>
; Function compile flags: /Ogtp
; File D:\Program Files\Microsoft Visual Studio\2022\Community\VC\Tools\MSVC\14.43.34808\include\vector
; File D:\Program Files\Microsoft Visual Studio\2022\Community\VC\Tools\MSVC\14.43.34808\include\xstring
; File D:\Program Files\Microsoft Visual Studio\2022\Community\VC\Tools\MSVC\14.43.34808\include\xmemory
; File D:\Program Files\Microsoft Visual Studio\2022\Community\VC\Tools\MSVC\14.43.34808\include\xstring
; File D:\Program Files\Microsoft Visual Studio\2022\Community\VC\Tools\MSVC\14.43.34808\include\xmemory
; File D:\Program Files\Microsoft Visual Studio\2022\Community\VC\Tools\MSVC\14.43.34808\include\xstring
; File D:\Program Files\Microsoft Visual Studio\2022\Community\VC\Tools\MSVC\14.43.34808\include\xmemory
;	COMDAT ??1?$pair@$$CBV?$basic_string@DU?$char_traits@D@std@@V?$allocator@D@2@@std@@V?$vector@V?$basic_string@DU?$char_traits@D@std@@V?$allocator@D@2@@std@@V?$allocator@V?$basic_string@DU?$char_traits@D@std@@V?$allocator@D@2@@std@@@2@@2@@std@@QAE@XZ
_TEXT	SEGMENT
??1?$pair@$$CBV?$basic_string@DU?$char_traits@D@std@@V?$allocator@D@2@@std@@V?$vector@V?$basic_string@DU?$char_traits@D@std@@V?$allocator@D@2@@std@@V?$allocator@V?$basic_string@DU?$char_traits@D@std@@V?$allocator@D@2@@std@@@2@@2@@std@@QAE@XZ PROC ; std::pair<std::basic_string<char,std::char_traits<char>,std::allocator<char> > const ,std::vector<std::basic_string<char,std::char_traits<char>,std::allocator<char> >,std::allocator<std::basic_string<char,std::char_traits<char>,std::allocator<char> > > > >::~pair<std::basic_string<char,std::char_traits<char>,std::allocator<char> > const ,std::vector<std::basic_string<char,std::char_traits<char>,std::allocator<char> >,std::allocator<std::basic_string<char,std::char_traits<char>,std::allocator<char> > > > >, COMDAT
; _this$ = ecx
; File D:\Program Files\Microsoft Visual Studio\2022\Community\VC\Tools\MSVC\14.43.34808\include\vector

; 815  :         _Tidy();

  00000	56		 push	 esi
  00001	8b f1		 mov	 esi, ecx
  00003	8d 4e 18	 lea	 ecx, DWORD PTR [esi+24]
  00006	e8 00 00 00 00	 call	 ?_Tidy@?$vector@V?$basic_string@DU?$char_traits@D@std@@V?$allocator@D@2@@std@@V?$allocator@V?$basic_string@DU?$char_traits@D@std@@V?$allocator@D@2@@std@@@2@@std@@AAEXXZ ; std::vector<std::basic_string<char,std::char_traits<char>,std::allocator<char> >,std::allocator<std::basic_string<char,std::char_traits<char>,std::allocator<char> > > >::_Tidy
; File D:\Program Files\Microsoft Visual Studio\2022\Community\VC\Tools\MSVC\14.43.34808\include\xstring

; 434  :         return _Myres > _Small_string_capacity;

  0000b	8b 4e 14	 mov	 ecx, DWORD PTR [esi+20]
  0000e	83 f9 0f	 cmp	 ecx, 15			; 0000000fH

; 3047 :         if (_My_data._Large_mode_engaged()) {

  00011	76 27		 jbe	 SHORT $LN27@pair
; File D:\Program Files\Microsoft Visual Studio\2022\Community\VC\Tools\MSVC\14.43.34808\include\xmemory

; 981  :         _STD _Deallocate<_New_alignof<_Ty>>(_Ptr, sizeof(_Ty) * _Count);

  00013	8b 06		 mov	 eax, DWORD PTR [esi]
; File D:\Program Files\Microsoft Visual Studio\2022\Community\VC\Tools\MSVC\14.43.34808\include\xstring

; 828  :         _Al.deallocate(_Old_ptr, _Capacity + 1); // +1 for null terminator

  00015	41		 inc	 ecx
; File D:\Program Files\Microsoft Visual Studio\2022\Community\VC\Tools\MSVC\14.43.34808\include\xmemory

; 284  :         if (_Bytes >= _Big_allocation_threshold) {

  00016	81 f9 00 10 00
	00		 cmp	 ecx, 4096		; 00001000H
  0001c	72 12		 jb	 SHORT $LN38@pair

; 205  :     const uintptr_t _Ptr_container   = _Ptr_user[-1];

  0001e	8b 50 fc	 mov	 edx, DWORD PTR [eax-4]
  00021	83 c1 23	 add	 ecx, 35			; 00000023H

; 206  : 
; 207  :     // If the following asserts, it likely means that we are performing
; 208  :     // an aligned delete on memory coming from an unaligned allocation.
; 209  :     _STL_ASSERT(_Ptr_user[-2] == _Big_allocation_sentinel, "invalid argument");
; 210  : 
; 211  :     // Extra paranoia on aligned allocation/deallocation; ensure _Ptr_container is
; 212  :     // in range [_Min_back_shift, _Non_user_size]
; 213  : #ifdef _DEBUG
; 214  :     constexpr uintptr_t _Min_back_shift = 2 * sizeof(void*);
; 215  : #else // ^^^ defined(_DEBUG) / !defined(_DEBUG) vvv
; 216  :     constexpr uintptr_t _Min_back_shift = sizeof(void*);
; 217  : #endif // ^^^ !defined(_DEBUG) ^^^
; 218  :     const uintptr_t _Back_shift = reinterpret_cast<uintptr_t>(_Ptr) - _Ptr_container;

  00024	2b c2		 sub	 eax, edx

; 219  :     _STL_VERIFY(_Back_shift >= _Min_back_shift && _Back_shift <= _Non_user_size, "invalid argument");

  00026	83 c0 fc	 add	 eax, -4			; fffffffcH
  00029	83 f8 1f	 cmp	 eax, 31			; 0000001fH
  0002c	77 1f		 ja	 SHORT $LN35@pair

; 220  :     _Ptr = reinterpret_cast<void*>(_Ptr_container);

  0002e	8b c2		 mov	 eax, edx
$LN38@pair:

; 289  :         ::operator delete(_Ptr, _Bytes);

  00030	51		 push	 ecx
  00031	50		 push	 eax
  00032	e8 00 00 00 00	 call	 ??3@YAXPAXI@Z		; operator delete
  00037	83 c4 08	 add	 esp, 8
$LN27@pair:
; File D:\Program Files\Microsoft Visual Studio\2022\Community\VC\Tools\MSVC\14.43.34808\include\xstring

; 3054 :         _My_data._Mysize = 0;

  0003a	c7 46 10 00 00
	00 00		 mov	 DWORD PTR [esi+16], 0

; 3055 :         _My_data._Myres  = _Small_string_capacity;

  00041	c7 46 14 0f 00
	00 00		 mov	 DWORD PTR [esi+20], 15	; 0000000fH

; 3056 :         // the _Traits::assign is last so the codegen doesn't think the char write can alias this
; 3057 :         _Traits::assign(_My_data._Bx._Buf[0], _Elem());

  00048	c6 06 00	 mov	 BYTE PTR [esi], 0
  0004b	5e		 pop	 esi
  0004c	c3		 ret	 0
$LN35@pair:
; File D:\Program Files\Microsoft Visual Studio\2022\Community\VC\Tools\MSVC\14.43.34808\include\xmemory

; 219  :     _STL_VERIFY(_Back_shift >= _Min_back_shift && _Back_shift <= _Non_user_size, "invalid argument");

  0004d	e8 00 00 00 00	 call	 __invalid_parameter_noinfo_noreturn
$LN48@pair:
  00052	cc		 int	 3
??1?$pair@$$CBV?$basic_string@DU?$char_traits@D@std@@V?$allocator@D@2@@std@@V?$vector@V?$basic_string@DU?$char_traits@D@std@@V?$allocator@D@2@@std@@V?$allocator@V?$basic_string@DU?$char_traits@D@std@@V?$allocator@D@2@@std@@@2@@2@@std@@QAE@XZ ENDP ; std::pair<std::basic_string<char,std::char_traits<char>,std::allocator<char> > const ,std::vector<std::basic_string<char,std::char_traits<char>,std::allocator<char> >,std::allocator<std::basic_string<char,std::char_traits<char>,std::allocator<char> > > > >::~pair<std::basic_string<char,std::char_traits<char>,std::allocator<char> > const ,std::vector<std::basic_string<char,std::char_traits<char>,std::allocator<char> >,std::allocator<std::basic_string<char,std::char_traits<char>,std::allocator<char> > > > >
_TEXT	ENDS
; Function compile flags: /Ogtp
; File D:\Program Files\Microsoft Visual Studio\2022\Community\VC\Tools\MSVC\14.43.34808\include\xtree
;	COMDAT ?_Insert_node@?$_Tree_val@U?$_Tree_simple_types@U?$pair@$$CBV?$basic_string@DU?$char_traits@D@std@@V?$allocator@D@2@@std@@V?$vector@V?$basic_string@DU?$char_traits@D@std@@V?$allocator@D@2@@std@@V?$allocator@V?$basic_string@DU?$char_traits@D@std@@V?$allocator@D@2@@std@@@2@@2@@std@@@std@@@std@@QAEPAU?$_Tree_node@U?$pair@$$CBV?$basic_string@DU?$char_traits@D@std@@V?$allocator@D@2@@std@@V?$vector@V?$basic_string@DU?$char_traits@D@std@@V?$allocator@D@2@@std@@V?$allocator@V?$basic_string@DU?$char_traits@D@std@@V?$allocator@D@2@@std@@@2@@2@@std@@PAX@2@U?$_Tree_id@PAU?$_Tree_node@U?$pair@$$CBV?$basic_string@DU?$char_traits@D@std@@V?$allocator@D@2@@std@@V?$vector@V?$basic_string@DU?$char_traits@D@std@@V?$allocator@D@2@@std@@V?$allocator@V?$basic_string@DU?$char_traits@D@std@@V?$allocator@D@2@@std@@@2@@2@@std@@PAX@std@@@2@QAU32@@Z
_TEXT	SEGMENT
__Head$1$ = -4						; size = 4
__Loc$ = 8						; size = 8
__Newnode$ = 16						; size = 4
?_Insert_node@?$_Tree_val@U?$_Tree_simple_types@U?$pair@$$CBV?$basic_string@DU?$char_traits@D@std@@V?$allocator@D@2@@std@@V?$vector@V?$basic_string@DU?$char_traits@D@std@@V?$allocator@D@2@@std@@V?$allocator@V?$basic_string@DU?$char_traits@D@std@@V?$allocator@D@2@@std@@@2@@2@@std@@@std@@@std@@QAEPAU?$_Tree_node@U?$pair@$$CBV?$basic_string@DU?$char_traits@D@std@@V?$allocator@D@2@@std@@V?$vector@V?$basic_string@DU?$char_traits@D@std@@V?$allocator@D@2@@std@@V?$allocator@V?$basic_string@DU?$char_traits@D@std@@V?$allocator@D@2@@std@@@2@@2@@std@@PAX@2@U?$_Tree_id@PAU?$_Tree_node@U?$pair@$$CBV?$basic_string@DU?$char_traits@D@std@@V?$allocator@D@2@@std@@V?$vector@V?$basic_string@DU?$char_traits@D@std@@V?$allocator@D@2@@std@@V?$allocator@V?$basic_string@DU?$char_traits@D@std@@V?$allocator@D@2@@std@@@2@@2@@std@@PAX@std@@@2@QAU32@@Z PROC ; std::_Tree_val<std::_Tree_simple_types<std::pair<std::basic_string<char,std::char_traits<char>,std::allocator<char> > const ,std::vector<std::basic_string<char,std::char_traits<char>,std::allocator<char> >,std::allocator<std::basic_string<char,std::char_traits<char>,std::allocator<char> > > > > > >::_Insert_node, COMDAT
; _this$ = ecx

; 659  :     _Nodeptr _Insert_node(const _Tree_id<_Nodeptr> _Loc, const _Nodeptr _Newnode) noexcept {

  00000	55		 push	 ebp
  00001	8b ec		 mov	 ebp, esp
  00003	51		 push	 ecx

; 660  :         ++_Mysize;
; 661  :         const auto _Head  = _Myhead;
; 662  :         _Newnode->_Parent = _Loc._Parent;

  00004	8b 55 08	 mov	 edx, DWORD PTR __Loc$[ebp]
  00007	53		 push	 ebx
  00008	8b d9		 mov	 ebx, ecx
  0000a	57		 push	 edi
  0000b	8b 7d 10	 mov	 edi, DWORD PTR __Newnode$[ebp]
  0000e	8b 03		 mov	 eax, DWORD PTR [ebx]
  00010	ff 43 04	 inc	 DWORD PTR [ebx+4]
  00013	89 45 fc	 mov	 DWORD PTR __Head$1$[ebp], eax
  00016	89 57 04	 mov	 DWORD PTR [edi+4], edx

; 663  :         if (_Loc._Parent == _Head) { // first node in tree, just set head values

  00019	3b d0		 cmp	 edx, eax
  0001b	75 16		 jne	 SHORT $LN5@Insert_nod

; 664  :             _Head->_Left     = _Newnode;

  0001d	89 38		 mov	 DWORD PTR [eax], edi

; 665  :             _Head->_Parent   = _Newnode;

  0001f	89 78 04	 mov	 DWORD PTR [eax+4], edi

; 666  :             _Head->_Right    = _Newnode;

  00022	89 78 08	 mov	 DWORD PTR [eax+8], edi

; 725  :         return _Newnode;
; 726  :     }

  00025	8b c7		 mov	 eax, edi
  00027	c6 47 0c 01	 mov	 BYTE PTR [edi+12], 1
  0002b	5f		 pop	 edi
  0002c	5b		 pop	 ebx
  0002d	8b e5		 mov	 esp, ebp
  0002f	5d		 pop	 ebp
  00030	c2 0c 00	 ret	 12			; 0000000cH
$LN5@Insert_nod:

; 667  :             _Newnode->_Color = _Black; // the root is black
; 668  :             return _Newnode;
; 669  :         }
; 670  : 
; 671  :         _STL_INTERNAL_CHECK(_Loc._Child != _Tree_child::_Unused);
; 672  :         if (_Loc._Child == _Tree_child::_Right) { // add to right of _Loc._Parent

  00033	83 7d 0c 00	 cmp	 DWORD PTR __Loc$[ebp+4], 0
  00037	75 0d		 jne	 SHORT $LN6@Insert_nod

; 673  :             _STL_INTERNAL_CHECK(_Loc._Parent->_Right->_Isnil);
; 674  :             _Loc._Parent->_Right = _Newnode;

  00039	89 7a 08	 mov	 DWORD PTR [edx+8], edi

; 675  :             if (_Loc._Parent == _Head->_Right) { // remember rightmost node

  0003c	3b 50 08	 cmp	 edx, DWORD PTR [eax+8]
  0003f	75 0d		 jne	 SHORT $LN9@Insert_nod

; 676  :                 _Head->_Right = _Newnode;

  00041	89 78 08	 mov	 DWORD PTR [eax+8], edi

; 677  :             }
; 678  :         } else { // add to left of _Loc._Parent

  00044	eb 08		 jmp	 SHORT $LN9@Insert_nod
$LN6@Insert_nod:

; 679  :             _STL_INTERNAL_CHECK(_Loc._Parent->_Left->_Isnil);
; 680  :             _Loc._Parent->_Left = _Newnode;

  00046	89 3a		 mov	 DWORD PTR [edx], edi

; 681  :             if (_Loc._Parent == _Head->_Left) { // remember leftmost node

  00048	3b 10		 cmp	 edx, DWORD PTR [eax]
  0004a	75 02		 jne	 SHORT $LN9@Insert_nod

; 682  :                 _Head->_Left = _Newnode;

  0004c	89 38		 mov	 DWORD PTR [eax], edi
$LN9@Insert_nod:

; 683  :             }
; 684  :         }
; 685  : 
; 686  :         for (_Nodeptr _Pnode = _Newnode; _Pnode->_Parent->_Color == _Red;) {

  0004e	8b 4f 04	 mov	 ecx, DWORD PTR [edi+4]
  00051	8b c7		 mov	 eax, edi
  00053	80 79 0c 00	 cmp	 BYTE PTR [ecx+12], 0
  00057	0f 85 7d 01 00
	00		 jne	 $LN3@Insert_nod
  0005d	56		 push	 esi
  0005e	66 90		 npad	 2
$LL4@Insert_nod:

; 687  :             if (_Pnode->_Parent == _Pnode->_Parent->_Parent->_Left) { // fixup red-red in left subtree

  00060	8b 50 04	 mov	 edx, DWORD PTR [eax+4]
  00063	8b 72 04	 mov	 esi, DWORD PTR [edx+4]
  00066	8b 0e		 mov	 ecx, DWORD PTR [esi]
  00068	3b d1		 cmp	 edx, ecx
  0006a	0f 85 aa 00 00
	00		 jne	 $LN10@Insert_nod

; 688  :                 const auto _Parent_sibling = _Pnode->_Parent->_Parent->_Right;

  00070	8b 4e 08	 mov	 ecx, DWORD PTR [esi+8]

; 689  :                 if (_Parent_sibling->_Color == _Red) { // parent's sibling has two red children, blacken both

  00073	80 79 0c 00	 cmp	 BYTE PTR [ecx+12], 0
  00077	0f 84 a3 00 00
	00		 je	 $LN82@Insert_nod

; 690  :                     _Pnode->_Parent->_Color          = _Black;
; 691  :                     _Parent_sibling->_Color          = _Black;
; 692  :                     _Pnode->_Parent->_Parent->_Color = _Red;
; 693  :                     _Pnode                           = _Pnode->_Parent->_Parent;
; 694  :                 } else { // parent's sibling has red and black children
; 695  :                     if (_Pnode == _Pnode->_Parent->_Right) { // rotate right child to left

  0007d	8b 72 08	 mov	 esi, DWORD PTR [edx+8]
  00080	3b c6		 cmp	 eax, esi
  00082	75 37		 jne	 SHORT $LN57@Insert_nod

; 475  :         _Wherenode->_Right = _Pnode->_Left;

  00084	8b 0e		 mov	 ecx, DWORD PTR [esi]

; 696  :                         _Pnode = _Pnode->_Parent;

  00086	8b c2		 mov	 eax, edx

; 475  :         _Wherenode->_Right = _Pnode->_Left;

  00088	89 4a 08	 mov	 DWORD PTR [edx+8], ecx

; 476  : 
; 477  :         if (!_Pnode->_Left->_Isnil) {

  0008b	8b 0e		 mov	 ecx, DWORD PTR [esi]
  0008d	80 79 0d 00	 cmp	 BYTE PTR [ecx+13], 0
  00091	75 03		 jne	 SHORT $LN21@Insert_nod

; 478  :             _Pnode->_Left->_Parent = _Wherenode;

  00093	89 41 04	 mov	 DWORD PTR [ecx+4], eax
$LN21@Insert_nod:

; 479  :         }
; 480  : 
; 481  :         _Pnode->_Parent = _Wherenode->_Parent;

  00096	8b 4a 04	 mov	 ecx, DWORD PTR [edx+4]
  00099	89 4e 04	 mov	 DWORD PTR [esi+4], ecx

; 482  : 
; 483  :         if (_Wherenode == _Myhead->_Parent) {

  0009c	8b 0b		 mov	 ecx, DWORD PTR [ebx]
  0009e	3b 41 04	 cmp	 eax, DWORD PTR [ecx+4]
  000a1	75 05		 jne	 SHORT $LN22@Insert_nod

; 484  :             _Myhead->_Parent = _Pnode;

  000a3	89 71 04	 mov	 DWORD PTR [ecx+4], esi
  000a6	eb 0e		 jmp	 SHORT $LN25@Insert_nod
$LN22@Insert_nod:

; 485  :         } else if (_Wherenode == _Wherenode->_Parent->_Left) {

  000a8	8b 4a 04	 mov	 ecx, DWORD PTR [edx+4]
  000ab	3b 01		 cmp	 eax, DWORD PTR [ecx]
  000ad	75 04		 jne	 SHORT $LN24@Insert_nod

; 486  :             _Wherenode->_Parent->_Left = _Pnode;

  000af	89 31		 mov	 DWORD PTR [ecx], esi

; 487  :         } else {

  000b1	eb 03		 jmp	 SHORT $LN25@Insert_nod
$LN24@Insert_nod:

; 488  :             _Wherenode->_Parent->_Right = _Pnode;

  000b3	89 71 08	 mov	 DWORD PTR [ecx+8], esi
$LN25@Insert_nod:

; 489  :         }
; 490  : 
; 491  :         _Pnode->_Left       = _Wherenode;

  000b6	89 06		 mov	 DWORD PTR [esi], eax

; 492  :         _Wherenode->_Parent = _Pnode;

  000b8	89 70 04	 mov	 DWORD PTR [eax+4], esi
$LN57@Insert_nod:

; 697  :                         _Lrotate(_Pnode);
; 698  :                     }
; 699  : 
; 700  :                     _Pnode->_Parent->_Color          = _Black; // propagate red up

  000bb	8b 48 04	 mov	 ecx, DWORD PTR [eax+4]
  000be	c6 41 0c 01	 mov	 BYTE PTR [ecx+12], 1

; 701  :                     _Pnode->_Parent->_Parent->_Color = _Red;

  000c2	8b 48 04	 mov	 ecx, DWORD PTR [eax+4]
  000c5	8b 49 04	 mov	 ecx, DWORD PTR [ecx+4]
  000c8	c6 41 0c 00	 mov	 BYTE PTR [ecx+12], 0

; 702  :                     _Rrotate(_Pnode->_Parent->_Parent);

  000cc	8b 48 04	 mov	 ecx, DWORD PTR [eax+4]
  000cf	8b 51 04	 mov	 edx, DWORD PTR [ecx+4]

; 496  :         _Nodeptr _Pnode   = _Wherenode->_Left;

  000d2	8b 32		 mov	 esi, DWORD PTR [edx]

; 497  :         _Wherenode->_Left = _Pnode->_Right;

  000d4	8b 4e 08	 mov	 ecx, DWORD PTR [esi+8]
  000d7	89 0a		 mov	 DWORD PTR [edx], ecx

; 498  : 
; 499  :         if (!_Pnode->_Right->_Isnil) {

  000d9	8b 4e 08	 mov	 ecx, DWORD PTR [esi+8]
  000dc	80 79 0d 00	 cmp	 BYTE PTR [ecx+13], 0
  000e0	75 03		 jne	 SHORT $LN29@Insert_nod

; 500  :             _Pnode->_Right->_Parent = _Wherenode;

  000e2	89 51 04	 mov	 DWORD PTR [ecx+4], edx
$LN29@Insert_nod:

; 501  :         }
; 502  : 
; 503  :         _Pnode->_Parent = _Wherenode->_Parent;

  000e5	8b 4a 04	 mov	 ecx, DWORD PTR [edx+4]
  000e8	89 4e 04	 mov	 DWORD PTR [esi+4], ecx

; 504  : 
; 505  :         if (_Wherenode == _Myhead->_Parent) {

  000eb	8b 0b		 mov	 ecx, DWORD PTR [ebx]
  000ed	3b 51 04	 cmp	 edx, DWORD PTR [ecx+4]
  000f0	75 0b		 jne	 SHORT $LN30@Insert_nod

; 506  :             _Myhead->_Parent = _Pnode;

  000f2	89 71 04	 mov	 DWORD PTR [ecx+4], esi

; 511  :         }
; 512  : 
; 513  :         _Pnode->_Right      = _Wherenode;

  000f5	89 56 08	 mov	 DWORD PTR [esi+8], edx

; 703  :                 }
; 704  :             } else { // fixup red-red in right subtree

  000f8	e9 cc 00 00 00	 jmp	 $LN81@Insert_nod
$LN30@Insert_nod:

; 507  :         } else if (_Wherenode == _Wherenode->_Parent->_Right) {

  000fd	8b 4a 04	 mov	 ecx, DWORD PTR [edx+4]
  00100	3b 51 08	 cmp	 edx, DWORD PTR [ecx+8]
  00103	75 0b		 jne	 SHORT $LN32@Insert_nod

; 508  :             _Wherenode->_Parent->_Right = _Pnode;

  00105	89 71 08	 mov	 DWORD PTR [ecx+8], esi

; 511  :         }
; 512  : 
; 513  :         _Pnode->_Right      = _Wherenode;

  00108	89 56 08	 mov	 DWORD PTR [esi+8], edx

; 703  :                 }
; 704  :             } else { // fixup red-red in right subtree

  0010b	e9 b9 00 00 00	 jmp	 $LN81@Insert_nod
$LN32@Insert_nod:

; 510  :             _Wherenode->_Parent->_Left = _Pnode;

  00110	89 31		 mov	 DWORD PTR [ecx], esi

; 511  :         }
; 512  : 
; 513  :         _Pnode->_Right      = _Wherenode;

  00112	89 56 08	 mov	 DWORD PTR [esi+8], edx

; 703  :                 }
; 704  :             } else { // fixup red-red in right subtree

  00115	e9 af 00 00 00	 jmp	 $LN81@Insert_nod
$LN10@Insert_nod:

; 705  :                 const auto _Parent_sibling = _Pnode->_Parent->_Parent->_Left;
; 706  :                 if (_Parent_sibling->_Color == _Red) { // parent's sibling has two red children, blacken both

  0011a	80 79 0c 00	 cmp	 BYTE PTR [ecx+12], 0
  0011e	75 1d		 jne	 SHORT $LN15@Insert_nod
$LN82@Insert_nod:

; 683  :             }
; 684  :         }
; 685  : 
; 686  :         for (_Nodeptr _Pnode = _Newnode; _Pnode->_Parent->_Color == _Red;) {

  00120	c6 42 0c 01	 mov	 BYTE PTR [edx+12], 1
  00124	c6 41 0c 01	 mov	 BYTE PTR [ecx+12], 1
  00128	8b 48 04	 mov	 ecx, DWORD PTR [eax+4]
  0012b	8b 49 04	 mov	 ecx, DWORD PTR [ecx+4]
  0012e	c6 41 0c 00	 mov	 BYTE PTR [ecx+12], 0
  00132	8b 48 04	 mov	 ecx, DWORD PTR [eax+4]
  00135	8b 41 04	 mov	 eax, DWORD PTR [ecx+4]
  00138	e9 8f 00 00 00	 jmp	 $LN2@Insert_nod
$LN15@Insert_nod:

; 707  :                     _Pnode->_Parent->_Color          = _Black;
; 708  :                     _Parent_sibling->_Color          = _Black;
; 709  :                     _Pnode->_Parent->_Parent->_Color = _Red;
; 710  :                     _Pnode                           = _Pnode->_Parent->_Parent;
; 711  :                 } else { // parent's sibling has red and black children
; 712  :                     if (_Pnode == _Pnode->_Parent->_Left) { // rotate left child to right

  0013d	8b 32		 mov	 esi, DWORD PTR [edx]
  0013f	3b c6		 cmp	 eax, esi
  00141	75 3a		 jne	 SHORT $LN42@Insert_nod

; 497  :         _Wherenode->_Left = _Pnode->_Right;

  00143	8b 4e 08	 mov	 ecx, DWORD PTR [esi+8]

; 713  :                         _Pnode = _Pnode->_Parent;

  00146	8b c2		 mov	 eax, edx

; 497  :         _Wherenode->_Left = _Pnode->_Right;

  00148	89 08		 mov	 DWORD PTR [eax], ecx

; 498  : 
; 499  :         if (!_Pnode->_Right->_Isnil) {

  0014a	8b 4e 08	 mov	 ecx, DWORD PTR [esi+8]
  0014d	80 79 0d 00	 cmp	 BYTE PTR [ecx+13], 0
  00151	75 03		 jne	 SHORT $LN37@Insert_nod

; 500  :             _Pnode->_Right->_Parent = _Wherenode;

  00153	89 41 04	 mov	 DWORD PTR [ecx+4], eax
$LN37@Insert_nod:

; 501  :         }
; 502  : 
; 503  :         _Pnode->_Parent = _Wherenode->_Parent;

  00156	8b 4a 04	 mov	 ecx, DWORD PTR [edx+4]
  00159	89 4e 04	 mov	 DWORD PTR [esi+4], ecx

; 504  : 
; 505  :         if (_Wherenode == _Myhead->_Parent) {

  0015c	8b 0b		 mov	 ecx, DWORD PTR [ebx]
  0015e	3b 41 04	 cmp	 eax, DWORD PTR [ecx+4]
  00161	75 05		 jne	 SHORT $LN38@Insert_nod

; 506  :             _Myhead->_Parent = _Pnode;

  00163	89 71 04	 mov	 DWORD PTR [ecx+4], esi
  00166	eb 0f		 jmp	 SHORT $LN41@Insert_nod
$LN38@Insert_nod:

; 507  :         } else if (_Wherenode == _Wherenode->_Parent->_Right) {

  00168	8b 4a 04	 mov	 ecx, DWORD PTR [edx+4]
  0016b	3b 41 08	 cmp	 eax, DWORD PTR [ecx+8]
  0016e	75 05		 jne	 SHORT $LN40@Insert_nod

; 508  :             _Wherenode->_Parent->_Right = _Pnode;

  00170	89 71 08	 mov	 DWORD PTR [ecx+8], esi

; 509  :         } else {

  00173	eb 02		 jmp	 SHORT $LN41@Insert_nod
$LN40@Insert_nod:

; 510  :             _Wherenode->_Parent->_Left = _Pnode;

  00175	89 31		 mov	 DWORD PTR [ecx], esi
$LN41@Insert_nod:

; 511  :         }
; 512  : 
; 513  :         _Pnode->_Right      = _Wherenode;

  00177	89 46 08	 mov	 DWORD PTR [esi+8], eax

; 514  :         _Wherenode->_Parent = _Pnode;

  0017a	89 70 04	 mov	 DWORD PTR [eax+4], esi
$LN42@Insert_nod:

; 714  :                         _Rrotate(_Pnode);
; 715  :                     }
; 716  : 
; 717  :                     _Pnode->_Parent->_Color          = _Black; // propagate red up

  0017d	8b 48 04	 mov	 ecx, DWORD PTR [eax+4]
  00180	c6 41 0c 01	 mov	 BYTE PTR [ecx+12], 1

; 718  :                     _Pnode->_Parent->_Parent->_Color = _Red;

  00184	8b 48 04	 mov	 ecx, DWORD PTR [eax+4]
  00187	8b 49 04	 mov	 ecx, DWORD PTR [ecx+4]
  0018a	c6 41 0c 00	 mov	 BYTE PTR [ecx+12], 0

; 719  :                     _Lrotate(_Pnode->_Parent->_Parent);

  0018e	8b 48 04	 mov	 ecx, DWORD PTR [eax+4]
  00191	8b 51 04	 mov	 edx, DWORD PTR [ecx+4]

; 474  :         _Nodeptr _Pnode    = _Wherenode->_Right;

  00194	8b 72 08	 mov	 esi, DWORD PTR [edx+8]

; 475  :         _Wherenode->_Right = _Pnode->_Left;

  00197	8b 0e		 mov	 ecx, DWORD PTR [esi]
  00199	89 4a 08	 mov	 DWORD PTR [edx+8], ecx

; 476  : 
; 477  :         if (!_Pnode->_Left->_Isnil) {

  0019c	8b 0e		 mov	 ecx, DWORD PTR [esi]
  0019e	80 79 0d 00	 cmp	 BYTE PTR [ecx+13], 0
  001a2	75 03		 jne	 SHORT $LN45@Insert_nod

; 478  :             _Pnode->_Left->_Parent = _Wherenode;

  001a4	89 51 04	 mov	 DWORD PTR [ecx+4], edx
$LN45@Insert_nod:

; 479  :         }
; 480  : 
; 481  :         _Pnode->_Parent = _Wherenode->_Parent;

  001a7	8b 4a 04	 mov	 ecx, DWORD PTR [edx+4]
  001aa	89 4e 04	 mov	 DWORD PTR [esi+4], ecx

; 482  : 
; 483  :         if (_Wherenode == _Myhead->_Parent) {

  001ad	8b 0b		 mov	 ecx, DWORD PTR [ebx]
  001af	3b 51 04	 cmp	 edx, DWORD PTR [ecx+4]
  001b2	75 05		 jne	 SHORT $LN46@Insert_nod

; 484  :             _Myhead->_Parent = _Pnode;

  001b4	89 71 04	 mov	 DWORD PTR [ecx+4], esi
  001b7	eb 0e		 jmp	 SHORT $LN49@Insert_nod
$LN46@Insert_nod:

; 485  :         } else if (_Wherenode == _Wherenode->_Parent->_Left) {

  001b9	8b 4a 04	 mov	 ecx, DWORD PTR [edx+4]
  001bc	3b 11		 cmp	 edx, DWORD PTR [ecx]
  001be	75 04		 jne	 SHORT $LN48@Insert_nod

; 486  :             _Wherenode->_Parent->_Left = _Pnode;

  001c0	89 31		 mov	 DWORD PTR [ecx], esi

; 487  :         } else {

  001c2	eb 03		 jmp	 SHORT $LN49@Insert_nod
$LN48@Insert_nod:

; 488  :             _Wherenode->_Parent->_Right = _Pnode;

  001c4	89 71 08	 mov	 DWORD PTR [ecx+8], esi
$LN49@Insert_nod:

; 489  :         }
; 490  : 
; 491  :         _Pnode->_Left       = _Wherenode;

  001c7	89 16		 mov	 DWORD PTR [esi], edx
$LN81@Insert_nod:

; 683  :             }
; 684  :         }
; 685  : 
; 686  :         for (_Nodeptr _Pnode = _Newnode; _Pnode->_Parent->_Color == _Red;) {

  001c9	89 72 04	 mov	 DWORD PTR [edx+4], esi
$LN2@Insert_nod:
  001cc	8b 48 04	 mov	 ecx, DWORD PTR [eax+4]
  001cf	80 79 0c 00	 cmp	 BYTE PTR [ecx+12], 0
  001d3	0f 84 87 fe ff
	ff		 je	 $LL4@Insert_nod
  001d9	5e		 pop	 esi
$LN3@Insert_nod:

; 720  :                 }
; 721  :             }
; 722  :         }
; 723  : 
; 724  :         _Head->_Parent->_Color = _Black; // root is always black

  001da	8b 45 fc	 mov	 eax, DWORD PTR __Head$1$[ebp]
  001dd	8b 40 04	 mov	 eax, DWORD PTR [eax+4]
  001e0	c6 40 0c 01	 mov	 BYTE PTR [eax+12], 1

; 725  :         return _Newnode;
; 726  :     }

  001e4	8b c7		 mov	 eax, edi
  001e6	5f		 pop	 edi
  001e7	5b		 pop	 ebx
  001e8	8b e5		 mov	 esp, ebp
  001ea	5d		 pop	 ebp
  001eb	c2 0c 00	 ret	 12			; 0000000cH
?_Insert_node@?$_Tree_val@U?$_Tree_simple_types@U?$pair@$$CBV?$basic_string@DU?$char_traits@D@std@@V?$allocator@D@2@@std@@V?$vector@V?$basic_string@DU?$char_traits@D@std@@V?$allocator@D@2@@std@@V?$allocator@V?$basic_string@DU?$char_traits@D@std@@V?$allocator@D@2@@std@@@2@@2@@std@@@std@@@std@@QAEPAU?$_Tree_node@U?$pair@$$CBV?$basic_string@DU?$char_traits@D@std@@V?$allocator@D@2@@std@@V?$vector@V?$basic_string@DU?$char_traits@D@std@@V?$allocator@D@2@@std@@V?$allocator@V?$basic_string@DU?$char_traits@D@std@@V?$allocator@D@2@@std@@@2@@2@@std@@PAX@2@U?$_Tree_id@PAU?$_Tree_node@U?$pair@$$CBV?$basic_string@DU?$char_traits@D@std@@V?$allocator@D@2@@std@@V?$vector@V?$basic_string@DU?$char_traits@D@std@@V?$allocator@D@2@@std@@V?$allocator@V?$basic_string@DU?$char_traits@D@std@@V?$allocator@D@2@@std@@@2@@2@@std@@PAX@std@@@2@QAU32@@Z ENDP ; std::_Tree_val<std::_Tree_simple_types<std::pair<std::basic_string<char,std::char_traits<char>,std::allocator<char> > const ,std::vector<std::basic_string<char,std::char_traits<char>,std::allocator<char> >,std::allocator<std::basic_string<char,std::char_traits<char>,std::allocator<char> > > > > > >::_Insert_node
_TEXT	ENDS
; Function compile flags: /Ogtp
; File D:\Program Files\Microsoft Visual Studio\2022\Community\VC\Tools\MSVC\14.43.34808\include\xtree
;	COMDAT ?_Insert_node@?$_Tree_val@U?$_Tree_simple_types@U?$pair@$$CBV?$basic_string@DU?$char_traits@D@std@@V?$allocator@D@2@@std@@V12@@std@@@std@@@std@@QAEPAU?$_Tree_node@U?$pair@$$CBV?$basic_string@DU?$char_traits@D@std@@V?$allocator@D@2@@std@@V12@@std@@PAX@2@U?$_Tree_id@PAU?$_Tree_node@U?$pair@$$CBV?$basic_string@DU?$char_traits@D@std@@V?$allocator@D@2@@std@@V12@@std@@PAX@std@@@2@QAU32@@Z
_TEXT	SEGMENT
__Head$1$ = -4						; size = 4
__Loc$ = 8						; size = 8
__Newnode$ = 16						; size = 4
?_Insert_node@?$_Tree_val@U?$_Tree_simple_types@U?$pair@$$CBV?$basic_string@DU?$char_traits@D@std@@V?$allocator@D@2@@std@@V12@@std@@@std@@@std@@QAEPAU?$_Tree_node@U?$pair@$$CBV?$basic_string@DU?$char_traits@D@std@@V?$allocator@D@2@@std@@V12@@std@@PAX@2@U?$_Tree_id@PAU?$_Tree_node@U?$pair@$$CBV?$basic_string@DU?$char_traits@D@std@@V?$allocator@D@2@@std@@V12@@std@@PAX@std@@@2@QAU32@@Z PROC ; std::_Tree_val<std::_Tree_simple_types<std::pair<std::basic_string<char,std::char_traits<char>,std::allocator<char> > const ,std::basic_string<char,std::char_traits<char>,std::allocator<char> > > > >::_Insert_node, COMDAT
; _this$ = ecx

; 659  :     _Nodeptr _Insert_node(const _Tree_id<_Nodeptr> _Loc, const _Nodeptr _Newnode) noexcept {

  00000	55		 push	 ebp
  00001	8b ec		 mov	 ebp, esp
  00003	51		 push	 ecx

; 660  :         ++_Mysize;
; 661  :         const auto _Head  = _Myhead;
; 662  :         _Newnode->_Parent = _Loc._Parent;

  00004	8b 55 08	 mov	 edx, DWORD PTR __Loc$[ebp]
  00007	53		 push	 ebx
  00008	8b d9		 mov	 ebx, ecx
  0000a	57		 push	 edi
  0000b	8b 7d 10	 mov	 edi, DWORD PTR __Newnode$[ebp]
  0000e	8b 03		 mov	 eax, DWORD PTR [ebx]
  00010	ff 43 04	 inc	 DWORD PTR [ebx+4]
  00013	89 45 fc	 mov	 DWORD PTR __Head$1$[ebp], eax
  00016	89 57 04	 mov	 DWORD PTR [edi+4], edx

; 663  :         if (_Loc._Parent == _Head) { // first node in tree, just set head values

  00019	3b d0		 cmp	 edx, eax
  0001b	75 16		 jne	 SHORT $LN5@Insert_nod

; 664  :             _Head->_Left     = _Newnode;

  0001d	89 38		 mov	 DWORD PTR [eax], edi

; 665  :             _Head->_Parent   = _Newnode;

  0001f	89 78 04	 mov	 DWORD PTR [eax+4], edi

; 666  :             _Head->_Right    = _Newnode;

  00022	89 78 08	 mov	 DWORD PTR [eax+8], edi

; 725  :         return _Newnode;
; 726  :     }

  00025	8b c7		 mov	 eax, edi
  00027	c6 47 0c 01	 mov	 BYTE PTR [edi+12], 1
  0002b	5f		 pop	 edi
  0002c	5b		 pop	 ebx
  0002d	8b e5		 mov	 esp, ebp
  0002f	5d		 pop	 ebp
  00030	c2 0c 00	 ret	 12			; 0000000cH
$LN5@Insert_nod:

; 667  :             _Newnode->_Color = _Black; // the root is black
; 668  :             return _Newnode;
; 669  :         }
; 670  : 
; 671  :         _STL_INTERNAL_CHECK(_Loc._Child != _Tree_child::_Unused);
; 672  :         if (_Loc._Child == _Tree_child::_Right) { // add to right of _Loc._Parent

  00033	83 7d 0c 00	 cmp	 DWORD PTR __Loc$[ebp+4], 0
  00037	75 0d		 jne	 SHORT $LN6@Insert_nod

; 673  :             _STL_INTERNAL_CHECK(_Loc._Parent->_Right->_Isnil);
; 674  :             _Loc._Parent->_Right = _Newnode;

  00039	89 7a 08	 mov	 DWORD PTR [edx+8], edi

; 675  :             if (_Loc._Parent == _Head->_Right) { // remember rightmost node

  0003c	3b 50 08	 cmp	 edx, DWORD PTR [eax+8]
  0003f	75 0d		 jne	 SHORT $LN9@Insert_nod

; 676  :                 _Head->_Right = _Newnode;

  00041	89 78 08	 mov	 DWORD PTR [eax+8], edi

; 677  :             }
; 678  :         } else { // add to left of _Loc._Parent

  00044	eb 08		 jmp	 SHORT $LN9@Insert_nod
$LN6@Insert_nod:

; 679  :             _STL_INTERNAL_CHECK(_Loc._Parent->_Left->_Isnil);
; 680  :             _Loc._Parent->_Left = _Newnode;

  00046	89 3a		 mov	 DWORD PTR [edx], edi

; 681  :             if (_Loc._Parent == _Head->_Left) { // remember leftmost node

  00048	3b 10		 cmp	 edx, DWORD PTR [eax]
  0004a	75 02		 jne	 SHORT $LN9@Insert_nod

; 682  :                 _Head->_Left = _Newnode;

  0004c	89 38		 mov	 DWORD PTR [eax], edi
$LN9@Insert_nod:

; 683  :             }
; 684  :         }
; 685  : 
; 686  :         for (_Nodeptr _Pnode = _Newnode; _Pnode->_Parent->_Color == _Red;) {

  0004e	8b 4f 04	 mov	 ecx, DWORD PTR [edi+4]
  00051	8b c7		 mov	 eax, edi
  00053	80 79 0c 00	 cmp	 BYTE PTR [ecx+12], 0
  00057	0f 85 7d 01 00
	00		 jne	 $LN3@Insert_nod
  0005d	56		 push	 esi
  0005e	66 90		 npad	 2
$LL4@Insert_nod:

; 687  :             if (_Pnode->_Parent == _Pnode->_Parent->_Parent->_Left) { // fixup red-red in left subtree

  00060	8b 50 04	 mov	 edx, DWORD PTR [eax+4]
  00063	8b 72 04	 mov	 esi, DWORD PTR [edx+4]
  00066	8b 0e		 mov	 ecx, DWORD PTR [esi]
  00068	3b d1		 cmp	 edx, ecx
  0006a	0f 85 aa 00 00
	00		 jne	 $LN10@Insert_nod

; 688  :                 const auto _Parent_sibling = _Pnode->_Parent->_Parent->_Right;

  00070	8b 4e 08	 mov	 ecx, DWORD PTR [esi+8]

; 689  :                 if (_Parent_sibling->_Color == _Red) { // parent's sibling has two red children, blacken both

  00073	80 79 0c 00	 cmp	 BYTE PTR [ecx+12], 0
  00077	0f 84 a3 00 00
	00		 je	 $LN82@Insert_nod

; 690  :                     _Pnode->_Parent->_Color          = _Black;
; 691  :                     _Parent_sibling->_Color          = _Black;
; 692  :                     _Pnode->_Parent->_Parent->_Color = _Red;
; 693  :                     _Pnode                           = _Pnode->_Parent->_Parent;
; 694  :                 } else { // parent's sibling has red and black children
; 695  :                     if (_Pnode == _Pnode->_Parent->_Right) { // rotate right child to left

  0007d	8b 72 08	 mov	 esi, DWORD PTR [edx+8]
  00080	3b c6		 cmp	 eax, esi
  00082	75 37		 jne	 SHORT $LN57@Insert_nod

; 475  :         _Wherenode->_Right = _Pnode->_Left;

  00084	8b 0e		 mov	 ecx, DWORD PTR [esi]

; 696  :                         _Pnode = _Pnode->_Parent;

  00086	8b c2		 mov	 eax, edx

; 475  :         _Wherenode->_Right = _Pnode->_Left;

  00088	89 4a 08	 mov	 DWORD PTR [edx+8], ecx

; 476  : 
; 477  :         if (!_Pnode->_Left->_Isnil) {

  0008b	8b 0e		 mov	 ecx, DWORD PTR [esi]
  0008d	80 79 0d 00	 cmp	 BYTE PTR [ecx+13], 0
  00091	75 03		 jne	 SHORT $LN21@Insert_nod

; 478  :             _Pnode->_Left->_Parent = _Wherenode;

  00093	89 41 04	 mov	 DWORD PTR [ecx+4], eax
$LN21@Insert_nod:

; 479  :         }
; 480  : 
; 481  :         _Pnode->_Parent = _Wherenode->_Parent;

  00096	8b 4a 04	 mov	 ecx, DWORD PTR [edx+4]
  00099	89 4e 04	 mov	 DWORD PTR [esi+4], ecx

; 482  : 
; 483  :         if (_Wherenode == _Myhead->_Parent) {

  0009c	8b 0b		 mov	 ecx, DWORD PTR [ebx]
  0009e	3b 41 04	 cmp	 eax, DWORD PTR [ecx+4]
  000a1	75 05		 jne	 SHORT $LN22@Insert_nod

; 484  :             _Myhead->_Parent = _Pnode;

  000a3	89 71 04	 mov	 DWORD PTR [ecx+4], esi
  000a6	eb 0e		 jmp	 SHORT $LN25@Insert_nod
$LN22@Insert_nod:

; 485  :         } else if (_Wherenode == _Wherenode->_Parent->_Left) {

  000a8	8b 4a 04	 mov	 ecx, DWORD PTR [edx+4]
  000ab	3b 01		 cmp	 eax, DWORD PTR [ecx]
  000ad	75 04		 jne	 SHORT $LN24@Insert_nod

; 486  :             _Wherenode->_Parent->_Left = _Pnode;

  000af	89 31		 mov	 DWORD PTR [ecx], esi

; 487  :         } else {

  000b1	eb 03		 jmp	 SHORT $LN25@Insert_nod
$LN24@Insert_nod:

; 488  :             _Wherenode->_Parent->_Right = _Pnode;

  000b3	89 71 08	 mov	 DWORD PTR [ecx+8], esi
$LN25@Insert_nod:

; 489  :         }
; 490  : 
; 491  :         _Pnode->_Left       = _Wherenode;

  000b6	89 06		 mov	 DWORD PTR [esi], eax

; 492  :         _Wherenode->_Parent = _Pnode;

  000b8	89 70 04	 mov	 DWORD PTR [eax+4], esi
$LN57@Insert_nod:

; 697  :                         _Lrotate(_Pnode);
; 698  :                     }
; 699  : 
; 700  :                     _Pnode->_Parent->_Color          = _Black; // propagate red up

  000bb	8b 48 04	 mov	 ecx, DWORD PTR [eax+4]
  000be	c6 41 0c 01	 mov	 BYTE PTR [ecx+12], 1

; 701  :                     _Pnode->_Parent->_Parent->_Color = _Red;

  000c2	8b 48 04	 mov	 ecx, DWORD PTR [eax+4]
  000c5	8b 49 04	 mov	 ecx, DWORD PTR [ecx+4]
  000c8	c6 41 0c 00	 mov	 BYTE PTR [ecx+12], 0

; 702  :                     _Rrotate(_Pnode->_Parent->_Parent);

  000cc	8b 48 04	 mov	 ecx, DWORD PTR [eax+4]
  000cf	8b 51 04	 mov	 edx, DWORD PTR [ecx+4]

; 496  :         _Nodeptr _Pnode   = _Wherenode->_Left;

  000d2	8b 32		 mov	 esi, DWORD PTR [edx]

; 497  :         _Wherenode->_Left = _Pnode->_Right;

  000d4	8b 4e 08	 mov	 ecx, DWORD PTR [esi+8]
  000d7	89 0a		 mov	 DWORD PTR [edx], ecx

; 498  : 
; 499  :         if (!_Pnode->_Right->_Isnil) {

  000d9	8b 4e 08	 mov	 ecx, DWORD PTR [esi+8]
  000dc	80 79 0d 00	 cmp	 BYTE PTR [ecx+13], 0
  000e0	75 03		 jne	 SHORT $LN29@Insert_nod

; 500  :             _Pnode->_Right->_Parent = _Wherenode;

  000e2	89 51 04	 mov	 DWORD PTR [ecx+4], edx
$LN29@Insert_nod:

; 501  :         }
; 502  : 
; 503  :         _Pnode->_Parent = _Wherenode->_Parent;

  000e5	8b 4a 04	 mov	 ecx, DWORD PTR [edx+4]
  000e8	89 4e 04	 mov	 DWORD PTR [esi+4], ecx

; 504  : 
; 505  :         if (_Wherenode == _Myhead->_Parent) {

  000eb	8b 0b		 mov	 ecx, DWORD PTR [ebx]
  000ed	3b 51 04	 cmp	 edx, DWORD PTR [ecx+4]
  000f0	75 0b		 jne	 SHORT $LN30@Insert_nod

; 506  :             _Myhead->_Parent = _Pnode;

  000f2	89 71 04	 mov	 DWORD PTR [ecx+4], esi

; 511  :         }
; 512  : 
; 513  :         _Pnode->_Right      = _Wherenode;

  000f5	89 56 08	 mov	 DWORD PTR [esi+8], edx

; 703  :                 }
; 704  :             } else { // fixup red-red in right subtree

  000f8	e9 cc 00 00 00	 jmp	 $LN81@Insert_nod
$LN30@Insert_nod:

; 507  :         } else if (_Wherenode == _Wherenode->_Parent->_Right) {

  000fd	8b 4a 04	 mov	 ecx, DWORD PTR [edx+4]
  00100	3b 51 08	 cmp	 edx, DWORD PTR [ecx+8]
  00103	75 0b		 jne	 SHORT $LN32@Insert_nod

; 508  :             _Wherenode->_Parent->_Right = _Pnode;

  00105	89 71 08	 mov	 DWORD PTR [ecx+8], esi

; 511  :         }
; 512  : 
; 513  :         _Pnode->_Right      = _Wherenode;

  00108	89 56 08	 mov	 DWORD PTR [esi+8], edx

; 703  :                 }
; 704  :             } else { // fixup red-red in right subtree

  0010b	e9 b9 00 00 00	 jmp	 $LN81@Insert_nod
$LN32@Insert_nod:

; 510  :             _Wherenode->_Parent->_Left = _Pnode;

  00110	89 31		 mov	 DWORD PTR [ecx], esi

; 511  :         }
; 512  : 
; 513  :         _Pnode->_Right      = _Wherenode;

  00112	89 56 08	 mov	 DWORD PTR [esi+8], edx

; 703  :                 }
; 704  :             } else { // fixup red-red in right subtree

  00115	e9 af 00 00 00	 jmp	 $LN81@Insert_nod
$LN10@Insert_nod:

; 705  :                 const auto _Parent_sibling = _Pnode->_Parent->_Parent->_Left;
; 706  :                 if (_Parent_sibling->_Color == _Red) { // parent's sibling has two red children, blacken both

  0011a	80 79 0c 00	 cmp	 BYTE PTR [ecx+12], 0
  0011e	75 1d		 jne	 SHORT $LN15@Insert_nod
$LN82@Insert_nod:

; 683  :             }
; 684  :         }
; 685  : 
; 686  :         for (_Nodeptr _Pnode = _Newnode; _Pnode->_Parent->_Color == _Red;) {

  00120	c6 42 0c 01	 mov	 BYTE PTR [edx+12], 1
  00124	c6 41 0c 01	 mov	 BYTE PTR [ecx+12], 1
  00128	8b 48 04	 mov	 ecx, DWORD PTR [eax+4]
  0012b	8b 49 04	 mov	 ecx, DWORD PTR [ecx+4]
  0012e	c6 41 0c 00	 mov	 BYTE PTR [ecx+12], 0
  00132	8b 48 04	 mov	 ecx, DWORD PTR [eax+4]
  00135	8b 41 04	 mov	 eax, DWORD PTR [ecx+4]
  00138	e9 8f 00 00 00	 jmp	 $LN2@Insert_nod
$LN15@Insert_nod:

; 707  :                     _Pnode->_Parent->_Color          = _Black;
; 708  :                     _Parent_sibling->_Color          = _Black;
; 709  :                     _Pnode->_Parent->_Parent->_Color = _Red;
; 710  :                     _Pnode                           = _Pnode->_Parent->_Parent;
; 711  :                 } else { // parent's sibling has red and black children
; 712  :                     if (_Pnode == _Pnode->_Parent->_Left) { // rotate left child to right

  0013d	8b 32		 mov	 esi, DWORD PTR [edx]
  0013f	3b c6		 cmp	 eax, esi
  00141	75 3a		 jne	 SHORT $LN42@Insert_nod

; 497  :         _Wherenode->_Left = _Pnode->_Right;

  00143	8b 4e 08	 mov	 ecx, DWORD PTR [esi+8]

; 713  :                         _Pnode = _Pnode->_Parent;

  00146	8b c2		 mov	 eax, edx

; 497  :         _Wherenode->_Left = _Pnode->_Right;

  00148	89 08		 mov	 DWORD PTR [eax], ecx

; 498  : 
; 499  :         if (!_Pnode->_Right->_Isnil) {

  0014a	8b 4e 08	 mov	 ecx, DWORD PTR [esi+8]
  0014d	80 79 0d 00	 cmp	 BYTE PTR [ecx+13], 0
  00151	75 03		 jne	 SHORT $LN37@Insert_nod

; 500  :             _Pnode->_Right->_Parent = _Wherenode;

  00153	89 41 04	 mov	 DWORD PTR [ecx+4], eax
$LN37@Insert_nod:

; 501  :         }
; 502  : 
; 503  :         _Pnode->_Parent = _Wherenode->_Parent;

  00156	8b 4a 04	 mov	 ecx, DWORD PTR [edx+4]
  00159	89 4e 04	 mov	 DWORD PTR [esi+4], ecx

; 504  : 
; 505  :         if (_Wherenode == _Myhead->_Parent) {

  0015c	8b 0b		 mov	 ecx, DWORD PTR [ebx]
  0015e	3b 41 04	 cmp	 eax, DWORD PTR [ecx+4]
  00161	75 05		 jne	 SHORT $LN38@Insert_nod

; 506  :             _Myhead->_Parent = _Pnode;

  00163	89 71 04	 mov	 DWORD PTR [ecx+4], esi
  00166	eb 0f		 jmp	 SHORT $LN41@Insert_nod
$LN38@Insert_nod:

; 507  :         } else if (_Wherenode == _Wherenode->_Parent->_Right) {

  00168	8b 4a 04	 mov	 ecx, DWORD PTR [edx+4]
  0016b	3b 41 08	 cmp	 eax, DWORD PTR [ecx+8]
  0016e	75 05		 jne	 SHORT $LN40@Insert_nod

; 508  :             _Wherenode->_Parent->_Right = _Pnode;

  00170	89 71 08	 mov	 DWORD PTR [ecx+8], esi

; 509  :         } else {

  00173	eb 02		 jmp	 SHORT $LN41@Insert_nod
$LN40@Insert_nod:

; 510  :             _Wherenode->_Parent->_Left = _Pnode;

  00175	89 31		 mov	 DWORD PTR [ecx], esi
$LN41@Insert_nod:

; 511  :         }
; 512  : 
; 513  :         _Pnode->_Right      = _Wherenode;

  00177	89 46 08	 mov	 DWORD PTR [esi+8], eax

; 514  :         _Wherenode->_Parent = _Pnode;

  0017a	89 70 04	 mov	 DWORD PTR [eax+4], esi
$LN42@Insert_nod:

; 714  :                         _Rrotate(_Pnode);
; 715  :                     }
; 716  : 
; 717  :                     _Pnode->_Parent->_Color          = _Black; // propagate red up

  0017d	8b 48 04	 mov	 ecx, DWORD PTR [eax+4]
  00180	c6 41 0c 01	 mov	 BYTE PTR [ecx+12], 1

; 718  :                     _Pnode->_Parent->_Parent->_Color = _Red;

  00184	8b 48 04	 mov	 ecx, DWORD PTR [eax+4]
  00187	8b 49 04	 mov	 ecx, DWORD PTR [ecx+4]
  0018a	c6 41 0c 00	 mov	 BYTE PTR [ecx+12], 0

; 719  :                     _Lrotate(_Pnode->_Parent->_Parent);

  0018e	8b 48 04	 mov	 ecx, DWORD PTR [eax+4]
  00191	8b 51 04	 mov	 edx, DWORD PTR [ecx+4]

; 474  :         _Nodeptr _Pnode    = _Wherenode->_Right;

  00194	8b 72 08	 mov	 esi, DWORD PTR [edx+8]

; 475  :         _Wherenode->_Right = _Pnode->_Left;

  00197	8b 0e		 mov	 ecx, DWORD PTR [esi]
  00199	89 4a 08	 mov	 DWORD PTR [edx+8], ecx

; 476  : 
; 477  :         if (!_Pnode->_Left->_Isnil) {

  0019c	8b 0e		 mov	 ecx, DWORD PTR [esi]
  0019e	80 79 0d 00	 cmp	 BYTE PTR [ecx+13], 0
  001a2	75 03		 jne	 SHORT $LN45@Insert_nod

; 478  :             _Pnode->_Left->_Parent = _Wherenode;

  001a4	89 51 04	 mov	 DWORD PTR [ecx+4], edx
$LN45@Insert_nod:

; 479  :         }
; 480  : 
; 481  :         _Pnode->_Parent = _Wherenode->_Parent;

  001a7	8b 4a 04	 mov	 ecx, DWORD PTR [edx+4]
  001aa	89 4e 04	 mov	 DWORD PTR [esi+4], ecx

; 482  : 
; 483  :         if (_Wherenode == _Myhead->_Parent) {

  001ad	8b 0b		 mov	 ecx, DWORD PTR [ebx]
  001af	3b 51 04	 cmp	 edx, DWORD PTR [ecx+4]
  001b2	75 05		 jne	 SHORT $LN46@Insert_nod

; 484  :             _Myhead->_Parent = _Pnode;

  001b4	89 71 04	 mov	 DWORD PTR [ecx+4], esi
  001b7	eb 0e		 jmp	 SHORT $LN49@Insert_nod
$LN46@Insert_nod:

; 485  :         } else if (_Wherenode == _Wherenode->_Parent->_Left) {

  001b9	8b 4a 04	 mov	 ecx, DWORD PTR [edx+4]
  001bc	3b 11		 cmp	 edx, DWORD PTR [ecx]
  001be	75 04		 jne	 SHORT $LN48@Insert_nod

; 486  :             _Wherenode->_Parent->_Left = _Pnode;

  001c0	89 31		 mov	 DWORD PTR [ecx], esi

; 487  :         } else {

  001c2	eb 03		 jmp	 SHORT $LN49@Insert_nod
$LN48@Insert_nod:

; 488  :             _Wherenode->_Parent->_Right = _Pnode;

  001c4	89 71 08	 mov	 DWORD PTR [ecx+8], esi
$LN49@Insert_nod:

; 489  :         }
; 490  : 
; 491  :         _Pnode->_Left       = _Wherenode;

  001c7	89 16		 mov	 DWORD PTR [esi], edx
$LN81@Insert_nod:

; 683  :             }
; 684  :         }
; 685  : 
; 686  :         for (_Nodeptr _Pnode = _Newnode; _Pnode->_Parent->_Color == _Red;) {

  001c9	89 72 04	 mov	 DWORD PTR [edx+4], esi
$LN2@Insert_nod:
  001cc	8b 48 04	 mov	 ecx, DWORD PTR [eax+4]
  001cf	80 79 0c 00	 cmp	 BYTE PTR [ecx+12], 0
  001d3	0f 84 87 fe ff
	ff		 je	 $LL4@Insert_nod
  001d9	5e		 pop	 esi
$LN3@Insert_nod:

; 720  :                 }
; 721  :             }
; 722  :         }
; 723  : 
; 724  :         _Head->_Parent->_Color = _Black; // root is always black

  001da	8b 45 fc	 mov	 eax, DWORD PTR __Head$1$[ebp]
  001dd	8b 40 04	 mov	 eax, DWORD PTR [eax+4]
  001e0	c6 40 0c 01	 mov	 BYTE PTR [eax+12], 1

; 725  :         return _Newnode;
; 726  :     }

  001e4	8b c7		 mov	 eax, edi
  001e6	5f		 pop	 edi
  001e7	5b		 pop	 ebx
  001e8	8b e5		 mov	 esp, ebp
  001ea	5d		 pop	 ebp
  001eb	c2 0c 00	 ret	 12			; 0000000cH
?_Insert_node@?$_Tree_val@U?$_Tree_simple_types@U?$pair@$$CBV?$basic_string@DU?$char_traits@D@std@@V?$allocator@D@2@@std@@V12@@std@@@std@@@std@@QAEPAU?$_Tree_node@U?$pair@$$CBV?$basic_string@DU?$char_traits@D@std@@V?$allocator@D@2@@std@@V12@@std@@PAX@2@U?$_Tree_id@PAU?$_Tree_node@U?$pair@$$CBV?$basic_string@DU?$char_traits@D@std@@V?$allocator@D@2@@std@@V12@@std@@PAX@std@@@2@QAU32@@Z ENDP ; std::_Tree_val<std::_Tree_simple_types<std::pair<std::basic_string<char,std::char_traits<char>,std::allocator<char> > const ,std::basic_string<char,std::char_traits<char>,std::allocator<char> > > > >::_Insert_node
_TEXT	ENDS
; Function compile flags: /Ogtp
; File C:\Marty 5.5\Src-Client\Client\EterLib\Util.cpp
;	COMDAT ?base64_decode@@YAXPBDPAD@Z
_TEXT	SEGMENT
tv390 = -24						; size = 4
_length$1$ = -20					; size = 4
tv236 = -20						; size = 4
_resultStr$GSCopy$1$ = -16				; size = 4
_szDest$ = -12						; size = 5
__$ArrayPad$ = -4					; size = 4
_str$ = 8						; size = 4
_resultStr$ = 12					; size = 4
?base64_decode@@YAXPBDPAD@Z PROC			; base64_decode, COMDAT

; 325  : {

  00000	55		 push	 ebp
  00001	8b ec		 mov	 ebp, esp
  00003	83 ec 18	 sub	 esp, 24			; 00000018H
  00006	a1 00 00 00 00	 mov	 eax, DWORD PTR ___security_cookie
  0000b	33 c5		 xor	 eax, ebp
  0000d	89 45 fc	 mov	 DWORD PTR __$ArrayPad$[ebp], eax

; 326  : 	int nCount=0, i=0, r, result;
; 327  : 	int length = strlen(str);

  00010	8b 4d 08	 mov	 ecx, DWORD PTR _str$[ebp]
  00013	8b 55 0c	 mov	 edx, DWORD PTR _resultStr$[ebp]
  00016	53		 push	 ebx
  00017	56		 push	 esi
  00018	57		 push	 edi
  00019	8b f9		 mov	 edi, ecx
  0001b	89 55 f0	 mov	 DWORD PTR _resultStr$GSCopy$1$[ebp], edx
  0001e	33 db		 xor	 ebx, ebx
  00020	8d 77 01	 lea	 esi, DWORD PTR [edi+1]
$LL36@base64_dec:
  00023	8a 07		 mov	 al, BYTE PTR [edi]
  00025	47		 inc	 edi
  00026	84 c0		 test	 al, al
  00028	75 f9		 jne	 SHORT $LL36@base64_dec
  0002a	2b fe		 sub	 edi, esi

; 328  : 	char szDest[5]="";

  0002c	89 5d f5	 mov	 DWORD PTR _szDest$[ebp+1], ebx
  0002f	89 7d ec	 mov	 DWORD PTR _length$1$[ebp], edi

; 329  : 
; 330  : 	strcpy(resultStr,"");

  00032	88 1a		 mov	 BYTE PTR [edx], bl

; 331  : 	while(nCount < length)

  00034	85 ff		 test	 edi, edi
  00036	0f 8e 33 01 00
	00		 jle	 $LN39@base64_dec
  0003c	0f 1f 40 00	 npad	 4
$LL2@base64_dec:

; 332  : 	{
; 333  : 		i=0;

  00040	33 f6		 xor	 esi, esi

; 334  : 		strcpy(szDest, "");

  00042	c6 45 f4 00	 mov	 BYTE PTR _szDest$[ebp], 0
$LL4@base64_dec:

; 335  : 		while(nCount<length && i<4)

  00046	83 fe 04	 cmp	 esi, 4
  00049	7d 2f		 jge	 SHORT $LN58@base64_dec

; 336  : 		{
; 337  : 			r = str[nCount++];

  0004b	0f be 04 0b	 movsx	 eax, BYTE PTR [ebx+ecx]
  0004f	43		 inc	 ebx

; 338  : 			result = __base64_get(r);

  00050	50		 push	 eax
  00051	e8 00 00 00 00	 call	 ?__base64_get@@YAHH@Z	; __base64_get
  00056	83 c4 04	 add	 esp, 4

; 339  : 			if(result!=-2)

  00059	83 f8 fe	 cmp	 eax, -2			; fffffffeH
  0005c	74 12		 je	 SHORT $LN11@base64_dec

; 340  : 			{
; 341  : 				if(result!=-1)

  0005e	8d 4d f4	 lea	 ecx, DWORD PTR _szDest$[ebp]
  00061	03 ce		 add	 ecx, esi
  00063	46		 inc	 esi
  00064	83 f8 ff	 cmp	 eax, -1
  00067	74 04		 je	 SHORT $LN10@base64_dec

; 342  : 					szDest[i++] = result;

  00069	88 01		 mov	 BYTE PTR [ecx], al
  0006b	eb 03		 jmp	 SHORT $LN11@base64_dec
$LN10@base64_dec:

; 343  : 				else szDest[i++] = '@';

  0006d	c6 01 40	 mov	 BYTE PTR [ecx], 64	; 00000040H
$LN11@base64_dec:

; 335  : 		while(nCount<length && i<4)

  00070	8b 4d 08	 mov	 ecx, DWORD PTR _str$[ebp]
  00073	3b df		 cmp	 ebx, edi
  00075	7c cf		 jl	 SHORT $LL4@base64_dec

; 344  : 			}
; 345  : 		}
; 346  : 
; 347  : 		if(i==4)

  00077	83 fe 04	 cmp	 esi, 4
$LN58@base64_dec:
  0007a	0f 85 be 00 00
	00		 jne	 $LN14@base64_dec

; 348  : 		{
; 349  : 			if( nCount+3 >= length )

  00080	8d 43 03	 lea	 eax, DWORD PTR [ebx+3]
  00083	3b c7		 cmp	 eax, edi
  00085	7c 6e		 jl	 SHORT $LN13@base64_dec

; 350  : 			{
; 351  : 				if( szDest[1] == '@' )

  00087	8a 45 f5	 mov	 al, BYTE PTR _szDest$[ebp+1]
  0008a	3c 40		 cmp	 al, 64			; 00000040H
  0008c	0f 84 c7 00 00
	00		 je	 $LN25@base64_dec

; 354  : 					break;
; 355  : 				}// exit while loop
; 356  : 				else
; 357  : 					__strcat1(resultStr,(szDest[0]<<2 | szDest[1]>>4));	// 1 Byte

  00092	0f be 4d f4	 movsx	 ecx, BYTE PTR _szDest$[ebp]
  00096	8b 55 f0	 mov	 edx, DWORD PTR _resultStr$GSCopy$1$[ebp]
  00099	0f be f0	 movsx	 esi, al
  0009c	8b c6		 mov	 eax, esi
  0009e	c1 e1 02	 shl	 ecx, 2
  000a1	c1 f8 04	 sar	 eax, 4
  000a4	0b c8		 or	 ecx, eax
  000a6	51		 push	 ecx
  000a7	52		 push	 edx
  000a8	e8 00 00 00 00	 call	 ?__strcat1@@YAXPADH@Z	; __strcat1

; 358  : 				if( szDest[2] == '@' )

  000ad	8a 45 f6	 mov	 al, BYTE PTR _szDest$[ebp+2]
  000b0	83 c4 08	 add	 esp, 8
  000b3	c1 e6 04	 shl	 esi, 4
  000b6	89 75 e8	 mov	 DWORD PTR tv390[ebp], esi
  000b9	3c 40		 cmp	 al, 64			; 00000040H
  000bb	0f 84 89 00 00
	00		 je	 $LN26@base64_dec

; 359  : 				{
; 360  : 					__strcat1(resultStr,(szDest[1]<<4));
; 361  : 					break;
; 362  : 				}
; 363  : 				else
; 364  : 					__strcat1(resultStr,(szDest[1]<<4 | szDest[2]>>2));	// 2 Byte

  000c1	0f be f0	 movsx	 esi, al
  000c4	8b c6		 mov	 eax, esi
  000c6	c1 f8 02	 sar	 eax, 2
  000c9	0b 45 e8	 or	 eax, DWORD PTR tv390[ebp]
  000cc	50		 push	 eax
  000cd	ff 75 f0	 push	 DWORD PTR _resultStr$GSCopy$1$[ebp]
  000d0	e8 00 00 00 00	 call	 ?__strcat1@@YAXPADH@Z	; __strcat1

; 365  : 				if( szDest[3] == '@' )

  000d5	8a 45 f7	 mov	 al, BYTE PTR _szDest$[ebp+3]
  000d8	83 c4 08	 add	 esp, 8
  000db	c1 e6 06	 shl	 esi, 6
  000de	3c 40		 cmp	 al, 64			; 00000040H
  000e0	74 68		 je	 SHORT $LN26@base64_dec

; 366  : 				{
; 367  : 					__strcat1(resultStr,(szDest[2]<<6));
; 368  : 					break;
; 369  : 				}
; 370  : 				else
; 371  : 					__strcat1(resultStr,(szDest[2]<<6 | szDest[3]));	// 3 Byte

  000e2	0f be c0	 movsx	 eax, al
  000e5	0b c6		 or	 eax, esi
  000e7	50		 push	 eax
  000e8	ff 75 f0	 push	 DWORD PTR _resultStr$GSCopy$1$[ebp]
  000eb	e8 00 00 00 00	 call	 ?__strcat1@@YAXPADH@Z	; __strcat1
  000f0	83 c4 08	 add	 esp, 8

; 372  : 			}

  000f3	eb 49		 jmp	 SHORT $LN14@base64_dec
$LN13@base64_dec:

; 373  : 			else
; 374  : 			{
; 375  : 				__strcat1(resultStr,(szDest[0]<<2 | szDest[1]>>4));	// 1 Byte

  000f5	0f be 7d f5	 movsx	 edi, BYTE PTR _szDest$[ebp+1]
  000f9	0f be 4d f4	 movsx	 ecx, BYTE PTR _szDest$[ebp]
  000fd	8b c7		 mov	 eax, edi
  000ff	c1 e1 02	 shl	 ecx, 2
  00102	c1 f8 04	 sar	 eax, 4
  00105	0b c8		 or	 ecx, eax
  00107	51		 push	 ecx
  00108	ff 75 f0	 push	 DWORD PTR _resultStr$GSCopy$1$[ebp]
  0010b	e8 00 00 00 00	 call	 ?__strcat1@@YAXPADH@Z	; __strcat1

; 376  : 				__strcat1(resultStr,(szDest[1]<<4 | szDest[2]>>2));	// 2 Byte

  00110	0f be 75 f6	 movsx	 esi, BYTE PTR _szDest$[ebp+2]
  00114	8b c6		 mov	 eax, esi
  00116	c1 e7 04	 shl	 edi, 4
  00119	c1 f8 02	 sar	 eax, 2
  0011c	0b c7		 or	 eax, edi
  0011e	8b 7d f0	 mov	 edi, DWORD PTR _resultStr$GSCopy$1$[ebp]
  00121	50		 push	 eax
  00122	57		 push	 edi
  00123	e8 00 00 00 00	 call	 ?__strcat1@@YAXPADH@Z	; __strcat1

; 377  : 				__strcat1(resultStr,(szDest[2]<<6 | szDest[3]));	// 3 Byte

  00128	0f be 45 f7	 movsx	 eax, BYTE PTR _szDest$[ebp+3]
  0012c	c1 e6 06	 shl	 esi, 6
  0012f	0b f0		 or	 esi, eax
  00131	56		 push	 esi
  00132	57		 push	 edi
  00133	e8 00 00 00 00	 call	 ?__strcat1@@YAXPADH@Z	; __strcat1
  00138	8b 7d ec	 mov	 edi, DWORD PTR _length$1$[ebp]
  0013b	83 c4 18	 add	 esp, 24			; 00000018H
$LN14@base64_dec:

; 331  : 	while(nCount < length)

  0013e	3b df		 cmp	 ebx, edi
  00140	7d 31		 jge	 SHORT $LN40@base64_dec
  00142	8b 4d 08	 mov	 ecx, DWORD PTR _str$[ebp]
  00145	e9 f6 fe ff ff	 jmp	 $LL2@base64_dec
$LN26@base64_dec:

; 378  : 			}
; 379  : 		}
; 380  : 
; 381  : 	}// end of while
; 382  : 
; 383  : 	for (i = 0; i < strlen(resultStr); i++)

  0014a	8b 5d f0	 mov	 ebx, DWORD PTR _resultStr$GSCopy$1$[ebp]
  0014d	56		 push	 esi
  0014e	53		 push	 ebx
  0014f	e8 00 00 00 00	 call	 ?__strcat1@@YAXPADH@Z	; __strcat1
  00154	83 c4 08	 add	 esp, 8
  00157	eb 1d		 jmp	 SHORT $LN29@base64_dec
$LN25@base64_dec:

; 352  : 				{
; 353  : 					__strcat1(resultStr,(szDest[0]<<2));

  00159	0f be 45 f4	 movsx	 eax, BYTE PTR _szDest$[ebp]
  0015d	8b 5d f0	 mov	 ebx, DWORD PTR _resultStr$GSCopy$1$[ebp]
  00160	c1 e0 02	 shl	 eax, 2
  00163	50		 push	 eax
  00164	53		 push	 ebx
  00165	e8 00 00 00 00	 call	 ?__strcat1@@YAXPADH@Z	; __strcat1
  0016a	83 c4 08	 add	 esp, 8
  0016d	eb 07		 jmp	 SHORT $LN29@base64_dec
$LN39@base64_dec:

; 331  : 	while(nCount < length)

  0016f	8b da		 mov	 ebx, edx
  00171	eb 03		 jmp	 SHORT $LN29@base64_dec
$LN40@base64_dec:
  00173	8b 5d f0	 mov	 ebx, DWORD PTR _resultStr$GSCopy$1$[ebp]
$LN29@base64_dec:

; 378  : 			}
; 379  : 		}
; 380  : 
; 381  : 	}// end of while
; 382  : 
; 383  : 	for (i = 0; i < strlen(resultStr); i++)

  00176	8b cb		 mov	 ecx, ebx
  00178	33 d2		 xor	 edx, edx
  0017a	8d 71 01	 lea	 esi, DWORD PTR [ecx+1]
  0017d	0f 1f 00	 npad	 3
$LL37@base64_dec:
  00180	8a 01		 mov	 al, BYTE PTR [ecx]
  00182	41		 inc	 ecx
  00183	84 c0		 test	 al, al
  00185	75 f9		 jne	 SHORT $LL37@base64_dec
  00187	2b ce		 sub	 ecx, esi
  00189	74 22		 je	 SHORT $LN7@base64_dec
  0018b	0f 1f 44 00 00	 npad	 5
$LL8@base64_dec:

; 384  : 	{
; 385  : 		char c = resultStr[i];
; 386  : 		int xx = i + 5;

  00190	8d 0c 13	 lea	 ecx, DWORD PTR [ebx+edx]
  00193	8d 42 05	 lea	 eax, DWORD PTR [edx+5]

; 387  : 		resultStr[i] = char(c ^ xx);

  00196	30 01		 xor	 BYTE PTR [ecx], al
  00198	8b cb		 mov	 ecx, ebx
  0019a	42		 inc	 edx
  0019b	8d 71 01	 lea	 esi, DWORD PTR [ecx+1]
  0019e	66 90		 npad	 2
$LL38@base64_dec:

; 378  : 			}
; 379  : 		}
; 380  : 
; 381  : 	}// end of while
; 382  : 
; 383  : 	for (i = 0; i < strlen(resultStr); i++)

  001a0	8a 01		 mov	 al, BYTE PTR [ecx]
  001a2	41		 inc	 ecx
  001a3	84 c0		 test	 al, al
  001a5	75 f9		 jne	 SHORT $LL38@base64_dec
  001a7	2b ce		 sub	 ecx, esi
  001a9	3b d1		 cmp	 edx, ecx
  001ab	72 e3		 jb	 SHORT $LL8@base64_dec
$LN7@base64_dec:

; 388  : 	}
; 389  : 	// E
; 390  : }

  001ad	8b 4d fc	 mov	 ecx, DWORD PTR __$ArrayPad$[ebp]
  001b0	5f		 pop	 edi
  001b1	5e		 pop	 esi
  001b2	33 cd		 xor	 ecx, ebp
  001b4	5b		 pop	 ebx
  001b5	e8 00 00 00 00	 call	 @__security_check_cookie@4
  001ba	8b e5		 mov	 esp, ebp
  001bc	5d		 pop	 ebp
  001bd	c3		 ret	 0
?base64_decode@@YAXPBDPAD@Z ENDP			; base64_decode
_TEXT	ENDS
; Function compile flags: /Ogtp
; File C:\Marty 5.5\Src-Client\Client\EterLib\Util.cpp
; File D:\Program Files\Microsoft Visual Studio\2022\Community\VC\Tools\MSVC\14.43.34808\include\xstring
; File D:\Program Files\Microsoft Visual Studio\2022\Community\VC\Tools\MSVC\14.43.34808\include\__msvc_string_view.hpp
; File D:\Program Files\Microsoft Visual Studio\2022\Community\VC\Tools\MSVC\14.43.34808\include\xstring
; File C:\Marty 5.5\Src-Client\Client\EterLib\Util.cpp
; File D:\Program Files\Microsoft Visual Studio\2022\Community\VC\Tools\MSVC\14.43.34808\include\xstring
; File D:\Program Files\Microsoft Visual Studio\2022\Community\VC\Tools\MSVC\14.43.34808\include\__msvc_string_view.hpp
; File D:\Program Files\Microsoft Visual Studio\2022\Community\VC\Tools\MSVC\14.43.34808\include\xstring
; File C:\Marty 5.5\Src-Client\Client\EterLib\Util.cpp
; File D:\Program Files\Microsoft Visual Studio\2022\Community\VC\Tools\MSVC\14.43.34808\include\xstring
; File C:\Marty 5.5\Src-Client\Client\EterLib\Util.cpp
; File D:\Program Files\Microsoft Visual Studio\2022\Community\VC\Tools\MSVC\14.43.34808\include\xstring
; File D:\Program Files\Microsoft Visual Studio\2022\Community\VC\Tools\MSVC\14.43.34808\include\xmemory
; File D:\Program Files\Microsoft Visual Studio\2022\Community\VC\Tools\MSVC\14.43.34808\include\xstring
; File D:\Program Files\Microsoft Visual Studio\2022\Community\VC\Tools\MSVC\14.43.34808\include\xmemory
; File C:\Marty 5.5\Src-Client\Client\EterLib\Util.cpp
; File D:\Program Files\Microsoft Visual Studio\2022\Community\VC\Tools\MSVC\14.43.34808\include\xmemory
; File C:\Marty 5.5\Src-Client\Client\EterLib\Util.cpp
;	COMDAT ?SetDefaultCodePage@@YA_NK@Z
_TEXT	SEGMENT
$T2 = -41						; size = 1
_fontFace$ = -40					; size = 24
__$ArrayPad$ = -16					; size = 4
__$EHRec$ = -12						; size = 12
_codePage$ = 8						; size = 4
?SetDefaultCodePage@@YA_NK@Z PROC			; SetDefaultCodePage, COMDAT

; 286  : {

  00000	55		 push	 ebp
  00001	8b ec		 mov	 ebp, esp
  00003	6a ff		 push	 -1
  00005	68 00 00 00 00	 push	 __ehhandler$?SetDefaultCodePage@@YA_NK@Z
  0000a	64 a1 00 00 00
	00		 mov	 eax, DWORD PTR fs:0
  00010	50		 push	 eax
  00011	83 ec 20	 sub	 esp, 32			; 00000020H
  00014	a1 00 00 00 00	 mov	 eax, DWORD PTR ___security_cookie
  00019	33 c5		 xor	 eax, ebp
  0001b	89 45 f0	 mov	 DWORD PTR __$ArrayPad$[ebp], eax
  0001e	56		 push	 esi
  0001f	50		 push	 eax
  00020	8d 45 f4	 lea	 eax, DWORD PTR __$EHRec$[ebp]
  00023	64 a3 00 00 00
	00		 mov	 DWORD PTR fs:0, eax

; 287  : 	gs_codePage=codePage;

  00029	8b 45 08	 mov	 eax, DWORD PTR _codePage$[ebp]

; 289  : 	std::string fontFace=GetFontFaceFromCodePage(codePage);

  0002c	50		 push	 eax
  0002d	a3 00 00 00 00	 mov	 DWORD PTR ?gs_codePage@@3KA, eax
  00032	e8 00 00 00 00	 call	 ?GetFontFaceFromCodePage@@YAPBDG@Z ; GetFontFaceFromCodePage
  00037	8b d0		 mov	 edx, eax
; File D:\Program Files\Microsoft Visual Studio\2022\Community\VC\Tools\MSVC\14.43.34808\include\xstring

; 498  :     size_type _Mysize = 0; // current length of string (size)

  00039	c7 45 e8 00 00
	00 00		 mov	 DWORD PTR _fontFace$[ebp+16], 0
; File D:\Program Files\Microsoft Visual Studio\2022\Community\VC\Tools\MSVC\14.43.34808\include\__msvc_string_view.hpp

; 430  :             return __builtin_strlen(_First);

  00040	8b ca		 mov	 ecx, edx
; File D:\Program Files\Microsoft Visual Studio\2022\Community\VC\Tools\MSVC\14.43.34808\include\xstring

; 499  :     size_type _Myres  = 0; // current storage reserved for string (capacity)

  00042	c7 45 ec 00 00
	00 00		 mov	 DWORD PTR _fontFace$[ebp+20], 0
  00049	0f 57 c0	 xorps	 xmm0, xmm0
; File C:\Marty 5.5\Src-Client\Client\EterLib\Util.cpp

; 289  : 	std::string fontFace=GetFontFaceFromCodePage(codePage);

  0004c	83 c4 04	 add	 esp, 4
; File D:\Program Files\Microsoft Visual Studio\2022\Community\VC\Tools\MSVC\14.43.34808\include\xstring

; 474  :         _CONSTEXPR20 _Bxty() noexcept : _Buf() {} // user-provided, for fancy pointers

  0004f	0f 11 45 d8	 movups	 XMMWORD PTR _fontFace$[ebp], xmm0
; File D:\Program Files\Microsoft Visual Studio\2022\Community\VC\Tools\MSVC\14.43.34808\include\__msvc_string_view.hpp

; 430  :             return __builtin_strlen(_First);

  00053	8d 71 01	 lea	 esi, DWORD PTR [ecx+1]
$LL90@SetDefault:
  00056	8a 01		 mov	 al, BYTE PTR [ecx]
  00058	41		 inc	 ecx
  00059	84 c0		 test	 al, al
  0005b	75 f9		 jne	 SHORT $LL90@SetDefault
  0005d	2b ce		 sub	 ecx, esi
; File D:\Program Files\Microsoft Visual Studio\2022\Community\VC\Tools\MSVC\14.43.34808\include\xstring

; 745  :         _Construct<_Construct_strategy::_From_ptr>(_Ptr, _Convert_size<size_type>(_Traits::length(_Ptr)));

  0005f	51		 push	 ecx
  00060	52		 push	 edx
  00061	8d 4d d8	 lea	 ecx, DWORD PTR _fontFace$[ebp]
  00064	e8 00 00 00 00	 call	 ??$_Construct@$00PBD@?$basic_string@DU?$char_traits@D@std@@V?$allocator@D@2@@std@@AAEXQBDI@Z ; std::basic_string<char,std::char_traits<char>,std::allocator<char> >::_Construct<1,char const *>

; 2458 :         return _Mypair._Myval2._Mysize == 0;

  00069	83 7d e8 00	 cmp	 DWORD PTR _fontFace$[ebp+16], 0
; File C:\Marty 5.5\Src-Client\Client\EterLib\Util.cpp

; 289  : 	std::string fontFace=GetFontFaceFromCodePage(codePage);

  0006d	c7 45 fc 00 00
	00 00		 mov	 DWORD PTR __$EHRec$[ebp+8], 0

; 290  : 	if (fontFace.empty())

  00074	75 06		 jne	 SHORT $LN2@SetDefault
  00076	c6 45 d7 00	 mov	 BYTE PTR $T2[ebp], 0
  0007a	eb 18		 jmp	 SHORT $LN5@SetDefault
$LN2@SetDefault:
; File D:\Program Files\Microsoft Visual Studio\2022\Community\VC\Tools\MSVC\14.43.34808\include\xstring

; 434  :         return _Myres > _Small_string_capacity;

  0007c	83 7d ec 0f	 cmp	 DWORD PTR _fontFace$[ebp+20], 15 ; 0000000fH

; 425  :         const value_type* _Result = _Bx._Buf;

  00080	8d 45 d8	 lea	 eax, DWORD PTR _fontFace$[ebp]

; 426  :         if (_Large_mode_engaged()) {

  00083	0f 47 45 d8	 cmova	 eax, DWORD PTR _fontFace$[ebp]
; File C:\Marty 5.5\Src-Client\Client\EterLib\Util.cpp

; 293  : 	SetDefaultFontFace(fontFace.c_str());

  00087	50		 push	 eax
  00088	e8 00 00 00 00	 call	 ?SetDefaultFontFace@@YAXPBD@Z ; SetDefaultFontFace
  0008d	83 c4 04	 add	 esp, 4

; 295  : 	return true;

  00090	c6 45 d7 01	 mov	 BYTE PTR $T2[ebp], 1
$LN5@SetDefault:
; File D:\Program Files\Microsoft Visual Studio\2022\Community\VC\Tools\MSVC\14.43.34808\include\xstring

; 434  :         return _Myres > _Small_string_capacity;

  00094	8b 4d ec	 mov	 ecx, DWORD PTR _fontFace$[ebp+20]
  00097	83 f9 0f	 cmp	 ecx, 15			; 0000000fH

; 3047 :         if (_My_data._Large_mode_engaged()) {

  0009a	76 28		 jbe	 SHORT $LN72@SetDefault
; File D:\Program Files\Microsoft Visual Studio\2022\Community\VC\Tools\MSVC\14.43.34808\include\xmemory

; 981  :         _STD _Deallocate<_New_alignof<_Ty>>(_Ptr, sizeof(_Ty) * _Count);

  0009c	8b 55 d8	 mov	 edx, DWORD PTR _fontFace$[ebp]
; File D:\Program Files\Microsoft Visual Studio\2022\Community\VC\Tools\MSVC\14.43.34808\include\xstring

; 828  :         _Al.deallocate(_Old_ptr, _Capacity + 1); // +1 for null terminator

  0009f	41		 inc	 ecx
; File D:\Program Files\Microsoft Visual Studio\2022\Community\VC\Tools\MSVC\14.43.34808\include\xmemory

; 981  :         _STD _Deallocate<_New_alignof<_Ty>>(_Ptr, sizeof(_Ty) * _Count);

  000a0	8b c2		 mov	 eax, edx

; 284  :         if (_Bytes >= _Big_allocation_threshold) {

  000a2	81 f9 00 10 00
	00		 cmp	 ecx, 4096		; 00001000H
  000a8	72 10		 jb	 SHORT $LN83@SetDefault

; 205  :     const uintptr_t _Ptr_container   = _Ptr_user[-1];

  000aa	8b 50 fc	 mov	 edx, DWORD PTR [eax-4]
  000ad	83 c1 23	 add	 ecx, 35			; 00000023H
  000b0	2b c2		 sub	 eax, edx

; 219  :     _STL_VERIFY(_Back_shift >= _Min_back_shift && _Back_shift <= _Non_user_size, "invalid argument");

  000b2	83 c0 fc	 add	 eax, -4			; fffffffcH
  000b5	83 f8 1f	 cmp	 eax, 31			; 0000001fH
  000b8	77 27		 ja	 SHORT $LN94@SetDefault
$LN83@SetDefault:

; 289  :         ::operator delete(_Ptr, _Bytes);

  000ba	51		 push	 ecx
  000bb	52		 push	 edx
  000bc	e8 00 00 00 00	 call	 ??3@YAXPAXI@Z		; operator delete
  000c1	83 c4 08	 add	 esp, 8
$LN72@SetDefault:
; File C:\Marty 5.5\Src-Client\Client\EterLib\Util.cpp

; 295  : 	return true;

  000c4	8a 45 d7	 mov	 al, BYTE PTR $T2[ebp]

; 296  : }

  000c7	8b 4d f4	 mov	 ecx, DWORD PTR __$EHRec$[ebp]
  000ca	64 89 0d 00 00
	00 00		 mov	 DWORD PTR fs:0, ecx
  000d1	59		 pop	 ecx
  000d2	5e		 pop	 esi
  000d3	8b 4d f0	 mov	 ecx, DWORD PTR __$ArrayPad$[ebp]
  000d6	33 cd		 xor	 ecx, ebp
  000d8	e8 00 00 00 00	 call	 @__security_check_cookie@4
  000dd	8b e5		 mov	 esp, ebp
  000df	5d		 pop	 ebp
  000e0	c3		 ret	 0
$LN94@SetDefault:
; File D:\Program Files\Microsoft Visual Studio\2022\Community\VC\Tools\MSVC\14.43.34808\include\xmemory

; 219  :     _STL_VERIFY(_Back_shift >= _Min_back_shift && _Back_shift <= _Non_user_size, "invalid argument");

  000e1	e8 00 00 00 00	 call	 __invalid_parameter_noinfo_noreturn
$LN92@SetDefault:
  000e6	cc		 int	 3
_TEXT	ENDS
;	COMDAT text$x
text$x	SEGMENT
__unwindfunclet$?SetDefaultCodePage@@YA_NK@Z$0:
  00000	8d 4d d8	 lea	 ecx, DWORD PTR _fontFace$[ebp]
  00003	e9 00 00 00 00	 jmp	 ??1?$basic_string@DU?$char_traits@D@std@@V?$allocator@D@2@@std@@QAE@XZ ; std::basic_string<char,std::char_traits<char>,std::allocator<char> >::~basic_string<char,std::char_traits<char>,std::allocator<char> >
  00008	cc		 int	 3
  00009	cc		 int	 3
  0000a	cc		 int	 3
  0000b	cc		 int	 3
  0000c	cc		 int	 3
__ehhandler$?SetDefaultCodePage@@YA_NK@Z:
  0000d	90		 npad	 1
  0000e	90		 npad	 1
  0000f	8b 54 24 08	 mov	 edx, DWORD PTR [esp+8]
  00013	8d 42 0c	 lea	 eax, DWORD PTR [edx+12]
  00016	8b 4a d8	 mov	 ecx, DWORD PTR [edx-40]
  00019	33 c8		 xor	 ecx, eax
  0001b	e8 00 00 00 00	 call	 @__security_check_cookie@4
  00020	8b 4a fc	 mov	 ecx, DWORD PTR [edx-4]
  00023	33 c8		 xor	 ecx, eax
  00025	e8 00 00 00 00	 call	 @__security_check_cookie@4
  0002a	b8 00 00 00 00	 mov	 eax, OFFSET __ehfuncinfo$?SetDefaultCodePage@@YA_NK@Z
  0002f	e9 00 00 00 00	 jmp	 ___CxxFrameHandler3
text$x	ENDS
?SetDefaultCodePage@@YA_NK@Z ENDP			; SetDefaultCodePage
; Function compile flags: /Ogtp
; File C:\Marty 5.5\Src-Client\Client\EterLib\Util.cpp
; File D:\Program Files\Microsoft Visual Studio\2022\Community\VC\Tools\MSVC\14.43.34808\include\__msvc_string_view.hpp
; File C:\Marty 5.5\Src-Client\Client\EterLib\Util.cpp
; File D:\Program Files\Microsoft Visual Studio\2022\Community\VC\Tools\MSVC\14.43.34808\include\__msvc_string_view.hpp
; File D:\Program Files\Microsoft Visual Studio\2022\Community\VC\Tools\MSVC\14.43.34808\include\xstring
; File C:\Marty 5.5\Src-Client\Client\EterLib\Util.cpp
;	COMDAT ?SetDefaultFontFace@@YAXPBD@Z
_TEXT	SEGMENT
_fontFace$ = 8						; size = 4
?SetDefaultFontFace@@YAXPBD@Z PROC			; SetDefaultFontFace, COMDAT

; 281  : {

  00000	55		 push	 ebp
  00001	8b ec		 mov	 ebp, esp
; File D:\Program Files\Microsoft Visual Studio\2022\Community\VC\Tools\MSVC\14.43.34808\include\__msvc_string_view.hpp

; 430  :             return __builtin_strlen(_First);

  00003	8b 55 08	 mov	 edx, DWORD PTR _fontFace$[ebp]
  00006	8b c2		 mov	 eax, edx
; File C:\Marty 5.5\Src-Client\Client\EterLib\Util.cpp

; 281  : {

  00008	56		 push	 esi
; File D:\Program Files\Microsoft Visual Studio\2022\Community\VC\Tools\MSVC\14.43.34808\include\__msvc_string_view.hpp

; 430  :             return __builtin_strlen(_First);

  00009	8d 70 01	 lea	 esi, DWORD PTR [eax+1]
  0000c	0f 1f 40 00	 npad	 4
$LL10@SetDefault:
  00010	8a 08		 mov	 cl, BYTE PTR [eax]
  00012	40		 inc	 eax
  00013	84 c9		 test	 cl, cl
  00015	75 f9		 jne	 SHORT $LL10@SetDefault
  00017	2b c6		 sub	 eax, esi
; File D:\Program Files\Microsoft Visual Studio\2022\Community\VC\Tools\MSVC\14.43.34808\include\xstring

; 1614 :         return assign(_Ptr, _Convert_size<size_type>(_Traits::length(_Ptr)));

  00019	b9 00 00 00 00	 mov	 ecx, OFFSET ?gs_fontFace@@3V?$basic_string@DU?$char_traits@D@std@@V?$allocator@D@2@@std@@A
  0001e	50		 push	 eax
  0001f	52		 push	 edx
  00020	e8 00 00 00 00	 call	 ?assign@?$basic_string@DU?$char_traits@D@std@@V?$allocator@D@2@@std@@QAEAAV12@QBDI@Z ; std::basic_string<char,std::char_traits<char>,std::allocator<char> >::assign
  00025	5e		 pop	 esi
; File C:\Marty 5.5\Src-Client\Client\EterLib\Util.cpp

; 283  : }

  00026	5d		 pop	 ebp
  00027	c3		 ret	 0
?SetDefaultFontFace@@YAXPBD@Z ENDP			; SetDefaultFontFace
_TEXT	ENDS
; Function compile flags: /Ogtp
; File C:\Marty 5.5\Src-Client\Client\EterLib\Util.cpp
;	COMDAT ?GetFontFaceFromCodePage@@YAPBDG@Z
_TEXT	SEGMENT
_logFont$ = -64						; size = 60
__$ArrayPad$ = -4					; size = 4
_codePage$ = 8						; size = 2
?GetFontFaceFromCodePage@@YAPBDG@Z PROC			; GetFontFaceFromCodePage, COMDAT

; 250  : {

  00000	55		 push	 ebp
  00001	8b ec		 mov	 ebp, esp
  00003	83 ec 40	 sub	 esp, 64			; 00000040H
  00006	a1 00 00 00 00	 mov	 eax, DWORD PTR ___security_cookie
  0000b	33 c5		 xor	 eax, ebp
  0000d	89 45 fc	 mov	 DWORD PTR __$ArrayPad$[ebp], eax
  00010	53		 push	 ebx
  00011	56		 push	 esi
  00012	57		 push	 edi
  00013	0f b7 7d 08	 movzx	 edi, WORD PTR _codePage$[ebp]

; 251  : 	LOGFONT logFont;
; 252  : 
; 253  : 	memset(&logFont, 0, sizeof(logFont));

  00017	8d 45 c0	 lea	 eax, DWORD PTR _logFont$[ebp]
  0001a	6a 3c		 push	 60			; 0000003cH
  0001c	6a 00		 push	 0
  0001e	50		 push	 eax
  0001f	e8 00 00 00 00	 call	 _memset

; 254  : 
; 255  : 	logFont.lfCharSet = GetCharsetFromCodePage(codePage);

  00024	57		 push	 edi
  00025	e8 00 00 00 00	 call	 ?GetCharsetFromCodePage@@YAHG@Z ; GetCharsetFromCodePage

; 256  : 
; 257  : 	const char* fontFace = GetFontFaceFromCodePage9x(codePage);

  0002a	57		 push	 edi
  0002b	88 45 d7	 mov	 BYTE PTR _logFont$[ebp+23], al
  0002e	e8 00 00 00 00	 call	 ?GetFontFaceFromCodePage9x@@YAPBDG@Z ; GetFontFaceFromCodePage9x
  00033	83 c4 14	 add	 esp, 20			; 00000014H
  00036	8b d8		 mov	 ebx, eax

; 258  : 
; 259  : 	HDC hDC=GetDC(NULL);

  00038	6a 00		 push	 0
  0003a	ff 15 00 00 00
	00		 call	 DWORD PTR __imp__GetDC@4

; 260  : 
; 261  : 	if(EnumFontFamiliesEx(hDC, &logFont, (FONTENUMPROC)EnumFontFamExProc, (LONG)fontFace, 0) == 0)

  00040	6a 00		 push	 0
  00042	53		 push	 ebx
  00043	8b f0		 mov	 esi, eax
  00045	8d 45 c0	 lea	 eax, DWORD PTR _logFont$[ebp]
  00048	68 00 00 00 00	 push	 OFFSET ?EnumFontFamExProc@@YGHPBUtagLOGFONTA@@PBUtagTEXTMETRICA@@KJ@Z ; EnumFontFamExProc
  0004d	50		 push	 eax
  0004e	56		 push	 esi
  0004f	ff 15 00 00 00
	00		 call	 DWORD PTR __imp__EnumFontFamiliesExA@20
  00055	85 c0		 test	 eax, eax
  00057	75 1b		 jne	 SHORT $LN2@GetFontFac

; 262  : 	{
; 263  : 		ReleaseDC(NULL, hDC);

  00059	56		 push	 esi
  0005a	50		 push	 eax
  0005b	ff 15 00 00 00
	00		 call	 DWORD PTR __imp__ReleaseDC@8
  00061	5f		 pop	 edi

; 278  : }

  00062	5e		 pop	 esi
  00063	8b c3		 mov	 eax, ebx
  00065	5b		 pop	 ebx
  00066	8b 4d fc	 mov	 ecx, DWORD PTR __$ArrayPad$[ebp]
  00069	33 cd		 xor	 ecx, ebp
  0006b	e8 00 00 00 00	 call	 @__security_check_cookie@4
  00070	8b e5		 mov	 esp, ebp
  00072	5d		 pop	 ebp
  00073	c3		 ret	 0
$LN2@GetFontFac:

; 264  : 		return fontFace;
; 265  : 	}
; 266  : 
; 267  : 	fontFace = GetFontFaceFromCodePageNT(codePage);

  00074	57		 push	 edi
  00075	e8 00 00 00 00	 call	 ?GetFontFaceFromCodePageNT@@YAPBDG@Z ; GetFontFaceFromCodePageNT
  0007a	83 c4 04	 add	 esp, 4
  0007d	8b f8		 mov	 edi, eax

; 268  : 
; 269  : 	if(EnumFontFamiliesEx(hDC, &logFont, (FONTENUMPROC)EnumFontFamExProc, (LONG)fontFace, 0) == 0)

  0007f	8d 45 c0	 lea	 eax, DWORD PTR _logFont$[ebp]
  00082	6a 00		 push	 0
  00084	57		 push	 edi
  00085	68 00 00 00 00	 push	 OFFSET ?EnumFontFamExProc@@YGHPBUtagLOGFONTA@@PBUtagTEXTMETRICA@@KJ@Z ; EnumFontFamExProc
  0008a	50		 push	 eax
  0008b	56		 push	 esi
  0008c	ff 15 00 00 00
	00		 call	 DWORD PTR __imp__EnumFontFamiliesExA@20
  00092	56		 push	 esi
  00093	6a 00		 push	 0
  00095	85 c0		 test	 eax, eax
  00097	75 19		 jne	 SHORT $LN3@GetFontFac

; 270  : 	{
; 271  : 		ReleaseDC(NULL, hDC);

  00099	ff 15 00 00 00
	00		 call	 DWORD PTR __imp__ReleaseDC@8

; 272  : 		return fontFace;

  0009f	8b c7		 mov	 eax, edi
  000a1	5f		 pop	 edi

; 278  : }

  000a2	5e		 pop	 esi
  000a3	5b		 pop	 ebx
  000a4	8b 4d fc	 mov	 ecx, DWORD PTR __$ArrayPad$[ebp]
  000a7	33 cd		 xor	 ecx, ebp
  000a9	e8 00 00 00 00	 call	 @__security_check_cookie@4
  000ae	8b e5		 mov	 esp, ebp
  000b0	5d		 pop	 ebp
  000b1	c3		 ret	 0
$LN3@GetFontFac:

; 273  : 	}
; 274  : 
; 275  : 	ReleaseDC(NULL, hDC);

  000b2	ff 15 00 00 00
	00		 call	 DWORD PTR __imp__ReleaseDC@8

; 276  : 
; 277  : 	return GetDefaultFontFace();

  000b8	e8 00 00 00 00	 call	 ?GetDefaultFontFace@@YAPBDXZ ; GetDefaultFontFace

; 278  : }

  000bd	8b 4d fc	 mov	 ecx, DWORD PTR __$ArrayPad$[ebp]
  000c0	5f		 pop	 edi
  000c1	5e		 pop	 esi
  000c2	33 cd		 xor	 ecx, ebp
  000c4	5b		 pop	 ebx
  000c5	e8 00 00 00 00	 call	 @__security_check_cookie@4
  000ca	8b e5		 mov	 esp, ebp
  000cc	5d		 pop	 ebp
  000cd	c3		 ret	 0
?GetFontFaceFromCodePage@@YAPBDG@Z ENDP			; GetFontFaceFromCodePage
_TEXT	ENDS
; Function compile flags: /Ogtp
; File C:\Marty 5.5\Src-Client\Client\EterLib\Util.cpp
; File D:\Program Files\Microsoft Visual Studio\2022\Community\VC\Tools\MSVC\14.43.34808\include\xstring
; File C:\Marty 5.5\Src-Client\Client\EterLib\Util.cpp
;	COMDAT ?GetDefaultFontFace@@YAPBDXZ
_TEXT	SEGMENT
?GetDefaultFontFace@@YAPBDXZ PROC			; GetDefaultFontFace, COMDAT
; File D:\Program Files\Microsoft Visual Studio\2022\Community\VC\Tools\MSVC\14.43.34808\include\xstring

; 434  :         return _Myres > _Small_string_capacity;

  00000	83 3d 14 00 00
	00 0f		 cmp	 DWORD PTR ?gs_fontFace@@3V?$basic_string@DU?$char_traits@D@std@@V?$allocator@D@2@@std@@A+20, 15 ; 0000000fH

; 425  :         const value_type* _Result = _Bx._Buf;

  00007	b8 00 00 00 00	 mov	 eax, OFFSET ?gs_fontFace@@3V?$basic_string@DU?$char_traits@D@std@@V?$allocator@D@2@@std@@A

; 426  :         if (_Large_mode_engaged()) {

  0000c	0f 47 05 00 00
	00 00		 cmova	 eax, DWORD PTR ?gs_fontFace@@3V?$basic_string@DU?$char_traits@D@std@@V?$allocator@D@2@@std@@A
; File C:\Marty 5.5\Src-Client\Client\EterLib\Util.cpp

; 247  : }

  00013	c3		 ret	 0
?GetDefaultFontFace@@YAPBDXZ ENDP			; GetDefaultFontFace
_TEXT	ENDS
; Function compile flags: /Ogtp
; File C:\Marty 5.5\Src-Client\Client\EterLib\Util.cpp
;	COMDAT ?GetDefaultCodePage@@YAKXZ
_TEXT	SEGMENT
?GetDefaultCodePage@@YAKXZ PROC				; GetDefaultCodePage, COMDAT

; 241  : 	return gs_codePage;

  00000	a1 00 00 00 00	 mov	 eax, DWORD PTR ?gs_codePage@@3KA

; 242  : }

  00005	c3		 ret	 0
?GetDefaultCodePage@@YAKXZ ENDP				; GetDefaultCodePage
_TEXT	ENDS
; Function compile flags: /Ogtp
; File C:\Marty 5.5\Src-Client\Client\EterLib\Util.cpp
;	COMDAT ?GetFontFaceFromCodePage9x@@YAPBDG@Z
_TEXT	SEGMENT
_codePage$ = 8						; size = 2
?GetFontFaceFromCodePage9x@@YAPBDG@Z PROC		; GetFontFaceFromCodePage9x, COMDAT

; 213  : {

  00000	55		 push	 ebp
  00001	8b ec		 mov	 ebp, esp

; 214  : 	switch( codePage )

  00003	0f b7 45 08	 movzx	 eax, WORD PTR _codePage$[ebp]
  00007	3d b6 03 00 00	 cmp	 eax, 950		; 000003b6H
  0000c	77 36		 ja	 SHORT $LN15@GetFontFac
  0000e	74 2d		 je	 SHORT $LN7@GetFontFac
  00010	2d 6a 03 00 00	 sub	 eax, 874		; 0000036aH
  00015	83 f8 4b	 cmp	 eax, 75			; 0000004bH
  00018	77 46		 ja	 SHORT $LN12@GetFontFac
  0001a	0f b6 80 00 00
	00 00		 movzx	 eax, BYTE PTR $LN17@GetFontFac[eax]
  00021	ff 24 85 00 00
	00 00		 jmp	 DWORD PTR $LN18@GetFontFac[eax*4]
$LN4@GetFontFac:

; 215  : 	{
; 216  : 	case CP_932:
; 217  : 		return "lr oSVbN";

  00028	b8 00 00 00 00	 mov	 eax, OFFSET ??_C@_0BA@GNIPJLFD@?$ICl?$ICr?5?$ICo?$IDS?$IDV?$IDb?$IDN@

; 234  : 	default:
; 235  : 		return "Arial";
; 236  : 	}
; 237  : }

  0002d	5d		 pop	 ebp
  0002e	c3		 ret	 0
$LN5@GetFontFac:

; 218  : 	case CP_949:
; 219  : 		return "";

  0002f	b8 00 00 00 00	 mov	 eax, OFFSET ??_C@_06MFMMLLPC@?$LB?$LM?$LI?$LC?C?$LM@

; 234  : 	default:
; 235  : 		return "Arial";
; 236  : 	}
; 237  : }

  00034	5d		 pop	 ebp
  00035	c3		 ret	 0
$LN6@GetFontFac:

; 220  : 	case CP_936:
; 221  : 		return "";

  00036	b8 00 00 00 00	 mov	 eax, OFFSET ??_C@_04IKDGCAJA@?K?N?L?e@

; 234  : 	default:
; 235  : 		return "Arial";
; 236  : 	}
; 237  : }

  0003b	5d		 pop	 ebp
  0003c	c3		 ret	 0
$LN7@GetFontFac:

; 222  : 	case CP_950:
; 223  : 		return "";

  0003d	b8 00 00 00 00	 mov	 eax, OFFSET ??_C@_06MNOHAHKD@?$LC?S?$KJ?z?E?i@

; 234  : 	default:
; 235  : 		return "Arial";
; 236  : 	}
; 237  : }

  00042	5d		 pop	 ebp
  00043	c3		 ret	 0
$LN15@GetFontFac:

; 214  : 	switch( codePage )

  00044	3d ea 04 00 00	 cmp	 eax, 1258		; 000004eaH
  00049	77 15		 ja	 SHORT $LN12@GetFontFac
  0004b	74 0c		 je	 SHORT $LN11@GetFontFac
  0004d	2d e4 04 00 00	 sub	 eax, 1252		; 000004e4H
  00052	74 0c		 je	 SHORT $LN12@GetFontFac
  00054	83 e8 04	 sub	 eax, 4
  00057	75 07		 jne	 SHORT $LN12@GetFontFac
$LN11@GetFontFac:

; 224  : 	case CP_874:
; 225  : 		return "Tahoma";
; 226  : 	case CP_1252:
; 227  : 		return "Arial";
; 228  : 	case CP_1256:
; 229  : 		return "Tahoma";
; 230  : 	case CP_1258:
; 231  : 		return "Tahoma";

  00059	b8 00 00 00 00	 mov	 eax, OFFSET ??_C@_06IAEPOIJG@Tahoma@

; 234  : 	default:
; 235  : 		return "Arial";
; 236  : 	}
; 237  : }

  0005e	5d		 pop	 ebp
  0005f	c3		 ret	 0
$LN12@GetFontFac:

; 232  : 	case CP_65001:
; 233  : 		return "Arial";

  00060	b8 00 00 00 00	 mov	 eax, OFFSET ??_C@_05MPFIAJAP@Arial@

; 234  : 	default:
; 235  : 		return "Arial";
; 236  : 	}
; 237  : }

  00065	5d		 pop	 ebp
  00066	c3		 ret	 0
  00067	90		 npad	 1
$LN18@GetFontFac:
  00068	00 00 00 00	 DD	 $LN11@GetFontFac
  0006c	00 00 00 00	 DD	 $LN4@GetFontFac
  00070	00 00 00 00	 DD	 $LN6@GetFontFac
  00074	00 00 00 00	 DD	 $LN5@GetFontFac
  00078	00 00 00 00	 DD	 $LN12@GetFontFac
$LN17@GetFontFac:
  0007c	00		 DB	 0
  0007d	04		 DB	 4
  0007e	04		 DB	 4
  0007f	04		 DB	 4
  00080	04		 DB	 4
  00081	04		 DB	 4
  00082	04		 DB	 4
  00083	04		 DB	 4
  00084	04		 DB	 4
  00085	04		 DB	 4
  00086	04		 DB	 4
  00087	04		 DB	 4
  00088	04		 DB	 4
  00089	04		 DB	 4
  0008a	04		 DB	 4
  0008b	04		 DB	 4
  0008c	04		 DB	 4
  0008d	04		 DB	 4
  0008e	04		 DB	 4
  0008f	04		 DB	 4
  00090	04		 DB	 4
  00091	04		 DB	 4
  00092	04		 DB	 4
  00093	04		 DB	 4
  00094	04		 DB	 4
  00095	04		 DB	 4
  00096	04		 DB	 4
  00097	04		 DB	 4
  00098	04		 DB	 4
  00099	04		 DB	 4
  0009a	04		 DB	 4
  0009b	04		 DB	 4
  0009c	04		 DB	 4
  0009d	04		 DB	 4
  0009e	04		 DB	 4
  0009f	04		 DB	 4
  000a0	04		 DB	 4
  000a1	04		 DB	 4
  000a2	04		 DB	 4
  000a3	04		 DB	 4
  000a4	04		 DB	 4
  000a5	04		 DB	 4
  000a6	04		 DB	 4
  000a7	04		 DB	 4
  000a8	04		 DB	 4
  000a9	04		 DB	 4
  000aa	04		 DB	 4
  000ab	04		 DB	 4
  000ac	04		 DB	 4
  000ad	04		 DB	 4
  000ae	04		 DB	 4
  000af	04		 DB	 4
  000b0	04		 DB	 4
  000b1	04		 DB	 4
  000b2	04		 DB	 4
  000b3	04		 DB	 4
  000b4	04		 DB	 4
  000b5	04		 DB	 4
  000b6	01		 DB	 1
  000b7	04		 DB	 4
  000b8	04		 DB	 4
  000b9	04		 DB	 4
  000ba	02		 DB	 2
  000bb	04		 DB	 4
  000bc	04		 DB	 4
  000bd	04		 DB	 4
  000be	04		 DB	 4
  000bf	04		 DB	 4
  000c0	04		 DB	 4
  000c1	04		 DB	 4
  000c2	04		 DB	 4
  000c3	04		 DB	 4
  000c4	04		 DB	 4
  000c5	04		 DB	 4
  000c6	04		 DB	 4
  000c7	03		 DB	 3
?GetFontFaceFromCodePage9x@@YAPBDG@Z ENDP		; GetFontFaceFromCodePage9x
_TEXT	ENDS
; Function compile flags: /Ogtp
; File C:\Marty 5.5\Src-Client\Client\EterLib\Util.cpp
;	COMDAT ?GetFontFaceFromCodePageNT@@YAPBDG@Z
_TEXT	SEGMENT
_codePage$ = 8						; size = 2
?GetFontFaceFromCodePageNT@@YAPBDG@Z PROC		; GetFontFaceFromCodePageNT, COMDAT

; 187  : {

  00000	55		 push	 ebp
  00001	8b ec		 mov	 ebp, esp

; 188  : 	switch( codePage )

  00003	0f b7 45 08	 movzx	 eax, WORD PTR _codePage$[ebp]
  00007	3d b6 03 00 00	 cmp	 eax, 950		; 000003b6H
  0000c	77 36		 ja	 SHORT $LN15@GetFontFac
  0000e	74 2d		 je	 SHORT $LN7@GetFontFac
  00010	2d 6a 03 00 00	 sub	 eax, 874		; 0000036aH
  00015	83 f8 4b	 cmp	 eax, 75			; 0000004bH
  00018	77 46		 ja	 SHORT $LN12@GetFontFac
  0001a	0f b6 80 00 00
	00 00		 movzx	 eax, BYTE PTR $LN17@GetFontFac[eax]
  00021	ff 24 85 00 00
	00 00		 jmp	 DWORD PTR $LN18@GetFontFac[eax*4]
$LN4@GetFontFac:

; 189  : 	{
; 190  : 	case CP_932:
; 191  : 		return "MS PGothic";

  00028	b8 00 00 00 00	 mov	 eax, OFFSET ??_C@_0L@IPEIPBIF@MS?5PGothic@

; 208  : 	default:
; 209  : 		return "Arial";
; 210  : 	}
; 211  : }

  0002d	5d		 pop	 ebp
  0002e	c3		 ret	 0
$LN5@GetFontFac:

; 192  : 	case CP_949:
; 193  : 		return "GulimChe";

  0002f	b8 00 00 00 00	 mov	 eax, OFFSET ??_C@_08JCBFCDDN@GulimChe@

; 208  : 	default:
; 209  : 		return "Arial";
; 210  : 	}
; 211  : }

  00034	5d		 pop	 ebp
  00035	c3		 ret	 0
$LN6@GetFontFac:

; 194  : 	case CP_936:
; 195  : 		return "SimSun";

  00036	b8 00 00 00 00	 mov	 eax, OFFSET ??_C@_06EOALHCBL@SimSun@

; 208  : 	default:
; 209  : 		return "Arial";
; 210  : 	}
; 211  : }

  0003b	5d		 pop	 ebp
  0003c	c3		 ret	 0
$LN7@GetFontFac:

; 196  : 	case CP_950:
; 197  : 		return "MingLiU";

  0003d	b8 00 00 00 00	 mov	 eax, OFFSET ??_C@_07HOIPIFNA@MingLiU@

; 208  : 	default:
; 209  : 		return "Arial";
; 210  : 	}
; 211  : }

  00042	5d		 pop	 ebp
  00043	c3		 ret	 0
$LN15@GetFontFac:

; 188  : 	switch( codePage )

  00044	3d ea 04 00 00	 cmp	 eax, 1258		; 000004eaH
  00049	77 15		 ja	 SHORT $LN12@GetFontFac
  0004b	74 0c		 je	 SHORT $LN11@GetFontFac
  0004d	2d e4 04 00 00	 sub	 eax, 1252		; 000004e4H
  00052	74 0c		 je	 SHORT $LN12@GetFontFac
  00054	83 e8 04	 sub	 eax, 4
  00057	75 07		 jne	 SHORT $LN12@GetFontFac
$LN11@GetFontFac:

; 198  : 	case CP_874:
; 199  : 		return "Tahoma";
; 200  : 	case CP_1252:
; 201  : 		return "Arial";
; 202  : 	case CP_1256:
; 203  : 		return "Tahoma";
; 204  : 	case CP_1258:
; 205  : 		return "Tahoma";

  00059	b8 00 00 00 00	 mov	 eax, OFFSET ??_C@_06IAEPOIJG@Tahoma@

; 208  : 	default:
; 209  : 		return "Arial";
; 210  : 	}
; 211  : }

  0005e	5d		 pop	 ebp
  0005f	c3		 ret	 0
$LN12@GetFontFac:

; 206  : 	case CP_65001:
; 207  : 		return "Arial";

  00060	b8 00 00 00 00	 mov	 eax, OFFSET ??_C@_05MPFIAJAP@Arial@

; 208  : 	default:
; 209  : 		return "Arial";
; 210  : 	}
; 211  : }

  00065	5d		 pop	 ebp
  00066	c3		 ret	 0
  00067	90		 npad	 1
$LN18@GetFontFac:
  00068	00 00 00 00	 DD	 $LN11@GetFontFac
  0006c	00 00 00 00	 DD	 $LN4@GetFontFac
  00070	00 00 00 00	 DD	 $LN6@GetFontFac
  00074	00 00 00 00	 DD	 $LN5@GetFontFac
  00078	00 00 00 00	 DD	 $LN12@GetFontFac
$LN17@GetFontFac:
  0007c	00		 DB	 0
  0007d	04		 DB	 4
  0007e	04		 DB	 4
  0007f	04		 DB	 4
  00080	04		 DB	 4
  00081	04		 DB	 4
  00082	04		 DB	 4
  00083	04		 DB	 4
  00084	04		 DB	 4
  00085	04		 DB	 4
  00086	04		 DB	 4
  00087	04		 DB	 4
  00088	04		 DB	 4
  00089	04		 DB	 4
  0008a	04		 DB	 4
  0008b	04		 DB	 4
  0008c	04		 DB	 4
  0008d	04		 DB	 4
  0008e	04		 DB	 4
  0008f	04		 DB	 4
  00090	04		 DB	 4
  00091	04		 DB	 4
  00092	04		 DB	 4
  00093	04		 DB	 4
  00094	04		 DB	 4
  00095	04		 DB	 4
  00096	04		 DB	 4
  00097	04		 DB	 4
  00098	04		 DB	 4
  00099	04		 DB	 4
  0009a	04		 DB	 4
  0009b	04		 DB	 4
  0009c	04		 DB	 4
  0009d	04		 DB	 4
  0009e	04		 DB	 4
  0009f	04		 DB	 4
  000a0	04		 DB	 4
  000a1	04		 DB	 4
  000a2	04		 DB	 4
  000a3	04		 DB	 4
  000a4	04		 DB	 4
  000a5	04		 DB	 4
  000a6	04		 DB	 4
  000a7	04		 DB	 4
  000a8	04		 DB	 4
  000a9	04		 DB	 4
  000aa	04		 DB	 4
  000ab	04		 DB	 4
  000ac	04		 DB	 4
  000ad	04		 DB	 4
  000ae	04		 DB	 4
  000af	04		 DB	 4
  000b0	04		 DB	 4
  000b1	04		 DB	 4
  000b2	04		 DB	 4
  000b3	04		 DB	 4
  000b4	04		 DB	 4
  000b5	04		 DB	 4
  000b6	01		 DB	 1
  000b7	04		 DB	 4
  000b8	04		 DB	 4
  000b9	04		 DB	 4
  000ba	02		 DB	 2
  000bb	04		 DB	 4
  000bc	04		 DB	 4
  000bd	04		 DB	 4
  000be	04		 DB	 4
  000bf	04		 DB	 4
  000c0	04		 DB	 4
  000c1	04		 DB	 4
  000c2	04		 DB	 4
  000c3	04		 DB	 4
  000c4	04		 DB	 4
  000c5	04		 DB	 4
  000c6	04		 DB	 4
  000c7	03		 DB	 3
?GetFontFaceFromCodePageNT@@YAPBDG@Z ENDP		; GetFontFaceFromCodePageNT
_TEXT	ENDS
; Function compile flags: /Ogtp
; File C:\Marty 5.5\Src-Client\Client\EterLib\Util.cpp
;	COMDAT ?GetCharsetFromCodePage@@YAHG@Z
_TEXT	SEGMENT
_codePage$ = 8						; size = 2
?GetCharsetFromCodePage@@YAHG@Z PROC			; GetCharsetFromCodePage, COMDAT

; 151  : {

  00000	55		 push	 ebp
  00001	8b ec		 mov	 ebp, esp

; 152  : 	switch( codePage )

  00003	0f b7 45 08	 movzx	 eax, WORD PTR _codePage$[ebp]
  00007	3d e2 04 00 00	 cmp	 eax, 1250		; 000004e2H
  0000c	77 44		 ja	 SHORT $LN19@GetCharset
  0000e	74 3b		 je	 SHORT $LN15@GetCharset
  00010	2d 6a 03 00 00	 sub	 eax, 874		; 0000036aH
  00015	83 f8 4c	 cmp	 eax, 76			; 0000004cH
  00018	77 7a		 ja	 SHORT $LN17@GetCharset
  0001a	0f b6 80 00 00
	00 00		 movzx	 eax, BYTE PTR $LN20@GetCharset[eax]
  00021	ff 24 85 00 00
	00 00		 jmp	 DWORD PTR $LN21@GetCharset[eax*4]
$LN4@GetCharset:

; 153  : 	{
; 154  : 	case CP_932:
; 155  : 		return SHIFTJIS_CHARSET;

  00028	b8 80 00 00 00	 mov	 eax, 128		; 00000080H

; 182  : 	}
; 183  : }

  0002d	5d		 pop	 ebp
  0002e	c3		 ret	 0
$LN5@GetCharset:

; 156  : 	case CP_949:
; 157  : 		return HANGUL_CHARSET;

  0002f	b8 81 00 00 00	 mov	 eax, 129		; 00000081H

; 182  : 	}
; 183  : }

  00034	5d		 pop	 ebp
  00035	c3		 ret	 0
$LN6@GetCharset:

; 158  : 	case CP_936:
; 159  : 		return GB2312_CHARSET;

  00036	b8 86 00 00 00	 mov	 eax, 134		; 00000086H

; 182  : 	}
; 183  : }

  0003b	5d		 pop	 ebp
  0003c	c3		 ret	 0
$LN7@GetCharset:

; 160  : 	case CP_950:
; 161  : 		return CHINESEBIG5_CHARSET;

  0003d	b8 88 00 00 00	 mov	 eax, 136		; 00000088H

; 182  : 	}
; 183  : }

  00042	5d		 pop	 ebp
  00043	c3		 ret	 0
$LN14@GetCharset:

; 174  : 	case CP_874:
; 175  : 		return THAI_CHARSET;

  00044	b8 de 00 00 00	 mov	 eax, 222		; 000000deH

; 182  : 	}
; 183  : }

  00049	5d		 pop	 ebp
  0004a	c3		 ret	 0
$LN15@GetCharset:

; 176  : 	case CP_1250:
; 177  : 		return EASTEUROPE_CHARSET;

  0004b	b8 ee 00 00 00	 mov	 eax, 238		; 000000eeH

; 182  : 	}
; 183  : }

  00050	5d		 pop	 ebp
  00051	c3		 ret	 0
$LN19@GetCharset:

; 152  : 	switch( codePage )

  00052	2d e3 04 00 00	 sub	 eax, 1251		; 000004e3H
  00057	83 f8 07	 cmp	 eax, 7
  0005a	77 38		 ja	 SHORT $LN17@GetCharset
  0005c	ff 24 85 00 00
	00 00		 jmp	 DWORD PTR $LN22@GetCharset[eax*4]
$LN8@GetCharset:

; 162  : 	case CP_1253:
; 163  : 		return GREEK_CHARSET;

  00063	b8 a1 00 00 00	 mov	 eax, 161		; 000000a1H

; 182  : 	}
; 183  : }

  00068	5d		 pop	 ebp
  00069	c3		 ret	 0
$LN9@GetCharset:

; 164  : 	case CP_1254:
; 165  : 		return TURKISH_CHARSET;

  0006a	b8 a2 00 00 00	 mov	 eax, 162		; 000000a2H

; 182  : 	}
; 183  : }

  0006f	5d		 pop	 ebp
  00070	c3		 ret	 0
$LN10@GetCharset:

; 166  : 	case CP_1255:
; 167  : 		return HEBREW_CHARSET;

  00071	b8 b1 00 00 00	 mov	 eax, 177		; 000000b1H

; 182  : 	}
; 183  : }

  00076	5d		 pop	 ebp
  00077	c3		 ret	 0
$LN11@GetCharset:

; 168  : 	case CP_1256:
; 169  : 		return ARABIC_CHARSET;

  00078	b8 b2 00 00 00	 mov	 eax, 178		; 000000b2H

; 182  : 	}
; 183  : }

  0007d	5d		 pop	 ebp
  0007e	c3		 ret	 0
$LN12@GetCharset:

; 170  : 	case CP_1257:
; 171  : 		return BALTIC_CHARSET;

  0007f	b8 ba 00 00 00	 mov	 eax, 186		; 000000baH

; 182  : 	}
; 183  : }

  00084	5d		 pop	 ebp
  00085	c3		 ret	 0
$LN13@GetCharset:

; 172  : 	case CP_1258:
; 173  : 		return VIETNAMESE_CHARSET;

  00086	b8 a3 00 00 00	 mov	 eax, 163		; 000000a3H

; 182  : 	}
; 183  : }

  0008b	5d		 pop	 ebp
  0008c	c3		 ret	 0
$LN16@GetCharset:

; 178  : 	case CP_1251:
; 179  : 		return RUSSIAN_CHARSET;

  0008d	b8 cc 00 00 00	 mov	 eax, 204		; 000000ccH

; 182  : 	}
; 183  : }

  00092	5d		 pop	 ebp
  00093	c3		 ret	 0
$LN17@GetCharset:

; 180  : 	default:
; 181  : 		return DEFAULT_CHARSET;

  00094	b8 01 00 00 00	 mov	 eax, 1

; 182  : 	}
; 183  : }

  00099	5d		 pop	 ebp
  0009a	c3		 ret	 0
  0009b	90		 npad	 1
$LN21@GetCharset:
  0009c	00 00 00 00	 DD	 $LN14@GetCharset
  000a0	00 00 00 00	 DD	 $LN4@GetCharset
  000a4	00 00 00 00	 DD	 $LN6@GetCharset
  000a8	00 00 00 00	 DD	 $LN5@GetCharset
  000ac	00 00 00 00	 DD	 $LN7@GetCharset
  000b0	00 00 00 00	 DD	 $LN17@GetCharset
$LN20@GetCharset:
  000b4	00		 DB	 0
  000b5	05		 DB	 5
  000b6	05		 DB	 5
  000b7	05		 DB	 5
  000b8	05		 DB	 5
  000b9	05		 DB	 5
  000ba	05		 DB	 5
  000bb	05		 DB	 5
  000bc	05		 DB	 5
  000bd	05		 DB	 5
  000be	05		 DB	 5
  000bf	05		 DB	 5
  000c0	05		 DB	 5
  000c1	05		 DB	 5
  000c2	05		 DB	 5
  000c3	05		 DB	 5
  000c4	05		 DB	 5
  000c5	05		 DB	 5
  000c6	05		 DB	 5
  000c7	05		 DB	 5
  000c8	05		 DB	 5
  000c9	05		 DB	 5
  000ca	05		 DB	 5
  000cb	05		 DB	 5
  000cc	05		 DB	 5
  000cd	05		 DB	 5
  000ce	05		 DB	 5
  000cf	05		 DB	 5
  000d0	05		 DB	 5
  000d1	05		 DB	 5
  000d2	05		 DB	 5
  000d3	05		 DB	 5
  000d4	05		 DB	 5
  000d5	05		 DB	 5
  000d6	05		 DB	 5
  000d7	05		 DB	 5
  000d8	05		 DB	 5
  000d9	05		 DB	 5
  000da	05		 DB	 5
  000db	05		 DB	 5
  000dc	05		 DB	 5
  000dd	05		 DB	 5
  000de	05		 DB	 5
  000df	05		 DB	 5
  000e0	05		 DB	 5
  000e1	05		 DB	 5
  000e2	05		 DB	 5
  000e3	05		 DB	 5
  000e4	05		 DB	 5
  000e5	05		 DB	 5
  000e6	05		 DB	 5
  000e7	05		 DB	 5
  000e8	05		 DB	 5
  000e9	05		 DB	 5
  000ea	05		 DB	 5
  000eb	05		 DB	 5
  000ec	05		 DB	 5
  000ed	05		 DB	 5
  000ee	01		 DB	 1
  000ef	05		 DB	 5
  000f0	05		 DB	 5
  000f1	05		 DB	 5
  000f2	02		 DB	 2
  000f3	05		 DB	 5
  000f4	05		 DB	 5
  000f5	05		 DB	 5
  000f6	05		 DB	 5
  000f7	05		 DB	 5
  000f8	05		 DB	 5
  000f9	05		 DB	 5
  000fa	05		 DB	 5
  000fb	05		 DB	 5
  000fc	05		 DB	 5
  000fd	05		 DB	 5
  000fe	05		 DB	 5
  000ff	03		 DB	 3
  00100	04		 DB	 4
  00101	0f 1f 00	 npad	 3
$LN22@GetCharset:
  00104	00 00 00 00	 DD	 $LN16@GetCharset
  00108	00 00 00 00	 DD	 $LN17@GetCharset
  0010c	00 00 00 00	 DD	 $LN8@GetCharset
  00110	00 00 00 00	 DD	 $LN9@GetCharset
  00114	00 00 00 00	 DD	 $LN10@GetCharset
  00118	00 00 00 00	 DD	 $LN11@GetCharset
  0011c	00 00 00 00	 DD	 $LN12@GetCharset
  00120	00 00 00 00	 DD	 $LN13@GetCharset
?GetCharsetFromCodePage@@YAHG@Z ENDP			; GetCharsetFromCodePage
_TEXT	ENDS
; Function compile flags: /Ogtp
; File C:\Marty 5.5\Src-Client\Client\EterLib\Util.cpp
;	COMDAT ?EnumFontFamExProc@@YGHPBUtagLOGFONTA@@PBUtagTEXTMETRICA@@KJ@Z
_TEXT	SEGMENT
_plogFont$ = 8						; size = 4
___formal$ = 12						; size = 4
___formal$ = 16						; size = 4
_lParam$ = 20						; size = 4
?EnumFontFamExProc@@YGHPBUtagLOGFONTA@@PBUtagTEXTMETRICA@@KJ@Z PROC ; EnumFontFamExProc, COMDAT

; 146  : {

  00000	55		 push	 ebp
  00001	8b ec		 mov	 ebp, esp

; 147  : 	return stricmp((const char*)lParam, plogFont->lfFaceName);

  00003	8b 45 08	 mov	 eax, DWORD PTR _plogFont$[ebp]
  00006	83 c0 1c	 add	 eax, 28			; 0000001cH
  00009	50		 push	 eax
  0000a	ff 75 14	 push	 DWORD PTR _lParam$[ebp]
  0000d	e8 00 00 00 00	 call	 __stricmp
  00012	83 c4 08	 add	 esp, 8

; 148  : }

  00015	5d		 pop	 ebp
  00016	c2 10 00	 ret	 16			; 00000010H
?EnumFontFamExProc@@YGHPBUtagLOGFONTA@@PBUtagTEXTMETRICA@@KJ@Z ENDP ; EnumFontFamExProc
_TEXT	ENDS
; Function compile flags: /Ogtp
; File C:\Marty 5.5\Src-Client\Client\EterLib\Util.cpp
; File D:\Program Files\Microsoft Visual Studio\2022\Community\VC\Tools\MSVC\14.43.34808\include\vector
; File C:\Marty 5.5\Src-Client\Client\EterLib\Util.cpp
; File C:\Marty 5.5\Src-Client\extern\include\d3dx8math.inl
; File C:\Marty 5.5\Src-Client\Client\EterLib\Util.cpp
; File D:\Program Files\Microsoft Visual Studio\2022\Community\VC\Tools\MSVC\14.43.34808\include\xstring
; File D:\Program Files\Microsoft Visual Studio\2022\Community\VC\Tools\MSVC\14.43.34808\include\vector
; File D:\Program Files\Microsoft Visual Studio\2022\Community\VC\Tools\MSVC\14.43.34808\include\xstring
; File C:\Marty 5.5\Src-Client\Client\EterLib\Util.cpp
; File D:\Program Files\Microsoft Visual Studio\2022\Community\VC\Tools\MSVC\14.43.34808\include\vector
; File C:\Marty 5.5\Src-Client\Client\EterLib\Util.cpp
; File D:\Program Files\Microsoft Visual Studio\2022\Community\VC\Tools\MSVC\14.43.34808\include\vector
; File C:\Marty 5.5\Src-Client\Client\EterLib\Util.cpp
; File D:\Program Files\Microsoft Visual Studio\2022\Community\VC\Tools\MSVC\14.43.34808\include\xstring
; File C:\Marty 5.5\Src-Client\Client\EterLib\Util.cpp
; File D:\Program Files\Microsoft Visual Studio\2022\Community\VC\Tools\MSVC\14.43.34808\include\vector
; File C:\Marty 5.5\Src-Client\Client\EterLib\Util.cpp
; File D:\Program Files\Microsoft Visual Studio\2022\Community\VC\Tools\MSVC\14.43.34808\include\vector
; File C:\Marty 5.5\Src-Client\Client\EterLib\Util.cpp
; File D:\Program Files\Microsoft Visual Studio\2022\Community\VC\Tools\MSVC\14.43.34808\include\xstring
; File C:\Marty 5.5\Src-Client\Client\EterLib\Util.cpp
; File D:\Program Files\Microsoft Visual Studio\2022\Community\VC\Tools\MSVC\14.43.34808\include\xstring
; File C:\Marty 5.5\Src-Client\Client\EterLib\Util.cpp
; File D:\Program Files\Microsoft Visual Studio\2022\Community\VC\Tools\MSVC\14.43.34808\include\xstring
; File C:\Marty 5.5\Src-Client\Client\EterLib\Util.cpp
; File C:\Marty 5.5\Src-Client\extern\include\d3dx8math.inl
; File C:\Marty 5.5\Src-Client\Client\EterLib\Util.cpp
; File C:\Marty 5.5\Src-Client\extern\include\d3dx8math.inl
; File C:\Marty 5.5\Src-Client\Client\EterLib\Util.cpp
;	COMDAT ?TokenToColor@@YA?AUD3DXCOLOR@@AAV?$vector@V?$basic_string@DU?$char_traits@D@std@@V?$allocator@D@2@@std@@V?$allocator@V?$basic_string@DU?$char_traits@D@std@@V?$allocator@D@2@@std@@@2@@std@@@Z
_TEXT	SEGMENT
tv311 = -8						; size = 4
tv321 = -4						; size = 4
___$ReturnUdt$ = 8					; size = 4
_rVector$ = 12						; size = 4
tv329 = 12						; size = 4
?TokenToColor@@YA?AUD3DXCOLOR@@AAV?$vector@V?$basic_string@DU?$char_traits@D@std@@V?$allocator@D@2@@std@@V?$allocator@V?$basic_string@DU?$char_traits@D@std@@V?$allocator@D@2@@std@@@2@@std@@@Z PROC ; TokenToColor, COMDAT

; 127  : {

  00000	55		 push	 ebp
  00001	8b ec		 mov	 ebp, esp
  00003	83 ec 08	 sub	 esp, 8
  00006	56		 push	 esi
; File D:\Program Files\Microsoft Visual Studio\2022\Community\VC\Tools\MSVC\14.43.34808\include\vector

; 1900 :         return static_cast<size_type>(_My_data._Mylast - _My_data._Myfirst);

  00007	8b 75 0c	 mov	 esi, DWORD PTR _rVector$[ebp]
  0000a	8b 46 04	 mov	 eax, DWORD PTR [esi+4]
  0000d	8b 0e		 mov	 ecx, DWORD PTR [esi]
  0000f	2b c1		 sub	 eax, ecx
; File C:\Marty 5.5\Src-Client\Client\EterLib\Util.cpp

; 128  : 	if (4 != rVector.size())

  00011	83 e8 60	 sub	 eax, 96			; 00000060H
  00014	83 f8 18	 cmp	 eax, 24			; 00000018H
  00017	72 23		 jb	 SHORT $LN2@TokenToCol
; File C:\Marty 5.5\Src-Client\extern\include\d3dx8math.inl

; 920  :     r = fr;

  00019	8b 45 08	 mov	 eax, DWORD PTR ___$ReturnUdt$[ebp]
  0001c	5e		 pop	 esi
  0001d	c7 00 00 00 80
	3f		 mov	 DWORD PTR [eax], 1065353216 ; 3f800000H

; 921  :     g = fg;

  00023	c7 40 04 00 00
	80 3f		 mov	 DWORD PTR [eax+4], 1065353216 ; 3f800000H

; 922  :     b = fb;

  0002a	c7 40 08 00 00
	80 3f		 mov	 DWORD PTR [eax+8], 1065353216 ; 3f800000H

; 923  :     a = fa;

  00031	c7 40 0c 00 00
	80 3f		 mov	 DWORD PTR [eax+12], 1065353216 ; 3f800000H
; File C:\Marty 5.5\Src-Client\Client\EterLib\Util.cpp

; 138  : }

  00038	8b e5		 mov	 esp, ebp
  0003a	5d		 pop	 ebp
  0003b	c3		 ret	 0
$LN2@TokenToCol:
; File D:\Program Files\Microsoft Visual Studio\2022\Community\VC\Tools\MSVC\14.43.34808\include\xstring

; 434  :         return _Myres > _Small_string_capacity;

  0003c	83 79 5c 0f	 cmp	 DWORD PTR [ecx+92], 15	; 0000000fH
; File D:\Program Files\Microsoft Visual Studio\2022\Community\VC\Tools\MSVC\14.43.34808\include\vector

; 1919 :         return _My_data._Myfirst[_Pos];

  00040	8d 41 48	 lea	 eax, DWORD PTR [ecx+72]
; File D:\Program Files\Microsoft Visual Studio\2022\Community\VC\Tools\MSVC\14.43.34808\include\xstring

; 426  :         if (_Large_mode_engaged()) {

  00043	76 02		 jbe	 SHORT $LN16@TokenToCol

; 427  :             _Result = _Unfancy(_Bx._Ptr);

  00045	8b 00		 mov	 eax, DWORD PTR [eax]
$LN16@TokenToCol:
; File C:\Marty 5.5\Src-Client\Client\EterLib\Util.cpp

; 134  : 	return D3DXCOLOR(atof(rVector[0].c_str()),

  00047	50		 push	 eax
  00048	e8 00 00 00 00	 call	 _atof
; File D:\Program Files\Microsoft Visual Studio\2022\Community\VC\Tools\MSVC\14.43.34808\include\vector

; 1919 :         return _My_data._Myfirst[_Pos];

  0004d	8b 06		 mov	 eax, DWORD PTR [esi]
; File C:\Marty 5.5\Src-Client\Client\EterLib\Util.cpp

; 134  : 	return D3DXCOLOR(atof(rVector[0].c_str()),

  0004f	83 c4 04	 add	 esp, 4
; File D:\Program Files\Microsoft Visual Studio\2022\Community\VC\Tools\MSVC\14.43.34808\include\vector

; 1919 :         return _My_data._Myfirst[_Pos];

  00052	83 c0 30	 add	 eax, 48			; 00000030H
; File C:\Marty 5.5\Src-Client\Client\EterLib\Util.cpp

; 134  : 	return D3DXCOLOR(atof(rVector[0].c_str()),

  00055	d9 5d f8	 fstp	 DWORD PTR tv311[ebp]
; File D:\Program Files\Microsoft Visual Studio\2022\Community\VC\Tools\MSVC\14.43.34808\include\xstring

; 434  :         return _Myres > _Small_string_capacity;

  00058	83 78 14 0f	 cmp	 DWORD PTR [eax+20], 15	; 0000000fH

; 426  :         if (_Large_mode_engaged()) {

  0005c	76 02		 jbe	 SHORT $LN29@TokenToCol

; 427  :             _Result = _Unfancy(_Bx._Ptr);

  0005e	8b 00		 mov	 eax, DWORD PTR [eax]
$LN29@TokenToCol:
; File C:\Marty 5.5\Src-Client\Client\EterLib\Util.cpp

; 134  : 	return D3DXCOLOR(atof(rVector[0].c_str()),

  00060	50		 push	 eax
  00061	e8 00 00 00 00	 call	 _atof
; File D:\Program Files\Microsoft Visual Studio\2022\Community\VC\Tools\MSVC\14.43.34808\include\vector

; 1919 :         return _My_data._Myfirst[_Pos];

  00066	8b 06		 mov	 eax, DWORD PTR [esi]
; File C:\Marty 5.5\Src-Client\Client\EterLib\Util.cpp

; 134  : 	return D3DXCOLOR(atof(rVector[0].c_str()),

  00068	83 c4 04	 add	 esp, 4
; File D:\Program Files\Microsoft Visual Studio\2022\Community\VC\Tools\MSVC\14.43.34808\include\vector

; 1919 :         return _My_data._Myfirst[_Pos];

  0006b	83 c0 18	 add	 eax, 24			; 00000018H
; File C:\Marty 5.5\Src-Client\Client\EterLib\Util.cpp

; 134  : 	return D3DXCOLOR(atof(rVector[0].c_str()),

  0006e	d9 5d fc	 fstp	 DWORD PTR tv321[ebp]
; File D:\Program Files\Microsoft Visual Studio\2022\Community\VC\Tools\MSVC\14.43.34808\include\xstring

; 434  :         return _Myres > _Small_string_capacity;

  00071	83 78 14 0f	 cmp	 DWORD PTR [eax+20], 15	; 0000000fH

; 426  :         if (_Large_mode_engaged()) {

  00075	76 02		 jbe	 SHORT $LN42@TokenToCol

; 427  :             _Result = _Unfancy(_Bx._Ptr);

  00077	8b 00		 mov	 eax, DWORD PTR [eax]
$LN42@TokenToCol:
; File C:\Marty 5.5\Src-Client\Client\EterLib\Util.cpp

; 134  : 	return D3DXCOLOR(atof(rVector[0].c_str()),

  00079	50		 push	 eax
  0007a	e8 00 00 00 00	 call	 _atof
; File D:\Program Files\Microsoft Visual Studio\2022\Community\VC\Tools\MSVC\14.43.34808\include\xstring

; 2328 :         return _Mypair._Myval2._Myptr();

  0007f	8b 06		 mov	 eax, DWORD PTR [esi]
; File C:\Marty 5.5\Src-Client\Client\EterLib\Util.cpp

; 134  : 	return D3DXCOLOR(atof(rVector[0].c_str()),

  00081	83 c4 04	 add	 esp, 4
  00084	d9 5d 0c	 fstp	 DWORD PTR tv329[ebp]
; File D:\Program Files\Microsoft Visual Studio\2022\Community\VC\Tools\MSVC\14.43.34808\include\xstring

; 434  :         return _Myres > _Small_string_capacity;

  00087	83 78 14 0f	 cmp	 DWORD PTR [eax+20], 15	; 0000000fH

; 426  :         if (_Large_mode_engaged()) {

  0008b	76 02		 jbe	 SHORT $LN55@TokenToCol

; 427  :             _Result = _Unfancy(_Bx._Ptr);

  0008d	8b 00		 mov	 eax, DWORD PTR [eax]
$LN55@TokenToCol:
; File C:\Marty 5.5\Src-Client\Client\EterLib\Util.cpp

; 134  : 	return D3DXCOLOR(atof(rVector[0].c_str()),

  0008f	50		 push	 eax
  00090	e8 00 00 00 00	 call	 _atof
; File C:\Marty 5.5\Src-Client\extern\include\d3dx8math.inl

; 920  :     r = fr;

  00095	8b 45 08	 mov	 eax, DWORD PTR ___$ReturnUdt$[ebp]
; File C:\Marty 5.5\Src-Client\Client\EterLib\Util.cpp

; 134  : 	return D3DXCOLOR(atof(rVector[0].c_str()),

  00098	83 c4 04	 add	 esp, 4
; File C:\Marty 5.5\Src-Client\extern\include\d3dx8math.inl

; 921  :     g = fg;

  0009b	f3 0f 10 45 0c	 movss	 xmm0, DWORD PTR tv329[ebp]
  000a0	f3 0f 11 40 04	 movss	 DWORD PTR [eax+4], xmm0

; 922  :     b = fb;

  000a5	f3 0f 10 45 fc	 movss	 xmm0, DWORD PTR tv321[ebp]
  000aa	f3 0f 11 40 08	 movss	 DWORD PTR [eax+8], xmm0

; 923  :     a = fa;

  000af	f3 0f 10 45 f8	 movss	 xmm0, DWORD PTR tv311[ebp]
  000b4	d9 18		 fstp	 DWORD PTR [eax]
  000b6	f3 0f 11 40 0c	 movss	 DWORD PTR [eax+12], xmm0
  000bb	5e		 pop	 esi
; File C:\Marty 5.5\Src-Client\Client\EterLib\Util.cpp

; 138  : }

  000bc	8b e5		 mov	 esp, ebp
  000be	5d		 pop	 ebp
  000bf	c3		 ret	 0
?TokenToColor@@YA?AUD3DXCOLOR@@AAV?$vector@V?$basic_string@DU?$char_traits@D@std@@V?$allocator@D@2@@std@@V?$allocator@V?$basic_string@DU?$char_traits@D@std@@V?$allocator@D@2@@std@@@2@@std@@@Z ENDP ; TokenToColor
_TEXT	ENDS
; Function compile flags: /Ogtp
; File C:\Marty 5.5\Src-Client\Client\EterLib\Util.cpp
; File D:\Program Files\Microsoft Visual Studio\2022\Community\VC\Tools\MSVC\14.43.34808\include\vector
; File C:\Marty 5.5\Src-Client\Client\EterLib\Util.cpp
; File C:\Marty 5.5\Src-Client\extern\include\d3dx8math.inl
; File C:\Marty 5.5\Src-Client\Client\EterLib\Util.cpp
; File D:\Program Files\Microsoft Visual Studio\2022\Community\VC\Tools\MSVC\14.43.34808\include\xstring
; File D:\Program Files\Microsoft Visual Studio\2022\Community\VC\Tools\MSVC\14.43.34808\include\vector
; File D:\Program Files\Microsoft Visual Studio\2022\Community\VC\Tools\MSVC\14.43.34808\include\xstring
; File C:\Marty 5.5\Src-Client\Client\EterLib\Util.cpp
; File D:\Program Files\Microsoft Visual Studio\2022\Community\VC\Tools\MSVC\14.43.34808\include\vector
; File C:\Marty 5.5\Src-Client\Client\EterLib\Util.cpp
; File D:\Program Files\Microsoft Visual Studio\2022\Community\VC\Tools\MSVC\14.43.34808\include\vector
; File C:\Marty 5.5\Src-Client\Client\EterLib\Util.cpp
; File D:\Program Files\Microsoft Visual Studio\2022\Community\VC\Tools\MSVC\14.43.34808\include\xstring
; File C:\Marty 5.5\Src-Client\Client\EterLib\Util.cpp
; File D:\Program Files\Microsoft Visual Studio\2022\Community\VC\Tools\MSVC\14.43.34808\include\xstring
; File C:\Marty 5.5\Src-Client\Client\EterLib\Util.cpp
; File D:\Program Files\Microsoft Visual Studio\2022\Community\VC\Tools\MSVC\14.43.34808\include\xstring
; File C:\Marty 5.5\Src-Client\Client\EterLib\Util.cpp
; File C:\Marty 5.5\Src-Client\extern\include\d3dx8math.inl
; File C:\Marty 5.5\Src-Client\Client\EterLib\Util.cpp
; File C:\Marty 5.5\Src-Client\extern\include\d3dx8math.inl
; File C:\Marty 5.5\Src-Client\Client\EterLib\Util.cpp
;	COMDAT ?TokenToVector@@YA?AUD3DXVECTOR3@@AAV?$vector@V?$basic_string@DU?$char_traits@D@std@@V?$allocator@D@2@@std@@V?$allocator@V?$basic_string@DU?$char_traits@D@std@@V?$allocator@D@2@@std@@@2@@std@@@Z
_TEXT	SEGMENT
tv277 = -4						; size = 4
___$ReturnUdt$ = 8					; size = 4
_rVector$ = 12						; size = 4
tv287 = 12						; size = 4
?TokenToVector@@YA?AUD3DXVECTOR3@@AAV?$vector@V?$basic_string@DU?$char_traits@D@std@@V?$allocator@D@2@@std@@V?$allocator@V?$basic_string@DU?$char_traits@D@std@@V?$allocator@D@2@@std@@@2@@std@@@Z PROC ; TokenToVector, COMDAT

; 114  : {

  00000	55		 push	 ebp
  00001	8b ec		 mov	 ebp, esp
  00003	51		 push	 ecx
  00004	56		 push	 esi
; File D:\Program Files\Microsoft Visual Studio\2022\Community\VC\Tools\MSVC\14.43.34808\include\vector

; 1900 :         return static_cast<size_type>(_My_data._Mylast - _My_data._Myfirst);

  00005	8b 75 0c	 mov	 esi, DWORD PTR _rVector$[ebp]
  00008	8b 46 04	 mov	 eax, DWORD PTR [esi+4]
  0000b	8b 0e		 mov	 ecx, DWORD PTR [esi]
  0000d	2b c1		 sub	 eax, ecx
; File C:\Marty 5.5\Src-Client\Client\EterLib\Util.cpp

; 115  : 	if (3 != rVector.size())

  0000f	83 e8 48	 sub	 eax, 72			; 00000048H
  00012	83 f8 18	 cmp	 eax, 24			; 00000018H
  00015	72 1c		 jb	 SHORT $LN2@TokenToVec
; File C:\Marty 5.5\Src-Client\extern\include\d3dx8math.inl

; 180  :     x = fx;

  00017	8b 45 08	 mov	 eax, DWORD PTR ___$ReturnUdt$[ebp]
  0001a	5e		 pop	 esi
  0001b	c7 00 00 00 00
	00		 mov	 DWORD PTR [eax], 0

; 181  :     y = fy;

  00021	c7 40 04 00 00
	00 00		 mov	 DWORD PTR [eax+4], 0

; 182  :     z = fz;

  00028	c7 40 08 00 00
	00 00		 mov	 DWORD PTR [eax+8], 0
; File C:\Marty 5.5\Src-Client\Client\EterLib\Util.cpp

; 124  : }

  0002f	8b e5		 mov	 esp, ebp
  00031	5d		 pop	 ebp
  00032	c3		 ret	 0
$LN2@TokenToVec:
; File D:\Program Files\Microsoft Visual Studio\2022\Community\VC\Tools\MSVC\14.43.34808\include\xstring

; 434  :         return _Myres > _Small_string_capacity;

  00033	83 79 44 0f	 cmp	 DWORD PTR [ecx+68], 15	; 0000000fH
; File D:\Program Files\Microsoft Visual Studio\2022\Community\VC\Tools\MSVC\14.43.34808\include\vector

; 1919 :         return _My_data._Myfirst[_Pos];

  00037	8d 41 30	 lea	 eax, DWORD PTR [ecx+48]
; File D:\Program Files\Microsoft Visual Studio\2022\Community\VC\Tools\MSVC\14.43.34808\include\xstring

; 426  :         if (_Large_mode_engaged()) {

  0003a	76 02		 jbe	 SHORT $LN16@TokenToVec

; 427  :             _Result = _Unfancy(_Bx._Ptr);

  0003c	8b 00		 mov	 eax, DWORD PTR [eax]
$LN16@TokenToVec:
; File C:\Marty 5.5\Src-Client\Client\EterLib\Util.cpp

; 121  : 	return D3DXVECTOR3(atof(rVector[0].c_str()),

  0003e	50		 push	 eax
  0003f	e8 00 00 00 00	 call	 _atof
; File D:\Program Files\Microsoft Visual Studio\2022\Community\VC\Tools\MSVC\14.43.34808\include\vector

; 1919 :         return _My_data._Myfirst[_Pos];

  00044	8b 06		 mov	 eax, DWORD PTR [esi]
; File C:\Marty 5.5\Src-Client\Client\EterLib\Util.cpp

; 121  : 	return D3DXVECTOR3(atof(rVector[0].c_str()),

  00046	83 c4 04	 add	 esp, 4
; File D:\Program Files\Microsoft Visual Studio\2022\Community\VC\Tools\MSVC\14.43.34808\include\vector

; 1919 :         return _My_data._Myfirst[_Pos];

  00049	83 c0 18	 add	 eax, 24			; 00000018H
; File C:\Marty 5.5\Src-Client\Client\EterLib\Util.cpp

; 121  : 	return D3DXVECTOR3(atof(rVector[0].c_str()),

  0004c	d9 5d fc	 fstp	 DWORD PTR tv277[ebp]
; File D:\Program Files\Microsoft Visual Studio\2022\Community\VC\Tools\MSVC\14.43.34808\include\xstring

; 434  :         return _Myres > _Small_string_capacity;

  0004f	83 78 14 0f	 cmp	 DWORD PTR [eax+20], 15	; 0000000fH

; 426  :         if (_Large_mode_engaged()) {

  00053	76 02		 jbe	 SHORT $LN29@TokenToVec

; 427  :             _Result = _Unfancy(_Bx._Ptr);

  00055	8b 00		 mov	 eax, DWORD PTR [eax]
$LN29@TokenToVec:
; File C:\Marty 5.5\Src-Client\Client\EterLib\Util.cpp

; 121  : 	return D3DXVECTOR3(atof(rVector[0].c_str()),

  00057	50		 push	 eax
  00058	e8 00 00 00 00	 call	 _atof
; File D:\Program Files\Microsoft Visual Studio\2022\Community\VC\Tools\MSVC\14.43.34808\include\xstring

; 2328 :         return _Mypair._Myval2._Myptr();

  0005d	8b 06		 mov	 eax, DWORD PTR [esi]
; File C:\Marty 5.5\Src-Client\Client\EterLib\Util.cpp

; 121  : 	return D3DXVECTOR3(atof(rVector[0].c_str()),

  0005f	83 c4 04	 add	 esp, 4
  00062	d9 5d 0c	 fstp	 DWORD PTR tv287[ebp]
; File D:\Program Files\Microsoft Visual Studio\2022\Community\VC\Tools\MSVC\14.43.34808\include\xstring

; 434  :         return _Myres > _Small_string_capacity;

  00065	83 78 14 0f	 cmp	 DWORD PTR [eax+20], 15	; 0000000fH

; 426  :         if (_Large_mode_engaged()) {

  00069	76 02		 jbe	 SHORT $LN42@TokenToVec

; 427  :             _Result = _Unfancy(_Bx._Ptr);

  0006b	8b 00		 mov	 eax, DWORD PTR [eax]
$LN42@TokenToVec:
; File C:\Marty 5.5\Src-Client\Client\EterLib\Util.cpp

; 121  : 	return D3DXVECTOR3(atof(rVector[0].c_str()),

  0006d	50		 push	 eax
  0006e	e8 00 00 00 00	 call	 _atof
; File C:\Marty 5.5\Src-Client\extern\include\d3dx8math.inl

; 180  :     x = fx;

  00073	8b 45 08	 mov	 eax, DWORD PTR ___$ReturnUdt$[ebp]
; File C:\Marty 5.5\Src-Client\Client\EterLib\Util.cpp

; 121  : 	return D3DXVECTOR3(atof(rVector[0].c_str()),

  00076	83 c4 04	 add	 esp, 4
; File C:\Marty 5.5\Src-Client\extern\include\d3dx8math.inl

; 181  :     y = fy;

  00079	f3 0f 10 45 0c	 movss	 xmm0, DWORD PTR tv287[ebp]
  0007e	f3 0f 11 40 04	 movss	 DWORD PTR [eax+4], xmm0

; 182  :     z = fz;

  00083	f3 0f 10 45 fc	 movss	 xmm0, DWORD PTR tv277[ebp]
  00088	d9 18		 fstp	 DWORD PTR [eax]
  0008a	f3 0f 11 40 08	 movss	 DWORD PTR [eax+8], xmm0
  0008f	5e		 pop	 esi
; File C:\Marty 5.5\Src-Client\Client\EterLib\Util.cpp

; 124  : }

  00090	8b e5		 mov	 esp, ebp
  00092	5d		 pop	 ebp
  00093	c3		 ret	 0
?TokenToVector@@YA?AUD3DXVECTOR3@@AAV?$vector@V?$basic_string@DU?$char_traits@D@std@@V?$allocator@D@2@@std@@V?$allocator@V?$basic_string@DU?$char_traits@D@std@@V?$allocator@D@2@@std@@@2@@std@@@Z ENDP ; TokenToVector
_TEXT	ENDS
; Function compile flags: /Ogtp
; File C:\Marty 5.5\Src-Client\Client\EterLib\Util.cpp
; File D:\Program Files\Microsoft Visual Studio\2022\Community\VC\Tools\MSVC\14.43.34808\include\vector
; File C:\Marty 5.5\Src-Client\Client\EterLib\Util.cpp
; File D:\Program Files\Microsoft Visual Studio\2022\Community\VC\Tools\MSVC\14.43.34808\include\xstring
; File C:\Marty 5.5\Src-Client\Client\EterLib\Util.cpp
; File D:\Program Files\Microsoft Visual Studio\2022\Community\VC\Tools\MSVC\14.43.34808\include\xstring
; File C:\Marty 5.5\Src-Client\Client\EterLib\Util.cpp
; File D:\Program Files\Microsoft Visual Studio\2022\Community\VC\Tools\MSVC\14.43.34808\include\vector
; File C:\Marty 5.5\Src-Client\Client\EterLib\Util.cpp
; File D:\Program Files\Microsoft Visual Studio\2022\Community\VC\Tools\MSVC\14.43.34808\include\vector
; File C:\Marty 5.5\Src-Client\Client\EterLib\Util.cpp
; File D:\Program Files\Microsoft Visual Studio\2022\Community\VC\Tools\MSVC\14.43.34808\include\vector
; File C:\Marty 5.5\Src-Client\Client\EterLib\Util.cpp
; File D:\Program Files\Microsoft Visual Studio\2022\Community\VC\Tools\MSVC\14.43.34808\include\vector
; File C:\Marty 5.5\Src-Client\Client\EterLib\Util.cpp
; File D:\Program Files\Microsoft Visual Studio\2022\Community\VC\Tools\MSVC\14.43.34808\include\vector
; File C:\Marty 5.5\Src-Client\Client\EterLib\Util.cpp
; File D:\Program Files\Microsoft Visual Studio\2022\Community\VC\Tools\MSVC\14.43.34808\include\xstring
; File C:\Marty 5.5\Src-Client\Client\EterLib\Util.cpp
; File D:\Program Files\Microsoft Visual Studio\2022\Community\VC\Tools\MSVC\14.43.34808\include\xstring
; File C:\Marty 5.5\Src-Client\Client\EterLib\Util.cpp
; File D:\Program Files\Microsoft Visual Studio\2022\Community\VC\Tools\MSVC\14.43.34808\include\vector
; File C:\Marty 5.5\Src-Client\Client\EterLib\Util.cpp
; File D:\Program Files\Microsoft Visual Studio\2022\Community\VC\Tools\MSVC\14.43.34808\include\vector
; File C:\Marty 5.5\Src-Client\Client\EterLib\Util.cpp
; File D:\Program Files\Microsoft Visual Studio\2022\Community\VC\Tools\MSVC\14.43.34808\include\vector
; File D:\Program Files\Microsoft Visual Studio\2022\Community\VC\Tools\MSVC\14.43.34808\include\xmemory
; File D:\Program Files\Microsoft Visual Studio\2022\Community\VC\Tools\MSVC\14.43.34808\include\vector
; File C:\Marty 5.5\Src-Client\Client\EterLib\Util.cpp
; File D:\Program Files\Microsoft Visual Studio\2022\Community\VC\Tools\MSVC\14.43.34808\include\vector
; File C:\Marty 5.5\Src-Client\Client\EterLib\Util.cpp
; File D:\Program Files\Microsoft Visual Studio\2022\Community\VC\Tools\MSVC\14.43.34808\include\utility
; File D:\Program Files\Microsoft Visual Studio\2022\Community\VC\Tools\MSVC\14.43.34808\include\vector
; File D:\Program Files\Microsoft Visual Studio\2022\Community\VC\Tools\MSVC\14.43.34808\include\utility
; File D:\Program Files\Microsoft Visual Studio\2022\Community\VC\Tools\MSVC\14.43.34808\include\vector
; File D:\Program Files\Microsoft Visual Studio\2022\Community\VC\Tools\MSVC\14.43.34808\include\xmemory
; File D:\Program Files\Microsoft Visual Studio\2022\Community\VC\Tools\MSVC\14.43.34808\include\vector
; File D:\Program Files\Microsoft Visual Studio\2022\Community\VC\Tools\MSVC\14.43.34808\include\xmemory
; File D:\Program Files\Microsoft Visual Studio\2022\Community\VC\Tools\MSVC\14.43.34808\include\vector
; File D:\Program Files\Microsoft Visual Studio\2022\Community\VC\Tools\MSVC\14.43.34808\include\xmemory
; File D:\Program Files\Microsoft Visual Studio\2022\Community\VC\Tools\MSVC\14.43.34808\include\vector
; File D:\Program Files\Microsoft Visual Studio\2022\Community\VC\Tools\MSVC\14.43.34808\include\xmemory
; File D:\Program Files\Microsoft Visual Studio\2022\Community\VC\Tools\MSVC\14.43.34808\include\vector
; File D:\Program Files\Microsoft Visual Studio\2022\Community\VC\Tools\MSVC\14.43.34808\include\xtree
; File C:\Marty 5.5\Src-Client\Client\EterLib\Util.cpp
; File D:\Program Files\Microsoft Visual Studio\2022\Community\VC\Tools\MSVC\14.43.34808\include\xtree
; File D:\Program Files\Microsoft Visual Studio\2022\Community\VC\Tools\MSVC\14.43.34808\include\type_traits
; File D:\Program Files\Microsoft Visual Studio\2022\Community\VC\Tools\MSVC\14.43.34808\include\xtree
; File D:\Program Files\Microsoft Visual Studio\2022\Community\VC\Tools\MSVC\14.43.34808\include\type_traits
; File D:\Program Files\Microsoft Visual Studio\2022\Community\VC\Tools\MSVC\14.43.34808\include\xtree
; File D:\Program Files\Microsoft Visual Studio\2022\Community\VC\Tools\MSVC\14.43.34808\include\type_traits
; File D:\Program Files\Microsoft Visual Studio\2022\Community\VC\Tools\MSVC\14.43.34808\include\xtree
; File D:\Program Files\Microsoft Visual Studio\2022\Community\VC\Tools\MSVC\14.43.34808\include\xmemory
; File D:\Program Files\Microsoft Visual Studio\2022\Community\VC\Tools\MSVC\14.43.34808\include\xtree
; File D:\Program Files\Microsoft Visual Studio\2022\Community\VC\Tools\MSVC\14.43.34808\include\xmemory
; File D:\Program Files\Microsoft Visual Studio\2022\Community\VC\Tools\MSVC\14.43.34808\include\utility
; File D:\Program Files\Microsoft Visual Studio\2022\Community\VC\Tools\MSVC\14.43.34808\include\xtree
; File D:\Program Files\Microsoft Visual Studio\2022\Community\VC\Tools\MSVC\14.43.34808\include\utility
; File D:\Program Files\Microsoft Visual Studio\2022\Community\VC\Tools\MSVC\14.43.34808\include\vector
; File D:\Program Files\Microsoft Visual Studio\2022\Community\VC\Tools\MSVC\14.43.34808\include\xtree
; File D:\Program Files\Microsoft Visual Studio\2022\Community\VC\Tools\MSVC\14.43.34808\include\vector
; File D:\Program Files\Microsoft Visual Studio\2022\Community\VC\Tools\MSVC\14.43.34808\include\xtree
; File D:\Program Files\Microsoft Visual Studio\2022\Community\VC\Tools\MSVC\14.43.34808\include\vector
; File D:\Program Files\Microsoft Visual Studio\2022\Community\VC\Tools\MSVC\14.43.34808\include\xtree
; File D:\Program Files\Microsoft Visual Studio\2022\Community\VC\Tools\MSVC\14.43.34808\include\utility
; File D:\Program Files\Microsoft Visual Studio\2022\Community\VC\Tools\MSVC\14.43.34808\include\xtree
; File C:\Marty 5.5\Src-Client\Client\EterLib\Util.cpp
; File D:\Program Files\Microsoft Visual Studio\2022\Community\VC\Tools\MSVC\14.43.34808\include\vector
; File D:\Program Files\Microsoft Visual Studio\2022\Community\VC\Tools\MSVC\14.43.34808\include\xmemory
; File D:\Program Files\Microsoft Visual Studio\2022\Community\VC\Tools\MSVC\14.43.34808\include\vector
; File D:\Program Files\Microsoft Visual Studio\2022\Community\VC\Tools\MSVC\14.43.34808\include\xstring
; File D:\Program Files\Microsoft Visual Studio\2022\Community\VC\Tools\MSVC\14.43.34808\include\xmemory
; File D:\Program Files\Microsoft Visual Studio\2022\Community\VC\Tools\MSVC\14.43.34808\include\xstring
; File D:\Program Files\Microsoft Visual Studio\2022\Community\VC\Tools\MSVC\14.43.34808\include\xmemory
; File D:\Program Files\Microsoft Visual Studio\2022\Community\VC\Tools\MSVC\14.43.34808\include\xstring
; File C:\Marty 5.5\Src-Client\Client\EterLib\Util.cpp
; File D:\Program Files\Microsoft Visual Studio\2022\Community\VC\Tools\MSVC\14.43.34808\include\xstring
; File D:\Program Files\Microsoft Visual Studio\2022\Community\VC\Tools\MSVC\14.43.34808\include\xmemory
; File D:\Program Files\Microsoft Visual Studio\2022\Community\VC\Tools\MSVC\14.43.34808\include\xstring
; File D:\Program Files\Microsoft Visual Studio\2022\Community\VC\Tools\MSVC\14.43.34808\include\xmemory
; File D:\Program Files\Microsoft Visual Studio\2022\Community\VC\Tools\MSVC\14.43.34808\include\vector
; File C:\Marty 5.5\Src-Client\Client\EterLib\Util.cpp
; File D:\Program Files\Microsoft Visual Studio\2022\Community\VC\Tools\MSVC\14.43.34808\include\vector
; File C:\Marty 5.5\Src-Client\Client\EterLib\Util.cpp
; File D:\Program Files\Microsoft Visual Studio\2022\Community\VC\Tools\MSVC\14.43.34808\include\vector
; File C:\Marty 5.5\Src-Client\Client\EterLib\Util.cpp
; File D:\Program Files\Microsoft Visual Studio\2022\Community\VC\Tools\MSVC\14.43.34808\include\vector
; File C:\Marty 5.5\Src-Client\Client\EterLib\Util.cpp
; File D:\Program Files\Microsoft Visual Studio\2022\Community\VC\Tools\MSVC\14.43.34808\include\xutility
; File D:\Program Files\Microsoft Visual Studio\2022\Community\VC\Tools\MSVC\14.43.34808\include\xstring
; File D:\Program Files\Microsoft Visual Studio\2022\Community\VC\Tools\MSVC\14.43.34808\include\xutility
; File D:\Program Files\Microsoft Visual Studio\2022\Community\VC\Tools\MSVC\14.43.34808\include\xstring
; File D:\Program Files\Microsoft Visual Studio\2022\Community\VC\Tools\MSVC\14.43.34808\include\xmemory
; File D:\Program Files\Microsoft Visual Studio\2022\Community\VC\Tools\MSVC\14.43.34808\include\xstring
; File C:\Marty 5.5\Src-Client\Client\EterLib\Util.cpp
; File D:\Program Files\Microsoft Visual Studio\2022\Community\VC\Tools\MSVC\14.43.34808\include\xstring
; File C:\Marty 5.5\Src-Client\Client\EterLib\Util.cpp
; File D:\Program Files\Microsoft Visual Studio\2022\Community\VC\Tools\MSVC\14.43.34808\include\vector
; File C:\Marty 5.5\Src-Client\Client\EterLib\Util.cpp
; File D:\Program Files\Microsoft Visual Studio\2022\Community\VC\Tools\MSVC\14.43.34808\include\vector
; File C:\Marty 5.5\Src-Client\Client\EterLib\Util.cpp
; File D:\Program Files\Microsoft Visual Studio\2022\Community\VC\Tools\MSVC\14.43.34808\include\vector
; File D:\Program Files\Microsoft Visual Studio\2022\Community\VC\Tools\MSVC\14.43.34808\include\xstring
; File D:\Program Files\Microsoft Visual Studio\2022\Community\VC\Tools\MSVC\14.43.34808\include\xmemory
; File D:\Program Files\Microsoft Visual Studio\2022\Community\VC\Tools\MSVC\14.43.34808\include\xstring
; File D:\Program Files\Microsoft Visual Studio\2022\Community\VC\Tools\MSVC\14.43.34808\include\xmemory
; File D:\Program Files\Microsoft Visual Studio\2022\Community\VC\Tools\MSVC\14.43.34808\include\xstring
; File C:\Marty 5.5\Src-Client\Client\EterLib\Util.cpp
; File D:\Program Files\Microsoft Visual Studio\2022\Community\VC\Tools\MSVC\14.43.34808\include\xstring
; File D:\Program Files\Microsoft Visual Studio\2022\Community\VC\Tools\MSVC\14.43.34808\include\xmemory
; File D:\Program Files\Microsoft Visual Studio\2022\Community\VC\Tools\MSVC\14.43.34808\include\xstring
; File D:\Program Files\Microsoft Visual Studio\2022\Community\VC\Tools\MSVC\14.43.34808\include\xmemory
; File C:\Marty 5.5\Src-Client\Client\EterLib\Util.cpp
; File D:\Program Files\Microsoft Visual Studio\2022\Community\VC\Tools\MSVC\14.43.34808\include\vector
; File C:\Marty 5.5\Src-Client\Client\EterLib\Util.cpp
; File D:\Program Files\Microsoft Visual Studio\2022\Community\VC\Tools\MSVC\14.43.34808\include\vector
; File C:\Marty 5.5\Src-Client\Client\EterLib\Util.cpp
; File D:\Program Files\Microsoft Visual Studio\2022\Community\VC\Tools\MSVC\14.43.34808\include\xtree
; File D:\Program Files\Microsoft Visual Studio\2022\Community\VC\Tools\MSVC\14.43.34808\include\vector
; File C:\Marty 5.5\Src-Client\Client\EterLib\Util.cpp
;	COMDAT ?LoadMultipleTextData@@YA_NPBDAAV?$map@V?$basic_string@DU?$char_traits@D@std@@V?$allocator@D@2@@std@@V?$vector@V?$basic_string@DU?$char_traits@D@std@@V?$allocator@D@2@@std@@V?$allocator@V?$basic_string@DU?$char_traits@D@std@@V?$allocator@D@2@@std@@@2@@2@U?$less@V?$basic_string@DU?$char_traits@D@std@@V?$allocator@D@2@@std@@@2@V?$allocator@U?$pair@$$CBV?$basic_string@DU?$char_traits@D@std@@V?$allocator@D@2@@std@@V?$vector@V?$basic_string@DU?$char_traits@D@std@@V?$allocator@D@2@@std@@V?$allocator@V?$basic_string@DU?$char_traits@D@std@@V?$allocator@D@2@@std@@@2@@2@@std@@@2@@std@@@Z
_TEXT	SEGMENT
$T4 = -508						; size = 8
__Backout$5 = -500					; size = 12
$T6 = -488						; size = 8
_pModelData$ = -480					; size = 4
_textFileLoader$ = -476					; size = 16
__Guard$7 = -460					; size = 4
__Myhead$1$ = -460					; size = 4
__Loc$2$ = -456						; size = 4
$T1$sroa$1793$1$ = -452					; size = 4
_stSubTokenVector$8 = -448				; size = 12
_rstTokenVectorMap$GSCopy$1$ = -436			; size = 4
_i$1$ = -432						; size = 4
__ULast$1$ = -428					; size = 4
tv2692 = -428						; size = 4
tv2697 = -428						; size = 4
__Loc$1$ = -428						; size = 4
_stTokenVector$ = -424					; size = 12
_j$1$ = -412						; size = 4
$T9 = -412						; size = 4
tv2664 = -408						; size = 4
__Last$1$ = -408					; size = 4
$T10 = -408						; size = 4
$T11 = -401						; size = 1
_File$ = -400						; size = 324
_key$12 = -76						; size = 24
_key$13 = -76						; size = 24
$T14 = -52						; size = 36
$T15 = -52						; size = 36
__$ArrayPad$ = -16					; size = 4
__$EHRec$ = -12						; size = 12
_c_szFileName$ = 8					; size = 4
_rstTokenVectorMap$ = 12				; size = 4
?LoadMultipleTextData@@YA_NPBDAAV?$map@V?$basic_string@DU?$char_traits@D@std@@V?$allocator@D@2@@std@@V?$vector@V?$basic_string@DU?$char_traits@D@std@@V?$allocator@D@2@@std@@V?$allocator@V?$basic_string@DU?$char_traits@D@std@@V?$allocator@D@2@@std@@@2@@2@U?$less@V?$basic_string@DU?$char_traits@D@std@@V?$allocator@D@2@@std@@@2@V?$allocator@U?$pair@$$CBV?$basic_string@DU?$char_traits@D@std@@V?$allocator@D@2@@std@@V?$vector@V?$basic_string@DU?$char_traits@D@std@@V?$allocator@D@2@@std@@V?$allocator@V?$basic_string@DU?$char_traits@D@std@@V?$allocator@D@2@@std@@@2@@2@@std@@@2@@std@@@Z PROC ; LoadMultipleTextData, COMDAT

; 52   : {

  00000	55		 push	 ebp
  00001	8b ec		 mov	 ebp, esp
  00003	6a ff		 push	 -1
  00005	68 00 00 00 00	 push	 __ehhandler$?LoadMultipleTextData@@YA_NPBDAAV?$map@V?$basic_string@DU?$char_traits@D@std@@V?$allocator@D@2@@std@@V?$vector@V?$basic_string@DU?$char_traits@D@std@@V?$allocator@D@2@@std@@V?$allocator@V?$basic_string@DU?$char_traits@D@std@@V?$allocator@D@2@@std@@@2@@2@U?$less@V?$basic_string@DU?$char_traits@D@std@@V?$allocator@D@2@@std@@@2@V?$allocator@U?$pair@$$CBV?$basic_string@DU?$char_traits@D@std@@V?$allocator@D@2@@std@@V?$vector@V?$basic_string@DU?$char_traits@D@std@@V?$allocator@D@2@@std@@V?$allocator@V?$basic_string@DU?$char_traits@D@std@@V?$allocator@D@2@@std@@@2@@2@@std@@@2@@std@@@Z
  0000a	64 a1 00 00 00
	00		 mov	 eax, DWORD PTR fs:0
  00010	50		 push	 eax
  00011	81 ec f0 01 00
	00		 sub	 esp, 496		; 000001f0H
  00017	a1 00 00 00 00	 mov	 eax, DWORD PTR ___security_cookie
  0001c	33 c5		 xor	 eax, ebp
  0001e	89 45 f0	 mov	 DWORD PTR __$ArrayPad$[ebp], eax
  00021	56		 push	 esi
  00022	57		 push	 edi
  00023	50		 push	 eax
  00024	8d 45 f4	 lea	 eax, DWORD PTR __$EHRec$[ebp]
  00027	64 a3 00 00 00
	00		 mov	 DWORD PTR fs:0, eax
  0002d	8b 45 0c	 mov	 eax, DWORD PTR _rstTokenVectorMap$[ebp]

; 53   : 	LPCVOID pModelData;
; 54   : 	CMappedFile File;

  00030	8d 8d 70 fe ff
	ff		 lea	 ecx, DWORD PTR _File$[ebp]
  00036	8b 75 08	 mov	 esi, DWORD PTR _c_szFileName$[ebp]
  00039	89 85 4c fe ff
	ff		 mov	 DWORD PTR _rstTokenVectorMap$GSCopy$1$[ebp], eax
  0003f	e8 00 00 00 00	 call	 ??0CMappedFile@@QAE@XZ	; CMappedFile::CMappedFile

; 55   : 
; 56   : 	if (!CEterPackManager::Instance().Get(File, c_szFileName, &pModelData))

  00044	8b 0d 00 00 00
	00		 mov	 ecx, DWORD PTR ?ms_singleton@?$CSingleton@VCEterPackManager@@@@0PAVCEterPackManager@@A ; CSingleton<CEterPackManager>::ms_singleton
  0004a	8d 85 20 fe ff
	ff		 lea	 eax, DWORD PTR _pModelData$[ebp]
  00050	50		 push	 eax
  00051	56		 push	 esi
  00052	8d 85 70 fe ff
	ff		 lea	 eax, DWORD PTR _File$[ebp]
  00058	c7 45 fc 00 00
	00 00		 mov	 DWORD PTR __$EHRec$[ebp+8], 0
  0005f	50		 push	 eax
  00060	e8 00 00 00 00	 call	 ?Get@CEterPackManager@@QAE_NAAVCMappedFile@@PBDPAPBX@Z ; CEterPackManager::Get
  00065	84 c0		 test	 al, al
  00067	75 0b		 jne	 SHORT $LN11@LoadMultip
  00069	88 85 6f fe ff
	ff		 mov	 BYTE PTR $T11[ebp], al
  0006f	e9 67 07 00 00	 jmp	 $LN26@LoadMultip
$LN11@LoadMultip:

; 57   : 		return false;
; 58   : 
; 59   : 	DWORD i;
; 60   : 
; 61   : 	CMemoryTextFileLoader textFileLoader;

  00074	8d 8d 24 fe ff
	ff		 lea	 ecx, DWORD PTR _textFileLoader$[ebp]
  0007a	e8 00 00 00 00	 call	 ??0CMemoryTextFileLoader@@QAE@XZ ; CMemoryTextFileLoader::CMemoryTextFileLoader
; File D:\Program Files\Microsoft Visual Studio\2022\Community\VC\Tools\MSVC\14.43.34808\include\vector

; 400  :     _CONSTEXPR20 _Vector_val() noexcept : _Myfirst(), _Mylast(), _Myend() {}

  0007f	c7 85 58 fe ff
	ff 00 00 00 00	 mov	 DWORD PTR _stTokenVector$[ebp], 0
  00089	c7 85 5c fe ff
	ff 00 00 00 00	 mov	 DWORD PTR _stTokenVector$[ebp+4], 0
  00093	c7 85 60 fe ff
	ff 00 00 00 00	 mov	 DWORD PTR _stTokenVector$[ebp+8], 0
; File C:\Marty 5.5\Src-Client\Client\EterLib\Util.cpp

; 64   : 	textFileLoader.Bind(File.Size(), pModelData);

  0009d	8b b5 20 fe ff
	ff		 mov	 esi, DWORD PTR _pModelData$[ebp]
  000a3	8d 8d 70 fe ff
	ff		 lea	 ecx, DWORD PTR _File$[ebp]
  000a9	c6 45 fc 02	 mov	 BYTE PTR __$EHRec$[ebp+8], 2
  000ad	e8 00 00 00 00	 call	 ?Size@CMappedFile@@QAEKXZ ; CMappedFile::Size
  000b2	56		 push	 esi
  000b3	50		 push	 eax
  000b4	8d 8d 24 fe ff
	ff		 lea	 ecx, DWORD PTR _textFileLoader$[ebp]
  000ba	e8 00 00 00 00	 call	 ?Bind@CMemoryTextFileLoader@@QAEXHPBX@Z ; CMemoryTextFileLoader::Bind

; 66   : 	for (i = 0; i < textFileLoader.GetLineCount(); ++i)

  000bf	33 f6		 xor	 esi, esi
  000c1	8d 8d 24 fe ff
	ff		 lea	 ecx, DWORD PTR _textFileLoader$[ebp]
  000c7	89 b5 50 fe ff
	ff		 mov	 DWORD PTR _i$1$[ebp], esi
  000cd	e8 00 00 00 00	 call	 ?GetLineCount@CMemoryTextFileLoader@@QAEKXZ ; CMemoryTextFileLoader::GetLineCount
  000d2	85 c0		 test	 eax, eax
  000d4	0f 84 e4 06 00
	00		 je	 $LN720@LoadMultip
  000da	66 0f 1f 44 00
	00		 npad	 6
$LL4@LoadMultip:

; 67   : 	{
; 68   : 		if (!textFileLoader.SplitLine(i, &stTokenVector))

  000e0	68 00 00 00 00	 push	 OFFSET ??_C@_02OJDBNLEE@?5?7@
  000e5	8d 85 58 fe ff
	ff		 lea	 eax, DWORD PTR _stTokenVector$[ebp]
  000eb	50		 push	 eax
  000ec	56		 push	 esi
  000ed	8d 8d 24 fe ff
	ff		 lea	 ecx, DWORD PTR _textFileLoader$[ebp]
  000f3	e8 00 00 00 00	 call	 ?SplitLine@CMemoryTextFileLoader@@QAE_NKPAV?$vector@V?$basic_string@DU?$char_traits@D@std@@V?$allocator@D@2@@std@@V?$allocator@V?$basic_string@DU?$char_traits@D@std@@V?$allocator@D@2@@std@@@2@@std@@PBD@Z ; CMemoryTextFileLoader::SplitLine
  000f8	84 c0		 test	 al, al
  000fa	0f 84 a4 06 00
	00		 je	 $LN2@LoadMultip

; 71   : 		stl_lowers(stTokenVector[0]);

  00100	ff b5 58 fe ff
	ff		 push	 DWORD PTR _stTokenVector$[ebp]
  00106	e8 00 00 00 00	 call	 ?stl_lowers@@YAXAAV?$basic_string@DU?$char_traits@D@std@@V?$allocator@D@2@@std@@@Z ; stl_lowers
; File D:\Program Files\Microsoft Visual Studio\2022\Community\VC\Tools\MSVC\14.43.34808\include\xstring

; 2876 :         return _Traits_compare<_Traits>(_Mypair._Myval2._Myptr(), _Mypair._Myval2._Mysize, _Ptr, _Traits::length(_Ptr));

  0010b	8b bd 58 fe ff
	ff		 mov	 edi, DWORD PTR _stTokenVector$[ebp]
; File C:\Marty 5.5\Src-Client\Client\EterLib\Util.cpp

; 71   : 		stl_lowers(stTokenVector[0]);

  00111	83 c4 04	 add	 esp, 4
; File D:\Program Files\Microsoft Visual Studio\2022\Community\VC\Tools\MSVC\14.43.34808\include\xstring

; 425  :         const value_type* _Result = _Bx._Buf;

  00114	8b c7		 mov	 eax, edi
  00116	8b c8		 mov	 ecx, eax
  00118	89 8d 54 fe ff
	ff		 mov	 DWORD PTR tv2697[ebp], ecx

; 434  :         return _Myres > _Small_string_capacity;

  0011e	83 79 14 0f	 cmp	 DWORD PTR [ecx+20], 15	; 0000000fH

; 426  :         if (_Large_mode_engaged()) {

  00122	76 02		 jbe	 SHORT $LN496@LoadMultip

; 427  :             _Result = _Unfancy(_Bx._Ptr);

  00124	8b 07		 mov	 eax, DWORD PTR [edi]
$LN496@LoadMultip:

; 2876 :         return _Traits_compare<_Traits>(_Mypair._Myval2._Myptr(), _Mypair._Myval2._Mysize, _Ptr, _Traits::length(_Ptr));

  00126	6a 05		 push	 5
  00128	68 00 00 00 00	 push	 OFFSET ??_C@_05FAGFPHJG@start@
  0012d	ff 77 10	 push	 DWORD PTR [edi+16]
  00130	50		 push	 eax
  00131	e8 00 00 00 00	 call	 ??$_Traits_compare@U?$char_traits@D@std@@@std@@YAHQBDI0I@Z ; std::_Traits_compare<std::char_traits<char> >
  00136	83 c4 10	 add	 esp, 16			; 00000010H
; File C:\Marty 5.5\Src-Client\Client\EterLib\Util.cpp

; 74   : 		if (0 == stTokenVector[0].compare("start"))

  00139	85 c0		 test	 eax, eax
  0013b	0f 85 fa 04 00
	00		 jne	 $LN13@LoadMultip
; File D:\Program Files\Microsoft Visual Studio\2022\Community\VC\Tools\MSVC\14.43.34808\include\vector

; 400  :     _CONSTEXPR20 _Vector_val() noexcept : _Myfirst(), _Mylast(), _Myend() {}

  00141	89 85 40 fe ff
	ff		 mov	 DWORD PTR _stSubTokenVector$8[ebp], eax
  00147	89 85 44 fe ff
	ff		 mov	 DWORD PTR _stSubTokenVector$8[ebp+4], eax
  0014d	89 85 48 fe ff
	ff		 mov	 DWORD PTR _stSubTokenVector$8[ebp+8], eax
; File C:\Marty 5.5\Src-Client\Client\EterLib\Util.cpp

; 76   : 			CTokenVector stSubTokenVector;

  00153	8b 85 54 fe ff
	ff		 mov	 eax, DWORD PTR tv2697[ebp]
  00159	83 c0 18	 add	 eax, 24			; 00000018H
  0015c	c6 45 fc 03	 mov	 BYTE PTR __$EHRec$[ebp+8], 3

; 77   : 
; 78   : 			stl_lowers(stTokenVector[1]);

  00160	50		 push	 eax
  00161	e8 00 00 00 00	 call	 ?stl_lowers@@YAXAAV?$basic_string@DU?$char_traits@D@std@@V?$allocator@D@2@@std@@@Z ; stl_lowers
; File D:\Program Files\Microsoft Visual Studio\2022\Community\VC\Tools\MSVC\14.43.34808\include\vector

; 1919 :         return _My_data._Myfirst[_Pos];

  00166	8b 85 58 fe ff
	ff		 mov	 eax, DWORD PTR _stTokenVector$[ebp]
; File C:\Marty 5.5\Src-Client\Client\EterLib\Util.cpp

; 79   : 			std::string key = stTokenVector[1];

  0016c	8d 4d b4	 lea	 ecx, DWORD PTR _key$12[ebp]
  0016f	83 c4 04	 add	 esp, 4
; File D:\Program Files\Microsoft Visual Studio\2022\Community\VC\Tools\MSVC\14.43.34808\include\vector

; 1919 :         return _My_data._Myfirst[_Pos];

  00172	83 c0 18	 add	 eax, 24			; 00000018H
; File C:\Marty 5.5\Src-Client\Client\EterLib\Util.cpp

; 79   : 			std::string key = stTokenVector[1];

  00175	50		 push	 eax
  00176	e8 00 00 00 00	 call	 ??0?$basic_string@DU?$char_traits@D@std@@V?$allocator@D@2@@std@@QAE@ABV01@@Z ; std::basic_string<char,std::char_traits<char>,std::allocator<char> >::basic_string<char,std::char_traits<char>,std::allocator<char> >
; File D:\Program Files\Microsoft Visual Studio\2022\Community\VC\Tools\MSVC\14.43.34808\include\vector

; 1797 :         if (_Myfirst == _Mylast) { // already empty, nothing to do

  0017b	8b 85 58 fe ff
	ff		 mov	 eax, DWORD PTR _stTokenVector$[ebp]
  00181	8b 8d 5c fe ff
	ff		 mov	 ecx, DWORD PTR _stTokenVector$[ebp+4]
; File C:\Marty 5.5\Src-Client\Client\EterLib\Util.cpp

; 79   : 			std::string key = stTokenVector[1];

  00187	c6 45 fc 04	 mov	 BYTE PTR __$EHRec$[ebp+8], 4
; File D:\Program Files\Microsoft Visual Studio\2022\Community\VC\Tools\MSVC\14.43.34808\include\vector

; 1797 :         if (_Myfirst == _Mylast) { // already empty, nothing to do

  0018b	3b c1		 cmp	 eax, ecx
  0018d	74 1d		 je	 SHORT $LN517@LoadMultip

; 1798 :             // This is an optimization for debug mode: we can avoid taking the debug lock to invalidate iterators.
; 1799 :             // Note that when clearing an empty vector, this will preserve past-the-end iterators, which is allowed by
; 1800 :             // N4950 [sequence.reqmts]/54 "a.clear() [...] may invalidate the past-the-end iterator".
; 1801 :             return;
; 1802 :         }
; 1803 : 
; 1804 :         _My_data._Orphan_all();
; 1805 :         _Destroy_range(_Myfirst, _Mylast, _Getal());

  0018f	8d 95 58 fe ff
	ff		 lea	 edx, DWORD PTR _stTokenVector$[ebp]
  00195	52		 push	 edx
  00196	51		 push	 ecx
  00197	50		 push	 eax
  00198	e8 00 00 00 00	 call	 ??$_Destroy_range@V?$allocator@V?$basic_string@DU?$char_traits@D@std@@V?$allocator@D@2@@std@@@std@@@std@@YAXPAV?$basic_string@DU?$char_traits@D@std@@V?$allocator@D@2@@0@QAV10@AAV?$allocator@V?$basic_string@DU?$char_traits@D@std@@V?$allocator@D@2@@std@@@0@@Z ; std::_Destroy_range<std::allocator<std::basic_string<char,std::char_traits<char>,std::allocator<char> > > >

; 1806 :         _ASAN_VECTOR_MODIFY(static_cast<difference_type>(_Myfirst - _Mylast)); // negative when destroying elements
; 1807 :         _Mylast = _Myfirst;

  0019d	8b 85 58 fe ff
	ff		 mov	 eax, DWORD PTR _stTokenVector$[ebp]
  001a3	83 c4 0c	 add	 esp, 12			; 0000000cH
  001a6	89 85 5c fe ff
	ff		 mov	 DWORD PTR _stTokenVector$[ebp+4], eax
$LN517@LoadMultip:
; File C:\Marty 5.5\Src-Client\Client\EterLib\Util.cpp

; 82   : 			for (i=i+1; i < textFileLoader.GetLineCount(); ++i)

  001ac	46		 inc	 esi
  001ad	8d 8d 24 fe ff
	ff		 lea	 ecx, DWORD PTR _textFileLoader$[ebp]
  001b3	89 b5 50 fe ff
	ff		 mov	 DWORD PTR _i$1$[ebp], esi
  001b9	e8 00 00 00 00	 call	 ?GetLineCount@CMemoryTextFileLoader@@QAEKXZ ; CMemoryTextFileLoader::GetLineCount
  001be	3b f0		 cmp	 esi, eax
  001c0	0f 83 29 01 00
	00		 jae	 $LN710@LoadMultip
  001c6	66 66 0f 1f 84
	00 00 00 00 00	 npad	 10
$LL7@LoadMultip:

; 83   : 			{
; 84   : 				if (!textFileLoader.SplitLine(i, &stSubTokenVector))

  001d0	68 00 00 00 00	 push	 OFFSET ??_C@_02OJDBNLEE@?5?7@
  001d5	8d 85 40 fe ff
	ff		 lea	 eax, DWORD PTR _stSubTokenVector$8[ebp]
  001db	50		 push	 eax
  001dc	56		 push	 esi
  001dd	8d 8d 24 fe ff
	ff		 lea	 ecx, DWORD PTR _textFileLoader$[ebp]
  001e3	e8 00 00 00 00	 call	 ?SplitLine@CMemoryTextFileLoader@@QAE_NKPAV?$vector@V?$basic_string@DU?$char_traits@D@std@@V?$allocator@D@2@@std@@V?$allocator@V?$basic_string@DU?$char_traits@D@std@@V?$allocator@D@2@@std@@@2@@std@@PBD@Z ; CMemoryTextFileLoader::SplitLine
  001e8	84 c0		 test	 al, al
  001ea	0f 84 e5 00 00
	00		 je	 $LN5@LoadMultip

; 87   : 				stl_lowers(stSubTokenVector[0]);

  001f0	ff b5 40 fe ff
	ff		 push	 DWORD PTR _stSubTokenVector$8[ebp]
  001f6	e8 00 00 00 00	 call	 ?stl_lowers@@YAXAAV?$basic_string@DU?$char_traits@D@std@@V?$allocator@D@2@@std@@@Z ; stl_lowers
; File D:\Program Files\Microsoft Visual Studio\2022\Community\VC\Tools\MSVC\14.43.34808\include\xstring

; 2876 :         return _Traits_compare<_Traits>(_Mypair._Myval2._Myptr(), _Mypair._Myval2._Mysize, _Ptr, _Traits::length(_Ptr));

  001fb	8b bd 40 fe ff
	ff		 mov	 edi, DWORD PTR _stSubTokenVector$8[ebp]
; File C:\Marty 5.5\Src-Client\Client\EterLib\Util.cpp

; 87   : 				stl_lowers(stSubTokenVector[0]);

  00201	83 c4 04	 add	 esp, 4
; File D:\Program Files\Microsoft Visual Studio\2022\Community\VC\Tools\MSVC\14.43.34808\include\xstring

; 425  :         const value_type* _Result = _Bx._Buf;

  00204	8b c7		 mov	 eax, edi
  00206	8b c8		 mov	 ecx, eax

; 434  :         return _Myres > _Small_string_capacity;

  00208	83 79 14 0f	 cmp	 DWORD PTR [ecx+20], 15	; 0000000fH

; 426  :         if (_Large_mode_engaged()) {

  0020c	76 02		 jbe	 SHORT $LN477@LoadMultip

; 427  :             _Result = _Unfancy(_Bx._Ptr);

  0020e	8b 07		 mov	 eax, DWORD PTR [edi]
$LN477@LoadMultip:

; 2876 :         return _Traits_compare<_Traits>(_Mypair._Myval2._Myptr(), _Mypair._Myval2._Mysize, _Ptr, _Traits::length(_Ptr));

  00210	6a 03		 push	 3
  00212	68 00 00 00 00	 push	 OFFSET ??_C@_03JBJLGPFL@end@
  00217	ff 77 10	 push	 DWORD PTR [edi+16]
  0021a	50		 push	 eax
  0021b	e8 00 00 00 00	 call	 ??$_Traits_compare@U?$char_traits@D@std@@@std@@YAHQBDI0I@Z ; std::_Traits_compare<std::char_traits<char> >
  00220	83 c4 10	 add	 esp, 16			; 00000010H
; File C:\Marty 5.5\Src-Client\Client\EterLib\Util.cpp

; 89   : 				if (0 == stSubTokenVector[0].compare("end"))

  00223	85 c0		 test	 eax, eax
  00225	0f 84 c4 00 00
	00		 je	 $LN710@LoadMultip

; 94   : 				for (DWORD j = 0; j < stSubTokenVector.size(); ++j)

  0022b	33 c9		 xor	 ecx, ecx
; File D:\Program Files\Microsoft Visual Studio\2022\Community\VC\Tools\MSVC\14.43.34808\include\vector

; 1900 :         return static_cast<size_type>(_My_data._Mylast - _My_data._Myfirst);

  0022d	b8 ab aa aa 2a	 mov	 eax, 715827883		; 2aaaaaabH
; File C:\Marty 5.5\Src-Client\Client\EterLib\Util.cpp

; 94   : 				for (DWORD j = 0; j < stSubTokenVector.size(); ++j)

  00232	89 8d 64 fe ff
	ff		 mov	 DWORD PTR _j$1$[ebp], ecx
  00238	8b 8d 44 fe ff
	ff		 mov	 ecx, DWORD PTR _stSubTokenVector$8[ebp+4]
  0023e	2b cf		 sub	 ecx, edi
; File D:\Program Files\Microsoft Visual Studio\2022\Community\VC\Tools\MSVC\14.43.34808\include\vector

; 1900 :         return static_cast<size_type>(_My_data._Mylast - _My_data._Myfirst);

  00240	f7 e9		 imul	 ecx
  00242	c1 fa 02	 sar	 edx, 2
  00245	8b c2		 mov	 eax, edx
  00247	c1 e8 1f	 shr	 eax, 31			; 0000001fH
  0024a	03 c2		 add	 eax, edx
; File C:\Marty 5.5\Src-Client\Client\EterLib\Util.cpp

; 94   : 				for (DWORD j = 0; j < stSubTokenVector.size(); ++j)

  0024c	0f 84 83 00 00
	00		 je	 $LN5@LoadMultip
  00252	8b b5 5c fe ff
	ff		 mov	 esi, DWORD PTR _stTokenVector$[ebp+4]
  00258	33 c0		 xor	 eax, eax
  0025a	89 85 68 fe ff
	ff		 mov	 DWORD PTR tv2664[ebp], eax
$LL10@LoadMultip:
; File D:\Program Files\Microsoft Visual Studio\2022\Community\VC\Tools\MSVC\14.43.34808\include\vector

; 1919 :         return _My_data._Myfirst[_Pos];

  00260	03 c7		 add	 eax, edi

; 829  :         if (_Mylast != _My_data._Myend) {

  00262	50		 push	 eax
  00263	3b b5 60 fe ff
	ff		 cmp	 esi, DWORD PTR _stTokenVector$[ebp+8]
  00269	74 18		 je	 SHORT $LN36@LoadMultip
; File D:\Program Files\Microsoft Visual Studio\2022\Community\VC\Tools\MSVC\14.43.34808\include\xmemory

; 732  :         ::new (const_cast<void*>(static_cast<const volatile void*>(_Ptr))) _Objty(_STD forward<_Types>(_Args)...);

  0026b	8b ce		 mov	 ecx, esi
  0026d	e8 00 00 00 00	 call	 ??0?$basic_string@DU?$char_traits@D@std@@V?$allocator@D@2@@std@@QAE@ABV01@@Z ; std::basic_string<char,std::char_traits<char>,std::allocator<char> >::basic_string<char,std::char_traits<char>,std::allocator<char> >
; File D:\Program Files\Microsoft Visual Studio\2022\Community\VC\Tools\MSVC\14.43.34808\include\vector

; 854  :         ++_Mylast;

  00272	8b b5 5c fe ff
	ff		 mov	 esi, DWORD PTR _stTokenVector$[ebp+4]
  00278	83 c6 18	 add	 esi, 24			; 00000018H
  0027b	89 b5 5c fe ff
	ff		 mov	 DWORD PTR _stTokenVector$[ebp+4], esi

; 830  :             return _Emplace_back_with_unused_capacity(_STD forward<_Valty>(_Val)...);

  00281	eb 12		 jmp	 SHORT $LN8@LoadMultip
$LN36@LoadMultip:

; 831  :         }
; 832  : 
; 833  :         return *_Emplace_reallocate(_Mylast, _STD forward<_Valty>(_Val)...);

  00283	56		 push	 esi
  00284	8d 8d 58 fe ff
	ff		 lea	 ecx, DWORD PTR _stTokenVector$[ebp]
  0028a	e8 00 00 00 00	 call	 ??$_Emplace_reallocate@ABV?$basic_string@DU?$char_traits@D@std@@V?$allocator@D@2@@std@@@?$vector@V?$basic_string@DU?$char_traits@D@std@@V?$allocator@D@2@@std@@V?$allocator@V?$basic_string@DU?$char_traits@D@std@@V?$allocator@D@2@@std@@@2@@std@@AAEPAV?$basic_string@DU?$char_traits@D@std@@V?$allocator@D@2@@1@QAV21@ABV21@@Z ; std::vector<std::basic_string<char,std::char_traits<char>,std::allocator<char> >,std::allocator<std::basic_string<char,std::char_traits<char>,std::allocator<char> > > >::_Emplace_reallocate<std::basic_string<char,std::char_traits<char>,std::allocator<char> > const &>
  0028f	8b b5 5c fe ff
	ff		 mov	 esi, DWORD PTR _stTokenVector$[ebp+4]
$LN8@LoadMultip:

; 1900 :         return static_cast<size_type>(_My_data._Mylast - _My_data._Myfirst);

  00295	8b 8d 44 fe ff
	ff		 mov	 ecx, DWORD PTR _stSubTokenVector$8[ebp+4]
  0029b	b8 ab aa aa 2a	 mov	 eax, 715827883		; 2aaaaaabH
  002a0	8b bd 40 fe ff
	ff		 mov	 edi, DWORD PTR _stSubTokenVector$8[ebp]
  002a6	2b cf		 sub	 ecx, edi
; File C:\Marty 5.5\Src-Client\Client\EterLib\Util.cpp

; 94   : 				for (DWORD j = 0; j < stSubTokenVector.size(); ++j)

  002a8	83 85 68 fe ff
	ff 18		 add	 DWORD PTR tv2664[ebp], 24 ; 00000018H
  002af	ff 85 64 fe ff
	ff		 inc	 DWORD PTR _j$1$[ebp]
; File D:\Program Files\Microsoft Visual Studio\2022\Community\VC\Tools\MSVC\14.43.34808\include\vector

; 1900 :         return static_cast<size_type>(_My_data._Mylast - _My_data._Myfirst);

  002b5	f7 e9		 imul	 ecx
  002b7	c1 fa 02	 sar	 edx, 2
  002ba	8b c2		 mov	 eax, edx
  002bc	c1 e8 1f	 shr	 eax, 31			; 0000001fH
  002bf	03 c2		 add	 eax, edx
; File C:\Marty 5.5\Src-Client\Client\EterLib\Util.cpp

; 94   : 				for (DWORD j = 0; j < stSubTokenVector.size(); ++j)

  002c1	39 85 64 fe ff
	ff		 cmp	 DWORD PTR _j$1$[ebp], eax
  002c7	8b 85 68 fe ff
	ff		 mov	 eax, DWORD PTR tv2664[ebp]
  002cd	72 91		 jb	 SHORT $LL10@LoadMultip
  002cf	8b b5 50 fe ff
	ff		 mov	 esi, DWORD PTR _i$1$[ebp]
$LN5@LoadMultip:

; 82   : 			for (i=i+1; i < textFileLoader.GetLineCount(); ++i)

  002d5	46		 inc	 esi
  002d6	8d 8d 24 fe ff
	ff		 lea	 ecx, DWORD PTR _textFileLoader$[ebp]
  002dc	89 b5 50 fe ff
	ff		 mov	 DWORD PTR _i$1$[ebp], esi
  002e2	e8 00 00 00 00	 call	 ?GetLineCount@CMemoryTextFileLoader@@QAEKXZ ; CMemoryTextFileLoader::GetLineCount
  002e7	3b f0		 cmp	 esi, eax
  002e9	0f 82 e1 fe ff
	ff		 jb	 $LL7@LoadMultip
$LN710@LoadMultip:
; File D:\Program Files\Microsoft Visual Studio\2022\Community\VC\Tools\MSVC\14.43.34808\include\utility

; 274  :         : first(_STD forward<_Other1>(_Val1)), second(_STD forward<_Other2>(_Val2)) {

  002ef	8d 45 b4	 lea	 eax, DWORD PTR _key$12[ebp]
  002f2	50		 push	 eax
  002f3	8d 4d cc	 lea	 ecx, DWORD PTR $T14[ebp]
  002f6	e8 00 00 00 00	 call	 ??0?$basic_string@DU?$char_traits@D@std@@V?$allocator@D@2@@std@@QAE@ABV01@@Z ; std::basic_string<char,std::char_traits<char>,std::allocator<char> >::basic_string<char,std::char_traits<char>,std::allocator<char> >
; File D:\Program Files\Microsoft Visual Studio\2022\Community\VC\Tools\MSVC\14.43.34808\include\vector

; 733  :         const auto _Count       = static_cast<size_type>(_Right_data._Mylast - _Right_data._Myfirst);

  002fb	8b 8d 5c fe ff
	ff		 mov	 ecx, DWORD PTR _stTokenVector$[ebp+4]
  00301	b8 ab aa aa 2a	 mov	 eax, 715827883		; 2aaaaaabH
  00306	2b 8d 58 fe ff
	ff		 sub	 ecx, DWORD PTR _stTokenVector$[ebp]

; 400  :     _CONSTEXPR20 _Vector_val() noexcept : _Myfirst(), _Mylast(), _Myend() {}

  0030c	33 f6		 xor	 esi, esi

; 733  :         const auto _Count       = static_cast<size_type>(_Right_data._Mylast - _Right_data._Myfirst);

  0030e	f7 e9		 imul	 ecx

; 400  :     _CONSTEXPR20 _Vector_val() noexcept : _Myfirst(), _Mylast(), _Myend() {}

  00310	33 ff		 xor	 edi, edi
; File D:\Program Files\Microsoft Visual Studio\2022\Community\VC\Tools\MSVC\14.43.34808\include\utility

; 274  :         : first(_STD forward<_Other1>(_Val1)), second(_STD forward<_Other2>(_Val2)) {

  00312	c6 45 fc 05	 mov	 BYTE PTR __$EHRec$[ebp+8], 5
; File D:\Program Files\Microsoft Visual Studio\2022\Community\VC\Tools\MSVC\14.43.34808\include\vector

; 733  :         const auto _Count       = static_cast<size_type>(_Right_data._Mylast - _Right_data._Myfirst);

  00316	c1 fa 02	 sar	 edx, 2
  00319	8b c2		 mov	 eax, edx

; 400  :     _CONSTEXPR20 _Vector_val() noexcept : _Myfirst(), _Mylast(), _Myend() {}

  0031b	89 b5 64 fe ff
	ff		 mov	 DWORD PTR $T9[ebp], esi

; 733  :         const auto _Count       = static_cast<size_type>(_Right_data._Mylast - _Right_data._Myfirst);

  00321	c1 e8 1f	 shr	 eax, 31			; 0000001fH

; 400  :     _CONSTEXPR20 _Vector_val() noexcept : _Myfirst(), _Mylast(), _Myend() {}

  00324	89 75 e4	 mov	 DWORD PTR $T14[ebp+24], esi
  00327	89 bd 68 fe ff
	ff		 mov	 DWORD PTR $T10[ebp], edi
  0032d	89 7d e8	 mov	 DWORD PTR $T14[ebp+28], edi
  00330	89 75 ec	 mov	 DWORD PTR $T14[ebp+32], esi

; 733  :         const auto _Count       = static_cast<size_type>(_Right_data._Mylast - _Right_data._Myfirst);

  00333	03 c2		 add	 eax, edx

; 2096 :         if (_Count != 0) {

  00335	0f 84 b9 00 00
	00		 je	 $LN153@LoadMultip

; 2036 :         if (_Newcapacity > max_size()) {

  0033b	3d aa aa aa 0a	 cmp	 eax, 178956970		; 0aaaaaaaH
  00340	0f 87 c6 04 00
	00		 ja	 $LN711@LoadMultip
; File D:\Program Files\Microsoft Visual Studio\2022\Community\VC\Tools\MSVC\14.43.34808\include\xmemory

; 122  :     return _Count * _Ty_size;

  00346	8d 34 40	 lea	 esi, DWORD PTR [eax+eax*2]
  00349	c1 e6 03	 shl	 esi, 3

; 227  :     if (_Bytes == 0) {

  0034c	85 f6		 test	 esi, esi
  0034e	75 04		 jne	 SHORT $LN72@LoadMultip

; 228  :         return nullptr;

  00350	33 c9		 xor	 ecx, ecx
  00352	eb 1a		 jmp	 SHORT $LN741@LoadMultip
$LN72@LoadMultip:

; 229  :     }
; 230  : 
; 231  : #if _HAS_CXX20 // TRANSITION, GH-1532
; 232  :     if (_STD is_constant_evaluated()) {
; 233  :         return _Traits::_Allocate(_Bytes);
; 234  :     }
; 235  : #endif // _HAS_CXX20
; 236  : 
; 237  : #ifdef __cpp_aligned_new
; 238  :     if constexpr (_Align > __STDCPP_DEFAULT_NEW_ALIGNMENT__) {
; 239  :         size_t _Passed_align = _Align;
; 240  : #if defined(_M_IX86) || defined(_M_X64)
; 241  :         if (_Bytes >= _Big_allocation_threshold) {
; 242  :             // boost the alignment of big allocations to help autovectorization
; 243  :             _Passed_align = (_STD max)(_Align, _Big_allocation_alignment);
; 244  :         }
; 245  : #endif // defined(_M_IX86) || defined(_M_X64)
; 246  :         return _Traits::_Allocate_aligned(_Bytes, _Passed_align);
; 247  :     } else
; 248  : #endif // defined(__cpp_aligned_new)
; 249  :     {
; 250  : #if defined(_M_IX86) || defined(_M_X64)
; 251  :         if (_Bytes >= _Big_allocation_threshold) {

  00354	56		 push	 esi
  00355	81 fe 00 10 00
	00		 cmp	 esi, 4096		; 00001000H
  0035b	72 07		 jb	 SHORT $LN73@LoadMultip

; 252  :             // boost the alignment of big allocations to help autovectorization
; 253  :             return _Allocate_manually_vector_aligned<_Traits>(_Bytes);

  0035d	e8 00 00 00 00	 call	 ??$_Allocate_manually_vector_aligned@U_Default_allocate_traits@std@@@std@@YAPAXI@Z ; std::_Allocate_manually_vector_aligned<std::_Default_allocate_traits>
  00362	eb 05		 jmp	 SHORT $LN742@LoadMultip
$LN73@LoadMultip:

; 136  :         return ::operator new(_Bytes);

  00364	e8 00 00 00 00	 call	 ??2@YAPAXI@Z		; operator new
$LN742@LoadMultip:
; File D:\Program Files\Microsoft Visual Studio\2022\Community\VC\Tools\MSVC\14.43.34808\include\vector

; 2020 :         _Myfirst              = _Newvec;

  00369	8b c8		 mov	 ecx, eax
  0036b	83 c4 04	 add	 esp, 4
$LN741@LoadMultip:

; 2022 :         _Myend                = _Newvec + _Newcapacity;

  0036e	8d 04 0e	 lea	 eax, DWORD PTR [esi+ecx]
  00371	89 8d 64 fe ff
	ff		 mov	 DWORD PTR $T9[ebp], ecx
  00377	89 45 ec	 mov	 DWORD PTR $T14[ebp+32], eax

; 2098 :             _Tidy_guard<vector> _Guard{this};

  0037a	8d 45 e4	 lea	 eax, DWORD PTR $T14[ebp+24]

; 2020 :         _Myfirst              = _Newvec;

  0037d	89 4d e4	 mov	 DWORD PTR $T14[ebp+24], ecx

; 2021 :         _Mylast               = _Newvec;

  00380	89 4d e8	 mov	 DWORD PTR $T14[ebp+28], ecx

; 2098 :             _Tidy_guard<vector> _Guard{this};

  00383	89 85 34 fe ff
	ff		 mov	 DWORD PTR __Guard$7[ebp], eax
; File D:\Program Files\Microsoft Visual Studio\2022\Community\VC\Tools\MSVC\14.43.34808\include\xmemory

; 1840 :     auto _ULast  = _STD _Get_unwrapped(_STD move(_Last));

  00389	8b 85 5c fe ff
	ff		 mov	 eax, DWORD PTR _stTokenVector$[ebp+4]

; 1796 :     _CONSTEXPR20 _Uninitialized_backout_al(pointer _Dest, _Alloc& _Al_) : _First(_Dest), _Last(_Dest), _Al(_Al_) {}

  0038f	8b f9		 mov	 edi, ecx
  00391	89 8d 0c fe ff
	ff		 mov	 DWORD PTR __Backout$5[ebp], ecx
  00397	8d 4d e4	 lea	 ecx, DWORD PTR $T14[ebp+24]

; 1840 :     auto _ULast  = _STD _Get_unwrapped(_STD move(_Last));

  0039a	89 85 54 fe ff
	ff		 mov	 DWORD PTR __ULast$1$[ebp], eax

; 1796 :     _CONSTEXPR20 _Uninitialized_backout_al(pointer _Dest, _Alloc& _Al_) : _First(_Dest), _Last(_Dest), _Al(_Al_) {}

  003a0	89 bd 68 fe ff
	ff		 mov	 DWORD PTR $T10[ebp], edi
  003a6	89 bd 10 fe ff
	ff		 mov	 DWORD PTR __Backout$5[ebp+4], edi
  003ac	89 8d 14 fe ff
	ff		 mov	 DWORD PTR __Backout$5[ebp+8], ecx
; File D:\Program Files\Microsoft Visual Studio\2022\Community\VC\Tools\MSVC\14.43.34808\include\vector

; 2019 :         const pointer _Newvec = _STD _Allocate_at_least_helper(_Getal(), _Newcapacity);

  003b2	8b b5 58 fe ff
	ff		 mov	 esi, DWORD PTR _stTokenVector$[ebp]
; File D:\Program Files\Microsoft Visual Studio\2022\Community\VC\Tools\MSVC\14.43.34808\include\xmemory

; 1863 :     _Uninitialized_backout_al<_Alloc> _Backout{_Dest, _Al};

  003b8	c6 45 fc 07	 mov	 BYTE PTR __$EHRec$[ebp+8], 7
; File D:\Program Files\Microsoft Visual Studio\2022\Community\VC\Tools\MSVC\14.43.34808\include\vector

; 2019 :         const pointer _Newvec = _STD _Allocate_at_least_helper(_Getal(), _Newcapacity);

  003bc	3b f0		 cmp	 esi, eax
; File D:\Program Files\Microsoft Visual Studio\2022\Community\VC\Tools\MSVC\14.43.34808\include\xmemory

; 1864 :     for (; _UFirst != _ULast; ++_UFirst) {

  003be	74 2b		 je	 SHORT $LN83@LoadMultip
$LL84@LoadMultip:

; 732  :         ::new (const_cast<void*>(static_cast<const volatile void*>(_Ptr))) _Objty(_STD forward<_Types>(_Args)...);

  003c0	56		 push	 esi
  003c1	8b cf		 mov	 ecx, edi
  003c3	e8 00 00 00 00	 call	 ??0?$basic_string@DU?$char_traits@D@std@@V?$allocator@D@2@@std@@QAE@ABV01@@Z ; std::basic_string<char,std::char_traits<char>,std::allocator<char> >::basic_string<char,std::char_traits<char>,std::allocator<char> >

; 1808 :         ++_Last;

  003c8	83 c7 18	 add	 edi, 24			; 00000018H

; 1864 :     for (; _UFirst != _ULast; ++_UFirst) {

  003cb	83 c6 18	 add	 esi, 24			; 00000018H

; 1808 :         ++_Last;

  003ce	89 bd 10 fe ff
	ff		 mov	 DWORD PTR __Backout$5[ebp+4], edi

; 1864 :     for (; _UFirst != _ULast; ++_UFirst) {

  003d4	3b b5 54 fe ff
	ff		 cmp	 esi, DWORD PTR __ULast$1$[ebp]
  003da	75 e4		 jne	 SHORT $LL84@LoadMultip
  003dc	8b 45 e4	 mov	 eax, DWORD PTR $T14[ebp+24]
  003df	89 bd 68 fe ff
	ff		 mov	 DWORD PTR $T10[ebp], edi
  003e5	89 85 64 fe ff
	ff		 mov	 DWORD PTR $T9[ebp], eax
$LN83@LoadMultip:

; 1812 :         _First = _Last;

  003eb	89 bd 0c fe ff
	ff		 mov	 DWORD PTR __Backout$5[ebp], edi
; File D:\Program Files\Microsoft Visual Studio\2022\Community\VC\Tools\MSVC\14.43.34808\include\vector

; 2105 :                 _My_data._Mylast = _STD _Uninitialized_copy(_STD forward<_Valty>(_Val)..., _My_data._Myfirst, _Al);

  003f1	89 7d e8	 mov	 DWORD PTR $T14[ebp+28], edi
$LN153@LoadMultip:
; File D:\Program Files\Microsoft Visual Studio\2022\Community\VC\Tools\MSVC\14.43.34808\include\xtree

; 1620 :         _Tree_find_result<_Nodeptr> _Result{{_Scary->_Myhead->_Parent, _Tree_child::_Right}, _Scary->_Myhead};

  003f4	8b b5 4c fe ff
	ff		 mov	 esi, DWORD PTR _rstTokenVectorMap$GSCopy$1$[ebp]
; File C:\Marty 5.5\Src-Client\Client\EterLib\Util.cpp

; 100  : 			rstTokenVectorMap.insert(CTokenVectorMap::value_type(key, stTokenVector));

  003fa	c6 45 fc 08	 mov	 BYTE PTR __$EHRec$[ebp+8], 8
; File D:\Program Files\Microsoft Visual Studio\2022\Community\VC\Tools\MSVC\14.43.34808\include\xtree

; 1620 :         _Tree_find_result<_Nodeptr> _Result{{_Scary->_Myhead->_Parent, _Tree_child::_Right}, _Scary->_Myhead};

  003fe	c7 85 38 fe ff
	ff 00 00 00 00	 mov	 DWORD PTR __Loc$2$[ebp], 0
  00408	8b 0e		 mov	 ecx, DWORD PTR [esi]
  0040a	89 8d 34 fe ff
	ff		 mov	 DWORD PTR __Myhead$1$[ebp], ecx
  00410	89 8d 3c fe ff
	ff		 mov	 DWORD PTR $T1$sroa$1793$1$[ebp], ecx
  00416	8b 41 04	 mov	 eax, DWORD PTR [ecx+4]
  00419	89 85 54 fe ff
	ff		 mov	 DWORD PTR __Loc$1$[ebp], eax

; 1621 :         _Nodeptr _Trynode = _Result._Location._Parent;
; 1622 :         while (!_Trynode->_Isnil) {

  0041f	80 78 0d 00	 cmp	 BYTE PTR [eax+13], 0
  00423	75 58		 jne	 SHORT $LN167@LoadMultip
  00425	8b f0		 mov	 esi, eax
  00427	66 0f 1f 84 00
	00 00 00 00	 npad	 9
$LL166@LoadMultip:
; File D:\Program Files\Microsoft Visual Studio\2022\Community\VC\Tools\MSVC\14.43.34808\include\type_traits

; 2412 :         return _Left < _Right;

  00430	8d 4d cc	 lea	 ecx, DWORD PTR $T14[ebp]
; File D:\Program Files\Microsoft Visual Studio\2022\Community\VC\Tools\MSVC\14.43.34808\include\xtree

; 1623 :             _Result._Location._Parent = _Trynode;

  00433	89 b5 54 fe ff
	ff		 mov	 DWORD PTR __Loc$1$[ebp], esi

; 1624 :             if (_DEBUG_LT_PRED(_Getcomp(), _Traits::_Kfn(_Trynode->_Myval), _Keyval)) {

  00439	8d 46 10	 lea	 eax, DWORD PTR [esi+16]
; File D:\Program Files\Microsoft Visual Studio\2022\Community\VC\Tools\MSVC\14.43.34808\include\type_traits

; 2412 :         return _Left < _Right;

  0043c	51		 push	 ecx
  0043d	50		 push	 eax
  0043e	e8 00 00 00 00	 call	 ??$?MDU?$char_traits@D@std@@V?$allocator@D@1@@std@@YA_NABV?$basic_string@DU?$char_traits@D@std@@V?$allocator@D@2@@0@0@Z ; std::operator<<char,std::char_traits<char>,std::allocator<char> >
  00443	83 c4 08	 add	 esp, 8
; File D:\Program Files\Microsoft Visual Studio\2022\Community\VC\Tools\MSVC\14.43.34808\include\xtree

; 1624 :             if (_DEBUG_LT_PRED(_Getcomp(), _Traits::_Kfn(_Trynode->_Myval), _Keyval)) {

  00446	84 c0		 test	 al, al
  00448	74 0b		 je	 SHORT $LN168@LoadMultip

; 1625 :                 _Result._Location._Child = _Tree_child::_Right;
; 1626 :                 _Trynode                 = _Trynode->_Right;

  0044a	8b 76 08	 mov	 esi, DWORD PTR [esi+8]

; 1627 :             } else {

  0044d	8b 8d 3c fe ff
	ff		 mov	 ecx, DWORD PTR $T1$sroa$1793$1$[ebp]
  00453	eb 0a		 jmp	 SHORT $LN169@LoadMultip
$LN168@LoadMultip:

; 1628 :                 _Result._Location._Child = _Tree_child::_Left;
; 1629 :                 _Result._Bound           = _Trynode;

  00455	8b ce		 mov	 ecx, esi

; 1630 :                 _Trynode                 = _Trynode->_Left;

  00457	8b 36		 mov	 esi, DWORD PTR [esi]
  00459	89 8d 3c fe ff
	ff		 mov	 DWORD PTR $T1$sroa$1793$1$[ebp], ecx
$LN169@LoadMultip:

; 1621 :         _Nodeptr _Trynode = _Result._Location._Parent;
; 1622 :         while (!_Trynode->_Isnil) {

  0045f	0f b6 f8	 movzx	 edi, al
  00462	83 f7 01	 xor	 edi, 1
  00465	80 7e 0d 00	 cmp	 BYTE PTR [esi+13], 0
  00469	89 bd 38 fe ff
	ff		 mov	 DWORD PTR __Loc$2$[ebp], edi
  0046f	74 bf		 je	 SHORT $LL166@LoadMultip
  00471	8b bd 68 fe ff
	ff		 mov	 edi, DWORD PTR $T10[ebp]
  00477	8b b5 4c fe ff
	ff		 mov	 esi, DWORD PTR _rstTokenVectorMap$GSCopy$1$[ebp]
$LN167@LoadMultip:

; 1614 :         return !_Bound->_Isnil && !_DEBUG_LT_PRED(_Getcomp(), _Keyval, _Traits::_Kfn(_Bound->_Myval));

  0047d	80 79 0d 00	 cmp	 BYTE PTR [ecx+13], 0
  00481	75 18		 jne	 SHORT $LN176@LoadMultip
  00483	8d 41 10	 lea	 eax, DWORD PTR [ecx+16]
; File D:\Program Files\Microsoft Visual Studio\2022\Community\VC\Tools\MSVC\14.43.34808\include\type_traits

; 2412 :         return _Left < _Right;

  00486	50		 push	 eax
  00487	8d 45 cc	 lea	 eax, DWORD PTR $T14[ebp]
  0048a	50		 push	 eax
  0048b	e8 00 00 00 00	 call	 ??$?MDU?$char_traits@D@std@@V?$allocator@D@1@@std@@YA_NABV?$basic_string@DU?$char_traits@D@std@@V?$allocator@D@2@@0@0@Z ; std::operator<<char,std::char_traits<char>,std::allocator<char> >
  00490	83 c4 08	 add	 esp, 8
; File D:\Program Files\Microsoft Visual Studio\2022\Community\VC\Tools\MSVC\14.43.34808\include\xtree

; 1614 :         return !_Bound->_Isnil && !_DEBUG_LT_PRED(_Getcomp(), _Keyval, _Traits::_Kfn(_Bound->_Myval));

  00493	84 c0		 test	 al, al
  00495	0f 84 a8 00 00
	00		 je	 $LN738@LoadMultip
$LN176@LoadMultip:

; 1638 :         if (max_size() == _Get_scary()->_Mysize) {

  0049b	81 7e 04 c4 4e
	ec 04		 cmp	 DWORD PTR [esi+4], 82595524 ; 04ec4ec4H
  004a2	0f 84 5f 03 00
	00		 je	 $LN713@LoadMultip
; File D:\Program Files\Microsoft Visual Studio\2022\Community\VC\Tools\MSVC\14.43.34808\include\xmemory

; 1156 :     _CONSTEXPR20 explicit _Alloc_construct_ptr(_Alloc& _Al_) : _Al(_Al_), _Ptr(nullptr) {}

  004a8	89 b5 18 fe ff
	ff		 mov	 DWORD PTR $T6[ebp], esi

; 136  :         return ::operator new(_Bytes);

  004ae	6a 34		 push	 52			; 00000034H
; File D:\Program Files\Microsoft Visual Studio\2022\Community\VC\Tools\MSVC\14.43.34808\include\xtree

; 798  :     explicit _Tree_temp_node_alloc(_Alnode& _Al_) : _Alloc_construct_ptr<_Alnode>(_Al_) {

  004b0	c6 45 fc 09	 mov	 BYTE PTR __$EHRec$[ebp+8], 9
; File D:\Program Files\Microsoft Visual Studio\2022\Community\VC\Tools\MSVC\14.43.34808\include\xmemory

; 1163 :         _Ptr = nullptr; // if allocate throws, prevents double-free

  004b4	c7 85 1c fe ff
	ff 00 00 00 00	 mov	 DWORD PTR $T6[ebp+4], 0

; 136  :         return ::operator new(_Bytes);

  004be	e8 00 00 00 00	 call	 ??2@YAPAXI@Z		; operator new

; 256  :         return _Traits::_Allocate(_Bytes);

  004c3	8b f8		 mov	 edi, eax

; 136  :         return ::operator new(_Bytes);

  004c5	83 c4 04	 add	 esp, 4

; 1164 :         _Ptr = _Al.allocate(1);

  004c8	89 bd 1c fe ff
	ff		 mov	 DWORD PTR $T6[ebp+4], edi
; File D:\Program Files\Microsoft Visual Studio\2022\Community\VC\Tools\MSVC\14.43.34808\include\utility

; 278  :     pair(pair&&)      = default;

  004ce	8d 45 cc	 lea	 eax, DWORD PTR $T14[ebp]
; File D:\Program Files\Microsoft Visual Studio\2022\Community\VC\Tools\MSVC\14.43.34808\include\xtree

; 819  :         : _Tree_temp_node_alloc<_Alnode>(_Al_) {

  004d1	c6 45 fc 0a	 mov	 BYTE PTR __$EHRec$[ebp+8], 10 ; 0000000aH
; File D:\Program Files\Microsoft Visual Studio\2022\Community\VC\Tools\MSVC\14.43.34808\include\utility

; 278  :     pair(pair&&)      = default;

  004d5	50		 push	 eax
  004d6	8d 4f 10	 lea	 ecx, DWORD PTR [edi+16]
  004d9	e8 00 00 00 00	 call	 ??0?$basic_string@DU?$char_traits@D@std@@V?$allocator@D@2@@std@@QAE@ABV01@@Z ; std::basic_string<char,std::char_traits<char>,std::allocator<char> >::basic_string<char,std::char_traits<char>,std::allocator<char> >

; 773  :     _Ty _Old_val = static_cast<_Ty&&>(_Val);

  004de	8b 4d e8	 mov	 ecx, DWORD PTR $T14[ebp+28]
  004e1	8b 45 e4	 mov	 eax, DWORD PTR $T14[ebp+24]
  004e4	8b 55 ec	 mov	 edx, DWORD PTR $T14[ebp+32]

; 774  :     _Val         = static_cast<_Other&&>(_New_val);

  004e7	c7 45 ec 00 00
	00 00		 mov	 DWORD PTR $T14[ebp+32], 0
  004ee	c7 45 e8 00 00
	00 00		 mov	 DWORD PTR $T14[ebp+28], 0
  004f5	c7 45 e4 00 00
	00 00		 mov	 DWORD PTR $T14[ebp+24], 0
; File D:\Program Files\Microsoft Visual Studio\2022\Community\VC\Tools\MSVC\14.43.34808\include\vector

; 403  :         : _Myfirst(_First), _Mylast(_Last), _Myend(_End) {}

  004fc	89 47 28	 mov	 DWORD PTR [edi+40], eax
; File D:\Program Files\Microsoft Visual Studio\2022\Community\VC\Tools\MSVC\14.43.34808\include\xtree

; 821  :         _Construct_in_place(this->_Ptr->_Left, _Myhead);

  004ff	8b 85 34 fe ff
	ff		 mov	 eax, DWORD PTR __Myhead$1$[ebp]
; File D:\Program Files\Microsoft Visual Studio\2022\Community\VC\Tools\MSVC\14.43.34808\include\vector

; 403  :         : _Myfirst(_First), _Mylast(_Last), _Myend(_End) {}

  00505	89 4f 2c	 mov	 DWORD PTR [edi+44], ecx
; File D:\Program Files\Microsoft Visual Studio\2022\Community\VC\Tools\MSVC\14.43.34808\include\xtree

; 1032 :         return {_Scary->_Insert_node(_Loc._Location, _Inserted), true};

  00508	8b 8d 4c fe ff
	ff		 mov	 ecx, DWORD PTR _rstTokenVectorMap$GSCopy$1$[ebp]
  0050e	57		 push	 edi
  0050f	ff b5 38 fe ff
	ff		 push	 DWORD PTR __Loc$2$[ebp]
; File D:\Program Files\Microsoft Visual Studio\2022\Community\VC\Tools\MSVC\14.43.34808\include\vector

; 403  :         : _Myfirst(_First), _Mylast(_Last), _Myend(_End) {}

  00515	89 57 30	 mov	 DWORD PTR [edi+48], edx
; File D:\Program Files\Microsoft Visual Studio\2022\Community\VC\Tools\MSVC\14.43.34808\include\xtree

; 1032 :         return {_Scary->_Insert_node(_Loc._Location, _Inserted), true};

  00518	ff b5 54 fe ff
	ff		 push	 DWORD PTR __Loc$1$[ebp]

; 821  :         _Construct_in_place(this->_Ptr->_Left, _Myhead);

  0051e	89 07		 mov	 DWORD PTR [edi], eax

; 822  :         _Construct_in_place(this->_Ptr->_Parent, _Myhead);

  00520	89 47 04	 mov	 DWORD PTR [edi+4], eax

; 823  :         _Construct_in_place(this->_Ptr->_Right, _Myhead);

  00523	89 47 08	 mov	 DWORD PTR [edi+8], eax

; 824  :         this->_Ptr->_Color = _Red;

  00526	66 c7 47 0c 00
	00		 mov	 WORD PTR [edi+12], 0
; File D:\Program Files\Microsoft Visual Studio\2022\Community\VC\Tools\MSVC\14.43.34808\include\utility

; 774  :     _Val         = static_cast<_Other&&>(_New_val);

  0052c	c7 85 1c fe ff
	ff 00 00 00 00	 mov	 DWORD PTR $T6[ebp+4], 0
; File D:\Program Files\Microsoft Visual Studio\2022\Community\VC\Tools\MSVC\14.43.34808\include\xtree

; 1032 :         return {_Scary->_Insert_node(_Loc._Location, _Inserted), true};

  00536	e8 00 00 00 00	 call	 ?_Insert_node@?$_Tree_val@U?$_Tree_simple_types@U?$pair@$$CBV?$basic_string@DU?$char_traits@D@std@@V?$allocator@D@2@@std@@V?$vector@V?$basic_string@DU?$char_traits@D@std@@V?$allocator@D@2@@std@@V?$allocator@V?$basic_string@DU?$char_traits@D@std@@V?$allocator@D@2@@std@@@2@@2@@std@@@std@@@std@@QAEPAU?$_Tree_node@U?$pair@$$CBV?$basic_string@DU?$char_traits@D@std@@V?$allocator@D@2@@std@@V?$vector@V?$basic_string@DU?$char_traits@D@std@@V?$allocator@D@2@@std@@V?$allocator@V?$basic_string@DU?$char_traits@D@std@@V?$allocator@D@2@@std@@@2@@2@@std@@PAX@2@U?$_Tree_id@PAU?$_Tree_node@U?$pair@$$CBV?$basic_string@DU?$char_traits@D@std@@V?$allocator@D@2@@std@@V?$vector@V?$basic_string@DU?$char_traits@D@std@@V?$allocator@D@2@@std@@V?$allocator@V?$basic_string@DU?$char_traits@D@std@@V?$allocator@D@2@@std@@@2@@2@@std@@PAX@std@@@2@QAU32@@Z ; std::_Tree_val<std::_Tree_simple_types<std::pair<std::basic_string<char,std::char_traits<char>,std::allocator<char> > const ,std::vector<std::basic_string<char,std::char_traits<char>,std::allocator<char> >,std::allocator<std::basic_string<char,std::char_traits<char>,std::allocator<char> > > > > > >::_Insert_node
  0053b	8b 7d e8	 mov	 edi, DWORD PTR $T14[ebp+28]
  0053e	8b 45 e4	 mov	 eax, DWORD PTR $T14[ebp+24]

; 1614 :         return !_Bound->_Isnil && !_DEBUG_LT_PRED(_Getcomp(), _Keyval, _Traits::_Kfn(_Bound->_Myval));

  00541	eb 06		 jmp	 SHORT $LN335@LoadMultip
$LN738@LoadMultip:
  00543	8b 85 64 fe ff
	ff		 mov	 eax, DWORD PTR $T9[ebp]
$LN335@LoadMultip:
; File C:\Marty 5.5\Src-Client\Client\EterLib\Util.cpp

; 100  : 			rstTokenVectorMap.insert(CTokenVectorMap::value_type(key, stTokenVector));

  00549	c6 45 fc 04	 mov	 BYTE PTR __$EHRec$[ebp+8], 4
; File D:\Program Files\Microsoft Visual Studio\2022\Community\VC\Tools\MSVC\14.43.34808\include\vector

; 2075 :         if (_Myfirst) { // destroy and deallocate old array

  0054d	85 c0		 test	 eax, eax
  0054f	74 6a		 je	 SHORT $LN359@LoadMultip

; 2076 :             _STD _Destroy_range(_Myfirst, _Mylast, _Al);

  00551	8d 4d e4	 lea	 ecx, DWORD PTR $T14[ebp+24]
  00554	51		 push	 ecx
  00555	57		 push	 edi
  00556	50		 push	 eax
  00557	e8 00 00 00 00	 call	 ??$_Destroy_range@V?$allocator@V?$basic_string@DU?$char_traits@D@std@@V?$allocator@D@2@@std@@@std@@@std@@YAXPAV?$basic_string@DU?$char_traits@D@std@@V?$allocator@D@2@@0@QAV10@AAV?$allocator@V?$basic_string@DU?$char_traits@D@std@@V?$allocator@D@2@@std@@@0@@Z ; std::_Destroy_range<std::allocator<std::basic_string<char,std::char_traits<char>,std::allocator<char> > > >

; 2077 :             _ASAN_VECTOR_REMOVE;
; 2078 :             _Al.deallocate(_Myfirst, static_cast<size_type>(_Myend - _Myfirst));

  0055c	8b 4d ec	 mov	 ecx, DWORD PTR $T14[ebp+32]
  0055f	b8 ab aa aa 2a	 mov	 eax, 715827883		; 2aaaaaabH
  00564	8b 75 e4	 mov	 esi, DWORD PTR $T14[ebp+24]
  00567	83 c4 0c	 add	 esp, 12			; 0000000cH
  0056a	2b ce		 sub	 ecx, esi
  0056c	f7 e9		 imul	 ecx
  0056e	c1 fa 02	 sar	 edx, 2
  00571	8b c2		 mov	 eax, edx
  00573	c1 e8 1f	 shr	 eax, 31			; 0000001fH
  00576	03 c2		 add	 eax, edx
; File D:\Program Files\Microsoft Visual Studio\2022\Community\VC\Tools\MSVC\14.43.34808\include\xmemory

; 981  :         _STD _Deallocate<_New_alignof<_Ty>>(_Ptr, sizeof(_Ty) * _Count);

  00578	8d 0c 40	 lea	 ecx, DWORD PTR [eax+eax*2]
  0057b	8b c6		 mov	 eax, esi
  0057d	c1 e1 03	 shl	 ecx, 3

; 284  :         if (_Bytes >= _Big_allocation_threshold) {

  00580	81 f9 00 10 00
	00		 cmp	 ecx, 4096		; 00001000H
  00586	72 14		 jb	 SHORT $LN378@LoadMultip

; 205  :     const uintptr_t _Ptr_container   = _Ptr_user[-1];

  00588	8b 70 fc	 mov	 esi, DWORD PTR [eax-4]
  0058b	83 c1 23	 add	 ecx, 35			; 00000023H
  0058e	2b c6		 sub	 eax, esi

; 219  :     _STL_VERIFY(_Back_shift >= _Min_back_shift && _Back_shift <= _Non_user_size, "invalid argument");

  00590	83 c0 fc	 add	 eax, -4			; fffffffcH
  00593	83 f8 1f	 cmp	 eax, 31			; 0000001fH
  00596	0f 87 75 02 00
	00		 ja	 $LN412@LoadMultip
$LN378@LoadMultip:

; 289  :         ::operator delete(_Ptr, _Bytes);

  0059c	51		 push	 ecx
  0059d	56		 push	 esi
  0059e	e8 00 00 00 00	 call	 ??3@YAXPAXI@Z		; operator delete
  005a3	83 c4 08	 add	 esp, 8
; File D:\Program Files\Microsoft Visual Studio\2022\Community\VC\Tools\MSVC\14.43.34808\include\vector

; 2080 :             _Myfirst = nullptr;

  005a6	c7 45 e4 00 00
	00 00		 mov	 DWORD PTR $T14[ebp+24], 0

; 2081 :             _Mylast  = nullptr;

  005ad	c7 45 e8 00 00
	00 00		 mov	 DWORD PTR $T14[ebp+28], 0

; 2082 :             _Myend   = nullptr;

  005b4	c7 45 ec 00 00
	00 00		 mov	 DWORD PTR $T14[ebp+32], 0
$LN359@LoadMultip:
; File D:\Program Files\Microsoft Visual Studio\2022\Community\VC\Tools\MSVC\14.43.34808\include\xstring

; 434  :         return _Myres > _Small_string_capacity;

  005bb	8b 4d e0	 mov	 ecx, DWORD PTR $T14[ebp+20]
  005be	83 f9 0f	 cmp	 ecx, 15			; 0000000fH

; 3047 :         if (_My_data._Large_mode_engaged()) {

  005c1	76 2c		 jbe	 SHORT $LN404@LoadMultip
; File D:\Program Files\Microsoft Visual Studio\2022\Community\VC\Tools\MSVC\14.43.34808\include\xmemory

; 981  :         _STD _Deallocate<_New_alignof<_Ty>>(_Ptr, sizeof(_Ty) * _Count);

  005c3	8b 55 cc	 mov	 edx, DWORD PTR $T14[ebp]
; File D:\Program Files\Microsoft Visual Studio\2022\Community\VC\Tools\MSVC\14.43.34808\include\xstring

; 828  :         _Al.deallocate(_Old_ptr, _Capacity + 1); // +1 for null terminator

  005c6	41		 inc	 ecx
; File D:\Program Files\Microsoft Visual Studio\2022\Community\VC\Tools\MSVC\14.43.34808\include\xmemory

; 981  :         _STD _Deallocate<_New_alignof<_Ty>>(_Ptr, sizeof(_Ty) * _Count);

  005c7	8b c2		 mov	 eax, edx

; 284  :         if (_Bytes >= _Big_allocation_threshold) {

  005c9	81 f9 00 10 00
	00		 cmp	 ecx, 4096		; 00001000H
  005cf	72 14		 jb	 SHORT $LN415@LoadMultip

; 205  :     const uintptr_t _Ptr_container   = _Ptr_user[-1];

  005d1	8b 50 fc	 mov	 edx, DWORD PTR [eax-4]
  005d4	83 c1 23	 add	 ecx, 35			; 00000023H
  005d7	2b c2		 sub	 eax, edx

; 219  :     _STL_VERIFY(_Back_shift >= _Min_back_shift && _Back_shift <= _Non_user_size, "invalid argument");

  005d9	83 c0 fc	 add	 eax, -4			; fffffffcH
  005dc	83 f8 1f	 cmp	 eax, 31			; 0000001fH
  005df	0f 87 2c 02 00
	00		 ja	 $LN412@LoadMultip
$LN415@LoadMultip:

; 289  :         ::operator delete(_Ptr, _Bytes);

  005e5	51		 push	 ecx
  005e6	52		 push	 edx
  005e7	e8 00 00 00 00	 call	 ??3@YAXPAXI@Z		; operator delete
  005ec	83 c4 08	 add	 esp, 8
$LN404@LoadMultip:
; File D:\Program Files\Microsoft Visual Studio\2022\Community\VC\Tools\MSVC\14.43.34808\include\xstring

; 434  :         return _Myres > _Small_string_capacity;

  005ef	8b 4d c8	 mov	 ecx, DWORD PTR _key$12[ebp+20]
; File C:\Marty 5.5\Src-Client\Client\EterLib\Util.cpp

; 101  : 		}

  005f2	c6 45 fc 03	 mov	 BYTE PTR __$EHRec$[ebp+8], 3
; File D:\Program Files\Microsoft Visual Studio\2022\Community\VC\Tools\MSVC\14.43.34808\include\xstring

; 434  :         return _Myres > _Small_string_capacity;

  005f6	83 f9 0f	 cmp	 ecx, 15			; 0000000fH

; 3047 :         if (_My_data._Large_mode_engaged()) {

  005f9	76 2c		 jbe	 SHORT $LN441@LoadMultip
; File D:\Program Files\Microsoft Visual Studio\2022\Community\VC\Tools\MSVC\14.43.34808\include\xmemory

; 981  :         _STD _Deallocate<_New_alignof<_Ty>>(_Ptr, sizeof(_Ty) * _Count);

  005fb	8b 55 b4	 mov	 edx, DWORD PTR _key$12[ebp]
; File D:\Program Files\Microsoft Visual Studio\2022\Community\VC\Tools\MSVC\14.43.34808\include\xstring

; 828  :         _Al.deallocate(_Old_ptr, _Capacity + 1); // +1 for null terminator

  005fe	41		 inc	 ecx
; File D:\Program Files\Microsoft Visual Studio\2022\Community\VC\Tools\MSVC\14.43.34808\include\xmemory

; 981  :         _STD _Deallocate<_New_alignof<_Ty>>(_Ptr, sizeof(_Ty) * _Count);

  005ff	8b c2		 mov	 eax, edx

; 284  :         if (_Bytes >= _Big_allocation_threshold) {

  00601	81 f9 00 10 00
	00		 cmp	 ecx, 4096		; 00001000H
  00607	72 14		 jb	 SHORT $LN452@LoadMultip

; 205  :     const uintptr_t _Ptr_container   = _Ptr_user[-1];

  00609	8b 50 fc	 mov	 edx, DWORD PTR [eax-4]
  0060c	83 c1 23	 add	 ecx, 35			; 00000023H
  0060f	2b c2		 sub	 eax, edx

; 219  :     _STL_VERIFY(_Back_shift >= _Min_back_shift && _Back_shift <= _Non_user_size, "invalid argument");

  00611	83 c0 fc	 add	 eax, -4			; fffffffcH
  00614	83 f8 1f	 cmp	 eax, 31			; 0000001fH
  00617	0f 87 f4 01 00
	00		 ja	 $LN412@LoadMultip
$LN452@LoadMultip:

; 289  :         ::operator delete(_Ptr, _Bytes);

  0061d	51		 push	 ecx
  0061e	52		 push	 edx
  0061f	e8 00 00 00 00	 call	 ??3@YAXPAXI@Z		; operator delete
  00624	83 c4 08	 add	 esp, 8
$LN441@LoadMultip:
; File D:\Program Files\Microsoft Visual Studio\2022\Community\VC\Tools\MSVC\14.43.34808\include\vector

; 815  :         _Tidy();

  00627	8d 8d 40 fe ff
	ff		 lea	 ecx, DWORD PTR _stSubTokenVector$8[ebp]
; File C:\Marty 5.5\Src-Client\Client\EterLib\Util.cpp

; 101  : 		}

  0062d	c6 45 fc 02	 mov	 BYTE PTR __$EHRec$[ebp+8], 2
; File D:\Program Files\Microsoft Visual Studio\2022\Community\VC\Tools\MSVC\14.43.34808\include\vector

; 815  :         _Tidy();

  00631	e8 00 00 00 00	 call	 ?_Tidy@?$vector@V?$basic_string@DU?$char_traits@D@std@@V?$allocator@D@2@@std@@V?$allocator@V?$basic_string@DU?$char_traits@D@std@@V?$allocator@D@2@@std@@@2@@std@@AAEXXZ ; std::vector<std::basic_string<char,std::char_traits<char>,std::allocator<char> >,std::allocator<std::basic_string<char,std::char_traits<char>,std::allocator<char> > > >::_Tidy
; File C:\Marty 5.5\Src-Client\Client\EterLib\Util.cpp

; 101  : 		}

  00636	e9 63 01 00 00	 jmp	 $LN737@LoadMultip
$LN13@LoadMultip:

; 104  : 			std::string key = stTokenVector[0];

  0063b	57		 push	 edi
  0063c	8d 4d b4	 lea	 ecx, DWORD PTR _key$13[ebp]
  0063f	e8 00 00 00 00	 call	 ??0?$basic_string@DU?$char_traits@D@std@@V?$allocator@D@2@@std@@QAE@ABV01@@Z ; std::basic_string<char,std::char_traits<char>,std::allocator<char> >::basic_string<char,std::char_traits<char>,std::allocator<char> >
; File D:\Program Files\Microsoft Visual Studio\2022\Community\VC\Tools\MSVC\14.43.34808\include\vector

; 1760 :         _STD _Move_unchecked(_Whereptr + 1, _Mylast, _Whereptr);

  00644	8b bd 58 fe ff
	ff		 mov	 edi, DWORD PTR _stTokenVector$[ebp]
  0064a	8b 85 5c fe ff
	ff		 mov	 eax, DWORD PTR _stTokenVector$[ebp+4]
; File C:\Marty 5.5\Src-Client\Client\EterLib\Util.cpp

; 104  : 			std::string key = stTokenVector[0];

  00650	c6 45 fc 0b	 mov	 BYTE PTR __$EHRec$[ebp+8], 11 ; 0000000bH
; File D:\Program Files\Microsoft Visual Studio\2022\Community\VC\Tools\MSVC\14.43.34808\include\vector

; 1760 :         _STD _Move_unchecked(_Whereptr + 1, _Mylast, _Whereptr);

  00654	89 85 68 fe ff
	ff		 mov	 DWORD PTR __Last$1$[ebp], eax
  0065a	8d 77 18	 lea	 esi, DWORD PTR [edi+24]
; File C:\Marty 5.5\Src-Client\Client\EterLib\Util.cpp

; 103  : 		{

  0065d	3b f0		 cmp	 esi, eax
; File D:\Program Files\Microsoft Visual Studio\2022\Community\VC\Tools\MSVC\14.43.34808\include\xutility

; 5167 :         for (; _First != _Last; ++_Dest, (void) ++_First) {

  0065f	74 48		 je	 SHORT $LN538@LoadMultip
$LL539@LoadMultip:
; File D:\Program Files\Microsoft Visual Studio\2022\Community\VC\Tools\MSVC\14.43.34808\include\xstring

; 1202 :         if (this == _STD addressof(_Right)) {

  00661	3b fe		 cmp	 edi, esi
  00663	74 2e		 je	 SHORT $LN537@LoadMultip

; 1203 :             return *this;
; 1204 :         }
; 1205 : 
; 1206 :         auto& _Al                 = _Getal();
; 1207 :         auto& _Right_al           = _Right._Getal();
; 1208 :         constexpr auto _Pocma_val = _Choose_pocma_v<_Alty>;
; 1209 :         if constexpr (_Pocma_val == _Pocma_values::_Propagate_allocators) {
; 1210 :             if (_Al != _Right_al) {
; 1211 :                 // intentionally slams into noexcept on OOM, TRANSITION, VSO-466800
; 1212 :                 _Mypair._Myval2._Orphan_all();
; 1213 :                 _Mypair._Myval2._Reload_proxy(_GET_PROXY_ALLOCATOR(_Alty, _Al), _GET_PROXY_ALLOCATOR(_Alty, _Right_al));
; 1214 :             }
; 1215 :         } else if constexpr (_Pocma_val == _Pocma_values::_No_propagate_allocators) {
; 1216 :             if (_Al != _Right_al) {
; 1217 :                 assign(_Right._Mypair._Myval2._Myptr(), _Right._Mypair._Myval2._Mysize);
; 1218 :                 return *this;
; 1219 :             }
; 1220 :         }
; 1221 : 
; 1222 :         _Tidy_deallocate();

  00665	8b cf		 mov	 ecx, edi
  00667	e8 00 00 00 00	 call	 ?_Tidy_deallocate@?$basic_string@DU?$char_traits@D@std@@V?$allocator@D@2@@std@@AAEXXZ ; std::basic_string<char,std::char_traits<char>,std::allocator<char> >::_Tidy_deallocate

; 1262 :                 _CSTD memcpy(_My_data_mem, _Right_data_mem, _Memcpy_val_size);

  0066c	0f 10 06	 movups	 xmm0, XMMWORD PTR [esi]
  0066f	8b 85 68 fe ff
	ff		 mov	 eax, DWORD PTR __Last$1$[ebp]
  00675	0f 11 07	 movups	 XMMWORD PTR [edi], xmm0
  00678	f3 0f 7e 46 10	 movq	 xmm0, QWORD PTR [esi+16]
  0067d	66 0f d6 47 10	 movq	 QWORD PTR [edi+16], xmm0

; 1263 : 
; 1264 :                 _Right_data._Mysize = 0;

  00682	c7 46 10 00 00
	00 00		 mov	 DWORD PTR [esi+16], 0

; 1265 :                 _Right_data._Myres  = _Small_string_capacity;

  00689	c7 46 14 0f 00
	00 00		 mov	 DWORD PTR [esi+20], 15	; 0000000fH

; 1266 :                 _Right_data._Activate_SSO_buffer();
; 1267 :                 _Traits::assign(_Right_data._Bx._Buf[0], _Elem());

  00690	c6 06 00	 mov	 BYTE PTR [esi], 0
$LN537@LoadMultip:
; File D:\Program Files\Microsoft Visual Studio\2022\Community\VC\Tools\MSVC\14.43.34808\include\xutility

; 5167 :         for (; _First != _Last; ++_Dest, (void) ++_First) {

  00693	83 c6 18	 add	 esi, 24			; 00000018H
  00696	83 c7 18	 add	 edi, 24			; 00000018H
  00699	3b f0		 cmp	 esi, eax
  0069b	75 c4		 jne	 SHORT $LL539@LoadMultip
  0069d	8b 85 5c fe ff
	ff		 mov	 eax, DWORD PTR _stTokenVector$[ebp+4]
  006a3	89 85 68 fe ff
	ff		 mov	 DWORD PTR __Last$1$[ebp], eax
$LN538@LoadMultip:
; File D:\Program Files\Microsoft Visual Studio\2022\Community\VC\Tools\MSVC\14.43.34808\include\xstring

; 434  :         return _Myres > _Small_string_capacity;

  006a9	8b 48 fc	 mov	 ecx, DWORD PTR [eax-4]
  006ac	83 f9 0f	 cmp	 ecx, 15			; 0000000fH

; 3047 :         if (_My_data._Large_mode_engaged()) {

  006af	76 32		 jbe	 SHORT $LN585@LoadMultip

; 3048 :             _ASAN_STRING_REMOVE(*this);
; 3049 :             auto& _Al = _Getal();
; 3050 :             _Deallocate_for_capacity(_Al, _My_data._Bx._Ptr, _My_data._Myres);

  006b1	8b 40 e8	 mov	 eax, DWORD PTR [eax-24]

; 828  :         _Al.deallocate(_Old_ptr, _Capacity + 1); // +1 for null terminator

  006b4	41		 inc	 ecx
; File D:\Program Files\Microsoft Visual Studio\2022\Community\VC\Tools\MSVC\14.43.34808\include\xmemory

; 284  :         if (_Bytes >= _Big_allocation_threshold) {

  006b5	81 f9 00 10 00
	00		 cmp	 ecx, 4096		; 00001000H
  006bb	72 16		 jb	 SHORT $LN596@LoadMultip

; 205  :     const uintptr_t _Ptr_container   = _Ptr_user[-1];

  006bd	8b 50 fc	 mov	 edx, DWORD PTR [eax-4]
  006c0	83 c1 23	 add	 ecx, 35			; 00000023H

; 206  : 
; 207  :     // If the following asserts, it likely means that we are performing
; 208  :     // an aligned delete on memory coming from an unaligned allocation.
; 209  :     _STL_ASSERT(_Ptr_user[-2] == _Big_allocation_sentinel, "invalid argument");
; 210  : 
; 211  :     // Extra paranoia on aligned allocation/deallocation; ensure _Ptr_container is
; 212  :     // in range [_Min_back_shift, _Non_user_size]
; 213  : #ifdef _DEBUG
; 214  :     constexpr uintptr_t _Min_back_shift = 2 * sizeof(void*);
; 215  : #else // ^^^ defined(_DEBUG) / !defined(_DEBUG) vvv
; 216  :     constexpr uintptr_t _Min_back_shift = sizeof(void*);
; 217  : #endif // ^^^ !defined(_DEBUG) ^^^
; 218  :     const uintptr_t _Back_shift = reinterpret_cast<uintptr_t>(_Ptr) - _Ptr_container;

  006c3	2b c2		 sub	 eax, edx

; 219  :     _STL_VERIFY(_Back_shift >= _Min_back_shift && _Back_shift <= _Non_user_size, "invalid argument");

  006c5	83 c0 fc	 add	 eax, -4			; fffffffcH
  006c8	83 f8 1f	 cmp	 eax, 31			; 0000001fH
  006cb	0f 87 40 01 00
	00		 ja	 $LN412@LoadMultip

; 220  :     _Ptr = reinterpret_cast<void*>(_Ptr_container);

  006d1	8b c2		 mov	 eax, edx
$LN596@LoadMultip:

; 289  :         ::operator delete(_Ptr, _Bytes);

  006d3	51		 push	 ecx
  006d4	50		 push	 eax
  006d5	e8 00 00 00 00	 call	 ??3@YAXPAXI@Z		; operator delete
  006da	8b 85 68 fe ff
	ff		 mov	 eax, DWORD PTR __Last$1$[ebp]
  006e0	83 c4 08	 add	 esp, 8
$LN585@LoadMultip:
; File D:\Program Files\Microsoft Visual Studio\2022\Community\VC\Tools\MSVC\14.43.34808\include\xstring

; 3054 :         _My_data._Mysize = 0;

  006e3	c7 40 f8 00 00
	00 00		 mov	 DWORD PTR [eax-8], 0
; File C:\Marty 5.5\Src-Client\Client\EterLib\Util.cpp

; 106  : 			rstTokenVectorMap.insert(CTokenVectorMap::value_type(key, stTokenVector));

  006ea	8d 4d cc	 lea	 ecx, DWORD PTR $T15[ebp]
; File D:\Program Files\Microsoft Visual Studio\2022\Community\VC\Tools\MSVC\14.43.34808\include\xstring

; 3055 :         _My_data._Myres  = _Small_string_capacity;

  006ed	c7 40 fc 0f 00
	00 00		 mov	 DWORD PTR [eax-4], 15	; 0000000fH

; 3056 :         // the _Traits::assign is last so the codegen doesn't think the char write can alias this
; 3057 :         _Traits::assign(_My_data._Bx._Buf[0], _Elem());

  006f4	c6 40 e8 00	 mov	 BYTE PTR [eax-24], 0
; File C:\Marty 5.5\Src-Client\Client\EterLib\Util.cpp

; 106  : 			rstTokenVectorMap.insert(CTokenVectorMap::value_type(key, stTokenVector));

  006f8	8d 85 58 fe ff
	ff		 lea	 eax, DWORD PTR _stTokenVector$[ebp]
; File D:\Program Files\Microsoft Visual Studio\2022\Community\VC\Tools\MSVC\14.43.34808\include\vector

; 1763 :         --_Mylast;

  006fe	83 ad 5c fe ff
	ff 18		 sub	 DWORD PTR _stTokenVector$[ebp+4], 24 ; 00000018H
; File C:\Marty 5.5\Src-Client\Client\EterLib\Util.cpp

; 106  : 			rstTokenVectorMap.insert(CTokenVectorMap::value_type(key, stTokenVector));

  00705	50		 push	 eax
  00706	8d 45 b4	 lea	 eax, DWORD PTR _key$13[ebp]
  00709	50		 push	 eax
  0070a	e8 00 00 00 00	 call	 ??$?0AAV?$basic_string@DU?$char_traits@D@std@@V?$allocator@D@2@@std@@AAV?$vector@V?$basic_string@DU?$char_traits@D@std@@V?$allocator@D@2@@std@@V?$allocator@V?$basic_string@DU?$char_traits@D@std@@V?$allocator@D@2@@std@@@2@@1@$0A@@?$pair@$$CBV?$basic_string@DU?$char_traits@D@std@@V?$allocator@D@2@@std@@V?$vector@V?$basic_string@DU?$char_traits@D@std@@V?$allocator@D@2@@std@@V?$allocator@V?$basic_string@DU?$char_traits@D@std@@V?$allocator@D@2@@std@@@2@@2@@std@@QAE@AAV?$basic_string@DU?$char_traits@D@std@@V?$allocator@D@2@@1@AAV?$vector@V?$basic_string@DU?$char_traits@D@std@@V?$allocator@D@2@@std@@V?$allocator@V?$basic_string@DU?$char_traits@D@std@@V?$allocator@D@2@@std@@@2@@1@@Z ; std::pair<std::basic_string<char,std::char_traits<char>,std::allocator<char> > const ,std::vector<std::basic_string<char,std::char_traits<char>,std::allocator<char> >,std::allocator<std::basic_string<char,std::char_traits<char>,std::allocator<char> > > > >::pair<std::basic_string<char,std::char_traits<char>,std::allocator<char> > const ,std::vector<std::basic_string<char,std::char_traits<char>,std::allocator<char> >,std::allocator<std::basic_string<char,std::char_traits<char>,std::allocator<char> > > > ><std::basic_string<char,std::char_traits<char>,std::allocator<char> > &,std::vector<std::basic_string<char,std::char_traits<char>,std::allocator<char> >,std::allocator<std::basic_string<char,std::char_traits<char>,std::allocator<char> > > > &,0>
  0070f	8b 8d 4c fe ff
	ff		 mov	 ecx, DWORD PTR _rstTokenVectorMap$GSCopy$1$[ebp]
  00715	50		 push	 eax
  00716	8d 85 04 fe ff
	ff		 lea	 eax, DWORD PTR $T4[ebp]
  0071c	c6 45 fc 0c	 mov	 BYTE PTR __$EHRec$[ebp+8], 12 ; 0000000cH
  00720	50		 push	 eax
  00721	e8 00 00 00 00	 call	 ??$insert@$0A@$0A@@?$_Tree@V?$_Tmap_traits@V?$basic_string@DU?$char_traits@D@std@@V?$allocator@D@2@@std@@V?$vector@V?$basic_string@DU?$char_traits@D@std@@V?$allocator@D@2@@std@@V?$allocator@V?$basic_string@DU?$char_traits@D@std@@V?$allocator@D@2@@std@@@2@@2@U?$less@V?$basic_string@DU?$char_traits@D@std@@V?$allocator@D@2@@std@@@2@V?$allocator@U?$pair@$$CBV?$basic_string@DU?$char_traits@D@std@@V?$allocator@D@2@@std@@V?$vector@V?$basic_string@DU?$char_traits@D@std@@V?$allocator@D@2@@std@@V?$allocator@V?$basic_string@DU?$char_traits@D@std@@V?$allocator@D@2@@std@@@2@@2@@std@@@2@$0A@@std@@@std@@QAE?AU?$pair@V?$_Tree_iterator@V?$_Tree_val@U?$_Tree_simple_types@U?$pair@$$CBV?$basic_string@DU?$char_traits@D@std@@V?$allocator@D@2@@std@@V?$vector@V?$basic_string@DU?$char_traits@D@std@@V?$allocator@D@2@@std@@V?$allocator@V?$basic_string@DU?$char_traits@D@std@@V?$allocator@D@2@@std@@@2@@2@@std@@@std@@@std@@@std@@_N@1@$$QAU?$pair@$$CBV?$basic_string@DU?$char_traits@D@std@@V?$allocator@D@2@@std@@V?$vector@V?$basic_string@DU?$char_traits@D@std@@V?$allocator@D@2@@std@@V?$allocator@V?$basic_string@DU?$char_traits@D@std@@V?$allocator@D@2@@std@@@2@@2@@1@@Z ; std::_Tree<std::_Tmap_traits<std::basic_string<char,std::char_traits<char>,std::allocator<char> >,std::vector<std::basic_string<char,std::char_traits<char>,std::allocator<char> >,std::allocator<std::basic_string<char,std::char_traits<char>,std::allocator<char> > > >,std::less<std::basic_string<char,std::char_traits<char>,std::allocator<char> > >,std::allocator<std::pair<std::basic_string<char,std::char_traits<char>,std::allocator<char> > const ,std::vector<std::basic_string<char,std::char_traits<char>,std::allocator<char> >,std::allocator<std::basic_string<char,std::char_traits<char>,std::allocator<char> > > > > >,0> >::insert<0,0>
; File D:\Program Files\Microsoft Visual Studio\2022\Community\VC\Tools\MSVC\14.43.34808\include\vector

; 815  :         _Tidy();

  00726	8d 4d e4	 lea	 ecx, DWORD PTR $T15[ebp+24]
; File C:\Marty 5.5\Src-Client\Client\EterLib\Util.cpp

; 106  : 			rstTokenVectorMap.insert(CTokenVectorMap::value_type(key, stTokenVector));

  00729	c6 45 fc 0b	 mov	 BYTE PTR __$EHRec$[ebp+8], 11 ; 0000000bH
; File D:\Program Files\Microsoft Visual Studio\2022\Community\VC\Tools\MSVC\14.43.34808\include\vector

; 815  :         _Tidy();

  0072d	e8 00 00 00 00	 call	 ?_Tidy@?$vector@V?$basic_string@DU?$char_traits@D@std@@V?$allocator@D@2@@std@@V?$allocator@V?$basic_string@DU?$char_traits@D@std@@V?$allocator@D@2@@std@@@2@@std@@AAEXXZ ; std::vector<std::basic_string<char,std::char_traits<char>,std::allocator<char> >,std::allocator<std::basic_string<char,std::char_traits<char>,std::allocator<char> > > >::_Tidy
; File D:\Program Files\Microsoft Visual Studio\2022\Community\VC\Tools\MSVC\14.43.34808\include\xstring

; 434  :         return _Myres > _Small_string_capacity;

  00732	8b 4d e0	 mov	 ecx, DWORD PTR $T15[ebp+20]
  00735	83 f9 0f	 cmp	 ecx, 15			; 0000000fH

; 3047 :         if (_My_data._Large_mode_engaged()) {

  00738	76 2c		 jbe	 SHORT $LN639@LoadMultip
; File D:\Program Files\Microsoft Visual Studio\2022\Community\VC\Tools\MSVC\14.43.34808\include\xmemory

; 981  :         _STD _Deallocate<_New_alignof<_Ty>>(_Ptr, sizeof(_Ty) * _Count);

  0073a	8b 55 cc	 mov	 edx, DWORD PTR $T15[ebp]
; File D:\Program Files\Microsoft Visual Studio\2022\Community\VC\Tools\MSVC\14.43.34808\include\xstring

; 828  :         _Al.deallocate(_Old_ptr, _Capacity + 1); // +1 for null terminator

  0073d	41		 inc	 ecx
; File D:\Program Files\Microsoft Visual Studio\2022\Community\VC\Tools\MSVC\14.43.34808\include\xmemory

; 981  :         _STD _Deallocate<_New_alignof<_Ty>>(_Ptr, sizeof(_Ty) * _Count);

  0073e	8b c2		 mov	 eax, edx

; 284  :         if (_Bytes >= _Big_allocation_threshold) {

  00740	81 f9 00 10 00
	00		 cmp	 ecx, 4096		; 00001000H
  00746	72 14		 jb	 SHORT $LN650@LoadMultip

; 205  :     const uintptr_t _Ptr_container   = _Ptr_user[-1];

  00748	8b 50 fc	 mov	 edx, DWORD PTR [eax-4]
  0074b	83 c1 23	 add	 ecx, 35			; 00000023H
  0074e	2b c2		 sub	 eax, edx

; 219  :     _STL_VERIFY(_Back_shift >= _Min_back_shift && _Back_shift <= _Non_user_size, "invalid argument");

  00750	83 c0 fc	 add	 eax, -4			; fffffffcH
  00753	83 f8 1f	 cmp	 eax, 31			; 0000001fH
  00756	0f 87 b5 00 00
	00		 ja	 $LN412@LoadMultip
$LN650@LoadMultip:

; 289  :         ::operator delete(_Ptr, _Bytes);

  0075c	51		 push	 ecx
  0075d	52		 push	 edx
  0075e	e8 00 00 00 00	 call	 ??3@YAXPAXI@Z		; operator delete
  00763	83 c4 08	 add	 esp, 8
$LN639@LoadMultip:
; File D:\Program Files\Microsoft Visual Studio\2022\Community\VC\Tools\MSVC\14.43.34808\include\xstring

; 434  :         return _Myres > _Small_string_capacity;

  00766	8b 4d c8	 mov	 ecx, DWORD PTR _key$13[ebp+20]
; File C:\Marty 5.5\Src-Client\Client\EterLib\Util.cpp

; 107  : 		}

  00769	c6 45 fc 02	 mov	 BYTE PTR __$EHRec$[ebp+8], 2
; File D:\Program Files\Microsoft Visual Studio\2022\Community\VC\Tools\MSVC\14.43.34808\include\xstring

; 434  :         return _Myres > _Small_string_capacity;

  0076d	83 f9 0f	 cmp	 ecx, 15			; 0000000fH

; 3047 :         if (_My_data._Large_mode_engaged()) {

  00770	76 2c		 jbe	 SHORT $LN737@LoadMultip
; File D:\Program Files\Microsoft Visual Studio\2022\Community\VC\Tools\MSVC\14.43.34808\include\xmemory

; 981  :         _STD _Deallocate<_New_alignof<_Ty>>(_Ptr, sizeof(_Ty) * _Count);

  00772	8b 55 b4	 mov	 edx, DWORD PTR _key$13[ebp]
; File D:\Program Files\Microsoft Visual Studio\2022\Community\VC\Tools\MSVC\14.43.34808\include\xstring

; 828  :         _Al.deallocate(_Old_ptr, _Capacity + 1); // +1 for null terminator

  00775	41		 inc	 ecx
; File D:\Program Files\Microsoft Visual Studio\2022\Community\VC\Tools\MSVC\14.43.34808\include\xmemory

; 981  :         _STD _Deallocate<_New_alignof<_Ty>>(_Ptr, sizeof(_Ty) * _Count);

  00776	8b c2		 mov	 eax, edx

; 284  :         if (_Bytes >= _Big_allocation_threshold) {

  00778	81 f9 00 10 00
	00		 cmp	 ecx, 4096		; 00001000H
  0077e	72 14		 jb	 SHORT $LN688@LoadMultip

; 205  :     const uintptr_t _Ptr_container   = _Ptr_user[-1];

  00780	8b 50 fc	 mov	 edx, DWORD PTR [eax-4]
  00783	83 c1 23	 add	 ecx, 35			; 00000023H
  00786	2b c2		 sub	 eax, edx

; 219  :     _STL_VERIFY(_Back_shift >= _Min_back_shift && _Back_shift <= _Non_user_size, "invalid argument");

  00788	83 c0 fc	 add	 eax, -4			; fffffffcH
  0078b	83 f8 1f	 cmp	 eax, 31			; 0000001fH
  0078e	0f 87 7d 00 00
	00		 ja	 $LN412@LoadMultip
$LN688@LoadMultip:

; 289  :         ::operator delete(_Ptr, _Bytes);

  00794	51		 push	 ecx
  00795	52		 push	 edx
  00796	e8 00 00 00 00	 call	 ??3@YAXPAXI@Z		; operator delete
  0079b	83 c4 08	 add	 esp, 8
$LN737@LoadMultip:
; File C:\Marty 5.5\Src-Client\Client\EterLib\Util.cpp

; 66   : 	for (i = 0; i < textFileLoader.GetLineCount(); ++i)

  0079e	8b b5 50 fe ff
	ff		 mov	 esi, DWORD PTR _i$1$[ebp]
$LN2@LoadMultip:
  007a4	46		 inc	 esi
  007a5	8d 8d 24 fe ff
	ff		 lea	 ecx, DWORD PTR _textFileLoader$[ebp]
  007ab	89 b5 50 fe ff
	ff		 mov	 DWORD PTR _i$1$[ebp], esi
  007b1	e8 00 00 00 00	 call	 ?GetLineCount@CMemoryTextFileLoader@@QAEKXZ ; CMemoryTextFileLoader::GetLineCount
  007b6	3b f0		 cmp	 esi, eax
  007b8	0f 82 22 f9 ff
	ff		 jb	 $LL4@LoadMultip
$LN720@LoadMultip:
; File D:\Program Files\Microsoft Visual Studio\2022\Community\VC\Tools\MSVC\14.43.34808\include\vector

; 815  :         _Tidy();

  007be	8d 8d 58 fe ff
	ff		 lea	 ecx, DWORD PTR _stTokenVector$[ebp]
; File C:\Marty 5.5\Src-Client\Client\EterLib\Util.cpp

; 110  : 	return true;

  007c4	c6 85 6f fe ff
	ff 01		 mov	 BYTE PTR $T11[ebp], 1
; File D:\Program Files\Microsoft Visual Studio\2022\Community\VC\Tools\MSVC\14.43.34808\include\vector

; 815  :         _Tidy();

  007cb	e8 00 00 00 00	 call	 ?_Tidy@?$vector@V?$basic_string@DU?$char_traits@D@std@@V?$allocator@D@2@@std@@V?$allocator@V?$basic_string@DU?$char_traits@D@std@@V?$allocator@D@2@@std@@@2@@std@@AAEXXZ ; std::vector<std::basic_string<char,std::char_traits<char>,std::allocator<char> >,std::allocator<std::basic_string<char,std::char_traits<char>,std::allocator<char> > > >::_Tidy
; File C:\Marty 5.5\Src-Client\Client\EterLib\Util.cpp

; 110  : 	return true;

  007d0	8d 8d 24 fe ff
	ff		 lea	 ecx, DWORD PTR _textFileLoader$[ebp]
  007d6	e8 00 00 00 00	 call	 ??1CMemoryTextFileLoader@@UAE@XZ ; CMemoryTextFileLoader::~CMemoryTextFileLoader
$LN26@LoadMultip:
  007db	8d 8d 70 fe ff
	ff		 lea	 ecx, DWORD PTR _File$[ebp]
  007e1	e8 00 00 00 00	 call	 ??1CMappedFile@@UAE@XZ	; CMappedFile::~CMappedFile
  007e6	8a 85 6f fe ff
	ff		 mov	 al, BYTE PTR $T11[ebp]

; 111  : }

  007ec	8b 4d f4	 mov	 ecx, DWORD PTR __$EHRec$[ebp]
  007ef	64 89 0d 00 00
	00 00		 mov	 DWORD PTR fs:0, ecx
  007f6	59		 pop	 ecx
  007f7	5f		 pop	 edi
  007f8	5e		 pop	 esi
  007f9	8b 4d f0	 mov	 ecx, DWORD PTR __$ArrayPad$[ebp]
  007fc	33 cd		 xor	 ecx, ebp
  007fe	e8 00 00 00 00	 call	 @__security_check_cookie@4
  00803	8b e5		 mov	 esp, ebp
  00805	5d		 pop	 ebp
  00806	c3		 ret	 0
$LN713@LoadMultip:
; File D:\Program Files\Microsoft Visual Studio\2022\Community\VC\Tools\MSVC\14.43.34808\include\xtree

; 1639 :             _Throw_tree_length_error();

  00807	e8 00 00 00 00	 call	 ?_Throw_tree_length_error@std@@YAXXZ ; std::_Throw_tree_length_error
$LN711@LoadMultip:
; File D:\Program Files\Microsoft Visual Studio\2022\Community\VC\Tools\MSVC\14.43.34808\include\vector

; 2037 :             _Xlength();

  0080c	e8 00 00 00 00	 call	 ?_Xlength@?$vector@V?$basic_string@DU?$char_traits@D@std@@V?$allocator@D@2@@std@@V?$allocator@V?$basic_string@DU?$char_traits@D@std@@V?$allocator@D@2@@std@@@2@@std@@CAXXZ ; std::vector<std::basic_string<char,std::char_traits<char>,std::allocator<char> >,std::allocator<std::basic_string<char,std::char_traits<char>,std::allocator<char> > > >::_Xlength
$LN412@LoadMultip:
; File C:\Marty 5.5\Src-Client\Client\EterLib\Util.cpp

; 111  : }

  00811	e8 00 00 00 00	 call	 __invalid_parameter_noinfo_noreturn
$LN740@LoadMultip:
  00816	cc		 int	 3
_TEXT	ENDS
;	COMDAT text$x
text$x	SEGMENT
__unwindfunclet$?LoadMultipleTextData@@YA_NPBDAAV?$map@V?$basic_string@DU?$char_traits@D@std@@V?$allocator@D@2@@std@@V?$vector@V?$basic_string@DU?$char_traits@D@std@@V?$allocator@D@2@@std@@V?$allocator@V?$basic_string@DU?$char_traits@D@std@@V?$allocator@D@2@@std@@@2@@2@U?$less@V?$basic_string@DU?$char_traits@D@std@@V?$allocator@D@2@@std@@@2@V?$allocator@U?$pair@$$CBV?$basic_string@DU?$char_traits@D@std@@V?$allocator@D@2@@std@@V?$vector@V?$basic_string@DU?$char_traits@D@std@@V?$allocator@D@2@@std@@V?$allocator@V?$basic_string@DU?$char_traits@D@std@@V?$allocator@D@2@@std@@@2@@2@@std@@@2@@std@@@Z$0:
  00000	8d 8d 70 fe ff
	ff		 lea	 ecx, DWORD PTR _File$[ebp]
  00006	e9 00 00 00 00	 jmp	 ??1CMappedFile@@UAE@XZ	; CMappedFile::~CMappedFile
__unwindfunclet$?LoadMultipleTextData@@YA_NPBDAAV?$map@V?$basic_string@DU?$char_traits@D@std@@V?$allocator@D@2@@std@@V?$vector@V?$basic_string@DU?$char_traits@D@std@@V?$allocator@D@2@@std@@V?$allocator@V?$basic_string@DU?$char_traits@D@std@@V?$allocator@D@2@@std@@@2@@2@U?$less@V?$basic_string@DU?$char_traits@D@std@@V?$allocator@D@2@@std@@@2@V?$allocator@U?$pair@$$CBV?$basic_string@DU?$char_traits@D@std@@V?$allocator@D@2@@std@@V?$vector@V?$basic_string@DU?$char_traits@D@std@@V?$allocator@D@2@@std@@V?$allocator@V?$basic_string@DU?$char_traits@D@std@@V?$allocator@D@2@@std@@@2@@2@@std@@@2@@std@@@Z$1:
  0000b	8d 8d 24 fe ff
	ff		 lea	 ecx, DWORD PTR _textFileLoader$[ebp]
  00011	e9 00 00 00 00	 jmp	 ??1CMemoryTextFileLoader@@UAE@XZ ; CMemoryTextFileLoader::~CMemoryTextFileLoader
__unwindfunclet$?LoadMultipleTextData@@YA_NPBDAAV?$map@V?$basic_string@DU?$char_traits@D@std@@V?$allocator@D@2@@std@@V?$vector@V?$basic_string@DU?$char_traits@D@std@@V?$allocator@D@2@@std@@V?$allocator@V?$basic_string@DU?$char_traits@D@std@@V?$allocator@D@2@@std@@@2@@2@U?$less@V?$basic_string@DU?$char_traits@D@std@@V?$allocator@D@2@@std@@@2@V?$allocator@U?$pair@$$CBV?$basic_string@DU?$char_traits@D@std@@V?$allocator@D@2@@std@@V?$vector@V?$basic_string@DU?$char_traits@D@std@@V?$allocator@D@2@@std@@V?$allocator@V?$basic_string@DU?$char_traits@D@std@@V?$allocator@D@2@@std@@@2@@2@@std@@@2@@std@@@Z$2:
  00016	8d 8d 58 fe ff
	ff		 lea	 ecx, DWORD PTR _stTokenVector$[ebp]
  0001c	e9 00 00 00 00	 jmp	 ??1?$vector@V?$basic_string@DU?$char_traits@D@std@@V?$allocator@D@2@@std@@V?$allocator@V?$basic_string@DU?$char_traits@D@std@@V?$allocator@D@2@@std@@@2@@std@@QAE@XZ ; std::vector<std::basic_string<char,std::char_traits<char>,std::allocator<char> >,std::allocator<std::basic_string<char,std::char_traits<char>,std::allocator<char> > > >::~vector<std::basic_string<char,std::char_traits<char>,std::allocator<char> >,std::allocator<std::basic_string<char,std::char_traits<char>,std::allocator<char> > > >
__unwindfunclet$?LoadMultipleTextData@@YA_NPBDAAV?$map@V?$basic_string@DU?$char_traits@D@std@@V?$allocator@D@2@@std@@V?$vector@V?$basic_string@DU?$char_traits@D@std@@V?$allocator@D@2@@std@@V?$allocator@V?$basic_string@DU?$char_traits@D@std@@V?$allocator@D@2@@std@@@2@@2@U?$less@V?$basic_string@DU?$char_traits@D@std@@V?$allocator@D@2@@std@@@2@V?$allocator@U?$pair@$$CBV?$basic_string@DU?$char_traits@D@std@@V?$allocator@D@2@@std@@V?$vector@V?$basic_string@DU?$char_traits@D@std@@V?$allocator@D@2@@std@@V?$allocator@V?$basic_string@DU?$char_traits@D@std@@V?$allocator@D@2@@std@@@2@@2@@std@@@2@@std@@@Z$3:
  00021	8d 8d 40 fe ff
	ff		 lea	 ecx, DWORD PTR _stSubTokenVector$8[ebp]
  00027	e9 00 00 00 00	 jmp	 ??1?$vector@V?$basic_string@DU?$char_traits@D@std@@V?$allocator@D@2@@std@@V?$allocator@V?$basic_string@DU?$char_traits@D@std@@V?$allocator@D@2@@std@@@2@@std@@QAE@XZ ; std::vector<std::basic_string<char,std::char_traits<char>,std::allocator<char> >,std::allocator<std::basic_string<char,std::char_traits<char>,std::allocator<char> > > >::~vector<std::basic_string<char,std::char_traits<char>,std::allocator<char> >,std::allocator<std::basic_string<char,std::char_traits<char>,std::allocator<char> > > >
__unwindfunclet$?LoadMultipleTextData@@YA_NPBDAAV?$map@V?$basic_string@DU?$char_traits@D@std@@V?$allocator@D@2@@std@@V?$vector@V?$basic_string@DU?$char_traits@D@std@@V?$allocator@D@2@@std@@V?$allocator@V?$basic_string@DU?$char_traits@D@std@@V?$allocator@D@2@@std@@@2@@2@U?$less@V?$basic_string@DU?$char_traits@D@std@@V?$allocator@D@2@@std@@@2@V?$allocator@U?$pair@$$CBV?$basic_string@DU?$char_traits@D@std@@V?$allocator@D@2@@std@@V?$vector@V?$basic_string@DU?$char_traits@D@std@@V?$allocator@D@2@@std@@V?$allocator@V?$basic_string@DU?$char_traits@D@std@@V?$allocator@D@2@@std@@@2@@2@@std@@@2@@std@@@Z$4:
  0002c	8d 4d b4	 lea	 ecx, DWORD PTR _key$12[ebp]
  0002f	e9 00 00 00 00	 jmp	 ??1?$basic_string@DU?$char_traits@D@std@@V?$allocator@D@2@@std@@QAE@XZ ; std::basic_string<char,std::char_traits<char>,std::allocator<char> >::~basic_string<char,std::char_traits<char>,std::allocator<char> >
__unwindfunclet$?LoadMultipleTextData@@YA_NPBDAAV?$map@V?$basic_string@DU?$char_traits@D@std@@V?$allocator@D@2@@std@@V?$vector@V?$basic_string@DU?$char_traits@D@std@@V?$allocator@D@2@@std@@V?$allocator@V?$basic_string@DU?$char_traits@D@std@@V?$allocator@D@2@@std@@@2@@2@U?$less@V?$basic_string@DU?$char_traits@D@std@@V?$allocator@D@2@@std@@@2@V?$allocator@U?$pair@$$CBV?$basic_string@DU?$char_traits@D@std@@V?$allocator@D@2@@std@@V?$vector@V?$basic_string@DU?$char_traits@D@std@@V?$allocator@D@2@@std@@V?$allocator@V?$basic_string@DU?$char_traits@D@std@@V?$allocator@D@2@@std@@@2@@2@@std@@@2@@std@@@Z$8:
  00034	8d 4d cc	 lea	 ecx, DWORD PTR $T14[ebp]
  00037	e9 00 00 00 00	 jmp	 ??1?$basic_string@DU?$char_traits@D@std@@V?$allocator@D@2@@std@@QAE@XZ ; std::basic_string<char,std::char_traits<char>,std::allocator<char> >::~basic_string<char,std::char_traits<char>,std::allocator<char> >
__unwindfunclet$?LoadMultipleTextData@@YA_NPBDAAV?$map@V?$basic_string@DU?$char_traits@D@std@@V?$allocator@D@2@@std@@V?$vector@V?$basic_string@DU?$char_traits@D@std@@V?$allocator@D@2@@std@@V?$allocator@V?$basic_string@DU?$char_traits@D@std@@V?$allocator@D@2@@std@@@2@@2@U?$less@V?$basic_string@DU?$char_traits@D@std@@V?$allocator@D@2@@std@@@2@V?$allocator@U?$pair@$$CBV?$basic_string@DU?$char_traits@D@std@@V?$allocator@D@2@@std@@V?$vector@V?$basic_string@DU?$char_traits@D@std@@V?$allocator@D@2@@std@@V?$allocator@V?$basic_string@DU?$char_traits@D@std@@V?$allocator@D@2@@std@@@2@@2@@std@@@2@@std@@@Z$10:
  0003c	8d 8d 34 fe ff
	ff		 lea	 ecx, DWORD PTR __Guard$7[ebp]
  00042	e9 00 00 00 00	 jmp	 ??1?$_Tidy_guard@V?$vector@V?$basic_string@DU?$char_traits@D@std@@V?$allocator@D@2@@std@@V?$allocator@V?$basic_string@DU?$char_traits@D@std@@V?$allocator@D@2@@std@@@2@@std@@@std@@QAE@XZ ; std::_Tidy_guard<std::vector<std::basic_string<char,std::char_traits<char>,std::allocator<char> >,std::allocator<std::basic_string<char,std::char_traits<char>,std::allocator<char> > > > >::~_Tidy_guard<std::vector<std::basic_string<char,std::char_traits<char>,std::allocator<char> >,std::allocator<std::basic_string<char,std::char_traits<char>,std::allocator<char> > > > >
__unwindfunclet$?LoadMultipleTextData@@YA_NPBDAAV?$map@V?$basic_string@DU?$char_traits@D@std@@V?$allocator@D@2@@std@@V?$vector@V?$basic_string@DU?$char_traits@D@std@@V?$allocator@D@2@@std@@V?$allocator@V?$basic_string@DU?$char_traits@D@std@@V?$allocator@D@2@@std@@@2@@2@U?$less@V?$basic_string@DU?$char_traits@D@std@@V?$allocator@D@2@@std@@@2@V?$allocator@U?$pair@$$CBV?$basic_string@DU?$char_traits@D@std@@V?$allocator@D@2@@std@@V?$vector@V?$basic_string@DU?$char_traits@D@std@@V?$allocator@D@2@@std@@V?$allocator@V?$basic_string@DU?$char_traits@D@std@@V?$allocator@D@2@@std@@@2@@2@@std@@@2@@std@@@Z$11:
  00047	8d 8d 0c fe ff
	ff		 lea	 ecx, DWORD PTR __Backout$5[ebp]
  0004d	e9 00 00 00 00	 jmp	 ??1?$_Uninitialized_backout_al@V?$allocator@V?$basic_string@DU?$char_traits@D@std@@V?$allocator@D@2@@std@@@std@@@std@@QAE@XZ ; std::_Uninitialized_backout_al<std::allocator<std::basic_string<char,std::char_traits<char>,std::allocator<char> > > >::~_Uninitialized_backout_al<std::allocator<std::basic_string<char,std::char_traits<char>,std::allocator<char> > > >
__unwindfunclet$?LoadMultipleTextData@@YA_NPBDAAV?$map@V?$basic_string@DU?$char_traits@D@std@@V?$allocator@D@2@@std@@V?$vector@V?$basic_string@DU?$char_traits@D@std@@V?$allocator@D@2@@std@@V?$allocator@V?$basic_string@DU?$char_traits@D@std@@V?$allocator@D@2@@std@@@2@@2@U?$less@V?$basic_string@DU?$char_traits@D@std@@V?$allocator@D@2@@std@@@2@V?$allocator@U?$pair@$$CBV?$basic_string@DU?$char_traits@D@std@@V?$allocator@D@2@@std@@V?$vector@V?$basic_string@DU?$char_traits@D@std@@V?$allocator@D@2@@std@@V?$allocator@V?$basic_string@DU?$char_traits@D@std@@V?$allocator@D@2@@std@@@2@@2@@std@@@2@@std@@@Z$5:
  00052	8d 4d cc	 lea	 ecx, DWORD PTR $T14[ebp]
  00055	e9 00 00 00 00	 jmp	 ??1?$pair@$$CBV?$basic_string@DU?$char_traits@D@std@@V?$allocator@D@2@@std@@V?$vector@V?$basic_string@DU?$char_traits@D@std@@V?$allocator@D@2@@std@@V?$allocator@V?$basic_string@DU?$char_traits@D@std@@V?$allocator@D@2@@std@@@2@@2@@std@@QAE@XZ
__unwindfunclet$?LoadMultipleTextData@@YA_NPBDAAV?$map@V?$basic_string@DU?$char_traits@D@std@@V?$allocator@D@2@@std@@V?$vector@V?$basic_string@DU?$char_traits@D@std@@V?$allocator@D@2@@std@@V?$allocator@V?$basic_string@DU?$char_traits@D@std@@V?$allocator@D@2@@std@@@2@@2@U?$less@V?$basic_string@DU?$char_traits@D@std@@V?$allocator@D@2@@std@@@2@V?$allocator@U?$pair@$$CBV?$basic_string@DU?$char_traits@D@std@@V?$allocator@D@2@@std@@V?$vector@V?$basic_string@DU?$char_traits@D@std@@V?$allocator@D@2@@std@@V?$allocator@V?$basic_string@DU?$char_traits@D@std@@V?$allocator@D@2@@std@@@2@@2@@std@@@2@@std@@@Z$15:
  0005a	8d 8d 18 fe ff
	ff		 lea	 ecx, DWORD PTR $T6[ebp]
  00060	e9 00 00 00 00	 jmp	 ??1?$_Alloc_construct_ptr@V?$allocator@U?$_Tree_node@U?$pair@$$CBV?$basic_string@DU?$char_traits@D@std@@V?$allocator@D@2@@std@@V?$vector@V?$basic_string@DU?$char_traits@D@std@@V?$allocator@D@2@@std@@V?$allocator@V?$basic_string@DU?$char_traits@D@std@@V?$allocator@D@2@@std@@@2@@2@@std@@PAX@std@@@std@@@std@@QAE@XZ ; std::_Alloc_construct_ptr<std::allocator<std::_Tree_node<std::pair<std::basic_string<char,std::char_traits<char>,std::allocator<char> > const ,std::vector<std::basic_string<char,std::char_traits<char>,std::allocator<char> >,std::allocator<std::basic_string<char,std::char_traits<char>,std::allocator<char> > > > >,void *> > >::~_Alloc_construct_ptr<std::allocator<std::_Tree_node<std::pair<std::basic_string<char,std::char_traits<char>,std::allocator<char> > const ,std::vector<std::basic_string<char,std::char_traits<char>,std::allocator<char> >,std::allocator<std::basic_string<char,std::char_traits<char>,std::allocator<char> > > > >,void *> > >
__unwindfunclet$?LoadMultipleTextData@@YA_NPBDAAV?$map@V?$basic_string@DU?$char_traits@D@std@@V?$allocator@D@2@@std@@V?$vector@V?$basic_string@DU?$char_traits@D@std@@V?$allocator@D@2@@std@@V?$allocator@V?$basic_string@DU?$char_traits@D@std@@V?$allocator@D@2@@std@@@2@@2@U?$less@V?$basic_string@DU?$char_traits@D@std@@V?$allocator@D@2@@std@@@2@V?$allocator@U?$pair@$$CBV?$basic_string@DU?$char_traits@D@std@@V?$allocator@D@2@@std@@V?$vector@V?$basic_string@DU?$char_traits@D@std@@V?$allocator@D@2@@std@@V?$allocator@V?$basic_string@DU?$char_traits@D@std@@V?$allocator@D@2@@std@@@2@@2@@std@@@2@@std@@@Z$14:
  00065	8d 8d 18 fe ff
	ff		 lea	 ecx, DWORD PTR $T6[ebp]
  0006b	e9 00 00 00 00	 jmp	 ??1?$_Tree_temp_node_alloc@V?$allocator@U?$_Tree_node@U?$pair@$$CBV?$basic_string@DU?$char_traits@D@std@@V?$allocator@D@2@@std@@V?$vector@V?$basic_string@DU?$char_traits@D@std@@V?$allocator@D@2@@std@@V?$allocator@V?$basic_string@DU?$char_traits@D@std@@V?$allocator@D@2@@std@@@2@@2@@std@@PAX@std@@@std@@@std@@QAE@XZ
__unwindfunclet$?LoadMultipleTextData@@YA_NPBDAAV?$map@V?$basic_string@DU?$char_traits@D@std@@V?$allocator@D@2@@std@@V?$vector@V?$basic_string@DU?$char_traits@D@std@@V?$allocator@D@2@@std@@V?$allocator@V?$basic_string@DU?$char_traits@D@std@@V?$allocator@D@2@@std@@@2@@2@U?$less@V?$basic_string@DU?$char_traits@D@std@@V?$allocator@D@2@@std@@@2@V?$allocator@U?$pair@$$CBV?$basic_string@DU?$char_traits@D@std@@V?$allocator@D@2@@std@@V?$vector@V?$basic_string@DU?$char_traits@D@std@@V?$allocator@D@2@@std@@V?$allocator@V?$basic_string@DU?$char_traits@D@std@@V?$allocator@D@2@@std@@@2@@2@@std@@@2@@std@@@Z$6:
  00070	8d 4d b4	 lea	 ecx, DWORD PTR _key$13[ebp]
  00073	e9 00 00 00 00	 jmp	 ??1?$basic_string@DU?$char_traits@D@std@@V?$allocator@D@2@@std@@QAE@XZ ; std::basic_string<char,std::char_traits<char>,std::allocator<char> >::~basic_string<char,std::char_traits<char>,std::allocator<char> >
__unwindfunclet$?LoadMultipleTextData@@YA_NPBDAAV?$map@V?$basic_string@DU?$char_traits@D@std@@V?$allocator@D@2@@std@@V?$vector@V?$basic_string@DU?$char_traits@D@std@@V?$allocator@D@2@@std@@V?$allocator@V?$basic_string@DU?$char_traits@D@std@@V?$allocator@D@2@@std@@@2@@2@U?$less@V?$basic_string@DU?$char_traits@D@std@@V?$allocator@D@2@@std@@@2@V?$allocator@U?$pair@$$CBV?$basic_string@DU?$char_traits@D@std@@V?$allocator@D@2@@std@@V?$vector@V?$basic_string@DU?$char_traits@D@std@@V?$allocator@D@2@@std@@V?$allocator@V?$basic_string@DU?$char_traits@D@std@@V?$allocator@D@2@@std@@@2@@2@@std@@@2@@std@@@Z$7:
  00078	8d 4d cc	 lea	 ecx, DWORD PTR $T15[ebp]
  0007b	e9 00 00 00 00	 jmp	 ??1?$pair@$$CBV?$basic_string@DU?$char_traits@D@std@@V?$allocator@D@2@@std@@V?$vector@V?$basic_string@DU?$char_traits@D@std@@V?$allocator@D@2@@std@@V?$allocator@V?$basic_string@DU?$char_traits@D@std@@V?$allocator@D@2@@std@@@2@@2@@std@@QAE@XZ
  00080	cc		 int	 3
  00081	cc		 int	 3
  00082	cc		 int	 3
  00083	cc		 int	 3
  00084	cc		 int	 3
__ehhandler$?LoadMultipleTextData@@YA_NPBDAAV?$map@V?$basic_string@DU?$char_traits@D@std@@V?$allocator@D@2@@std@@V?$vector@V?$basic_string@DU?$char_traits@D@std@@V?$allocator@D@2@@std@@V?$allocator@V?$basic_string@DU?$char_traits@D@std@@V?$allocator@D@2@@std@@@2@@2@U?$less@V?$basic_string@DU?$char_traits@D@std@@V?$allocator@D@2@@std@@@2@V?$allocator@U?$pair@$$CBV?$basic_string@DU?$char_traits@D@std@@V?$allocator@D@2@@std@@V?$vector@V?$basic_string@DU?$char_traits@D@std@@V?$allocator@D@2@@std@@V?$allocator@V?$basic_string@DU?$char_traits@D@std@@V?$allocator@D@2@@std@@@2@@2@@std@@@2@@std@@@Z:
  00085	90		 npad	 1
  00086	90		 npad	 1
  00087	8b 54 24 08	 mov	 edx, DWORD PTR [esp+8]
  0008b	8d 42 0c	 lea	 eax, DWORD PTR [edx+12]
  0008e	8b 8a 04 fe ff
	ff		 mov	 ecx, DWORD PTR [edx-508]
  00094	33 c8		 xor	 ecx, eax
  00096	e8 00 00 00 00	 call	 @__security_check_cookie@4
  0009b	8b 4a fc	 mov	 ecx, DWORD PTR [edx-4]
  0009e	33 c8		 xor	 ecx, eax
  000a0	e8 00 00 00 00	 call	 @__security_check_cookie@4
  000a5	b8 00 00 00 00	 mov	 eax, OFFSET __ehfuncinfo$?LoadMultipleTextData@@YA_NPBDAAV?$map@V?$basic_string@DU?$char_traits@D@std@@V?$allocator@D@2@@std@@V?$vector@V?$basic_string@DU?$char_traits@D@std@@V?$allocator@D@2@@std@@V?$allocator@V?$basic_string@DU?$char_traits@D@std@@V?$allocator@D@2@@std@@@2@@2@U?$less@V?$basic_string@DU?$char_traits@D@std@@V?$allocator@D@2@@std@@@2@V?$allocator@U?$pair@$$CBV?$basic_string@DU?$char_traits@D@std@@V?$allocator@D@2@@std@@V?$vector@V?$basic_string@DU?$char_traits@D@std@@V?$allocator@D@2@@std@@V?$allocator@V?$basic_string@DU?$char_traits@D@std@@V?$allocator@D@2@@std@@@2@@2@@std@@@2@@std@@@Z
  000aa	e9 00 00 00 00	 jmp	 ___CxxFrameHandler3
text$x	ENDS
?LoadMultipleTextData@@YA_NPBDAAV?$map@V?$basic_string@DU?$char_traits@D@std@@V?$allocator@D@2@@std@@V?$vector@V?$basic_string@DU?$char_traits@D@std@@V?$allocator@D@2@@std@@V?$allocator@V?$basic_string@DU?$char_traits@D@std@@V?$allocator@D@2@@std@@@2@@2@U?$less@V?$basic_string@DU?$char_traits@D@std@@V?$allocator@D@2@@std@@@2@V?$allocator@U?$pair@$$CBV?$basic_string@DU?$char_traits@D@std@@V?$allocator@D@2@@std@@V?$vector@V?$basic_string@DU?$char_traits@D@std@@V?$allocator@D@2@@std@@V?$allocator@V?$basic_string@DU?$char_traits@D@std@@V?$allocator@D@2@@std@@@2@@2@@std@@@2@@std@@@Z ENDP ; LoadMultipleTextData
; Function compile flags: /Ogtp
; File C:\Marty 5.5\Src-Client\Client\EterLib\Util.cpp
; File D:\Program Files\Microsoft Visual Studio\2022\Community\VC\Tools\MSVC\14.43.34808\include\vector
; File C:\Marty 5.5\Src-Client\Client\EterLib\Util.cpp
; File D:\Program Files\Microsoft Visual Studio\2022\Community\VC\Tools\MSVC\14.43.34808\include\vector
; File C:\Marty 5.5\Src-Client\Client\EterLib\Util.cpp
; File D:\Program Files\Microsoft Visual Studio\2022\Community\VC\Tools\MSVC\14.43.34808\include\vector
; File C:\Marty 5.5\Src-Client\Client\EterLib\Util.cpp
; File D:\Program Files\Microsoft Visual Studio\2022\Community\VC\Tools\MSVC\14.43.34808\include\xtree
; File D:\Program Files\Microsoft Visual Studio\2022\Community\VC\Tools\MSVC\14.43.34808\include\vector
; File D:\Program Files\Microsoft Visual Studio\2022\Community\VC\Tools\MSVC\14.43.34808\include\xtree
; File D:\Program Files\Microsoft Visual Studio\2022\Community\VC\Tools\MSVC\14.43.34808\include\type_traits
; File D:\Program Files\Microsoft Visual Studio\2022\Community\VC\Tools\MSVC\14.43.34808\include\xtree
; File D:\Program Files\Microsoft Visual Studio\2022\Community\VC\Tools\MSVC\14.43.34808\include\type_traits
; File D:\Program Files\Microsoft Visual Studio\2022\Community\VC\Tools\MSVC\14.43.34808\include\xtree
; File D:\Program Files\Microsoft Visual Studio\2022\Community\VC\Tools\MSVC\14.43.34808\include\map
; File D:\Program Files\Microsoft Visual Studio\2022\Community\VC\Tools\MSVC\14.43.34808\include\xtree
; File D:\Program Files\Microsoft Visual Studio\2022\Community\VC\Tools\MSVC\14.43.34808\include\xmemory
; File D:\Program Files\Microsoft Visual Studio\2022\Community\VC\Tools\MSVC\14.43.34808\include\xtree
; File D:\Program Files\Microsoft Visual Studio\2022\Community\VC\Tools\MSVC\14.43.34808\include\xmemory
; File D:\Program Files\Microsoft Visual Studio\2022\Community\VC\Tools\MSVC\14.43.34808\include\xtree
; File D:\Program Files\Microsoft Visual Studio\2022\Community\VC\Tools\MSVC\14.43.34808\include\utility
; File D:\Program Files\Microsoft Visual Studio\2022\Community\VC\Tools\MSVC\14.43.34808\include\xtree
; File D:\Program Files\Microsoft Visual Studio\2022\Community\VC\Tools\MSVC\14.43.34808\include\xstring
; File D:\Program Files\Microsoft Visual Studio\2022\Community\VC\Tools\MSVC\14.43.34808\include\map
; File D:\Program Files\Microsoft Visual Studio\2022\Community\VC\Tools\MSVC\14.43.34808\include\xtree
; File D:\Program Files\Microsoft Visual Studio\2022\Community\VC\Tools\MSVC\14.43.34808\include\map
; File D:\Program Files\Microsoft Visual Studio\2022\Community\VC\Tools\MSVC\14.43.34808\include\xtree
; File D:\Program Files\Microsoft Visual Studio\2022\Community\VC\Tools\MSVC\14.43.34808\include\map
; File D:\Program Files\Microsoft Visual Studio\2022\Community\VC\Tools\MSVC\14.43.34808\include\xtree
; File D:\Program Files\Microsoft Visual Studio\2022\Community\VC\Tools\MSVC\14.43.34808\include\utility
; File D:\Program Files\Microsoft Visual Studio\2022\Community\VC\Tools\MSVC\14.43.34808\include\map
; File D:\Program Files\Microsoft Visual Studio\2022\Community\VC\Tools\MSVC\14.43.34808\include\xstring
; File C:\Marty 5.5\Src-Client\Client\EterLib\Util.cpp
; File D:\Program Files\Microsoft Visual Studio\2022\Community\VC\Tools\MSVC\14.43.34808\include\vector
; File D:\Program Files\Microsoft Visual Studio\2022\Community\VC\Tools\MSVC\14.43.34808\include\xmemory
; File D:\Program Files\Microsoft Visual Studio\2022\Community\VC\Tools\MSVC\14.43.34808\include\xstring
; File D:\Program Files\Microsoft Visual Studio\2022\Community\VC\Tools\MSVC\14.43.34808\include\xmemory
; File D:\Program Files\Microsoft Visual Studio\2022\Community\VC\Tools\MSVC\14.43.34808\include\xstring
; File D:\Program Files\Microsoft Visual Studio\2022\Community\VC\Tools\MSVC\14.43.34808\include\xmemory
; File D:\Program Files\Microsoft Visual Studio\2022\Community\VC\Tools\MSVC\14.43.34808\include\xstring
; File D:\Program Files\Microsoft Visual Studio\2022\Community\VC\Tools\MSVC\14.43.34808\include\xmemory
; File D:\Program Files\Microsoft Visual Studio\2022\Community\VC\Tools\MSVC\14.43.34808\include\vector
; File D:\Program Files\Microsoft Visual Studio\2022\Community\VC\Tools\MSVC\14.43.34808\include\xmemory
; File D:\Program Files\Microsoft Visual Studio\2022\Community\VC\Tools\MSVC\14.43.34808\include\vector
; File C:\Marty 5.5\Src-Client\Client\EterLib\Util.cpp
; File D:\Program Files\Microsoft Visual Studio\2022\Community\VC\Tools\MSVC\14.43.34808\include\xmemory
; File D:\Program Files\Microsoft Visual Studio\2022\Community\VC\Tools\MSVC\14.43.34808\include\xtree
; File C:\Marty 5.5\Src-Client\Client\EterLib\Util.cpp
;	COMDAT ?LoadTextData@@YA_NPBDAAV?$map@V?$basic_string@DU?$char_traits@D@std@@V?$allocator@D@2@@std@@V12@U?$less@V?$basic_string@DU?$char_traits@D@std@@V?$allocator@D@2@@std@@@2@V?$allocator@U?$pair@$$CBV?$basic_string@DU?$char_traits@D@std@@V?$allocator@D@2@@std@@V12@@std@@@2@@std@@@Z
_TEXT	SEGMENT
_textFileLoader$ = -412					; size = 16
$T3 = -396						; size = 8
__Result$1$ = -388					; size = 4
__Myhead$1$ = -384					; size = 4
_pMotionData$ = -380					; size = 4
__Loc$1$ = -376						; size = 4
_i$1$ = -372						; size = 4
_rstTokenMap$GSCopy$1$ = -368				; size = 4
__Loc$2$ = -364						; size = 4
_stTokenVector$ = -360					; size = 12
$T4 = -348						; size = 4
$T5 = -348						; size = 4
$T6 = -341						; size = 1
_File$ = -340						; size = 324
__$ArrayPad$ = -16					; size = 4
__$EHRec$ = -12						; size = 12
_c_szFileName$ = 8					; size = 4
_rstTokenMap$ = 12					; size = 4
?LoadTextData@@YA_NPBDAAV?$map@V?$basic_string@DU?$char_traits@D@std@@V?$allocator@D@2@@std@@V12@U?$less@V?$basic_string@DU?$char_traits@D@std@@V?$allocator@D@2@@std@@@2@V?$allocator@U?$pair@$$CBV?$basic_string@DU?$char_traits@D@std@@V?$allocator@D@2@@std@@V12@@std@@@2@@std@@@Z PROC ; LoadTextData, COMDAT

; 22   : {

  00000	55		 push	 ebp
  00001	8b ec		 mov	 ebp, esp
  00003	6a ff		 push	 -1
  00005	68 00 00 00 00	 push	 __ehhandler$?LoadTextData@@YA_NPBDAAV?$map@V?$basic_string@DU?$char_traits@D@std@@V?$allocator@D@2@@std@@V12@U?$less@V?$basic_string@DU?$char_traits@D@std@@V?$allocator@D@2@@std@@@2@V?$allocator@U?$pair@$$CBV?$basic_string@DU?$char_traits@D@std@@V?$allocator@D@2@@std@@V12@@std@@@2@@std@@@Z
  0000a	64 a1 00 00 00
	00		 mov	 eax, DWORD PTR fs:0
  00010	50		 push	 eax
  00011	81 ec 90 01 00
	00		 sub	 esp, 400		; 00000190H
  00017	a1 00 00 00 00	 mov	 eax, DWORD PTR ___security_cookie
  0001c	33 c5		 xor	 eax, ebp
  0001e	89 45 f0	 mov	 DWORD PTR __$ArrayPad$[ebp], eax
  00021	56		 push	 esi
  00022	57		 push	 edi
  00023	50		 push	 eax
  00024	8d 45 f4	 lea	 eax, DWORD PTR __$EHRec$[ebp]
  00027	64 a3 00 00 00
	00		 mov	 DWORD PTR fs:0, eax
  0002d	8b 4d 0c	 mov	 ecx, DWORD PTR _rstTokenMap$[ebp]
  00030	8b 75 08	 mov	 esi, DWORD PTR _c_szFileName$[ebp]
  00033	89 8d 90 fe ff
	ff		 mov	 DWORD PTR _rstTokenMap$GSCopy$1$[ebp], ecx

; 23   : 	LPCVOID pMotionData;
; 24   : 	CMappedFile File;

  00039	8d 8d ac fe ff
	ff		 lea	 ecx, DWORD PTR _File$[ebp]
  0003f	e8 00 00 00 00	 call	 ??0CMappedFile@@QAE@XZ	; CMappedFile::CMappedFile

; 25   : 
; 26   : 	if (!CEterPackManager::Instance().Get(File, c_szFileName, &pMotionData))

  00044	8b 0d 00 00 00
	00		 mov	 ecx, DWORD PTR ?ms_singleton@?$CSingleton@VCEterPackManager@@@@0PAVCEterPackManager@@A ; CSingleton<CEterPackManager>::ms_singleton
  0004a	8d 85 84 fe ff
	ff		 lea	 eax, DWORD PTR _pMotionData$[ebp]
  00050	50		 push	 eax
  00051	56		 push	 esi
  00052	8d 85 ac fe ff
	ff		 lea	 eax, DWORD PTR _File$[ebp]
  00058	c7 45 fc 00 00
	00 00		 mov	 DWORD PTR __$EHRec$[ebp+8], 0
  0005f	50		 push	 eax
  00060	e8 00 00 00 00	 call	 ?Get@CEterPackManager@@QAE_NAAVCMappedFile@@PBDPAPBX@Z ; CEterPackManager::Get
  00065	84 c0		 test	 al, al
  00067	75 0b		 jne	 SHORT $LN5@LoadTextDa
  00069	88 85 ab fe ff
	ff		 mov	 BYTE PTR $T6[ebp], al
  0006f	e9 37 03 00 00	 jmp	 $LN12@LoadTextDa
$LN5@LoadTextDa:

; 27   : 		return false;
; 28   : 
; 29   : 	CMemoryTextFileLoader textFileLoader;

  00074	8d 8d 64 fe ff
	ff		 lea	 ecx, DWORD PTR _textFileLoader$[ebp]
  0007a	e8 00 00 00 00	 call	 ??0CMemoryTextFileLoader@@QAE@XZ ; CMemoryTextFileLoader::CMemoryTextFileLoader
; File D:\Program Files\Microsoft Visual Studio\2022\Community\VC\Tools\MSVC\14.43.34808\include\vector

; 400  :     _CONSTEXPR20 _Vector_val() noexcept : _Myfirst(), _Mylast(), _Myend() {}

  0007f	c7 85 98 fe ff
	ff 00 00 00 00	 mov	 DWORD PTR _stTokenVector$[ebp], 0
  00089	c7 85 9c fe ff
	ff 00 00 00 00	 mov	 DWORD PTR _stTokenVector$[ebp+4], 0
  00093	c7 85 a0 fe ff
	ff 00 00 00 00	 mov	 DWORD PTR _stTokenVector$[ebp+8], 0
; File C:\Marty 5.5\Src-Client\Client\EterLib\Util.cpp

; 32   : 	textFileLoader.Bind(File.Size(), pMotionData);

  0009d	8b b5 84 fe ff
	ff		 mov	 esi, DWORD PTR _pMotionData$[ebp]
  000a3	8d 8d ac fe ff
	ff		 lea	 ecx, DWORD PTR _File$[ebp]
  000a9	c6 45 fc 02	 mov	 BYTE PTR __$EHRec$[ebp+8], 2
  000ad	e8 00 00 00 00	 call	 ?Size@CMappedFile@@QAEKXZ ; CMappedFile::Size
  000b2	56		 push	 esi
  000b3	50		 push	 eax
  000b4	8d 8d 64 fe ff
	ff		 lea	 ecx, DWORD PTR _textFileLoader$[ebp]
  000ba	e8 00 00 00 00	 call	 ?Bind@CMemoryTextFileLoader@@QAEXHPBX@Z ; CMemoryTextFileLoader::Bind

; 34   : 	for (DWORD i = 0; i < textFileLoader.GetLineCount(); ++i)

  000bf	33 f6		 xor	 esi, esi
  000c1	8d 8d 64 fe ff
	ff		 lea	 ecx, DWORD PTR _textFileLoader$[ebp]
  000c7	89 b5 8c fe ff
	ff		 mov	 DWORD PTR _i$1$[ebp], esi
  000cd	e8 00 00 00 00	 call	 ?GetLineCount@CMemoryTextFileLoader@@QAEKXZ ; CMemoryTextFileLoader::GetLineCount
  000d2	85 c0		 test	 eax, eax
  000d4	0f 84 e4 01 00
	00		 je	 $LN298@LoadTextDa
  000da	66 0f 1f 44 00
	00		 npad	 6
$LL4@LoadTextDa:

; 35   : 	{
; 36   : 		if (!textFileLoader.SplitLine(i, &stTokenVector))

  000e0	68 00 00 00 00	 push	 OFFSET ??_C@_02OJDBNLEE@?5?7@
  000e5	8d 85 98 fe ff
	ff		 lea	 eax, DWORD PTR _stTokenVector$[ebp]
  000eb	50		 push	 eax
  000ec	56		 push	 esi
  000ed	8d 8d 64 fe ff
	ff		 lea	 ecx, DWORD PTR _textFileLoader$[ebp]
  000f3	e8 00 00 00 00	 call	 ?SplitLine@CMemoryTextFileLoader@@QAE_NKPAV?$vector@V?$basic_string@DU?$char_traits@D@std@@V?$allocator@D@2@@std@@V?$allocator@V?$basic_string@DU?$char_traits@D@std@@V?$allocator@D@2@@std@@@2@@std@@PBD@Z ; CMemoryTextFileLoader::SplitLine
  000f8	84 c0		 test	 al, al
  000fa	0f 84 a4 01 00
	00		 je	 $LN2@LoadTextDa

; 37   : 			continue;
; 38   : 
; 39   : 		if (2 != stTokenVector.size())

  00100	8b bd 9c fe ff
	ff		 mov	 edi, DWORD PTR _stTokenVector$[ebp+4]
  00106	8b c7		 mov	 eax, edi
  00108	8b b5 98 fe ff
	ff		 mov	 esi, DWORD PTR _stTokenVector$[ebp]
  0010e	2b c6		 sub	 eax, esi
  00110	83 e8 30	 sub	 eax, 48			; 00000030H
  00113	83 f8 18	 cmp	 eax, 24			; 00000018H
  00116	0f 83 50 02 00
	00		 jae	 $LN294@LoadTextDa

; 40   : 			return false;
; 41   : 
; 42   : 		stl_lowers(stTokenVector[0]);

  0011c	56		 push	 esi
  0011d	e8 00 00 00 00	 call	 ?stl_lowers@@YAXAAV?$basic_string@DU?$char_traits@D@std@@V?$allocator@D@2@@std@@@Z ; stl_lowers
; File D:\Program Files\Microsoft Visual Studio\2022\Community\VC\Tools\MSVC\14.43.34808\include\vector

; 1919 :         return _My_data._Myfirst[_Pos];

  00122	8b 85 98 fe ff
	ff		 mov	 eax, DWORD PTR _stTokenVector$[ebp]
  00128	83 c0 18	 add	 eax, 24			; 00000018H
; File C:\Marty 5.5\Src-Client\Client\EterLib\Util.cpp

; 43   : 		stl_lowers(stTokenVector[1]);

  0012b	50		 push	 eax
  0012c	e8 00 00 00 00	 call	 ?stl_lowers@@YAXAAV?$basic_string@DU?$char_traits@D@std@@V?$allocator@D@2@@std@@@Z ; stl_lowers
; File D:\Program Files\Microsoft Visual Studio\2022\Community\VC\Tools\MSVC\14.43.34808\include\vector

; 1919 :         return _My_data._Myfirst[_Pos];

  00131	8b b5 98 fe ff
	ff		 mov	 esi, DWORD PTR _stTokenVector$[ebp]
; File C:\Marty 5.5\Src-Client\Client\EterLib\Util.cpp

; 43   : 		stl_lowers(stTokenVector[1]);

  00137	83 c4 08	 add	 esp, 8
; File D:\Program Files\Microsoft Visual Studio\2022\Community\VC\Tools\MSVC\14.43.34808\include\xtree

; 1620 :         _Tree_find_result<_Nodeptr> _Result{{_Scary->_Myhead->_Parent, _Tree_child::_Right}, _Scary->_Myhead};

  0013a	8b bd 90 fe ff
	ff		 mov	 edi, DWORD PTR _rstTokenMap$GSCopy$1$[ebp]
  00140	c7 85 94 fe ff
	ff 00 00 00 00	 mov	 DWORD PTR __Loc$2$[ebp], 0
; File D:\Program Files\Microsoft Visual Studio\2022\Community\VC\Tools\MSVC\14.43.34808\include\vector

; 1919 :         return _My_data._Myfirst[_Pos];

  0014a	8d 46 18	 lea	 eax, DWORD PTR [esi+24]
  0014d	89 85 7c fe ff
	ff		 mov	 DWORD PTR __Result$1$[ebp], eax
; File D:\Program Files\Microsoft Visual Studio\2022\Community\VC\Tools\MSVC\14.43.34808\include\xtree

; 1620 :         _Tree_find_result<_Nodeptr> _Result{{_Scary->_Myhead->_Parent, _Tree_child::_Right}, _Scary->_Myhead};

  00153	8b 07		 mov	 eax, DWORD PTR [edi]
  00155	89 85 80 fe ff
	ff		 mov	 DWORD PTR __Myhead$1$[ebp], eax
  0015b	89 85 a4 fe ff
	ff		 mov	 DWORD PTR $T5[ebp], eax
  00161	8b 48 04	 mov	 ecx, DWORD PTR [eax+4]
  00164	89 8d 88 fe ff
	ff		 mov	 DWORD PTR __Loc$1$[ebp], ecx

; 1621 :         _Nodeptr _Trynode = _Result._Location._Parent;
; 1622 :         while (!_Trynode->_Isnil) {

  0016a	80 79 0d 00	 cmp	 BYTE PTR [ecx+13], 0
  0016e	75 4e		 jne	 SHORT $LN59@LoadTextDa
  00170	8b f9		 mov	 edi, ecx
$LL58@LoadTextDa:

; 1624 :             if (_DEBUG_LT_PRED(_Getcomp(), _Traits::_Kfn(_Trynode->_Myval), _Keyval)) {

  00172	8d 47 10	 lea	 eax, DWORD PTR [edi+16]
  00175	89 bd 88 fe ff
	ff		 mov	 DWORD PTR __Loc$1$[ebp], edi
; File D:\Program Files\Microsoft Visual Studio\2022\Community\VC\Tools\MSVC\14.43.34808\include\type_traits

; 2412 :         return _Left < _Right;

  0017b	56		 push	 esi
  0017c	50		 push	 eax
  0017d	e8 00 00 00 00	 call	 ??$?MDU?$char_traits@D@std@@V?$allocator@D@1@@std@@YA_NABV?$basic_string@DU?$char_traits@D@std@@V?$allocator@D@2@@0@0@Z ; std::operator<<char,std::char_traits<char>,std::allocator<char> >
  00182	83 c4 08	 add	 esp, 8
; File D:\Program Files\Microsoft Visual Studio\2022\Community\VC\Tools\MSVC\14.43.34808\include\xtree

; 1624 :             if (_DEBUG_LT_PRED(_Getcomp(), _Traits::_Kfn(_Trynode->_Myval), _Keyval)) {

  00185	84 c0		 test	 al, al
  00187	74 15		 je	 SHORT $LN60@LoadTextDa

; 1625 :                 _Result._Location._Child = _Tree_child::_Right;
; 1626 :                 _Trynode                 = _Trynode->_Right;

  00189	8b 7f 08	 mov	 edi, DWORD PTR [edi+8]

; 1627 :             } else {

  0018c	8b 85 a4 fe ff
	ff		 mov	 eax, DWORD PTR $T5[ebp]
  00192	c7 85 94 fe ff
	ff 00 00 00 00	 mov	 DWORD PTR __Loc$2$[ebp], 0
  0019c	eb 14		 jmp	 SHORT $LN61@LoadTextDa
$LN60@LoadTextDa:

; 1628 :                 _Result._Location._Child = _Tree_child::_Left;
; 1629 :                 _Result._Bound           = _Trynode;

  0019e	8b c7		 mov	 eax, edi
  001a0	c7 85 94 fe ff
	ff 01 00 00 00	 mov	 DWORD PTR __Loc$2$[ebp], 1

; 1630 :                 _Trynode                 = _Trynode->_Left;

  001aa	8b 3f		 mov	 edi, DWORD PTR [edi]
  001ac	89 85 a4 fe ff
	ff		 mov	 DWORD PTR $T5[ebp], eax
$LN61@LoadTextDa:

; 1621 :         _Nodeptr _Trynode = _Result._Location._Parent;
; 1622 :         while (!_Trynode->_Isnil) {

  001b2	80 7f 0d 00	 cmp	 BYTE PTR [edi+13], 0
  001b6	74 ba		 je	 SHORT $LL58@LoadTextDa
  001b8	8b bd 90 fe ff
	ff		 mov	 edi, DWORD PTR _rstTokenMap$GSCopy$1$[ebp]
$LN59@LoadTextDa:

; 1614 :         return !_Bound->_Isnil && !_DEBUG_LT_PRED(_Getcomp(), _Keyval, _Traits::_Kfn(_Bound->_Myval));

  001be	80 78 0d 00	 cmp	 BYTE PTR [eax+13], 0
  001c2	75 1c		 jne	 SHORT $LN54@LoadTextDa
  001c4	83 c0 10	 add	 eax, 16			; 00000010H
; File D:\Program Files\Microsoft Visual Studio\2022\Community\VC\Tools\MSVC\14.43.34808\include\type_traits

; 2412 :         return _Left < _Right;

  001c7	50		 push	 eax
  001c8	56		 push	 esi
  001c9	e8 00 00 00 00	 call	 ??$?MDU?$char_traits@D@std@@V?$allocator@D@1@@std@@YA_NABV?$basic_string@DU?$char_traits@D@std@@V?$allocator@D@2@@0@0@Z ; std::operator<<char,std::char_traits<char>,std::allocator<char> >
  001ce	83 c4 08	 add	 esp, 8
; File D:\Program Files\Microsoft Visual Studio\2022\Community\VC\Tools\MSVC\14.43.34808\include\xtree

; 1614 :         return !_Bound->_Isnil && !_DEBUG_LT_PRED(_Getcomp(), _Keyval, _Traits::_Kfn(_Bound->_Myval));

  001d1	84 c0		 test	 al, al
  001d3	75 0b		 jne	 SHORT $LN54@LoadTextDa
; File D:\Program Files\Microsoft Visual Studio\2022\Community\VC\Tools\MSVC\14.43.34808\include\map

; 199  :             return {_Loc._Bound, false};

  001d5	8b 85 a4 fe ff
	ff		 mov	 eax, DWORD PTR $T5[ebp]
  001db	e9 9f 00 00 00	 jmp	 $LN53@LoadTextDa
$LN54@LoadTextDa:
; File D:\Program Files\Microsoft Visual Studio\2022\Community\VC\Tools\MSVC\14.43.34808\include\xtree

; 1638 :         if (max_size() == _Get_scary()->_Mysize) {

  001e0	81 7f 04 ff ff
	ff 03		 cmp	 DWORD PTR [edi+4], 67108863 ; 03ffffffH
  001e7	0f 84 ef 01 00
	00		 je	 $LN295@LoadTextDa
; File D:\Program Files\Microsoft Visual Studio\2022\Community\VC\Tools\MSVC\14.43.34808\include\xmemory

; 1156 :     _CONSTEXPR20 explicit _Alloc_construct_ptr(_Alloc& _Al_) : _Al(_Al_), _Ptr(nullptr) {}

  001ed	89 bd 74 fe ff
	ff		 mov	 DWORD PTR $T3[ebp], edi

; 136  :         return ::operator new(_Bytes);

  001f3	6a 40		 push	 64			; 00000040H
; File D:\Program Files\Microsoft Visual Studio\2022\Community\VC\Tools\MSVC\14.43.34808\include\xtree

; 798  :     explicit _Tree_temp_node_alloc(_Alnode& _Al_) : _Alloc_construct_ptr<_Alnode>(_Al_) {

  001f5	c6 45 fc 03	 mov	 BYTE PTR __$EHRec$[ebp+8], 3
; File D:\Program Files\Microsoft Visual Studio\2022\Community\VC\Tools\MSVC\14.43.34808\include\xmemory

; 1163 :         _Ptr = nullptr; // if allocate throws, prevents double-free

  001f9	c7 85 78 fe ff
	ff 00 00 00 00	 mov	 DWORD PTR $T3[ebp+4], 0

; 136  :         return ::operator new(_Bytes);

  00203	e8 00 00 00 00	 call	 ??2@YAPAXI@Z		; operator new
  00208	83 c4 04	 add	 esp, 4

; 256  :         return _Traits::_Allocate(_Bytes);

  0020b	89 85 a4 fe ff
	ff		 mov	 DWORD PTR $T4[ebp], eax

; 1164 :         _Ptr = _Al.allocate(1);

  00211	89 85 78 fe ff
	ff		 mov	 DWORD PTR $T3[ebp+4], eax
; File D:\Program Files\Microsoft Visual Studio\2022\Community\VC\Tools\MSVC\14.43.34808\include\xtree

; 820  :         _Alnode_traits::construct(this->_Al, _STD addressof(this->_Ptr->_Myval), _STD forward<_Valtys>(_Vals)...);

  00217	8d 78 10	 lea	 edi, DWORD PTR [eax+16]
  0021a	c6 45 fc 04	 mov	 BYTE PTR __$EHRec$[ebp+8], 4
; File D:\Program Files\Microsoft Visual Studio\2022\Community\VC\Tools\MSVC\14.43.34808\include\utility

; 478  :         : first(_STD _Tuple_get<_Indices1>(_STD move(_Val1))...),

  0021e	56		 push	 esi
  0021f	8b cf		 mov	 ecx, edi
  00221	e8 00 00 00 00	 call	 ??0?$basic_string@DU?$char_traits@D@std@@V?$allocator@D@2@@std@@QAE@ABV01@@Z ; std::basic_string<char,std::char_traits<char>,std::allocator<char> >::basic_string<char,std::char_traits<char>,std::allocator<char> >
; File D:\Program Files\Microsoft Visual Studio\2022\Community\VC\Tools\MSVC\14.43.34808\include\xtree

; 821  :         _Construct_in_place(this->_Ptr->_Left, _Myhead);

  00226	8b 85 a4 fe ff
	ff		 mov	 eax, DWORD PTR $T4[ebp]
  0022c	0f 57 c0	 xorps	 xmm0, xmm0
  0022f	8b 8d 80 fe ff
	ff		 mov	 ecx, DWORD PTR __Myhead$1$[ebp]
; File D:\Program Files\Microsoft Visual Studio\2022\Community\VC\Tools\MSVC\14.43.34808\include\xstring

; 474  :         _CONSTEXPR20 _Bxty() noexcept : _Buf() {} // user-provided, for fancy pointers

  00235	0f 11 47 18	 movups	 XMMWORD PTR [edi+24], xmm0

; 836  :         _My_data._Mysize = 0;

  00239	c7 47 28 00 00
	00 00		 mov	 DWORD PTR [edi+40], 0

; 837  :         _My_data._Myres  = _Small_string_capacity;

  00240	c7 47 2c 0f 00
	00 00		 mov	 DWORD PTR [edi+44], 15	; 0000000fH

; 838  :         _My_data._Activate_SSO_buffer();
; 839  : 
; 840  :         // the _Traits::assign is last so the codegen doesn't think the char write can alias this
; 841  :         _Traits::assign(_My_data._Bx._Buf[0], _Elem());

  00247	c6 47 18 00	 mov	 BYTE PTR [edi+24], 0
; File D:\Program Files\Microsoft Visual Studio\2022\Community\VC\Tools\MSVC\14.43.34808\include\map

; 211  :         return {_Scary->_Insert_node(_Loc._Location, _Inserted), true};

  0024b	50		 push	 eax
  0024c	ff b5 94 fe ff
	ff		 push	 DWORD PTR __Loc$2$[ebp]
; File D:\Program Files\Microsoft Visual Studio\2022\Community\VC\Tools\MSVC\14.43.34808\include\xtree

; 821  :         _Construct_in_place(this->_Ptr->_Left, _Myhead);

  00252	89 08		 mov	 DWORD PTR [eax], ecx
; File D:\Program Files\Microsoft Visual Studio\2022\Community\VC\Tools\MSVC\14.43.34808\include\map

; 211  :         return {_Scary->_Insert_node(_Loc._Location, _Inserted), true};

  00254	ff b5 88 fe ff
	ff		 push	 DWORD PTR __Loc$1$[ebp]
; File D:\Program Files\Microsoft Visual Studio\2022\Community\VC\Tools\MSVC\14.43.34808\include\xtree

; 822  :         _Construct_in_place(this->_Ptr->_Parent, _Myhead);

  0025a	89 48 04	 mov	 DWORD PTR [eax+4], ecx

; 823  :         _Construct_in_place(this->_Ptr->_Right, _Myhead);

  0025d	89 48 08	 mov	 DWORD PTR [eax+8], ecx
; File D:\Program Files\Microsoft Visual Studio\2022\Community\VC\Tools\MSVC\14.43.34808\include\map

; 211  :         return {_Scary->_Insert_node(_Loc._Location, _Inserted), true};

  00260	8b 8d 90 fe ff
	ff		 mov	 ecx, DWORD PTR _rstTokenMap$GSCopy$1$[ebp]
; File D:\Program Files\Microsoft Visual Studio\2022\Community\VC\Tools\MSVC\14.43.34808\include\xtree

; 824  :         this->_Ptr->_Color = _Red;

  00266	66 c7 40 0c 00
	00		 mov	 WORD PTR [eax+12], 0

; 825  :         this->_Ptr->_Isnil = false;
; 826  :     }

  0026c	c6 45 fc 02	 mov	 BYTE PTR __$EHRec$[ebp+8], 2
; File D:\Program Files\Microsoft Visual Studio\2022\Community\VC\Tools\MSVC\14.43.34808\include\utility

; 774  :     _Val         = static_cast<_Other&&>(_New_val);

  00270	c7 85 78 fe ff
	ff 00 00 00 00	 mov	 DWORD PTR $T3[ebp+4], 0
; File D:\Program Files\Microsoft Visual Studio\2022\Community\VC\Tools\MSVC\14.43.34808\include\map

; 211  :         return {_Scary->_Insert_node(_Loc._Location, _Inserted), true};

  0027a	e8 00 00 00 00	 call	 ?_Insert_node@?$_Tree_val@U?$_Tree_simple_types@U?$pair@$$CBV?$basic_string@DU?$char_traits@D@std@@V?$allocator@D@2@@std@@V12@@std@@@std@@@std@@QAEPAU?$_Tree_node@U?$pair@$$CBV?$basic_string@DU?$char_traits@D@std@@V?$allocator@D@2@@std@@V12@@std@@PAX@2@U?$_Tree_id@PAU?$_Tree_node@U?$pair@$$CBV?$basic_string@DU?$char_traits@D@std@@V?$allocator@D@2@@std@@V12@@std@@PAX@std@@@2@QAU32@@Z ; std::_Tree_val<std::_Tree_simple_types<std::pair<std::basic_string<char,std::char_traits<char>,std::allocator<char> > const ,std::basic_string<char,std::char_traits<char>,std::allocator<char> > > > >::_Insert_node
$LN53@LoadTextDa:

; 346  :         return _Try_emplace(_Keyval).first->_Myval.second;

  0027f	8d 48 28	 lea	 ecx, DWORD PTR [eax+40]
; File D:\Program Files\Microsoft Visual Studio\2022\Community\VC\Tools\MSVC\14.43.34808\include\xstring

; 1371 :         if (this == _STD addressof(_Right)) {

  00282	8b 85 7c fe ff
	ff		 mov	 eax, DWORD PTR __Result$1$[ebp]
  00288	3b c8		 cmp	 ecx, eax
  0028a	74 12		 je	 SHORT $LN307@LoadTextDa

; 434  :         return _Myres > _Small_string_capacity;

  0028c	83 78 14 0f	 cmp	 DWORD PTR [eax+20], 15	; 0000000fH

; 1410 :         assign(_Right._Mypair._Myval2._Myptr(), _Right._Mypair._Myval2._Mysize);

  00290	8b 50 10	 mov	 edx, DWORD PTR [eax+16]

; 426  :         if (_Large_mode_engaged()) {

  00293	76 02		 jbe	 SHORT $LN205@LoadTextDa

; 427  :             _Result = _Unfancy(_Bx._Ptr);

  00295	8b 00		 mov	 eax, DWORD PTR [eax]
$LN205@LoadTextDa:

; 1410 :         assign(_Right._Mypair._Myval2._Myptr(), _Right._Mypair._Myval2._Mysize);

  00297	52		 push	 edx
  00298	50		 push	 eax
  00299	e8 00 00 00 00	 call	 ?assign@?$basic_string@DU?$char_traits@D@std@@V?$allocator@D@2@@std@@QAEAAV12@QBDI@Z ; std::basic_string<char,std::char_traits<char>,std::allocator<char> >::assign
$LN307@LoadTextDa:
; File C:\Marty 5.5\Src-Client\Client\EterLib\Util.cpp

; 34   : 	for (DWORD i = 0; i < textFileLoader.GetLineCount(); ++i)

  0029e	8b b5 8c fe ff
	ff		 mov	 esi, DWORD PTR _i$1$[ebp]
$LN2@LoadTextDa:
  002a4	46		 inc	 esi
  002a5	8d 8d 64 fe ff
	ff		 lea	 ecx, DWORD PTR _textFileLoader$[ebp]
  002ab	89 b5 8c fe ff
	ff		 mov	 DWORD PTR _i$1$[ebp], esi
  002b1	e8 00 00 00 00	 call	 ?GetLineCount@CMemoryTextFileLoader@@QAEKXZ ; CMemoryTextFileLoader::GetLineCount
  002b6	3b f0		 cmp	 esi, eax
  002b8	0f 82 22 fe ff
	ff		 jb	 $LL4@LoadTextDa
$LN298@LoadTextDa:

; 48   : 	return true;

  002be	8b bd 9c fe ff
	ff		 mov	 edi, DWORD PTR _stTokenVector$[ebp+4]
  002c4	8b b5 98 fe ff
	ff		 mov	 esi, DWORD PTR _stTokenVector$[ebp]
  002ca	c6 85 ab fe ff
	ff 01		 mov	 BYTE PTR $T6[ebp], 1
$LN13@LoadTextDa:
; File D:\Program Files\Microsoft Visual Studio\2022\Community\VC\Tools\MSVC\14.43.34808\include\vector

; 2075 :         if (_Myfirst) { // destroy and deallocate old array

  002d1	85 f6		 test	 esi, esi
  002d3	0f 84 c7 00 00
	00		 je	 $LN215@LoadTextDa

; 2076 :             _STD _Destroy_range(_Myfirst, _Mylast, _Al);

  002d9	3b f7		 cmp	 esi, edi
; File D:\Program Files\Microsoft Visual Studio\2022\Community\VC\Tools\MSVC\14.43.34808\include\xmemory

; 1098 :         for (; _First != _Last; ++_First) {

  002db	74 54		 je	 SHORT $LN299@LoadTextDa
  002dd	0f 1f 00	 npad	 3
$LL221@LoadTextDa:
; File D:\Program Files\Microsoft Visual Studio\2022\Community\VC\Tools\MSVC\14.43.34808\include\xstring

; 434  :         return _Myres > _Small_string_capacity;

  002e0	8b 4e 14	 mov	 ecx, DWORD PTR [esi+20]
  002e3	83 f9 0f	 cmp	 ecx, 15			; 0000000fH

; 3047 :         if (_My_data._Large_mode_engaged()) {

  002e6	76 2b		 jbe	 SHORT $LN250@LoadTextDa
; File D:\Program Files\Microsoft Visual Studio\2022\Community\VC\Tools\MSVC\14.43.34808\include\xmemory

; 981  :         _STD _Deallocate<_New_alignof<_Ty>>(_Ptr, sizeof(_Ty) * _Count);

  002e8	8b 06		 mov	 eax, DWORD PTR [esi]
; File D:\Program Files\Microsoft Visual Studio\2022\Community\VC\Tools\MSVC\14.43.34808\include\xstring

; 828  :         _Al.deallocate(_Old_ptr, _Capacity + 1); // +1 for null terminator

  002ea	41		 inc	 ecx
; File D:\Program Files\Microsoft Visual Studio\2022\Community\VC\Tools\MSVC\14.43.34808\include\xmemory

; 284  :         if (_Bytes >= _Big_allocation_threshold) {

  002eb	81 f9 00 10 00
	00		 cmp	 ecx, 4096		; 00001000H
  002f1	72 16		 jb	 SHORT $LN261@LoadTextDa

; 205  :     const uintptr_t _Ptr_container   = _Ptr_user[-1];

  002f3	8b 50 fc	 mov	 edx, DWORD PTR [eax-4]
  002f6	83 c1 23	 add	 ecx, 35			; 00000023H

; 206  : 
; 207  :     // If the following asserts, it likely means that we are performing
; 208  :     // an aligned delete on memory coming from an unaligned allocation.
; 209  :     _STL_ASSERT(_Ptr_user[-2] == _Big_allocation_sentinel, "invalid argument");
; 210  : 
; 211  :     // Extra paranoia on aligned allocation/deallocation; ensure _Ptr_container is
; 212  :     // in range [_Min_back_shift, _Non_user_size]
; 213  : #ifdef _DEBUG
; 214  :     constexpr uintptr_t _Min_back_shift = 2 * sizeof(void*);
; 215  : #else // ^^^ defined(_DEBUG) / !defined(_DEBUG) vvv
; 216  :     constexpr uintptr_t _Min_back_shift = sizeof(void*);
; 217  : #endif // ^^^ !defined(_DEBUG) ^^^
; 218  :     const uintptr_t _Back_shift = reinterpret_cast<uintptr_t>(_Ptr) - _Ptr_container;

  002f9	2b c2		 sub	 eax, edx

; 219  :     _STL_VERIFY(_Back_shift >= _Min_back_shift && _Back_shift <= _Non_user_size, "invalid argument");

  002fb	83 c0 fc	 add	 eax, -4			; fffffffcH
  002fe	83 f8 1f	 cmp	 eax, 31			; 0000001fH
  00301	0f 87 d0 00 00
	00		 ja	 $LN284@LoadTextDa

; 220  :     _Ptr = reinterpret_cast<void*>(_Ptr_container);

  00307	8b c2		 mov	 eax, edx
$LN261@LoadTextDa:

; 289  :         ::operator delete(_Ptr, _Bytes);

  00309	51		 push	 ecx
  0030a	50		 push	 eax
  0030b	e8 00 00 00 00	 call	 ??3@YAXPAXI@Z		; operator delete
  00310	83 c4 08	 add	 esp, 8
$LN250@LoadTextDa:
; File D:\Program Files\Microsoft Visual Studio\2022\Community\VC\Tools\MSVC\14.43.34808\include\xstring

; 3054 :         _My_data._Mysize = 0;

  00313	c7 46 10 00 00
	00 00		 mov	 DWORD PTR [esi+16], 0

; 3055 :         _My_data._Myres  = _Small_string_capacity;

  0031a	c7 46 14 0f 00
	00 00		 mov	 DWORD PTR [esi+20], 15	; 0000000fH

; 3056 :         // the _Traits::assign is last so the codegen doesn't think the char write can alias this
; 3057 :         _Traits::assign(_My_data._Bx._Buf[0], _Elem());

  00321	c6 06 00	 mov	 BYTE PTR [esi], 0
; File D:\Program Files\Microsoft Visual Studio\2022\Community\VC\Tools\MSVC\14.43.34808\include\xmemory

; 1098 :         for (; _First != _Last; ++_First) {

  00324	83 c6 18	 add	 esi, 24			; 00000018H
  00327	3b f7		 cmp	 esi, edi
  00329	75 b5		 jne	 SHORT $LL221@LoadTextDa
  0032b	8b b5 98 fe ff
	ff		 mov	 esi, DWORD PTR _stTokenVector$[ebp]
$LN299@LoadTextDa:
; File D:\Program Files\Microsoft Visual Studio\2022\Community\VC\Tools\MSVC\14.43.34808\include\vector

; 2078 :             _Al.deallocate(_Myfirst, static_cast<size_type>(_Myend - _Myfirst));

  00331	8b 8d a0 fe ff
	ff		 mov	 ecx, DWORD PTR _stTokenVector$[ebp+8]
  00337	b8 ab aa aa 2a	 mov	 eax, 715827883		; 2aaaaaabH
  0033c	2b ce		 sub	 ecx, esi
  0033e	f7 e9		 imul	 ecx
  00340	c1 fa 02	 sar	 edx, 2
  00343	8b c2		 mov	 eax, edx
  00345	c1 e8 1f	 shr	 eax, 31			; 0000001fH
  00348	03 c2		 add	 eax, edx
; File D:\Program Files\Microsoft Visual Studio\2022\Community\VC\Tools\MSVC\14.43.34808\include\xmemory

; 981  :         _STD _Deallocate<_New_alignof<_Ty>>(_Ptr, sizeof(_Ty) * _Count);

  0034a	8d 0c 40	 lea	 ecx, DWORD PTR [eax+eax*2]
  0034d	8b c6		 mov	 eax, esi
  0034f	c1 e1 03	 shl	 ecx, 3

; 284  :         if (_Bytes >= _Big_allocation_threshold) {

  00352	81 f9 00 10 00
	00		 cmp	 ecx, 4096		; 00001000H
  00358	72 1e		 jb	 SHORT $LN287@LoadTextDa

; 205  :     const uintptr_t _Ptr_container   = _Ptr_user[-1];

  0035a	8b 70 fc	 mov	 esi, DWORD PTR [eax-4]
  0035d	83 c1 23	 add	 ecx, 35			; 00000023H
  00360	2b c6		 sub	 eax, esi

; 219  :     _STL_VERIFY(_Back_shift >= _Min_back_shift && _Back_shift <= _Non_user_size, "invalid argument");

  00362	83 c0 fc	 add	 eax, -4			; fffffffcH
  00365	83 f8 1f	 cmp	 eax, 31			; 0000001fH
  00368	77 6d		 ja	 SHORT $LN284@LoadTextDa
  0036a	eb 0c		 jmp	 SHORT $LN287@LoadTextDa
$LN294@LoadTextDa:
  0036c	c6 85 ab fe ff
	ff 00		 mov	 BYTE PTR $T6[ebp], 0
  00373	e9 59 ff ff ff	 jmp	 $LN13@LoadTextDa
$LN287@LoadTextDa:

; 289  :         ::operator delete(_Ptr, _Bytes);

  00378	51		 push	 ecx
  00379	56		 push	 esi
  0037a	e8 00 00 00 00	 call	 ??3@YAXPAXI@Z		; operator delete
  0037f	83 c4 08	 add	 esp, 8
; File D:\Program Files\Microsoft Visual Studio\2022\Community\VC\Tools\MSVC\14.43.34808\include\vector

; 2080 :             _Myfirst = nullptr;

  00382	c7 85 98 fe ff
	ff 00 00 00 00	 mov	 DWORD PTR _stTokenVector$[ebp], 0

; 2081 :             _Mylast  = nullptr;

  0038c	c7 85 9c fe ff
	ff 00 00 00 00	 mov	 DWORD PTR _stTokenVector$[ebp+4], 0

; 2082 :             _Myend   = nullptr;

  00396	c7 85 a0 fe ff
	ff 00 00 00 00	 mov	 DWORD PTR _stTokenVector$[ebp+8], 0
$LN215@LoadTextDa:
; File C:\Marty 5.5\Src-Client\Client\EterLib\Util.cpp

; 48   : 	return true;

  003a0	8d 8d 64 fe ff
	ff		 lea	 ecx, DWORD PTR _textFileLoader$[ebp]
  003a6	e8 00 00 00 00	 call	 ??1CMemoryTextFileLoader@@UAE@XZ ; CMemoryTextFileLoader::~CMemoryTextFileLoader
$LN12@LoadTextDa:
  003ab	8d 8d ac fe ff
	ff		 lea	 ecx, DWORD PTR _File$[ebp]
  003b1	e8 00 00 00 00	 call	 ??1CMappedFile@@UAE@XZ	; CMappedFile::~CMappedFile
  003b6	8a 85 ab fe ff
	ff		 mov	 al, BYTE PTR $T6[ebp]

; 49   : }

  003bc	8b 4d f4	 mov	 ecx, DWORD PTR __$EHRec$[ebp]
  003bf	64 89 0d 00 00
	00 00		 mov	 DWORD PTR fs:0, ecx
  003c6	59		 pop	 ecx
  003c7	5f		 pop	 edi
  003c8	5e		 pop	 esi
  003c9	8b 4d f0	 mov	 ecx, DWORD PTR __$ArrayPad$[ebp]
  003cc	33 cd		 xor	 ecx, ebp
  003ce	e8 00 00 00 00	 call	 @__security_check_cookie@4
  003d3	8b e5		 mov	 esp, ebp
  003d5	5d		 pop	 ebp
  003d6	c3		 ret	 0
$LN284@LoadTextDa:
; File D:\Program Files\Microsoft Visual Studio\2022\Community\VC\Tools\MSVC\14.43.34808\include\xmemory

; 219  :     _STL_VERIFY(_Back_shift >= _Min_back_shift && _Back_shift <= _Non_user_size, "invalid argument");

  003d7	e8 00 00 00 00	 call	 __invalid_parameter_noinfo_noreturn
$LN295@LoadTextDa:
; File D:\Program Files\Microsoft Visual Studio\2022\Community\VC\Tools\MSVC\14.43.34808\include\xtree

; 1639 :             _Throw_tree_length_error();

  003dc	e8 00 00 00 00	 call	 ?_Throw_tree_length_error@std@@YAXXZ ; std::_Throw_tree_length_error
$LN309@LoadTextDa:
  003e1	cc		 int	 3
_TEXT	ENDS
;	COMDAT text$x
text$x	SEGMENT
__unwindfunclet$?LoadTextData@@YA_NPBDAAV?$map@V?$basic_string@DU?$char_traits@D@std@@V?$allocator@D@2@@std@@V12@U?$less@V?$basic_string@DU?$char_traits@D@std@@V?$allocator@D@2@@std@@@2@V?$allocator@U?$pair@$$CBV?$basic_string@DU?$char_traits@D@std@@V?$allocator@D@2@@std@@V12@@std@@@2@@std@@@Z$0:
  00000	8d 8d ac fe ff
	ff		 lea	 ecx, DWORD PTR _File$[ebp]
  00006	e9 00 00 00 00	 jmp	 ??1CMappedFile@@UAE@XZ	; CMappedFile::~CMappedFile
__unwindfunclet$?LoadTextData@@YA_NPBDAAV?$map@V?$basic_string@DU?$char_traits@D@std@@V?$allocator@D@2@@std@@V12@U?$less@V?$basic_string@DU?$char_traits@D@std@@V?$allocator@D@2@@std@@@2@V?$allocator@U?$pair@$$CBV?$basic_string@DU?$char_traits@D@std@@V?$allocator@D@2@@std@@V12@@std@@@2@@std@@@Z$1:
  0000b	8d 8d 64 fe ff
	ff		 lea	 ecx, DWORD PTR _textFileLoader$[ebp]
  00011	e9 00 00 00 00	 jmp	 ??1CMemoryTextFileLoader@@UAE@XZ ; CMemoryTextFileLoader::~CMemoryTextFileLoader
__unwindfunclet$?LoadTextData@@YA_NPBDAAV?$map@V?$basic_string@DU?$char_traits@D@std@@V?$allocator@D@2@@std@@V12@U?$less@V?$basic_string@DU?$char_traits@D@std@@V?$allocator@D@2@@std@@@2@V?$allocator@U?$pair@$$CBV?$basic_string@DU?$char_traits@D@std@@V?$allocator@D@2@@std@@V12@@std@@@2@@std@@@Z$2:
  00016	8d 8d 98 fe ff
	ff		 lea	 ecx, DWORD PTR _stTokenVector$[ebp]
  0001c	e9 00 00 00 00	 jmp	 ??1?$vector@V?$basic_string@DU?$char_traits@D@std@@V?$allocator@D@2@@std@@V?$allocator@V?$basic_string@DU?$char_traits@D@std@@V?$allocator@D@2@@std@@@2@@std@@QAE@XZ ; std::vector<std::basic_string<char,std::char_traits<char>,std::allocator<char> >,std::allocator<std::basic_string<char,std::char_traits<char>,std::allocator<char> > > >::~vector<std::basic_string<char,std::char_traits<char>,std::allocator<char> >,std::allocator<std::basic_string<char,std::char_traits<char>,std::allocator<char> > > >
__unwindfunclet$?LoadTextData@@YA_NPBDAAV?$map@V?$basic_string@DU?$char_traits@D@std@@V?$allocator@D@2@@std@@V12@U?$less@V?$basic_string@DU?$char_traits@D@std@@V?$allocator@D@2@@std@@@2@V?$allocator@U?$pair@$$CBV?$basic_string@DU?$char_traits@D@std@@V?$allocator@D@2@@std@@V12@@std@@@2@@std@@@Z$5:
  00021	8d 8d 74 fe ff
	ff		 lea	 ecx, DWORD PTR $T3[ebp]
  00027	e9 00 00 00 00	 jmp	 ??1?$_Alloc_construct_ptr@V?$allocator@U?$_Tree_node@U?$pair@$$CBV?$basic_string@DU?$char_traits@D@std@@V?$allocator@D@2@@std@@V12@@std@@PAX@std@@@std@@@std@@QAE@XZ ; std::_Alloc_construct_ptr<std::allocator<std::_Tree_node<std::pair<std::basic_string<char,std::char_traits<char>,std::allocator<char> > const ,std::basic_string<char,std::char_traits<char>,std::allocator<char> > >,void *> > >::~_Alloc_construct_ptr<std::allocator<std::_Tree_node<std::pair<std::basic_string<char,std::char_traits<char>,std::allocator<char> > const ,std::basic_string<char,std::char_traits<char>,std::allocator<char> > >,void *> > >
__unwindfunclet$?LoadTextData@@YA_NPBDAAV?$map@V?$basic_string@DU?$char_traits@D@std@@V?$allocator@D@2@@std@@V12@U?$less@V?$basic_string@DU?$char_traits@D@std@@V?$allocator@D@2@@std@@@2@V?$allocator@U?$pair@$$CBV?$basic_string@DU?$char_traits@D@std@@V?$allocator@D@2@@std@@V12@@std@@@2@@std@@@Z$4:
  0002c	8d 8d 74 fe ff
	ff		 lea	 ecx, DWORD PTR $T3[ebp]
  00032	e9 00 00 00 00	 jmp	 ??1?$_Tree_temp_node_alloc@V?$allocator@U?$_Tree_node@U?$pair@$$CBV?$basic_string@DU?$char_traits@D@std@@V?$allocator@D@2@@std@@V12@@std@@PAX@std@@@std@@@std@@QAE@XZ
  00037	cc		 int	 3
  00038	cc		 int	 3
  00039	cc		 int	 3
  0003a	cc		 int	 3
  0003b	cc		 int	 3
__ehhandler$?LoadTextData@@YA_NPBDAAV?$map@V?$basic_string@DU?$char_traits@D@std@@V?$allocator@D@2@@std@@V12@U?$less@V?$basic_string@DU?$char_traits@D@std@@V?$allocator@D@2@@std@@@2@V?$allocator@U?$pair@$$CBV?$basic_string@DU?$char_traits@D@std@@V?$allocator@D@2@@std@@V12@@std@@@2@@std@@@Z:
  0003c	90		 npad	 1
  0003d	90		 npad	 1
  0003e	8b 54 24 08	 mov	 edx, DWORD PTR [esp+8]
  00042	8d 42 0c	 lea	 eax, DWORD PTR [edx+12]
  00045	8b 8a 64 fe ff
	ff		 mov	 ecx, DWORD PTR [edx-412]
  0004b	33 c8		 xor	 ecx, eax
  0004d	e8 00 00 00 00	 call	 @__security_check_cookie@4
  00052	8b 4a fc	 mov	 ecx, DWORD PTR [edx-4]
  00055	33 c8		 xor	 ecx, eax
  00057	e8 00 00 00 00	 call	 @__security_check_cookie@4
  0005c	b8 00 00 00 00	 mov	 eax, OFFSET __ehfuncinfo$?LoadTextData@@YA_NPBDAAV?$map@V?$basic_string@DU?$char_traits@D@std@@V?$allocator@D@2@@std@@V12@U?$less@V?$basic_string@DU?$char_traits@D@std@@V?$allocator@D@2@@std@@@2@V?$allocator@U?$pair@$$CBV?$basic_string@DU?$char_traits@D@std@@V?$allocator@D@2@@std@@V12@@std@@@2@@std@@@Z
  00061	e9 00 00 00 00	 jmp	 ___CxxFrameHandler3
text$x	ENDS
?LoadTextData@@YA_NPBDAAV?$map@V?$basic_string@DU?$char_traits@D@std@@V?$allocator@D@2@@std@@V12@U?$less@V?$basic_string@DU?$char_traits@D@std@@V?$allocator@D@2@@std@@@2@V?$allocator@U?$pair@$$CBV?$basic_string@DU?$char_traits@D@std@@V?$allocator@D@2@@std@@V12@@std@@@2@@std@@@Z ENDP ; LoadTextData
; Function compile flags: /Ogtp
; File C:\Marty 5.5\Src-Client\Client\EterLib\Util.cpp
; File D:\Windows Kits\10\Include\10.0.26100.0\ucrt\stdio.h
; File C:\Marty 5.5\Src-Client\Client\EterLib\Util.cpp
; File D:\Windows Kits\10\Include\10.0.26100.0\ucrt\stdio.h
; File C:\Marty 5.5\Src-Client\Client\EterLib\Util.cpp
;	COMDAT ?PrintfTabs@@YAXPAU_iobuf@@HPBDZZ
_TEXT	SEGMENT
_File$ = 8						; size = 4
_iTabCount$ = 12					; size = 4
_c_szString$ = 16					; size = 4
?PrintfTabs@@YAXPAU_iobuf@@HPBDZZ PROC			; PrintfTabs, COMDAT

; 7    : {

  00000	55		 push	 ebp
  00001	8b ec		 mov	 ebp, esp
  00003	56		 push	 esi
  00004	57		 push	 edi
; File D:\Windows Kits\10\Include\10.0.26100.0\ucrt\stdio.h

; 1392 :         int const _Result = __stdio_common_vsprintf(

  00005	8d 45 14	 lea	 eax, DWORD PTR _c_szString$[ebp+4]
  00008	50		 push	 eax
  00009	6a 00		 push	 0
  0000b	ff 75 10	 push	 DWORD PTR _c_szString$[ebp]
  0000e	68 00 04 00 00	 push	 1024			; 00000400H
  00013	68 00 00 00 00	 push	 OFFSET ?szBuf@?1??PrintfTabs@@YAXPAU_iobuf@@HPBDZZ@4PADA
  00018	e8 00 00 00 00	 call	 ___local_stdio_printf_options
  0001d	8b 08		 mov	 ecx, DWORD PTR [eax]
  0001f	ff 70 04	 push	 DWORD PTR [eax+4]
  00022	83 c9 01	 or	 ecx, 1
  00025	51		 push	 ecx
  00026	e8 00 00 00 00	 call	 ___stdio_common_vsprintf
; File C:\Marty 5.5\Src-Client\Client\EterLib\Util.cpp

; 15   : 	for (int i = 0; i < iTabCount; ++i)

  0002b	8b 75 0c	 mov	 esi, DWORD PTR _iTabCount$[ebp]
; File D:\Windows Kits\10\Include\10.0.26100.0\ucrt\stdio.h

; 1392 :         int const _Result = __stdio_common_vsprintf(

  0002e	83 c4 1c	 add	 esp, 28			; 0000001cH
; File C:\Marty 5.5\Src-Client\Client\EterLib\Util.cpp

; 15   : 	for (int i = 0; i < iTabCount; ++i)

  00031	8b 7d 08	 mov	 edi, DWORD PTR _File$[ebp]
  00034	85 f6		 test	 esi, esi
  00036	7e 1b		 jle	 SHORT $LN3@PrintfTabs
  00038	0f 1f 84 00 00
	00 00 00	 npad	 8
$LL4@PrintfTabs:

; 16   : 		fprintf(File, "    ");

  00040	68 00 00 00 00	 push	 OFFSET ??_C@_04PFOHOKJK@?5?5?5?5@
  00045	57		 push	 edi
  00046	e8 00 00 00 00	 call	 _fprintf
  0004b	83 c4 08	 add	 esp, 8
  0004e	83 ee 01	 sub	 esi, 1
  00051	75 ed		 jne	 SHORT $LL4@PrintfTabs
$LN3@PrintfTabs:

; 17   : 
; 18   : 	fprintf(File, szBuf);

  00053	68 00 00 00 00	 push	 OFFSET ?szBuf@?1??PrintfTabs@@YAXPAU_iobuf@@HPBDZZ@4PADA
  00058	57		 push	 edi
  00059	e8 00 00 00 00	 call	 _fprintf
  0005e	83 c4 08	 add	 esp, 8
  00061	5f		 pop	 edi
  00062	5e		 pop	 esi

; 19   : }

  00063	5d		 pop	 ebp
  00064	c3		 ret	 0
?PrintfTabs@@YAXPAU_iobuf@@HPBDZZ ENDP			; PrintfTabs
_TEXT	ENDS
; Function compile flags: /Ogtp
; File D:\Program Files\Microsoft Visual Studio\2022\Community\VC\Tools\MSVC\14.43.34808\include\vector
;	COMDAT ?_Xlength@?$vector@V?$basic_string@DU?$char_traits@D@std@@V?$allocator@D@2@@std@@V?$allocator@V?$basic_string@DU?$char_traits@D@std@@V?$allocator@D@2@@std@@@2@@std@@CAXXZ
_TEXT	SEGMENT
?_Xlength@?$vector@V?$basic_string@DU?$char_traits@D@std@@V?$allocator@D@2@@std@@V?$allocator@V?$basic_string@DU?$char_traits@D@std@@V?$allocator@D@2@@std@@@2@@std@@CAXXZ PROC ; std::vector<std::basic_string<char,std::char_traits<char>,std::allocator<char> >,std::allocator<std::basic_string<char,std::char_traits<char>,std::allocator<char> > > >::_Xlength, COMDAT

; 2169 :         _Xlength_error("vector too long");

  00000	68 00 00 00 00	 push	 OFFSET ??_C@_0BA@FOIKENOD@vector?5too?5long@
  00005	e8 00 00 00 00	 call	 ?_Xlength_error@std@@YAXPBD@Z ; std::_Xlength_error
$LN3@Xlength:
  0000a	cc		 int	 3
?_Xlength@?$vector@V?$basic_string@DU?$char_traits@D@std@@V?$allocator@D@2@@std@@V?$allocator@V?$basic_string@DU?$char_traits@D@std@@V?$allocator@D@2@@std@@@2@@std@@CAXXZ ENDP ; std::vector<std::basic_string<char,std::char_traits<char>,std::allocator<char> >,std::allocator<std::basic_string<char,std::char_traits<char>,std::allocator<char> > > >::_Xlength
_TEXT	ENDS
; Function compile flags: /Ogtp
; File D:\Program Files\Microsoft Visual Studio\2022\Community\VC\Tools\MSVC\14.43.34808\include\vector
; File D:\Program Files\Microsoft Visual Studio\2022\Community\VC\Tools\MSVC\14.43.34808\include\xmemory
; File D:\Program Files\Microsoft Visual Studio\2022\Community\VC\Tools\MSVC\14.43.34808\include\vector
; File D:\Program Files\Microsoft Visual Studio\2022\Community\VC\Tools\MSVC\14.43.34808\include\xmemory
; File D:\Program Files\Microsoft Visual Studio\2022\Community\VC\Tools\MSVC\14.43.34808\include\vector
;	COMDAT ?_Tidy@?$vector@V?$basic_string@DU?$char_traits@D@std@@V?$allocator@D@2@@std@@V?$allocator@V?$basic_string@DU?$char_traits@D@std@@V?$allocator@D@2@@std@@@2@@std@@AAEXXZ
_TEXT	SEGMENT
?_Tidy@?$vector@V?$basic_string@DU?$char_traits@D@std@@V?$allocator@D@2@@std@@V?$allocator@V?$basic_string@DU?$char_traits@D@std@@V?$allocator@D@2@@std@@@2@@std@@AAEXXZ PROC ; std::vector<std::basic_string<char,std::char_traits<char>,std::allocator<char> >,std::allocator<std::basic_string<char,std::char_traits<char>,std::allocator<char> > > >::_Tidy, COMDAT
; _this$ = ecx

; 2066 :     _CONSTEXPR20 void _Tidy() noexcept { // free all storage

  00000	56		 push	 esi
  00001	8b f1		 mov	 esi, ecx

; 2067 :         auto& _Al         = _Getal();
; 2068 :         auto& _My_data    = _Mypair._Myval2;
; 2069 :         pointer& _Myfirst = _My_data._Myfirst;
; 2070 :         pointer& _Mylast  = _My_data._Mylast;
; 2071 :         pointer& _Myend   = _My_data._Myend;
; 2072 : 
; 2073 :         _My_data._Orphan_all();
; 2074 : 
; 2075 :         if (_Myfirst) { // destroy and deallocate old array

  00003	8b 06		 mov	 eax, DWORD PTR [esi]
  00005	85 c0		 test	 eax, eax
  00007	74 65		 je	 SHORT $LN2@Tidy

; 2076 :             _STD _Destroy_range(_Myfirst, _Mylast, _Al);

  00009	57		 push	 edi
  0000a	56		 push	 esi
  0000b	ff 76 04	 push	 DWORD PTR [esi+4]
  0000e	50		 push	 eax
  0000f	e8 00 00 00 00	 call	 ??$_Destroy_range@V?$allocator@V?$basic_string@DU?$char_traits@D@std@@V?$allocator@D@2@@std@@@std@@@std@@YAXPAV?$basic_string@DU?$char_traits@D@std@@V?$allocator@D@2@@0@QAV10@AAV?$allocator@V?$basic_string@DU?$char_traits@D@std@@V?$allocator@D@2@@std@@@0@@Z ; std::_Destroy_range<std::allocator<std::basic_string<char,std::char_traits<char>,std::allocator<char> > > >

; 2077 :             _ASAN_VECTOR_REMOVE;
; 2078 :             _Al.deallocate(_Myfirst, static_cast<size_type>(_Myend - _Myfirst));

  00014	8b 4e 08	 mov	 ecx, DWORD PTR [esi+8]
  00017	b8 ab aa aa 2a	 mov	 eax, 715827883		; 2aaaaaabH
  0001c	8b 3e		 mov	 edi, DWORD PTR [esi]
  0001e	83 c4 0c	 add	 esp, 12			; 0000000cH
  00021	2b cf		 sub	 ecx, edi
  00023	f7 e9		 imul	 ecx
  00025	c1 fa 02	 sar	 edx, 2
  00028	8b c2		 mov	 eax, edx
  0002a	c1 e8 1f	 shr	 eax, 31			; 0000001fH
  0002d	03 c2		 add	 eax, edx
; File D:\Program Files\Microsoft Visual Studio\2022\Community\VC\Tools\MSVC\14.43.34808\include\xmemory

; 981  :         _STD _Deallocate<_New_alignof<_Ty>>(_Ptr, sizeof(_Ty) * _Count);

  0002f	8d 0c 40	 lea	 ecx, DWORD PTR [eax+eax*2]
  00032	c1 e1 03	 shl	 ecx, 3

; 284  :         if (_Bytes >= _Big_allocation_threshold) {

  00035	81 f9 00 10 00
	00		 cmp	 ecx, 4096		; 00001000H
  0003b	72 12		 jb	 SHORT $LN21@Tidy

; 205  :     const uintptr_t _Ptr_container   = _Ptr_user[-1];

  0003d	8b 57 fc	 mov	 edx, DWORD PTR [edi-4]
  00040	83 c1 23	 add	 ecx, 35			; 00000023H

; 206  : 
; 207  :     // If the following asserts, it likely means that we are performing
; 208  :     // an aligned delete on memory coming from an unaligned allocation.
; 209  :     _STL_ASSERT(_Ptr_user[-2] == _Big_allocation_sentinel, "invalid argument");
; 210  : 
; 211  :     // Extra paranoia on aligned allocation/deallocation; ensure _Ptr_container is
; 212  :     // in range [_Min_back_shift, _Non_user_size]
; 213  : #ifdef _DEBUG
; 214  :     constexpr uintptr_t _Min_back_shift = 2 * sizeof(void*);
; 215  : #else // ^^^ defined(_DEBUG) / !defined(_DEBUG) vvv
; 216  :     constexpr uintptr_t _Min_back_shift = sizeof(void*);
; 217  : #endif // ^^^ !defined(_DEBUG) ^^^
; 218  :     const uintptr_t _Back_shift = reinterpret_cast<uintptr_t>(_Ptr) - _Ptr_container;

  00043	2b fa		 sub	 edi, edx

; 219  :     _STL_VERIFY(_Back_shift >= _Min_back_shift && _Back_shift <= _Non_user_size, "invalid argument");

  00045	8d 47 fc	 lea	 eax, DWORD PTR [edi-4]
  00048	83 f8 1f	 cmp	 eax, 31			; 0000001fH
  0004b	77 23		 ja	 SHORT $LN18@Tidy

; 220  :     _Ptr = reinterpret_cast<void*>(_Ptr_container);

  0004d	8b fa		 mov	 edi, edx
$LN21@Tidy:

; 289  :         ::operator delete(_Ptr, _Bytes);

  0004f	51		 push	 ecx
  00050	57		 push	 edi
  00051	e8 00 00 00 00	 call	 ??3@YAXPAXI@Z		; operator delete
  00056	83 c4 08	 add	 esp, 8
; File D:\Program Files\Microsoft Visual Studio\2022\Community\VC\Tools\MSVC\14.43.34808\include\vector

; 2080 :             _Myfirst = nullptr;

  00059	c7 06 00 00 00
	00		 mov	 DWORD PTR [esi], 0

; 2081 :             _Mylast  = nullptr;

  0005f	c7 46 04 00 00
	00 00		 mov	 DWORD PTR [esi+4], 0

; 2082 :             _Myend   = nullptr;

  00066	c7 46 08 00 00
	00 00		 mov	 DWORD PTR [esi+8], 0
  0006d	5f		 pop	 edi
$LN2@Tidy:

; 2084 :     }

  0006e	5e		 pop	 esi
  0006f	c3		 ret	 0
$LN18@Tidy:
; File D:\Program Files\Microsoft Visual Studio\2022\Community\VC\Tools\MSVC\14.43.34808\include\xmemory

; 219  :     _STL_VERIFY(_Back_shift >= _Min_back_shift && _Back_shift <= _Non_user_size, "invalid argument");

  00070	e8 00 00 00 00	 call	 __invalid_parameter_noinfo_noreturn
$LN28@Tidy:
  00075	cc		 int	 3
?_Tidy@?$vector@V?$basic_string@DU?$char_traits@D@std@@V?$allocator@D@2@@std@@V?$allocator@V?$basic_string@DU?$char_traits@D@std@@V?$allocator@D@2@@std@@@2@@std@@AAEXXZ ENDP ; std::vector<std::basic_string<char,std::char_traits<char>,std::allocator<char> >,std::allocator<std::basic_string<char,std::char_traits<char>,std::allocator<char> > > >::_Tidy
_TEXT	ENDS
; Function compile flags: /Ogtp
; File D:\Program Files\Microsoft Visual Studio\2022\Community\VC\Tools\MSVC\14.43.34808\include\vector
;	COMDAT ??1?$vector@V?$basic_string@DU?$char_traits@D@std@@V?$allocator@D@2@@std@@V?$allocator@V?$basic_string@DU?$char_traits@D@std@@V?$allocator@D@2@@std@@@2@@std@@QAE@XZ
_TEXT	SEGMENT
??1?$vector@V?$basic_string@DU?$char_traits@D@std@@V?$allocator@D@2@@std@@V?$allocator@V?$basic_string@DU?$char_traits@D@std@@V?$allocator@D@2@@std@@@2@@std@@QAE@XZ PROC ; std::vector<std::basic_string<char,std::char_traits<char>,std::allocator<char> >,std::allocator<std::basic_string<char,std::char_traits<char>,std::allocator<char> > > >::~vector<std::basic_string<char,std::char_traits<char>,std::allocator<char> >,std::allocator<std::basic_string<char,std::char_traits<char>,std::allocator<char> > > >, COMDAT
; _this$ = ecx

; 815  :         _Tidy();

  00000	e9 00 00 00 00	 jmp	 ?_Tidy@?$vector@V?$basic_string@DU?$char_traits@D@std@@V?$allocator@D@2@@std@@V?$allocator@V?$basic_string@DU?$char_traits@D@std@@V?$allocator@D@2@@std@@@2@@std@@AAEXXZ ; std::vector<std::basic_string<char,std::char_traits<char>,std::allocator<char> >,std::allocator<std::basic_string<char,std::char_traits<char>,std::allocator<char> > > >::_Tidy
??1?$vector@V?$basic_string@DU?$char_traits@D@std@@V?$allocator@D@2@@std@@V?$allocator@V?$basic_string@DU?$char_traits@D@std@@V?$allocator@D@2@@std@@@2@@std@@QAE@XZ ENDP ; std::vector<std::basic_string<char,std::char_traits<char>,std::allocator<char> >,std::allocator<std::basic_string<char,std::char_traits<char>,std::allocator<char> > > >::~vector<std::basic_string<char,std::char_traits<char>,std::allocator<char> >,std::allocator<std::basic_string<char,std::char_traits<char>,std::allocator<char> > > >
_TEXT	ENDS
; Function compile flags: /Ogtp
; File D:\Program Files\Microsoft Visual Studio\2022\Community\VC\Tools\MSVC\14.43.34808\include\xmemory
;	COMDAT ??$_Allocate_manually_vector_aligned@U_Default_allocate_traits@std@@@std@@YAPAXI@Z
_TEXT	SEGMENT
__Bytes$ = 8						; size = 4
??$_Allocate_manually_vector_aligned@U_Default_allocate_traits@std@@@std@@YAPAXI@Z PROC ; std::_Allocate_manually_vector_aligned<std::_Default_allocate_traits>, COMDAT

; 182  : __declspec(allocator) void* _Allocate_manually_vector_aligned(const size_t _Bytes) {

  00000	55		 push	 ebp
  00001	8b ec		 mov	 ebp, esp

; 183  :     // allocate _Bytes manually aligned to at least _Big_allocation_alignment
; 184  :     const size_t _Block_size = _Non_user_size + _Bytes;

  00003	8b 45 08	 mov	 eax, DWORD PTR __Bytes$[ebp]
  00006	8d 48 23	 lea	 ecx, DWORD PTR [eax+35]

; 185  :     if (_Block_size <= _Bytes) {

  00009	3b c8		 cmp	 ecx, eax
  0000b	0f 86 00 00 00
	00		 jbe	 ?_Throw_bad_array_new_length@std@@YAXXZ ; std::_Throw_bad_array_new_length

; 136  :         return ::operator new(_Bytes);

  00011	51		 push	 ecx
  00012	e8 00 00 00 00	 call	 ??2@YAPAXI@Z		; operator new

; 186  :         _Throw_bad_array_new_length(); // add overflow
; 187  :     }
; 188  : 
; 189  :     const uintptr_t _Ptr_container = reinterpret_cast<uintptr_t>(_Traits::_Allocate(_Block_size));

  00017	8b c8		 mov	 ecx, eax

; 136  :         return ::operator new(_Bytes);

  00019	83 c4 04	 add	 esp, 4

; 190  :     _STL_VERIFY(_Ptr_container != 0, "invalid argument"); // validate even in release since we're doing p[-1]

  0001c	85 c9		 test	 ecx, ecx
  0001e	74 0b		 je	 SHORT $LN7@Allocate_m

; 191  :     void* const _Ptr = reinterpret_cast<void*>((_Ptr_container + _Non_user_size) & ~(_Big_allocation_alignment - 1));

  00020	8d 41 23	 lea	 eax, DWORD PTR [ecx+35]
  00023	83 e0 e0	 and	 eax, -32		; ffffffe0H

; 192  :     static_cast<uintptr_t*>(_Ptr)[-1] = _Ptr_container;

  00026	89 48 fc	 mov	 DWORD PTR [eax-4], ecx

; 193  : 
; 194  : #ifdef _DEBUG
; 195  :     static_cast<uintptr_t*>(_Ptr)[-2] = _Big_allocation_sentinel;
; 196  : #endif // defined(_DEBUG)
; 197  :     return _Ptr;
; 198  : }

  00029	5d		 pop	 ebp
  0002a	c3		 ret	 0
$LN7@Allocate_m:

; 190  :     _STL_VERIFY(_Ptr_container != 0, "invalid argument"); // validate even in release since we're doing p[-1]

  0002b	e9 00 00 00 00	 jmp	 __invalid_parameter_noinfo_noreturn
??$_Allocate_manually_vector_aligned@U_Default_allocate_traits@std@@@std@@YAPAXI@Z ENDP ; std::_Allocate_manually_vector_aligned<std::_Default_allocate_traits>
_TEXT	ENDS
; Function compile flags: /Ogtp
; File D:\Program Files\Microsoft Visual Studio\2022\Community\VC\Tools\MSVC\14.43.34808\include\xstring
; File D:\Program Files\Microsoft Visual Studio\2022\Community\VC\Tools\MSVC\14.43.34808\include\__msvc_string_view.hpp
; File D:\Program Files\Microsoft Visual Studio\2022\Community\VC\Tools\MSVC\14.43.34808\include\xstring
; File D:\Program Files\Microsoft Visual Studio\2022\Community\VC\Tools\MSVC\14.43.34808\include\__msvc_string_view.hpp
; File D:\Program Files\Microsoft Visual Studio\2022\Community\VC\Tools\MSVC\14.43.34808\include\xstring
; File D:\Program Files\Microsoft Visual Studio\2022\Community\VC\Tools\MSVC\14.43.34808\include\__msvc_string_view.hpp
; File D:\Program Files\Microsoft Visual Studio\2022\Community\VC\Tools\MSVC\14.43.34808\include\xstring
; File D:\Program Files\Microsoft Visual Studio\2022\Community\VC\Tools\MSVC\14.43.34808\include\xmemory
; File D:\Program Files\Microsoft Visual Studio\2022\Community\VC\Tools\MSVC\14.43.34808\include\xstring
; File D:\Program Files\Microsoft Visual Studio\2022\Community\VC\Tools\MSVC\14.43.34808\include\xmemory
; File D:\Program Files\Microsoft Visual Studio\2022\Community\VC\Tools\MSVC\14.43.34808\include\xstring
; File D:\Program Files\Microsoft Visual Studio\2022\Community\VC\Tools\MSVC\14.43.34808\include\__msvc_string_view.hpp
; File D:\Program Files\Microsoft Visual Studio\2022\Community\VC\Tools\MSVC\14.43.34808\include\xstring
; File D:\Program Files\Microsoft Visual Studio\2022\Community\VC\Tools\MSVC\14.43.34808\include\__msvc_string_view.hpp
; File D:\Program Files\Microsoft Visual Studio\2022\Community\VC\Tools\MSVC\14.43.34808\include\xstring
; File D:\Program Files\Microsoft Visual Studio\2022\Community\VC\Tools\MSVC\14.43.34808\include\__msvc_string_view.hpp
; File D:\Program Files\Microsoft Visual Studio\2022\Community\VC\Tools\MSVC\14.43.34808\include\xstring
; File D:\Program Files\Microsoft Visual Studio\2022\Community\VC\Tools\MSVC\14.43.34808\include\__msvc_string_view.hpp
; File D:\Program Files\Microsoft Visual Studio\2022\Community\VC\Tools\MSVC\14.43.34808\include\xstring
;	COMDAT ??$_Construct@$00PBD@?$basic_string@DU?$char_traits@D@std@@V?$allocator@D@2@@std@@AAEXQBDI@Z
_TEXT	SEGMENT
__Arg$ = 8						; size = 4
__Count$ = 12						; size = 4
$T1 = 12						; size = 4
??$_Construct@$00PBD@?$basic_string@DU?$char_traits@D@std@@V?$allocator@D@2@@std@@AAEXQBDI@Z PROC ; std::basic_string<char,std::char_traits<char>,std::allocator<char> >::_Construct<1,char const *>, COMDAT
; _this$ = ecx

; 847  :     _CONSTEXPR20 void _Construct(const _Char_or_ptr _Arg, _CRT_GUARDOVERFLOW const size_type _Count) {

  00000	55		 push	 ebp
  00001	8b ec		 mov	 ebp, esp
  00003	53		 push	 ebx
  00004	56		 push	 esi

; 848  :         auto& _My_data = _Mypair._Myval2;
; 849  :         _STL_INTERNAL_CHECK(!_My_data._Large_mode_engaged());
; 850  : 
; 851  :         if constexpr (_Strat == _Construct_strategy::_From_char) {
; 852  :             _STL_INTERNAL_STATIC_ASSERT(is_same_v<_Char_or_ptr, _Elem>);
; 853  :         } else {
; 854  :             _STL_INTERNAL_STATIC_ASSERT(_Is_elem_cptr<_Char_or_ptr>::value);
; 855  :         }
; 856  : 
; 857  :         if (_Count > max_size()) {

  00005	8b 75 0c	 mov	 esi, DWORD PTR __Count$[ebp]
  00008	8b d9		 mov	 ebx, ecx
  0000a	81 fe ff ff ff
	7f		 cmp	 esi, 2147483647		; 7fffffffH
  00010	0f 87 95 00 00
	00		 ja	 $LN40@Construct

; 859  :         }
; 860  : 
; 861  :         auto& _Al       = _Getal();
; 862  :         auto&& _Alproxy = _GET_PROXY_ALLOCATOR(_Alty, _Al);
; 863  :         _Container_proxy_ptr<_Alty> _Proxy(_Alproxy, _My_data);
; 864  : 
; 865  :         if (_Count <= _Small_string_capacity) {

  00016	83 fe 0f	 cmp	 esi, 15			; 0000000fH
  00019	77 21		 ja	 SHORT $LN3@Construct
; File D:\Program Files\Microsoft Visual Studio\2022\Community\VC\Tools\MSVC\14.43.34808\include\__msvc_string_view.hpp

; 95   :         _CSTD memcpy(_First1, _First2, _Count * sizeof(_Elem));

  0001b	56		 push	 esi
  0001c	ff 75 08	 push	 DWORD PTR __Arg$[ebp]
; File D:\Program Files\Microsoft Visual Studio\2022\Community\VC\Tools\MSVC\14.43.34808\include\xstring

; 866  :             _My_data._Mysize = _Count;

  0001f	89 73 10	 mov	 DWORD PTR [ebx+16], esi
; File D:\Program Files\Microsoft Visual Studio\2022\Community\VC\Tools\MSVC\14.43.34808\include\__msvc_string_view.hpp

; 95   :         _CSTD memcpy(_First1, _First2, _Count * sizeof(_Elem));

  00022	53		 push	 ebx
; File D:\Program Files\Microsoft Visual Studio\2022\Community\VC\Tools\MSVC\14.43.34808\include\xstring

; 867  :             _My_data._Myres  = _Small_string_capacity;

  00023	c7 43 14 0f 00
	00 00		 mov	 DWORD PTR [ebx+20], 15	; 0000000fH
; File D:\Program Files\Microsoft Visual Studio\2022\Community\VC\Tools\MSVC\14.43.34808\include\__msvc_string_view.hpp

; 95   :         _CSTD memcpy(_First1, _First2, _Count * sizeof(_Elem));

  0002a	e8 00 00 00 00	 call	 _memcpy
  0002f	83 c4 0c	 add	 esp, 12			; 0000000cH
; File D:\Program Files\Microsoft Visual Studio\2022\Community\VC\Tools\MSVC\14.43.34808\include\xstring

; 874  :                 _Traits::assign(_My_data._Bx._Buf[_Count], _Elem());

  00032	c6 04 1e 00	 mov	 BYTE PTR [esi+ebx], 0
  00036	5e		 pop	 esi

; 899  :         } else { // _Strat == _Construct_strategy::_From_string
; 900  :             _Traits::copy(_Unfancy(_New_ptr), _Arg, _Count + 1);
; 901  :         }
; 902  : 
; 903  :         _ASAN_STRING_CREATE(*this);
; 904  :         _Proxy._Release();
; 905  :     }

  00037	5b		 pop	 ebx
  00038	5d		 pop	 ebp
  00039	c2 08 00	 ret	 8
$LN3@Construct:
  0003c	57		 push	 edi

; 2942 :         const size_type _Masked = _Requested | _Alloc_mask;

  0003d	8b fe		 mov	 edi, esi
  0003f	83 cf 0f	 or	 edi, 15			; 0000000fH
  00042	81 ff ff ff ff
	7f		 cmp	 edi, 2147483647		; 7fffffffH

; 2943 :         if (_Masked > _Max) { // the mask overflows, settle for max_size()

  00048	76 12		 jbe	 SHORT $LN9@Construct

; 2944 :             return _Max;

  0004a	b8 00 00 00 80	 mov	 eax, -2147483648	; 80000000H
  0004f	bf ff ff ff 7f	 mov	 edi, 2147483647		; 7fffffffH
; File D:\Program Files\Microsoft Visual Studio\2022\Community\VC\Tools\MSVC\14.43.34808\include\xmemory

; 253  :             return _Allocate_manually_vector_aligned<_Traits>(_Bytes);

  00054	50		 push	 eax
  00055	e8 00 00 00 00	 call	 ??$_Allocate_manually_vector_aligned@U_Default_allocate_traits@std@@@std@@YAPAXI@Z ; std::_Allocate_manually_vector_aligned<std::_Default_allocate_traits>
  0005a	eb 26		 jmp	 SHORT $LN38@Construct
$LN9@Construct:
; File D:\Program Files\Microsoft Visual Studio\2022\Community\VC\Tools\MSVC\14.43.34808\include\xstring

; 2951 :         return (_STD max)(_Masked, _Old + _Old / 2);

  0005c	b8 16 00 00 00	 mov	 eax, 22			; 00000016H
  00061	3b f8		 cmp	 edi, eax
  00063	0f 42 f8	 cmovb	 edi, eax

; 801  :         ++_Capacity; // Take null terminator into consideration

  00066	8d 47 01	 lea	 eax, DWORD PTR [edi+1]
; File D:\Program Files\Microsoft Visual Studio\2022\Community\VC\Tools\MSVC\14.43.34808\include\xmemory

; 227  :     if (_Bytes == 0) {

  00069	85 c0		 test	 eax, eax
  0006b	74 18		 je	 SHORT $LN37@Construct
$LN23@Construct:

; 228  :         return nullptr;
; 229  :     }
; 230  : 
; 231  : #if _HAS_CXX20 // TRANSITION, GH-1532
; 232  :     if (_STD is_constant_evaluated()) {
; 233  :         return _Traits::_Allocate(_Bytes);
; 234  :     }
; 235  : #endif // _HAS_CXX20
; 236  : 
; 237  : #ifdef __cpp_aligned_new
; 238  :     if constexpr (_Align > __STDCPP_DEFAULT_NEW_ALIGNMENT__) {
; 239  :         size_t _Passed_align = _Align;
; 240  : #if defined(_M_IX86) || defined(_M_X64)
; 241  :         if (_Bytes >= _Big_allocation_threshold) {
; 242  :             // boost the alignment of big allocations to help autovectorization
; 243  :             _Passed_align = (_STD max)(_Align, _Big_allocation_alignment);
; 244  :         }
; 245  : #endif // defined(_M_IX86) || defined(_M_X64)
; 246  :         return _Traits::_Allocate_aligned(_Bytes, _Passed_align);
; 247  :     } else
; 248  : #endif // defined(__cpp_aligned_new)
; 249  :     {
; 250  : #if defined(_M_IX86) || defined(_M_X64)
; 251  :         if (_Bytes >= _Big_allocation_threshold) {

  0006d	3d 00 10 00 00	 cmp	 eax, 4096		; 00001000H
  00072	72 08		 jb	 SHORT $LN24@Construct

; 253  :             return _Allocate_manually_vector_aligned<_Traits>(_Bytes);

  00074	50		 push	 eax
  00075	e8 00 00 00 00	 call	 ??$_Allocate_manually_vector_aligned@U_Default_allocate_traits@std@@@std@@YAPAXI@Z ; std::_Allocate_manually_vector_aligned<std::_Default_allocate_traits>
  0007a	eb 06		 jmp	 SHORT $LN38@Construct
$LN24@Construct:

; 136  :         return ::operator new(_Bytes);

  0007c	50		 push	 eax
  0007d	e8 00 00 00 00	 call	 ??2@YAPAXI@Z		; operator new
$LN38@Construct:
; File D:\Program Files\Microsoft Visual Studio\2022\Community\VC\Tools\MSVC\14.43.34808\include\xstring

; 889  :         _Construct_in_place(_My_data._Bx._Ptr, _New_ptr);

  00082	83 c4 04	 add	 esp, 4
$LN37@Construct:
; File D:\Program Files\Microsoft Visual Studio\2022\Community\VC\Tools\MSVC\14.43.34808\include\__msvc_string_view.hpp

; 95   :         _CSTD memcpy(_First1, _First2, _Count * sizeof(_Elem));

  00085	56		 push	 esi
  00086	ff 75 08	 push	 DWORD PTR __Arg$[ebp]
; File D:\Program Files\Microsoft Visual Studio\2022\Community\VC\Tools\MSVC\14.43.34808\include\xstring

; 889  :         _Construct_in_place(_My_data._Bx._Ptr, _New_ptr);

  00089	89 45 0c	 mov	 DWORD PTR $T1[ebp], eax
; File D:\Program Files\Microsoft Visual Studio\2022\Community\VC\Tools\MSVC\14.43.34808\include\__msvc_string_view.hpp

; 95   :         _CSTD memcpy(_First1, _First2, _Count * sizeof(_Elem));

  0008c	50		 push	 eax
; File D:\Program Files\Microsoft Visual Studio\2022\Community\VC\Tools\MSVC\14.43.34808\include\xstring

; 889  :         _Construct_in_place(_My_data._Bx._Ptr, _New_ptr);

  0008d	89 03		 mov	 DWORD PTR [ebx], eax

; 890  : 
; 891  :         _My_data._Mysize = _Count;

  0008f	89 73 10	 mov	 DWORD PTR [ebx+16], esi

; 892  :         _My_data._Myres  = _New_capacity;

  00092	89 7b 14	 mov	 DWORD PTR [ebx+20], edi
; File D:\Program Files\Microsoft Visual Studio\2022\Community\VC\Tools\MSVC\14.43.34808\include\__msvc_string_view.hpp

; 95   :         _CSTD memcpy(_First1, _First2, _Count * sizeof(_Elem));

  00095	e8 00 00 00 00	 call	 _memcpy
; File D:\Program Files\Microsoft Visual Studio\2022\Community\VC\Tools\MSVC\14.43.34808\include\xstring

; 898  :             _Traits::assign(_Unfancy(_New_ptr)[_Count], _Elem());

  0009a	8b 45 0c	 mov	 eax, DWORD PTR $T1[ebp]
; File D:\Program Files\Microsoft Visual Studio\2022\Community\VC\Tools\MSVC\14.43.34808\include\__msvc_string_view.hpp

; 95   :         _CSTD memcpy(_First1, _First2, _Count * sizeof(_Elem));

  0009d	83 c4 0c	 add	 esp, 12			; 0000000cH
; File D:\Program Files\Microsoft Visual Studio\2022\Community\VC\Tools\MSVC\14.43.34808\include\xstring

; 898  :             _Traits::assign(_Unfancy(_New_ptr)[_Count], _Elem());

  000a0	5f		 pop	 edi
  000a1	c6 04 30 00	 mov	 BYTE PTR [eax+esi], 0
  000a5	5e		 pop	 esi

; 899  :         } else { // _Strat == _Construct_strategy::_From_string
; 900  :             _Traits::copy(_Unfancy(_New_ptr), _Arg, _Count + 1);
; 901  :         }
; 902  : 
; 903  :         _ASAN_STRING_CREATE(*this);
; 904  :         _Proxy._Release();
; 905  :     }

  000a6	5b		 pop	 ebx
  000a7	5d		 pop	 ebp
  000a8	c2 08 00	 ret	 8
$LN40@Construct:

; 858  :             _Xlen_string(); // result too long

  000ab	e8 00 00 00 00	 call	 ?_Xlen_string@std@@YAXXZ ; std::_Xlen_string
$LN36@Construct:
  000b0	cc		 int	 3
??$_Construct@$00PBD@?$basic_string@DU?$char_traits@D@std@@V?$allocator@D@2@@std@@AAEXQBDI@Z ENDP ; std::basic_string<char,std::char_traits<char>,std::allocator<char> >::_Construct<1,char const *>
_TEXT	ENDS
; Function compile flags: /Ogtp
; File D:\Program Files\Microsoft Visual Studio\2022\Community\VC\Tools\MSVC\14.43.34808\include\__msvc_string_view.hpp
; File D:\Program Files\Microsoft Visual Studio\2022\Community\VC\Tools\MSVC\14.43.34808\include\utility
; File D:\Program Files\Microsoft Visual Studio\2022\Community\VC\Tools\MSVC\14.43.34808\include\__msvc_string_view.hpp
; File D:\Program Files\Microsoft Visual Studio\2022\Community\VC\Tools\MSVC\14.43.34808\include\utility
; File D:\Program Files\Microsoft Visual Studio\2022\Community\VC\Tools\MSVC\14.43.34808\include\__msvc_string_view.hpp
;	COMDAT ??$_Traits_compare@U?$char_traits@D@std@@@std@@YAHQBDI0I@Z
_TEXT	SEGMENT
__Left$ = 8						; size = 4
__Left_size$ = 12					; size = 4
__Right$ = 16						; size = 4
__Right_size$ = 20					; size = 4
??$_Traits_compare@U?$char_traits@D@std@@@std@@YAHQBDI0I@Z PROC ; std::_Traits_compare<std::char_traits<char> >, COMDAT

; 591  :     _In_reads_(_Right_size) const _Traits_ptr_t<_Traits> _Right, const size_t _Right_size) noexcept {

  00000	55		 push	 ebp
  00001	8b ec		 mov	 ebp, esp

; 411  :         return __builtin_memcmp(_First1, _First2, _Count);

  00003	8b 55 08	 mov	 edx, DWORD PTR __Left$[ebp]

; 591  :     _In_reads_(_Right_size) const _Traits_ptr_t<_Traits> _Right, const size_t _Right_size) noexcept {

  00006	53		 push	 ebx
  00007	8b 5d 0c	 mov	 ebx, DWORD PTR __Left_size$[ebp]
; File D:\Program Files\Microsoft Visual Studio\2022\Community\VC\Tools\MSVC\14.43.34808\include\utility

; 101  :     return _Right < _Left ? _Right : _Left;

  0000a	8b cb		 mov	 ecx, ebx
; File D:\Program Files\Microsoft Visual Studio\2022\Community\VC\Tools\MSVC\14.43.34808\include\__msvc_string_view.hpp

; 591  :     _In_reads_(_Right_size) const _Traits_ptr_t<_Traits> _Right, const size_t _Right_size) noexcept {

  0000c	56		 push	 esi

; 411  :         return __builtin_memcmp(_First1, _First2, _Count);

  0000d	8b 75 10	 mov	 esi, DWORD PTR __Right$[ebp]

; 591  :     _In_reads_(_Right_size) const _Traits_ptr_t<_Traits> _Right, const size_t _Right_size) noexcept {

  00010	57		 push	 edi
  00011	8b 7d 14	 mov	 edi, DWORD PTR __Right_size$[ebp]
; File D:\Program Files\Microsoft Visual Studio\2022\Community\VC\Tools\MSVC\14.43.34808\include\utility

; 101  :     return _Right < _Left ? _Right : _Left;

  00014	3b fb		 cmp	 edi, ebx
  00016	0f 42 cf	 cmovb	 ecx, edi
; File D:\Program Files\Microsoft Visual Studio\2022\Community\VC\Tools\MSVC\14.43.34808\include\__msvc_string_view.hpp

; 411  :         return __builtin_memcmp(_First1, _First2, _Count);

  00019	83 e9 04	 sub	 ecx, 4
  0001c	72 13		 jb	 SHORT $LN15@Traits_com
  0001e	66 90		 npad	 2
$LL16@Traits_com:
  00020	8b 02		 mov	 eax, DWORD PTR [edx]
  00022	3b 06		 cmp	 eax, DWORD PTR [esi]
  00024	75 10		 jne	 SHORT $LN14@Traits_com
  00026	83 c2 04	 add	 edx, 4
  00029	83 c6 04	 add	 esi, 4
  0002c	83 e9 04	 sub	 ecx, 4
  0002f	73 ef		 jae	 SHORT $LL16@Traits_com
$LN15@Traits_com:
  00031	83 f9 fc	 cmp	 ecx, -4			; fffffffcH
  00034	74 34		 je	 SHORT $LN13@Traits_com
$LN14@Traits_com:
  00036	8a 02		 mov	 al, BYTE PTR [edx]
  00038	3a 06		 cmp	 al, BYTE PTR [esi]
  0003a	75 27		 jne	 SHORT $LN17@Traits_com
  0003c	83 f9 fd	 cmp	 ecx, -3			; fffffffdH
  0003f	74 29		 je	 SHORT $LN13@Traits_com
  00041	8a 42 01	 mov	 al, BYTE PTR [edx+1]
  00044	3a 46 01	 cmp	 al, BYTE PTR [esi+1]
  00047	75 1a		 jne	 SHORT $LN17@Traits_com
  00049	83 f9 fe	 cmp	 ecx, -2			; fffffffeH
  0004c	74 1c		 je	 SHORT $LN13@Traits_com
  0004e	8a 42 02	 mov	 al, BYTE PTR [edx+2]
  00051	3a 46 02	 cmp	 al, BYTE PTR [esi+2]
  00054	75 0d		 jne	 SHORT $LN17@Traits_com
  00056	83 f9 ff	 cmp	 ecx, -1
  00059	74 0f		 je	 SHORT $LN13@Traits_com
  0005b	8a 42 03	 mov	 al, BYTE PTR [edx+3]
  0005e	3a 46 03	 cmp	 al, BYTE PTR [esi+3]
  00061	74 07		 je	 SHORT $LN13@Traits_com
$LN17@Traits_com:
  00063	1b c0		 sbb	 eax, eax
  00065	83 c8 01	 or	 eax, 1
  00068	eb 02		 jmp	 SHORT $LN18@Traits_com
$LN13@Traits_com:
  0006a	33 c0		 xor	 eax, eax
$LN18@Traits_com:

; 592  :     // compare [_Left, _Left + _Left_size) to [_Right, _Right + _Right_size) using _Traits
; 593  :     const int _Ans = _Traits::compare(_Left, _Right, (_STD min)(_Left_size, _Right_size));
; 594  : 
; 595  :     if (_Ans != 0) {

  0006c	85 c0		 test	 eax, eax
  0006e	75 10		 jne	 SHORT $LN1@Traits_com

; 596  :         return _Ans;
; 597  :     }
; 598  : 
; 599  :     if (_Left_size < _Right_size) {

  00070	3b fb		 cmp	 edi, ebx
  00072	76 08		 jbe	 SHORT $LN29@Traits_com

; 604  :         return 1;
; 605  :     }
; 606  : 
; 607  :     return 0;
; 608  : }

  00074	5f		 pop	 edi
  00075	5e		 pop	 esi
  00076	83 c8 ff	 or	 eax, -1
  00079	5b		 pop	 ebx
  0007a	5d		 pop	 ebp
  0007b	c3		 ret	 0
$LN29@Traits_com:

; 600  :         return -1;
; 601  :     }
; 602  : 
; 603  :     if (_Left_size > _Right_size) {

  0007c	1b c0		 sbb	 eax, eax
  0007e	f7 d8		 neg	 eax
$LN1@Traits_com:

; 604  :         return 1;
; 605  :     }
; 606  : 
; 607  :     return 0;
; 608  : }

  00080	5f		 pop	 edi
  00081	5e		 pop	 esi
  00082	5b		 pop	 ebx
  00083	5d		 pop	 ebp
  00084	c3		 ret	 0
??$_Traits_compare@U?$char_traits@D@std@@@std@@YAHQBDI0I@Z ENDP ; std::_Traits_compare<std::char_traits<char> >
_TEXT	ENDS
; Function compile flags: /Ogtp
; File D:\Program Files\Microsoft Visual Studio\2022\Community\VC\Tools\MSVC\14.43.34808\include\xtree
;	COMDAT ?_Throw_tree_length_error@std@@YAXXZ
_TEXT	SEGMENT
?_Throw_tree_length_error@std@@YAXXZ PROC		; std::_Throw_tree_length_error, COMDAT

; 417  :     _Xlength_error("map/set too long");

  00000	68 00 00 00 00	 push	 OFFSET ??_C@_0BB@GCADKGJO@map?1set?5too?5long@
  00005	e8 00 00 00 00	 call	 ?_Xlength_error@std@@YAXPBD@Z ; std::_Xlength_error
$LN3@Throw_tree:
  0000a	cc		 int	 3
?_Throw_tree_length_error@std@@YAXXZ ENDP		; std::_Throw_tree_length_error
_TEXT	ENDS
; Function compile flags: /Ogtp
; File D:\Program Files\Microsoft Visual Studio\2022\Community\VC\Tools\MSVC\14.43.34808\include\xstring
; File D:\Program Files\Microsoft Visual Studio\2022\Community\VC\Tools\MSVC\14.43.34808\include\xmemory
; File D:\Program Files\Microsoft Visual Studio\2022\Community\VC\Tools\MSVC\14.43.34808\include\xstring
; File D:\Program Files\Microsoft Visual Studio\2022\Community\VC\Tools\MSVC\14.43.34808\include\xmemory
; File D:\Program Files\Microsoft Visual Studio\2022\Community\VC\Tools\MSVC\14.43.34808\include\xstring
; File D:\Program Files\Microsoft Visual Studio\2022\Community\VC\Tools\MSVC\14.43.34808\include\xmemory
; File D:\Program Files\Microsoft Visual Studio\2022\Community\VC\Tools\MSVC\14.43.34808\include\xstring
;	COMDAT ?_Tidy_deallocate@?$basic_string@DU?$char_traits@D@std@@V?$allocator@D@2@@std@@AAEXXZ
_TEXT	SEGMENT
?_Tidy_deallocate@?$basic_string@DU?$char_traits@D@std@@V?$allocator@D@2@@std@@AAEXXZ PROC ; std::basic_string<char,std::char_traits<char>,std::allocator<char> >::_Tidy_deallocate, COMDAT
; _this$ = ecx

; 3044 :     _CONSTEXPR20 void _Tidy_deallocate() noexcept { // initialize buffer, deallocating any storage

  00000	56		 push	 esi
  00001	8b f1		 mov	 esi, ecx

; 434  :         return _Myres > _Small_string_capacity;

  00003	8b 4e 14	 mov	 ecx, DWORD PTR [esi+20]
  00006	83 f9 0f	 cmp	 ecx, 15			; 0000000fH

; 3045 :         auto& _My_data = _Mypair._Myval2;
; 3046 :         _My_data._Orphan_all();
; 3047 :         if (_My_data._Large_mode_engaged()) {

  00009	76 27		 jbe	 SHORT $LN16@Tidy_deall
; File D:\Program Files\Microsoft Visual Studio\2022\Community\VC\Tools\MSVC\14.43.34808\include\xmemory

; 981  :         _STD _Deallocate<_New_alignof<_Ty>>(_Ptr, sizeof(_Ty) * _Count);

  0000b	8b 06		 mov	 eax, DWORD PTR [esi]
; File D:\Program Files\Microsoft Visual Studio\2022\Community\VC\Tools\MSVC\14.43.34808\include\xstring

; 828  :         _Al.deallocate(_Old_ptr, _Capacity + 1); // +1 for null terminator

  0000d	41		 inc	 ecx
; File D:\Program Files\Microsoft Visual Studio\2022\Community\VC\Tools\MSVC\14.43.34808\include\xmemory

; 284  :         if (_Bytes >= _Big_allocation_threshold) {

  0000e	81 f9 00 10 00
	00		 cmp	 ecx, 4096		; 00001000H
  00014	72 12		 jb	 SHORT $LN27@Tidy_deall

; 205  :     const uintptr_t _Ptr_container   = _Ptr_user[-1];

  00016	8b 50 fc	 mov	 edx, DWORD PTR [eax-4]
  00019	83 c1 23	 add	 ecx, 35			; 00000023H

; 206  : 
; 207  :     // If the following asserts, it likely means that we are performing
; 208  :     // an aligned delete on memory coming from an unaligned allocation.
; 209  :     _STL_ASSERT(_Ptr_user[-2] == _Big_allocation_sentinel, "invalid argument");
; 210  : 
; 211  :     // Extra paranoia on aligned allocation/deallocation; ensure _Ptr_container is
; 212  :     // in range [_Min_back_shift, _Non_user_size]
; 213  : #ifdef _DEBUG
; 214  :     constexpr uintptr_t _Min_back_shift = 2 * sizeof(void*);
; 215  : #else // ^^^ defined(_DEBUG) / !defined(_DEBUG) vvv
; 216  :     constexpr uintptr_t _Min_back_shift = sizeof(void*);
; 217  : #endif // ^^^ !defined(_DEBUG) ^^^
; 218  :     const uintptr_t _Back_shift = reinterpret_cast<uintptr_t>(_Ptr) - _Ptr_container;

  0001c	2b c2		 sub	 eax, edx

; 219  :     _STL_VERIFY(_Back_shift >= _Min_back_shift && _Back_shift <= _Non_user_size, "invalid argument");

  0001e	83 c0 fc	 add	 eax, -4			; fffffffcH
  00021	83 f8 1f	 cmp	 eax, 31			; 0000001fH
  00024	77 1f		 ja	 SHORT $LN24@Tidy_deall

; 220  :     _Ptr = reinterpret_cast<void*>(_Ptr_container);

  00026	8b c2		 mov	 eax, edx
$LN27@Tidy_deall:

; 289  :         ::operator delete(_Ptr, _Bytes);

  00028	51		 push	 ecx
  00029	50		 push	 eax
  0002a	e8 00 00 00 00	 call	 ??3@YAXPAXI@Z		; operator delete
  0002f	83 c4 08	 add	 esp, 8
$LN16@Tidy_deall:
; File D:\Program Files\Microsoft Visual Studio\2022\Community\VC\Tools\MSVC\14.43.34808\include\xstring

; 3054 :         _My_data._Mysize = 0;

  00032	c7 46 10 00 00
	00 00		 mov	 DWORD PTR [esi+16], 0

; 3055 :         _My_data._Myres  = _Small_string_capacity;

  00039	c7 46 14 0f 00
	00 00		 mov	 DWORD PTR [esi+20], 15	; 0000000fH

; 3056 :         // the _Traits::assign is last so the codegen doesn't think the char write can alias this
; 3057 :         _Traits::assign(_My_data._Bx._Buf[0], _Elem());

  00040	c6 06 00	 mov	 BYTE PTR [esi], 0
  00043	5e		 pop	 esi

; 3058 :     }

  00044	c3		 ret	 0
$LN24@Tidy_deall:
; File D:\Program Files\Microsoft Visual Studio\2022\Community\VC\Tools\MSVC\14.43.34808\include\xmemory

; 219  :     _STL_VERIFY(_Back_shift >= _Min_back_shift && _Back_shift <= _Non_user_size, "invalid argument");

  00045	e8 00 00 00 00	 call	 __invalid_parameter_noinfo_noreturn
$LN35@Tidy_deall:
  0004a	cc		 int	 3
?_Tidy_deallocate@?$basic_string@DU?$char_traits@D@std@@V?$allocator@D@2@@std@@AAEXXZ ENDP ; std::basic_string<char,std::char_traits<char>,std::allocator<char> >::_Tidy_deallocate
_TEXT	ENDS
; Function compile flags: /Ogtp
; File D:\Program Files\Microsoft Visual Studio\2022\Community\VC\Tools\MSVC\14.43.34808\include\xstring
; File D:\Program Files\Microsoft Visual Studio\2022\Community\VC\Tools\MSVC\14.43.34808\include\__msvc_string_view.hpp
; File D:\Program Files\Microsoft Visual Studio\2022\Community\VC\Tools\MSVC\14.43.34808\include\xstring
; File D:\Program Files\Microsoft Visual Studio\2022\Community\VC\Tools\MSVC\14.43.34808\include\__msvc_string_view.hpp
; File D:\Program Files\Microsoft Visual Studio\2022\Community\VC\Tools\MSVC\14.43.34808\include\xstring
; File D:\Program Files\Microsoft Visual Studio\2022\Community\VC\Tools\MSVC\14.43.34808\include\xmemory
; File D:\Program Files\Microsoft Visual Studio\2022\Community\VC\Tools\MSVC\14.43.34808\include\xstring
; File D:\Program Files\Microsoft Visual Studio\2022\Community\VC\Tools\MSVC\14.43.34808\include\xmemory
; File D:\Program Files\Microsoft Visual Studio\2022\Community\VC\Tools\MSVC\14.43.34808\include\xstring
; File D:\Program Files\Microsoft Visual Studio\2022\Community\VC\Tools\MSVC\14.43.34808\include\xmemory
; File D:\Program Files\Microsoft Visual Studio\2022\Community\VC\Tools\MSVC\14.43.34808\include\xstring
; File D:\Program Files\Microsoft Visual Studio\2022\Community\VC\Tools\MSVC\14.43.34808\include\__msvc_string_view.hpp
; File D:\Program Files\Microsoft Visual Studio\2022\Community\VC\Tools\MSVC\14.43.34808\include\xstring
; File D:\Program Files\Microsoft Visual Studio\2022\Community\VC\Tools\MSVC\14.43.34808\include\__msvc_string_view.hpp
; File D:\Program Files\Microsoft Visual Studio\2022\Community\VC\Tools\MSVC\14.43.34808\include\xstring
; File D:\Program Files\Microsoft Visual Studio\2022\Community\VC\Tools\MSVC\14.43.34808\include\__msvc_string_view.hpp
; File D:\Program Files\Microsoft Visual Studio\2022\Community\VC\Tools\MSVC\14.43.34808\include\xstring
; File D:\Program Files\Microsoft Visual Studio\2022\Community\VC\Tools\MSVC\14.43.34808\include\__msvc_string_view.hpp
; File D:\Program Files\Microsoft Visual Studio\2022\Community\VC\Tools\MSVC\14.43.34808\include\xstring
; File D:\Program Files\Microsoft Visual Studio\2022\Community\VC\Tools\MSVC\14.43.34808\include\xmemory
; File D:\Program Files\Microsoft Visual Studio\2022\Community\VC\Tools\MSVC\14.43.34808\include\xstring
; File D:\Program Files\Microsoft Visual Studio\2022\Community\VC\Tools\MSVC\14.43.34808\include\xmemory
; File D:\Program Files\Microsoft Visual Studio\2022\Community\VC\Tools\MSVC\14.43.34808\include\xstring
;	COMDAT ?assign@?$basic_string@DU?$char_traits@D@std@@V?$allocator@D@2@@std@@QAEAAV12@QBDI@Z
_TEXT	SEGMENT
$T1 = -4						; size = 4
__Ptr$ = 8						; size = 4
__Count$ = 12						; size = 4
$T2 = 12						; size = 4
?assign@?$basic_string@DU?$char_traits@D@std@@V?$allocator@D@2@@std@@QAEAAV12@QBDI@Z PROC ; std::basic_string<char,std::char_traits<char>,std::allocator<char> >::assign, COMDAT
; _this$ = ecx

; 1592 :         _In_reads_(_Count) const _Elem* const _Ptr, _CRT_GUARDOVERFLOW const size_type _Count) {

  00000	55		 push	 ebp
  00001	8b ec		 mov	 ebp, esp
  00003	51		 push	 ecx
  00004	53		 push	 ebx

; 1593 :         // assign [_Ptr, _Ptr + _Count)
; 1594 :         if (_Count <= _Mypair._Myval2._Myres) {

  00005	8b 5d 0c	 mov	 ebx, DWORD PTR __Count$[ebp]
  00008	56		 push	 esi
  00009	8b f1		 mov	 esi, ecx
  0000b	57		 push	 edi
  0000c	8b 4e 14	 mov	 ecx, DWORD PTR [esi+20]
  0000f	89 4d fc	 mov	 DWORD PTR $T1[ebp], ecx
  00012	3b d9		 cmp	 ebx, ecx
  00014	77 28		 ja	 SHORT $LN2@assign

; 416  :         value_type* _Result = _Bx._Buf;

  00016	8b fe		 mov	 edi, esi

; 434  :         return _Myres > _Small_string_capacity;

  00018	83 f9 0f	 cmp	 ecx, 15			; 0000000fH

; 417  :         if (_Large_mode_engaged()) {

  0001b	76 02		 jbe	 SHORT $LN5@assign

; 418  :             _Result = _Unfancy(_Bx._Ptr);

  0001d	8b 3e		 mov	 edi, DWORD PTR [esi]
$LN5@assign:
; File D:\Program Files\Microsoft Visual Studio\2022\Community\VC\Tools\MSVC\14.43.34808\include\__msvc_string_view.hpp

; 148  :         _CSTD memmove(_First1, _First2, _Count * sizeof(_Elem));

  0001f	53		 push	 ebx
  00020	ff 75 08	 push	 DWORD PTR __Ptr$[ebp]
; File D:\Program Files\Microsoft Visual Studio\2022\Community\VC\Tools\MSVC\14.43.34808\include\xstring

; 1597 :             _Mypair._Myval2._Mysize = _Count;

  00023	89 5e 10	 mov	 DWORD PTR [esi+16], ebx
; File D:\Program Files\Microsoft Visual Studio\2022\Community\VC\Tools\MSVC\14.43.34808\include\__msvc_string_view.hpp

; 148  :         _CSTD memmove(_First1, _First2, _Count * sizeof(_Elem));

  00026	57		 push	 edi
  00027	e8 00 00 00 00	 call	 _memmove
  0002c	83 c4 0c	 add	 esp, 12			; 0000000cH
; File D:\Program Files\Microsoft Visual Studio\2022\Community\VC\Tools\MSVC\14.43.34808\include\xstring

; 1599 :             _Traits::assign(_Old_ptr[_Count], _Elem());

  0002f	c6 04 1f 00	 mov	 BYTE PTR [edi+ebx], 0

; 1609 :             },
; 1610 :             _Ptr);
; 1611 :     }

  00033	8b c6		 mov	 eax, esi
  00035	5f		 pop	 edi
  00036	5e		 pop	 esi
  00037	5b		 pop	 ebx
  00038	8b e5		 mov	 esp, ebp
  0003a	5d		 pop	 ebp
  0003b	c2 08 00	 ret	 8
$LN2@assign:

; 2962 :         if (_New_size > max_size()) {

  0003e	81 fb ff ff ff
	7f		 cmp	 ebx, 2147483647		; 7fffffffH
  00044	0f 87 c7 00 00
	00		 ja	 $LN87@assign

; 2942 :         const size_type _Masked = _Requested | _Alloc_mask;

  0004a	8b fb		 mov	 edi, ebx
  0004c	83 cf 0f	 or	 edi, 15			; 0000000fH
  0004f	81 ff ff ff ff
	7f		 cmp	 edi, 2147483647		; 7fffffffH

; 2943 :         if (_Masked > _Max) { // the mask overflows, settle for max_size()

  00055	76 12		 jbe	 SHORT $LN23@assign

; 2944 :             return _Max;

  00057	b8 00 00 00 80	 mov	 eax, -2147483648	; 80000000H
  0005c	bf ff ff ff 7f	 mov	 edi, 2147483647		; 7fffffffH
; File D:\Program Files\Microsoft Visual Studio\2022\Community\VC\Tools\MSVC\14.43.34808\include\xmemory

; 253  :             return _Allocate_manually_vector_aligned<_Traits>(_Bytes);

  00061	50		 push	 eax
  00062	e8 00 00 00 00	 call	 ??$_Allocate_manually_vector_aligned@U_Default_allocate_traits@std@@@std@@YAPAXI@Z ; std::_Allocate_manually_vector_aligned<std::_Default_allocate_traits>
  00067	eb 45		 jmp	 SHORT $LN85@assign
$LN23@assign:
; File D:\Program Files\Microsoft Visual Studio\2022\Community\VC\Tools\MSVC\14.43.34808\include\xstring

; 2947 :         if (_Old > _Max - _Old / 2) { // similarly, geometric overflows

  00069	8b d1		 mov	 edx, ecx
  0006b	b8 ff ff ff 7f	 mov	 eax, 2147483647		; 7fffffffH
  00070	d1 ea		 shr	 edx, 1
  00072	2b c2		 sub	 eax, edx
  00074	3b c8		 cmp	 ecx, eax
  00076	76 12		 jbe	 SHORT $LN24@assign

; 2948 :             return _Max;

  00078	b8 00 00 00 80	 mov	 eax, -2147483648	; 80000000H
  0007d	bf ff ff ff 7f	 mov	 edi, 2147483647		; 7fffffffH
; File D:\Program Files\Microsoft Visual Studio\2022\Community\VC\Tools\MSVC\14.43.34808\include\xmemory

; 253  :             return _Allocate_manually_vector_aligned<_Traits>(_Bytes);

  00082	50		 push	 eax
  00083	e8 00 00 00 00	 call	 ??$_Allocate_manually_vector_aligned@U_Default_allocate_traits@std@@@std@@YAPAXI@Z ; std::_Allocate_manually_vector_aligned<std::_Default_allocate_traits>
  00088	eb 24		 jmp	 SHORT $LN85@assign
$LN24@assign:
; File D:\Program Files\Microsoft Visual Studio\2022\Community\VC\Tools\MSVC\14.43.34808\include\xstring

; 2951 :         return (_STD max)(_Masked, _Old + _Old / 2);

  0008a	8d 04 0a	 lea	 eax, DWORD PTR [edx+ecx]
  0008d	3b f8		 cmp	 edi, eax
  0008f	0f 42 f8	 cmovb	 edi, eax

; 801  :         ++_Capacity; // Take null terminator into consideration

  00092	8d 47 01	 lea	 eax, DWORD PTR [edi+1]
; File D:\Program Files\Microsoft Visual Studio\2022\Community\VC\Tools\MSVC\14.43.34808\include\xmemory

; 227  :     if (_Bytes == 0) {

  00095	85 c0		 test	 eax, eax
  00097	74 18		 je	 SHORT $LN84@assign
$LN37@assign:

; 228  :         return nullptr;
; 229  :     }
; 230  : 
; 231  : #if _HAS_CXX20 // TRANSITION, GH-1532
; 232  :     if (_STD is_constant_evaluated()) {
; 233  :         return _Traits::_Allocate(_Bytes);
; 234  :     }
; 235  : #endif // _HAS_CXX20
; 236  : 
; 237  : #ifdef __cpp_aligned_new
; 238  :     if constexpr (_Align > __STDCPP_DEFAULT_NEW_ALIGNMENT__) {
; 239  :         size_t _Passed_align = _Align;
; 240  : #if defined(_M_IX86) || defined(_M_X64)
; 241  :         if (_Bytes >= _Big_allocation_threshold) {
; 242  :             // boost the alignment of big allocations to help autovectorization
; 243  :             _Passed_align = (_STD max)(_Align, _Big_allocation_alignment);
; 244  :         }
; 245  : #endif // defined(_M_IX86) || defined(_M_X64)
; 246  :         return _Traits::_Allocate_aligned(_Bytes, _Passed_align);
; 247  :     } else
; 248  : #endif // defined(__cpp_aligned_new)
; 249  :     {
; 250  : #if defined(_M_IX86) || defined(_M_X64)
; 251  :         if (_Bytes >= _Big_allocation_threshold) {

  00099	3d 00 10 00 00	 cmp	 eax, 4096		; 00001000H
  0009e	72 08		 jb	 SHORT $LN38@assign

; 253  :             return _Allocate_manually_vector_aligned<_Traits>(_Bytes);

  000a0	50		 push	 eax
  000a1	e8 00 00 00 00	 call	 ??$_Allocate_manually_vector_aligned@U_Default_allocate_traits@std@@@std@@YAPAXI@Z ; std::_Allocate_manually_vector_aligned<std::_Default_allocate_traits>
  000a6	eb 06		 jmp	 SHORT $LN85@assign
$LN38@assign:

; 136  :         return ::operator new(_Bytes);

  000a8	50		 push	 eax
  000a9	e8 00 00 00 00	 call	 ??2@YAPAXI@Z		; operator new
$LN85@assign:
; File D:\Program Files\Microsoft Visual Studio\2022\Community\VC\Tools\MSVC\14.43.34808\include\xstring

; 2973 :         _Mypair._Myval2._Mysize = _New_size;

  000ae	83 c4 04	 add	 esp, 4
$LN84@assign:
; File D:\Program Files\Microsoft Visual Studio\2022\Community\VC\Tools\MSVC\14.43.34808\include\__msvc_string_view.hpp

; 95   :         _CSTD memcpy(_First1, _First2, _Count * sizeof(_Elem));

  000b1	53		 push	 ebx
  000b2	ff 75 08	 push	 DWORD PTR __Ptr$[ebp]
; File D:\Program Files\Microsoft Visual Studio\2022\Community\VC\Tools\MSVC\14.43.34808\include\xstring

; 2973 :         _Mypair._Myval2._Mysize = _New_size;

  000b5	89 45 0c	 mov	 DWORD PTR $T2[ebp], eax
; File D:\Program Files\Microsoft Visual Studio\2022\Community\VC\Tools\MSVC\14.43.34808\include\__msvc_string_view.hpp

; 95   :         _CSTD memcpy(_First1, _First2, _Count * sizeof(_Elem));

  000b8	50		 push	 eax
; File D:\Program Files\Microsoft Visual Studio\2022\Community\VC\Tools\MSVC\14.43.34808\include\xstring

; 2973 :         _Mypair._Myval2._Mysize = _New_size;

  000b9	89 5e 10	 mov	 DWORD PTR [esi+16], ebx

; 2974 :         _Mypair._Myval2._Myres  = _New_capacity;

  000bc	89 7e 14	 mov	 DWORD PTR [esi+20], edi
; File D:\Program Files\Microsoft Visual Studio\2022\Community\VC\Tools\MSVC\14.43.34808\include\__msvc_string_view.hpp

; 95   :         _CSTD memcpy(_First1, _First2, _Count * sizeof(_Elem));

  000bf	e8 00 00 00 00	 call	 _memcpy
; File D:\Program Files\Microsoft Visual Studio\2022\Community\VC\Tools\MSVC\14.43.34808\include\xstring

; 1608 :                 _Traits::assign(_New_ptr[_Count], _Elem());

  000c4	8b 7d 0c	 mov	 edi, DWORD PTR $T2[ebp]
; File D:\Program Files\Microsoft Visual Studio\2022\Community\VC\Tools\MSVC\14.43.34808\include\__msvc_string_view.hpp

; 95   :         _CSTD memcpy(_First1, _First2, _Count * sizeof(_Elem));

  000c7	83 c4 0c	 add	 esp, 12			; 0000000cH
; File D:\Program Files\Microsoft Visual Studio\2022\Community\VC\Tools\MSVC\14.43.34808\include\xstring

; 2976 :         if (_Old_capacity > _Small_string_capacity) {

  000ca	8b 45 fc	 mov	 eax, DWORD PTR $T1[ebp]

; 1608 :                 _Traits::assign(_New_ptr[_Count], _Elem());

  000cd	c6 04 1f 00	 mov	 BYTE PTR [edi+ebx], 0

; 2976 :         if (_Old_capacity > _Small_string_capacity) {

  000d1	83 f8 0f	 cmp	 eax, 15			; 0000000fH
  000d4	76 29		 jbe	 SHORT $LN16@assign

; 828  :         _Al.deallocate(_Old_ptr, _Capacity + 1); // +1 for null terminator

  000d6	8d 48 01	 lea	 ecx, DWORD PTR [eax+1]
; File D:\Program Files\Microsoft Visual Studio\2022\Community\VC\Tools\MSVC\14.43.34808\include\xmemory

; 981  :         _STD _Deallocate<_New_alignof<_Ty>>(_Ptr, sizeof(_Ty) * _Count);

  000d9	8b 06		 mov	 eax, DWORD PTR [esi]

; 284  :         if (_Bytes >= _Big_allocation_threshold) {

  000db	81 f9 00 10 00
	00		 cmp	 ecx, 4096		; 00001000H
  000e1	72 12		 jb	 SHORT $LN66@assign

; 205  :     const uintptr_t _Ptr_container   = _Ptr_user[-1];

  000e3	8b 50 fc	 mov	 edx, DWORD PTR [eax-4]
  000e6	83 c1 23	 add	 ecx, 35			; 00000023H

; 206  : 
; 207  :     // If the following asserts, it likely means that we are performing
; 208  :     // an aligned delete on memory coming from an unaligned allocation.
; 209  :     _STL_ASSERT(_Ptr_user[-2] == _Big_allocation_sentinel, "invalid argument");
; 210  : 
; 211  :     // Extra paranoia on aligned allocation/deallocation; ensure _Ptr_container is
; 212  :     // in range [_Min_back_shift, _Non_user_size]
; 213  : #ifdef _DEBUG
; 214  :     constexpr uintptr_t _Min_back_shift = 2 * sizeof(void*);
; 215  : #else // ^^^ defined(_DEBUG) / !defined(_DEBUG) vvv
; 216  :     constexpr uintptr_t _Min_back_shift = sizeof(void*);
; 217  : #endif // ^^^ !defined(_DEBUG) ^^^
; 218  :     const uintptr_t _Back_shift = reinterpret_cast<uintptr_t>(_Ptr) - _Ptr_container;

  000e9	2b c2		 sub	 eax, edx

; 219  :     _STL_VERIFY(_Back_shift >= _Min_back_shift && _Back_shift <= _Non_user_size, "invalid argument");

  000eb	83 c0 fc	 add	 eax, -4			; fffffffcH
  000ee	83 f8 1f	 cmp	 eax, 31			; 0000001fH
  000f1	77 19		 ja	 SHORT $LN63@assign

; 220  :     _Ptr = reinterpret_cast<void*>(_Ptr_container);

  000f3	8b c2		 mov	 eax, edx
$LN66@assign:

; 289  :         ::operator delete(_Ptr, _Bytes);

  000f5	51		 push	 ecx
  000f6	50		 push	 eax
  000f7	e8 00 00 00 00	 call	 ??3@YAXPAXI@Z		; operator delete
  000fc	83 c4 08	 add	 esp, 8
$LN16@assign:
; File D:\Program Files\Microsoft Visual Studio\2022\Community\VC\Tools\MSVC\14.43.34808\include\xstring

; 1604 :         return _Reallocate_for(

  000ff	89 3e		 mov	 DWORD PTR [esi], edi

; 1609 :             },
; 1610 :             _Ptr);
; 1611 :     }

  00101	8b c6		 mov	 eax, esi
  00103	5f		 pop	 edi
  00104	5e		 pop	 esi
  00105	5b		 pop	 ebx
  00106	8b e5		 mov	 esp, ebp
  00108	5d		 pop	 ebp
  00109	c2 08 00	 ret	 8
$LN63@assign:
; File D:\Program Files\Microsoft Visual Studio\2022\Community\VC\Tools\MSVC\14.43.34808\include\xmemory

; 219  :     _STL_VERIFY(_Back_shift >= _Min_back_shift && _Back_shift <= _Non_user_size, "invalid argument");

  0010c	e8 00 00 00 00	 call	 __invalid_parameter_noinfo_noreturn
$LN87@assign:
; File D:\Program Files\Microsoft Visual Studio\2022\Community\VC\Tools\MSVC\14.43.34808\include\xstring

; 2963 :             _Xlen_string(); // result too long

  00111	e8 00 00 00 00	 call	 ?_Xlen_string@std@@YAXXZ ; std::_Xlen_string
$LN82@assign:
  00116	cc		 int	 3
?assign@?$basic_string@DU?$char_traits@D@std@@V?$allocator@D@2@@std@@QAEAAV12@QBDI@Z ENDP ; std::basic_string<char,std::char_traits<char>,std::allocator<char> >::assign
_TEXT	ENDS
; Function compile flags: /Ogtp
; File D:\Program Files\Microsoft Visual Studio\2022\Community\VC\Tools\MSVC\14.43.34808\include\xstring
; File D:\Program Files\Microsoft Visual Studio\2022\Community\VC\Tools\MSVC\14.43.34808\include\xmemory
; File D:\Program Files\Microsoft Visual Studio\2022\Community\VC\Tools\MSVC\14.43.34808\include\xstring
; File D:\Program Files\Microsoft Visual Studio\2022\Community\VC\Tools\MSVC\14.43.34808\include\xmemory
; File D:\Program Files\Microsoft Visual Studio\2022\Community\VC\Tools\MSVC\14.43.34808\include\xstring
; File D:\Program Files\Microsoft Visual Studio\2022\Community\VC\Tools\MSVC\14.43.34808\include\xmemory
; File D:\Program Files\Microsoft Visual Studio\2022\Community\VC\Tools\MSVC\14.43.34808\include\xstring
;	COMDAT ??1?$basic_string@DU?$char_traits@D@std@@V?$allocator@D@2@@std@@QAE@XZ
_TEXT	SEGMENT
??1?$basic_string@DU?$char_traits@D@std@@V?$allocator@D@2@@std@@QAE@XZ PROC ; std::basic_string<char,std::char_traits<char>,std::allocator<char> >::~basic_string<char,std::char_traits<char>,std::allocator<char> >, COMDAT
; _this$ = ecx

; 1358 :     _CONSTEXPR20 ~basic_string() noexcept {

  00000	56		 push	 esi
  00001	8b f1		 mov	 esi, ecx

; 434  :         return _Myres > _Small_string_capacity;

  00003	8b 4e 14	 mov	 ecx, DWORD PTR [esi+20]
  00006	83 f9 0f	 cmp	 ecx, 15			; 0000000fH

; 3047 :         if (_My_data._Large_mode_engaged()) {

  00009	76 27		 jbe	 SHORT $LN19@basic_stri
; File D:\Program Files\Microsoft Visual Studio\2022\Community\VC\Tools\MSVC\14.43.34808\include\xmemory

; 981  :         _STD _Deallocate<_New_alignof<_Ty>>(_Ptr, sizeof(_Ty) * _Count);

  0000b	8b 06		 mov	 eax, DWORD PTR [esi]
; File D:\Program Files\Microsoft Visual Studio\2022\Community\VC\Tools\MSVC\14.43.34808\include\xstring

; 828  :         _Al.deallocate(_Old_ptr, _Capacity + 1); // +1 for null terminator

  0000d	41		 inc	 ecx
; File D:\Program Files\Microsoft Visual Studio\2022\Community\VC\Tools\MSVC\14.43.34808\include\xmemory

; 284  :         if (_Bytes >= _Big_allocation_threshold) {

  0000e	81 f9 00 10 00
	00		 cmp	 ecx, 4096		; 00001000H
  00014	72 12		 jb	 SHORT $LN30@basic_stri

; 205  :     const uintptr_t _Ptr_container   = _Ptr_user[-1];

  00016	8b 50 fc	 mov	 edx, DWORD PTR [eax-4]
  00019	83 c1 23	 add	 ecx, 35			; 00000023H

; 206  : 
; 207  :     // If the following asserts, it likely means that we are performing
; 208  :     // an aligned delete on memory coming from an unaligned allocation.
; 209  :     _STL_ASSERT(_Ptr_user[-2] == _Big_allocation_sentinel, "invalid argument");
; 210  : 
; 211  :     // Extra paranoia on aligned allocation/deallocation; ensure _Ptr_container is
; 212  :     // in range [_Min_back_shift, _Non_user_size]
; 213  : #ifdef _DEBUG
; 214  :     constexpr uintptr_t _Min_back_shift = 2 * sizeof(void*);
; 215  : #else // ^^^ defined(_DEBUG) / !defined(_DEBUG) vvv
; 216  :     constexpr uintptr_t _Min_back_shift = sizeof(void*);
; 217  : #endif // ^^^ !defined(_DEBUG) ^^^
; 218  :     const uintptr_t _Back_shift = reinterpret_cast<uintptr_t>(_Ptr) - _Ptr_container;

  0001c	2b c2		 sub	 eax, edx

; 219  :     _STL_VERIFY(_Back_shift >= _Min_back_shift && _Back_shift <= _Non_user_size, "invalid argument");

  0001e	83 c0 fc	 add	 eax, -4			; fffffffcH
  00021	83 f8 1f	 cmp	 eax, 31			; 0000001fH
  00024	77 1f		 ja	 SHORT $LN27@basic_stri

; 220  :     _Ptr = reinterpret_cast<void*>(_Ptr_container);

  00026	8b c2		 mov	 eax, edx
$LN30@basic_stri:

; 289  :         ::operator delete(_Ptr, _Bytes);

  00028	51		 push	 ecx
  00029	50		 push	 eax
  0002a	e8 00 00 00 00	 call	 ??3@YAXPAXI@Z		; operator delete
  0002f	83 c4 08	 add	 esp, 8
$LN19@basic_stri:
; File D:\Program Files\Microsoft Visual Studio\2022\Community\VC\Tools\MSVC\14.43.34808\include\xstring

; 3054 :         _My_data._Mysize = 0;

  00032	c7 46 10 00 00
	00 00		 mov	 DWORD PTR [esi+16], 0

; 3055 :         _My_data._Myres  = _Small_string_capacity;

  00039	c7 46 14 0f 00
	00 00		 mov	 DWORD PTR [esi+20], 15	; 0000000fH

; 3056 :         // the _Traits::assign is last so the codegen doesn't think the char write can alias this
; 3057 :         _Traits::assign(_My_data._Bx._Buf[0], _Elem());

  00040	c6 06 00	 mov	 BYTE PTR [esi], 0
  00043	5e		 pop	 esi

; 1366 :     }

  00044	c3		 ret	 0
$LN27@basic_stri:
; File D:\Program Files\Microsoft Visual Studio\2022\Community\VC\Tools\MSVC\14.43.34808\include\xmemory

; 219  :     _STL_VERIFY(_Back_shift >= _Min_back_shift && _Back_shift <= _Non_user_size, "invalid argument");

  00045	e8 00 00 00 00	 call	 __invalid_parameter_noinfo_noreturn
$LN39@basic_stri:
  0004a	cc		 int	 3
??1?$basic_string@DU?$char_traits@D@std@@V?$allocator@D@2@@std@@QAE@XZ ENDP ; std::basic_string<char,std::char_traits<char>,std::allocator<char> >::~basic_string<char,std::char_traits<char>,std::allocator<char> >
_TEXT	ENDS
; Function compile flags: /Ogtp
; File D:\Program Files\Microsoft Visual Studio\2022\Community\VC\Tools\MSVC\14.43.34808\include\xstring
; File D:\Program Files\Microsoft Visual Studio\2022\Community\VC\Tools\MSVC\14.43.34808\include\__msvc_string_view.hpp
; File D:\Program Files\Microsoft Visual Studio\2022\Community\VC\Tools\MSVC\14.43.34808\include\xstring
; File D:\Program Files\Microsoft Visual Studio\2022\Community\VC\Tools\MSVC\14.43.34808\include\__msvc_string_view.hpp
; File D:\Program Files\Microsoft Visual Studio\2022\Community\VC\Tools\MSVC\14.43.34808\include\xstring
; File D:\Program Files\Microsoft Visual Studio\2022\Community\VC\Tools\MSVC\14.43.34808\include\xmemory
; File D:\Program Files\Microsoft Visual Studio\2022\Community\VC\Tools\MSVC\14.43.34808\include\xstring
; File D:\Program Files\Microsoft Visual Studio\2022\Community\VC\Tools\MSVC\14.43.34808\include\xmemory
; File D:\Program Files\Microsoft Visual Studio\2022\Community\VC\Tools\MSVC\14.43.34808\include\xstring
; File D:\Program Files\Microsoft Visual Studio\2022\Community\VC\Tools\MSVC\14.43.34808\include\__msvc_string_view.hpp
; File D:\Program Files\Microsoft Visual Studio\2022\Community\VC\Tools\MSVC\14.43.34808\include\xstring
; File D:\Program Files\Microsoft Visual Studio\2022\Community\VC\Tools\MSVC\14.43.34808\include\__msvc_string_view.hpp
; File D:\Program Files\Microsoft Visual Studio\2022\Community\VC\Tools\MSVC\14.43.34808\include\xstring
; File D:\Program Files\Microsoft Visual Studio\2022\Community\VC\Tools\MSVC\14.43.34808\include\__msvc_string_view.hpp
; File D:\Program Files\Microsoft Visual Studio\2022\Community\VC\Tools\MSVC\14.43.34808\include\xstring
; File D:\Program Files\Microsoft Visual Studio\2022\Community\VC\Tools\MSVC\14.43.34808\include\__msvc_string_view.hpp
; File D:\Program Files\Microsoft Visual Studio\2022\Community\VC\Tools\MSVC\14.43.34808\include\xstring
;	COMDAT ??0?$basic_string@DU?$char_traits@D@std@@V?$allocator@D@2@@std@@QAE@ABV01@@Z
_TEXT	SEGMENT
__Right$ = 8						; size = 4
??0?$basic_string@DU?$char_traits@D@std@@V?$allocator@D@2@@std@@QAE@ABV01@@Z PROC ; std::basic_string<char,std::char_traits<char>,std::allocator<char> >::basic_string<char,std::char_traits<char>,std::allocator<char> >, COMDAT
; _this$ = ecx

; 693  :         : _Mypair(_One_then_variadic_args_t{}, _Alty_traits::select_on_container_copy_construction(_Right._Getal())) {

  00000	55		 push	 ebp
  00001	8b ec		 mov	 ebp, esp

; 694  :         _Construct<_Construct_strategy::_From_string>(_Right._Mypair._Myval2._Myptr(), _Right._Mypair._Myval2._Mysize);

  00003	8b 45 08	 mov	 eax, DWORD PTR __Right$[ebp]
  00006	0f 57 c0	 xorps	 xmm0, xmm0
  00009	53		 push	 ebx
  0000a	57		 push	 edi
  0000b	8b f9		 mov	 edi, ecx

; 474  :         _CONSTEXPR20 _Bxty() noexcept : _Buf() {} // user-provided, for fancy pointers

  0000d	0f 11 07	 movups	 XMMWORD PTR [edi], xmm0

; 498  :     size_type _Mysize = 0; // current length of string (size)

  00010	c7 47 10 00 00
	00 00		 mov	 DWORD PTR [edi+16], 0

; 499  :     size_type _Myres  = 0; // current storage reserved for string (capacity)

  00017	c7 47 14 00 00
	00 00		 mov	 DWORD PTR [edi+20], 0

; 434  :         return _Myres > _Small_string_capacity;

  0001e	83 78 14 0f	 cmp	 DWORD PTR [eax+20], 15	; 0000000fH

; 694  :         _Construct<_Construct_strategy::_From_string>(_Right._Mypair._Myval2._Myptr(), _Right._Mypair._Myval2._Mysize);

  00022	8b 58 10	 mov	 ebx, DWORD PTR [eax+16]

; 426  :         if (_Large_mode_engaged()) {

  00025	76 05		 jbe	 SHORT $LN17@basic_stri

; 427  :             _Result = _Unfancy(_Bx._Ptr);

  00027	8b 00		 mov	 eax, DWORD PTR [eax]
  00029	89 45 08	 mov	 DWORD PTR __Right$[ebp], eax
$LN17@basic_stri:

; 857  :         if (_Count > max_size()) {

  0002c	81 fb ff ff ff
	7f		 cmp	 ebx, 2147483647		; 7fffffffH
  00032	0f 87 8d 00 00
	00		 ja	 $LN63@basic_stri

; 859  :         }
; 860  : 
; 861  :         auto& _Al       = _Getal();
; 862  :         auto&& _Alproxy = _GET_PROXY_ALLOCATOR(_Alty, _Al);
; 863  :         _Container_proxy_ptr<_Alty> _Proxy(_Alproxy, _My_data);
; 864  : 
; 865  :         if (_Count <= _Small_string_capacity) {

  00038	83 fb 0f	 cmp	 ebx, 15			; 0000000fH
  0003b	77 18		 ja	 SHORT $LN25@basic_stri

; 866  :             _My_data._Mysize = _Count;

  0003d	89 5f 10	 mov	 DWORD PTR [edi+16], ebx

; 867  :             _My_data._Myres  = _Small_string_capacity;

  00040	c7 47 14 0f 00
	00 00		 mov	 DWORD PTR [edi+20], 15	; 0000000fH
; File D:\Program Files\Microsoft Visual Studio\2022\Community\VC\Tools\MSVC\14.43.34808\include\__msvc_string_view.hpp

; 95   :         _CSTD memcpy(_First1, _First2, _Count * sizeof(_Elem));

  00047	0f 10 00	 movups	 xmm0, XMMWORD PTR [eax]
; File D:\Program Files\Microsoft Visual Studio\2022\Community\VC\Tools\MSVC\14.43.34808\include\xstring

; 695  :     }

  0004a	8b c7		 mov	 eax, edi
; File D:\Program Files\Microsoft Visual Studio\2022\Community\VC\Tools\MSVC\14.43.34808\include\__msvc_string_view.hpp

; 95   :         _CSTD memcpy(_First1, _First2, _Count * sizeof(_Elem));

  0004c	0f 11 07	 movups	 XMMWORD PTR [edi], xmm0
; File D:\Program Files\Microsoft Visual Studio\2022\Community\VC\Tools\MSVC\14.43.34808\include\xstring

; 695  :     }

  0004f	5f		 pop	 edi
  00050	5b		 pop	 ebx
  00051	5d		 pop	 ebp
  00052	c2 04 00	 ret	 4
$LN25@basic_stri:
  00055	56		 push	 esi

; 2942 :         const size_type _Masked = _Requested | _Alloc_mask;

  00056	8b f3		 mov	 esi, ebx
  00058	83 ce 0f	 or	 esi, 15			; 0000000fH
  0005b	81 fe ff ff ff
	7f		 cmp	 esi, 2147483647		; 7fffffffH

; 2943 :         if (_Masked > _Max) { // the mask overflows, settle for max_size()

  00061	76 12		 jbe	 SHORT $LN31@basic_stri

; 2944 :             return _Max;

  00063	b8 00 00 00 80	 mov	 eax, -2147483648	; 80000000H
  00068	be ff ff ff 7f	 mov	 esi, 2147483647		; 7fffffffH
; File D:\Program Files\Microsoft Visual Studio\2022\Community\VC\Tools\MSVC\14.43.34808\include\xmemory

; 253  :             return _Allocate_manually_vector_aligned<_Traits>(_Bytes);

  0006d	50		 push	 eax
  0006e	e8 00 00 00 00	 call	 ??$_Allocate_manually_vector_aligned@U_Default_allocate_traits@std@@@std@@YAPAXI@Z ; std::_Allocate_manually_vector_aligned<std::_Default_allocate_traits>
  00073	eb 2a		 jmp	 SHORT $LN61@basic_stri
$LN31@basic_stri:
; File D:\Program Files\Microsoft Visual Studio\2022\Community\VC\Tools\MSVC\14.43.34808\include\xstring

; 2951 :         return (_STD max)(_Masked, _Old + _Old / 2);

  00075	b8 16 00 00 00	 mov	 eax, 22			; 00000016H
  0007a	3b f0		 cmp	 esi, eax
  0007c	0f 42 f0	 cmovb	 esi, eax

; 801  :         ++_Capacity; // Take null terminator into consideration

  0007f	8d 46 01	 lea	 eax, DWORD PTR [esi+1]
; File D:\Program Files\Microsoft Visual Studio\2022\Community\VC\Tools\MSVC\14.43.34808\include\xmemory

; 227  :     if (_Bytes == 0) {

  00082	85 c0		 test	 eax, eax
  00084	75 04		 jne	 SHORT $LN45@basic_stri

; 228  :         return nullptr;

  00086	33 c9		 xor	 ecx, ecx
  00088	eb 1a		 jmp	 SHORT $LN44@basic_stri
$LN45@basic_stri:

; 229  :     }
; 230  : 
; 231  : #if _HAS_CXX20 // TRANSITION, GH-1532
; 232  :     if (_STD is_constant_evaluated()) {
; 233  :         return _Traits::_Allocate(_Bytes);
; 234  :     }
; 235  : #endif // _HAS_CXX20
; 236  : 
; 237  : #ifdef __cpp_aligned_new
; 238  :     if constexpr (_Align > __STDCPP_DEFAULT_NEW_ALIGNMENT__) {
; 239  :         size_t _Passed_align = _Align;
; 240  : #if defined(_M_IX86) || defined(_M_X64)
; 241  :         if (_Bytes >= _Big_allocation_threshold) {
; 242  :             // boost the alignment of big allocations to help autovectorization
; 243  :             _Passed_align = (_STD max)(_Align, _Big_allocation_alignment);
; 244  :         }
; 245  : #endif // defined(_M_IX86) || defined(_M_X64)
; 246  :         return _Traits::_Allocate_aligned(_Bytes, _Passed_align);
; 247  :     } else
; 248  : #endif // defined(__cpp_aligned_new)
; 249  :     {
; 250  : #if defined(_M_IX86) || defined(_M_X64)
; 251  :         if (_Bytes >= _Big_allocation_threshold) {

  0008a	3d 00 10 00 00	 cmp	 eax, 4096		; 00001000H
  0008f	72 08		 jb	 SHORT $LN46@basic_stri

; 253  :             return _Allocate_manually_vector_aligned<_Traits>(_Bytes);

  00091	50		 push	 eax
  00092	e8 00 00 00 00	 call	 ??$_Allocate_manually_vector_aligned@U_Default_allocate_traits@std@@@std@@YAPAXI@Z ; std::_Allocate_manually_vector_aligned<std::_Default_allocate_traits>
  00097	eb 06		 jmp	 SHORT $LN61@basic_stri
$LN46@basic_stri:

; 136  :         return ::operator new(_Bytes);

  00099	50		 push	 eax
  0009a	e8 00 00 00 00	 call	 ??2@YAPAXI@Z		; operator new
$LN61@basic_stri:
; File D:\Program Files\Microsoft Visual Studio\2022\Community\VC\Tools\MSVC\14.43.34808\include\xstring

; 889  :         _Construct_in_place(_My_data._Bx._Ptr, _New_ptr);

  0009f	8b c8		 mov	 ecx, eax
  000a1	83 c4 04	 add	 esp, 4
$LN44@basic_stri:

; 893  :         if constexpr (_Strat == _Construct_strategy::_From_char) {
; 894  :             _Traits::assign(_Unfancy(_New_ptr), _Count, _Arg);
; 895  :             _Traits::assign(_Unfancy(_New_ptr)[_Count], _Elem());
; 896  :         } else if constexpr (_Strat == _Construct_strategy::_From_ptr) {
; 897  :             _Traits::copy(_Unfancy(_New_ptr), _Arg, _Count);
; 898  :             _Traits::assign(_Unfancy(_New_ptr)[_Count], _Elem());
; 899  :         } else { // _Strat == _Construct_strategy::_From_string
; 900  :             _Traits::copy(_Unfancy(_New_ptr), _Arg, _Count + 1);

  000a4	8d 43 01	 lea	 eax, DWORD PTR [ebx+1]
  000a7	89 0f		 mov	 DWORD PTR [edi], ecx
; File D:\Program Files\Microsoft Visual Studio\2022\Community\VC\Tools\MSVC\14.43.34808\include\__msvc_string_view.hpp

; 95   :         _CSTD memcpy(_First1, _First2, _Count * sizeof(_Elem));

  000a9	50		 push	 eax
  000aa	ff 75 08	 push	 DWORD PTR __Right$[ebp]
; File D:\Program Files\Microsoft Visual Studio\2022\Community\VC\Tools\MSVC\14.43.34808\include\xstring

; 891  :         _My_data._Mysize = _Count;

  000ad	89 5f 10	 mov	 DWORD PTR [edi+16], ebx
; File D:\Program Files\Microsoft Visual Studio\2022\Community\VC\Tools\MSVC\14.43.34808\include\__msvc_string_view.hpp

; 95   :         _CSTD memcpy(_First1, _First2, _Count * sizeof(_Elem));

  000b0	51		 push	 ecx
; File D:\Program Files\Microsoft Visual Studio\2022\Community\VC\Tools\MSVC\14.43.34808\include\xstring

; 892  :         _My_data._Myres  = _New_capacity;

  000b1	89 77 14	 mov	 DWORD PTR [edi+20], esi
; File D:\Program Files\Microsoft Visual Studio\2022\Community\VC\Tools\MSVC\14.43.34808\include\__msvc_string_view.hpp

; 95   :         _CSTD memcpy(_First1, _First2, _Count * sizeof(_Elem));

  000b4	e8 00 00 00 00	 call	 _memcpy
  000b9	83 c4 0c	 add	 esp, 12			; 0000000cH
; File D:\Program Files\Microsoft Visual Studio\2022\Community\VC\Tools\MSVC\14.43.34808\include\xstring

; 695  :     }

  000bc	8b c7		 mov	 eax, edi
; File D:\Program Files\Microsoft Visual Studio\2022\Community\VC\Tools\MSVC\14.43.34808\include\__msvc_string_view.hpp

; 95   :         _CSTD memcpy(_First1, _First2, _Count * sizeof(_Elem));

  000be	5e		 pop	 esi
; File D:\Program Files\Microsoft Visual Studio\2022\Community\VC\Tools\MSVC\14.43.34808\include\xstring

; 695  :     }

  000bf	5f		 pop	 edi
  000c0	5b		 pop	 ebx
  000c1	5d		 pop	 ebp
  000c2	c2 04 00	 ret	 4
$LN63@basic_stri:

; 858  :             _Xlen_string(); // result too long

  000c5	e8 00 00 00 00	 call	 ?_Xlen_string@std@@YAXXZ ; std::_Xlen_string
$LN60@basic_stri:
  000ca	cc		 int	 3
??0?$basic_string@DU?$char_traits@D@std@@V?$allocator@D@2@@std@@QAE@ABV01@@Z ENDP ; std::basic_string<char,std::char_traits<char>,std::allocator<char> >::basic_string<char,std::char_traits<char>,std::allocator<char> >
_TEXT	ENDS
; Function compile flags: /Ogtp
; File D:\Program Files\Microsoft Visual Studio\2022\Community\VC\Tools\MSVC\14.43.34808\include\xstring
;	COMDAT ?_Xlen_string@std@@YAXXZ
_TEXT	SEGMENT
?_Xlen_string@std@@YAXXZ PROC				; std::_Xlen_string, COMDAT

; 512  :     _Xlength_error("string too long");

  00000	68 00 00 00 00	 push	 OFFSET ??_C@_0BA@JFNIOLAK@string?5too?5long@
  00005	e8 00 00 00 00	 call	 ?_Xlength_error@std@@YAXPBD@Z ; std::_Xlength_error
$LN3@Xlen_strin:
  0000a	cc		 int	 3
?_Xlen_string@std@@YAXXZ ENDP				; std::_Xlen_string
_TEXT	ENDS
; Function compile flags: /Ogtp
; File D:\Program Files\Microsoft Visual Studio\2022\Community\VC\Tools\MSVC\14.43.34808\include\xmemory
;	COMDAT ?_Throw_bad_array_new_length@std@@YAXXZ
_TEXT	SEGMENT
$T1 = -12						; size = 12
?_Throw_bad_array_new_length@std@@YAXXZ PROC		; std::_Throw_bad_array_new_length, COMDAT

; 107  : [[noreturn]] inline void _Throw_bad_array_new_length() {

  00000	55		 push	 ebp
  00001	8b ec		 mov	 ebp, esp
  00003	83 ec 0c	 sub	 esp, 12			; 0000000cH

; 108  :     _THROW(bad_array_new_length{});

  00006	8d 4d f4	 lea	 ecx, DWORD PTR $T1[ebp]
  00009	e8 00 00 00 00	 call	 ??0bad_array_new_length@std@@QAE@XZ ; std::bad_array_new_length::bad_array_new_length
  0000e	68 00 00 00 00	 push	 OFFSET __TI3?AVbad_array_new_length@std@@
  00013	8d 45 f4	 lea	 eax, DWORD PTR $T1[ebp]
  00016	50		 push	 eax
  00017	e8 00 00 00 00	 call	 __CxxThrowException@8
$LN3@Throw_bad_:
  0001c	cc		 int	 3
?_Throw_bad_array_new_length@std@@YAXXZ ENDP		; std::_Throw_bad_array_new_length
_TEXT	ENDS
; Function compile flags: /Ogtp
; File D:\Program Files\Microsoft Visual Studio\2022\Community\VC\Tools\MSVC\14.43.34808\include\vcruntime_exception.h
;	COMDAT ??_Gbad_array_new_length@std@@UAEPAXI@Z
_TEXT	SEGMENT
___flags$ = 8						; size = 4
??_Gbad_array_new_length@std@@UAEPAXI@Z PROC		; std::bad_array_new_length::`scalar deleting destructor', COMDAT
; _this$ = ecx
  00000	55		 push	 ebp
  00001	8b ec		 mov	 ebp, esp

; 90   :     {

  00003	56		 push	 esi
  00004	8b f1		 mov	 esi, ecx

; 91   :         __std_exception_destroy(&_Data);

  00006	8d 46 04	 lea	 eax, DWORD PTR [esi+4]
  00009	c7 06 00 00 00
	00		 mov	 DWORD PTR [esi], OFFSET ??_7exception@std@@6B@
  0000f	50		 push	 eax
  00010	e8 00 00 00 00	 call	 ___std_exception_destroy
  00015	83 c4 04	 add	 esp, 4
  00018	f6 45 08 01	 test	 BYTE PTR ___flags$[ebp], 1
  0001c	74 0b		 je	 SHORT $LN18@scalar
  0001e	6a 0c		 push	 12			; 0000000cH
  00020	56		 push	 esi
  00021	e8 00 00 00 00	 call	 ??3@YAXPAXI@Z		; operator delete
  00026	83 c4 08	 add	 esp, 8
$LN18@scalar:
  00029	8b c6		 mov	 eax, esi
  0002b	5e		 pop	 esi
  0002c	5d		 pop	 ebp
  0002d	c2 04 00	 ret	 4
??_Gbad_array_new_length@std@@UAEPAXI@Z ENDP		; std::bad_array_new_length::`scalar deleting destructor'
_TEXT	ENDS
; Function compile flags: /Ogtp
; File D:\Program Files\Microsoft Visual Studio\2022\Community\VC\Tools\MSVC\14.43.34808\include\vcruntime_exception.h
;	COMDAT ??0bad_array_new_length@std@@QAE@ABV01@@Z
_TEXT	SEGMENT
___that$ = 8						; size = 4
??0bad_array_new_length@std@@QAE@ABV01@@Z PROC		; std::bad_array_new_length::bad_array_new_length, COMDAT
; _this$ = ecx
  00000	55		 push	 ebp
  00001	8b ec		 mov	 ebp, esp

; 73   :     {

  00003	56		 push	 esi
  00004	8b f1		 mov	 esi, ecx
  00006	0f 57 c0	 xorps	 xmm0, xmm0

; 72   :         : _Data()

  00009	8d 46 04	 lea	 eax, DWORD PTR [esi+4]

; 74   :         __std_exception_copy(&_Other._Data, &_Data);

  0000c	50		 push	 eax
  0000d	c7 06 00 00 00
	00		 mov	 DWORD PTR [esi], OFFSET ??_7exception@std@@6B@
  00013	66 0f d6 00	 movq	 QWORD PTR [eax], xmm0
  00017	8b 45 08	 mov	 eax, DWORD PTR ___that$[ebp]
  0001a	83 c0 04	 add	 eax, 4
  0001d	50		 push	 eax
  0001e	e8 00 00 00 00	 call	 ___std_exception_copy
  00023	83 c4 08	 add	 esp, 8
  00026	c7 06 00 00 00
	00		 mov	 DWORD PTR [esi], OFFSET ??_7bad_array_new_length@std@@6B@
  0002c	8b c6		 mov	 eax, esi
  0002e	5e		 pop	 esi
  0002f	5d		 pop	 ebp
  00030	c2 04 00	 ret	 4
??0bad_array_new_length@std@@QAE@ABV01@@Z ENDP		; std::bad_array_new_length::bad_array_new_length
_TEXT	ENDS
; Function compile flags: /Ogtp
; File D:\Program Files\Microsoft Visual Studio\2022\Community\VC\Tools\MSVC\14.43.34808\include\vcruntime_exception.h
;	COMDAT ??1bad_array_new_length@std@@UAE@XZ
_TEXT	SEGMENT
??1bad_array_new_length@std@@UAE@XZ PROC		; std::bad_array_new_length::~bad_array_new_length, COMDAT
; _this$ = ecx

; 91   :         __std_exception_destroy(&_Data);

  00000	8d 41 04	 lea	 eax, DWORD PTR [ecx+4]
  00003	c7 01 00 00 00
	00		 mov	 DWORD PTR [ecx], OFFSET ??_7exception@std@@6B@
  00009	50		 push	 eax
  0000a	e8 00 00 00 00	 call	 ___std_exception_destroy
  0000f	59		 pop	 ecx
  00010	c3		 ret	 0
??1bad_array_new_length@std@@UAE@XZ ENDP		; std::bad_array_new_length::~bad_array_new_length
_TEXT	ENDS
; Function compile flags: /Ogtp
; File D:\Program Files\Microsoft Visual Studio\2022\Community\VC\Tools\MSVC\14.43.34808\include\vcruntime_exception.h
;	COMDAT ??0bad_array_new_length@std@@QAE@XZ
_TEXT	SEGMENT
??0bad_array_new_length@std@@QAE@XZ PROC		; std::bad_array_new_length::bad_array_new_length, COMDAT
; _this$ = ecx

; 144  :     {

  00000	0f 57 c0	 xorps	 xmm0, xmm0

; 145  :     }

  00003	8b c1		 mov	 eax, ecx

; 66   :         : _Data()

  00005	66 0f d6 41 04	 movq	 QWORD PTR [ecx+4], xmm0

; 67   :     {
; 68   :         _Data._What = _Message;

  0000a	c7 41 04 00 00
	00 00		 mov	 DWORD PTR [ecx+4], OFFSET ??_C@_0BF@KINCDENJ@bad?5array?5new?5length@

; 144  :     {

  00011	c7 01 00 00 00
	00		 mov	 DWORD PTR [ecx], OFFSET ??_7bad_array_new_length@std@@6B@

; 145  :     }

  00017	c3		 ret	 0
??0bad_array_new_length@std@@QAE@XZ ENDP		; std::bad_array_new_length::bad_array_new_length
_TEXT	ENDS
; Function compile flags: /Ogtp
; File D:\Program Files\Microsoft Visual Studio\2022\Community\VC\Tools\MSVC\14.43.34808\include\vcruntime_exception.h
;	COMDAT ??_Gbad_alloc@std@@UAEPAXI@Z
_TEXT	SEGMENT
___flags$ = 8						; size = 4
??_Gbad_alloc@std@@UAEPAXI@Z PROC			; std::bad_alloc::`scalar deleting destructor', COMDAT
; _this$ = ecx
  00000	55		 push	 ebp
  00001	8b ec		 mov	 ebp, esp

; 90   :     {

  00003	56		 push	 esi
  00004	8b f1		 mov	 esi, ecx

; 91   :         __std_exception_destroy(&_Data);

  00006	8d 46 04	 lea	 eax, DWORD PTR [esi+4]
  00009	c7 06 00 00 00
	00		 mov	 DWORD PTR [esi], OFFSET ??_7exception@std@@6B@
  0000f	50		 push	 eax
  00010	e8 00 00 00 00	 call	 ___std_exception_destroy
  00015	83 c4 04	 add	 esp, 4
  00018	f6 45 08 01	 test	 BYTE PTR ___flags$[ebp], 1
  0001c	74 0b		 je	 SHORT $LN13@scalar
  0001e	6a 0c		 push	 12			; 0000000cH
  00020	56		 push	 esi
  00021	e8 00 00 00 00	 call	 ??3@YAXPAXI@Z		; operator delete
  00026	83 c4 08	 add	 esp, 8
$LN13@scalar:
  00029	8b c6		 mov	 eax, esi
  0002b	5e		 pop	 esi
  0002c	5d		 pop	 ebp
  0002d	c2 04 00	 ret	 4
??_Gbad_alloc@std@@UAEPAXI@Z ENDP			; std::bad_alloc::`scalar deleting destructor'
_TEXT	ENDS
; Function compile flags: /Ogtp
; File D:\Program Files\Microsoft Visual Studio\2022\Community\VC\Tools\MSVC\14.43.34808\include\vcruntime_exception.h
;	COMDAT ??0bad_alloc@std@@QAE@ABV01@@Z
_TEXT	SEGMENT
___that$ = 8						; size = 4
??0bad_alloc@std@@QAE@ABV01@@Z PROC			; std::bad_alloc::bad_alloc, COMDAT
; _this$ = ecx
  00000	55		 push	 ebp
  00001	8b ec		 mov	 ebp, esp

; 73   :     {

  00003	56		 push	 esi
  00004	8b f1		 mov	 esi, ecx
  00006	0f 57 c0	 xorps	 xmm0, xmm0

; 72   :         : _Data()

  00009	8d 46 04	 lea	 eax, DWORD PTR [esi+4]

; 74   :         __std_exception_copy(&_Other._Data, &_Data);

  0000c	50		 push	 eax
  0000d	c7 06 00 00 00
	00		 mov	 DWORD PTR [esi], OFFSET ??_7exception@std@@6B@
  00013	66 0f d6 00	 movq	 QWORD PTR [eax], xmm0
  00017	8b 45 08	 mov	 eax, DWORD PTR ___that$[ebp]
  0001a	83 c0 04	 add	 eax, 4
  0001d	50		 push	 eax
  0001e	e8 00 00 00 00	 call	 ___std_exception_copy
  00023	83 c4 08	 add	 esp, 8
  00026	c7 06 00 00 00
	00		 mov	 DWORD PTR [esi], OFFSET ??_7bad_alloc@std@@6B@
  0002c	8b c6		 mov	 eax, esi
  0002e	5e		 pop	 esi
  0002f	5d		 pop	 ebp
  00030	c2 04 00	 ret	 4
??0bad_alloc@std@@QAE@ABV01@@Z ENDP			; std::bad_alloc::bad_alloc
_TEXT	ENDS
; Function compile flags: /Ogtp
; File D:\Program Files\Microsoft Visual Studio\2022\Community\VC\Tools\MSVC\14.43.34808\include\vcruntime_exception.h
;	COMDAT ??_Gexception@std@@UAEPAXI@Z
_TEXT	SEGMENT
___flags$ = 8						; size = 4
??_Gexception@std@@UAEPAXI@Z PROC			; std::exception::`scalar deleting destructor', COMDAT
; _this$ = ecx
  00000	55		 push	 ebp
  00001	8b ec		 mov	 ebp, esp

; 90   :     {

  00003	56		 push	 esi
  00004	8b f1		 mov	 esi, ecx

; 91   :         __std_exception_destroy(&_Data);

  00006	8d 46 04	 lea	 eax, DWORD PTR [esi+4]
  00009	c7 06 00 00 00
	00		 mov	 DWORD PTR [esi], OFFSET ??_7exception@std@@6B@
  0000f	50		 push	 eax
  00010	e8 00 00 00 00	 call	 ___std_exception_destroy
  00015	83 c4 04	 add	 esp, 4
  00018	f6 45 08 01	 test	 BYTE PTR ___flags$[ebp], 1
  0001c	74 0b		 je	 SHORT $LN8@scalar
  0001e	6a 0c		 push	 12			; 0000000cH
  00020	56		 push	 esi
  00021	e8 00 00 00 00	 call	 ??3@YAXPAXI@Z		; operator delete
  00026	83 c4 08	 add	 esp, 8
$LN8@scalar:
  00029	8b c6		 mov	 eax, esi
  0002b	5e		 pop	 esi
  0002c	5d		 pop	 ebp
  0002d	c2 04 00	 ret	 4
??_Gexception@std@@UAEPAXI@Z ENDP			; std::exception::`scalar deleting destructor'
_TEXT	ENDS
; Function compile flags: /Ogtp
; File D:\Program Files\Microsoft Visual Studio\2022\Community\VC\Tools\MSVC\14.43.34808\include\vcruntime_exception.h
;	COMDAT ?what@exception@std@@UBEPBDXZ
_TEXT	SEGMENT
?what@exception@std@@UBEPBDXZ PROC			; std::exception::what, COMDAT
; _this$ = ecx

; 96   :         return _Data._What ? _Data._What : "Unknown exception";

  00000	8b 49 04	 mov	 ecx, DWORD PTR [ecx+4]
  00003	b8 00 00 00 00	 mov	 eax, OFFSET ??_C@_0BC@EOODALEL@Unknown?5exception@
  00008	85 c9		 test	 ecx, ecx
  0000a	0f 45 c1	 cmovne	 eax, ecx

; 97   :     }

  0000d	c3		 ret	 0
?what@exception@std@@UBEPBDXZ ENDP			; std::exception::what
_TEXT	ENDS
; Function compile flags: /Ogtp
; File D:\Program Files\Microsoft Visual Studio\2022\Community\VC\Tools\MSVC\14.43.34808\include\vcruntime_exception.h
;	COMDAT ??1exception@std@@UAE@XZ
_TEXT	SEGMENT
??1exception@std@@UAE@XZ PROC				; std::exception::~exception, COMDAT
; _this$ = ecx

; 91   :         __std_exception_destroy(&_Data);

  00000	8d 41 04	 lea	 eax, DWORD PTR [ecx+4]
  00003	c7 01 00 00 00
	00		 mov	 DWORD PTR [ecx], OFFSET ??_7exception@std@@6B@
  00009	50		 push	 eax
  0000a	e8 00 00 00 00	 call	 ___std_exception_destroy
  0000f	59		 pop	 ecx

; 92   :     }

  00010	c3		 ret	 0
??1exception@std@@UAE@XZ ENDP				; std::exception::~exception
_TEXT	ENDS
; Function compile flags: /Ogtp
; File D:\Program Files\Microsoft Visual Studio\2022\Community\VC\Tools\MSVC\14.43.34808\include\vcruntime_exception.h
;	COMDAT ??0exception@std@@QAE@ABV01@@Z
_TEXT	SEGMENT
__Other$ = 8						; size = 4
??0exception@std@@QAE@ABV01@@Z PROC			; std::exception::exception, COMDAT
; _this$ = ecx

; 73   :     {

  00000	55		 push	 ebp
  00001	8b ec		 mov	 ebp, esp
  00003	56		 push	 esi
  00004	8b f1		 mov	 esi, ecx
  00006	0f 57 c0	 xorps	 xmm0, xmm0
  00009	8d 46 04	 lea	 eax, DWORD PTR [esi+4]

; 74   :         __std_exception_copy(&_Other._Data, &_Data);

  0000c	50		 push	 eax
  0000d	c7 06 00 00 00
	00		 mov	 DWORD PTR [esi], OFFSET ??_7exception@std@@6B@
  00013	66 0f d6 00	 movq	 QWORD PTR [eax], xmm0
  00017	8b 45 08	 mov	 eax, DWORD PTR __Other$[ebp]
  0001a	83 c0 04	 add	 eax, 4
  0001d	50		 push	 eax
  0001e	e8 00 00 00 00	 call	 ___std_exception_copy
  00023	83 c4 08	 add	 esp, 8

; 75   :     }

  00026	8b c6		 mov	 eax, esi
  00028	5e		 pop	 esi
  00029	5d		 pop	 ebp
  0002a	c2 04 00	 ret	 4
??0exception@std@@QAE@ABV01@@Z ENDP			; std::exception::exception
_TEXT	ENDS
; Function compile flags: /Ogtp
; File D:\Windows Kits\10\Include\10.0.26100.0\ucrt\stdio.h
;	COMDAT _fprintf
_TEXT	SEGMENT
__Stream$ = 8						; size = 4
__Format$ = 12						; size = 4
_fprintf PROC						; COMDAT

; 837  :     {

  00000	55		 push	 ebp
  00001	8b ec		 mov	 ebp, esp

; 645  :         return __stdio_common_vfprintf(_CRT_INTERNAL_LOCAL_PRINTF_OPTIONS, _Stream, _Format, _Locale, _ArgList);

  00003	8d 45 10	 lea	 eax, DWORD PTR __Format$[ebp+4]
  00006	50		 push	 eax
  00007	6a 00		 push	 0
  00009	ff 75 0c	 push	 DWORD PTR __Format$[ebp]
  0000c	ff 75 08	 push	 DWORD PTR __Stream$[ebp]
  0000f	e8 00 00 00 00	 call	 ___local_stdio_printf_options
  00014	ff 70 04	 push	 DWORD PTR [eax+4]
  00017	ff 30		 push	 DWORD PTR [eax]
  00019	e8 00 00 00 00	 call	 ___stdio_common_vfprintf
  0001e	83 c4 18	 add	 esp, 24			; 00000018H

; 838  :         int _Result;
; 839  :         va_list _ArgList;
; 840  :         __crt_va_start(_ArgList, _Format);
; 841  :         _Result = _vfprintf_l(_Stream, _Format, NULL, _ArgList);
; 842  :         __crt_va_end(_ArgList);
; 843  :         return _Result;
; 844  :     }

  00021	5d		 pop	 ebp
  00022	c3		 ret	 0
_fprintf ENDP
_TEXT	ENDS
; Function compile flags: /Ogtp
; File D:\Windows Kits\10\Include\10.0.26100.0\ucrt\corecrt_stdio_config.h
;	COMDAT ___local_stdio_printf_options
_TEXT	SEGMENT
___local_stdio_printf_options PROC			; COMDAT

; 91   :         static unsigned __int64 _OptionsStorage;
; 92   :         return &_OptionsStorage;

  00000	b8 00 00 00 00	 mov	 eax, OFFSET ?_OptionsStorage@?1??__local_stdio_printf_options@@9@4_KA ; `__local_stdio_printf_options'::`2'::_OptionsStorage

; 93   :     }

  00005	c3		 ret	 0
___local_stdio_printf_options ENDP
_TEXT	ENDS
END
