; Listing generated by Microsoft (R) Optimizing Compiler Version 19.43.34808.0 

	TITLE	C:\Marty 5.5\Src-Client\Client\EterBase\Distribute\Stl.obj
	.686P
	.XMM
	include listing.inc
	.model	flat

INCLUDELIB LIBCMT
INCLUDELIB OLDNAMES

PUBLIC	?_Fake_alloc@std@@3U_Fake_allocator@1@B		; std::_Fake_alloc
;	COMDAT ?_Fake_alloc@std@@3U_Fake_allocator@1@B
CONST	SEGMENT
?_Fake_alloc@std@@3U_Fake_allocator@1@B	ORG $+1		; std::_Fake_alloc
CONST	ENDS
PUBLIC	??0exception@std@@QAE@ABV01@@Z			; std::exception::exception
PUBLIC	??1exception@std@@UAE@XZ			; std::exception::~exception
PUBLIC	?what@exception@std@@UBEPBDXZ			; std::exception::what
PUBLIC	??_Gexception@std@@UAEPAXI@Z			; std::exception::`scalar deleting destructor'
PUBLIC	??0bad_alloc@std@@QAE@ABV01@@Z			; std::bad_alloc::bad_alloc
PUBLIC	??_Gbad_alloc@std@@UAEPAXI@Z			; std::bad_alloc::`scalar deleting destructor'
PUBLIC	??0bad_array_new_length@std@@QAE@XZ		; std::bad_array_new_length::bad_array_new_length
PUBLIC	??1bad_array_new_length@std@@UAE@XZ		; std::bad_array_new_length::~bad_array_new_length
PUBLIC	??0bad_array_new_length@std@@QAE@ABV01@@Z	; std::bad_array_new_length::bad_array_new_length
PUBLIC	??_Gbad_array_new_length@std@@UAEPAXI@Z		; std::bad_array_new_length::`scalar deleting destructor'
PUBLIC	?_Throw_bad_array_new_length@std@@YAXXZ		; std::_Throw_bad_array_new_length
PUBLIC	?_Xlen_string@std@@YAXXZ			; std::_Xlen_string
PUBLIC	?_Xran@?$_String_val@U?$_Simple_types@D@std@@@std@@SAXXZ ; std::_String_val<std::_Simple_types<char> >::_Xran
PUBLIC	??0?$basic_string@DU?$char_traits@D@std@@V?$allocator@D@2@@std@@QAE@ABV01@@Z ; std::basic_string<char,std::char_traits<char>,std::allocator<char> >::basic_string<char,std::char_traits<char>,std::allocator<char> >
PUBLIC	??1?$basic_string@DU?$char_traits@D@std@@V?$allocator@D@2@@std@@QAE@XZ ; std::basic_string<char,std::char_traits<char>,std::allocator<char> >::~basic_string<char,std::char_traits<char>,std::allocator<char> >
PUBLIC	?find@?$basic_string@DU?$char_traits@D@std@@V?$allocator@D@2@@std@@QBEIABV12@I@Z ; std::basic_string<char,std::char_traits<char>,std::allocator<char> >::find
PUBLIC	??$_Construct@$00PBD@?$basic_string@DU?$char_traits@D@std@@V?$allocator@D@2@@std@@AAEXQBDI@Z ; std::basic_string<char,std::char_traits<char>,std::allocator<char> >::_Construct<1,char const *>
PUBLIC	??$_Search_vectorized@$$CBD$$CBD@std@@YAPBDQBD00I@Z ; std::_Search_vectorized<char const ,char const >
PUBLIC	??$_Allocate_manually_vector_aligned@U_Default_allocate_traits@std@@@std@@YAPAXI@Z ; std::_Allocate_manually_vector_aligned<std::_Default_allocate_traits>
PUBLIC	?korean_tolower@@YADD@Z				; korean_tolower
PUBLIC	?stl_static_string@@YAAAV?$basic_string@DU?$char_traits@D@std@@V?$allocator@D@2@@std@@PBD@Z ; stl_static_string
PUBLIC	?stl_lowers@@YAXAAV?$basic_string@DU?$char_traits@D@std@@V?$allocator@D@2@@std@@@Z ; stl_lowers
PUBLIC	?split_string@@YAHABV?$basic_string@DU?$char_traits@D@std@@V?$allocator@D@2@@std@@0AAV?$vector@V?$basic_string@DU?$char_traits@D@std@@V?$allocator@D@2@@std@@V?$allocator@V?$basic_string@DU?$char_traits@D@std@@V?$allocator@D@2@@std@@@2@@2@_N@Z ; split_string
PUBLIC	??1?$vector@HV?$allocator@H@std@@@std@@QAE@XZ	; std::vector<int,std::allocator<int> >::~vector<int,std::allocator<int> >
PUBLIC	?_Xlength@?$vector@HV?$allocator@H@std@@@std@@CAXXZ ; std::vector<int,std::allocator<int> >::_Xlength
PUBLIC	?_Xlength@?$vector@V?$basic_string@DU?$char_traits@D@std@@V?$allocator@D@2@@std@@V?$allocator@V?$basic_string@DU?$char_traits@D@std@@V?$allocator@D@2@@std@@@2@@std@@CAXXZ ; std::vector<std::basic_string<char,std::char_traits<char>,std::allocator<char> >,std::allocator<std::basic_string<char,std::char_traits<char>,std::allocator<char> > > >::_Xlength
PUBLIC	??$_Emplace_reallocate@ABV?$basic_string@DU?$char_traits@D@std@@V?$allocator@D@2@@std@@@?$vector@V?$basic_string@DU?$char_traits@D@std@@V?$allocator@D@2@@std@@V?$allocator@V?$basic_string@DU?$char_traits@D@std@@V?$allocator@D@2@@std@@@2@@std@@AAEPAV?$basic_string@DU?$char_traits@D@std@@V?$allocator@D@2@@1@QAV21@ABV21@@Z ; std::vector<std::basic_string<char,std::char_traits<char>,std::allocator<char> >,std::allocator<std::basic_string<char,std::char_traits<char>,std::allocator<char> > > >::_Emplace_reallocate<std::basic_string<char,std::char_traits<char>,std::allocator<char> > const &>
PUBLIC	??$_Emplace_reallocate@ABH@?$vector@HV?$allocator@H@std@@@std@@AAEPAHQAHABH@Z ; std::vector<int,std::allocator<int> >::_Emplace_reallocate<int const &>
PUBLIC	??1?$_Alloc_construct_ptr@V?$allocator@U?$_List_node@V?$basic_string@DU?$char_traits@D@std@@V?$allocator@D@2@@std@@PAX@std@@@std@@@std@@QAE@XZ ; std::_Alloc_construct_ptr<std::allocator<std::_List_node<std::basic_string<char,std::char_traits<char>,std::allocator<char> >,void *> > >::~_Alloc_construct_ptr<std::allocator<std::_List_node<std::basic_string<char,std::char_traits<char>,std::allocator<char> >,void *> > >
PUBLIC	??1_Reallocation_guard@?$vector@V?$basic_string@DU?$char_traits@D@std@@V?$allocator@D@2@@std@@V?$allocator@V?$basic_string@DU?$char_traits@D@std@@V?$allocator@D@2@@std@@@2@@std@@QAE@XZ ; std::vector<std::basic_string<char,std::char_traits<char>,std::allocator<char> >,std::allocator<std::basic_string<char,std::char_traits<char>,std::allocator<char> > > >::_Reallocation_guard::~_Reallocation_guard
PUBLIC	??$_Uninitialized_move@PAV?$basic_string@DU?$char_traits@D@std@@V?$allocator@D@2@@std@@V?$allocator@V?$basic_string@DU?$char_traits@D@std@@V?$allocator@D@2@@std@@@2@@std@@YAPAV?$basic_string@DU?$char_traits@D@std@@V?$allocator@D@2@@0@QAV10@0PAV10@AAV?$allocator@V?$basic_string@DU?$char_traits@D@std@@V?$allocator@D@2@@std@@@0@@Z ; std::_Uninitialized_move<std::basic_string<char,std::char_traits<char>,std::allocator<char> > *,std::allocator<std::basic_string<char,std::char_traits<char>,std::allocator<char> > > >
PUBLIC	??$_Destroy_range@V?$allocator@V?$basic_string@DU?$char_traits@D@std@@V?$allocator@D@2@@std@@@std@@@std@@YAXPAV?$basic_string@DU?$char_traits@D@std@@V?$allocator@D@2@@0@QAV10@AAV?$allocator@V?$basic_string@DU?$char_traits@D@std@@V?$allocator@D@2@@std@@@0@@Z ; std::_Destroy_range<std::allocator<std::basic_string<char,std::char_traits<char>,std::allocator<char> > > >
PUBLIC	??$_Copy_memmove@PAHPAH@std@@YAPAHPAH00@Z	; std::_Copy_memmove<int *,int *>
PUBLIC	??$_Copy_memmove_tail@PAH@std@@YAPAHQBDQAHII@Z	; std::_Copy_memmove_tail<int *>
PUBLIC	??_7exception@std@@6B@				; std::exception::`vftable'
PUBLIC	??_C@_0BC@EOODALEL@Unknown?5exception@		; `string'
PUBLIC	??_7bad_alloc@std@@6B@				; std::bad_alloc::`vftable'
PUBLIC	??_7bad_array_new_length@std@@6B@		; std::bad_array_new_length::`vftable'
PUBLIC	??_C@_0BF@KINCDENJ@bad?5array?5new?5length@	; `string'
PUBLIC	??_R0?AVexception@std@@@8			; std::exception `RTTI Type Descriptor'
PUBLIC	__CT??_R0?AVexception@std@@@8??0exception@std@@QAE@ABV01@@Z12
PUBLIC	__TI3?AVbad_array_new_length@std@@
PUBLIC	__CTA3?AVbad_array_new_length@std@@
PUBLIC	??_R0?AVbad_array_new_length@std@@@8		; std::bad_array_new_length `RTTI Type Descriptor'
PUBLIC	__CT??_R0?AVbad_array_new_length@std@@@8??0bad_array_new_length@std@@QAE@ABV01@@Z12
PUBLIC	??_R0?AVbad_alloc@std@@@8			; std::bad_alloc `RTTI Type Descriptor'
PUBLIC	__CT??_R0?AVbad_alloc@std@@@8??0bad_alloc@std@@QAE@ABV01@@Z12
PUBLIC	??_C@_0BA@JFNIOLAK@string?5too?5long@		; `string'
PUBLIC	??_C@_0BI@CFPLBAOH@invalid?5string?5position@	; `string'
PUBLIC	??_R4exception@std@@6B@				; std::exception::`RTTI Complete Object Locator'
PUBLIC	??_R3exception@std@@8				; std::exception::`RTTI Class Hierarchy Descriptor'
PUBLIC	??_R2exception@std@@8				; std::exception::`RTTI Base Class Array'
PUBLIC	??_R1A@?0A@EA@exception@std@@8			; std::exception::`RTTI Base Class Descriptor at (0,-1,0,64)'
PUBLIC	??_R4bad_array_new_length@std@@6B@		; std::bad_array_new_length::`RTTI Complete Object Locator'
PUBLIC	??_R3bad_array_new_length@std@@8		; std::bad_array_new_length::`RTTI Class Hierarchy Descriptor'
PUBLIC	??_R2bad_array_new_length@std@@8		; std::bad_array_new_length::`RTTI Base Class Array'
PUBLIC	??_R1A@?0A@EA@bad_array_new_length@std@@8	; std::bad_array_new_length::`RTTI Base Class Descriptor at (0,-1,0,64)'
PUBLIC	??_R1A@?0A@EA@bad_alloc@std@@8			; std::bad_alloc::`RTTI Base Class Descriptor at (0,-1,0,64)'
PUBLIC	??_R3bad_alloc@std@@8				; std::bad_alloc::`RTTI Class Hierarchy Descriptor'
PUBLIC	??_R2bad_alloc@std@@8				; std::bad_alloc::`RTTI Base Class Array'
PUBLIC	??_R4bad_alloc@std@@6B@				; std::bad_alloc::`RTTI Complete Object Locator'
PUBLIC	??_C@_0O@NKNMEGII@list?5too?5long@		; `string'
PUBLIC	??_C@_0BA@FOIKENOD@vector?5too?5long@		; `string'
EXTRN	??2@YAPAXI@Z:PROC				; operator new
EXTRN	??3@YAXPAXI@Z:PROC				; operator delete
EXTRN	_atexit:PROC
EXTRN	__invalid_parameter_noinfo_noreturn:PROC
EXTRN	___std_search_1@16:PROC
EXTRN	?_Xlength_error@std@@YAXPBD@Z:PROC		; std::_Xlength_error
EXTRN	?_Xout_of_range@std@@YAXPBD@Z:PROC		; std::_Xout_of_range
EXTRN	___std_exception_copy:PROC
EXTRN	___std_exception_destroy:PROC
EXTRN	??_Eexception@std@@UAEPAXI@Z:PROC		; std::exception::`vector deleting destructor'
EXTRN	??_Ebad_alloc@std@@UAEPAXI@Z:PROC		; std::bad_alloc::`vector deleting destructor'
EXTRN	??_Ebad_array_new_length@std@@UAEPAXI@Z:PROC	; std::bad_array_new_length::`vector deleting destructor'
EXTRN	@__security_check_cookie@4:PROC
EXTRN	__CxxThrowException@8:PROC
EXTRN	___CxxFrameHandler3:PROC
EXTRN	_memchr:PROC
EXTRN	_memcpy:PROC
EXTRN	_memmove:PROC
EXTRN	??_7type_info@@6B@:QWORD			; type_info::`vftable'
EXTRN	___security_cookie:DWORD
_BSS	SEGMENT
?s_stList@@3V?$list@V?$basic_string@DU?$char_traits@D@std@@V?$allocator@D@2@@std@@V?$allocator@V?$basic_string@DU?$char_traits@D@std@@V?$allocator@D@2@@std@@@2@@std@@A DQ 01H DUP (?) ; s_stList
_BSS	ENDS
CRT$XCU	SEGMENT
?s_stList$initializer$@@3P6AXXZA DD FLAT:??__Es_stList@@YAXXZ ; s_stList$initializer$
CRT$XCU	ENDS
;	COMDAT ??_C@_0BA@FOIKENOD@vector?5too?5long@
CONST	SEGMENT
??_C@_0BA@FOIKENOD@vector?5too?5long@ DB 'vector too long', 00H ; `string'
CONST	ENDS
;	COMDAT ??_C@_0O@NKNMEGII@list?5too?5long@
CONST	SEGMENT
??_C@_0O@NKNMEGII@list?5too?5long@ DB 'list too long', 00H ; `string'
CONST	ENDS
;	COMDAT ??_R4bad_alloc@std@@6B@
rdata$r	SEGMENT
??_R4bad_alloc@std@@6B@ DD 00H				; std::bad_alloc::`RTTI Complete Object Locator'
	DD	00H
	DD	00H
	DD	FLAT:??_R0?AVbad_alloc@std@@@8
	DD	FLAT:??_R3bad_alloc@std@@8
rdata$r	ENDS
;	COMDAT ??_R2bad_alloc@std@@8
rdata$r	SEGMENT
??_R2bad_alloc@std@@8 DD FLAT:??_R1A@?0A@EA@bad_alloc@std@@8 ; std::bad_alloc::`RTTI Base Class Array'
	DD	FLAT:??_R1A@?0A@EA@exception@std@@8
rdata$r	ENDS
;	COMDAT ??_R3bad_alloc@std@@8
rdata$r	SEGMENT
??_R3bad_alloc@std@@8 DD 00H				; std::bad_alloc::`RTTI Class Hierarchy Descriptor'
	DD	00H
	DD	02H
	DD	FLAT:??_R2bad_alloc@std@@8
rdata$r	ENDS
;	COMDAT ??_R1A@?0A@EA@bad_alloc@std@@8
rdata$r	SEGMENT
??_R1A@?0A@EA@bad_alloc@std@@8 DD FLAT:??_R0?AVbad_alloc@std@@@8 ; std::bad_alloc::`RTTI Base Class Descriptor at (0,-1,0,64)'
	DD	01H
	DD	00H
	DD	0ffffffffH
	DD	00H
	DD	040H
	DD	FLAT:??_R3bad_alloc@std@@8
rdata$r	ENDS
;	COMDAT ??_R1A@?0A@EA@bad_array_new_length@std@@8
rdata$r	SEGMENT
??_R1A@?0A@EA@bad_array_new_length@std@@8 DD FLAT:??_R0?AVbad_array_new_length@std@@@8 ; std::bad_array_new_length::`RTTI Base Class Descriptor at (0,-1,0,64)'
	DD	02H
	DD	00H
	DD	0ffffffffH
	DD	00H
	DD	040H
	DD	FLAT:??_R3bad_array_new_length@std@@8
rdata$r	ENDS
;	COMDAT ??_R2bad_array_new_length@std@@8
rdata$r	SEGMENT
??_R2bad_array_new_length@std@@8 DD FLAT:??_R1A@?0A@EA@bad_array_new_length@std@@8 ; std::bad_array_new_length::`RTTI Base Class Array'
	DD	FLAT:??_R1A@?0A@EA@bad_alloc@std@@8
	DD	FLAT:??_R1A@?0A@EA@exception@std@@8
rdata$r	ENDS
;	COMDAT ??_R3bad_array_new_length@std@@8
rdata$r	SEGMENT
??_R3bad_array_new_length@std@@8 DD 00H			; std::bad_array_new_length::`RTTI Class Hierarchy Descriptor'
	DD	00H
	DD	03H
	DD	FLAT:??_R2bad_array_new_length@std@@8
rdata$r	ENDS
;	COMDAT ??_R4bad_array_new_length@std@@6B@
rdata$r	SEGMENT
??_R4bad_array_new_length@std@@6B@ DD 00H		; std::bad_array_new_length::`RTTI Complete Object Locator'
	DD	00H
	DD	00H
	DD	FLAT:??_R0?AVbad_array_new_length@std@@@8
	DD	FLAT:??_R3bad_array_new_length@std@@8
rdata$r	ENDS
;	COMDAT ??_R1A@?0A@EA@exception@std@@8
rdata$r	SEGMENT
??_R1A@?0A@EA@exception@std@@8 DD FLAT:??_R0?AVexception@std@@@8 ; std::exception::`RTTI Base Class Descriptor at (0,-1,0,64)'
	DD	00H
	DD	00H
	DD	0ffffffffH
	DD	00H
	DD	040H
	DD	FLAT:??_R3exception@std@@8
rdata$r	ENDS
;	COMDAT ??_R2exception@std@@8
rdata$r	SEGMENT
??_R2exception@std@@8 DD FLAT:??_R1A@?0A@EA@exception@std@@8 ; std::exception::`RTTI Base Class Array'
rdata$r	ENDS
;	COMDAT ??_R3exception@std@@8
rdata$r	SEGMENT
??_R3exception@std@@8 DD 00H				; std::exception::`RTTI Class Hierarchy Descriptor'
	DD	00H
	DD	01H
	DD	FLAT:??_R2exception@std@@8
rdata$r	ENDS
;	COMDAT ??_R4exception@std@@6B@
rdata$r	SEGMENT
??_R4exception@std@@6B@ DD 00H				; std::exception::`RTTI Complete Object Locator'
	DD	00H
	DD	00H
	DD	FLAT:??_R0?AVexception@std@@@8
	DD	FLAT:??_R3exception@std@@8
rdata$r	ENDS
;	COMDAT ??_C@_0BI@CFPLBAOH@invalid?5string?5position@
CONST	SEGMENT
??_C@_0BI@CFPLBAOH@invalid?5string?5position@ DB 'invalid string position'
	DB	00H						; `string'
CONST	ENDS
;	COMDAT ??_C@_0BA@JFNIOLAK@string?5too?5long@
CONST	SEGMENT
??_C@_0BA@JFNIOLAK@string?5too?5long@ DB 'string too long', 00H ; `string'
CONST	ENDS
;	COMDAT __CT??_R0?AVbad_alloc@std@@@8??0bad_alloc@std@@QAE@ABV01@@Z12
xdata$x	SEGMENT
__CT??_R0?AVbad_alloc@std@@@8??0bad_alloc@std@@QAE@ABV01@@Z12 DD 010H
	DD	FLAT:??_R0?AVbad_alloc@std@@@8
	DD	00H
	DD	0ffffffffH
	ORG $+4
	DD	0cH
	DD	FLAT:??0bad_alloc@std@@QAE@ABV01@@Z
xdata$x	ENDS
;	COMDAT ??_R0?AVbad_alloc@std@@@8
data$r	SEGMENT
??_R0?AVbad_alloc@std@@@8 DD FLAT:??_7type_info@@6B@	; std::bad_alloc `RTTI Type Descriptor'
	DD	00H
	DB	'.?AVbad_alloc@std@@', 00H
data$r	ENDS
;	COMDAT __CT??_R0?AVbad_array_new_length@std@@@8??0bad_array_new_length@std@@QAE@ABV01@@Z12
xdata$x	SEGMENT
__CT??_R0?AVbad_array_new_length@std@@@8??0bad_array_new_length@std@@QAE@ABV01@@Z12 DD 00H
	DD	FLAT:??_R0?AVbad_array_new_length@std@@@8
	DD	00H
	DD	0ffffffffH
	ORG $+4
	DD	0cH
	DD	FLAT:??0bad_array_new_length@std@@QAE@ABV01@@Z
xdata$x	ENDS
;	COMDAT ??_R0?AVbad_array_new_length@std@@@8
data$r	SEGMENT
??_R0?AVbad_array_new_length@std@@@8 DD FLAT:??_7type_info@@6B@ ; std::bad_array_new_length `RTTI Type Descriptor'
	DD	00H
	DB	'.?AVbad_array_new_length@std@@', 00H
data$r	ENDS
;	COMDAT __CTA3?AVbad_array_new_length@std@@
xdata$x	SEGMENT
__CTA3?AVbad_array_new_length@std@@ DD 03H
	DD	FLAT:__CT??_R0?AVbad_array_new_length@std@@@8??0bad_array_new_length@std@@QAE@ABV01@@Z12
	DD	FLAT:__CT??_R0?AVbad_alloc@std@@@8??0bad_alloc@std@@QAE@ABV01@@Z12
	DD	FLAT:__CT??_R0?AVexception@std@@@8??0exception@std@@QAE@ABV01@@Z12
xdata$x	ENDS
;	COMDAT __TI3?AVbad_array_new_length@std@@
xdata$x	SEGMENT
__TI3?AVbad_array_new_length@std@@ DD 00H
	DD	FLAT:??1bad_array_new_length@std@@UAE@XZ
	DD	00H
	DD	FLAT:__CTA3?AVbad_array_new_length@std@@
xdata$x	ENDS
;	COMDAT __CT??_R0?AVexception@std@@@8??0exception@std@@QAE@ABV01@@Z12
xdata$x	SEGMENT
__CT??_R0?AVexception@std@@@8??0exception@std@@QAE@ABV01@@Z12 DD 00H
	DD	FLAT:??_R0?AVexception@std@@@8
	DD	00H
	DD	0ffffffffH
	ORG $+4
	DD	0cH
	DD	FLAT:??0exception@std@@QAE@ABV01@@Z
xdata$x	ENDS
;	COMDAT ??_R0?AVexception@std@@@8
data$r	SEGMENT
??_R0?AVexception@std@@@8 DD FLAT:??_7type_info@@6B@	; std::exception `RTTI Type Descriptor'
	DD	00H
	DB	'.?AVexception@std@@', 00H
data$r	ENDS
;	COMDAT ??_C@_0BF@KINCDENJ@bad?5array?5new?5length@
CONST	SEGMENT
??_C@_0BF@KINCDENJ@bad?5array?5new?5length@ DB 'bad array new length', 00H ; `string'
CONST	ENDS
;	COMDAT ??_7bad_array_new_length@std@@6B@
CONST	SEGMENT
??_7bad_array_new_length@std@@6B@ DD FLAT:??_R4bad_array_new_length@std@@6B@ ; std::bad_array_new_length::`vftable'
	DD	FLAT:??_Ebad_array_new_length@std@@UAEPAXI@Z
	DD	FLAT:?what@exception@std@@UBEPBDXZ
CONST	ENDS
;	COMDAT ??_7bad_alloc@std@@6B@
CONST	SEGMENT
??_7bad_alloc@std@@6B@ DD FLAT:??_R4bad_alloc@std@@6B@	; std::bad_alloc::`vftable'
	DD	FLAT:??_Ebad_alloc@std@@UAEPAXI@Z
	DD	FLAT:?what@exception@std@@UBEPBDXZ
CONST	ENDS
;	COMDAT ??_C@_0BC@EOODALEL@Unknown?5exception@
CONST	SEGMENT
??_C@_0BC@EOODALEL@Unknown?5exception@ DB 'Unknown exception', 00H ; `string'
CONST	ENDS
;	COMDAT ??_7exception@std@@6B@
CONST	SEGMENT
??_7exception@std@@6B@ DD FLAT:??_R4exception@std@@6B@	; std::exception::`vftable'
	DD	FLAT:??_Eexception@std@@UAEPAXI@Z
	DD	FLAT:?what@exception@std@@UBEPBDXZ
CONST	ENDS
;	COMDAT xdata$x
xdata$x	SEGMENT
__unwindtable$??$?0ABV?$basic_string@DU?$char_traits@D@std@@V?$allocator@D@2@@std@@@?$_List_node_emplace_op2@V?$allocator@U?$_List_node@V?$basic_string@DU?$char_traits@D@std@@V?$allocator@D@2@@std@@PAX@std@@@std@@@std@@QAE@AAV?$allocator@U?$_List_node@V?$basic_string@DU?$char_traits@D@std@@V?$allocator@D@2@@std@@PAX@std@@@1@ABV?$basic_string@DU?$char_traits@D@std@@V?$allocator@D@2@@1@@Z DD 0ffffffffH
	DD	FLAT:__unwindfunclet$??$?0ABV?$basic_string@DU?$char_traits@D@std@@V?$allocator@D@2@@std@@@?$_List_node_emplace_op2@V?$allocator@U?$_List_node@V?$basic_string@DU?$char_traits@D@std@@V?$allocator@D@2@@std@@PAX@std@@@std@@@std@@QAE@AAV?$allocator@U?$_List_node@V?$basic_string@DU?$char_traits@D@std@@V?$allocator@D@2@@std@@PAX@std@@@1@ABV?$basic_string@DU?$char_traits@D@std@@V?$allocator@D@2@@1@@Z$0
__ehfuncinfo$??$?0ABV?$basic_string@DU?$char_traits@D@std@@V?$allocator@D@2@@std@@@?$_List_node_emplace_op2@V?$allocator@U?$_List_node@V?$basic_string@DU?$char_traits@D@std@@V?$allocator@D@2@@std@@PAX@std@@@std@@@std@@QAE@AAV?$allocator@U?$_List_node@V?$basic_string@DU?$char_traits@D@std@@V?$allocator@D@2@@std@@PAX@std@@@1@ABV?$basic_string@DU?$char_traits@D@std@@V?$allocator@D@2@@1@@Z DD 019930522H
	DD	01H
	DD	FLAT:__unwindtable$??$?0ABV?$basic_string@DU?$char_traits@D@std@@V?$allocator@D@2@@std@@@?$_List_node_emplace_op2@V?$allocator@U?$_List_node@V?$basic_string@DU?$char_traits@D@std@@V?$allocator@D@2@@std@@PAX@std@@@std@@@std@@QAE@AAV?$allocator@U?$_List_node@V?$basic_string@DU?$char_traits@D@std@@V?$allocator@D@2@@std@@PAX@std@@@1@ABV?$basic_string@DU?$char_traits@D@std@@V?$allocator@D@2@@1@@Z
	DD	2 DUP(00H)
	DD	2 DUP(00H)
	DD	00H
	DD	01H
xdata$x	ENDS
;	COMDAT xdata$x
xdata$x	SEGMENT
__unwindtable$??$_Emplace_reallocate@ABV?$basic_string@DU?$char_traits@D@std@@V?$allocator@D@2@@std@@@?$vector@V?$basic_string@DU?$char_traits@D@std@@V?$allocator@D@2@@std@@V?$allocator@V?$basic_string@DU?$char_traits@D@std@@V?$allocator@D@2@@std@@@2@@std@@AAEPAV?$basic_string@DU?$char_traits@D@std@@V?$allocator@D@2@@1@QAV21@ABV21@@Z DD 0ffffffffH
	DD	FLAT:__unwindfunclet$??$_Emplace_reallocate@ABV?$basic_string@DU?$char_traits@D@std@@V?$allocator@D@2@@std@@@?$vector@V?$basic_string@DU?$char_traits@D@std@@V?$allocator@D@2@@std@@V?$allocator@V?$basic_string@DU?$char_traits@D@std@@V?$allocator@D@2@@std@@@2@@std@@AAEPAV?$basic_string@DU?$char_traits@D@std@@V?$allocator@D@2@@1@QAV21@ABV21@@Z$0
__ehfuncinfo$??$_Emplace_reallocate@ABV?$basic_string@DU?$char_traits@D@std@@V?$allocator@D@2@@std@@@?$vector@V?$basic_string@DU?$char_traits@D@std@@V?$allocator@D@2@@std@@V?$allocator@V?$basic_string@DU?$char_traits@D@std@@V?$allocator@D@2@@std@@@2@@std@@AAEPAV?$basic_string@DU?$char_traits@D@std@@V?$allocator@D@2@@1@QAV21@ABV21@@Z DD 019930522H
	DD	01H
	DD	FLAT:__unwindtable$??$_Emplace_reallocate@ABV?$basic_string@DU?$char_traits@D@std@@V?$allocator@D@2@@std@@@?$vector@V?$basic_string@DU?$char_traits@D@std@@V?$allocator@D@2@@std@@V?$allocator@V?$basic_string@DU?$char_traits@D@std@@V?$allocator@D@2@@std@@@2@@std@@AAEPAV?$basic_string@DU?$char_traits@D@std@@V?$allocator@D@2@@1@QAV21@ABV21@@Z
	DD	2 DUP(00H)
	DD	2 DUP(00H)
	DD	00H
	DD	01H
xdata$x	ENDS
;	COMDAT xdata$x
xdata$x	SEGMENT
__unwindtable$??$_Emplace@ABV?$basic_string@DU?$char_traits@D@std@@V?$allocator@D@2@@std@@@?$list@V?$basic_string@DU?$char_traits@D@std@@V?$allocator@D@2@@std@@V?$allocator@V?$basic_string@DU?$char_traits@D@std@@V?$allocator@D@2@@std@@@2@@std@@QAEPAU?$_List_node@V?$basic_string@DU?$char_traits@D@std@@V?$allocator@D@2@@std@@PAX@1@QAU21@ABV?$basic_string@DU?$char_traits@D@std@@V?$allocator@D@2@@1@@Z DD 0ffffffffH
	DD	FLAT:__unwindfunclet$??$_Emplace@ABV?$basic_string@DU?$char_traits@D@std@@V?$allocator@D@2@@std@@@?$list@V?$basic_string@DU?$char_traits@D@std@@V?$allocator@D@2@@std@@V?$allocator@V?$basic_string@DU?$char_traits@D@std@@V?$allocator@D@2@@std@@@2@@std@@QAEPAU?$_List_node@V?$basic_string@DU?$char_traits@D@std@@V?$allocator@D@2@@std@@PAX@1@QAU21@ABV?$basic_string@DU?$char_traits@D@std@@V?$allocator@D@2@@1@@Z$1
__ehfuncinfo$??$_Emplace@ABV?$basic_string@DU?$char_traits@D@std@@V?$allocator@D@2@@std@@@?$list@V?$basic_string@DU?$char_traits@D@std@@V?$allocator@D@2@@std@@V?$allocator@V?$basic_string@DU?$char_traits@D@std@@V?$allocator@D@2@@std@@@2@@std@@QAEPAU?$_List_node@V?$basic_string@DU?$char_traits@D@std@@V?$allocator@D@2@@std@@PAX@1@QAU21@ABV?$basic_string@DU?$char_traits@D@std@@V?$allocator@D@2@@1@@Z DD 019930522H
	DD	01H
	DD	FLAT:__unwindtable$??$_Emplace@ABV?$basic_string@DU?$char_traits@D@std@@V?$allocator@D@2@@std@@@?$list@V?$basic_string@DU?$char_traits@D@std@@V?$allocator@D@2@@std@@V?$allocator@V?$basic_string@DU?$char_traits@D@std@@V?$allocator@D@2@@std@@@2@@std@@QAEPAU?$_List_node@V?$basic_string@DU?$char_traits@D@std@@V?$allocator@D@2@@std@@PAX@1@QAU21@ABV?$basic_string@DU?$char_traits@D@std@@V?$allocator@D@2@@1@@Z
	DD	2 DUP(00H)
	DD	2 DUP(00H)
	DD	00H
	DD	01H
xdata$x	ENDS
;	COMDAT xdata$x
xdata$x	SEGMENT
__unwindtable$?push_back@?$list@V?$basic_string@DU?$char_traits@D@std@@V?$allocator@D@2@@std@@V?$allocator@V?$basic_string@DU?$char_traits@D@std@@V?$allocator@D@2@@std@@@2@@std@@QAEXABV?$basic_string@DU?$char_traits@D@std@@V?$allocator@D@2@@2@@Z DD 0ffffffffH
	DD	FLAT:__unwindfunclet$?push_back@?$list@V?$basic_string@DU?$char_traits@D@std@@V?$allocator@D@2@@std@@V?$allocator@V?$basic_string@DU?$char_traits@D@std@@V?$allocator@D@2@@std@@@2@@std@@QAEXABV?$basic_string@DU?$char_traits@D@std@@V?$allocator@D@2@@2@@Z$1
__ehfuncinfo$?push_back@?$list@V?$basic_string@DU?$char_traits@D@std@@V?$allocator@D@2@@std@@V?$allocator@V?$basic_string@DU?$char_traits@D@std@@V?$allocator@D@2@@std@@@2@@std@@QAEXABV?$basic_string@DU?$char_traits@D@std@@V?$allocator@D@2@@2@@Z DD 019930522H
	DD	01H
	DD	FLAT:__unwindtable$?push_back@?$list@V?$basic_string@DU?$char_traits@D@std@@V?$allocator@D@2@@std@@V?$allocator@V?$basic_string@DU?$char_traits@D@std@@V?$allocator@D@2@@std@@@2@@std@@QAEXABV?$basic_string@DU?$char_traits@D@std@@V?$allocator@D@2@@2@@Z
	DD	2 DUP(00H)
	DD	2 DUP(00H)
	DD	00H
	DD	01H
xdata$x	ENDS
;	COMDAT xdata$x
xdata$x	SEGMENT
__unwindtable$?split_string@@YAHABV?$basic_string@DU?$char_traits@D@std@@V?$allocator@D@2@@std@@0AAV?$vector@V?$basic_string@DU?$char_traits@D@std@@V?$allocator@D@2@@std@@V?$allocator@V?$basic_string@DU?$char_traits@D@std@@V?$allocator@D@2@@std@@@2@@2@_N@Z DD 0ffffffffH
	DD	FLAT:__unwindfunclet$?split_string@@YAHABV?$basic_string@DU?$char_traits@D@std@@V?$allocator@D@2@@std@@0AAV?$vector@V?$basic_string@DU?$char_traits@D@std@@V?$allocator@D@2@@std@@V?$allocator@V?$basic_string@DU?$char_traits@D@std@@V?$allocator@D@2@@std@@@2@@2@_N@Z$0
	DD	00H
	DD	FLAT:__unwindfunclet$?split_string@@YAHABV?$basic_string@DU?$char_traits@D@std@@V?$allocator@D@2@@std@@0AAV?$vector@V?$basic_string@DU?$char_traits@D@std@@V?$allocator@D@2@@std@@V?$allocator@V?$basic_string@DU?$char_traits@D@std@@V?$allocator@D@2@@std@@@2@@2@_N@Z$1
__ehfuncinfo$?split_string@@YAHABV?$basic_string@DU?$char_traits@D@std@@V?$allocator@D@2@@std@@0AAV?$vector@V?$basic_string@DU?$char_traits@D@std@@V?$allocator@D@2@@std@@V?$allocator@V?$basic_string@DU?$char_traits@D@std@@V?$allocator@D@2@@std@@@2@@2@_N@Z DD 019930522H
	DD	02H
	DD	FLAT:__unwindtable$?split_string@@YAHABV?$basic_string@DU?$char_traits@D@std@@V?$allocator@D@2@@std@@0AAV?$vector@V?$basic_string@DU?$char_traits@D@std@@V?$allocator@D@2@@std@@V?$allocator@V?$basic_string@DU?$char_traits@D@std@@V?$allocator@D@2@@std@@@2@@2@_N@Z
	DD	2 DUP(00H)
	DD	2 DUP(00H)
	DD	00H
	DD	01H
xdata$x	ENDS
;	COMDAT xdata$x
xdata$x	SEGMENT
__unwindtable$?stl_static_string@@YAAAV?$basic_string@DU?$char_traits@D@std@@V?$allocator@D@2@@std@@PBD@Z DD 0ffffffffH
	DD	FLAT:__unwindfunclet$?stl_static_string@@YAAAV?$basic_string@DU?$char_traits@D@std@@V?$allocator@D@2@@std@@PBD@Z$0
	DD	00H
	DD	FLAT:__unwindfunclet$?stl_static_string@@YAAAV?$basic_string@DU?$char_traits@D@std@@V?$allocator@D@2@@std@@PBD@Z$5
__ehfuncinfo$?stl_static_string@@YAAAV?$basic_string@DU?$char_traits@D@std@@V?$allocator@D@2@@std@@PBD@Z DD 019930522H
	DD	02H
	DD	FLAT:__unwindtable$?stl_static_string@@YAAAV?$basic_string@DU?$char_traits@D@std@@V?$allocator@D@2@@std@@PBD@Z
	DD	2 DUP(00H)
	DD	2 DUP(00H)
	DD	00H
	DD	01H
xdata$x	ENDS
; Function compile flags: /Ogtp
; File D:\Program Files\Microsoft Visual Studio\2022\Community\VC\Tools\MSVC\14.43.34808\include\xutility
;	COMDAT ??$_Copy_memmove_tail@PAH@std@@YAPAHQBDQAHII@Z
_TEXT	SEGMENT
__First_ch$ = 8						; size = 4
__Dest$ = 12						; size = 4
__Byte_count$ = 16					; size = 4
__Object_count$ = 20					; size = 4
??$_Copy_memmove_tail@PAH@std@@YAPAHQBDQAHII@Z PROC	; std::_Copy_memmove_tail<int *>, COMDAT

; 4763 :     const char* const _First_ch, const _OutCtgIt _Dest, const size_t _Byte_count, const size_t _Object_count) {

  00000	55		 push	 ebp
  00001	8b ec		 mov	 ebp, esp
  00003	56		 push	 esi

; 4764 :     _STL_INTERNAL_CHECK(_Byte_count == _Object_count * sizeof(*_Dest));
; 4765 :     const auto _Dest_ptr = _STD _To_address(_Dest);
; 4766 :     const auto _Dest_ch  = const_cast<char*>(reinterpret_cast<const volatile char*>(_Dest_ptr));
; 4767 :     _CSTD memmove(_Dest_ch, _First_ch, _Byte_count);

  00004	8b 75 0c	 mov	 esi, DWORD PTR __Dest$[ebp]
  00007	57		 push	 edi
  00008	8b 7d 10	 mov	 edi, DWORD PTR __Byte_count$[ebp]
  0000b	57		 push	 edi
  0000c	ff 75 08	 push	 DWORD PTR __First_ch$[ebp]
  0000f	56		 push	 esi
  00010	e8 00 00 00 00	 call	 _memmove
  00015	83 c4 0c	 add	 esp, 12			; 0000000cH

; 4768 :     if constexpr (is_pointer_v<_OutCtgIt>) {
; 4769 :         (void) _Object_count;
; 4770 :         // CodeQL [SM02986] This cast is correct: we're bypassing pointer arithmetic for performance.
; 4771 :         return reinterpret_cast<_OutCtgIt>(_Dest_ch + _Byte_count);

  00018	8d 04 3e	 lea	 eax, DWORD PTR [esi+edi]
  0001b	5f		 pop	 edi
  0001c	5e		 pop	 esi

; 4772 :     } else {
; 4773 :         return _Dest + static_cast<_Iter_diff_t<_OutCtgIt>>(_Object_count);
; 4774 :     }
; 4775 : }

  0001d	5d		 pop	 ebp
  0001e	c3		 ret	 0
??$_Copy_memmove_tail@PAH@std@@YAPAHQBDQAHII@Z ENDP	; std::_Copy_memmove_tail<int *>
_TEXT	ENDS
; Function compile flags: /Ogtp
; File D:\Program Files\Microsoft Visual Studio\2022\Community\VC\Tools\MSVC\14.43.34808\include\xutility
;	COMDAT ??$_Copy_memmove@PAHPAH@std@@YAPAHPAH00@Z
_TEXT	SEGMENT
__First$ = 8						; size = 4
__Last$ = 12						; size = 4
__Dest$ = 16						; size = 4
??$_Copy_memmove@PAHPAH@std@@YAPAHPAH00@Z PROC		; std::_Copy_memmove<int *,int *>, COMDAT

; 4778 : _OutCtgIt _Copy_memmove(_CtgIt _First, _CtgIt _Last, _OutCtgIt _Dest) {

  00000	55		 push	 ebp
  00001	8b ec		 mov	 ebp, esp

; 4779 :     _STL_INTERNAL_CHECK(_First <= _Last);
; 4780 :     const auto _First_ptr    = _STD _To_address(_First);
; 4781 :     const auto _Last_ptr     = _STD _To_address(_Last);
; 4782 :     const auto _Object_count = static_cast<size_t>(_Last_ptr - _First_ptr);

  00003	8b 55 08	 mov	 edx, DWORD PTR __First$[ebp]
  00006	8b 4d 0c	 mov	 ecx, DWORD PTR __Last$[ebp]
  00009	2b ca		 sub	 ecx, edx
  0000b	8b c1		 mov	 eax, ecx
  0000d	c1 f8 02	 sar	 eax, 2

; 4783 :     const auto _First_ch     = const_cast<const char*>(reinterpret_cast<const volatile char*>(_First_ptr));
; 4784 :     const auto _Last_ch      = const_cast<const char*>(reinterpret_cast<const volatile char*>(_Last_ptr));
; 4785 :     const auto _Byte_count   = static_cast<size_t>(_Last_ch - _First_ch);
; 4786 :     return _STD _Copy_memmove_tail(_First_ch, _STD move(_Dest), _Byte_count, _Object_count);

  00010	50		 push	 eax
  00011	51		 push	 ecx
  00012	ff 75 10	 push	 DWORD PTR __Dest$[ebp]
  00015	52		 push	 edx
  00016	e8 00 00 00 00	 call	 ??$_Copy_memmove_tail@PAH@std@@YAPAHQBDQAHII@Z ; std::_Copy_memmove_tail<int *>
  0001b	83 c4 10	 add	 esp, 16			; 00000010H

; 4787 : }

  0001e	5d		 pop	 ebp
  0001f	c3		 ret	 0
??$_Copy_memmove@PAHPAH@std@@YAPAHPAH00@Z ENDP		; std::_Copy_memmove<int *,int *>
_TEXT	ENDS
; Function compile flags: /Ogtp
; File D:\Program Files\Microsoft Visual Studio\2022\Community\VC\Tools\MSVC\14.43.34808\include\xmemory
; File D:\Program Files\Microsoft Visual Studio\2022\Community\VC\Tools\MSVC\14.43.34808\include\xstring
; File D:\Program Files\Microsoft Visual Studio\2022\Community\VC\Tools\MSVC\14.43.34808\include\xmemory
; File D:\Program Files\Microsoft Visual Studio\2022\Community\VC\Tools\MSVC\14.43.34808\include\xstring
; File D:\Program Files\Microsoft Visual Studio\2022\Community\VC\Tools\MSVC\14.43.34808\include\xmemory
; File D:\Program Files\Microsoft Visual Studio\2022\Community\VC\Tools\MSVC\14.43.34808\include\xstring
; File D:\Program Files\Microsoft Visual Studio\2022\Community\VC\Tools\MSVC\14.43.34808\include\xmemory
;	COMDAT ??$_Destroy_range@V?$allocator@V?$basic_string@DU?$char_traits@D@std@@V?$allocator@D@2@@std@@@std@@@std@@YAXPAV?$basic_string@DU?$char_traits@D@std@@V?$allocator@D@2@@0@QAV10@AAV?$allocator@V?$basic_string@DU?$char_traits@D@std@@V?$allocator@D@2@@std@@@0@@Z
_TEXT	SEGMENT
__First$ = 8						; size = 4
__Last$ = 12						; size = 4
__Al$ = 16						; size = 4
??$_Destroy_range@V?$allocator@V?$basic_string@DU?$char_traits@D@std@@V?$allocator@D@2@@std@@@std@@@std@@YAXPAV?$basic_string@DU?$char_traits@D@std@@V?$allocator@D@2@@0@QAV10@AAV?$allocator@V?$basic_string@DU?$char_traits@D@std@@V?$allocator@D@2@@std@@@0@@Z PROC ; std::_Destroy_range<std::allocator<std::basic_string<char,std::char_traits<char>,std::allocator<char> > > >, COMDAT

; 1094 : _CONSTEXPR20 void _Destroy_range(_Alloc_ptr_t<_Alloc> _First, const _Alloc_ptr_t<_Alloc> _Last, _Alloc& _Al) noexcept {

  00000	55		 push	 ebp
  00001	8b ec		 mov	 ebp, esp
  00003	56		 push	 esi

; 1098 :         for (; _First != _Last; ++_First) {

  00004	8b 75 08	 mov	 esi, DWORD PTR __First$[ebp]
  00007	57		 push	 edi
  00008	8b 7d 0c	 mov	 edi, DWORD PTR __Last$[ebp]
  0000b	3b f7		 cmp	 esi, edi
  0000d	74 48		 je	 SHORT $LN55@Destroy_ra
  0000f	90		 npad	 1
$LL4@Destroy_ra:
; File D:\Program Files\Microsoft Visual Studio\2022\Community\VC\Tools\MSVC\14.43.34808\include\xstring

; 434  :         return _Myres > _Small_string_capacity;

  00010	8b 4e 14	 mov	 ecx, DWORD PTR [esi+20]
  00013	83 f9 0f	 cmp	 ecx, 15			; 0000000fH

; 3047 :         if (_My_data._Large_mode_engaged()) {

  00016	76 27		 jbe	 SHORT $LN33@Destroy_ra
; File D:\Program Files\Microsoft Visual Studio\2022\Community\VC\Tools\MSVC\14.43.34808\include\xmemory

; 981  :         _STD _Deallocate<_New_alignof<_Ty>>(_Ptr, sizeof(_Ty) * _Count);

  00018	8b 06		 mov	 eax, DWORD PTR [esi]
; File D:\Program Files\Microsoft Visual Studio\2022\Community\VC\Tools\MSVC\14.43.34808\include\xstring

; 828  :         _Al.deallocate(_Old_ptr, _Capacity + 1); // +1 for null terminator

  0001a	41		 inc	 ecx
; File D:\Program Files\Microsoft Visual Studio\2022\Community\VC\Tools\MSVC\14.43.34808\include\xmemory

; 284  :         if (_Bytes >= _Big_allocation_threshold) {

  0001b	81 f9 00 10 00
	00		 cmp	 ecx, 4096		; 00001000H
  00021	72 12		 jb	 SHORT $LN44@Destroy_ra

; 205  :     const uintptr_t _Ptr_container   = _Ptr_user[-1];

  00023	8b 50 fc	 mov	 edx, DWORD PTR [eax-4]
  00026	83 c1 23	 add	 ecx, 35			; 00000023H

; 206  : 
; 207  :     // If the following asserts, it likely means that we are performing
; 208  :     // an aligned delete on memory coming from an unaligned allocation.
; 209  :     _STL_ASSERT(_Ptr_user[-2] == _Big_allocation_sentinel, "invalid argument");
; 210  : 
; 211  :     // Extra paranoia on aligned allocation/deallocation; ensure _Ptr_container is
; 212  :     // in range [_Min_back_shift, _Non_user_size]
; 213  : #ifdef _DEBUG
; 214  :     constexpr uintptr_t _Min_back_shift = 2 * sizeof(void*);
; 215  : #else // ^^^ defined(_DEBUG) / !defined(_DEBUG) vvv
; 216  :     constexpr uintptr_t _Min_back_shift = sizeof(void*);
; 217  : #endif // ^^^ !defined(_DEBUG) ^^^
; 218  :     const uintptr_t _Back_shift = reinterpret_cast<uintptr_t>(_Ptr) - _Ptr_container;

  00029	2b c2		 sub	 eax, edx

; 219  :     _STL_VERIFY(_Back_shift >= _Min_back_shift && _Back_shift <= _Non_user_size, "invalid argument");

  0002b	83 c0 fc	 add	 eax, -4			; fffffffcH
  0002e	83 f8 1f	 cmp	 eax, 31			; 0000001fH
  00031	77 28		 ja	 SHORT $LN41@Destroy_ra

; 220  :     _Ptr = reinterpret_cast<void*>(_Ptr_container);

  00033	8b c2		 mov	 eax, edx
$LN44@Destroy_ra:

; 289  :         ::operator delete(_Ptr, _Bytes);

  00035	51		 push	 ecx
  00036	50		 push	 eax
  00037	e8 00 00 00 00	 call	 ??3@YAXPAXI@Z		; operator delete
  0003c	83 c4 08	 add	 esp, 8
$LN33@Destroy_ra:
; File D:\Program Files\Microsoft Visual Studio\2022\Community\VC\Tools\MSVC\14.43.34808\include\xstring

; 3054 :         _My_data._Mysize = 0;

  0003f	c7 46 10 00 00
	00 00		 mov	 DWORD PTR [esi+16], 0

; 3055 :         _My_data._Myres  = _Small_string_capacity;

  00046	c7 46 14 0f 00
	00 00		 mov	 DWORD PTR [esi+20], 15	; 0000000fH

; 3056 :         // the _Traits::assign is last so the codegen doesn't think the char write can alias this
; 3057 :         _Traits::assign(_My_data._Bx._Buf[0], _Elem());

  0004d	c6 06 00	 mov	 BYTE PTR [esi], 0
; File D:\Program Files\Microsoft Visual Studio\2022\Community\VC\Tools\MSVC\14.43.34808\include\xmemory

; 1098 :         for (; _First != _Last; ++_First) {

  00050	83 c6 18	 add	 esi, 24			; 00000018H
  00053	3b f7		 cmp	 esi, edi
  00055	75 b9		 jne	 SHORT $LL4@Destroy_ra
$LN55@Destroy_ra:
  00057	5f		 pop	 edi

; 1099 :             allocator_traits<_Alloc>::destroy(_Al, _STD _Unfancy(_First));
; 1100 :         }
; 1101 :     }
; 1102 : }

  00058	5e		 pop	 esi
  00059	5d		 pop	 ebp
  0005a	c3		 ret	 0
$LN41@Destroy_ra:

; 219  :     _STL_VERIFY(_Back_shift >= _Min_back_shift && _Back_shift <= _Non_user_size, "invalid argument");

  0005b	e8 00 00 00 00	 call	 __invalid_parameter_noinfo_noreturn
$LN62@Destroy_ra:
  00060	cc		 int	 3
??$_Destroy_range@V?$allocator@V?$basic_string@DU?$char_traits@D@std@@V?$allocator@D@2@@std@@@std@@@std@@YAXPAV?$basic_string@DU?$char_traits@D@std@@V?$allocator@D@2@@0@QAV10@AAV?$allocator@V?$basic_string@DU?$char_traits@D@std@@V?$allocator@D@2@@std@@@0@@Z ENDP ; std::_Destroy_range<std::allocator<std::basic_string<char,std::char_traits<char>,std::allocator<char> > > >
_TEXT	ENDS
; Function compile flags: /Ogtp
; File D:\Program Files\Microsoft Visual Studio\2022\Community\VC\Tools\MSVC\14.43.34808\include\xmemory
; File D:\Program Files\Microsoft Visual Studio\2022\Community\VC\Tools\MSVC\14.43.34808\include\xstring
; File D:\Program Files\Microsoft Visual Studio\2022\Community\VC\Tools\MSVC\14.43.34808\include\xmemory
; File D:\Program Files\Microsoft Visual Studio\2022\Community\VC\Tools\MSVC\14.43.34808\include\xstring
; File D:\Program Files\Microsoft Visual Studio\2022\Community\VC\Tools\MSVC\14.43.34808\include\xmemory
;	COMDAT ??$_Uninitialized_move@PAV?$basic_string@DU?$char_traits@D@std@@V?$allocator@D@2@@std@@V?$allocator@V?$basic_string@DU?$char_traits@D@std@@V?$allocator@D@2@@std@@@2@@std@@YAPAV?$basic_string@DU?$char_traits@D@std@@V?$allocator@D@2@@0@QAV10@0PAV10@AAV?$allocator@V?$basic_string@DU?$char_traits@D@std@@V?$allocator@D@2@@std@@@0@@Z
_TEXT	SEGMENT
__First$ = 8						; size = 4
__Last$ = 12						; size = 4
__Dest$ = 16						; size = 4
__Al$ = 20						; size = 4
??$_Uninitialized_move@PAV?$basic_string@DU?$char_traits@D@std@@V?$allocator@D@2@@std@@V?$allocator@V?$basic_string@DU?$char_traits@D@std@@V?$allocator@D@2@@std@@@2@@std@@YAPAV?$basic_string@DU?$char_traits@D@std@@V?$allocator@D@2@@0@QAV10@0PAV10@AAV?$allocator@V?$basic_string@DU?$char_traits@D@std@@V?$allocator@D@2@@std@@@0@@Z PROC ; std::_Uninitialized_move<std::basic_string<char,std::char_traits<char>,std::allocator<char> > *,std::allocator<std::basic_string<char,std::char_traits<char>,std::allocator<char> > > >, COMDAT

; 1940 :     const _InIt _First, const _InIt _Last, _Alloc_ptr_t<_Alloc> _Dest, _Alloc& _Al) {

  00000	55		 push	 ebp
  00001	8b ec		 mov	 ebp, esp

; 1941 :     // move [_First, _Last) to raw _Dest, using _Al
; 1942 :     // note: only called internally from elsewhere in the STL
; 1943 : #ifdef _ENABLE_STL_INTERNAL_CHECK
; 1944 :     _STD _Adl_verify_range(_First, _Last);
; 1945 : #endif // ^^^ defined(_ENABLE_STL_INTERNAL_CHECK) ^^^
; 1946 :     using _Ptrval     = typename _Alloc::value_type*;
; 1947 :     auto _UFirst      = _STD _Get_unwrapped(_First);
; 1948 :     const auto _ULast = _STD _Get_unwrapped(_Last);
; 1949 :     if constexpr (conjunction_v<bool_constant<_Iter_move_cat<decltype(_UFirst), _Ptrval>::_Bitcopy_constructible>,
; 1950 :                       _Uses_default_construct<_Alloc, _Ptrval, decltype(_STD move(*_UFirst))>>) {
; 1951 : #if _HAS_CXX20
; 1952 :         if (!_STD is_constant_evaluated())
; 1953 : #endif // _HAS_CXX20
; 1954 :         {
; 1955 :             _STD _Copy_memmove(_UFirst, _ULast, _STD _Unfancy(_Dest));
; 1956 :             return _Dest + (_ULast - _UFirst);
; 1957 :         }
; 1958 :     }
; 1959 : 
; 1960 :     _Uninitialized_backout_al<_Alloc> _Backout{_Dest, _Al};
; 1961 :     for (; _UFirst != _ULast; ++_UFirst) {

  00003	8b 45 08	 mov	 eax, DWORD PTR __First$[ebp]
  00006	8b 55 0c	 mov	 edx, DWORD PTR __Last$[ebp]
  00009	56		 push	 esi

; 1796 :     _CONSTEXPR20 _Uninitialized_backout_al(pointer _Dest, _Alloc& _Al_) : _First(_Dest), _Last(_Dest), _Al(_Al_) {}

  0000a	8b 75 10	 mov	 esi, DWORD PTR __Dest$[ebp]

; 1941 :     // move [_First, _Last) to raw _Dest, using _Al
; 1942 :     // note: only called internally from elsewhere in the STL
; 1943 : #ifdef _ENABLE_STL_INTERNAL_CHECK
; 1944 :     _STD _Adl_verify_range(_First, _Last);
; 1945 : #endif // ^^^ defined(_ENABLE_STL_INTERNAL_CHECK) ^^^
; 1946 :     using _Ptrval     = typename _Alloc::value_type*;
; 1947 :     auto _UFirst      = _STD _Get_unwrapped(_First);
; 1948 :     const auto _ULast = _STD _Get_unwrapped(_Last);
; 1949 :     if constexpr (conjunction_v<bool_constant<_Iter_move_cat<decltype(_UFirst), _Ptrval>::_Bitcopy_constructible>,
; 1950 :                       _Uses_default_construct<_Alloc, _Ptrval, decltype(_STD move(*_UFirst))>>) {
; 1951 : #if _HAS_CXX20
; 1952 :         if (!_STD is_constant_evaluated())
; 1953 : #endif // _HAS_CXX20
; 1954 :         {
; 1955 :             _STD _Copy_memmove(_UFirst, _ULast, _STD _Unfancy(_Dest));
; 1956 :             return _Dest + (_ULast - _UFirst);
; 1957 :         }
; 1958 :     }
; 1959 : 
; 1960 :     _Uninitialized_backout_al<_Alloc> _Backout{_Dest, _Al};
; 1961 :     for (; _UFirst != _ULast; ++_UFirst) {

  0000d	3b c2		 cmp	 eax, edx
  0000f	74 4f		 je	 SHORT $LN3@Uninitiali

; 1796 :     _CONSTEXPR20 _Uninitialized_backout_al(pointer _Dest, _Alloc& _Al_) : _First(_Dest), _Last(_Dest), _Al(_Al_) {}

  00011	8b ce		 mov	 ecx, esi
  00013	2b c8		 sub	 ecx, eax
  00015	66 66 66 0f 1f
	84 00 00 00 00
	00		 npad	 11
$LL4@Uninitiali:
  00020	0f 57 c0	 xorps	 xmm0, xmm0
; File D:\Program Files\Microsoft Visual Studio\2022\Community\VC\Tools\MSVC\14.43.34808\include\xstring

; 474  :         _CONSTEXPR20 _Bxty() noexcept : _Buf() {} // user-provided, for fancy pointers

  00023	0f 11 06	 movups	 XMMWORD PTR [esi], xmm0

; 498  :     size_type _Mysize = 0; // current length of string (size)

  00026	c7 46 10 00 00
	00 00		 mov	 DWORD PTR [esi+16], 0

; 499  :     size_type _Myres  = 0; // current storage reserved for string (capacity)

  0002d	c7 44 01 14 00
	00 00 00	 mov	 DWORD PTR [ecx+eax+20], 0

; 1262 :                 _CSTD memcpy(_My_data_mem, _Right_data_mem, _Memcpy_val_size);

  00035	0f 10 00	 movups	 xmm0, XMMWORD PTR [eax]
  00038	0f 11 06	 movups	 XMMWORD PTR [esi], xmm0
  0003b	f3 0f 7e 40 10	 movq	 xmm0, QWORD PTR [eax+16]
  00040	66 0f d6 46 10	 movq	 QWORD PTR [esi+16], xmm0
; File D:\Program Files\Microsoft Visual Studio\2022\Community\VC\Tools\MSVC\14.43.34808\include\xmemory

; 1808 :         ++_Last;

  00045	83 c6 18	 add	 esi, 24			; 00000018H
; File D:\Program Files\Microsoft Visual Studio\2022\Community\VC\Tools\MSVC\14.43.34808\include\xstring

; 1264 :                 _Right_data._Mysize = 0;

  00048	c7 40 10 00 00
	00 00		 mov	 DWORD PTR [eax+16], 0

; 1265 :                 _Right_data._Myres  = _Small_string_capacity;

  0004f	c7 40 14 0f 00
	00 00		 mov	 DWORD PTR [eax+20], 15	; 0000000fH

; 1266 :                 _Right_data._Activate_SSO_buffer();
; 1267 :                 _Traits::assign(_Right_data._Bx._Buf[0], _Elem());

  00056	c6 00 00	 mov	 BYTE PTR [eax], 0
; File D:\Program Files\Microsoft Visual Studio\2022\Community\VC\Tools\MSVC\14.43.34808\include\xmemory

; 1808 :         ++_Last;

  00059	83 c0 18	 add	 eax, 24			; 00000018H

; 1941 :     // move [_First, _Last) to raw _Dest, using _Al
; 1942 :     // note: only called internally from elsewhere in the STL
; 1943 : #ifdef _ENABLE_STL_INTERNAL_CHECK
; 1944 :     _STD _Adl_verify_range(_First, _Last);
; 1945 : #endif // ^^^ defined(_ENABLE_STL_INTERNAL_CHECK) ^^^
; 1946 :     using _Ptrval     = typename _Alloc::value_type*;
; 1947 :     auto _UFirst      = _STD _Get_unwrapped(_First);
; 1948 :     const auto _ULast = _STD _Get_unwrapped(_Last);
; 1949 :     if constexpr (conjunction_v<bool_constant<_Iter_move_cat<decltype(_UFirst), _Ptrval>::_Bitcopy_constructible>,
; 1950 :                       _Uses_default_construct<_Alloc, _Ptrval, decltype(_STD move(*_UFirst))>>) {
; 1951 : #if _HAS_CXX20
; 1952 :         if (!_STD is_constant_evaluated())
; 1953 : #endif // _HAS_CXX20
; 1954 :         {
; 1955 :             _STD _Copy_memmove(_UFirst, _ULast, _STD _Unfancy(_Dest));
; 1956 :             return _Dest + (_ULast - _UFirst);
; 1957 :         }
; 1958 :     }
; 1959 : 
; 1960 :     _Uninitialized_backout_al<_Alloc> _Backout{_Dest, _Al};
; 1961 :     for (; _UFirst != _ULast; ++_UFirst) {

  0005c	3b c2		 cmp	 eax, edx
  0005e	75 c0		 jne	 SHORT $LL4@Uninitiali
$LN3@Uninitiali:

; 1802 :         _STD _Destroy_range(_First, _Last, _Al);

  00060	ff 75 14	 push	 DWORD PTR __Al$[ebp]
  00063	56		 push	 esi
  00064	56		 push	 esi
  00065	e8 00 00 00 00	 call	 ??$_Destroy_range@V?$allocator@V?$basic_string@DU?$char_traits@D@std@@V?$allocator@D@2@@std@@@std@@@std@@YAXPAV?$basic_string@DU?$char_traits@D@std@@V?$allocator@D@2@@0@QAV10@AAV?$allocator@V?$basic_string@DU?$char_traits@D@std@@V?$allocator@D@2@@std@@@0@@Z ; std::_Destroy_range<std::allocator<std::basic_string<char,std::char_traits<char>,std::allocator<char> > > >
  0006a	83 c4 0c	 add	 esp, 12			; 0000000cH

; 1962 :         _Backout._Emplace_back(_STD move(*_UFirst));
; 1963 :     }
; 1964 : 
; 1965 :     return _Backout._Release();

  0006d	8b c6		 mov	 eax, esi
  0006f	5e		 pop	 esi

; 1966 : }

  00070	5d		 pop	 ebp
  00071	c3		 ret	 0
??$_Uninitialized_move@PAV?$basic_string@DU?$char_traits@D@std@@V?$allocator@D@2@@std@@V?$allocator@V?$basic_string@DU?$char_traits@D@std@@V?$allocator@D@2@@std@@@2@@std@@YAPAV?$basic_string@DU?$char_traits@D@std@@V?$allocator@D@2@@0@QAV10@0PAV10@AAV?$allocator@V?$basic_string@DU?$char_traits@D@std@@V?$allocator@D@2@@std@@@0@@Z ENDP ; std::_Uninitialized_move<std::basic_string<char,std::char_traits<char>,std::allocator<char> > *,std::allocator<std::basic_string<char,std::char_traits<char>,std::allocator<char> > > >
_TEXT	ENDS
; Function compile flags: /Ogtp
; File D:\Program Files\Microsoft Visual Studio\2022\Community\VC\Tools\MSVC\14.43.34808\include\vector
; File D:\Program Files\Microsoft Visual Studio\2022\Community\VC\Tools\MSVC\14.43.34808\include\xmemory
; File D:\Program Files\Microsoft Visual Studio\2022\Community\VC\Tools\MSVC\14.43.34808\include\vector
; File D:\Program Files\Microsoft Visual Studio\2022\Community\VC\Tools\MSVC\14.43.34808\include\xmemory
; File D:\Program Files\Microsoft Visual Studio\2022\Community\VC\Tools\MSVC\14.43.34808\include\vector
; File D:\Program Files\Microsoft Visual Studio\2022\Community\VC\Tools\MSVC\14.43.34808\include\xmemory
; File D:\Program Files\Microsoft Visual Studio\2022\Community\VC\Tools\MSVC\14.43.34808\include\vector
;	COMDAT ??1_Reallocation_guard@?$vector@V?$basic_string@DU?$char_traits@D@std@@V?$allocator@D@2@@std@@V?$allocator@V?$basic_string@DU?$char_traits@D@std@@V?$allocator@D@2@@std@@@2@@std@@QAE@XZ
_TEXT	SEGMENT
??1_Reallocation_guard@?$vector@V?$basic_string@DU?$char_traits@D@std@@V?$allocator@D@2@@std@@V?$allocator@V?$basic_string@DU?$char_traits@D@std@@V?$allocator@D@2@@std@@@2@@std@@QAE@XZ PROC ; std::vector<std::basic_string<char,std::char_traits<char>,std::allocator<char> >,std::allocator<std::basic_string<char,std::char_traits<char>,std::allocator<char> > > >::_Reallocation_guard::~_Reallocation_guard, COMDAT
; _this$ = ecx

; 605  :         _CONSTEXPR20 ~_Reallocation_guard() noexcept {

  00000	56		 push	 esi
  00001	8b f1		 mov	 esi, ecx

; 606  :             if (_New_begin != nullptr) {

  00003	83 7e 04 00	 cmp	 DWORD PTR [esi+4], 0
  00007	74 40		 je	 SHORT $LN10@Reallocati

; 607  :                 _STD _Destroy_range(_Constructed_first, _Constructed_last, _Al);

  00009	ff 36		 push	 DWORD PTR [esi]
  0000b	ff 76 10	 push	 DWORD PTR [esi+16]
  0000e	ff 76 0c	 push	 DWORD PTR [esi+12]
  00011	e8 00 00 00 00	 call	 ??$_Destroy_range@V?$allocator@V?$basic_string@DU?$char_traits@D@std@@V?$allocator@D@2@@std@@@std@@@std@@YAXPAV?$basic_string@DU?$char_traits@D@std@@V?$allocator@D@2@@0@QAV10@AAV?$allocator@V?$basic_string@DU?$char_traits@D@std@@V?$allocator@D@2@@std@@@0@@Z ; std::_Destroy_range<std::allocator<std::basic_string<char,std::char_traits<char>,std::allocator<char> > > >
; File D:\Program Files\Microsoft Visual Studio\2022\Community\VC\Tools\MSVC\14.43.34808\include\xmemory

; 981  :         _STD _Deallocate<_New_alignof<_Ty>>(_Ptr, sizeof(_Ty) * _Count);

  00016	8b 46 08	 mov	 eax, DWORD PTR [esi+8]
; File D:\Program Files\Microsoft Visual Studio\2022\Community\VC\Tools\MSVC\14.43.34808\include\vector

; 607  :                 _STD _Destroy_range(_Constructed_first, _Constructed_last, _Al);

  00019	83 c4 0c	 add	 esp, 12			; 0000000cH
; File D:\Program Files\Microsoft Visual Studio\2022\Community\VC\Tools\MSVC\14.43.34808\include\xmemory

; 981  :         _STD _Deallocate<_New_alignof<_Ty>>(_Ptr, sizeof(_Ty) * _Count);

  0001c	8d 0c 40	 lea	 ecx, DWORD PTR [eax+eax*2]
  0001f	8b 46 04	 mov	 eax, DWORD PTR [esi+4]
  00022	c1 e1 03	 shl	 ecx, 3

; 284  :         if (_Bytes >= _Big_allocation_threshold) {

  00025	81 f9 00 10 00
	00		 cmp	 ecx, 4096		; 00001000H
  0002b	72 12		 jb	 SHORT $LN21@Reallocati

; 205  :     const uintptr_t _Ptr_container   = _Ptr_user[-1];

  0002d	8b 50 fc	 mov	 edx, DWORD PTR [eax-4]
  00030	83 c1 23	 add	 ecx, 35			; 00000023H

; 206  : 
; 207  :     // If the following asserts, it likely means that we are performing
; 208  :     // an aligned delete on memory coming from an unaligned allocation.
; 209  :     _STL_ASSERT(_Ptr_user[-2] == _Big_allocation_sentinel, "invalid argument");
; 210  : 
; 211  :     // Extra paranoia on aligned allocation/deallocation; ensure _Ptr_container is
; 212  :     // in range [_Min_back_shift, _Non_user_size]
; 213  : #ifdef _DEBUG
; 214  :     constexpr uintptr_t _Min_back_shift = 2 * sizeof(void*);
; 215  : #else // ^^^ defined(_DEBUG) / !defined(_DEBUG) vvv
; 216  :     constexpr uintptr_t _Min_back_shift = sizeof(void*);
; 217  : #endif // ^^^ !defined(_DEBUG) ^^^
; 218  :     const uintptr_t _Back_shift = reinterpret_cast<uintptr_t>(_Ptr) - _Ptr_container;

  00033	2b c2		 sub	 eax, edx

; 219  :     _STL_VERIFY(_Back_shift >= _Min_back_shift && _Back_shift <= _Non_user_size, "invalid argument");

  00035	83 c0 fc	 add	 eax, -4			; fffffffcH
  00038	83 f8 1f	 cmp	 eax, 31			; 0000001fH
  0003b	77 0e		 ja	 SHORT $LN18@Reallocati

; 220  :     _Ptr = reinterpret_cast<void*>(_Ptr_container);

  0003d	8b c2		 mov	 eax, edx
$LN21@Reallocati:

; 289  :         ::operator delete(_Ptr, _Bytes);

  0003f	51		 push	 ecx
  00040	50		 push	 eax
  00041	e8 00 00 00 00	 call	 ??3@YAXPAXI@Z		; operator delete
  00046	83 c4 08	 add	 esp, 8
$LN10@Reallocati:
  00049	5e		 pop	 esi
; File D:\Program Files\Microsoft Visual Studio\2022\Community\VC\Tools\MSVC\14.43.34808\include\vector

; 610  :         }

  0004a	c3		 ret	 0
$LN18@Reallocati:
; File D:\Program Files\Microsoft Visual Studio\2022\Community\VC\Tools\MSVC\14.43.34808\include\xmemory

; 219  :     _STL_VERIFY(_Back_shift >= _Min_back_shift && _Back_shift <= _Non_user_size, "invalid argument");

  0004b	e8 00 00 00 00	 call	 __invalid_parameter_noinfo_noreturn
$LN28@Reallocati:
  00050	cc		 int	 3
??1_Reallocation_guard@?$vector@V?$basic_string@DU?$char_traits@D@std@@V?$allocator@D@2@@std@@V?$allocator@V?$basic_string@DU?$char_traits@D@std@@V?$allocator@D@2@@std@@@2@@std@@QAE@XZ ENDP ; std::vector<std::basic_string<char,std::char_traits<char>,std::allocator<char> >,std::allocator<std::basic_string<char,std::char_traits<char>,std::allocator<char> > > >::_Reallocation_guard::~_Reallocation_guard
_TEXT	ENDS
; Function compile flags: /Ogtp
; File D:\Program Files\Microsoft Visual Studio\2022\Community\VC\Tools\MSVC\14.43.34808\include\xmemory
;	COMDAT ??1?$_Alloc_construct_ptr@V?$allocator@U?$_List_node@V?$basic_string@DU?$char_traits@D@std@@V?$allocator@D@2@@std@@PAX@std@@@std@@@std@@QAE@XZ
_TEXT	SEGMENT
??1?$_Alloc_construct_ptr@V?$allocator@U?$_List_node@V?$basic_string@DU?$char_traits@D@std@@V?$allocator@D@2@@std@@PAX@std@@@std@@@std@@QAE@XZ PROC ; std::_Alloc_construct_ptr<std::allocator<std::_List_node<std::basic_string<char,std::char_traits<char>,std::allocator<char> >,void *> > >::~_Alloc_construct_ptr<std::allocator<std::_List_node<std::basic_string<char,std::char_traits<char>,std::allocator<char> >,void *> > >, COMDAT
; _this$ = ecx

; 1168 :         if (_Ptr) {

  00000	8b 41 04	 mov	 eax, DWORD PTR [ecx+4]
  00003	85 c0		 test	 eax, eax
  00005	74 0b		 je	 SHORT $LN10@Alloc_cons

; 289  :         ::operator delete(_Ptr, _Bytes);

  00007	6a 20		 push	 32			; 00000020H
  00009	50		 push	 eax
  0000a	e8 00 00 00 00	 call	 ??3@YAXPAXI@Z		; operator delete
  0000f	83 c4 08	 add	 esp, 8
$LN10@Alloc_cons:

; 1169 :             _Al.deallocate(_Ptr, 1);
; 1170 :         }
; 1171 :     }

  00012	c3		 ret	 0
??1?$_Alloc_construct_ptr@V?$allocator@U?$_List_node@V?$basic_string@DU?$char_traits@D@std@@V?$allocator@D@2@@std@@PAX@std@@@std@@@std@@QAE@XZ ENDP ; std::_Alloc_construct_ptr<std::allocator<std::_List_node<std::basic_string<char,std::char_traits<char>,std::allocator<char> >,void *> > >::~_Alloc_construct_ptr<std::allocator<std::_List_node<std::basic_string<char,std::char_traits<char>,std::allocator<char> >,void *> > >
_TEXT	ENDS
; Function compile flags: /Ogtp
; File D:\Program Files\Microsoft Visual Studio\2022\Community\VC\Tools\MSVC\14.43.34808\include\vector
; File D:\Program Files\Microsoft Visual Studio\2022\Community\VC\Tools\MSVC\14.43.34808\include\xmemory
; File D:\Program Files\Microsoft Visual Studio\2022\Community\VC\Tools\MSVC\14.43.34808\include\vector
; File D:\Program Files\Microsoft Visual Studio\2022\Community\VC\Tools\MSVC\14.43.34808\include\xmemory
; File D:\Program Files\Microsoft Visual Studio\2022\Community\VC\Tools\MSVC\14.43.34808\include\vector
; File D:\Program Files\Microsoft Visual Studio\2022\Community\VC\Tools\MSVC\14.43.34808\include\xmemory
; File D:\Program Files\Microsoft Visual Studio\2022\Community\VC\Tools\MSVC\14.43.34808\include\vector
; File D:\Program Files\Microsoft Visual Studio\2022\Community\VC\Tools\MSVC\14.43.34808\include\xmemory
; File D:\Program Files\Microsoft Visual Studio\2022\Community\VC\Tools\MSVC\14.43.34808\include\vector
; File D:\Program Files\Microsoft Visual Studio\2022\Community\VC\Tools\MSVC\14.43.34808\include\xmemory
; File D:\Program Files\Microsoft Visual Studio\2022\Community\VC\Tools\MSVC\14.43.34808\include\vector
; File D:\Program Files\Microsoft Visual Studio\2022\Community\VC\Tools\MSVC\14.43.34808\include\xmemory
; File D:\Program Files\Microsoft Visual Studio\2022\Community\VC\Tools\MSVC\14.43.34808\include\vector
; File D:\Program Files\Microsoft Visual Studio\2022\Community\VC\Tools\MSVC\14.43.34808\include\xmemory
; File D:\Program Files\Microsoft Visual Studio\2022\Community\VC\Tools\MSVC\14.43.34808\include\vector
; File D:\Program Files\Microsoft Visual Studio\2022\Community\VC\Tools\MSVC\14.43.34808\include\xmemory
; File D:\Program Files\Microsoft Visual Studio\2022\Community\VC\Tools\MSVC\14.43.34808\include\vector
;	COMDAT ??$_Emplace_reallocate@ABH@?$vector@HV?$allocator@H@std@@@std@@AAEPAHQAHABH@Z
_TEXT	SEGMENT
__Newsize$1$ = -12					; size = 4
tv652 = -8						; size = 4
tv650 = -4						; size = 4
__Whereptr$ = 8						; size = 4
_<_Val_0>$ = 12						; size = 4
??$_Emplace_reallocate@ABH@?$vector@HV?$allocator@H@std@@@std@@AAEPAHQAHABH@Z PROC ; std::vector<int,std::allocator<int> >::_Emplace_reallocate<int const &>, COMDAT
; _this$ = ecx

; 860  :     _CONSTEXPR20 pointer _Emplace_reallocate(const pointer _Whereptr, _Valty&&... _Val) {

  00000	55		 push	 ebp
  00001	8b ec		 mov	 ebp, esp
  00003	83 ec 0c	 sub	 esp, 12			; 0000000cH
  00006	53		 push	 ebx

; 861  :         // reallocate and insert by perfectly forwarding _Val at _Whereptr
; 862  :         _Alty& _Al        = _Getal();
; 863  :         auto& _My_data    = _Mypair._Myval2;
; 864  :         pointer& _Myfirst = _My_data._Myfirst;
; 865  :         pointer& _Mylast  = _My_data._Mylast;
; 866  : 
; 867  :         _STL_INTERNAL_CHECK(_Mylast == _My_data._Myend); // check that we have no unused capacity
; 868  : 
; 869  :         const auto _Whereoff = static_cast<size_type>(_Whereptr - _Myfirst);

  00007	8b 5d 08	 mov	 ebx, DWORD PTR __Whereptr$[ebp]
  0000a	56		 push	 esi
  0000b	8b f1		 mov	 esi, ecx
  0000d	57		 push	 edi
  0000e	8b 0e		 mov	 ecx, DWORD PTR [esi]
  00010	2b d9		 sub	 ebx, ecx

; 870  :         const auto _Oldsize  = static_cast<size_type>(_Mylast - _Myfirst);

  00012	8b 46 04	 mov	 eax, DWORD PTR [esi+4]
  00015	2b c1		 sub	 eax, ecx
  00017	c1 fb 02	 sar	 ebx, 2
  0001a	c1 f8 02	 sar	 eax, 2

; 871  : 
; 872  :         if (_Oldsize == max_size()) {

  0001d	3d ff ff ff 3f	 cmp	 eax, 1073741823		; 3fffffffH
  00022	0f 84 09 01 00
	00		 je	 $LN123@Emplace_re

; 1909 :         return static_cast<size_type>(_My_data._Myend - _My_data._Myfirst);

  00028	8b 56 08	 mov	 edx, DWORD PTR [esi+8]

; 874  :         }
; 875  : 
; 876  :         const size_type _Newsize = _Oldsize + 1;

  0002b	8d 78 01	 lea	 edi, DWORD PTR [eax+1]

; 1909 :         return static_cast<size_type>(_My_data._Myend - _My_data._Myfirst);

  0002e	2b d1		 sub	 edx, ecx

; 874  :         }
; 875  : 
; 876  :         const size_type _Newsize = _Oldsize + 1;

  00030	89 7d f4	 mov	 DWORD PTR __Newsize$1$[ebp], edi

; 1909 :         return static_cast<size_type>(_My_data._Myend - _My_data._Myfirst);

  00033	c1 fa 02	 sar	 edx, 2

; 1996 :         if (_Oldcapacity > _Max - _Oldcapacity / 2) {

  00036	b8 ff ff ff 3f	 mov	 eax, 1073741823		; 3fffffffH
  0003b	8b ca		 mov	 ecx, edx
  0003d	d1 e9		 shr	 ecx, 1
  0003f	2b c1		 sub	 eax, ecx
  00041	3b d0		 cmp	 edx, eax
  00043	76 14		 jbe	 SHORT $LN8@Emplace_re

; 1997 :             return _Max; // geometric growth would overflow

  00045	b8 fc ff ff ff	 mov	 eax, -4			; fffffffcH
  0004a	c7 45 f8 fc ff
	ff ff		 mov	 DWORD PTR tv652[ebp], -4 ; fffffffcH
; File D:\Program Files\Microsoft Visual Studio\2022\Community\VC\Tools\MSVC\14.43.34808\include\xmemory

; 253  :             return _Allocate_manually_vector_aligned<_Traits>(_Bytes);

  00051	50		 push	 eax
  00052	e8 00 00 00 00	 call	 ??$_Allocate_manually_vector_aligned@U_Default_allocate_traits@std@@@std@@YAPAXI@Z ; std::_Allocate_manually_vector_aligned<std::_Default_allocate_traits>
  00057	eb 3d		 jmp	 SHORT $LN121@Emplace_re
$LN8@Emplace_re:
; File D:\Program Files\Microsoft Visual Studio\2022\Community\VC\Tools\MSVC\14.43.34808\include\vector

; 2000 :         const size_type _Geometric = _Oldcapacity + _Oldcapacity / 2;

  00059	8d 04 11	 lea	 eax, DWORD PTR [ecx+edx]
; File D:\Program Files\Microsoft Visual Studio\2022\Community\VC\Tools\MSVC\14.43.34808\include\xmemory

; 117  :         if (_Count > _Max_possible) {

  0005c	8b cf		 mov	 ecx, edi
  0005e	3b c7		 cmp	 eax, edi
  00060	0f 43 c8	 cmovae	 ecx, eax
  00063	81 f9 ff ff ff
	3f		 cmp	 ecx, 1073741823		; 3fffffffH
  00069	0f 87 c7 00 00
	00		 ja	 $LN124@Emplace_re

; 119  :         }
; 120  :     }
; 121  : 
; 122  :     return _Count * _Ty_size;

  0006f	8d 04 8d 00 00
	00 00		 lea	 eax, DWORD PTR [ecx*4]
  00076	89 45 f8	 mov	 DWORD PTR tv652[ebp], eax

; 227  :     if (_Bytes == 0) {

  00079	85 c0		 test	 eax, eax
  0007b	75 04		 jne	 SHORT $LN23@Emplace_re

; 228  :         return nullptr;

  0007d	33 ff		 xor	 edi, edi
  0007f	eb 1a		 jmp	 SHORT $LN22@Emplace_re
$LN23@Emplace_re:

; 229  :     }
; 230  : 
; 231  : #if _HAS_CXX20 // TRANSITION, GH-1532
; 232  :     if (_STD is_constant_evaluated()) {
; 233  :         return _Traits::_Allocate(_Bytes);
; 234  :     }
; 235  : #endif // _HAS_CXX20
; 236  : 
; 237  : #ifdef __cpp_aligned_new
; 238  :     if constexpr (_Align > __STDCPP_DEFAULT_NEW_ALIGNMENT__) {
; 239  :         size_t _Passed_align = _Align;
; 240  : #if defined(_M_IX86) || defined(_M_X64)
; 241  :         if (_Bytes >= _Big_allocation_threshold) {
; 242  :             // boost the alignment of big allocations to help autovectorization
; 243  :             _Passed_align = (_STD max)(_Align, _Big_allocation_alignment);
; 244  :         }
; 245  : #endif // defined(_M_IX86) || defined(_M_X64)
; 246  :         return _Traits::_Allocate_aligned(_Bytes, _Passed_align);
; 247  :     } else
; 248  : #endif // defined(__cpp_aligned_new)
; 249  :     {
; 250  : #if defined(_M_IX86) || defined(_M_X64)
; 251  :         if (_Bytes >= _Big_allocation_threshold) {

  00081	3d 00 10 00 00	 cmp	 eax, 4096		; 00001000H
  00086	72 08		 jb	 SHORT $LN24@Emplace_re

; 253  :             return _Allocate_manually_vector_aligned<_Traits>(_Bytes);

  00088	50		 push	 eax
  00089	e8 00 00 00 00	 call	 ??$_Allocate_manually_vector_aligned@U_Default_allocate_traits@std@@@std@@YAPAXI@Z ; std::_Allocate_manually_vector_aligned<std::_Default_allocate_traits>
  0008e	eb 06		 jmp	 SHORT $LN121@Emplace_re
$LN24@Emplace_re:

; 136  :         return ::operator new(_Bytes);

  00090	50		 push	 eax
  00091	e8 00 00 00 00	 call	 ??2@YAPAXI@Z		; operator new
$LN121@Emplace_re:
; File D:\Program Files\Microsoft Visual Studio\2022\Community\VC\Tools\MSVC\14.43.34808\include\vector

; 885  :         _Alty_traits::construct(_Al, _STD _Unfancy(_Newvec + _Whereoff), _STD forward<_Valty>(_Val)...);

  00096	8b f8		 mov	 edi, eax
  00098	83 c4 04	 add	 esp, 4
$LN22@Emplace_re:
  0009b	8b 45 0c	 mov	 eax, DWORD PTR _<_Val_0>$[ebp]
  0009e	8d 0c 9f	 lea	 ecx, DWORD PTR [edi+ebx*4]

; 886  :         _Constructed_first = _Newvec + _Whereoff;
; 887  : 
; 888  :         if (_Whereptr == _Mylast) { // at back, provide strong guarantee

  000a1	8b 5d 08	 mov	 ebx, DWORD PTR __Whereptr$[ebp]
  000a4	89 4d fc	 mov	 DWORD PTR tv650[ebp], ecx
  000a7	8b 00		 mov	 eax, DWORD PTR [eax]
  000a9	89 01		 mov	 DWORD PTR [ecx], eax
  000ab	8b 46 04	 mov	 eax, DWORD PTR [esi+4]
  000ae	8b 0e		 mov	 ecx, DWORD PTR [esi]
  000b0	3b d8		 cmp	 ebx, eax
  000b2	75 07		 jne	 SHORT $LN3@Emplace_re

; 894  :         } else { // provide basic guarantee

  000b4	8b 5d fc	 mov	 ebx, DWORD PTR tv650[ebp]
; File D:\Program Files\Microsoft Visual Studio\2022\Community\VC\Tools\MSVC\14.43.34808\include\xmemory

; 1955 :             _STD _Copy_memmove(_UFirst, _ULast, _STD _Unfancy(_Dest));

  000b7	8b d7		 mov	 edx, edi
; File D:\Program Files\Microsoft Visual Studio\2022\Community\VC\Tools\MSVC\14.43.34808\include\vector

; 894  :         } else { // provide basic guarantee

  000b9	eb 16		 jmp	 SHORT $LN52@Emplace_re
$LN3@Emplace_re:
; File D:\Program Files\Microsoft Visual Studio\2022\Community\VC\Tools\MSVC\14.43.34808\include\xmemory

; 1955 :             _STD _Copy_memmove(_UFirst, _ULast, _STD _Unfancy(_Dest));

  000bb	57		 push	 edi
  000bc	53		 push	 ebx
  000bd	51		 push	 ecx
  000be	e8 00 00 00 00	 call	 ??$_Copy_memmove@PAHPAH@std@@YAPAHPAH00@Z ; std::_Copy_memmove<int *,int *>
  000c3	8b 46 04	 mov	 eax, DWORD PTR [esi+4]
  000c6	8b cb		 mov	 ecx, ebx
; File D:\Program Files\Microsoft Visual Studio\2022\Community\VC\Tools\MSVC\14.43.34808\include\vector

; 897  :             _STD _Uninitialized_move(_Whereptr, _Mylast, _Newvec + _Whereoff + 1, _Al);

  000c8	8b 5d fc	 mov	 ebx, DWORD PTR tv650[ebp]
; File D:\Program Files\Microsoft Visual Studio\2022\Community\VC\Tools\MSVC\14.43.34808\include\xmemory

; 1955 :             _STD _Copy_memmove(_UFirst, _ULast, _STD _Unfancy(_Dest));

  000cb	83 c4 0c	 add	 esp, 12			; 0000000cH
; File D:\Program Files\Microsoft Visual Studio\2022\Community\VC\Tools\MSVC\14.43.34808\include\vector

; 897  :             _STD _Uninitialized_move(_Whereptr, _Mylast, _Newvec + _Whereoff + 1, _Al);

  000ce	8d 53 04	 lea	 edx, DWORD PTR [ebx+4]
$LN52@Emplace_re:

; 898  :         }
; 899  : 
; 900  :         _Guard._New_begin = nullptr;

  000d1	52		 push	 edx
  000d2	50		 push	 eax
  000d3	51		 push	 ecx
  000d4	e8 00 00 00 00	 call	 ??$_Copy_memmove@PAHPAH@std@@YAPAHPAH00@Z ; std::_Copy_memmove<int *,int *>

; 2054 :         if (_Myfirst) { // destroy and deallocate old array

  000d9	8b 06		 mov	 eax, DWORD PTR [esi]

; 898  :         }
; 899  : 
; 900  :         _Guard._New_begin = nullptr;

  000db	83 c4 0c	 add	 esp, 12			; 0000000cH

; 2054 :         if (_Myfirst) { // destroy and deallocate old array

  000de	85 c0		 test	 eax, eax
  000e0	74 2c		 je	 SHORT $LN72@Emplace_re

; 2055 :             _STD _Destroy_range(_Myfirst, _Mylast, _Al);
; 2056 :             _ASAN_VECTOR_REMOVE;
; 2057 :             _Al.deallocate(_Myfirst, static_cast<size_type>(_Myend - _Myfirst));

  000e2	8b 4e 08	 mov	 ecx, DWORD PTR [esi+8]
  000e5	2b c8		 sub	 ecx, eax
; File D:\Program Files\Microsoft Visual Studio\2022\Community\VC\Tools\MSVC\14.43.34808\include\xmemory

; 981  :         _STD _Deallocate<_New_alignof<_Ty>>(_Ptr, sizeof(_Ty) * _Count);

  000e7	83 e1 fc	 and	 ecx, -4			; fffffffcH

; 284  :         if (_Bytes >= _Big_allocation_threshold) {

  000ea	81 f9 00 10 00
	00		 cmp	 ecx, 4096		; 00001000H
  000f0	72 12		 jb	 SHORT $LN83@Emplace_re

; 205  :     const uintptr_t _Ptr_container   = _Ptr_user[-1];

  000f2	8b 50 fc	 mov	 edx, DWORD PTR [eax-4]
  000f5	83 c1 23	 add	 ecx, 35			; 00000023H

; 206  : 
; 207  :     // If the following asserts, it likely means that we are performing
; 208  :     // an aligned delete on memory coming from an unaligned allocation.
; 209  :     _STL_ASSERT(_Ptr_user[-2] == _Big_allocation_sentinel, "invalid argument");
; 210  : 
; 211  :     // Extra paranoia on aligned allocation/deallocation; ensure _Ptr_container is
; 212  :     // in range [_Min_back_shift, _Non_user_size]
; 213  : #ifdef _DEBUG
; 214  :     constexpr uintptr_t _Min_back_shift = 2 * sizeof(void*);
; 215  : #else // ^^^ defined(_DEBUG) / !defined(_DEBUG) vvv
; 216  :     constexpr uintptr_t _Min_back_shift = sizeof(void*);
; 217  : #endif // ^^^ !defined(_DEBUG) ^^^
; 218  :     const uintptr_t _Back_shift = reinterpret_cast<uintptr_t>(_Ptr) - _Ptr_container;

  000f8	2b c2		 sub	 eax, edx

; 219  :     _STL_VERIFY(_Back_shift >= _Min_back_shift && _Back_shift <= _Non_user_size, "invalid argument");

  000fa	83 c0 fc	 add	 eax, -4			; fffffffcH
  000fd	83 f8 1f	 cmp	 eax, 31			; 0000001fH
  00100	77 2a		 ja	 SHORT $LN80@Emplace_re

; 220  :     _Ptr = reinterpret_cast<void*>(_Ptr_container);

  00102	8b c2		 mov	 eax, edx
$LN83@Emplace_re:

; 289  :         ::operator delete(_Ptr, _Bytes);

  00104	51		 push	 ecx
  00105	50		 push	 eax
  00106	e8 00 00 00 00	 call	 ??3@YAXPAXI@Z		; operator delete
  0010b	83 c4 08	 add	 esp, 8
$LN72@Emplace_re:
; File D:\Program Files\Microsoft Visual Studio\2022\Community\VC\Tools\MSVC\14.43.34808\include\vector

; 2061 :         _Mylast  = _Newvec + _Newsize;

  0010e	8b 45 f4	 mov	 eax, DWORD PTR __Newsize$1$[ebp]
  00111	89 3e		 mov	 DWORD PTR [esi], edi
  00113	8d 0c 87	 lea	 ecx, DWORD PTR [edi+eax*4]

; 901  :         _Change_array(_Newvec, _Newsize, _Newcapacity);
; 902  :         return _Newvec + _Whereoff;

  00116	8b c3		 mov	 eax, ebx

; 2061 :         _Mylast  = _Newvec + _Newsize;

  00118	89 4e 04	 mov	 DWORD PTR [esi+4], ecx

; 2062 :         _Myend   = _Newvec + _Newcapacity;

  0011b	8b 4d f8	 mov	 ecx, DWORD PTR tv652[ebp]
  0011e	03 cf		 add	 ecx, edi

; 903  :     }

  00120	5f		 pop	 edi

; 2062 :         _Myend   = _Newvec + _Newcapacity;

  00121	89 4e 08	 mov	 DWORD PTR [esi+8], ecx

; 903  :     }

  00124	5e		 pop	 esi
  00125	5b		 pop	 ebx
  00126	8b e5		 mov	 esp, ebp
  00128	5d		 pop	 ebp
  00129	c2 08 00	 ret	 8
$LN80@Emplace_re:
; File D:\Program Files\Microsoft Visual Studio\2022\Community\VC\Tools\MSVC\14.43.34808\include\xmemory

; 219  :     _STL_VERIFY(_Back_shift >= _Min_back_shift && _Back_shift <= _Non_user_size, "invalid argument");

  0012c	e8 00 00 00 00	 call	 __invalid_parameter_noinfo_noreturn
$LN123@Emplace_re:
; File D:\Program Files\Microsoft Visual Studio\2022\Community\VC\Tools\MSVC\14.43.34808\include\vector

; 873  :             _Xlength();

  00131	e8 00 00 00 00	 call	 ?_Xlength@?$vector@HV?$allocator@H@std@@@std@@CAXXZ ; std::vector<int,std::allocator<int> >::_Xlength
$LN124@Emplace_re:
; File D:\Program Files\Microsoft Visual Studio\2022\Community\VC\Tools\MSVC\14.43.34808\include\xmemory

; 118  :             _Throw_bad_array_new_length(); // multiply overflow

  00136	e8 00 00 00 00	 call	 ?_Throw_bad_array_new_length@std@@YAXXZ ; std::_Throw_bad_array_new_length
$LN120@Emplace_re:
  0013b	cc		 int	 3
??$_Emplace_reallocate@ABH@?$vector@HV?$allocator@H@std@@@std@@AAEPAHQAHABH@Z ENDP ; std::vector<int,std::allocator<int> >::_Emplace_reallocate<int const &>
_TEXT	ENDS
; Function compile flags: /Ogtp
; File D:\Program Files\Microsoft Visual Studio\2022\Community\VC\Tools\MSVC\14.43.34808\include\vector
; File D:\Program Files\Microsoft Visual Studio\2022\Community\VC\Tools\MSVC\14.43.34808\include\xmemory
; File D:\Program Files\Microsoft Visual Studio\2022\Community\VC\Tools\MSVC\14.43.34808\include\vector
; File D:\Program Files\Microsoft Visual Studio\2022\Community\VC\Tools\MSVC\14.43.34808\include\xmemory
; File D:\Program Files\Microsoft Visual Studio\2022\Community\VC\Tools\MSVC\14.43.34808\include\vector
; File D:\Program Files\Microsoft Visual Studio\2022\Community\VC\Tools\MSVC\14.43.34808\include\xmemory
; File D:\Program Files\Microsoft Visual Studio\2022\Community\VC\Tools\MSVC\14.43.34808\include\vector
; File D:\Program Files\Microsoft Visual Studio\2022\Community\VC\Tools\MSVC\14.43.34808\include\xmemory
; File D:\Program Files\Microsoft Visual Studio\2022\Community\VC\Tools\MSVC\14.43.34808\include\vector
; File D:\Program Files\Microsoft Visual Studio\2022\Community\VC\Tools\MSVC\14.43.34808\include\xmemory
; File D:\Program Files\Microsoft Visual Studio\2022\Community\VC\Tools\MSVC\14.43.34808\include\vector
; File D:\Program Files\Microsoft Visual Studio\2022\Community\VC\Tools\MSVC\14.43.34808\include\xmemory
; File D:\Program Files\Microsoft Visual Studio\2022\Community\VC\Tools\MSVC\14.43.34808\include\vector
; File D:\Program Files\Microsoft Visual Studio\2022\Community\VC\Tools\MSVC\14.43.34808\include\xmemory
; File D:\Program Files\Microsoft Visual Studio\2022\Community\VC\Tools\MSVC\14.43.34808\include\vector
; File D:\Program Files\Microsoft Visual Studio\2022\Community\VC\Tools\MSVC\14.43.34808\include\xmemory
; File D:\Program Files\Microsoft Visual Studio\2022\Community\VC\Tools\MSVC\14.43.34808\include\vector
;	COMDAT ??$_Emplace_reallocate@ABV?$basic_string@DU?$char_traits@D@std@@V?$allocator@D@2@@std@@@?$vector@V?$basic_string@DU?$char_traits@D@std@@V?$allocator@D@2@@std@@V?$allocator@V?$basic_string@DU?$char_traits@D@std@@V?$allocator@D@2@@std@@@2@@std@@AAEPAV?$basic_string@DU?$char_traits@D@std@@V?$allocator@D@2@@1@QAV21@ABV21@@Z
_TEXT	SEGMENT
__Guard$ = -48						; size = 20
tv517 = -28						; size = 4
__Oldsize$1$ = -24					; size = 4
__Whereoff$1$ = -20					; size = 4
$T2 = -20						; size = 4
tv518 = -16						; size = 4
__$EHRec$ = -12						; size = 12
__Whereptr$ = 8						; size = 4
_<_Val_0>$ = 12						; size = 4
??$_Emplace_reallocate@ABV?$basic_string@DU?$char_traits@D@std@@V?$allocator@D@2@@std@@@?$vector@V?$basic_string@DU?$char_traits@D@std@@V?$allocator@D@2@@std@@V?$allocator@V?$basic_string@DU?$char_traits@D@std@@V?$allocator@D@2@@std@@@2@@std@@AAEPAV?$basic_string@DU?$char_traits@D@std@@V?$allocator@D@2@@1@QAV21@ABV21@@Z PROC ; std::vector<std::basic_string<char,std::char_traits<char>,std::allocator<char> >,std::allocator<std::basic_string<char,std::char_traits<char>,std::allocator<char> > > >::_Emplace_reallocate<std::basic_string<char,std::char_traits<char>,std::allocator<char> > const &>, COMDAT
; _this$ = ecx

; 860  :     _CONSTEXPR20 pointer _Emplace_reallocate(const pointer _Whereptr, _Valty&&... _Val) {

  00000	55		 push	 ebp
  00001	8b ec		 mov	 ebp, esp
  00003	6a ff		 push	 -1
  00005	68 00 00 00 00	 push	 __ehhandler$??$_Emplace_reallocate@ABV?$basic_string@DU?$char_traits@D@std@@V?$allocator@D@2@@std@@@?$vector@V?$basic_string@DU?$char_traits@D@std@@V?$allocator@D@2@@std@@V?$allocator@V?$basic_string@DU?$char_traits@D@std@@V?$allocator@D@2@@std@@@2@@std@@AAEPAV?$basic_string@DU?$char_traits@D@std@@V?$allocator@D@2@@1@QAV21@ABV21@@Z
  0000a	64 a1 00 00 00
	00		 mov	 eax, DWORD PTR fs:0
  00010	50		 push	 eax
  00011	83 ec 24	 sub	 esp, 36			; 00000024H
  00014	53		 push	 ebx
  00015	56		 push	 esi
  00016	57		 push	 edi
  00017	a1 00 00 00 00	 mov	 eax, DWORD PTR ___security_cookie
  0001c	33 c5		 xor	 eax, ebp
  0001e	50		 push	 eax
  0001f	8d 45 f4	 lea	 eax, DWORD PTR __$EHRec$[ebp]
  00022	64 a3 00 00 00
	00		 mov	 DWORD PTR fs:0, eax
  00028	8b f1		 mov	 esi, ecx

; 861  :         // reallocate and insert by perfectly forwarding _Val at _Whereptr
; 862  :         _Alty& _Al        = _Getal();
; 863  :         auto& _My_data    = _Mypair._Myval2;
; 864  :         pointer& _Myfirst = _My_data._Myfirst;
; 865  :         pointer& _Mylast  = _My_data._Mylast;
; 866  : 
; 867  :         _STL_INTERNAL_CHECK(_Mylast == _My_data._Myend); // check that we have no unused capacity
; 868  : 
; 869  :         const auto _Whereoff = static_cast<size_type>(_Whereptr - _Myfirst);

  0002a	8b 1e		 mov	 ebx, DWORD PTR [esi]
  0002c	b8 ab aa aa 2a	 mov	 eax, 715827883		; 2aaaaaabH
  00031	8b 55 08	 mov	 edx, DWORD PTR __Whereptr$[ebp]

; 870  :         const auto _Oldsize  = static_cast<size_type>(_Mylast - _Myfirst);

  00034	8b 4e 04	 mov	 ecx, DWORD PTR [esi+4]
  00037	2b d3		 sub	 edx, ebx
  00039	f7 ea		 imul	 edx
  0003b	2b cb		 sub	 ecx, ebx
  0003d	c1 fa 02	 sar	 edx, 2
  00040	8b c2		 mov	 eax, edx
  00042	c1 e8 1f	 shr	 eax, 31			; 0000001fH
  00045	03 c2		 add	 eax, edx
  00047	89 45 ec	 mov	 DWORD PTR __Whereoff$1$[ebp], eax
  0004a	b8 ab aa aa 2a	 mov	 eax, 715827883		; 2aaaaaabH
  0004f	f7 e9		 imul	 ecx
  00051	c1 fa 02	 sar	 edx, 2
  00054	8b c2		 mov	 eax, edx
  00056	c1 e8 1f	 shr	 eax, 31			; 0000001fH
  00059	03 c2		 add	 eax, edx
  0005b	89 45 e8	 mov	 DWORD PTR __Oldsize$1$[ebp], eax

; 871  : 
; 872  :         if (_Oldsize == max_size()) {

  0005e	3d aa aa aa 0a	 cmp	 eax, 178956970		; 0aaaaaaaH
  00063	0f 84 6a 01 00
	00		 je	 $LN85@Emplace_re

; 1909 :         return static_cast<size_type>(_My_data._Myend - _My_data._Myfirst);

  00069	8b 4e 08	 mov	 ecx, DWORD PTR [esi+8]

; 874  :         }
; 875  : 
; 876  :         const size_type _Newsize = _Oldsize + 1;

  0006c	8d 78 01	 lea	 edi, DWORD PTR [eax+1]

; 1909 :         return static_cast<size_type>(_My_data._Myend - _My_data._Myfirst);

  0006f	2b cb		 sub	 ecx, ebx
  00071	b8 ab aa aa 2a	 mov	 eax, 715827883		; 2aaaaaabH
  00076	f7 e9		 imul	 ecx

; 1996 :         if (_Oldcapacity > _Max - _Oldcapacity / 2) {

  00078	b8 aa aa aa 0a	 mov	 eax, 178956970		; 0aaaaaaaH

; 1909 :         return static_cast<size_type>(_My_data._Myend - _My_data._Myfirst);

  0007d	c1 fa 02	 sar	 edx, 2
  00080	8b ca		 mov	 ecx, edx
  00082	c1 e9 1f	 shr	 ecx, 31			; 0000001fH
  00085	03 ca		 add	 ecx, edx

; 1996 :         if (_Oldcapacity > _Max - _Oldcapacity / 2) {

  00087	8b d1		 mov	 edx, ecx
  00089	d1 ea		 shr	 edx, 1
  0008b	2b c2		 sub	 eax, edx
  0008d	3b c8		 cmp	 ecx, eax
  0008f	76 19		 jbe	 SHORT $LN8@Emplace_re

; 1997 :             return _Max; // geometric growth would overflow

  00091	b8 f0 ff ff ff	 mov	 eax, -16		; fffffff0H
  00096	c7 45 f0 f0 ff
	ff ff		 mov	 DWORD PTR tv518[ebp], -16 ; fffffff0H
; File D:\Program Files\Microsoft Visual Studio\2022\Community\VC\Tools\MSVC\14.43.34808\include\xmemory

; 253  :             return _Allocate_manually_vector_aligned<_Traits>(_Bytes);

  0009d	50		 push	 eax
; File D:\Program Files\Microsoft Visual Studio\2022\Community\VC\Tools\MSVC\14.43.34808\include\vector

; 1997 :             return _Max; // geometric growth would overflow

  0009e	bb aa aa aa 0a	 mov	 ebx, 178956970		; 0aaaaaaaH
; File D:\Program Files\Microsoft Visual Studio\2022\Community\VC\Tools\MSVC\14.43.34808\include\xmemory

; 253  :             return _Allocate_manually_vector_aligned<_Traits>(_Bytes);

  000a3	e8 00 00 00 00	 call	 ??$_Allocate_manually_vector_aligned@U_Default_allocate_traits@std@@@std@@YAPAXI@Z ; std::_Allocate_manually_vector_aligned<std::_Default_allocate_traits>
  000a8	eb 3c		 jmp	 SHORT $LN83@Emplace_re
$LN8@Emplace_re:
; File D:\Program Files\Microsoft Visual Studio\2022\Community\VC\Tools\MSVC\14.43.34808\include\vector

; 2000 :         const size_type _Geometric = _Oldcapacity + _Oldcapacity / 2;

  000aa	8d 04 0a	 lea	 eax, DWORD PTR [edx+ecx]
; File D:\Program Files\Microsoft Visual Studio\2022\Community\VC\Tools\MSVC\14.43.34808\include\xmemory

; 117  :         if (_Count > _Max_possible) {

  000ad	8b df		 mov	 ebx, edi
  000af	3b c7		 cmp	 eax, edi
  000b1	0f 43 d8	 cmovae	 ebx, eax
  000b4	81 fb aa aa aa
	0a		 cmp	 ebx, 178956970		; 0aaaaaaaH
  000ba	0f 87 18 01 00
	00		 ja	 $LN86@Emplace_re

; 119  :         }
; 120  :     }
; 121  : 
; 122  :     return _Count * _Ty_size;

  000c0	8d 04 5b	 lea	 eax, DWORD PTR [ebx+ebx*2]
  000c3	c1 e0 03	 shl	 eax, 3
  000c6	89 45 f0	 mov	 DWORD PTR tv518[ebp], eax

; 227  :     if (_Bytes == 0) {

  000c9	85 c0		 test	 eax, eax
  000cb	75 04		 jne	 SHORT $LN23@Emplace_re

; 228  :         return nullptr;

  000cd	33 ff		 xor	 edi, edi
  000cf	eb 1a		 jmp	 SHORT $LN22@Emplace_re
$LN23@Emplace_re:

; 229  :     }
; 230  : 
; 231  : #if _HAS_CXX20 // TRANSITION, GH-1532
; 232  :     if (_STD is_constant_evaluated()) {
; 233  :         return _Traits::_Allocate(_Bytes);
; 234  :     }
; 235  : #endif // _HAS_CXX20
; 236  : 
; 237  : #ifdef __cpp_aligned_new
; 238  :     if constexpr (_Align > __STDCPP_DEFAULT_NEW_ALIGNMENT__) {
; 239  :         size_t _Passed_align = _Align;
; 240  : #if defined(_M_IX86) || defined(_M_X64)
; 241  :         if (_Bytes >= _Big_allocation_threshold) {
; 242  :             // boost the alignment of big allocations to help autovectorization
; 243  :             _Passed_align = (_STD max)(_Align, _Big_allocation_alignment);
; 244  :         }
; 245  : #endif // defined(_M_IX86) || defined(_M_X64)
; 246  :         return _Traits::_Allocate_aligned(_Bytes, _Passed_align);
; 247  :     } else
; 248  : #endif // defined(__cpp_aligned_new)
; 249  :     {
; 250  : #if defined(_M_IX86) || defined(_M_X64)
; 251  :         if (_Bytes >= _Big_allocation_threshold) {

  000d1	3d 00 10 00 00	 cmp	 eax, 4096		; 00001000H
  000d6	72 08		 jb	 SHORT $LN24@Emplace_re

; 253  :             return _Allocate_manually_vector_aligned<_Traits>(_Bytes);

  000d8	50		 push	 eax
  000d9	e8 00 00 00 00	 call	 ??$_Allocate_manually_vector_aligned@U_Default_allocate_traits@std@@@std@@YAPAXI@Z ; std::_Allocate_manually_vector_aligned<std::_Default_allocate_traits>
  000de	eb 06		 jmp	 SHORT $LN83@Emplace_re
$LN24@Emplace_re:

; 136  :         return ::operator new(_Bytes);

  000e0	50		 push	 eax
  000e1	e8 00 00 00 00	 call	 ??2@YAPAXI@Z		; operator new
$LN83@Emplace_re:
; File D:\Program Files\Microsoft Visual Studio\2022\Community\VC\Tools\MSVC\14.43.34808\include\vector

; 880  :         const pointer _Constructed_last = _Newvec + _Whereoff + 1;

  000e6	8b f8		 mov	 edi, eax
  000e8	83 c4 04	 add	 esp, 4
$LN22@Emplace_re:
  000eb	8b 45 ec	 mov	 eax, DWORD PTR __Whereoff$1$[ebp]

; 882  :         _Reallocation_guard _Guard{_Al, _Newvec, _Newcapacity, _Constructed_last, _Constructed_last};

  000ee	89 75 d0	 mov	 DWORD PTR __Guard$[ebp], esi
  000f1	89 7d d4	 mov	 DWORD PTR __Guard$[ebp+4], edi
  000f4	89 5d d8	 mov	 DWORD PTR __Guard$[ebp+8], ebx
  000f7	8d 04 40	 lea	 eax, DWORD PTR [eax+eax*2]
  000fa	8d 0c c7	 lea	 ecx, DWORD PTR [edi+eax*8]
  000fd	8d 41 18	 lea	 eax, DWORD PTR [ecx+24]
  00100	89 4d e4	 mov	 DWORD PTR tv517[ebp], ecx
  00103	89 45 ec	 mov	 DWORD PTR $T2[ebp], eax
  00106	89 45 dc	 mov	 DWORD PTR __Guard$[ebp+12], eax
  00109	89 45 e0	 mov	 DWORD PTR __Guard$[ebp+16], eax
; File D:\Program Files\Microsoft Visual Studio\2022\Community\VC\Tools\MSVC\14.43.34808\include\xmemory

; 732  :         ::new (const_cast<void*>(static_cast<const volatile void*>(_Ptr))) _Objty(_STD forward<_Types>(_Args)...);

  0010c	ff 75 0c	 push	 DWORD PTR _<_Val_0>$[ebp]
; File D:\Program Files\Microsoft Visual Studio\2022\Community\VC\Tools\MSVC\14.43.34808\include\vector

; 882  :         _Reallocation_guard _Guard{_Al, _Newvec, _Newcapacity, _Constructed_last, _Constructed_last};

  0010f	c7 45 fc 00 00
	00 00		 mov	 DWORD PTR __$EHRec$[ebp+8], 0
; File D:\Program Files\Microsoft Visual Studio\2022\Community\VC\Tools\MSVC\14.43.34808\include\xmemory

; 732  :         ::new (const_cast<void*>(static_cast<const volatile void*>(_Ptr))) _Objty(_STD forward<_Types>(_Args)...);

  00116	e8 00 00 00 00	 call	 ??0?$basic_string@DU?$char_traits@D@std@@V?$allocator@D@2@@std@@QAE@ABV01@@Z ; std::basic_string<char,std::char_traits<char>,std::allocator<char> >::basic_string<char,std::char_traits<char>,std::allocator<char> >
; File D:\Program Files\Microsoft Visual Studio\2022\Community\VC\Tools\MSVC\14.43.34808\include\vector

; 888  :         if (_Whereptr == _Mylast) { // at back, provide strong guarantee

  0011b	8b 56 04	 mov	 edx, DWORD PTR [esi+4]
  0011e	8b 5d 08	 mov	 ebx, DWORD PTR __Whereptr$[ebp]
  00121	8b 0e		 mov	 ecx, DWORD PTR [esi]
  00123	3b da		 cmp	 ebx, edx
  00125	75 04		 jne	 SHORT $LN3@Emplace_re

; 889  :             if constexpr (is_nothrow_move_constructible_v<_Ty> || !is_copy_constructible_v<_Ty>) {
; 890  :                 _STD _Uninitialized_move(_Myfirst, _Mylast, _Newvec, _Al);

  00127	8b c7		 mov	 eax, edi

; 891  :             } else {
; 892  :                 _STD _Uninitialized_copy(_Myfirst, _Mylast, _Newvec, _Al);
; 893  :             }
; 894  :         } else { // provide basic guarantee

  00129	eb 14		 jmp	 SHORT $LN4@Emplace_re
$LN3@Emplace_re:

; 895  :             _STD _Uninitialized_move(_Myfirst, _Whereptr, _Newvec, _Al);

  0012b	56		 push	 esi
  0012c	57		 push	 edi
  0012d	53		 push	 ebx
  0012e	51		 push	 ecx
  0012f	e8 00 00 00 00	 call	 ??$_Uninitialized_move@PAV?$basic_string@DU?$char_traits@D@std@@V?$allocator@D@2@@std@@V?$allocator@V?$basic_string@DU?$char_traits@D@std@@V?$allocator@D@2@@std@@@2@@std@@YAPAV?$basic_string@DU?$char_traits@D@std@@V?$allocator@D@2@@0@QAV10@0PAV10@AAV?$allocator@V?$basic_string@DU?$char_traits@D@std@@V?$allocator@D@2@@std@@@0@@Z ; std::_Uninitialized_move<std::basic_string<char,std::char_traits<char>,std::allocator<char> > *,std::allocator<std::basic_string<char,std::char_traits<char>,std::allocator<char> > > >

; 896  :             _Constructed_first = _Newvec;
; 897  :             _STD _Uninitialized_move(_Whereptr, _Mylast, _Newvec + _Whereoff + 1, _Al);

  00134	8b 56 04	 mov	 edx, DWORD PTR [esi+4]
  00137	83 c4 10	 add	 esp, 16			; 00000010H
  0013a	8b 45 ec	 mov	 eax, DWORD PTR $T2[ebp]
  0013d	8b cb		 mov	 ecx, ebx
$LN4@Emplace_re:

; 898  :         }
; 899  : 
; 900  :         _Guard._New_begin = nullptr;

  0013f	56		 push	 esi
  00140	50		 push	 eax
  00141	52		 push	 edx
  00142	51		 push	 ecx
  00143	e8 00 00 00 00	 call	 ??$_Uninitialized_move@PAV?$basic_string@DU?$char_traits@D@std@@V?$allocator@D@2@@std@@V?$allocator@V?$basic_string@DU?$char_traits@D@std@@V?$allocator@D@2@@std@@@2@@std@@YAPAV?$basic_string@DU?$char_traits@D@std@@V?$allocator@D@2@@0@QAV10@0PAV10@AAV?$allocator@V?$basic_string@DU?$char_traits@D@std@@V?$allocator@D@2@@std@@@0@@Z ; std::_Uninitialized_move<std::basic_string<char,std::char_traits<char>,std::allocator<char> > *,std::allocator<std::basic_string<char,std::char_traits<char>,std::allocator<char> > > >

; 2054 :         if (_Myfirst) { // destroy and deallocate old array

  00148	8b 0e		 mov	 ecx, DWORD PTR [esi]

; 898  :         }
; 899  : 
; 900  :         _Guard._New_begin = nullptr;

  0014a	83 c4 10	 add	 esp, 16			; 00000010H

; 2054 :         if (_Myfirst) { // destroy and deallocate old array

  0014d	85 c9		 test	 ecx, ecx
  0014f	74 4f		 je	 SHORT $LN41@Emplace_re

; 2055 :             _STD _Destroy_range(_Myfirst, _Mylast, _Al);

  00151	56		 push	 esi
  00152	ff 76 04	 push	 DWORD PTR [esi+4]
  00155	51		 push	 ecx
  00156	e8 00 00 00 00	 call	 ??$_Destroy_range@V?$allocator@V?$basic_string@DU?$char_traits@D@std@@V?$allocator@D@2@@std@@@std@@@std@@YAXPAV?$basic_string@DU?$char_traits@D@std@@V?$allocator@D@2@@0@QAV10@AAV?$allocator@V?$basic_string@DU?$char_traits@D@std@@V?$allocator@D@2@@std@@@0@@Z ; std::_Destroy_range<std::allocator<std::basic_string<char,std::char_traits<char>,std::allocator<char> > > >

; 2056 :             _ASAN_VECTOR_REMOVE;
; 2057 :             _Al.deallocate(_Myfirst, static_cast<size_type>(_Myend - _Myfirst));

  0015b	8b 4e 08	 mov	 ecx, DWORD PTR [esi+8]
  0015e	b8 ab aa aa 2a	 mov	 eax, 715827883		; 2aaaaaabH
  00163	8b 1e		 mov	 ebx, DWORD PTR [esi]
  00165	83 c4 0c	 add	 esp, 12			; 0000000cH
  00168	2b cb		 sub	 ecx, ebx
  0016a	f7 e9		 imul	 ecx
  0016c	c1 fa 02	 sar	 edx, 2
  0016f	8b c2		 mov	 eax, edx
  00171	c1 e8 1f	 shr	 eax, 31			; 0000001fH
  00174	03 c2		 add	 eax, edx
; File D:\Program Files\Microsoft Visual Studio\2022\Community\VC\Tools\MSVC\14.43.34808\include\xmemory

; 981  :         _STD _Deallocate<_New_alignof<_Ty>>(_Ptr, sizeof(_Ty) * _Count);

  00176	8d 0c 40	 lea	 ecx, DWORD PTR [eax+eax*2]
  00179	c1 e1 03	 shl	 ecx, 3

; 284  :         if (_Bytes >= _Big_allocation_threshold) {

  0017c	81 f9 00 10 00
	00		 cmp	 ecx, 4096		; 00001000H
  00182	72 12		 jb	 SHORT $LN52@Emplace_re

; 205  :     const uintptr_t _Ptr_container   = _Ptr_user[-1];

  00184	8b 53 fc	 mov	 edx, DWORD PTR [ebx-4]
  00187	83 c1 23	 add	 ecx, 35			; 00000023H

; 206  : 
; 207  :     // If the following asserts, it likely means that we are performing
; 208  :     // an aligned delete on memory coming from an unaligned allocation.
; 209  :     _STL_ASSERT(_Ptr_user[-2] == _Big_allocation_sentinel, "invalid argument");
; 210  : 
; 211  :     // Extra paranoia on aligned allocation/deallocation; ensure _Ptr_container is
; 212  :     // in range [_Min_back_shift, _Non_user_size]
; 213  : #ifdef _DEBUG
; 214  :     constexpr uintptr_t _Min_back_shift = 2 * sizeof(void*);
; 215  : #else // ^^^ defined(_DEBUG) / !defined(_DEBUG) vvv
; 216  :     constexpr uintptr_t _Min_back_shift = sizeof(void*);
; 217  : #endif // ^^^ !defined(_DEBUG) ^^^
; 218  :     const uintptr_t _Back_shift = reinterpret_cast<uintptr_t>(_Ptr) - _Ptr_container;

  0018a	2b da		 sub	 ebx, edx

; 219  :     _STL_VERIFY(_Back_shift >= _Min_back_shift && _Back_shift <= _Non_user_size, "invalid argument");

  0018c	8d 43 fc	 lea	 eax, DWORD PTR [ebx-4]
  0018f	83 f8 1f	 cmp	 eax, 31			; 0000001fH
  00192	77 3a		 ja	 SHORT $LN49@Emplace_re

; 220  :     _Ptr = reinterpret_cast<void*>(_Ptr_container);

  00194	8b da		 mov	 ebx, edx
$LN52@Emplace_re:

; 289  :         ::operator delete(_Ptr, _Bytes);

  00196	51		 push	 ecx
  00197	53		 push	 ebx
  00198	e8 00 00 00 00	 call	 ??3@YAXPAXI@Z		; operator delete
  0019d	83 c4 08	 add	 esp, 8
$LN41@Emplace_re:
; File D:\Program Files\Microsoft Visual Studio\2022\Community\VC\Tools\MSVC\14.43.34808\include\vector

; 2061 :         _Mylast  = _Newvec + _Newsize;

  001a0	8b 45 e8	 mov	 eax, DWORD PTR __Oldsize$1$[ebp]
  001a3	40		 inc	 eax
  001a4	89 3e		 mov	 DWORD PTR [esi], edi
  001a6	8d 0c 40	 lea	 ecx, DWORD PTR [eax+eax*2]

; 901  :         _Change_array(_Newvec, _Newsize, _Newcapacity);
; 902  :         return _Newvec + _Whereoff;

  001a9	8b 45 e4	 mov	 eax, DWORD PTR tv517[ebp]

; 2061 :         _Mylast  = _Newvec + _Newsize;

  001ac	8d 0c cf	 lea	 ecx, DWORD PTR [edi+ecx*8]
  001af	89 4e 04	 mov	 DWORD PTR [esi+4], ecx

; 2062 :         _Myend   = _Newvec + _Newcapacity;

  001b2	8b 4d f0	 mov	 ecx, DWORD PTR tv518[ebp]
  001b5	03 cf		 add	 ecx, edi
  001b7	89 4e 08	 mov	 DWORD PTR [esi+8], ecx

; 903  :     }

  001ba	8b 4d f4	 mov	 ecx, DWORD PTR __$EHRec$[ebp]
  001bd	64 89 0d 00 00
	00 00		 mov	 DWORD PTR fs:0, ecx
  001c4	59		 pop	 ecx
  001c5	5f		 pop	 edi
  001c6	5e		 pop	 esi
  001c7	5b		 pop	 ebx
  001c8	8b e5		 mov	 esp, ebp
  001ca	5d		 pop	 ebp
  001cb	c2 08 00	 ret	 8
$LN49@Emplace_re:
; File D:\Program Files\Microsoft Visual Studio\2022\Community\VC\Tools\MSVC\14.43.34808\include\xmemory

; 219  :     _STL_VERIFY(_Back_shift >= _Min_back_shift && _Back_shift <= _Non_user_size, "invalid argument");

  001ce	e8 00 00 00 00	 call	 __invalid_parameter_noinfo_noreturn
$LN85@Emplace_re:
; File D:\Program Files\Microsoft Visual Studio\2022\Community\VC\Tools\MSVC\14.43.34808\include\vector

; 873  :             _Xlength();

  001d3	e8 00 00 00 00	 call	 ?_Xlength@?$vector@V?$basic_string@DU?$char_traits@D@std@@V?$allocator@D@2@@std@@V?$allocator@V?$basic_string@DU?$char_traits@D@std@@V?$allocator@D@2@@std@@@2@@std@@CAXXZ ; std::vector<std::basic_string<char,std::char_traits<char>,std::allocator<char> >,std::allocator<std::basic_string<char,std::char_traits<char>,std::allocator<char> > > >::_Xlength
$LN86@Emplace_re:
; File D:\Program Files\Microsoft Visual Studio\2022\Community\VC\Tools\MSVC\14.43.34808\include\xmemory

; 118  :             _Throw_bad_array_new_length(); // multiply overflow

  001d8	e8 00 00 00 00	 call	 ?_Throw_bad_array_new_length@std@@YAXXZ ; std::_Throw_bad_array_new_length
$LN82@Emplace_re:
  001dd	cc		 int	 3
_TEXT	ENDS
;	COMDAT text$x
text$x	SEGMENT
__unwindfunclet$??$_Emplace_reallocate@ABV?$basic_string@DU?$char_traits@D@std@@V?$allocator@D@2@@std@@@?$vector@V?$basic_string@DU?$char_traits@D@std@@V?$allocator@D@2@@std@@V?$allocator@V?$basic_string@DU?$char_traits@D@std@@V?$allocator@D@2@@std@@@2@@std@@AAEPAV?$basic_string@DU?$char_traits@D@std@@V?$allocator@D@2@@1@QAV21@ABV21@@Z$0:
  00000	8d 4d d0	 lea	 ecx, DWORD PTR __Guard$[ebp]
  00003	e9 00 00 00 00	 jmp	 ??1_Reallocation_guard@?$vector@V?$basic_string@DU?$char_traits@D@std@@V?$allocator@D@2@@std@@V?$allocator@V?$basic_string@DU?$char_traits@D@std@@V?$allocator@D@2@@std@@@2@@std@@QAE@XZ ; std::vector<std::basic_string<char,std::char_traits<char>,std::allocator<char> >,std::allocator<std::basic_string<char,std::char_traits<char>,std::allocator<char> > > >::_Reallocation_guard::~_Reallocation_guard
  00008	cc		 int	 3
  00009	cc		 int	 3
  0000a	cc		 int	 3
  0000b	cc		 int	 3
  0000c	cc		 int	 3
__ehhandler$??$_Emplace_reallocate@ABV?$basic_string@DU?$char_traits@D@std@@V?$allocator@D@2@@std@@@?$vector@V?$basic_string@DU?$char_traits@D@std@@V?$allocator@D@2@@std@@V?$allocator@V?$basic_string@DU?$char_traits@D@std@@V?$allocator@D@2@@std@@@2@@std@@AAEPAV?$basic_string@DU?$char_traits@D@std@@V?$allocator@D@2@@1@QAV21@ABV21@@Z:
  0000d	90		 npad	 1
  0000e	90		 npad	 1
  0000f	8b 54 24 08	 mov	 edx, DWORD PTR [esp+8]
  00013	8d 42 0c	 lea	 eax, DWORD PTR [edx+12]
  00016	8b 4a cc	 mov	 ecx, DWORD PTR [edx-52]
  00019	33 c8		 xor	 ecx, eax
  0001b	e8 00 00 00 00	 call	 @__security_check_cookie@4
  00020	b8 00 00 00 00	 mov	 eax, OFFSET __ehfuncinfo$??$_Emplace_reallocate@ABV?$basic_string@DU?$char_traits@D@std@@V?$allocator@D@2@@std@@@?$vector@V?$basic_string@DU?$char_traits@D@std@@V?$allocator@D@2@@std@@V?$allocator@V?$basic_string@DU?$char_traits@D@std@@V?$allocator@D@2@@std@@@2@@std@@AAEPAV?$basic_string@DU?$char_traits@D@std@@V?$allocator@D@2@@1@QAV21@ABV21@@Z
  00025	e9 00 00 00 00	 jmp	 ___CxxFrameHandler3
text$x	ENDS
??$_Emplace_reallocate@ABV?$basic_string@DU?$char_traits@D@std@@V?$allocator@D@2@@std@@@?$vector@V?$basic_string@DU?$char_traits@D@std@@V?$allocator@D@2@@std@@V?$allocator@V?$basic_string@DU?$char_traits@D@std@@V?$allocator@D@2@@std@@@2@@std@@AAEPAV?$basic_string@DU?$char_traits@D@std@@V?$allocator@D@2@@1@QAV21@ABV21@@Z ENDP ; std::vector<std::basic_string<char,std::char_traits<char>,std::allocator<char> >,std::allocator<std::basic_string<char,std::char_traits<char>,std::allocator<char> > > >::_Emplace_reallocate<std::basic_string<char,std::char_traits<char>,std::allocator<char> > const &>
; Function compile flags: /Ogtp
; File D:\Program Files\Microsoft Visual Studio\2022\Community\VC\Tools\MSVC\14.43.34808\include\vector
;	COMDAT ?_Xlength@?$vector@V?$basic_string@DU?$char_traits@D@std@@V?$allocator@D@2@@std@@V?$allocator@V?$basic_string@DU?$char_traits@D@std@@V?$allocator@D@2@@std@@@2@@std@@CAXXZ
_TEXT	SEGMENT
?_Xlength@?$vector@V?$basic_string@DU?$char_traits@D@std@@V?$allocator@D@2@@std@@V?$allocator@V?$basic_string@DU?$char_traits@D@std@@V?$allocator@D@2@@std@@@2@@std@@CAXXZ PROC ; std::vector<std::basic_string<char,std::char_traits<char>,std::allocator<char> >,std::allocator<std::basic_string<char,std::char_traits<char>,std::allocator<char> > > >::_Xlength, COMDAT

; 2169 :         _Xlength_error("vector too long");

  00000	68 00 00 00 00	 push	 OFFSET ??_C@_0BA@FOIKENOD@vector?5too?5long@
  00005	e8 00 00 00 00	 call	 ?_Xlength_error@std@@YAXPBD@Z ; std::_Xlength_error
$LN3@Xlength:
  0000a	cc		 int	 3
?_Xlength@?$vector@V?$basic_string@DU?$char_traits@D@std@@V?$allocator@D@2@@std@@V?$allocator@V?$basic_string@DU?$char_traits@D@std@@V?$allocator@D@2@@std@@@2@@std@@CAXXZ ENDP ; std::vector<std::basic_string<char,std::char_traits<char>,std::allocator<char> >,std::allocator<std::basic_string<char,std::char_traits<char>,std::allocator<char> > > >::_Xlength
_TEXT	ENDS
; Function compile flags: /Ogtp
; File D:\Program Files\Microsoft Visual Studio\2022\Community\VC\Tools\MSVC\14.43.34808\include\vector
;	COMDAT ?_Xlength@?$vector@HV?$allocator@H@std@@@std@@CAXXZ
_TEXT	SEGMENT
?_Xlength@?$vector@HV?$allocator@H@std@@@std@@CAXXZ PROC ; std::vector<int,std::allocator<int> >::_Xlength, COMDAT

; 2169 :         _Xlength_error("vector too long");

  00000	68 00 00 00 00	 push	 OFFSET ??_C@_0BA@FOIKENOD@vector?5too?5long@
  00005	e8 00 00 00 00	 call	 ?_Xlength_error@std@@YAXPBD@Z ; std::_Xlength_error
$LN3@Xlength:
  0000a	cc		 int	 3
?_Xlength@?$vector@HV?$allocator@H@std@@@std@@CAXXZ ENDP ; std::vector<int,std::allocator<int> >::_Xlength
_TEXT	ENDS
; Function compile flags: /Ogtp
; File D:\Program Files\Microsoft Visual Studio\2022\Community\VC\Tools\MSVC\14.43.34808\include\vector
; File D:\Program Files\Microsoft Visual Studio\2022\Community\VC\Tools\MSVC\14.43.34808\include\xmemory
; File D:\Program Files\Microsoft Visual Studio\2022\Community\VC\Tools\MSVC\14.43.34808\include\vector
; File D:\Program Files\Microsoft Visual Studio\2022\Community\VC\Tools\MSVC\14.43.34808\include\xmemory
; File D:\Program Files\Microsoft Visual Studio\2022\Community\VC\Tools\MSVC\14.43.34808\include\vector
; File D:\Program Files\Microsoft Visual Studio\2022\Community\VC\Tools\MSVC\14.43.34808\include\xmemory
; File D:\Program Files\Microsoft Visual Studio\2022\Community\VC\Tools\MSVC\14.43.34808\include\vector
;	COMDAT ??1?$vector@HV?$allocator@H@std@@@std@@QAE@XZ
_TEXT	SEGMENT
??1?$vector@HV?$allocator@H@std@@@std@@QAE@XZ PROC	; std::vector<int,std::allocator<int> >::~vector<int,std::allocator<int> >, COMDAT
; _this$ = ecx

; 814  :     _CONSTEXPR20 ~vector() noexcept {

  00000	56		 push	 esi
  00001	8b f1		 mov	 esi, ecx

; 2075 :         if (_Myfirst) { // destroy and deallocate old array

  00003	8b 06		 mov	 eax, DWORD PTR [esi]
  00005	85 c0		 test	 eax, eax
  00007	74 40		 je	 SHORT $LN5@vector

; 2076 :             _STD _Destroy_range(_Myfirst, _Mylast, _Al);
; 2077 :             _ASAN_VECTOR_REMOVE;
; 2078 :             _Al.deallocate(_Myfirst, static_cast<size_type>(_Myend - _Myfirst));

  00009	8b 4e 08	 mov	 ecx, DWORD PTR [esi+8]
  0000c	2b c8		 sub	 ecx, eax
; File D:\Program Files\Microsoft Visual Studio\2022\Community\VC\Tools\MSVC\14.43.34808\include\xmemory

; 981  :         _STD _Deallocate<_New_alignof<_Ty>>(_Ptr, sizeof(_Ty) * _Count);

  0000e	83 e1 fc	 and	 ecx, -4			; fffffffcH

; 284  :         if (_Bytes >= _Big_allocation_threshold) {

  00011	81 f9 00 10 00
	00		 cmp	 ecx, 4096		; 00001000H
  00017	72 12		 jb	 SHORT $LN24@vector

; 205  :     const uintptr_t _Ptr_container   = _Ptr_user[-1];

  00019	8b 50 fc	 mov	 edx, DWORD PTR [eax-4]
  0001c	83 c1 23	 add	 ecx, 35			; 00000023H

; 206  : 
; 207  :     // If the following asserts, it likely means that we are performing
; 208  :     // an aligned delete on memory coming from an unaligned allocation.
; 209  :     _STL_ASSERT(_Ptr_user[-2] == _Big_allocation_sentinel, "invalid argument");
; 210  : 
; 211  :     // Extra paranoia on aligned allocation/deallocation; ensure _Ptr_container is
; 212  :     // in range [_Min_back_shift, _Non_user_size]
; 213  : #ifdef _DEBUG
; 214  :     constexpr uintptr_t _Min_back_shift = 2 * sizeof(void*);
; 215  : #else // ^^^ defined(_DEBUG) / !defined(_DEBUG) vvv
; 216  :     constexpr uintptr_t _Min_back_shift = sizeof(void*);
; 217  : #endif // ^^^ !defined(_DEBUG) ^^^
; 218  :     const uintptr_t _Back_shift = reinterpret_cast<uintptr_t>(_Ptr) - _Ptr_container;

  0001f	2b c2		 sub	 eax, edx

; 219  :     _STL_VERIFY(_Back_shift >= _Min_back_shift && _Back_shift <= _Non_user_size, "invalid argument");

  00021	83 c0 fc	 add	 eax, -4			; fffffffcH
  00024	83 f8 1f	 cmp	 eax, 31			; 0000001fH
  00027	77 22		 ja	 SHORT $LN21@vector

; 220  :     _Ptr = reinterpret_cast<void*>(_Ptr_container);

  00029	8b c2		 mov	 eax, edx
$LN24@vector:

; 289  :         ::operator delete(_Ptr, _Bytes);

  0002b	51		 push	 ecx
  0002c	50		 push	 eax
  0002d	e8 00 00 00 00	 call	 ??3@YAXPAXI@Z		; operator delete
; File D:\Program Files\Microsoft Visual Studio\2022\Community\VC\Tools\MSVC\14.43.34808\include\vector

; 2080 :             _Myfirst = nullptr;

  00032	c7 06 00 00 00
	00		 mov	 DWORD PTR [esi], 0
; File D:\Program Files\Microsoft Visual Studio\2022\Community\VC\Tools\MSVC\14.43.34808\include\xmemory

; 289  :         ::operator delete(_Ptr, _Bytes);

  00038	83 c4 08	 add	 esp, 8
; File D:\Program Files\Microsoft Visual Studio\2022\Community\VC\Tools\MSVC\14.43.34808\include\vector

; 2081 :             _Mylast  = nullptr;

  0003b	c7 46 04 00 00
	00 00		 mov	 DWORD PTR [esi+4], 0

; 2082 :             _Myend   = nullptr;

  00042	c7 46 08 00 00
	00 00		 mov	 DWORD PTR [esi+8], 0
$LN5@vector:
  00049	5e		 pop	 esi

; 820  :     }

  0004a	c3		 ret	 0
$LN21@vector:
; File D:\Program Files\Microsoft Visual Studio\2022\Community\VC\Tools\MSVC\14.43.34808\include\xmemory

; 219  :     _STL_VERIFY(_Back_shift >= _Min_back_shift && _Back_shift <= _Non_user_size, "invalid argument");

  0004b	e8 00 00 00 00	 call	 __invalid_parameter_noinfo_noreturn
$LN32@vector:
  00050	cc		 int	 3
??1?$vector@HV?$allocator@H@std@@@std@@QAE@XZ ENDP	; std::vector<int,std::allocator<int> >::~vector<int,std::allocator<int> >
_TEXT	ENDS
; Function compile flags: /Ogtp
; File D:\Program Files\Microsoft Visual Studio\2022\Community\VC\Tools\MSVC\14.43.34808\include\list
; File D:\Program Files\Microsoft Visual Studio\2022\Community\VC\Tools\MSVC\14.43.34808\include\xstring
; File D:\Program Files\Microsoft Visual Studio\2022\Community\VC\Tools\MSVC\14.43.34808\include\list
; File D:\Program Files\Microsoft Visual Studio\2022\Community\VC\Tools\MSVC\14.43.34808\include\xstring
; File D:\Program Files\Microsoft Visual Studio\2022\Community\VC\Tools\MSVC\14.43.34808\include\xmemory
; File D:\Program Files\Microsoft Visual Studio\2022\Community\VC\Tools\MSVC\14.43.34808\include\xstring
; File D:\Program Files\Microsoft Visual Studio\2022\Community\VC\Tools\MSVC\14.43.34808\include\xmemory
; File D:\Program Files\Microsoft Visual Studio\2022\Community\VC\Tools\MSVC\14.43.34808\include\xstring
; File D:\Program Files\Microsoft Visual Studio\2022\Community\VC\Tools\MSVC\14.43.34808\include\xmemory
; File D:\Program Files\Microsoft Visual Studio\2022\Community\VC\Tools\MSVC\14.43.34808\include\list
; File D:\Program Files\Microsoft Visual Studio\2022\Community\VC\Tools\MSVC\14.43.34808\include\xmemory
;	COMDAT ??__Fs_stList@@YAXXZ
text$yd	SEGMENT
??__Fs_stList@@YAXXZ PROC				; `dynamic atexit destructor for 's_stList'', COMDAT
; File D:\Program Files\Microsoft Visual Studio\2022\Community\VC\Tools\MSVC\14.43.34808\include\list

; 1508 :         _Node::_Free_non_head(_Al, _My_data._Myhead);

  00000	56		 push	 esi
  00001	8b 35 00 00 00
	00		 mov	 esi, DWORD PTR ?s_stList@@3V?$list@V?$basic_string@DU?$char_traits@D@std@@V?$allocator@D@2@@std@@V?$allocator@V?$basic_string@DU?$char_traits@D@std@@V?$allocator@D@2@@std@@@2@@std@@A

; 324  :         _Head->_Prev->_Next = nullptr;

  00007	8b 46 04	 mov	 eax, DWORD PTR [esi+4]
  0000a	c7 00 00 00 00
	00		 mov	 DWORD PTR [eax], 0

; 325  : 
; 326  :         auto _Pnode = _Head->_Next;

  00010	8b 36		 mov	 esi, DWORD PTR [esi]

; 327  :         for (_Nodeptr _Pnext; _Pnode; _Pnode = _Pnext) {

  00012	85 f6		 test	 esi, esi
  00014	74 57		 je	 SHORT $LN116@dynamic
  00016	57		 push	 edi
$LL12@dynamic:
; File D:\Program Files\Microsoft Visual Studio\2022\Community\VC\Tools\MSVC\14.43.34808\include\xstring

; 434  :         return _Myres > _Small_string_capacity;

  00017	8b 4e 1c	 mov	 ecx, DWORD PTR [esi+28]
; File D:\Program Files\Microsoft Visual Studio\2022\Community\VC\Tools\MSVC\14.43.34808\include\list

; 328  :             _Pnext = _Pnode->_Next;

  0001a	8b 3e		 mov	 edi, DWORD PTR [esi]
; File D:\Program Files\Microsoft Visual Studio\2022\Community\VC\Tools\MSVC\14.43.34808\include\xstring

; 434  :         return _Myres > _Small_string_capacity;

  0001c	83 f9 0f	 cmp	 ecx, 15			; 0000000fH

; 3047 :         if (_My_data._Large_mode_engaged()) {

  0001f	76 28		 jbe	 SHORT $LN44@dynamic
; File D:\Program Files\Microsoft Visual Studio\2022\Community\VC\Tools\MSVC\14.43.34808\include\xmemory

; 981  :         _STD _Deallocate<_New_alignof<_Ty>>(_Ptr, sizeof(_Ty) * _Count);

  00021	8b 46 08	 mov	 eax, DWORD PTR [esi+8]
; File D:\Program Files\Microsoft Visual Studio\2022\Community\VC\Tools\MSVC\14.43.34808\include\xstring

; 828  :         _Al.deallocate(_Old_ptr, _Capacity + 1); // +1 for null terminator

  00024	41		 inc	 ecx
; File D:\Program Files\Microsoft Visual Studio\2022\Community\VC\Tools\MSVC\14.43.34808\include\xmemory

; 284  :         if (_Bytes >= _Big_allocation_threshold) {

  00025	81 f9 00 10 00
	00		 cmp	 ecx, 4096		; 00001000H
  0002b	72 12		 jb	 SHORT $LN55@dynamic

; 205  :     const uintptr_t _Ptr_container   = _Ptr_user[-1];

  0002d	8b 50 fc	 mov	 edx, DWORD PTR [eax-4]
  00030	83 c1 23	 add	 ecx, 35			; 00000023H

; 206  : 
; 207  :     // If the following asserts, it likely means that we are performing
; 208  :     // an aligned delete on memory coming from an unaligned allocation.
; 209  :     _STL_ASSERT(_Ptr_user[-2] == _Big_allocation_sentinel, "invalid argument");
; 210  : 
; 211  :     // Extra paranoia on aligned allocation/deallocation; ensure _Ptr_container is
; 212  :     // in range [_Min_back_shift, _Non_user_size]
; 213  : #ifdef _DEBUG
; 214  :     constexpr uintptr_t _Min_back_shift = 2 * sizeof(void*);
; 215  : #else // ^^^ defined(_DEBUG) / !defined(_DEBUG) vvv
; 216  :     constexpr uintptr_t _Min_back_shift = sizeof(void*);
; 217  : #endif // ^^^ !defined(_DEBUG) ^^^
; 218  :     const uintptr_t _Back_shift = reinterpret_cast<uintptr_t>(_Ptr) - _Ptr_container;

  00033	2b c2		 sub	 eax, edx

; 219  :     _STL_VERIFY(_Back_shift >= _Min_back_shift && _Back_shift <= _Non_user_size, "invalid argument");

  00035	83 c0 fc	 add	 eax, -4			; fffffffcH
  00038	83 f8 1f	 cmp	 eax, 31			; 0000001fH
  0003b	77 42		 ja	 SHORT $LN52@dynamic

; 220  :     _Ptr = reinterpret_cast<void*>(_Ptr_container);

  0003d	8b c2		 mov	 eax, edx
$LN55@dynamic:

; 289  :         ::operator delete(_Ptr, _Bytes);

  0003f	51		 push	 ecx
  00040	50		 push	 eax
  00041	e8 00 00 00 00	 call	 ??3@YAXPAXI@Z		; operator delete
  00046	83 c4 08	 add	 esp, 8
$LN44@dynamic:
  00049	6a 20		 push	 32			; 00000020H
  0004b	56		 push	 esi
; File D:\Program Files\Microsoft Visual Studio\2022\Community\VC\Tools\MSVC\14.43.34808\include\xstring

; 3054 :         _My_data._Mysize = 0;

  0004c	c7 46 18 00 00
	00 00		 mov	 DWORD PTR [esi+24], 0

; 3055 :         _My_data._Myres  = _Small_string_capacity;

  00053	c7 46 1c 0f 00
	00 00		 mov	 DWORD PTR [esi+28], 15	; 0000000fH

; 3056 :         // the _Traits::assign is last so the codegen doesn't think the char write can alias this
; 3057 :         _Traits::assign(_My_data._Bx._Buf[0], _Elem());

  0005a	c6 46 08 00	 mov	 BYTE PTR [esi+8], 0
; File D:\Program Files\Microsoft Visual Studio\2022\Community\VC\Tools\MSVC\14.43.34808\include\xmemory

; 289  :         ::operator delete(_Ptr, _Bytes);

  0005e	e8 00 00 00 00	 call	 ??3@YAXPAXI@Z		; operator delete
  00063	83 c4 08	 add	 esp, 8
; File D:\Program Files\Microsoft Visual Studio\2022\Community\VC\Tools\MSVC\14.43.34808\include\list

; 327  :         for (_Nodeptr _Pnext; _Pnode; _Pnode = _Pnext) {

  00066	8b f7		 mov	 esi, edi
  00068	85 ff		 test	 edi, edi
  0006a	75 ab		 jne	 SHORT $LL12@dynamic
  0006c	5f		 pop	 edi
$LN116@dynamic:
; File D:\Program Files\Microsoft Visual Studio\2022\Community\VC\Tools\MSVC\14.43.34808\include\xmemory

; 289  :         ::operator delete(_Ptr, _Bytes);

  0006d	6a 20		 push	 32			; 00000020H
  0006f	ff 35 00 00 00
	00		 push	 DWORD PTR ?s_stList@@3V?$list@V?$basic_string@DU?$char_traits@D@std@@V?$allocator@D@2@@std@@V?$allocator@V?$basic_string@DU?$char_traits@D@std@@V?$allocator@D@2@@std@@@2@@std@@A
  00075	e8 00 00 00 00	 call	 ??3@YAXPAXI@Z		; operator delete
  0007a	83 c4 08	 add	 esp, 8
  0007d	5e		 pop	 esi
  0007e	c3		 ret	 0
$LN52@dynamic:

; 219  :     _STL_VERIFY(_Back_shift >= _Min_back_shift && _Back_shift <= _Non_user_size, "invalid argument");

  0007f	e8 00 00 00 00	 call	 __invalid_parameter_noinfo_noreturn
$LN124@dynamic:
  00084	cc		 int	 3
??__Fs_stList@@YAXXZ ENDP				; `dynamic atexit destructor for 's_stList''
text$yd	ENDS
; Function compile flags: /Ogtp
; File C:\Marty 5.5\Src-Client\Client\EterBase\Stl.cpp
; File D:\Program Files\Microsoft Visual Studio\2022\Community\VC\Tools\MSVC\14.43.34808\include\xmemory
; File C:\Marty 5.5\Src-Client\Client\EterBase\Stl.cpp
; File D:\Program Files\Microsoft Visual Studio\2022\Community\VC\Tools\MSVC\14.43.34808\include\list
; File C:\Marty 5.5\Src-Client\Client\EterBase\Stl.cpp
;	COMDAT ??__Es_stList@@YAXXZ
text$di	SEGMENT
??__Es_stList@@YAXXZ PROC				; `dynamic initializer for 's_stList'', COMDAT
; File D:\Program Files\Microsoft Visual Studio\2022\Community\VC\Tools\MSVC\14.43.34808\include\xmemory

; 136  :         return ::operator new(_Bytes);

  00000	6a 20		 push	 32			; 00000020H
  00002	e8 00 00 00 00	 call	 ??2@YAPAXI@Z		; operator new
; File C:\Marty 5.5\Src-Client\Client\EterBase\Stl.cpp

; 4    : static std::list<std::string> s_stList;

  00007	68 00 00 00 00	 push	 OFFSET ??__Fs_stList@@YAXXZ ; `dynamic atexit destructor for 's_stList''
; File D:\Program Files\Microsoft Visual Studio\2022\Community\VC\Tools\MSVC\14.43.34808\include\list

; 1844 :         _Construct_in_place(_Newhead->_Next, _Newhead);

  0000c	89 00		 mov	 DWORD PTR [eax], eax

; 1845 :         _Construct_in_place(_Newhead->_Prev, _Newhead);

  0000e	89 40 04	 mov	 DWORD PTR [eax+4], eax

; 1846 :         _Mypair._Myval2._Myhead = _Newhead;

  00011	a3 00 00 00 00	 mov	 DWORD PTR ?s_stList@@3V?$list@V?$basic_string@DU?$char_traits@D@std@@V?$allocator@D@2@@std@@V?$allocator@V?$basic_string@DU?$char_traits@D@std@@V?$allocator@D@2@@std@@@2@@std@@A, eax
; File C:\Marty 5.5\Src-Client\Client\EterBase\Stl.cpp

; 4    : static std::list<std::string> s_stList;

  00016	e8 00 00 00 00	 call	 _atexit
  0001b	83 c4 08	 add	 esp, 8
  0001e	c3		 ret	 0
??__Es_stList@@YAXXZ ENDP				; `dynamic initializer for 's_stList''
text$di	ENDS
; Function compile flags: /Ogtp
; File C:\Marty 5.5\Src-Client\Client\EterBase\Stl.cpp
; File D:\Program Files\Microsoft Visual Studio\2022\Community\VC\Tools\MSVC\14.43.34808\include\vector
; File C:\Marty 5.5\Src-Client\Client\EterBase\Stl.cpp
; File D:\Program Files\Microsoft Visual Studio\2022\Community\VC\Tools\MSVC\14.43.34808\include\vector
; File D:\Program Files\Microsoft Visual Studio\2022\Community\VC\Tools\MSVC\14.43.34808\include\xstring
; File C:\Marty 5.5\Src-Client\Client\EterBase\Stl.cpp
; File D:\Program Files\Microsoft Visual Studio\2022\Community\VC\Tools\MSVC\14.43.34808\include\xstring
; File D:\Program Files\Microsoft Visual Studio\2022\Community\VC\Tools\MSVC\14.43.34808\include\__msvc_string_view.hpp
; File C:\Marty 5.5\Src-Client\Client\EterBase\Stl.cpp
; File D:\Program Files\Microsoft Visual Studio\2022\Community\VC\Tools\MSVC\14.43.34808\include\xstring
; File C:\Marty 5.5\Src-Client\Client\EterBase\Stl.cpp
; File D:\Program Files\Microsoft Visual Studio\2022\Community\VC\Tools\MSVC\14.43.34808\include\xstring
; File C:\Marty 5.5\Src-Client\Client\EterBase\Stl.cpp
; File D:\Program Files\Microsoft Visual Studio\2022\Community\VC\Tools\MSVC\14.43.34808\include\xstring
; File C:\Marty 5.5\Src-Client\Client\EterBase\Stl.cpp
; File D:\Program Files\Microsoft Visual Studio\2022\Community\VC\Tools\MSVC\14.43.34808\include\vector
; File C:\Marty 5.5\Src-Client\Client\EterBase\Stl.cpp
; File D:\Program Files\Microsoft Visual Studio\2022\Community\VC\Tools\MSVC\14.43.34808\include\vector
; File C:\Marty 5.5\Src-Client\Client\EterBase\Stl.cpp
; File D:\Program Files\Microsoft Visual Studio\2022\Community\VC\Tools\MSVC\14.43.34808\include\xstring
; File C:\Marty 5.5\Src-Client\Client\EterBase\Stl.cpp
; File D:\Program Files\Microsoft Visual Studio\2022\Community\VC\Tools\MSVC\14.43.34808\include\xstring
; File C:\Marty 5.5\Src-Client\Client\EterBase\Stl.cpp
; File D:\Program Files\Microsoft Visual Studio\2022\Community\VC\Tools\MSVC\14.43.34808\include\vector
; File D:\Program Files\Microsoft Visual Studio\2022\Community\VC\Tools\MSVC\14.43.34808\include\xmemory
; File D:\Program Files\Microsoft Visual Studio\2022\Community\VC\Tools\MSVC\14.43.34808\include\vector
; File D:\Program Files\Microsoft Visual Studio\2022\Community\VC\Tools\MSVC\14.43.34808\include\xstring
; File C:\Marty 5.5\Src-Client\Client\EterBase\Stl.cpp
; File D:\Program Files\Microsoft Visual Studio\2022\Community\VC\Tools\MSVC\14.43.34808\include\xstring
; File D:\Program Files\Microsoft Visual Studio\2022\Community\VC\Tools\MSVC\14.43.34808\include\xmemory
; File D:\Program Files\Microsoft Visual Studio\2022\Community\VC\Tools\MSVC\14.43.34808\include\xstring
; File D:\Program Files\Microsoft Visual Studio\2022\Community\VC\Tools\MSVC\14.43.34808\include\xmemory
; File D:\Program Files\Microsoft Visual Studio\2022\Community\VC\Tools\MSVC\14.43.34808\include\vector
; File C:\Marty 5.5\Src-Client\Client\EterBase\Stl.cpp
; File D:\Program Files\Microsoft Visual Studio\2022\Community\VC\Tools\MSVC\14.43.34808\include\vector
; File C:\Marty 5.5\Src-Client\Client\EterBase\Stl.cpp
; File D:\Program Files\Microsoft Visual Studio\2022\Community\VC\Tools\MSVC\14.43.34808\include\vector
; File D:\Program Files\Microsoft Visual Studio\2022\Community\VC\Tools\MSVC\14.43.34808\include\xmemory
; File D:\Program Files\Microsoft Visual Studio\2022\Community\VC\Tools\MSVC\14.43.34808\include\vector
; File D:\Program Files\Microsoft Visual Studio\2022\Community\VC\Tools\MSVC\14.43.34808\include\xmemory
; File C:\Marty 5.5\Src-Client\Client\EterBase\Stl.cpp
; File D:\Program Files\Microsoft Visual Studio\2022\Community\VC\Tools\MSVC\14.43.34808\include\xstring
; File D:\Program Files\Microsoft Visual Studio\2022\Community\VC\Tools\MSVC\14.43.34808\include\xmemory
; File C:\Marty 5.5\Src-Client\Client\EterBase\Stl.cpp
;	COMDAT ?split_string@@YAHABV?$basic_string@DU?$char_traits@D@std@@V?$allocator@D@2@@std@@0AAV?$vector@V?$basic_string@DU?$char_traits@D@std@@V?$allocator@D@2@@std@@V?$allocator@V?$basic_string@DU?$char_traits@D@std@@V?$allocator@D@2@@std@@@2@@2@_N@Z
_TEXT	SEGMENT
_isize$1$ = -108					; size = 4
_results$GSCopy$1$ = -104				; size = 4
__Result$1$ = -100					; size = 4
tv2290 = -96						; size = 4
_delimiter$GSCopy$1$ = -96				; size = 4
_iPos$1$ = -92						; size = 4
tv2274 = -92						; size = 4
$T2 = -88						; size = 4
_sizeS2$1$ = -84					; size = 4
_positions$ = -80					; size = 12
_newPos$ = -68						; size = 4
__Result$1$ = -68					; size = 4
_s$3 = -64						; size = 24
$T4 = -40						; size = 24
$T5 = -40						; size = 24
$T6 = -40						; size = 24
__$ArrayPad$ = -16					; size = 4
__$EHRec$ = -12						; size = 12
_input$ = 8						; size = 4
_delimiter$ = 12					; size = 4
_results$ = 16						; size = 4
_includeEmpties$ = 20					; size = 1
?split_string@@YAHABV?$basic_string@DU?$char_traits@D@std@@V?$allocator@D@2@@std@@0AAV?$vector@V?$basic_string@DU?$char_traits@D@std@@V?$allocator@D@2@@std@@V?$allocator@V?$basic_string@DU?$char_traits@D@std@@V?$allocator@D@2@@std@@@2@@2@_N@Z PROC ; split_string, COMDAT

; 32   : {

  00000	55		 push	 ebp
  00001	8b ec		 mov	 ebp, esp
  00003	6a ff		 push	 -1
  00005	68 00 00 00 00	 push	 __ehhandler$?split_string@@YAHABV?$basic_string@DU?$char_traits@D@std@@V?$allocator@D@2@@std@@0AAV?$vector@V?$basic_string@DU?$char_traits@D@std@@V?$allocator@D@2@@std@@V?$allocator@V?$basic_string@DU?$char_traits@D@std@@V?$allocator@D@2@@std@@@2@@2@_N@Z
  0000a	64 a1 00 00 00
	00		 mov	 eax, DWORD PTR fs:0
  00010	50		 push	 eax
  00011	83 ec 60	 sub	 esp, 96			; 00000060H
  00014	a1 00 00 00 00	 mov	 eax, DWORD PTR ___security_cookie
  00019	33 c5		 xor	 eax, ebp
  0001b	89 45 f0	 mov	 DWORD PTR __$ArrayPad$[ebp], eax
  0001e	56		 push	 esi
  0001f	57		 push	 edi
  00020	50		 push	 eax
  00021	8d 45 f4	 lea	 eax, DWORD PTR __$EHRec$[ebp]
  00024	64 a3 00 00 00
	00		 mov	 DWORD PTR fs:0, eax
  0002a	8b 7d 08	 mov	 edi, DWORD PTR _input$[ebp]
  0002d	8b 75 0c	 mov	 esi, DWORD PTR _delimiter$[ebp]
  00030	8b 45 10	 mov	 eax, DWORD PTR _results$[ebp]
  00033	89 45 98	 mov	 DWORD PTR _results$GSCopy$1$[ebp], eax

; 33   : 	int iPos = 0;
; 34   : 	int newPos = -1;
; 35   : 	UINT sizeS2 = delimiter.size();
; 36   : 	UINT isize = input.size();

  00036	8b 4f 10	 mov	 ecx, DWORD PTR [edi+16]
  00039	8b 46 10	 mov	 eax, DWORD PTR [esi+16]
  0003c	89 75 a0	 mov	 DWORD PTR _delimiter$GSCopy$1$[ebp], esi
  0003f	89 45 ac	 mov	 DWORD PTR _sizeS2$1$[ebp], eax
  00042	89 4d 94	 mov	 DWORD PTR _isize$1$[ebp], ecx

; 37   : 
; 38   : 	if ((isize == 0) || (sizeS2 == 0))

  00045	85 c9		 test	 ecx, ecx
  00047	0f 84 70 02 00
	00		 je	 $LN8@split_stri
  0004d	85 c0		 test	 eax, eax
  0004f	0f 84 68 02 00
	00		 je	 $LN8@split_stri
; File D:\Program Files\Microsoft Visual Studio\2022\Community\VC\Tools\MSVC\14.43.34808\include\vector

; 400  :     _CONSTEXPR20 _Vector_val() noexcept : _Myfirst(), _Mylast(), _Myend() {}

  00055	c7 45 b0 00 00
	00 00		 mov	 DWORD PTR _positions$[ebp], 0
  0005c	c7 45 b4 00 00
	00 00		 mov	 DWORD PTR _positions$[ebp+4], 0
  00063	c7 45 b8 00 00
	00 00		 mov	 DWORD PTR _positions$[ebp+8], 0
; File C:\Marty 5.5\Src-Client\Client\EterBase\Stl.cpp

; 45   : 	newPos = input.find(delimiter, 0);

  0006a	6a 00		 push	 0
  0006c	56		 push	 esi
  0006d	8b cf		 mov	 ecx, edi
  0006f	c7 45 fc 00 00
	00 00		 mov	 DWORD PTR __$EHRec$[ebp+8], 0
  00076	e8 00 00 00 00	 call	 ?find@?$basic_string@DU?$char_traits@D@std@@V?$allocator@D@2@@std@@QBEIABV12@I@Z ; std::basic_string<char,std::char_traits<char>,std::allocator<char> >::find
  0007b	8b c8		 mov	 ecx, eax
  0007d	89 4d bc	 mov	 DWORD PTR _newPos$[ebp], ecx
  00080	85 c9		 test	 ecx, ecx

; 46   : 
; 47   : 	if (newPos < 0)

  00082	0f 88 fc 01 00
	00		 js	 $LN25@split_stri

; 48   : 		return 0;
; 49   : 
; 50   : 	int numFound = 0;

  00088	33 c0		 xor	 eax, eax
  0008a	66 0f 1f 44 00
	00		 npad	 6
$LL2@split_stri:

; 53   : 	{
; 54   : 		numFound++;

  00090	40		 inc	 eax
  00091	89 45 a8	 mov	 DWORD PTR $T2[ebp], eax
; File D:\Program Files\Microsoft Visual Studio\2022\Community\VC\Tools\MSVC\14.43.34808\include\vector

; 829  :         if (_Mylast != _My_data._Myend) {

  00094	8b 45 b4	 mov	 eax, DWORD PTR _positions$[ebp+4]
  00097	3b 45 b8	 cmp	 eax, DWORD PTR _positions$[ebp+8]
  0009a	74 08		 je	 SHORT $LN30@split_stri

; 845  :             _STD _Construct_in_place(*_Mylast, _STD forward<_Valty>(_Val)...);

  0009c	89 08		 mov	 DWORD PTR [eax], ecx

; 854  :         ++_Mylast;

  0009e	83 45 b4 04	 add	 DWORD PTR _positions$[ebp+4], 4

; 830  :             return _Emplace_back_with_unused_capacity(_STD forward<_Valty>(_Val)...);

  000a2	eb 12		 jmp	 SHORT $LN29@split_stri
$LN30@split_stri:

; 831  :         }
; 832  : 
; 833  :         return *_Emplace_reallocate(_Mylast, _STD forward<_Valty>(_Val)...);

  000a4	8d 45 bc	 lea	 eax, DWORD PTR _newPos$[ebp]
  000a7	50		 push	 eax
  000a8	ff 75 b4	 push	 DWORD PTR _positions$[ebp+4]
  000ab	8d 4d b0	 lea	 ecx, DWORD PTR _positions$[ebp]
  000ae	e8 00 00 00 00	 call	 ??$_Emplace_reallocate@ABH@?$vector@HV?$allocator@H@std@@@std@@AAEPAHQAHABH@Z ; std::vector<int,std::allocator<int> >::_Emplace_reallocate<int const &>
  000b3	8b 4d bc	 mov	 ecx, DWORD PTR _newPos$[ebp]
$LN29@split_stri:
; File D:\Program Files\Microsoft Visual Studio\2022\Community\VC\Tools\MSVC\14.43.34808\include\xstring

; 2571 :         return static_cast<size_type>(_Traits_find<_Traits>(_Mypair._Myval2._Myptr(), _Mypair._Myval2._Mysize, _Off,

  000b6	8b 56 10	 mov	 edx, DWORD PTR [esi+16]
; File C:\Marty 5.5\Src-Client\Client\EterBase\Stl.cpp

; 56   : 		iPos = newPos;

  000b9	8b c1		 mov	 eax, ecx
  000bb	8b 4d ac	 mov	 ecx, DWORD PTR _sizeS2$1$[ebp]
  000be	03 c8		 add	 ecx, eax
  000c0	89 45 a4	 mov	 DWORD PTR _iPos$1$[ebp], eax
; File D:\Program Files\Microsoft Visual Studio\2022\Community\VC\Tools\MSVC\14.43.34808\include\xstring

; 434  :         return _Myres > _Small_string_capacity;

  000c3	83 7e 14 0f	 cmp	 DWORD PTR [esi+20], 15	; 0000000fH

; 425  :         const value_type* _Result = _Bx._Buf;

  000c7	89 75 9c	 mov	 DWORD PTR __Result$1$[ebp], esi

; 426  :         if (_Large_mode_engaged()) {

  000ca	76 05		 jbe	 SHORT $LN38@split_stri

; 427  :             _Result = _Unfancy(_Bx._Ptr);

  000cc	8b 06		 mov	 eax, DWORD PTR [esi]
  000ce	89 45 9c	 mov	 DWORD PTR __Result$1$[ebp], eax
$LN38@split_stri:

; 434  :         return _Myres > _Small_string_capacity;

  000d1	83 7f 14 0f	 cmp	 DWORD PTR [edi+20], 15	; 0000000fH

; 425  :         const value_type* _Result = _Bx._Buf;

  000d5	8b f7		 mov	 esi, edi

; 2571 :         return static_cast<size_type>(_Traits_find<_Traits>(_Mypair._Myval2._Myptr(), _Mypair._Myval2._Mysize, _Off,

  000d7	8b 47 10	 mov	 eax, DWORD PTR [edi+16]

; 425  :         const value_type* _Result = _Bx._Buf;

  000da	89 7d bc	 mov	 DWORD PTR __Result$1$[ebp], edi

; 426  :         if (_Large_mode_engaged()) {

  000dd	76 05		 jbe	 SHORT $LN45@split_stri

; 427  :             _Result = _Unfancy(_Bx._Ptr);

  000df	8b 37		 mov	 esi, DWORD PTR [edi]
  000e1	89 75 bc	 mov	 DWORD PTR __Result$1$[ebp], esi
$LN45@split_stri:
; File D:\Program Files\Microsoft Visual Studio\2022\Community\VC\Tools\MSVC\14.43.34808\include\__msvc_string_view.hpp

; 615  :     if (_Needle_size > _Hay_size || _Start_at > _Hay_size - _Needle_size) {

  000e4	3b d0		 cmp	 edx, eax
  000e6	77 2b		 ja	 SHORT $LN56@split_stri
  000e8	2b c2		 sub	 eax, edx
  000ea	3b c8		 cmp	 ecx, eax
  000ec	77 25		 ja	 SHORT $LN56@split_stri

; 616  :         // xpos cannot exist, report failure
; 617  :         // N4950 [string.view.find]/3 says:
; 618  :         // 1. _Start_at <= xpos
; 619  :         // 2. xpos + _Needle_size <= _Hay_size;
; 620  :         // therefore:
; 621  :         // 3. _Needle_size <= _Hay_size (by 2) (checked above)
; 622  :         // 4. _Start_at + _Needle_size <= _Hay_size (substitute 1 into 2)
; 623  :         // 5. _Start_at <= _Hay_size - _Needle_size (4, move _Needle_size to other side) (also checked above)
; 624  :         return static_cast<size_t>(-1);
; 625  :     }
; 626  : 
; 627  :     if (_Needle_size == 0) { // empty string always matches if xpos is possible

  000ee	85 d2		 test	 edx, edx
  000f0	74 24		 je	 SHORT $LN53@split_stri

; 628  :         return _Start_at;
; 629  :     }
; 630  : 
; 631  : #if _USE_STD_VECTOR_ALGORITHMS
; 632  :     if constexpr (_Is_implementation_handled_char_traits<_Traits> && sizeof(typename _Traits::char_type) <= 2) {
; 633  :         if (!_STD _Is_constant_evaluated()) {
; 634  :             const auto _End = _Haystack + _Hay_size;

  000f2	03 77 10	 add	 esi, DWORD PTR [edi+16]
  000f5	8b 45 bc	 mov	 eax, DWORD PTR __Result$1$[ebp]

; 635  :             const auto _Ptr = _STD _Search_vectorized(_Haystack + _Start_at, _End, _Needle, _Needle_size);

  000f8	52		 push	 edx
  000f9	ff 75 9c	 push	 DWORD PTR __Result$1$[ebp]
  000fc	03 c1		 add	 eax, ecx
  000fe	56		 push	 esi
  000ff	50		 push	 eax
  00100	e8 00 00 00 00	 call	 ??$_Search_vectorized@$$CBD$$CBD@std@@YAPBDQBD00I@Z ; std::_Search_vectorized<char const ,char const >
  00105	8b c8		 mov	 ecx, eax
  00107	83 c4 10	 add	 esp, 16			; 00000010H

; 636  : 
; 637  :             if (_Ptr != _End) {

  0010a	3b ce		 cmp	 ecx, esi
  0010c	74 05		 je	 SHORT $LN56@split_stri

; 638  :                 return static_cast<size_t>(_Ptr - _Haystack);

  0010e	2b 4d bc	 sub	 ecx, DWORD PTR __Result$1$[ebp]
  00111	eb 03		 jmp	 SHORT $LN53@split_stri
$LN56@split_stri:
; File C:\Marty 5.5\Src-Client\Client\EterBase\Stl.cpp

; 57   : 		newPos = input.find(delimiter, iPos+sizeS2);

  00113	83 c9 ff	 or	 ecx, -1
$LN53@split_stri:

; 51   : 
; 52   : 	while (newPos >= iPos)

  00116	8b 75 a0	 mov	 esi, DWORD PTR _delimiter$GSCopy$1$[ebp]
  00119	8b 45 a8	 mov	 eax, DWORD PTR $T2[ebp]

; 57   : 		newPos = input.find(delimiter, iPos+sizeS2);

  0011c	89 4d bc	 mov	 DWORD PTR _newPos$[ebp], ecx
  0011f	3b 4d a4	 cmp	 ecx, DWORD PTR _iPos$1$[ebp]
  00122	0f 8d 68 ff ff
	ff		 jge	 $LL2@split_stri

; 58   : 	}
; 59   : 
; 60   : 	if (numFound == 0)

  00128	85 c0		 test	 eax, eax
  0012a	0f 84 54 01 00
	00		 je	 $LN25@split_stri

; 63   : 	for (UINT i = 0; i <= positions.size(); ++i)

  00130	33 f6		 xor	 esi, esi
$LL6@split_stri:
  00132	0f 57 c0	 xorps	 xmm0, xmm0
; File D:\Program Files\Microsoft Visual Studio\2022\Community\VC\Tools\MSVC\14.43.34808\include\xstring

; 866  :             _My_data._Mysize = _Count;

  00135	c7 45 d0 00 00
	00 00		 mov	 DWORD PTR _s$3[ebp+16], 0

; 474  :         _CONSTEXPR20 _Bxty() noexcept : _Buf() {} // user-provided, for fancy pointers

  0013c	0f 11 45 c0	 movups	 XMMWORD PTR _s$3[ebp], xmm0

; 867  :             _My_data._Myres  = _Small_string_capacity;

  00140	c7 45 d4 0f 00
	00 00		 mov	 DWORD PTR _s$3[ebp+20], 15 ; 0000000fH

; 868  : 
; 869  :             if constexpr (_Strat == _Construct_strategy::_From_char) {
; 870  :                 _Traits::assign(_My_data._Bx._Buf, _Count, _Arg);
; 871  :                 _Traits::assign(_My_data._Bx._Buf[_Count], _Elem());
; 872  :             } else if constexpr (_Strat == _Construct_strategy::_From_ptr) {
; 873  :                 _Traits::copy(_My_data._Bx._Buf, _Arg, _Count);
; 874  :                 _Traits::assign(_My_data._Bx._Buf[_Count], _Elem());

  00147	c6 45 c0 00	 mov	 BYTE PTR _s$3[ebp], 0
; File C:\Marty 5.5\Src-Client\Client\EterBase\Stl.cpp

; 65   : 		string s("");

  0014b	c6 45 fc 01	 mov	 BYTE PTR __$EHRec$[ebp+8], 1

; 66   : 		if (i == 0)

  0014f	85 f6		 test	 esi, esi
  00151	75 23		 jne	 SHORT $LN11@split_stri

; 68   : 			s = input.substr(i, positions[i]);

  00153	8b 45 b0	 mov	 eax, DWORD PTR _positions$[ebp]
; File D:\Program Files\Microsoft Visual Studio\2022\Community\VC\Tools\MSVC\14.43.34808\include\xstring

; 474  :         _CONSTEXPR20 _Bxty() noexcept : _Buf() {} // user-provided, for fancy pointers

  00156	0f 11 45 d8	 movups	 XMMWORD PTR $T4[ebp], xmm0

; 498  :     size_type _Mysize = 0; // current length of string (size)

  0015a	89 75 e8	 mov	 DWORD PTR $T4[ebp+16], esi

; 499  :     size_type _Myres  = 0; // current storage reserved for string (capacity)

  0015d	89 75 ec	 mov	 DWORD PTR $T4[ebp+20], esi
; File C:\Marty 5.5\Src-Client\Client\EterBase\Stl.cpp

; 68   : 			s = input.substr(i, positions[i]);

  00160	8b 0c b0	 mov	 ecx, DWORD PTR [eax+esi*4]
; File D:\Program Files\Microsoft Visual Studio\2022\Community\VC\Tools\MSVC\14.43.34808\include\xstring

; 425  :         const value_type* _Result = _Bx._Buf;

  00163	8b c7		 mov	 eax, edi

; 468  :         return (_STD min)(_Size, _Mysize - _Off);

  00165	39 4f 10	 cmp	 DWORD PTR [edi+16], ecx
  00168	0f 42 4f 10	 cmovb	 ecx, DWORD PTR [edi+16]

; 434  :         return _Myres > _Small_string_capacity;

  0016c	83 7f 14 0f	 cmp	 DWORD PTR [edi+20], 15	; 0000000fH

; 426  :         if (_Large_mode_engaged()) {

  00170	76 76		 jbe	 SHORT $LN240@split_stri

; 427  :             _Result = _Unfancy(_Bx._Ptr);

  00172	8b 07		 mov	 eax, DWORD PTR [edi]
; File C:\Marty 5.5\Src-Client\Client\EterBase\Stl.cpp

; 69   : 		}

  00174	eb 72		 jmp	 SHORT $LN240@split_stri
$LN11@split_stri:

; 70   : 		else
; 71   : 		{
; 72   : 			UINT offset = positions[i-1] + sizeS2;

  00176	8b 4d b0	 mov	 ecx, DWORD PTR _positions$[ebp]
  00179	8b 55 ac	 mov	 edx, DWORD PTR _sizeS2$1$[ebp]
  0017c	8d 04 b1	 lea	 eax, DWORD PTR [ecx+esi*4]
  0017f	89 45 a0	 mov	 DWORD PTR tv2290[ebp], eax
  00182	8b 40 fc	 mov	 eax, DWORD PTR [eax-4]
  00185	03 d0		 add	 edx, eax
  00187	89 45 a4	 mov	 DWORD PTR tv2274[ebp], eax

; 73   : 
; 74   : 			if (offset < isize)

  0018a	3b 55 94	 cmp	 edx, DWORD PTR _isize$1$[ebp]
  0018d	73 75		 jae	 SHORT $LN571@split_stri
; File D:\Program Files\Microsoft Visual Studio\2022\Community\VC\Tools\MSVC\14.43.34808\include\vector

; 1900 :         return static_cast<size_type>(_My_data._Mylast - _My_data._Myfirst);

  0018f	8b 45 b4	 mov	 eax, DWORD PTR _positions$[ebp+4]
  00192	2b c1		 sub	 eax, ecx
; File C:\Marty 5.5\Src-Client\Client\EterBase\Stl.cpp

; 76   : 				if (i == positions.size())

  00194	c7 45 e8 00 00
	00 00		 mov	 DWORD PTR $T5[ebp+16], 0
; File D:\Program Files\Microsoft Visual Studio\2022\Community\VC\Tools\MSVC\14.43.34808\include\vector

; 1900 :         return static_cast<size_type>(_My_data._Mylast - _My_data._Myfirst);

  0019b	c1 f8 02	 sar	 eax, 2
; File C:\Marty 5.5\Src-Client\Client\EterBase\Stl.cpp

; 76   : 				if (i == positions.size())

  0019e	3b f0		 cmp	 esi, eax
  001a0	c7 45 ec 00 00
	00 00		 mov	 DWORD PTR $T5[ebp+20], 0
  001a7	8b 47 10	 mov	 eax, DWORD PTR [edi+16]
  001aa	0f 11 45 d8	 movups	 XMMWORD PTR $T5[ebp], xmm0
  001ae	75 12		 jne	 SHORT $LN14@split_stri
; File D:\Program Files\Microsoft Visual Studio\2022\Community\VC\Tools\MSVC\14.43.34808\include\xstring

; 450  :         if (_Mysize < _Off) {

  001b0	3b c2		 cmp	 eax, edx
  001b2	0f 82 22 01 00
	00		 jb	 $LN610@split_stri

; 468  :         return (_STD min)(_Size, _Mysize - _Off);

  001b8	2b c2		 sub	 eax, edx
  001ba	83 c9 ff	 or	 ecx, -1
  001bd	83 f8 ff	 cmp	 eax, -1
; File C:\Marty 5.5\Src-Client\Client\EterBase\Stl.cpp

; 79   : 				}

  001c0	eb 17		 jmp	 SHORT $LN626@split_stri
$LN14@split_stri:

; 80   : 				else if (i > 0)
; 81   : 				{
; 82   : 					s = input.substr(positions[i-1] + sizeS2, positions[i] - positions[i-1] - sizeS2);

  001c2	8b 4d a0	 mov	 ecx, DWORD PTR tv2290[ebp]
  001c5	8b 09		 mov	 ecx, DWORD PTR [ecx]
  001c7	2b 4d a4	 sub	 ecx, DWORD PTR tv2274[ebp]
  001ca	2b 4d ac	 sub	 ecx, DWORD PTR _sizeS2$1$[ebp]
; File D:\Program Files\Microsoft Visual Studio\2022\Community\VC\Tools\MSVC\14.43.34808\include\xstring

; 450  :         if (_Mysize < _Off) {

  001cd	3b c2		 cmp	 eax, edx
  001cf	0f 82 05 01 00
	00		 jb	 $LN610@split_stri

; 468  :         return (_STD min)(_Size, _Mysize - _Off);

  001d5	2b c2		 sub	 eax, edx
  001d7	3b c1		 cmp	 eax, ecx
$LN626@split_stri:
; File C:\Marty 5.5\Src-Client\Client\EterBase\Stl.cpp

; 86   : 		if (includeEmpties || (s.size() > 0))

  001d9	0f 42 c8	 cmovb	 ecx, eax
  001dc	83 7f 14 0f	 cmp	 DWORD PTR [edi+20], 15	; 0000000fH
  001e0	8b c7		 mov	 eax, edi
  001e2	76 02		 jbe	 SHORT $LN497@split_stri
  001e4	8b 07		 mov	 eax, DWORD PTR [edi]
$LN497@split_stri:
  001e6	03 c2		 add	 eax, edx
$LN240@split_stri:
  001e8	51		 push	 ecx
  001e9	50		 push	 eax
  001ea	8d 4d d8	 lea	 ecx, DWORD PTR $T6[ebp]
  001ed	e8 00 00 00 00	 call	 ??$_Construct@$00PBD@?$basic_string@DU?$char_traits@D@std@@V?$allocator@D@2@@std@@AAEXQBDI@Z ; std::basic_string<char,std::char_traits<char>,std::allocator<char> >::_Construct<1,char const *>
  001f2	0f 10 45 d8	 movups	 xmm0, XMMWORD PTR $T6[ebp]
  001f6	0f 11 45 c0	 movups	 XMMWORD PTR _s$3[ebp], xmm0
  001fa	f3 0f 7e 45 e8	 movq	 xmm0, QWORD PTR $T6[ebp+16]
  001ff	66 0f d6 45 d0	 movq	 QWORD PTR _s$3[ebp+16], xmm0
$LN571@split_stri:
  00204	80 7d 14 00	 cmp	 BYTE PTR _includeEmpties$[ebp], 0
  00208	75 06		 jne	 SHORT $LN18@split_stri
  0020a	83 7d d0 00	 cmp	 DWORD PTR _s$3[ebp+16], 0
  0020e	76 29		 jbe	 SHORT $LN200@split_stri
$LN18@split_stri:
; File D:\Program Files\Microsoft Visual Studio\2022\Community\VC\Tools\MSVC\14.43.34808\include\vector

; 829  :         if (_Mylast != _My_data._Myend) {

  00210	8b 4d 98	 mov	 ecx, DWORD PTR _results$GSCopy$1$[ebp]
  00213	8b 41 04	 mov	 eax, DWORD PTR [ecx+4]
  00216	3b 41 08	 cmp	 eax, DWORD PTR [ecx+8]
  00219	74 14		 je	 SHORT $LN201@split_stri
; File D:\Program Files\Microsoft Visual Studio\2022\Community\VC\Tools\MSVC\14.43.34808\include\xmemory

; 732  :         ::new (const_cast<void*>(static_cast<const volatile void*>(_Ptr))) _Objty(_STD forward<_Types>(_Args)...);

  0021b	8d 4d c0	 lea	 ecx, DWORD PTR _s$3[ebp]
  0021e	51		 push	 ecx
  0021f	8b c8		 mov	 ecx, eax
  00221	e8 00 00 00 00	 call	 ??0?$basic_string@DU?$char_traits@D@std@@V?$allocator@D@2@@std@@QAE@ABV01@@Z ; std::basic_string<char,std::char_traits<char>,std::allocator<char> >::basic_string<char,std::char_traits<char>,std::allocator<char> >
; File D:\Program Files\Microsoft Visual Studio\2022\Community\VC\Tools\MSVC\14.43.34808\include\vector

; 854  :         ++_Mylast;

  00226	8b 45 98	 mov	 eax, DWORD PTR _results$GSCopy$1$[ebp]
  00229	83 40 04 18	 add	 DWORD PTR [eax+4], 24	; 00000018H

; 830  :             return _Emplace_back_with_unused_capacity(_STD forward<_Valty>(_Val)...);

  0022d	eb 0a		 jmp	 SHORT $LN200@split_stri
$LN201@split_stri:

; 831  :         }
; 832  : 
; 833  :         return *_Emplace_reallocate(_Mylast, _STD forward<_Valty>(_Val)...);

  0022f	8d 55 c0	 lea	 edx, DWORD PTR _s$3[ebp]
  00232	52		 push	 edx
  00233	50		 push	 eax
  00234	e8 00 00 00 00	 call	 ??$_Emplace_reallocate@ABV?$basic_string@DU?$char_traits@D@std@@V?$allocator@D@2@@std@@@?$vector@V?$basic_string@DU?$char_traits@D@std@@V?$allocator@D@2@@std@@V?$allocator@V?$basic_string@DU?$char_traits@D@std@@V?$allocator@D@2@@std@@@2@@std@@AAEPAV?$basic_string@DU?$char_traits@D@std@@V?$allocator@D@2@@1@QAV21@ABV21@@Z ; std::vector<std::basic_string<char,std::char_traits<char>,std::allocator<char> >,std::allocator<std::basic_string<char,std::char_traits<char>,std::allocator<char> > > >::_Emplace_reallocate<std::basic_string<char,std::char_traits<char>,std::allocator<char> > const &>
$LN200@split_stri:
; File D:\Program Files\Microsoft Visual Studio\2022\Community\VC\Tools\MSVC\14.43.34808\include\xstring

; 434  :         return _Myres > _Small_string_capacity;

  00239	8b 4d d4	 mov	 ecx, DWORD PTR _s$3[ebp+20]
; File C:\Marty 5.5\Src-Client\Client\EterBase\Stl.cpp

; 90   : 	}

  0023c	c6 45 fc 00	 mov	 BYTE PTR __$EHRec$[ebp+8], 0
; File D:\Program Files\Microsoft Visual Studio\2022\Community\VC\Tools\MSVC\14.43.34808\include\xstring

; 434  :         return _Myres > _Small_string_capacity;

  00240	83 f9 0f	 cmp	 ecx, 15			; 0000000fH

; 3047 :         if (_My_data._Large_mode_engaged()) {

  00243	76 28		 jbe	 SHORT $LN172@split_stri
; File D:\Program Files\Microsoft Visual Studio\2022\Community\VC\Tools\MSVC\14.43.34808\include\xmemory

; 981  :         _STD _Deallocate<_New_alignof<_Ty>>(_Ptr, sizeof(_Ty) * _Count);

  00245	8b 55 c0	 mov	 edx, DWORD PTR _s$3[ebp]
; File D:\Program Files\Microsoft Visual Studio\2022\Community\VC\Tools\MSVC\14.43.34808\include\xstring

; 828  :         _Al.deallocate(_Old_ptr, _Capacity + 1); // +1 for null terminator

  00248	41		 inc	 ecx
; File D:\Program Files\Microsoft Visual Studio\2022\Community\VC\Tools\MSVC\14.43.34808\include\xmemory

; 981  :         _STD _Deallocate<_New_alignof<_Ty>>(_Ptr, sizeof(_Ty) * _Count);

  00249	8b c2		 mov	 eax, edx

; 284  :         if (_Bytes >= _Big_allocation_threshold) {

  0024b	81 f9 00 10 00
	00		 cmp	 ecx, 4096		; 00001000H
  00251	72 10		 jb	 SHORT $LN183@split_stri

; 205  :     const uintptr_t _Ptr_container   = _Ptr_user[-1];

  00253	8b 50 fc	 mov	 edx, DWORD PTR [eax-4]
  00256	83 c1 23	 add	 ecx, 35			; 00000023H
  00259	2b c2		 sub	 eax, edx

; 219  :     _STL_VERIFY(_Back_shift >= _Min_back_shift && _Back_shift <= _Non_user_size, "invalid argument");

  0025b	83 c0 fc	 add	 eax, -4			; fffffffcH
  0025e	83 f8 1f	 cmp	 eax, 31			; 0000001fH
  00261	77 7c		 ja	 SHORT $LN91@split_stri
$LN183@split_stri:

; 289  :         ::operator delete(_Ptr, _Bytes);

  00263	51		 push	 ecx
  00264	52		 push	 edx
  00265	e8 00 00 00 00	 call	 ??3@YAXPAXI@Z		; operator delete
  0026a	83 c4 08	 add	 esp, 8
$LN172@split_stri:
; File D:\Program Files\Microsoft Visual Studio\2022\Community\VC\Tools\MSVC\14.43.34808\include\vector

; 1900 :         return static_cast<size_type>(_My_data._Mylast - _My_data._Myfirst);

  0026d	8b 45 b4	 mov	 eax, DWORD PTR _positions$[ebp+4]
; File C:\Marty 5.5\Src-Client\Client\EterBase\Stl.cpp

; 63   : 	for (UINT i = 0; i <= positions.size(); ++i)

  00270	46		 inc	 esi
; File D:\Program Files\Microsoft Visual Studio\2022\Community\VC\Tools\MSVC\14.43.34808\include\vector

; 1900 :         return static_cast<size_type>(_My_data._Mylast - _My_data._Myfirst);

  00271	2b 45 b0	 sub	 eax, DWORD PTR _positions$[ebp]
  00274	c1 f8 02	 sar	 eax, 2
; File C:\Marty 5.5\Src-Client\Client\EterBase\Stl.cpp

; 63   : 	for (UINT i = 0; i <= positions.size(); ++i)

  00277	3b f0		 cmp	 esi, eax
  00279	0f 86 b3 fe ff
	ff		 jbe	 $LL6@split_stri

; 91   : 	return numFound;

  0027f	8b 75 a8	 mov	 esi, DWORD PTR $T2[ebp]
  00282	eb 02		 jmp	 SHORT $LN26@split_stri
$LN25@split_stri:
  00284	33 f6		 xor	 esi, esi
$LN26@split_stri:
; File D:\Program Files\Microsoft Visual Studio\2022\Community\VC\Tools\MSVC\14.43.34808\include\vector

; 2075 :         if (_Myfirst) { // destroy and deallocate old array

  00286	8b 4d b0	 mov	 ecx, DWORD PTR _positions$[ebp]
  00289	85 c9		 test	 ecx, ecx
  0028b	74 2c		 je	 SHORT $LN75@split_stri

; 2078 :             _Al.deallocate(_Myfirst, static_cast<size_type>(_Myend - _Myfirst));

  0028d	8b 55 b8	 mov	 edx, DWORD PTR _positions$[ebp+8]
; File D:\Program Files\Microsoft Visual Studio\2022\Community\VC\Tools\MSVC\14.43.34808\include\xmemory

; 981  :         _STD _Deallocate<_New_alignof<_Ty>>(_Ptr, sizeof(_Ty) * _Count);

  00290	8b c1		 mov	 eax, ecx
; File D:\Program Files\Microsoft Visual Studio\2022\Community\VC\Tools\MSVC\14.43.34808\include\vector

; 2078 :             _Al.deallocate(_Myfirst, static_cast<size_type>(_Myend - _Myfirst));

  00292	2b d1		 sub	 edx, ecx
; File D:\Program Files\Microsoft Visual Studio\2022\Community\VC\Tools\MSVC\14.43.34808\include\xmemory

; 981  :         _STD _Deallocate<_New_alignof<_Ty>>(_Ptr, sizeof(_Ty) * _Count);

  00294	83 e2 fc	 and	 edx, -4			; fffffffcH

; 284  :         if (_Bytes >= _Big_allocation_threshold) {

  00297	81 fa 00 10 00
	00		 cmp	 edx, 4096		; 00001000H
  0029d	72 10		 jb	 SHORT $LN94@split_stri

; 205  :     const uintptr_t _Ptr_container   = _Ptr_user[-1];

  0029f	8b 48 fc	 mov	 ecx, DWORD PTR [eax-4]
  002a2	83 c2 23	 add	 edx, 35			; 00000023H
  002a5	2b c1		 sub	 eax, ecx

; 219  :     _STL_VERIFY(_Back_shift >= _Min_back_shift && _Back_shift <= _Non_user_size, "invalid argument");

  002a7	83 c0 fc	 add	 eax, -4			; fffffffcH
  002aa	83 f8 1f	 cmp	 eax, 31			; 0000001fH
  002ad	77 30		 ja	 SHORT $LN91@split_stri
$LN94@split_stri:

; 289  :         ::operator delete(_Ptr, _Bytes);

  002af	52		 push	 edx
  002b0	51		 push	 ecx
  002b1	e8 00 00 00 00	 call	 ??3@YAXPAXI@Z		; operator delete
  002b6	83 c4 08	 add	 esp, 8
$LN75@split_stri:
; File C:\Marty 5.5\Src-Client\Client\EterBase\Stl.cpp

; 91   : 	return numFound;

  002b9	8b c6		 mov	 eax, esi
  002bb	eb 02		 jmp	 SHORT $LN1@split_stri
$LN8@split_stri:

; 39   : 	{
; 40   : 		return 0;

  002bd	33 c0		 xor	 eax, eax
$LN1@split_stri:

; 92   : }

  002bf	8b 4d f4	 mov	 ecx, DWORD PTR __$EHRec$[ebp]
  002c2	64 89 0d 00 00
	00 00		 mov	 DWORD PTR fs:0, ecx
  002c9	59		 pop	 ecx
  002ca	5f		 pop	 edi
  002cb	5e		 pop	 esi
  002cc	8b 4d f0	 mov	 ecx, DWORD PTR __$ArrayPad$[ebp]
  002cf	33 cd		 xor	 ecx, ebp
  002d1	e8 00 00 00 00	 call	 @__security_check_cookie@4
  002d6	8b e5		 mov	 esp, ebp
  002d8	5d		 pop	 ebp
  002d9	c3		 ret	 0
$LN610@split_stri:
; File D:\Program Files\Microsoft Visual Studio\2022\Community\VC\Tools\MSVC\14.43.34808\include\xstring

; 451  :             _Xran();

  002da	e8 00 00 00 00	 call	 ?_Xran@?$_String_val@U?$_Simple_types@D@std@@@std@@SAXXZ ; std::_String_val<std::_Simple_types<char> >::_Xran
$LN91@split_stri:
; File D:\Program Files\Microsoft Visual Studio\2022\Community\VC\Tools\MSVC\14.43.34808\include\xmemory

; 219  :     _STL_VERIFY(_Back_shift >= _Min_back_shift && _Back_shift <= _Non_user_size, "invalid argument");

  002df	e8 00 00 00 00	 call	 __invalid_parameter_noinfo_noreturn
$LN623@split_stri:
  002e4	cc		 int	 3
_TEXT	ENDS
;	COMDAT text$x
text$x	SEGMENT
__unwindfunclet$?split_string@@YAHABV?$basic_string@DU?$char_traits@D@std@@V?$allocator@D@2@@std@@0AAV?$vector@V?$basic_string@DU?$char_traits@D@std@@V?$allocator@D@2@@std@@V?$allocator@V?$basic_string@DU?$char_traits@D@std@@V?$allocator@D@2@@std@@@2@@2@_N@Z$0:
  00000	8d 4d b0	 lea	 ecx, DWORD PTR _positions$[ebp]
  00003	e9 00 00 00 00	 jmp	 ??1?$vector@HV?$allocator@H@std@@@std@@QAE@XZ ; std::vector<int,std::allocator<int> >::~vector<int,std::allocator<int> >
__unwindfunclet$?split_string@@YAHABV?$basic_string@DU?$char_traits@D@std@@V?$allocator@D@2@@std@@0AAV?$vector@V?$basic_string@DU?$char_traits@D@std@@V?$allocator@D@2@@std@@V?$allocator@V?$basic_string@DU?$char_traits@D@std@@V?$allocator@D@2@@std@@@2@@2@_N@Z$1:
  00008	8d 4d c0	 lea	 ecx, DWORD PTR _s$3[ebp]
  0000b	e9 00 00 00 00	 jmp	 ??1?$basic_string@DU?$char_traits@D@std@@V?$allocator@D@2@@std@@QAE@XZ ; std::basic_string<char,std::char_traits<char>,std::allocator<char> >::~basic_string<char,std::char_traits<char>,std::allocator<char> >
  00010	cc		 int	 3
  00011	cc		 int	 3
  00012	cc		 int	 3
  00013	cc		 int	 3
  00014	cc		 int	 3
__ehhandler$?split_string@@YAHABV?$basic_string@DU?$char_traits@D@std@@V?$allocator@D@2@@std@@0AAV?$vector@V?$basic_string@DU?$char_traits@D@std@@V?$allocator@D@2@@std@@V?$allocator@V?$basic_string@DU?$char_traits@D@std@@V?$allocator@D@2@@std@@@2@@2@_N@Z:
  00015	90		 npad	 1
  00016	90		 npad	 1
  00017	8b 54 24 08	 mov	 edx, DWORD PTR [esp+8]
  0001b	8d 42 0c	 lea	 eax, DWORD PTR [edx+12]
  0001e	8b 4a 94	 mov	 ecx, DWORD PTR [edx-108]
  00021	33 c8		 xor	 ecx, eax
  00023	e8 00 00 00 00	 call	 @__security_check_cookie@4
  00028	8b 4a fc	 mov	 ecx, DWORD PTR [edx-4]
  0002b	33 c8		 xor	 ecx, eax
  0002d	e8 00 00 00 00	 call	 @__security_check_cookie@4
  00032	b8 00 00 00 00	 mov	 eax, OFFSET __ehfuncinfo$?split_string@@YAHABV?$basic_string@DU?$char_traits@D@std@@V?$allocator@D@2@@std@@0AAV?$vector@V?$basic_string@DU?$char_traits@D@std@@V?$allocator@D@2@@std@@V?$allocator@V?$basic_string@DU?$char_traits@D@std@@V?$allocator@D@2@@std@@@2@@2@_N@Z
  00037	e9 00 00 00 00	 jmp	 ___CxxFrameHandler3
text$x	ENDS
?split_string@@YAHABV?$basic_string@DU?$char_traits@D@std@@V?$allocator@D@2@@std@@0AAV?$vector@V?$basic_string@DU?$char_traits@D@std@@V?$allocator@D@2@@std@@V?$allocator@V?$basic_string@DU?$char_traits@D@std@@V?$allocator@D@2@@std@@@2@@2@_N@Z ENDP ; split_string
; Function compile flags: /Ogtp
; File C:\Marty 5.5\Src-Client\Client\EterBase\Stl.cpp
; File D:\Program Files\Microsoft Visual Studio\2022\Community\VC\Tools\MSVC\14.43.34808\include\xstring
; File C:\Marty 5.5\Src-Client\Client\EterBase\Stl.cpp
; File D:\Program Files\Microsoft Visual Studio\2022\Community\VC\Tools\MSVC\14.43.34808\include\xstring
; File C:\Marty 5.5\Src-Client\Client\EterBase\Stl.cpp
;	COMDAT ?stl_lowers@@YAXAAV?$basic_string@DU?$char_traits@D@std@@V?$allocator@D@2@@std@@@Z
_TEXT	SEGMENT
_rstRet$ = 8						; size = 4
?stl_lowers@@YAXAAV?$basic_string@DU?$char_traits@D@std@@V?$allocator@D@2@@std@@@Z PROC ; stl_lowers, COMDAT

; 26   : {

  00000	55		 push	 ebp
  00001	8b ec		 mov	 ebp, esp
  00003	56		 push	 esi
  00004	57		 push	 edi

; 27   : 	for (size_t i = 0; i < rstRet.length(); ++i)

  00005	8b 7d 08	 mov	 edi, DWORD PTR _rstRet$[ebp]
  00008	33 f6		 xor	 esi, esi
  0000a	39 77 10	 cmp	 DWORD PTR [edi+16], esi
  0000d	76 2f		 jbe	 SHORT $LN3@stl_lowers
  0000f	90		 npad	 1
$LL4@stl_lowers:
; File D:\Program Files\Microsoft Visual Studio\2022\Community\VC\Tools\MSVC\14.43.34808\include\xstring

; 434  :         return _Myres > _Small_string_capacity;

  00010	83 7f 14 0f	 cmp	 DWORD PTR [edi+20], 15	; 0000000fH

; 417  :         if (_Large_mode_engaged()) {

  00014	76 10		 jbe	 SHORT $LN33@stl_lowers

; 418  :             _Result = _Unfancy(_Bx._Ptr);

  00016	8b 07		 mov	 eax, DWORD PTR [edi]
  00018	0f b6 04 06	 movzx	 eax, BYTE PTR [esi+eax]
  0001c	50		 push	 eax
  0001d	e8 00 00 00 00	 call	 ?korean_tolower@@YADD@Z	; korean_tolower
  00022	8b 0f		 mov	 ecx, DWORD PTR [edi]
  00024	eb 0c		 jmp	 SHORT $LN37@stl_lowers
$LN33@stl_lowers:
; File C:\Marty 5.5\Src-Client\Client\EterBase\Stl.cpp

; 28   : 		rstRet[i] = korean_tolower(rstRet[i]);

  00026	0f b6 04 37	 movzx	 eax, BYTE PTR [edi+esi]
  0002a	50		 push	 eax
  0002b	e8 00 00 00 00	 call	 ?korean_tolower@@YADD@Z	; korean_tolower
; File D:\Program Files\Microsoft Visual Studio\2022\Community\VC\Tools\MSVC\14.43.34808\include\xstring

; 416  :         value_type* _Result = _Bx._Buf;

  00030	8b cf		 mov	 ecx, edi
$LN37@stl_lowers:
; File C:\Marty 5.5\Src-Client\Client\EterBase\Stl.cpp

; 28   : 		rstRet[i] = korean_tolower(rstRet[i]);

  00032	88 04 31	 mov	 BYTE PTR [ecx+esi], al
  00035	83 c4 04	 add	 esp, 4
  00038	46		 inc	 esi
  00039	3b 77 10	 cmp	 esi, DWORD PTR [edi+16]
  0003c	72 d2		 jb	 SHORT $LL4@stl_lowers
$LN3@stl_lowers:
  0003e	5f		 pop	 edi

; 29   : }

  0003f	5e		 pop	 esi
  00040	5d		 pop	 ebp
  00041	c3		 ret	 0
?stl_lowers@@YAXAAV?$basic_string@DU?$char_traits@D@std@@V?$allocator@D@2@@std@@@Z ENDP ; stl_lowers
_TEXT	ENDS
; Function compile flags: /Ogtp
; File C:\Marty 5.5\Src-Client\Client\EterBase\Stl.cpp
; File D:\Program Files\Microsoft Visual Studio\2022\Community\VC\Tools\MSVC\14.43.34808\include\xstring
; File C:\Marty 5.5\Src-Client\Client\EterBase\Stl.cpp
; File D:\Program Files\Microsoft Visual Studio\2022\Community\VC\Tools\MSVC\14.43.34808\include\xstring
; File D:\Program Files\Microsoft Visual Studio\2022\Community\VC\Tools\MSVC\14.43.34808\include\__msvc_string_view.hpp
; File C:\Marty 5.5\Src-Client\Client\EterBase\Stl.cpp
; File D:\Program Files\Microsoft Visual Studio\2022\Community\VC\Tools\MSVC\14.43.34808\include\__msvc_string_view.hpp
; File D:\Program Files\Microsoft Visual Studio\2022\Community\VC\Tools\MSVC\14.43.34808\include\xstring
; File D:\Program Files\Microsoft Visual Studio\2022\Community\VC\Tools\MSVC\14.43.34808\include\__msvc_string_view.hpp
; File D:\Program Files\Microsoft Visual Studio\2022\Community\VC\Tools\MSVC\14.43.34808\include\xstring
; File D:\Program Files\Microsoft Visual Studio\2022\Community\VC\Tools\MSVC\14.43.34808\include\__msvc_string_view.hpp
; File D:\Program Files\Microsoft Visual Studio\2022\Community\VC\Tools\MSVC\14.43.34808\include\xstring
; File D:\Program Files\Microsoft Visual Studio\2022\Community\VC\Tools\MSVC\14.43.34808\include\xmemory
; File D:\Program Files\Microsoft Visual Studio\2022\Community\VC\Tools\MSVC\14.43.34808\include\xstring
; File D:\Program Files\Microsoft Visual Studio\2022\Community\VC\Tools\MSVC\14.43.34808\include\xmemory
; File D:\Program Files\Microsoft Visual Studio\2022\Community\VC\Tools\MSVC\14.43.34808\include\xstring
; File D:\Program Files\Microsoft Visual Studio\2022\Community\VC\Tools\MSVC\14.43.34808\include\__msvc_string_view.hpp
; File D:\Program Files\Microsoft Visual Studio\2022\Community\VC\Tools\MSVC\14.43.34808\include\xstring
; File D:\Program Files\Microsoft Visual Studio\2022\Community\VC\Tools\MSVC\14.43.34808\include\__msvc_string_view.hpp
; File D:\Program Files\Microsoft Visual Studio\2022\Community\VC\Tools\MSVC\14.43.34808\include\xstring
; File D:\Program Files\Microsoft Visual Studio\2022\Community\VC\Tools\MSVC\14.43.34808\include\__msvc_string_view.hpp
; File D:\Program Files\Microsoft Visual Studio\2022\Community\VC\Tools\MSVC\14.43.34808\include\xstring
; File D:\Program Files\Microsoft Visual Studio\2022\Community\VC\Tools\MSVC\14.43.34808\include\list
; File D:\Program Files\Microsoft Visual Studio\2022\Community\VC\Tools\MSVC\14.43.34808\include\xmemory
; File D:\Program Files\Microsoft Visual Studio\2022\Community\VC\Tools\MSVC\14.43.34808\include\list
; File D:\Program Files\Microsoft Visual Studio\2022\Community\VC\Tools\MSVC\14.43.34808\include\xmemory
; File D:\Program Files\Microsoft Visual Studio\2022\Community\VC\Tools\MSVC\14.43.34808\include\list
; File D:\Program Files\Microsoft Visual Studio\2022\Community\VC\Tools\MSVC\14.43.34808\include\xstring
; File D:\Program Files\Microsoft Visual Studio\2022\Community\VC\Tools\MSVC\14.43.34808\include\list
; File D:\Program Files\Microsoft Visual Studio\2022\Community\VC\Tools\MSVC\14.43.34808\include\xstring
; File D:\Program Files\Microsoft Visual Studio\2022\Community\VC\Tools\MSVC\14.43.34808\include\xmemory
; File D:\Program Files\Microsoft Visual Studio\2022\Community\VC\Tools\MSVC\14.43.34808\include\xstring
; File D:\Program Files\Microsoft Visual Studio\2022\Community\VC\Tools\MSVC\14.43.34808\include\xmemory
; File C:\Marty 5.5\Src-Client\Client\EterBase\Stl.cpp
; File D:\Program Files\Microsoft Visual Studio\2022\Community\VC\Tools\MSVC\14.43.34808\include\xstring
; File D:\Program Files\Microsoft Visual Studio\2022\Community\VC\Tools\MSVC\14.43.34808\include\list
; File D:\Program Files\Microsoft Visual Studio\2022\Community\VC\Tools\MSVC\14.43.34808\include\xmemory
; File C:\Marty 5.5\Src-Client\Client\EterBase\Stl.cpp
;	COMDAT ?stl_static_string@@YAAAV?$basic_string@DU?$char_traits@D@std@@V?$allocator@D@2@@std@@PBD@Z
_TEXT	SEGMENT
__Op$2 = -52						; size = 8
_c_sz$GSCopy$1$ = -48					; size = 4
$T3 = -44						; size = 4
_str$ = -40						; size = 24
__$ArrayPad$ = -16					; size = 4
__$EHRec$ = -12						; size = 12
_c_sz$ = 8						; size = 4
?stl_static_string@@YAAAV?$basic_string@DU?$char_traits@D@std@@V?$allocator@D@2@@std@@PBD@Z PROC ; stl_static_string, COMDAT

; 17   : {

  00000	55		 push	 ebp
  00001	8b ec		 mov	 ebp, esp
  00003	6a ff		 push	 -1
  00005	68 00 00 00 00	 push	 __ehhandler$?stl_static_string@@YAAAV?$basic_string@DU?$char_traits@D@std@@V?$allocator@D@2@@std@@PBD@Z
  0000a	64 a1 00 00 00
	00		 mov	 eax, DWORD PTR fs:0
  00010	50		 push	 eax
  00011	83 ec 28	 sub	 esp, 40			; 00000028H
  00014	a1 00 00 00 00	 mov	 eax, DWORD PTR ___security_cookie
  00019	33 c5		 xor	 eax, ebp
  0001b	89 45 f0	 mov	 DWORD PTR __$ArrayPad$[ebp], eax
  0001e	56		 push	 esi
  0001f	57		 push	 edi
  00020	50		 push	 eax
  00021	8d 45 f4	 lea	 eax, DWORD PTR __$EHRec$[ebp]
  00024	64 a3 00 00 00
	00		 mov	 DWORD PTR fs:0, eax
  0002a	8b 7d 08	 mov	 edi, DWORD PTR _c_sz$[ebp]
  0002d	0f 57 c0	 xorps	 xmm0, xmm0
; File D:\Program Files\Microsoft Visual Studio\2022\Community\VC\Tools\MSVC\14.43.34808\include\xstring

; 474  :         _CONSTEXPR20 _Bxty() noexcept : _Buf() {} // user-provided, for fancy pointers

  00030	0f 11 45 d8	 movups	 XMMWORD PTR _str$[ebp], xmm0
; File C:\Marty 5.5\Src-Client\Client\EterBase\Stl.cpp

; 17   : {

  00034	89 7d d0	 mov	 DWORD PTR _c_sz$GSCopy$1$[ebp], edi
; File D:\Program Files\Microsoft Visual Studio\2022\Community\VC\Tools\MSVC\14.43.34808\include\xstring

; 836  :         _My_data._Mysize = 0;

  00037	c7 45 e8 00 00
	00 00		 mov	 DWORD PTR _str$[ebp+16], 0

; 837  :         _My_data._Myres  = _Small_string_capacity;

  0003e	c7 45 ec 0f 00
	00 00		 mov	 DWORD PTR _str$[ebp+20], 15 ; 0000000fH

; 838  :         _My_data._Activate_SSO_buffer();
; 839  : 
; 840  :         // the _Traits::assign is last so the codegen doesn't think the char write can alias this
; 841  :         _Traits::assign(_My_data._Bx._Buf[0], _Elem());

  00045	c6 45 d8 00	 mov	 BYTE PTR _str$[ebp], 0
; File D:\Program Files\Microsoft Visual Studio\2022\Community\VC\Tools\MSVC\14.43.34808\include\__msvc_string_view.hpp

; 430  :             return __builtin_strlen(_First);

  00049	8b f7		 mov	 esi, edi
; File C:\Marty 5.5\Src-Client\Client\EterBase\Stl.cpp

; 18   : 	std::string str;

  0004b	c7 45 fc 00 00
	00 00		 mov	 DWORD PTR __$EHRec$[ebp+8], 0
; File D:\Program Files\Microsoft Visual Studio\2022\Community\VC\Tools\MSVC\14.43.34808\include\__msvc_string_view.hpp

; 430  :             return __builtin_strlen(_First);

  00052	8d 4e 01	 lea	 ecx, DWORD PTR [esi+1]
$LL253@stl_static:
  00055	8a 06		 mov	 al, BYTE PTR [esi]
  00057	46		 inc	 esi
  00058	84 c0		 test	 al, al
  0005a	75 f9		 jne	 SHORT $LL253@stl_static
  0005c	2b f1		 sub	 esi, ecx
; File D:\Program Files\Microsoft Visual Studio\2022\Community\VC\Tools\MSVC\14.43.34808\include\xstring

; 1614 :         return assign(_Ptr, _Convert_size<size_type>(_Traits::length(_Ptr)));

  0005e	83 fe 0f	 cmp	 esi, 15			; 0000000fH

; 1594 :         if (_Count <= _Mypair._Myval2._Myres) {

  00061	77 15		 ja	 SHORT $LN30@stl_static
; File D:\Program Files\Microsoft Visual Studio\2022\Community\VC\Tools\MSVC\14.43.34808\include\__msvc_string_view.hpp

; 148  :         _CSTD memmove(_First1, _First2, _Count * sizeof(_Elem));

  00063	56		 push	 esi
  00064	8d 45 d8	 lea	 eax, DWORD PTR _str$[ebp]
; File D:\Program Files\Microsoft Visual Studio\2022\Community\VC\Tools\MSVC\14.43.34808\include\xstring

; 1597 :             _Mypair._Myval2._Mysize = _Count;

  00067	89 75 e8	 mov	 DWORD PTR _str$[ebp+16], esi
; File D:\Program Files\Microsoft Visual Studio\2022\Community\VC\Tools\MSVC\14.43.34808\include\__msvc_string_view.hpp

; 148  :         _CSTD memmove(_First1, _First2, _Count * sizeof(_Elem));

  0006a	57		 push	 edi
  0006b	50		 push	 eax
  0006c	e8 00 00 00 00	 call	 _memmove
; File D:\Program Files\Microsoft Visual Studio\2022\Community\VC\Tools\MSVC\14.43.34808\include\xstring

; 1599 :             _Traits::assign(_Old_ptr[_Count], _Elem());

  00071	c6 44 35 d8 00	 mov	 BYTE PTR _str$[ebp+esi], 0

; 1600 :             _ASAN_STRING_CREATE(*this);
; 1601 :             return *this;

  00076	eb 71		 jmp	 SHORT $LN256@stl_static
$LN30@stl_static:

; 2962 :         if (_New_size > max_size()) {

  00078	81 fe ff ff ff
	7f		 cmp	 esi, 2147483647		; 7fffffffH
  0007e	0f 87 14 01 00
	00		 ja	 $LN260@stl_static

; 2942 :         const size_type _Masked = _Requested | _Alloc_mask;

  00084	8b fe		 mov	 edi, esi
  00086	83 cf 0f	 or	 edi, 15			; 0000000fH
  00089	81 ff ff ff ff
	7f		 cmp	 edi, 2147483647		; 7fffffffH

; 2943 :         if (_Masked > _Max) { // the mask overflows, settle for max_size()

  0008f	76 12		 jbe	 SHORT $LN51@stl_static

; 2944 :             return _Max;

  00091	b8 00 00 00 80	 mov	 eax, -2147483648	; 80000000H
  00096	bf ff ff ff 7f	 mov	 edi, 2147483647		; 7fffffffH
; File D:\Program Files\Microsoft Visual Studio\2022\Community\VC\Tools\MSVC\14.43.34808\include\xmemory

; 253  :             return _Allocate_manually_vector_aligned<_Traits>(_Bytes);

  0009b	50		 push	 eax
  0009c	e8 00 00 00 00	 call	 ??$_Allocate_manually_vector_aligned@U_Default_allocate_traits@std@@@std@@YAPAXI@Z ; std::_Allocate_manually_vector_aligned<std::_Default_allocate_traits>
  000a1	eb 26		 jmp	 SHORT $LN258@stl_static
$LN51@stl_static:
; File D:\Program Files\Microsoft Visual Studio\2022\Community\VC\Tools\MSVC\14.43.34808\include\xstring

; 2951 :         return (_STD max)(_Masked, _Old + _Old / 2);

  000a3	b8 16 00 00 00	 mov	 eax, 22			; 00000016H
  000a8	3b f8		 cmp	 edi, eax
  000aa	0f 42 f8	 cmovb	 edi, eax

; 801  :         ++_Capacity; // Take null terminator into consideration

  000ad	8d 47 01	 lea	 eax, DWORD PTR [edi+1]
; File D:\Program Files\Microsoft Visual Studio\2022\Community\VC\Tools\MSVC\14.43.34808\include\xmemory

; 227  :     if (_Bytes == 0) {

  000b0	85 c0		 test	 eax, eax
  000b2	74 18		 je	 SHORT $LN257@stl_static
$LN65@stl_static:

; 228  :         return nullptr;
; 229  :     }
; 230  : 
; 231  : #if _HAS_CXX20 // TRANSITION, GH-1532
; 232  :     if (_STD is_constant_evaluated()) {
; 233  :         return _Traits::_Allocate(_Bytes);
; 234  :     }
; 235  : #endif // _HAS_CXX20
; 236  : 
; 237  : #ifdef __cpp_aligned_new
; 238  :     if constexpr (_Align > __STDCPP_DEFAULT_NEW_ALIGNMENT__) {
; 239  :         size_t _Passed_align = _Align;
; 240  : #if defined(_M_IX86) || defined(_M_X64)
; 241  :         if (_Bytes >= _Big_allocation_threshold) {
; 242  :             // boost the alignment of big allocations to help autovectorization
; 243  :             _Passed_align = (_STD max)(_Align, _Big_allocation_alignment);
; 244  :         }
; 245  : #endif // defined(_M_IX86) || defined(_M_X64)
; 246  :         return _Traits::_Allocate_aligned(_Bytes, _Passed_align);
; 247  :     } else
; 248  : #endif // defined(__cpp_aligned_new)
; 249  :     {
; 250  : #if defined(_M_IX86) || defined(_M_X64)
; 251  :         if (_Bytes >= _Big_allocation_threshold) {

  000b4	3d 00 10 00 00	 cmp	 eax, 4096		; 00001000H
  000b9	72 08		 jb	 SHORT $LN66@stl_static

; 253  :             return _Allocate_manually_vector_aligned<_Traits>(_Bytes);

  000bb	50		 push	 eax
  000bc	e8 00 00 00 00	 call	 ??$_Allocate_manually_vector_aligned@U_Default_allocate_traits@std@@@std@@YAPAXI@Z ; std::_Allocate_manually_vector_aligned<std::_Default_allocate_traits>
  000c1	eb 06		 jmp	 SHORT $LN258@stl_static
$LN66@stl_static:

; 136  :         return ::operator new(_Bytes);

  000c3	50		 push	 eax
  000c4	e8 00 00 00 00	 call	 ??2@YAPAXI@Z		; operator new
$LN258@stl_static:
; File D:\Program Files\Microsoft Visual Studio\2022\Community\VC\Tools\MSVC\14.43.34808\include\xstring

; 2973 :         _Mypair._Myval2._Mysize = _New_size;

  000c9	83 c4 04	 add	 esp, 4
$LN257@stl_static:
; File D:\Program Files\Microsoft Visual Studio\2022\Community\VC\Tools\MSVC\14.43.34808\include\__msvc_string_view.hpp

; 95   :         _CSTD memcpy(_First1, _First2, _Count * sizeof(_Elem));

  000cc	56		 push	 esi
  000cd	ff 75 d0	 push	 DWORD PTR _c_sz$GSCopy$1$[ebp]
; File D:\Program Files\Microsoft Visual Studio\2022\Community\VC\Tools\MSVC\14.43.34808\include\xstring

; 2973 :         _Mypair._Myval2._Mysize = _New_size;

  000d0	89 45 d4	 mov	 DWORD PTR $T3[ebp], eax
; File D:\Program Files\Microsoft Visual Studio\2022\Community\VC\Tools\MSVC\14.43.34808\include\__msvc_string_view.hpp

; 95   :         _CSTD memcpy(_First1, _First2, _Count * sizeof(_Elem));

  000d3	50		 push	 eax
; File D:\Program Files\Microsoft Visual Studio\2022\Community\VC\Tools\MSVC\14.43.34808\include\xstring

; 2973 :         _Mypair._Myval2._Mysize = _New_size;

  000d4	89 75 e8	 mov	 DWORD PTR _str$[ebp+16], esi

; 2974 :         _Mypair._Myval2._Myres  = _New_capacity;

  000d7	89 7d ec	 mov	 DWORD PTR _str$[ebp+20], edi
; File D:\Program Files\Microsoft Visual Studio\2022\Community\VC\Tools\MSVC\14.43.34808\include\__msvc_string_view.hpp

; 95   :         _CSTD memcpy(_First1, _First2, _Count * sizeof(_Elem));

  000da	e8 00 00 00 00	 call	 _memcpy
; File D:\Program Files\Microsoft Visual Studio\2022\Community\VC\Tools\MSVC\14.43.34808\include\xstring

; 1608 :                 _Traits::assign(_New_ptr[_Count], _Elem());

  000df	8b 45 d4	 mov	 eax, DWORD PTR $T3[ebp]

; 2980 :             _Construct_in_place(_Mypair._Myval2._Bx._Ptr, _New_ptr);

  000e2	89 45 d8	 mov	 DWORD PTR _str$[ebp], eax

; 1608 :                 _Traits::assign(_New_ptr[_Count], _Elem());

  000e5	c6 04 30 00	 mov	 BYTE PTR [eax+esi], 0
$LN256@stl_static:
; File D:\Program Files\Microsoft Visual Studio\2022\Community\VC\Tools\MSVC\14.43.34808\include\list

; 1264 :         _Emplace(_Mypair._Myval2._Myhead, _Val);

  000e9	8b 3d 00 00 00
	00		 mov	 edi, DWORD PTR ?s_stList@@3V?$list@V?$basic_string@DU?$char_traits@D@std@@V?$allocator@D@2@@std@@V?$allocator@V?$basic_string@DU?$char_traits@D@std@@V?$allocator@D@2@@std@@@2@@std@@A
  000ef	83 c4 0c	 add	 esp, 12			; 0000000cH

; 1020 :         if (_Mysize == max_size()) {

  000f2	81 3d 04 00 00
	00 ff ff ff 07	 cmp	 DWORD PTR ?s_stList@@3V?$list@V?$basic_string@DU?$char_traits@D@std@@V?$allocator@D@2@@std@@V?$allocator@V?$basic_string@DU?$char_traits@D@std@@V?$allocator@D@2@@std@@@2@@std@@A+4, 134217727 ; 07ffffffH
  000fc	0f 84 9b 00 00
	00		 je	 $LN261@stl_static
; File D:\Program Files\Microsoft Visual Studio\2022\Community\VC\Tools\MSVC\14.43.34808\include\xmemory

; 1156 :     _CONSTEXPR20 explicit _Alloc_construct_ptr(_Alloc& _Al_) : _Al(_Al_), _Ptr(nullptr) {}

  00102	c7 45 cc 00 00
	00 00		 mov	 DWORD PTR __Op$2[ebp], OFFSET ?s_stList@@3V?$list@V?$basic_string@DU?$char_traits@D@std@@V?$allocator@D@2@@std@@V?$allocator@V?$basic_string@DU?$char_traits@D@std@@V?$allocator@D@2@@std@@@2@@std@@A

; 136  :         return ::operator new(_Bytes);

  00109	6a 20		 push	 32			; 00000020H
; File D:\Program Files\Microsoft Visual Studio\2022\Community\VC\Tools\MSVC\14.43.34808\include\list

; 583  :     explicit _List_node_emplace_op2(_Alnode& _Al_, _Valtys&&... _Vals) : _Alloc_construct_ptr<_Alnode>(_Al_) {

  0010b	c6 45 fc 01	 mov	 BYTE PTR __$EHRec$[ebp+8], 1
; File D:\Program Files\Microsoft Visual Studio\2022\Community\VC\Tools\MSVC\14.43.34808\include\xmemory

; 1163 :         _Ptr = nullptr; // if allocate throws, prevents double-free

  0010f	c7 45 d0 00 00
	00 00		 mov	 DWORD PTR __Op$2[ebp+4], 0

; 136  :         return ::operator new(_Bytes);

  00116	e8 00 00 00 00	 call	 ??2@YAPAXI@Z		; operator new

; 256  :         return _Traits::_Allocate(_Bytes);

  0011b	8b f0		 mov	 esi, eax

; 136  :         return ::operator new(_Bytes);

  0011d	83 c4 04	 add	 esp, 4

; 732  :         ::new (const_cast<void*>(static_cast<const volatile void*>(_Ptr))) _Objty(_STD forward<_Types>(_Args)...);

  00120	8d 45 d8	 lea	 eax, DWORD PTR _str$[ebp]

; 1164 :         _Ptr = _Al.allocate(1);

  00123	89 75 d0	 mov	 DWORD PTR __Op$2[ebp+4], esi

; 732  :         ::new (const_cast<void*>(static_cast<const volatile void*>(_Ptr))) _Objty(_STD forward<_Types>(_Args)...);

  00126	50		 push	 eax
  00127	8d 4e 08	 lea	 ecx, DWORD PTR [esi+8]
  0012a	e8 00 00 00 00	 call	 ??0?$basic_string@DU?$char_traits@D@std@@V?$allocator@D@2@@std@@QAE@ABV01@@Z ; std::basic_string<char,std::char_traits<char>,std::allocator<char> >::basic_string<char,std::char_traits<char>,std::allocator<char> >
; File D:\Program Files\Microsoft Visual Studio\2022\Community\VC\Tools\MSVC\14.43.34808\include\list

; 1025 :         ++_Mysize;

  0012f	ff 05 04 00 00
	00		 inc	 DWORD PTR ?s_stList@@3V?$list@V?$basic_string@DU?$char_traits@D@std@@V?$allocator@D@2@@std@@V?$allocator@V?$basic_string@DU?$char_traits@D@std@@V?$allocator@D@2@@std@@@2@@std@@A+4

; 598  :         const pointer _Insert_after = _Insert_before->_Prev;

  00135	8b 4f 04	 mov	 ecx, DWORD PTR [edi+4]

; 599  :         _Construct_in_place(this->_Ptr->_Next, _Insert_before);

  00138	89 3e		 mov	 DWORD PTR [esi], edi

; 600  :         _Construct_in_place(this->_Ptr->_Prev, _Insert_after);

  0013a	89 4e 04	 mov	 DWORD PTR [esi+4], ecx

; 601  :         const auto _Result    = this->_Ptr;
; 602  :         this->_Ptr            = pointer{};
; 603  :         _Insert_before->_Prev = _Result;

  0013d	89 77 04	 mov	 DWORD PTR [edi+4], esi

; 604  :         _Insert_after->_Next  = _Result;

  00140	89 31		 mov	 DWORD PTR [ecx], esi

; 1231 :         return _Mypair._Myval2._Myhead->_Prev->_Myval;

  00142	a1 00 00 00 00	 mov	 eax, DWORD PTR ?s_stList@@3V?$list@V?$basic_string@DU?$char_traits@D@std@@V?$allocator@D@2@@std@@V?$allocator@V?$basic_string@DU?$char_traits@D@std@@V?$allocator@D@2@@std@@@2@@std@@A
; File D:\Program Files\Microsoft Visual Studio\2022\Community\VC\Tools\MSVC\14.43.34808\include\xstring

; 434  :         return _Myres > _Small_string_capacity;

  00147	8b 4d ec	 mov	 ecx, DWORD PTR _str$[ebp+20]
; File D:\Program Files\Microsoft Visual Studio\2022\Community\VC\Tools\MSVC\14.43.34808\include\list

; 1231 :         return _Mypair._Myval2._Myhead->_Prev->_Myval;

  0014a	8b 70 04	 mov	 esi, DWORD PTR [eax+4]
; File D:\Program Files\Microsoft Visual Studio\2022\Community\VC\Tools\MSVC\14.43.34808\include\xstring

; 434  :         return _Myres > _Small_string_capacity;

  0014d	83 f9 0f	 cmp	 ecx, 15			; 0000000fH

; 3047 :         if (_My_data._Large_mode_engaged()) {

  00150	76 28		 jbe	 SHORT $LN235@stl_static
; File D:\Program Files\Microsoft Visual Studio\2022\Community\VC\Tools\MSVC\14.43.34808\include\xmemory

; 981  :         _STD _Deallocate<_New_alignof<_Ty>>(_Ptr, sizeof(_Ty) * _Count);

  00152	8b 55 d8	 mov	 edx, DWORD PTR _str$[ebp]
; File D:\Program Files\Microsoft Visual Studio\2022\Community\VC\Tools\MSVC\14.43.34808\include\xstring

; 828  :         _Al.deallocate(_Old_ptr, _Capacity + 1); // +1 for null terminator

  00155	41		 inc	 ecx
; File D:\Program Files\Microsoft Visual Studio\2022\Community\VC\Tools\MSVC\14.43.34808\include\xmemory

; 981  :         _STD _Deallocate<_New_alignof<_Ty>>(_Ptr, sizeof(_Ty) * _Count);

  00156	8b c2		 mov	 eax, edx

; 284  :         if (_Bytes >= _Big_allocation_threshold) {

  00158	81 f9 00 10 00
	00		 cmp	 ecx, 4096		; 00001000H
  0015e	72 10		 jb	 SHORT $LN246@stl_static

; 205  :     const uintptr_t _Ptr_container   = _Ptr_user[-1];

  00160	8b 50 fc	 mov	 edx, DWORD PTR [eax-4]
  00163	83 c1 23	 add	 ecx, 35			; 00000023H
  00166	2b c2		 sub	 eax, edx

; 219  :     _STL_VERIFY(_Back_shift >= _Min_back_shift && _Back_shift <= _Non_user_size, "invalid argument");

  00168	83 c0 fc	 add	 eax, -4			; fffffffcH
  0016b	83 f8 1f	 cmp	 eax, 31			; 0000001fH
  0016e	77 37		 ja	 SHORT $LN262@stl_static
$LN246@stl_static:

; 289  :         ::operator delete(_Ptr, _Bytes);

  00170	51		 push	 ecx
  00171	52		 push	 edx
  00172	e8 00 00 00 00	 call	 ??3@YAXPAXI@Z		; operator delete
  00177	83 c4 08	 add	 esp, 8
$LN235@stl_static:
; File C:\Marty 5.5\Src-Client\Client\EterBase\Stl.cpp

; 22   : 	return s_stList.back();

  0017a	8d 46 08	 lea	 eax, DWORD PTR [esi+8]

; 23   : }

  0017d	8b 4d f4	 mov	 ecx, DWORD PTR __$EHRec$[ebp]
  00180	64 89 0d 00 00
	00 00		 mov	 DWORD PTR fs:0, ecx
  00187	59		 pop	 ecx
  00188	5f		 pop	 edi
  00189	5e		 pop	 esi
  0018a	8b 4d f0	 mov	 ecx, DWORD PTR __$ArrayPad$[ebp]
  0018d	33 cd		 xor	 ecx, ebp
  0018f	e8 00 00 00 00	 call	 @__security_check_cookie@4
  00194	8b e5		 mov	 esp, ebp
  00196	5d		 pop	 ebp
  00197	c3		 ret	 0
$LN260@stl_static:
; File D:\Program Files\Microsoft Visual Studio\2022\Community\VC\Tools\MSVC\14.43.34808\include\xstring

; 2963 :             _Xlen_string(); // result too long

  00198	e8 00 00 00 00	 call	 ?_Xlen_string@std@@YAXXZ ; std::_Xlen_string
$LN261@stl_static:
; File D:\Program Files\Microsoft Visual Studio\2022\Community\VC\Tools\MSVC\14.43.34808\include\list

; 1021 :             _Xlength_error("list too long");

  0019d	68 00 00 00 00	 push	 OFFSET ??_C@_0O@NKNMEGII@list?5too?5long@
  001a2	e8 00 00 00 00	 call	 ?_Xlength_error@std@@YAXPBD@Z ; std::_Xlength_error
$LN262@stl_static:
; File D:\Program Files\Microsoft Visual Studio\2022\Community\VC\Tools\MSVC\14.43.34808\include\xmemory

; 219  :     _STL_VERIFY(_Back_shift >= _Min_back_shift && _Back_shift <= _Non_user_size, "invalid argument");

  001a7	e8 00 00 00 00	 call	 __invalid_parameter_noinfo_noreturn
$LN255@stl_static:
  001ac	cc		 int	 3
_TEXT	ENDS
;	COMDAT text$x
text$x	SEGMENT
__unwindfunclet$?stl_static_string@@YAAAV?$basic_string@DU?$char_traits@D@std@@V?$allocator@D@2@@std@@PBD@Z$0:
  00000	8d 4d d8	 lea	 ecx, DWORD PTR _str$[ebp]
  00003	e9 00 00 00 00	 jmp	 ??1?$basic_string@DU?$char_traits@D@std@@V?$allocator@D@2@@std@@QAE@XZ ; std::basic_string<char,std::char_traits<char>,std::allocator<char> >::~basic_string<char,std::char_traits<char>,std::allocator<char> >
__unwindfunclet$?stl_static_string@@YAAAV?$basic_string@DU?$char_traits@D@std@@V?$allocator@D@2@@std@@PBD@Z$5:
  00008	8d 4d cc	 lea	 ecx, DWORD PTR __Op$2[ebp]
  0000b	e9 00 00 00 00	 jmp	 ??1?$_Alloc_construct_ptr@V?$allocator@U?$_List_node@V?$basic_string@DU?$char_traits@D@std@@V?$allocator@D@2@@std@@PAX@std@@@std@@@std@@QAE@XZ ; std::_Alloc_construct_ptr<std::allocator<std::_List_node<std::basic_string<char,std::char_traits<char>,std::allocator<char> >,void *> > >::~_Alloc_construct_ptr<std::allocator<std::_List_node<std::basic_string<char,std::char_traits<char>,std::allocator<char> >,void *> > >
  00010	cc		 int	 3
  00011	cc		 int	 3
  00012	cc		 int	 3
  00013	cc		 int	 3
  00014	cc		 int	 3
__ehhandler$?stl_static_string@@YAAAV?$basic_string@DU?$char_traits@D@std@@V?$allocator@D@2@@std@@PBD@Z:
  00015	90		 npad	 1
  00016	90		 npad	 1
  00017	8b 54 24 08	 mov	 edx, DWORD PTR [esp+8]
  0001b	8d 42 0c	 lea	 eax, DWORD PTR [edx+12]
  0001e	8b 4a cc	 mov	 ecx, DWORD PTR [edx-52]
  00021	33 c8		 xor	 ecx, eax
  00023	e8 00 00 00 00	 call	 @__security_check_cookie@4
  00028	8b 4a fc	 mov	 ecx, DWORD PTR [edx-4]
  0002b	33 c8		 xor	 ecx, eax
  0002d	e8 00 00 00 00	 call	 @__security_check_cookie@4
  00032	b8 00 00 00 00	 mov	 eax, OFFSET __ehfuncinfo$?stl_static_string@@YAAAV?$basic_string@DU?$char_traits@D@std@@V?$allocator@D@2@@std@@PBD@Z
  00037	e9 00 00 00 00	 jmp	 ___CxxFrameHandler3
text$x	ENDS
?stl_static_string@@YAAAV?$basic_string@DU?$char_traits@D@std@@V?$allocator@D@2@@std@@PBD@Z ENDP ; stl_static_string
; Function compile flags: /Ogtp
; File C:\Marty 5.5\Src-Client\Client\EterBase\Stl.cpp
;	COMDAT ?korean_tolower@@YADD@Z
_TEXT	SEGMENT
_c$ = 8							; size = 1
?korean_tolower@@YADD@Z PROC				; korean_tolower, COMDAT

; 7    : {

  00000	55		 push	 ebp
  00001	8b ec		 mov	 ebp, esp
  00003	8a 4d 08	 mov	 cl, BYTE PTR _c$[ebp]

; 8    : 	char ret = c;
; 9    : 	if (c >= 'A' && c <= 'Z')

  00006	8d 51 bf	 lea	 edx, DWORD PTR [ecx-65]

; 10   : 		ret = c - 'A' + 'a';
; 11   : 
; 12   : 	assert(ret == tolower(c));
; 13   : 	return ret;

  00009	8d 41 20	 lea	 eax, DWORD PTR [ecx+32]
  0000c	80 fa 19	 cmp	 dl, 25			; 00000019H
  0000f	0f b6 c0	 movzx	 eax, al
  00012	0f b6 c9	 movzx	 ecx, cl
  00015	0f 47 c1	 cmova	 eax, ecx

; 14   : }

  00018	5d		 pop	 ebp
  00019	c3		 ret	 0
?korean_tolower@@YADD@Z ENDP				; korean_tolower
_TEXT	ENDS
; Function compile flags: /Ogtp
; File D:\Program Files\Microsoft Visual Studio\2022\Community\VC\Tools\MSVC\14.43.34808\include\xmemory
;	COMDAT ??$_Allocate_manually_vector_aligned@U_Default_allocate_traits@std@@@std@@YAPAXI@Z
_TEXT	SEGMENT
__Bytes$ = 8						; size = 4
??$_Allocate_manually_vector_aligned@U_Default_allocate_traits@std@@@std@@YAPAXI@Z PROC ; std::_Allocate_manually_vector_aligned<std::_Default_allocate_traits>, COMDAT

; 182  : __declspec(allocator) void* _Allocate_manually_vector_aligned(const size_t _Bytes) {

  00000	55		 push	 ebp
  00001	8b ec		 mov	 ebp, esp

; 183  :     // allocate _Bytes manually aligned to at least _Big_allocation_alignment
; 184  :     const size_t _Block_size = _Non_user_size + _Bytes;

  00003	8b 45 08	 mov	 eax, DWORD PTR __Bytes$[ebp]
  00006	8d 48 23	 lea	 ecx, DWORD PTR [eax+35]

; 185  :     if (_Block_size <= _Bytes) {

  00009	3b c8		 cmp	 ecx, eax
  0000b	0f 86 00 00 00
	00		 jbe	 ?_Throw_bad_array_new_length@std@@YAXXZ ; std::_Throw_bad_array_new_length

; 136  :         return ::operator new(_Bytes);

  00011	51		 push	 ecx
  00012	e8 00 00 00 00	 call	 ??2@YAPAXI@Z		; operator new

; 186  :         _Throw_bad_array_new_length(); // add overflow
; 187  :     }
; 188  : 
; 189  :     const uintptr_t _Ptr_container = reinterpret_cast<uintptr_t>(_Traits::_Allocate(_Block_size));

  00017	8b c8		 mov	 ecx, eax

; 136  :         return ::operator new(_Bytes);

  00019	83 c4 04	 add	 esp, 4

; 190  :     _STL_VERIFY(_Ptr_container != 0, "invalid argument"); // validate even in release since we're doing p[-1]

  0001c	85 c9		 test	 ecx, ecx
  0001e	74 0b		 je	 SHORT $LN7@Allocate_m

; 191  :     void* const _Ptr = reinterpret_cast<void*>((_Ptr_container + _Non_user_size) & ~(_Big_allocation_alignment - 1));

  00020	8d 41 23	 lea	 eax, DWORD PTR [ecx+35]
  00023	83 e0 e0	 and	 eax, -32		; ffffffe0H

; 192  :     static_cast<uintptr_t*>(_Ptr)[-1] = _Ptr_container;

  00026	89 48 fc	 mov	 DWORD PTR [eax-4], ecx

; 193  : 
; 194  : #ifdef _DEBUG
; 195  :     static_cast<uintptr_t*>(_Ptr)[-2] = _Big_allocation_sentinel;
; 196  : #endif // defined(_DEBUG)
; 197  :     return _Ptr;
; 198  : }

  00029	5d		 pop	 ebp
  0002a	c3		 ret	 0
$LN7@Allocate_m:

; 190  :     _STL_VERIFY(_Ptr_container != 0, "invalid argument"); // validate even in release since we're doing p[-1]

  0002b	e9 00 00 00 00	 jmp	 __invalid_parameter_noinfo_noreturn
??$_Allocate_manually_vector_aligned@U_Default_allocate_traits@std@@@std@@YAPAXI@Z ENDP ; std::_Allocate_manually_vector_aligned<std::_Default_allocate_traits>
_TEXT	ENDS
; Function compile flags: /Ogtp
; File D:\Program Files\Microsoft Visual Studio\2022\Community\VC\Tools\MSVC\14.43.34808\include\xutility
;	COMDAT ??$_Search_vectorized@$$CBD$$CBD@std@@YAPBDQBD00I@Z
_TEXT	SEGMENT
__First1$ = 8						; size = 4
__Last1$ = 12						; size = 4
__First2$ = 16						; size = 4
__Count2$ = 20						; size = 4
??$_Search_vectorized@$$CBD$$CBD@std@@YAPBDQBD00I@Z PROC ; std::_Search_vectorized<char const ,char const >, COMDAT

; 277  : _Ty1* _Search_vectorized(_Ty1* const _First1, _Ty1* const _Last1, _Ty2* const _First2, const size_t _Count2) noexcept {

  00000	55		 push	 ebp
  00001	8b ec		 mov	 ebp, esp

; 278  :     _STL_INTERNAL_STATIC_ASSERT(sizeof(_Ty1) == sizeof(_Ty2));
; 279  :     if constexpr (sizeof(_Ty1) == 1) {
; 280  :         return const_cast<_Ty1*>(static_cast<const _Ty1*>(::__std_search_1(_First1, _Last1, _First2, _Count2)));

  00003	ff 75 14	 push	 DWORD PTR __Count2$[ebp]
  00006	ff 75 10	 push	 DWORD PTR __First2$[ebp]
  00009	ff 75 0c	 push	 DWORD PTR __Last1$[ebp]
  0000c	ff 75 08	 push	 DWORD PTR __First1$[ebp]
  0000f	e8 00 00 00 00	 call	 ___std_search_1@16

; 281  :     } else if constexpr (sizeof(_Ty1) == 2) {
; 282  :         return const_cast<_Ty1*>(static_cast<const _Ty1*>(::__std_search_2(_First1, _Last1, _First2, _Count2)));
; 283  :     } else {
; 284  :         _STL_INTERNAL_STATIC_ASSERT(false); // unexpected size
; 285  :     }
; 286  : }

  00014	5d		 pop	 ebp
  00015	c3		 ret	 0
??$_Search_vectorized@$$CBD$$CBD@std@@YAPBDQBD00I@Z ENDP ; std::_Search_vectorized<char const ,char const >
_TEXT	ENDS
; Function compile flags: /Ogtp
; File D:\Program Files\Microsoft Visual Studio\2022\Community\VC\Tools\MSVC\14.43.34808\include\xstring
; File D:\Program Files\Microsoft Visual Studio\2022\Community\VC\Tools\MSVC\14.43.34808\include\__msvc_string_view.hpp
; File D:\Program Files\Microsoft Visual Studio\2022\Community\VC\Tools\MSVC\14.43.34808\include\xstring
; File D:\Program Files\Microsoft Visual Studio\2022\Community\VC\Tools\MSVC\14.43.34808\include\__msvc_string_view.hpp
; File D:\Program Files\Microsoft Visual Studio\2022\Community\VC\Tools\MSVC\14.43.34808\include\xstring
; File D:\Program Files\Microsoft Visual Studio\2022\Community\VC\Tools\MSVC\14.43.34808\include\__msvc_string_view.hpp
; File D:\Program Files\Microsoft Visual Studio\2022\Community\VC\Tools\MSVC\14.43.34808\include\xstring
; File D:\Program Files\Microsoft Visual Studio\2022\Community\VC\Tools\MSVC\14.43.34808\include\xmemory
; File D:\Program Files\Microsoft Visual Studio\2022\Community\VC\Tools\MSVC\14.43.34808\include\xstring
; File D:\Program Files\Microsoft Visual Studio\2022\Community\VC\Tools\MSVC\14.43.34808\include\xmemory
; File D:\Program Files\Microsoft Visual Studio\2022\Community\VC\Tools\MSVC\14.43.34808\include\xstring
; File D:\Program Files\Microsoft Visual Studio\2022\Community\VC\Tools\MSVC\14.43.34808\include\__msvc_string_view.hpp
; File D:\Program Files\Microsoft Visual Studio\2022\Community\VC\Tools\MSVC\14.43.34808\include\xstring
; File D:\Program Files\Microsoft Visual Studio\2022\Community\VC\Tools\MSVC\14.43.34808\include\__msvc_string_view.hpp
; File D:\Program Files\Microsoft Visual Studio\2022\Community\VC\Tools\MSVC\14.43.34808\include\xstring
; File D:\Program Files\Microsoft Visual Studio\2022\Community\VC\Tools\MSVC\14.43.34808\include\__msvc_string_view.hpp
; File D:\Program Files\Microsoft Visual Studio\2022\Community\VC\Tools\MSVC\14.43.34808\include\xstring
; File D:\Program Files\Microsoft Visual Studio\2022\Community\VC\Tools\MSVC\14.43.34808\include\__msvc_string_view.hpp
; File D:\Program Files\Microsoft Visual Studio\2022\Community\VC\Tools\MSVC\14.43.34808\include\xstring
;	COMDAT ??$_Construct@$00PBD@?$basic_string@DU?$char_traits@D@std@@V?$allocator@D@2@@std@@AAEXQBDI@Z
_TEXT	SEGMENT
__Arg$ = 8						; size = 4
__Count$ = 12						; size = 4
$T1 = 12						; size = 4
??$_Construct@$00PBD@?$basic_string@DU?$char_traits@D@std@@V?$allocator@D@2@@std@@AAEXQBDI@Z PROC ; std::basic_string<char,std::char_traits<char>,std::allocator<char> >::_Construct<1,char const *>, COMDAT
; _this$ = ecx

; 847  :     _CONSTEXPR20 void _Construct(const _Char_or_ptr _Arg, _CRT_GUARDOVERFLOW const size_type _Count) {

  00000	55		 push	 ebp
  00001	8b ec		 mov	 ebp, esp
  00003	53		 push	 ebx
  00004	56		 push	 esi

; 848  :         auto& _My_data = _Mypair._Myval2;
; 849  :         _STL_INTERNAL_CHECK(!_My_data._Large_mode_engaged());
; 850  : 
; 851  :         if constexpr (_Strat == _Construct_strategy::_From_char) {
; 852  :             _STL_INTERNAL_STATIC_ASSERT(is_same_v<_Char_or_ptr, _Elem>);
; 853  :         } else {
; 854  :             _STL_INTERNAL_STATIC_ASSERT(_Is_elem_cptr<_Char_or_ptr>::value);
; 855  :         }
; 856  : 
; 857  :         if (_Count > max_size()) {

  00005	8b 75 0c	 mov	 esi, DWORD PTR __Count$[ebp]
  00008	8b d9		 mov	 ebx, ecx
  0000a	81 fe ff ff ff
	7f		 cmp	 esi, 2147483647		; 7fffffffH
  00010	0f 87 95 00 00
	00		 ja	 $LN40@Construct

; 859  :         }
; 860  : 
; 861  :         auto& _Al       = _Getal();
; 862  :         auto&& _Alproxy = _GET_PROXY_ALLOCATOR(_Alty, _Al);
; 863  :         _Container_proxy_ptr<_Alty> _Proxy(_Alproxy, _My_data);
; 864  : 
; 865  :         if (_Count <= _Small_string_capacity) {

  00016	83 fe 0f	 cmp	 esi, 15			; 0000000fH
  00019	77 21		 ja	 SHORT $LN3@Construct
; File D:\Program Files\Microsoft Visual Studio\2022\Community\VC\Tools\MSVC\14.43.34808\include\__msvc_string_view.hpp

; 95   :         _CSTD memcpy(_First1, _First2, _Count * sizeof(_Elem));

  0001b	56		 push	 esi
  0001c	ff 75 08	 push	 DWORD PTR __Arg$[ebp]
; File D:\Program Files\Microsoft Visual Studio\2022\Community\VC\Tools\MSVC\14.43.34808\include\xstring

; 866  :             _My_data._Mysize = _Count;

  0001f	89 73 10	 mov	 DWORD PTR [ebx+16], esi
; File D:\Program Files\Microsoft Visual Studio\2022\Community\VC\Tools\MSVC\14.43.34808\include\__msvc_string_view.hpp

; 95   :         _CSTD memcpy(_First1, _First2, _Count * sizeof(_Elem));

  00022	53		 push	 ebx
; File D:\Program Files\Microsoft Visual Studio\2022\Community\VC\Tools\MSVC\14.43.34808\include\xstring

; 867  :             _My_data._Myres  = _Small_string_capacity;

  00023	c7 43 14 0f 00
	00 00		 mov	 DWORD PTR [ebx+20], 15	; 0000000fH
; File D:\Program Files\Microsoft Visual Studio\2022\Community\VC\Tools\MSVC\14.43.34808\include\__msvc_string_view.hpp

; 95   :         _CSTD memcpy(_First1, _First2, _Count * sizeof(_Elem));

  0002a	e8 00 00 00 00	 call	 _memcpy
  0002f	83 c4 0c	 add	 esp, 12			; 0000000cH
; File D:\Program Files\Microsoft Visual Studio\2022\Community\VC\Tools\MSVC\14.43.34808\include\xstring

; 874  :                 _Traits::assign(_My_data._Bx._Buf[_Count], _Elem());

  00032	c6 04 1e 00	 mov	 BYTE PTR [esi+ebx], 0
  00036	5e		 pop	 esi

; 899  :         } else { // _Strat == _Construct_strategy::_From_string
; 900  :             _Traits::copy(_Unfancy(_New_ptr), _Arg, _Count + 1);
; 901  :         }
; 902  : 
; 903  :         _ASAN_STRING_CREATE(*this);
; 904  :         _Proxy._Release();
; 905  :     }

  00037	5b		 pop	 ebx
  00038	5d		 pop	 ebp
  00039	c2 08 00	 ret	 8
$LN3@Construct:
  0003c	57		 push	 edi

; 2942 :         const size_type _Masked = _Requested | _Alloc_mask;

  0003d	8b fe		 mov	 edi, esi
  0003f	83 cf 0f	 or	 edi, 15			; 0000000fH
  00042	81 ff ff ff ff
	7f		 cmp	 edi, 2147483647		; 7fffffffH

; 2943 :         if (_Masked > _Max) { // the mask overflows, settle for max_size()

  00048	76 12		 jbe	 SHORT $LN9@Construct

; 2944 :             return _Max;

  0004a	b8 00 00 00 80	 mov	 eax, -2147483648	; 80000000H
  0004f	bf ff ff ff 7f	 mov	 edi, 2147483647		; 7fffffffH
; File D:\Program Files\Microsoft Visual Studio\2022\Community\VC\Tools\MSVC\14.43.34808\include\xmemory

; 253  :             return _Allocate_manually_vector_aligned<_Traits>(_Bytes);

  00054	50		 push	 eax
  00055	e8 00 00 00 00	 call	 ??$_Allocate_manually_vector_aligned@U_Default_allocate_traits@std@@@std@@YAPAXI@Z ; std::_Allocate_manually_vector_aligned<std::_Default_allocate_traits>
  0005a	eb 26		 jmp	 SHORT $LN38@Construct
$LN9@Construct:
; File D:\Program Files\Microsoft Visual Studio\2022\Community\VC\Tools\MSVC\14.43.34808\include\xstring

; 2951 :         return (_STD max)(_Masked, _Old + _Old / 2);

  0005c	b8 16 00 00 00	 mov	 eax, 22			; 00000016H
  00061	3b f8		 cmp	 edi, eax
  00063	0f 42 f8	 cmovb	 edi, eax

; 801  :         ++_Capacity; // Take null terminator into consideration

  00066	8d 47 01	 lea	 eax, DWORD PTR [edi+1]
; File D:\Program Files\Microsoft Visual Studio\2022\Community\VC\Tools\MSVC\14.43.34808\include\xmemory

; 227  :     if (_Bytes == 0) {

  00069	85 c0		 test	 eax, eax
  0006b	74 18		 je	 SHORT $LN37@Construct
$LN23@Construct:

; 228  :         return nullptr;
; 229  :     }
; 230  : 
; 231  : #if _HAS_CXX20 // TRANSITION, GH-1532
; 232  :     if (_STD is_constant_evaluated()) {
; 233  :         return _Traits::_Allocate(_Bytes);
; 234  :     }
; 235  : #endif // _HAS_CXX20
; 236  : 
; 237  : #ifdef __cpp_aligned_new
; 238  :     if constexpr (_Align > __STDCPP_DEFAULT_NEW_ALIGNMENT__) {
; 239  :         size_t _Passed_align = _Align;
; 240  : #if defined(_M_IX86) || defined(_M_X64)
; 241  :         if (_Bytes >= _Big_allocation_threshold) {
; 242  :             // boost the alignment of big allocations to help autovectorization
; 243  :             _Passed_align = (_STD max)(_Align, _Big_allocation_alignment);
; 244  :         }
; 245  : #endif // defined(_M_IX86) || defined(_M_X64)
; 246  :         return _Traits::_Allocate_aligned(_Bytes, _Passed_align);
; 247  :     } else
; 248  : #endif // defined(__cpp_aligned_new)
; 249  :     {
; 250  : #if defined(_M_IX86) || defined(_M_X64)
; 251  :         if (_Bytes >= _Big_allocation_threshold) {

  0006d	3d 00 10 00 00	 cmp	 eax, 4096		; 00001000H
  00072	72 08		 jb	 SHORT $LN24@Construct

; 253  :             return _Allocate_manually_vector_aligned<_Traits>(_Bytes);

  00074	50		 push	 eax
  00075	e8 00 00 00 00	 call	 ??$_Allocate_manually_vector_aligned@U_Default_allocate_traits@std@@@std@@YAPAXI@Z ; std::_Allocate_manually_vector_aligned<std::_Default_allocate_traits>
  0007a	eb 06		 jmp	 SHORT $LN38@Construct
$LN24@Construct:

; 136  :         return ::operator new(_Bytes);

  0007c	50		 push	 eax
  0007d	e8 00 00 00 00	 call	 ??2@YAPAXI@Z		; operator new
$LN38@Construct:
; File D:\Program Files\Microsoft Visual Studio\2022\Community\VC\Tools\MSVC\14.43.34808\include\xstring

; 889  :         _Construct_in_place(_My_data._Bx._Ptr, _New_ptr);

  00082	83 c4 04	 add	 esp, 4
$LN37@Construct:
; File D:\Program Files\Microsoft Visual Studio\2022\Community\VC\Tools\MSVC\14.43.34808\include\__msvc_string_view.hpp

; 95   :         _CSTD memcpy(_First1, _First2, _Count * sizeof(_Elem));

  00085	56		 push	 esi
  00086	ff 75 08	 push	 DWORD PTR __Arg$[ebp]
; File D:\Program Files\Microsoft Visual Studio\2022\Community\VC\Tools\MSVC\14.43.34808\include\xstring

; 889  :         _Construct_in_place(_My_data._Bx._Ptr, _New_ptr);

  00089	89 45 0c	 mov	 DWORD PTR $T1[ebp], eax
; File D:\Program Files\Microsoft Visual Studio\2022\Community\VC\Tools\MSVC\14.43.34808\include\__msvc_string_view.hpp

; 95   :         _CSTD memcpy(_First1, _First2, _Count * sizeof(_Elem));

  0008c	50		 push	 eax
; File D:\Program Files\Microsoft Visual Studio\2022\Community\VC\Tools\MSVC\14.43.34808\include\xstring

; 889  :         _Construct_in_place(_My_data._Bx._Ptr, _New_ptr);

  0008d	89 03		 mov	 DWORD PTR [ebx], eax

; 890  : 
; 891  :         _My_data._Mysize = _Count;

  0008f	89 73 10	 mov	 DWORD PTR [ebx+16], esi

; 892  :         _My_data._Myres  = _New_capacity;

  00092	89 7b 14	 mov	 DWORD PTR [ebx+20], edi
; File D:\Program Files\Microsoft Visual Studio\2022\Community\VC\Tools\MSVC\14.43.34808\include\__msvc_string_view.hpp

; 95   :         _CSTD memcpy(_First1, _First2, _Count * sizeof(_Elem));

  00095	e8 00 00 00 00	 call	 _memcpy
; File D:\Program Files\Microsoft Visual Studio\2022\Community\VC\Tools\MSVC\14.43.34808\include\xstring

; 898  :             _Traits::assign(_Unfancy(_New_ptr)[_Count], _Elem());

  0009a	8b 45 0c	 mov	 eax, DWORD PTR $T1[ebp]
; File D:\Program Files\Microsoft Visual Studio\2022\Community\VC\Tools\MSVC\14.43.34808\include\__msvc_string_view.hpp

; 95   :         _CSTD memcpy(_First1, _First2, _Count * sizeof(_Elem));

  0009d	83 c4 0c	 add	 esp, 12			; 0000000cH
; File D:\Program Files\Microsoft Visual Studio\2022\Community\VC\Tools\MSVC\14.43.34808\include\xstring

; 898  :             _Traits::assign(_Unfancy(_New_ptr)[_Count], _Elem());

  000a0	5f		 pop	 edi
  000a1	c6 04 30 00	 mov	 BYTE PTR [eax+esi], 0
  000a5	5e		 pop	 esi

; 899  :         } else { // _Strat == _Construct_strategy::_From_string
; 900  :             _Traits::copy(_Unfancy(_New_ptr), _Arg, _Count + 1);
; 901  :         }
; 902  : 
; 903  :         _ASAN_STRING_CREATE(*this);
; 904  :         _Proxy._Release();
; 905  :     }

  000a6	5b		 pop	 ebx
  000a7	5d		 pop	 ebp
  000a8	c2 08 00	 ret	 8
$LN40@Construct:

; 858  :             _Xlen_string(); // result too long

  000ab	e8 00 00 00 00	 call	 ?_Xlen_string@std@@YAXXZ ; std::_Xlen_string
$LN36@Construct:
  000b0	cc		 int	 3
??$_Construct@$00PBD@?$basic_string@DU?$char_traits@D@std@@V?$allocator@D@2@@std@@AAEXQBDI@Z ENDP ; std::basic_string<char,std::char_traits<char>,std::allocator<char> >::_Construct<1,char const *>
_TEXT	ENDS
; Function compile flags: /Ogtp
; File D:\Program Files\Microsoft Visual Studio\2022\Community\VC\Tools\MSVC\14.43.34808\include\xstring
; File D:\Program Files\Microsoft Visual Studio\2022\Community\VC\Tools\MSVC\14.43.34808\include\__msvc_string_view.hpp
; File D:\Program Files\Microsoft Visual Studio\2022\Community\VC\Tools\MSVC\14.43.34808\include\xstring
; File D:\Program Files\Microsoft Visual Studio\2022\Community\VC\Tools\MSVC\14.43.34808\include\__msvc_string_view.hpp
; File D:\Program Files\Microsoft Visual Studio\2022\Community\VC\Tools\MSVC\14.43.34808\include\xstring
;	COMDAT ?find@?$basic_string@DU?$char_traits@D@std@@V?$allocator@D@2@@std@@QBEIABV12@I@Z
_TEXT	SEGMENT
__Right$ = 8						; size = 4
__Off$ = 12						; size = 4
?find@?$basic_string@DU?$char_traits@D@std@@V?$allocator@D@2@@std@@QBEIABV12@I@Z PROC ; std::basic_string<char,std::char_traits<char>,std::allocator<char> >::find, COMDAT
; _this$ = ecx

; 2569 :     _NODISCARD _CONSTEXPR20 size_type find(const basic_string& _Right, const size_type _Off = 0) const noexcept {

  00000	55		 push	 ebp
  00001	8b ec		 mov	 ebp, esp

; 2570 :         // look for _Right beginning at or after _Off
; 2571 :         return static_cast<size_type>(_Traits_find<_Traits>(_Mypair._Myval2._Myptr(), _Mypair._Myval2._Mysize, _Off,

  00003	8b 55 08	 mov	 edx, DWORD PTR __Right$[ebp]
  00006	53		 push	 ebx
  00007	56		 push	 esi
  00008	57		 push	 edi

; 434  :         return _Myres > _Small_string_capacity;

  00009	83 7a 14 0f	 cmp	 DWORD PTR [edx+20], 15	; 0000000fH

; 2569 :     _NODISCARD _CONSTEXPR20 size_type find(const basic_string& _Right, const size_type _Off = 0) const noexcept {

  0000d	8b f9		 mov	 edi, ecx

; 2570 :         // look for _Right beginning at or after _Off
; 2571 :         return static_cast<size_type>(_Traits_find<_Traits>(_Mypair._Myval2._Myptr(), _Mypair._Myval2._Mysize, _Off,

  0000f	8b 42 10	 mov	 eax, DWORD PTR [edx+16]

; 426  :         if (_Large_mode_engaged()) {

  00012	76 02		 jbe	 SHORT $LN5@find

; 427  :             _Result = _Unfancy(_Bx._Ptr);

  00014	8b 12		 mov	 edx, DWORD PTR [edx]
$LN5@find:

; 434  :         return _Myres > _Small_string_capacity;

  00016	83 7f 14 0f	 cmp	 DWORD PTR [edi+20], 15	; 0000000fH

; 2570 :         // look for _Right beginning at or after _Off
; 2571 :         return static_cast<size_type>(_Traits_find<_Traits>(_Mypair._Myval2._Myptr(), _Mypair._Myval2._Mysize, _Off,

  0001a	8b 77 10	 mov	 esi, DWORD PTR [edi+16]

; 426  :         if (_Large_mode_engaged()) {

  0001d	76 02		 jbe	 SHORT $LN12@find

; 427  :             _Result = _Unfancy(_Bx._Ptr);

  0001f	8b 3f		 mov	 edi, DWORD PTR [edi]
$LN12@find:
; File D:\Program Files\Microsoft Visual Studio\2022\Community\VC\Tools\MSVC\14.43.34808\include\__msvc_string_view.hpp

; 615  :     if (_Needle_size > _Hay_size || _Start_at > _Hay_size - _Needle_size) {

  00021	3b c6		 cmp	 eax, esi
  00023	77 36		 ja	 SHORT $LN23@find
  00025	8b 5d 0c	 mov	 ebx, DWORD PTR __Off$[ebp]
  00028	8b ce		 mov	 ecx, esi
  0002a	2b c8		 sub	 ecx, eax
  0002c	3b d9		 cmp	 ebx, ecx
  0002e	77 2b		 ja	 SHORT $LN23@find

; 616  :         // xpos cannot exist, report failure
; 617  :         // N4950 [string.view.find]/3 says:
; 618  :         // 1. _Start_at <= xpos
; 619  :         // 2. xpos + _Needle_size <= _Hay_size;
; 620  :         // therefore:
; 621  :         // 3. _Needle_size <= _Hay_size (by 2) (checked above)
; 622  :         // 4. _Start_at + _Needle_size <= _Hay_size (substitute 1 into 2)
; 623  :         // 5. _Start_at <= _Hay_size - _Needle_size (4, move _Needle_size to other side) (also checked above)
; 624  :         return static_cast<size_t>(-1);
; 625  :     }
; 626  : 
; 627  :     if (_Needle_size == 0) { // empty string always matches if xpos is possible

  00030	85 c0		 test	 eax, eax
  00032	75 09		 jne	 SHORT $LN24@find
; File D:\Program Files\Microsoft Visual Studio\2022\Community\VC\Tools\MSVC\14.43.34808\include\xstring

; 2573 :     }

  00034	5f		 pop	 edi
  00035	5e		 pop	 esi
  00036	8b c3		 mov	 eax, ebx
  00038	5b		 pop	 ebx
  00039	5d		 pop	 ebp
  0003a	c2 08 00	 ret	 8
$LN24@find:
; File D:\Program Files\Microsoft Visual Studio\2022\Community\VC\Tools\MSVC\14.43.34808\include\__msvc_string_view.hpp

; 635  :             const auto _Ptr = _STD _Search_vectorized(_Haystack + _Start_at, _End, _Needle, _Needle_size);

  0003d	50		 push	 eax
  0003e	52		 push	 edx
  0003f	03 f7		 add	 esi, edi
  00041	8d 04 1f	 lea	 eax, DWORD PTR [edi+ebx]
  00044	56		 push	 esi
  00045	50		 push	 eax
  00046	e8 00 00 00 00	 call	 ??$_Search_vectorized@$$CBD$$CBD@std@@YAPBDQBD00I@Z ; std::_Search_vectorized<char const ,char const >
  0004b	83 c4 10	 add	 esp, 16			; 00000010H

; 636  : 
; 637  :             if (_Ptr != _End) {

  0004e	3b c6		 cmp	 eax, esi
  00050	74 09		 je	 SHORT $LN23@find

; 638  :                 return static_cast<size_t>(_Ptr - _Haystack);

  00052	2b c7		 sub	 eax, edi
  00054	5f		 pop	 edi
; File D:\Program Files\Microsoft Visual Studio\2022\Community\VC\Tools\MSVC\14.43.34808\include\xstring

; 2573 :     }

  00055	5e		 pop	 esi
  00056	5b		 pop	 ebx
  00057	5d		 pop	 ebp
  00058	c2 08 00	 ret	 8
$LN23@find:
  0005b	5f		 pop	 edi
  0005c	5e		 pop	 esi
  0005d	83 c8 ff	 or	 eax, -1
  00060	5b		 pop	 ebx
  00061	5d		 pop	 ebp
  00062	c2 08 00	 ret	 8
?find@?$basic_string@DU?$char_traits@D@std@@V?$allocator@D@2@@std@@QBEIABV12@I@Z ENDP ; std::basic_string<char,std::char_traits<char>,std::allocator<char> >::find
_TEXT	ENDS
; Function compile flags: /Ogtp
; File D:\Program Files\Microsoft Visual Studio\2022\Community\VC\Tools\MSVC\14.43.34808\include\xstring
; File D:\Program Files\Microsoft Visual Studio\2022\Community\VC\Tools\MSVC\14.43.34808\include\xmemory
; File D:\Program Files\Microsoft Visual Studio\2022\Community\VC\Tools\MSVC\14.43.34808\include\xstring
; File D:\Program Files\Microsoft Visual Studio\2022\Community\VC\Tools\MSVC\14.43.34808\include\xmemory
; File D:\Program Files\Microsoft Visual Studio\2022\Community\VC\Tools\MSVC\14.43.34808\include\xstring
; File D:\Program Files\Microsoft Visual Studio\2022\Community\VC\Tools\MSVC\14.43.34808\include\xmemory
; File D:\Program Files\Microsoft Visual Studio\2022\Community\VC\Tools\MSVC\14.43.34808\include\xstring
;	COMDAT ??1?$basic_string@DU?$char_traits@D@std@@V?$allocator@D@2@@std@@QAE@XZ
_TEXT	SEGMENT
??1?$basic_string@DU?$char_traits@D@std@@V?$allocator@D@2@@std@@QAE@XZ PROC ; std::basic_string<char,std::char_traits<char>,std::allocator<char> >::~basic_string<char,std::char_traits<char>,std::allocator<char> >, COMDAT
; _this$ = ecx

; 1358 :     _CONSTEXPR20 ~basic_string() noexcept {

  00000	56		 push	 esi
  00001	8b f1		 mov	 esi, ecx

; 434  :         return _Myres > _Small_string_capacity;

  00003	8b 4e 14	 mov	 ecx, DWORD PTR [esi+20]
  00006	83 f9 0f	 cmp	 ecx, 15			; 0000000fH

; 3047 :         if (_My_data._Large_mode_engaged()) {

  00009	76 27		 jbe	 SHORT $LN19@basic_stri
; File D:\Program Files\Microsoft Visual Studio\2022\Community\VC\Tools\MSVC\14.43.34808\include\xmemory

; 981  :         _STD _Deallocate<_New_alignof<_Ty>>(_Ptr, sizeof(_Ty) * _Count);

  0000b	8b 06		 mov	 eax, DWORD PTR [esi]
; File D:\Program Files\Microsoft Visual Studio\2022\Community\VC\Tools\MSVC\14.43.34808\include\xstring

; 828  :         _Al.deallocate(_Old_ptr, _Capacity + 1); // +1 for null terminator

  0000d	41		 inc	 ecx
; File D:\Program Files\Microsoft Visual Studio\2022\Community\VC\Tools\MSVC\14.43.34808\include\xmemory

; 284  :         if (_Bytes >= _Big_allocation_threshold) {

  0000e	81 f9 00 10 00
	00		 cmp	 ecx, 4096		; 00001000H
  00014	72 12		 jb	 SHORT $LN30@basic_stri

; 205  :     const uintptr_t _Ptr_container   = _Ptr_user[-1];

  00016	8b 50 fc	 mov	 edx, DWORD PTR [eax-4]
  00019	83 c1 23	 add	 ecx, 35			; 00000023H

; 206  : 
; 207  :     // If the following asserts, it likely means that we are performing
; 208  :     // an aligned delete on memory coming from an unaligned allocation.
; 209  :     _STL_ASSERT(_Ptr_user[-2] == _Big_allocation_sentinel, "invalid argument");
; 210  : 
; 211  :     // Extra paranoia on aligned allocation/deallocation; ensure _Ptr_container is
; 212  :     // in range [_Min_back_shift, _Non_user_size]
; 213  : #ifdef _DEBUG
; 214  :     constexpr uintptr_t _Min_back_shift = 2 * sizeof(void*);
; 215  : #else // ^^^ defined(_DEBUG) / !defined(_DEBUG) vvv
; 216  :     constexpr uintptr_t _Min_back_shift = sizeof(void*);
; 217  : #endif // ^^^ !defined(_DEBUG) ^^^
; 218  :     const uintptr_t _Back_shift = reinterpret_cast<uintptr_t>(_Ptr) - _Ptr_container;

  0001c	2b c2		 sub	 eax, edx

; 219  :     _STL_VERIFY(_Back_shift >= _Min_back_shift && _Back_shift <= _Non_user_size, "invalid argument");

  0001e	83 c0 fc	 add	 eax, -4			; fffffffcH
  00021	83 f8 1f	 cmp	 eax, 31			; 0000001fH
  00024	77 1f		 ja	 SHORT $LN27@basic_stri

; 220  :     _Ptr = reinterpret_cast<void*>(_Ptr_container);

  00026	8b c2		 mov	 eax, edx
$LN30@basic_stri:

; 289  :         ::operator delete(_Ptr, _Bytes);

  00028	51		 push	 ecx
  00029	50		 push	 eax
  0002a	e8 00 00 00 00	 call	 ??3@YAXPAXI@Z		; operator delete
  0002f	83 c4 08	 add	 esp, 8
$LN19@basic_stri:
; File D:\Program Files\Microsoft Visual Studio\2022\Community\VC\Tools\MSVC\14.43.34808\include\xstring

; 3054 :         _My_data._Mysize = 0;

  00032	c7 46 10 00 00
	00 00		 mov	 DWORD PTR [esi+16], 0

; 3055 :         _My_data._Myres  = _Small_string_capacity;

  00039	c7 46 14 0f 00
	00 00		 mov	 DWORD PTR [esi+20], 15	; 0000000fH

; 3056 :         // the _Traits::assign is last so the codegen doesn't think the char write can alias this
; 3057 :         _Traits::assign(_My_data._Bx._Buf[0], _Elem());

  00040	c6 06 00	 mov	 BYTE PTR [esi], 0
  00043	5e		 pop	 esi

; 1366 :     }

  00044	c3		 ret	 0
$LN27@basic_stri:
; File D:\Program Files\Microsoft Visual Studio\2022\Community\VC\Tools\MSVC\14.43.34808\include\xmemory

; 219  :     _STL_VERIFY(_Back_shift >= _Min_back_shift && _Back_shift <= _Non_user_size, "invalid argument");

  00045	e8 00 00 00 00	 call	 __invalid_parameter_noinfo_noreturn
$LN39@basic_stri:
  0004a	cc		 int	 3
??1?$basic_string@DU?$char_traits@D@std@@V?$allocator@D@2@@std@@QAE@XZ ENDP ; std::basic_string<char,std::char_traits<char>,std::allocator<char> >::~basic_string<char,std::char_traits<char>,std::allocator<char> >
_TEXT	ENDS
; Function compile flags: /Ogtp
; File D:\Program Files\Microsoft Visual Studio\2022\Community\VC\Tools\MSVC\14.43.34808\include\xstring
; File D:\Program Files\Microsoft Visual Studio\2022\Community\VC\Tools\MSVC\14.43.34808\include\__msvc_string_view.hpp
; File D:\Program Files\Microsoft Visual Studio\2022\Community\VC\Tools\MSVC\14.43.34808\include\xstring
; File D:\Program Files\Microsoft Visual Studio\2022\Community\VC\Tools\MSVC\14.43.34808\include\__msvc_string_view.hpp
; File D:\Program Files\Microsoft Visual Studio\2022\Community\VC\Tools\MSVC\14.43.34808\include\xstring
; File D:\Program Files\Microsoft Visual Studio\2022\Community\VC\Tools\MSVC\14.43.34808\include\xmemory
; File D:\Program Files\Microsoft Visual Studio\2022\Community\VC\Tools\MSVC\14.43.34808\include\xstring
; File D:\Program Files\Microsoft Visual Studio\2022\Community\VC\Tools\MSVC\14.43.34808\include\xmemory
; File D:\Program Files\Microsoft Visual Studio\2022\Community\VC\Tools\MSVC\14.43.34808\include\xstring
; File D:\Program Files\Microsoft Visual Studio\2022\Community\VC\Tools\MSVC\14.43.34808\include\__msvc_string_view.hpp
; File D:\Program Files\Microsoft Visual Studio\2022\Community\VC\Tools\MSVC\14.43.34808\include\xstring
; File D:\Program Files\Microsoft Visual Studio\2022\Community\VC\Tools\MSVC\14.43.34808\include\__msvc_string_view.hpp
; File D:\Program Files\Microsoft Visual Studio\2022\Community\VC\Tools\MSVC\14.43.34808\include\xstring
; File D:\Program Files\Microsoft Visual Studio\2022\Community\VC\Tools\MSVC\14.43.34808\include\__msvc_string_view.hpp
; File D:\Program Files\Microsoft Visual Studio\2022\Community\VC\Tools\MSVC\14.43.34808\include\xstring
; File D:\Program Files\Microsoft Visual Studio\2022\Community\VC\Tools\MSVC\14.43.34808\include\__msvc_string_view.hpp
; File D:\Program Files\Microsoft Visual Studio\2022\Community\VC\Tools\MSVC\14.43.34808\include\xstring
;	COMDAT ??0?$basic_string@DU?$char_traits@D@std@@V?$allocator@D@2@@std@@QAE@ABV01@@Z
_TEXT	SEGMENT
__Right$ = 8						; size = 4
??0?$basic_string@DU?$char_traits@D@std@@V?$allocator@D@2@@std@@QAE@ABV01@@Z PROC ; std::basic_string<char,std::char_traits<char>,std::allocator<char> >::basic_string<char,std::char_traits<char>,std::allocator<char> >, COMDAT
; _this$ = ecx

; 693  :         : _Mypair(_One_then_variadic_args_t{}, _Alty_traits::select_on_container_copy_construction(_Right._Getal())) {

  00000	55		 push	 ebp
  00001	8b ec		 mov	 ebp, esp

; 694  :         _Construct<_Construct_strategy::_From_string>(_Right._Mypair._Myval2._Myptr(), _Right._Mypair._Myval2._Mysize);

  00003	8b 45 08	 mov	 eax, DWORD PTR __Right$[ebp]
  00006	0f 57 c0	 xorps	 xmm0, xmm0
  00009	53		 push	 ebx
  0000a	57		 push	 edi
  0000b	8b f9		 mov	 edi, ecx

; 474  :         _CONSTEXPR20 _Bxty() noexcept : _Buf() {} // user-provided, for fancy pointers

  0000d	0f 11 07	 movups	 XMMWORD PTR [edi], xmm0

; 498  :     size_type _Mysize = 0; // current length of string (size)

  00010	c7 47 10 00 00
	00 00		 mov	 DWORD PTR [edi+16], 0

; 499  :     size_type _Myres  = 0; // current storage reserved for string (capacity)

  00017	c7 47 14 00 00
	00 00		 mov	 DWORD PTR [edi+20], 0

; 434  :         return _Myres > _Small_string_capacity;

  0001e	83 78 14 0f	 cmp	 DWORD PTR [eax+20], 15	; 0000000fH

; 694  :         _Construct<_Construct_strategy::_From_string>(_Right._Mypair._Myval2._Myptr(), _Right._Mypair._Myval2._Mysize);

  00022	8b 58 10	 mov	 ebx, DWORD PTR [eax+16]

; 426  :         if (_Large_mode_engaged()) {

  00025	76 05		 jbe	 SHORT $LN17@basic_stri

; 427  :             _Result = _Unfancy(_Bx._Ptr);

  00027	8b 00		 mov	 eax, DWORD PTR [eax]
  00029	89 45 08	 mov	 DWORD PTR __Right$[ebp], eax
$LN17@basic_stri:

; 857  :         if (_Count > max_size()) {

  0002c	81 fb ff ff ff
	7f		 cmp	 ebx, 2147483647		; 7fffffffH
  00032	0f 87 8d 00 00
	00		 ja	 $LN63@basic_stri

; 859  :         }
; 860  : 
; 861  :         auto& _Al       = _Getal();
; 862  :         auto&& _Alproxy = _GET_PROXY_ALLOCATOR(_Alty, _Al);
; 863  :         _Container_proxy_ptr<_Alty> _Proxy(_Alproxy, _My_data);
; 864  : 
; 865  :         if (_Count <= _Small_string_capacity) {

  00038	83 fb 0f	 cmp	 ebx, 15			; 0000000fH
  0003b	77 18		 ja	 SHORT $LN25@basic_stri

; 866  :             _My_data._Mysize = _Count;

  0003d	89 5f 10	 mov	 DWORD PTR [edi+16], ebx

; 867  :             _My_data._Myres  = _Small_string_capacity;

  00040	c7 47 14 0f 00
	00 00		 mov	 DWORD PTR [edi+20], 15	; 0000000fH
; File D:\Program Files\Microsoft Visual Studio\2022\Community\VC\Tools\MSVC\14.43.34808\include\__msvc_string_view.hpp

; 95   :         _CSTD memcpy(_First1, _First2, _Count * sizeof(_Elem));

  00047	0f 10 00	 movups	 xmm0, XMMWORD PTR [eax]
; File D:\Program Files\Microsoft Visual Studio\2022\Community\VC\Tools\MSVC\14.43.34808\include\xstring

; 695  :     }

  0004a	8b c7		 mov	 eax, edi
; File D:\Program Files\Microsoft Visual Studio\2022\Community\VC\Tools\MSVC\14.43.34808\include\__msvc_string_view.hpp

; 95   :         _CSTD memcpy(_First1, _First2, _Count * sizeof(_Elem));

  0004c	0f 11 07	 movups	 XMMWORD PTR [edi], xmm0
; File D:\Program Files\Microsoft Visual Studio\2022\Community\VC\Tools\MSVC\14.43.34808\include\xstring

; 695  :     }

  0004f	5f		 pop	 edi
  00050	5b		 pop	 ebx
  00051	5d		 pop	 ebp
  00052	c2 04 00	 ret	 4
$LN25@basic_stri:
  00055	56		 push	 esi

; 2942 :         const size_type _Masked = _Requested | _Alloc_mask;

  00056	8b f3		 mov	 esi, ebx
  00058	83 ce 0f	 or	 esi, 15			; 0000000fH
  0005b	81 fe ff ff ff
	7f		 cmp	 esi, 2147483647		; 7fffffffH

; 2943 :         if (_Masked > _Max) { // the mask overflows, settle for max_size()

  00061	76 12		 jbe	 SHORT $LN31@basic_stri

; 2944 :             return _Max;

  00063	b8 00 00 00 80	 mov	 eax, -2147483648	; 80000000H
  00068	be ff ff ff 7f	 mov	 esi, 2147483647		; 7fffffffH
; File D:\Program Files\Microsoft Visual Studio\2022\Community\VC\Tools\MSVC\14.43.34808\include\xmemory

; 253  :             return _Allocate_manually_vector_aligned<_Traits>(_Bytes);

  0006d	50		 push	 eax
  0006e	e8 00 00 00 00	 call	 ??$_Allocate_manually_vector_aligned@U_Default_allocate_traits@std@@@std@@YAPAXI@Z ; std::_Allocate_manually_vector_aligned<std::_Default_allocate_traits>
  00073	eb 2a		 jmp	 SHORT $LN61@basic_stri
$LN31@basic_stri:
; File D:\Program Files\Microsoft Visual Studio\2022\Community\VC\Tools\MSVC\14.43.34808\include\xstring

; 2951 :         return (_STD max)(_Masked, _Old + _Old / 2);

  00075	b8 16 00 00 00	 mov	 eax, 22			; 00000016H
  0007a	3b f0		 cmp	 esi, eax
  0007c	0f 42 f0	 cmovb	 esi, eax

; 801  :         ++_Capacity; // Take null terminator into consideration

  0007f	8d 46 01	 lea	 eax, DWORD PTR [esi+1]
; File D:\Program Files\Microsoft Visual Studio\2022\Community\VC\Tools\MSVC\14.43.34808\include\xmemory

; 227  :     if (_Bytes == 0) {

  00082	85 c0		 test	 eax, eax
  00084	75 04		 jne	 SHORT $LN45@basic_stri

; 228  :         return nullptr;

  00086	33 c9		 xor	 ecx, ecx
  00088	eb 1a		 jmp	 SHORT $LN44@basic_stri
$LN45@basic_stri:

; 229  :     }
; 230  : 
; 231  : #if _HAS_CXX20 // TRANSITION, GH-1532
; 232  :     if (_STD is_constant_evaluated()) {
; 233  :         return _Traits::_Allocate(_Bytes);
; 234  :     }
; 235  : #endif // _HAS_CXX20
; 236  : 
; 237  : #ifdef __cpp_aligned_new
; 238  :     if constexpr (_Align > __STDCPP_DEFAULT_NEW_ALIGNMENT__) {
; 239  :         size_t _Passed_align = _Align;
; 240  : #if defined(_M_IX86) || defined(_M_X64)
; 241  :         if (_Bytes >= _Big_allocation_threshold) {
; 242  :             // boost the alignment of big allocations to help autovectorization
; 243  :             _Passed_align = (_STD max)(_Align, _Big_allocation_alignment);
; 244  :         }
; 245  : #endif // defined(_M_IX86) || defined(_M_X64)
; 246  :         return _Traits::_Allocate_aligned(_Bytes, _Passed_align);
; 247  :     } else
; 248  : #endif // defined(__cpp_aligned_new)
; 249  :     {
; 250  : #if defined(_M_IX86) || defined(_M_X64)
; 251  :         if (_Bytes >= _Big_allocation_threshold) {

  0008a	3d 00 10 00 00	 cmp	 eax, 4096		; 00001000H
  0008f	72 08		 jb	 SHORT $LN46@basic_stri

; 253  :             return _Allocate_manually_vector_aligned<_Traits>(_Bytes);

  00091	50		 push	 eax
  00092	e8 00 00 00 00	 call	 ??$_Allocate_manually_vector_aligned@U_Default_allocate_traits@std@@@std@@YAPAXI@Z ; std::_Allocate_manually_vector_aligned<std::_Default_allocate_traits>
  00097	eb 06		 jmp	 SHORT $LN61@basic_stri
$LN46@basic_stri:

; 136  :         return ::operator new(_Bytes);

  00099	50		 push	 eax
  0009a	e8 00 00 00 00	 call	 ??2@YAPAXI@Z		; operator new
$LN61@basic_stri:
; File D:\Program Files\Microsoft Visual Studio\2022\Community\VC\Tools\MSVC\14.43.34808\include\xstring

; 889  :         _Construct_in_place(_My_data._Bx._Ptr, _New_ptr);

  0009f	8b c8		 mov	 ecx, eax
  000a1	83 c4 04	 add	 esp, 4
$LN44@basic_stri:

; 893  :         if constexpr (_Strat == _Construct_strategy::_From_char) {
; 894  :             _Traits::assign(_Unfancy(_New_ptr), _Count, _Arg);
; 895  :             _Traits::assign(_Unfancy(_New_ptr)[_Count], _Elem());
; 896  :         } else if constexpr (_Strat == _Construct_strategy::_From_ptr) {
; 897  :             _Traits::copy(_Unfancy(_New_ptr), _Arg, _Count);
; 898  :             _Traits::assign(_Unfancy(_New_ptr)[_Count], _Elem());
; 899  :         } else { // _Strat == _Construct_strategy::_From_string
; 900  :             _Traits::copy(_Unfancy(_New_ptr), _Arg, _Count + 1);

  000a4	8d 43 01	 lea	 eax, DWORD PTR [ebx+1]
  000a7	89 0f		 mov	 DWORD PTR [edi], ecx
; File D:\Program Files\Microsoft Visual Studio\2022\Community\VC\Tools\MSVC\14.43.34808\include\__msvc_string_view.hpp

; 95   :         _CSTD memcpy(_First1, _First2, _Count * sizeof(_Elem));

  000a9	50		 push	 eax
  000aa	ff 75 08	 push	 DWORD PTR __Right$[ebp]
; File D:\Program Files\Microsoft Visual Studio\2022\Community\VC\Tools\MSVC\14.43.34808\include\xstring

; 891  :         _My_data._Mysize = _Count;

  000ad	89 5f 10	 mov	 DWORD PTR [edi+16], ebx
; File D:\Program Files\Microsoft Visual Studio\2022\Community\VC\Tools\MSVC\14.43.34808\include\__msvc_string_view.hpp

; 95   :         _CSTD memcpy(_First1, _First2, _Count * sizeof(_Elem));

  000b0	51		 push	 ecx
; File D:\Program Files\Microsoft Visual Studio\2022\Community\VC\Tools\MSVC\14.43.34808\include\xstring

; 892  :         _My_data._Myres  = _New_capacity;

  000b1	89 77 14	 mov	 DWORD PTR [edi+20], esi
; File D:\Program Files\Microsoft Visual Studio\2022\Community\VC\Tools\MSVC\14.43.34808\include\__msvc_string_view.hpp

; 95   :         _CSTD memcpy(_First1, _First2, _Count * sizeof(_Elem));

  000b4	e8 00 00 00 00	 call	 _memcpy
  000b9	83 c4 0c	 add	 esp, 12			; 0000000cH
; File D:\Program Files\Microsoft Visual Studio\2022\Community\VC\Tools\MSVC\14.43.34808\include\xstring

; 695  :     }

  000bc	8b c7		 mov	 eax, edi
; File D:\Program Files\Microsoft Visual Studio\2022\Community\VC\Tools\MSVC\14.43.34808\include\__msvc_string_view.hpp

; 95   :         _CSTD memcpy(_First1, _First2, _Count * sizeof(_Elem));

  000be	5e		 pop	 esi
; File D:\Program Files\Microsoft Visual Studio\2022\Community\VC\Tools\MSVC\14.43.34808\include\xstring

; 695  :     }

  000bf	5f		 pop	 edi
  000c0	5b		 pop	 ebx
  000c1	5d		 pop	 ebp
  000c2	c2 04 00	 ret	 4
$LN63@basic_stri:

; 858  :             _Xlen_string(); // result too long

  000c5	e8 00 00 00 00	 call	 ?_Xlen_string@std@@YAXXZ ; std::_Xlen_string
$LN60@basic_stri:
  000ca	cc		 int	 3
??0?$basic_string@DU?$char_traits@D@std@@V?$allocator@D@2@@std@@QAE@ABV01@@Z ENDP ; std::basic_string<char,std::char_traits<char>,std::allocator<char> >::basic_string<char,std::char_traits<char>,std::allocator<char> >
_TEXT	ENDS
; Function compile flags: /Ogtp
; File D:\Program Files\Microsoft Visual Studio\2022\Community\VC\Tools\MSVC\14.43.34808\include\xstring
;	COMDAT ?_Xran@?$_String_val@U?$_Simple_types@D@std@@@std@@SAXXZ
_TEXT	SEGMENT
?_Xran@?$_String_val@U?$_Simple_types@D@std@@@std@@SAXXZ PROC ; std::_String_val<std::_Simple_types<char> >::_Xran, COMDAT

; 463  :         _Xout_of_range("invalid string position");

  00000	68 00 00 00 00	 push	 OFFSET ??_C@_0BI@CFPLBAOH@invalid?5string?5position@
  00005	e8 00 00 00 00	 call	 ?_Xout_of_range@std@@YAXPBD@Z ; std::_Xout_of_range
$LN3@Xran:
  0000a	cc		 int	 3
?_Xran@?$_String_val@U?$_Simple_types@D@std@@@std@@SAXXZ ENDP ; std::_String_val<std::_Simple_types<char> >::_Xran
_TEXT	ENDS
; Function compile flags: /Ogtp
; File D:\Program Files\Microsoft Visual Studio\2022\Community\VC\Tools\MSVC\14.43.34808\include\xstring
;	COMDAT ?_Xlen_string@std@@YAXXZ
_TEXT	SEGMENT
?_Xlen_string@std@@YAXXZ PROC				; std::_Xlen_string, COMDAT

; 512  :     _Xlength_error("string too long");

  00000	68 00 00 00 00	 push	 OFFSET ??_C@_0BA@JFNIOLAK@string?5too?5long@
  00005	e8 00 00 00 00	 call	 ?_Xlength_error@std@@YAXPBD@Z ; std::_Xlength_error
$LN3@Xlen_strin:
  0000a	cc		 int	 3
?_Xlen_string@std@@YAXXZ ENDP				; std::_Xlen_string
_TEXT	ENDS
; Function compile flags: /Ogtp
; File D:\Program Files\Microsoft Visual Studio\2022\Community\VC\Tools\MSVC\14.43.34808\include\xmemory
;	COMDAT ?_Throw_bad_array_new_length@std@@YAXXZ
_TEXT	SEGMENT
$T1 = -12						; size = 12
?_Throw_bad_array_new_length@std@@YAXXZ PROC		; std::_Throw_bad_array_new_length, COMDAT

; 107  : [[noreturn]] inline void _Throw_bad_array_new_length() {

  00000	55		 push	 ebp
  00001	8b ec		 mov	 ebp, esp
  00003	83 ec 0c	 sub	 esp, 12			; 0000000cH

; 108  :     _THROW(bad_array_new_length{});

  00006	8d 4d f4	 lea	 ecx, DWORD PTR $T1[ebp]
  00009	e8 00 00 00 00	 call	 ??0bad_array_new_length@std@@QAE@XZ ; std::bad_array_new_length::bad_array_new_length
  0000e	68 00 00 00 00	 push	 OFFSET __TI3?AVbad_array_new_length@std@@
  00013	8d 45 f4	 lea	 eax, DWORD PTR $T1[ebp]
  00016	50		 push	 eax
  00017	e8 00 00 00 00	 call	 __CxxThrowException@8
$LN3@Throw_bad_:
  0001c	cc		 int	 3
?_Throw_bad_array_new_length@std@@YAXXZ ENDP		; std::_Throw_bad_array_new_length
_TEXT	ENDS
; Function compile flags: /Ogtp
; File D:\Program Files\Microsoft Visual Studio\2022\Community\VC\Tools\MSVC\14.43.34808\include\vcruntime_exception.h
;	COMDAT ??_Gbad_array_new_length@std@@UAEPAXI@Z
_TEXT	SEGMENT
___flags$ = 8						; size = 4
??_Gbad_array_new_length@std@@UAEPAXI@Z PROC		; std::bad_array_new_length::`scalar deleting destructor', COMDAT
; _this$ = ecx
  00000	55		 push	 ebp
  00001	8b ec		 mov	 ebp, esp

; 90   :     {

  00003	56		 push	 esi
  00004	8b f1		 mov	 esi, ecx

; 91   :         __std_exception_destroy(&_Data);

  00006	8d 46 04	 lea	 eax, DWORD PTR [esi+4]
  00009	c7 06 00 00 00
	00		 mov	 DWORD PTR [esi], OFFSET ??_7exception@std@@6B@
  0000f	50		 push	 eax
  00010	e8 00 00 00 00	 call	 ___std_exception_destroy
  00015	83 c4 04	 add	 esp, 4
  00018	f6 45 08 01	 test	 BYTE PTR ___flags$[ebp], 1
  0001c	74 0b		 je	 SHORT $LN18@scalar
  0001e	6a 0c		 push	 12			; 0000000cH
  00020	56		 push	 esi
  00021	e8 00 00 00 00	 call	 ??3@YAXPAXI@Z		; operator delete
  00026	83 c4 08	 add	 esp, 8
$LN18@scalar:
  00029	8b c6		 mov	 eax, esi
  0002b	5e		 pop	 esi
  0002c	5d		 pop	 ebp
  0002d	c2 04 00	 ret	 4
??_Gbad_array_new_length@std@@UAEPAXI@Z ENDP		; std::bad_array_new_length::`scalar deleting destructor'
_TEXT	ENDS
; Function compile flags: /Ogtp
; File D:\Program Files\Microsoft Visual Studio\2022\Community\VC\Tools\MSVC\14.43.34808\include\vcruntime_exception.h
;	COMDAT ??0bad_array_new_length@std@@QAE@ABV01@@Z
_TEXT	SEGMENT
___that$ = 8						; size = 4
??0bad_array_new_length@std@@QAE@ABV01@@Z PROC		; std::bad_array_new_length::bad_array_new_length, COMDAT
; _this$ = ecx
  00000	55		 push	 ebp
  00001	8b ec		 mov	 ebp, esp

; 73   :     {

  00003	56		 push	 esi
  00004	8b f1		 mov	 esi, ecx
  00006	0f 57 c0	 xorps	 xmm0, xmm0

; 72   :         : _Data()

  00009	8d 46 04	 lea	 eax, DWORD PTR [esi+4]

; 74   :         __std_exception_copy(&_Other._Data, &_Data);

  0000c	50		 push	 eax
  0000d	c7 06 00 00 00
	00		 mov	 DWORD PTR [esi], OFFSET ??_7exception@std@@6B@
  00013	66 0f d6 00	 movq	 QWORD PTR [eax], xmm0
  00017	8b 45 08	 mov	 eax, DWORD PTR ___that$[ebp]
  0001a	83 c0 04	 add	 eax, 4
  0001d	50		 push	 eax
  0001e	e8 00 00 00 00	 call	 ___std_exception_copy
  00023	83 c4 08	 add	 esp, 8
  00026	c7 06 00 00 00
	00		 mov	 DWORD PTR [esi], OFFSET ??_7bad_array_new_length@std@@6B@
  0002c	8b c6		 mov	 eax, esi
  0002e	5e		 pop	 esi
  0002f	5d		 pop	 ebp
  00030	c2 04 00	 ret	 4
??0bad_array_new_length@std@@QAE@ABV01@@Z ENDP		; std::bad_array_new_length::bad_array_new_length
_TEXT	ENDS
; Function compile flags: /Ogtp
; File D:\Program Files\Microsoft Visual Studio\2022\Community\VC\Tools\MSVC\14.43.34808\include\vcruntime_exception.h
;	COMDAT ??1bad_array_new_length@std@@UAE@XZ
_TEXT	SEGMENT
??1bad_array_new_length@std@@UAE@XZ PROC		; std::bad_array_new_length::~bad_array_new_length, COMDAT
; _this$ = ecx

; 91   :         __std_exception_destroy(&_Data);

  00000	8d 41 04	 lea	 eax, DWORD PTR [ecx+4]
  00003	c7 01 00 00 00
	00		 mov	 DWORD PTR [ecx], OFFSET ??_7exception@std@@6B@
  00009	50		 push	 eax
  0000a	e8 00 00 00 00	 call	 ___std_exception_destroy
  0000f	59		 pop	 ecx
  00010	c3		 ret	 0
??1bad_array_new_length@std@@UAE@XZ ENDP		; std::bad_array_new_length::~bad_array_new_length
_TEXT	ENDS
; Function compile flags: /Ogtp
; File D:\Program Files\Microsoft Visual Studio\2022\Community\VC\Tools\MSVC\14.43.34808\include\vcruntime_exception.h
;	COMDAT ??0bad_array_new_length@std@@QAE@XZ
_TEXT	SEGMENT
??0bad_array_new_length@std@@QAE@XZ PROC		; std::bad_array_new_length::bad_array_new_length, COMDAT
; _this$ = ecx

; 144  :     {

  00000	0f 57 c0	 xorps	 xmm0, xmm0

; 145  :     }

  00003	8b c1		 mov	 eax, ecx

; 66   :         : _Data()

  00005	66 0f d6 41 04	 movq	 QWORD PTR [ecx+4], xmm0

; 67   :     {
; 68   :         _Data._What = _Message;

  0000a	c7 41 04 00 00
	00 00		 mov	 DWORD PTR [ecx+4], OFFSET ??_C@_0BF@KINCDENJ@bad?5array?5new?5length@

; 144  :     {

  00011	c7 01 00 00 00
	00		 mov	 DWORD PTR [ecx], OFFSET ??_7bad_array_new_length@std@@6B@

; 145  :     }

  00017	c3		 ret	 0
??0bad_array_new_length@std@@QAE@XZ ENDP		; std::bad_array_new_length::bad_array_new_length
_TEXT	ENDS
; Function compile flags: /Ogtp
; File D:\Program Files\Microsoft Visual Studio\2022\Community\VC\Tools\MSVC\14.43.34808\include\vcruntime_exception.h
;	COMDAT ??_Gbad_alloc@std@@UAEPAXI@Z
_TEXT	SEGMENT
___flags$ = 8						; size = 4
??_Gbad_alloc@std@@UAEPAXI@Z PROC			; std::bad_alloc::`scalar deleting destructor', COMDAT
; _this$ = ecx
  00000	55		 push	 ebp
  00001	8b ec		 mov	 ebp, esp

; 90   :     {

  00003	56		 push	 esi
  00004	8b f1		 mov	 esi, ecx

; 91   :         __std_exception_destroy(&_Data);

  00006	8d 46 04	 lea	 eax, DWORD PTR [esi+4]
  00009	c7 06 00 00 00
	00		 mov	 DWORD PTR [esi], OFFSET ??_7exception@std@@6B@
  0000f	50		 push	 eax
  00010	e8 00 00 00 00	 call	 ___std_exception_destroy
  00015	83 c4 04	 add	 esp, 4
  00018	f6 45 08 01	 test	 BYTE PTR ___flags$[ebp], 1
  0001c	74 0b		 je	 SHORT $LN13@scalar
  0001e	6a 0c		 push	 12			; 0000000cH
  00020	56		 push	 esi
  00021	e8 00 00 00 00	 call	 ??3@YAXPAXI@Z		; operator delete
  00026	83 c4 08	 add	 esp, 8
$LN13@scalar:
  00029	8b c6		 mov	 eax, esi
  0002b	5e		 pop	 esi
  0002c	5d		 pop	 ebp
  0002d	c2 04 00	 ret	 4
??_Gbad_alloc@std@@UAEPAXI@Z ENDP			; std::bad_alloc::`scalar deleting destructor'
_TEXT	ENDS
; Function compile flags: /Ogtp
; File D:\Program Files\Microsoft Visual Studio\2022\Community\VC\Tools\MSVC\14.43.34808\include\vcruntime_exception.h
;	COMDAT ??0bad_alloc@std@@QAE@ABV01@@Z
_TEXT	SEGMENT
___that$ = 8						; size = 4
??0bad_alloc@std@@QAE@ABV01@@Z PROC			; std::bad_alloc::bad_alloc, COMDAT
; _this$ = ecx
  00000	55		 push	 ebp
  00001	8b ec		 mov	 ebp, esp

; 73   :     {

  00003	56		 push	 esi
  00004	8b f1		 mov	 esi, ecx
  00006	0f 57 c0	 xorps	 xmm0, xmm0

; 72   :         : _Data()

  00009	8d 46 04	 lea	 eax, DWORD PTR [esi+4]

; 74   :         __std_exception_copy(&_Other._Data, &_Data);

  0000c	50		 push	 eax
  0000d	c7 06 00 00 00
	00		 mov	 DWORD PTR [esi], OFFSET ??_7exception@std@@6B@
  00013	66 0f d6 00	 movq	 QWORD PTR [eax], xmm0
  00017	8b 45 08	 mov	 eax, DWORD PTR ___that$[ebp]
  0001a	83 c0 04	 add	 eax, 4
  0001d	50		 push	 eax
  0001e	e8 00 00 00 00	 call	 ___std_exception_copy
  00023	83 c4 08	 add	 esp, 8
  00026	c7 06 00 00 00
	00		 mov	 DWORD PTR [esi], OFFSET ??_7bad_alloc@std@@6B@
  0002c	8b c6		 mov	 eax, esi
  0002e	5e		 pop	 esi
  0002f	5d		 pop	 ebp
  00030	c2 04 00	 ret	 4
??0bad_alloc@std@@QAE@ABV01@@Z ENDP			; std::bad_alloc::bad_alloc
_TEXT	ENDS
; Function compile flags: /Ogtp
; File D:\Program Files\Microsoft Visual Studio\2022\Community\VC\Tools\MSVC\14.43.34808\include\vcruntime_exception.h
;	COMDAT ??_Gexception@std@@UAEPAXI@Z
_TEXT	SEGMENT
___flags$ = 8						; size = 4
??_Gexception@std@@UAEPAXI@Z PROC			; std::exception::`scalar deleting destructor', COMDAT
; _this$ = ecx
  00000	55		 push	 ebp
  00001	8b ec		 mov	 ebp, esp

; 90   :     {

  00003	56		 push	 esi
  00004	8b f1		 mov	 esi, ecx

; 91   :         __std_exception_destroy(&_Data);

  00006	8d 46 04	 lea	 eax, DWORD PTR [esi+4]
  00009	c7 06 00 00 00
	00		 mov	 DWORD PTR [esi], OFFSET ??_7exception@std@@6B@
  0000f	50		 push	 eax
  00010	e8 00 00 00 00	 call	 ___std_exception_destroy
  00015	83 c4 04	 add	 esp, 4
  00018	f6 45 08 01	 test	 BYTE PTR ___flags$[ebp], 1
  0001c	74 0b		 je	 SHORT $LN8@scalar
  0001e	6a 0c		 push	 12			; 0000000cH
  00020	56		 push	 esi
  00021	e8 00 00 00 00	 call	 ??3@YAXPAXI@Z		; operator delete
  00026	83 c4 08	 add	 esp, 8
$LN8@scalar:
  00029	8b c6		 mov	 eax, esi
  0002b	5e		 pop	 esi
  0002c	5d		 pop	 ebp
  0002d	c2 04 00	 ret	 4
??_Gexception@std@@UAEPAXI@Z ENDP			; std::exception::`scalar deleting destructor'
_TEXT	ENDS
; Function compile flags: /Ogtp
; File D:\Program Files\Microsoft Visual Studio\2022\Community\VC\Tools\MSVC\14.43.34808\include\vcruntime_exception.h
;	COMDAT ?what@exception@std@@UBEPBDXZ
_TEXT	SEGMENT
?what@exception@std@@UBEPBDXZ PROC			; std::exception::what, COMDAT
; _this$ = ecx

; 96   :         return _Data._What ? _Data._What : "Unknown exception";

  00000	8b 49 04	 mov	 ecx, DWORD PTR [ecx+4]
  00003	b8 00 00 00 00	 mov	 eax, OFFSET ??_C@_0BC@EOODALEL@Unknown?5exception@
  00008	85 c9		 test	 ecx, ecx
  0000a	0f 45 c1	 cmovne	 eax, ecx

; 97   :     }

  0000d	c3		 ret	 0
?what@exception@std@@UBEPBDXZ ENDP			; std::exception::what
_TEXT	ENDS
; Function compile flags: /Ogtp
; File D:\Program Files\Microsoft Visual Studio\2022\Community\VC\Tools\MSVC\14.43.34808\include\vcruntime_exception.h
;	COMDAT ??1exception@std@@UAE@XZ
_TEXT	SEGMENT
??1exception@std@@UAE@XZ PROC				; std::exception::~exception, COMDAT
; _this$ = ecx

; 91   :         __std_exception_destroy(&_Data);

  00000	8d 41 04	 lea	 eax, DWORD PTR [ecx+4]
  00003	c7 01 00 00 00
	00		 mov	 DWORD PTR [ecx], OFFSET ??_7exception@std@@6B@
  00009	50		 push	 eax
  0000a	e8 00 00 00 00	 call	 ___std_exception_destroy
  0000f	59		 pop	 ecx

; 92   :     }

  00010	c3		 ret	 0
??1exception@std@@UAE@XZ ENDP				; std::exception::~exception
_TEXT	ENDS
; Function compile flags: /Ogtp
; File D:\Program Files\Microsoft Visual Studio\2022\Community\VC\Tools\MSVC\14.43.34808\include\vcruntime_exception.h
;	COMDAT ??0exception@std@@QAE@ABV01@@Z
_TEXT	SEGMENT
__Other$ = 8						; size = 4
??0exception@std@@QAE@ABV01@@Z PROC			; std::exception::exception, COMDAT
; _this$ = ecx

; 73   :     {

  00000	55		 push	 ebp
  00001	8b ec		 mov	 ebp, esp
  00003	56		 push	 esi
  00004	8b f1		 mov	 esi, ecx
  00006	0f 57 c0	 xorps	 xmm0, xmm0
  00009	8d 46 04	 lea	 eax, DWORD PTR [esi+4]

; 74   :         __std_exception_copy(&_Other._Data, &_Data);

  0000c	50		 push	 eax
  0000d	c7 06 00 00 00
	00		 mov	 DWORD PTR [esi], OFFSET ??_7exception@std@@6B@
  00013	66 0f d6 00	 movq	 QWORD PTR [eax], xmm0
  00017	8b 45 08	 mov	 eax, DWORD PTR __Other$[ebp]
  0001a	83 c0 04	 add	 eax, 4
  0001d	50		 push	 eax
  0001e	e8 00 00 00 00	 call	 ___std_exception_copy
  00023	83 c4 08	 add	 esp, 8

; 75   :     }

  00026	8b c6		 mov	 eax, esi
  00028	5e		 pop	 esi
  00029	5d		 pop	 ebp
  0002a	c2 04 00	 ret	 4
??0exception@std@@QAE@ABV01@@Z ENDP			; std::exception::exception
_TEXT	ENDS
END
