; Listing generated by Microsoft (R) Optimizing Compiler Version 19.43.34808.0 

	TITLE	C:\Marty 5.5\Src-Client\Client\EterBase\Distribute\Utils.obj
	.686P
	.XMM
	include listing.inc
	.model	flat

INCLUDELIB LIBCMT
INCLUDELIB OLDNAMES

PUBLIC	___local_stdio_printf_options
PUBLIC	_fprintf
PUBLIC	_sprintf
PUBLIC	??0exception@std@@QAE@ABV01@@Z			; std::exception::exception
PUBLIC	??1exception@std@@UAE@XZ			; std::exception::~exception
PUBLIC	?what@exception@std@@UBEPBDXZ			; std::exception::what
PUBLIC	??_Gexception@std@@UAEPAXI@Z			; std::exception::`scalar deleting destructor'
PUBLIC	??0bad_alloc@std@@QAE@ABV01@@Z			; std::bad_alloc::bad_alloc
PUBLIC	??_Gbad_alloc@std@@UAEPAXI@Z			; std::bad_alloc::`scalar deleting destructor'
PUBLIC	??0bad_array_new_length@std@@QAE@XZ		; std::bad_array_new_length::bad_array_new_length
PUBLIC	??1bad_array_new_length@std@@UAE@XZ		; std::bad_array_new_length::~bad_array_new_length
PUBLIC	??0bad_array_new_length@std@@QAE@ABV01@@Z	; std::bad_array_new_length::bad_array_new_length
PUBLIC	??_Gbad_array_new_length@std@@UAEPAXI@Z		; std::bad_array_new_length::`scalar deleting destructor'
PUBLIC	?_Throw_bad_array_new_length@std@@YAXXZ		; std::_Throw_bad_array_new_length
PUBLIC	?_Xlen_string@std@@YAXXZ			; std::_Xlen_string
PUBLIC	?_Xran@?$_String_val@U?$_Simple_types@D@std@@@std@@SAXXZ ; std::_String_val<std::_Simple_types<char> >::_Xran
PUBLIC	??1?$basic_string@DU?$char_traits@D@std@@V?$allocator@D@2@@std@@QAE@XZ ; std::basic_string<char,std::char_traits<char>,std::allocator<char> >::~basic_string<char,std::char_traits<char>,std::allocator<char> >
PUBLIC	??4?$basic_string@DU?$char_traits@D@std@@V?$allocator@D@2@@std@@QAEAAV01@QBD@Z ; std::basic_string<char,std::char_traits<char>,std::allocator<char> >::operator=
PUBLIC	?append@?$basic_string@DU?$char_traits@D@std@@V?$allocator@D@2@@std@@QAEAAV12@QBDI@Z ; std::basic_string<char,std::char_traits<char>,std::allocator<char> >::append
PUBLIC	?append@?$basic_string@DU?$char_traits@D@std@@V?$allocator@D@2@@std@@QAEAAV12@ID@Z ; std::basic_string<char,std::char_traits<char>,std::allocator<char> >::append
PUBLIC	?push_back@?$basic_string@DU?$char_traits@D@std@@V?$allocator@D@2@@std@@QAEXD@Z ; std::basic_string<char,std::char_traits<char>,std::allocator<char> >::push_back
PUBLIC	?reserve@?$basic_string@DU?$char_traits@D@std@@V?$allocator@D@2@@std@@QAEXI@Z ; std::basic_string<char,std::char_traits<char>,std::allocator<char> >::reserve
PUBLIC	?_Tidy_deallocate@?$basic_string@DU?$char_traits@D@std@@V?$allocator@D@2@@std@@AAEXXZ ; std::basic_string<char,std::char_traits<char>,std::allocator<char> >::_Tidy_deallocate
PUBLIC	??$_Construct@$00PBD@?$basic_string@DU?$char_traits@D@std@@V?$allocator@D@2@@std@@AAEXQBDI@Z ; std::basic_string<char,std::char_traits<char>,std::allocator<char> >::_Construct<1,char const *>
PUBLIC	??$_Allocate_manually_vector_aligned@U_Default_allocate_traits@std@@@std@@YAPAXI@Z ; std::_Allocate_manually_vector_aligned<std::_Default_allocate_traits>
PUBLIC	?CreateTempFileName@@YAPBDPBD@Z			; CreateTempFileName
PUBLIC	?GetFilePathNameExtension@@YAXPBDHPAV?$basic_string@DU?$char_traits@D@std@@V?$allocator@D@2@@std@@11@Z ; GetFilePathNameExtension
PUBLIC	?GetFileExtension@@YAXPBDHPAV?$basic_string@DU?$char_traits@D@std@@V?$allocator@D@2@@std@@@Z ; GetFileExtension
PUBLIC	?GetFileNameParts@@YAXPBDHPAD11@Z		; GetFileNameParts
PUBLIC	?GetOldIndexingName@@YAXPADH@Z			; GetOldIndexingName
PUBLIC	?GetIndexingName@@YAXPADK@Z			; GetIndexingName
PUBLIC	?GetOnlyFileName@@YAXPBDAAV?$basic_string@DU?$char_traits@D@std@@V?$allocator@D@2@@std@@@Z ; GetOnlyFileName
PUBLIC	?GetOnlyPathName@@YAXPBDAAV?$basic_string@DU?$char_traits@D@std@@V?$allocator@D@2@@std@@@Z ; GetOnlyPathName
PUBLIC	?GetOnlyPathName@@YAPBDPBD@Z			; GetOnlyPathName
PUBLIC	?GetLocalFileName@@YA_NPBD0PAV?$basic_string@DU?$char_traits@D@std@@V?$allocator@D@2@@std@@@Z ; GetLocalFileName
PUBLIC	?GetExceptionPathName@@YAXPBDAAV?$basic_string@DU?$char_traits@D@std@@V?$allocator@D@2@@std@@@Z ; GetExceptionPathName
PUBLIC	?GetWorkingFolder@@YAXAAV?$basic_string@DU?$char_traits@D@std@@V?$allocator@D@2@@std@@@Z ; GetWorkingFolder
PUBLIC	?StringLowers@@YAXPAD@Z				; StringLowers
PUBLIC	?StringPath@@YAXAAV?$basic_string@DU?$char_traits@D@std@@V?$allocator@D@2@@std@@@Z ; StringPath
PUBLIC	?StringPath@@YAXPAD@Z				; StringPath
PUBLIC	?StringPath@@YAXPBDPAD@Z			; StringPath
PUBLIC	?StringPath@@YAXPBDAAV?$basic_string@DU?$char_traits@D@std@@V?$allocator@D@2@@std@@@Z ; StringPath
PUBLIC	?PrintAsciiData@@YAXPBXH@Z			; PrintAsciiData
PUBLIC	?IsFile@@YA_NPBD@Z				; IsFile
PUBLIC	?IsGlobalFileName@@YA_NPBD@Z			; IsGlobalFileName
PUBLIC	?MIN@@YAHHH@Z					; MIN
PUBLIC	?MAX@@YAHHH@Z					; MAX
PUBLIC	?MINMAX@@YAHHHH@Z				; MINMAX
PUBLIC	?fMIN@@YAMMM@Z					; fMIN
PUBLIC	?fMAX@@YAMMM@Z					; fMAX
PUBLIC	?fMINMAX@@YAMMMM@Z				; fMINMAX
PUBLIC	?MyCreateDirectory@@YAXPBD@Z			; MyCreateDirectory
PUBLIC	?RemoveAllDirectory@@YAXPBD@Z			; RemoveAllDirectory
PUBLIC	?SplitLine@@YA_NPBD0PAV?$vector@V?$basic_string@DU?$char_traits@D@std@@V?$allocator@D@2@@std@@V?$allocator@V?$basic_string@DU?$char_traits@D@std@@V?$allocator@D@2@@std@@@2@@std@@@Z ; SplitLine
PUBLIC	?_getf@@YAPBDPBDZZ				; _getf
PUBLIC	?CommandLineToArgv@@YAPAPADPADPAH@Z		; CommandLineToArgv
PUBLIC	?StringExceptCharacter@@YAXPAV?$basic_string@DU?$char_traits@D@std@@V?$allocator@D@2@@std@@PBD@Z ; StringExceptCharacter
PUBLIC	?GetExcutedFileName@@YAXAAV?$basic_string@DU?$char_traits@D@std@@V?$allocator@D@2@@std@@@Z ; GetExcutedFileName
PUBLIC	??1CDirRemover@@UAE@XZ				; CDirRemover::~CDirRemover
PUBLIC	?OnFolder@CDirRemover@@UAE_NPBD00@Z		; CDirRemover::OnFolder
PUBLIC	?OnFile@CDirRemover@@UAE_NPBD0@Z		; CDirRemover::OnFile
PUBLIC	??_GCDirRemover@@UAEPAXI@Z			; CDirRemover::`scalar deleting destructor'
PUBLIC	?_Xlen@?$deque@V?$basic_string@DU?$char_traits@D@std@@V?$allocator@D@2@@std@@V?$allocator@V?$basic_string@DU?$char_traits@D@std@@V?$allocator@D@2@@std@@@2@@std@@CAXXZ ; std::deque<std::basic_string<char,std::char_traits<char>,std::allocator<char> >,std::allocator<std::basic_string<char,std::char_traits<char>,std::allocator<char> > > >::_Xlen
PUBLIC	?_Growmap@?$deque@V?$basic_string@DU?$char_traits@D@std@@V?$allocator@D@2@@std@@V?$allocator@V?$basic_string@DU?$char_traits@D@std@@V?$allocator@D@2@@std@@@2@@std@@AAEXI@Z ; std::deque<std::basic_string<char,std::char_traits<char>,std::allocator<char> >,std::allocator<std::basic_string<char,std::char_traits<char>,std::allocator<char> > > >::_Growmap
PUBLIC	?_Tidy@?$deque@V?$basic_string@DU?$char_traits@D@std@@V?$allocator@D@2@@std@@V?$allocator@V?$basic_string@DU?$char_traits@D@std@@V?$allocator@D@2@@std@@@2@@std@@AAEXXZ ; std::deque<std::basic_string<char,std::char_traits<char>,std::allocator<char> >,std::allocator<std::basic_string<char,std::char_traits<char>,std::allocator<char> > > >::_Tidy
PUBLIC	?_Change_array@?$vector@V?$basic_string@DU?$char_traits@D@std@@V?$allocator@D@2@@std@@V?$allocator@V?$basic_string@DU?$char_traits@D@std@@V?$allocator@D@2@@std@@@2@@std@@AAEXQAV?$basic_string@DU?$char_traits@D@std@@V?$allocator@D@2@@2@II@Z ; std::vector<std::basic_string<char,std::char_traits<char>,std::allocator<char> >,std::allocator<std::basic_string<char,std::char_traits<char>,std::allocator<char> > > >::_Change_array
PUBLIC	?_Xlength@?$vector@V?$basic_string@DU?$char_traits@D@std@@V?$allocator@D@2@@std@@V?$allocator@V?$basic_string@DU?$char_traits@D@std@@V?$allocator@D@2@@std@@@2@@std@@CAXXZ ; std::vector<std::basic_string<char,std::char_traits<char>,std::allocator<char> >,std::allocator<std::basic_string<char,std::char_traits<char>,std::allocator<char> > > >::_Xlength
PUBLIC	??$_Destroy_range@V?$allocator@V?$basic_string@DU?$char_traits@D@std@@V?$allocator@D@2@@std@@@std@@@std@@YAXPAV?$basic_string@DU?$char_traits@D@std@@V?$allocator@D@2@@0@QAV10@AAV?$allocator@V?$basic_string@DU?$char_traits@D@std@@V?$allocator@D@2@@std@@@0@@Z ; std::_Destroy_range<std::allocator<std::basic_string<char,std::char_traits<char>,std::allocator<char> > > >
PUBLIC	??$_Emplace_back_internal@ABV?$basic_string@DU?$char_traits@D@std@@V?$allocator@D@2@@std@@@?$deque@V?$basic_string@DU?$char_traits@D@std@@V?$allocator@D@2@@std@@V?$allocator@V?$basic_string@DU?$char_traits@D@std@@V?$allocator@D@2@@std@@@2@@std@@AAEXABV?$basic_string@DU?$char_traits@D@std@@V?$allocator@D@2@@1@@Z ; std::deque<std::basic_string<char,std::char_traits<char>,std::allocator<char> >,std::allocator<std::basic_string<char,std::char_traits<char>,std::allocator<char> > > >::_Emplace_back_internal<std::basic_string<char,std::char_traits<char>,std::allocator<char> > const &>
PUBLIC	??$_Uninitialized_move@PAV?$basic_string@DU?$char_traits@D@std@@V?$allocator@D@2@@std@@V?$allocator@V?$basic_string@DU?$char_traits@D@std@@V?$allocator@D@2@@std@@@2@@std@@YAPAV?$basic_string@DU?$char_traits@D@std@@V?$allocator@D@2@@0@QAV10@0PAV10@AAV?$allocator@V?$basic_string@DU?$char_traits@D@std@@V?$allocator@D@2@@std@@@0@@Z ; std::_Uninitialized_move<std::basic_string<char,std::char_traits<char>,std::allocator<char> > *,std::allocator<std::basic_string<char,std::char_traits<char>,std::allocator<char> > > >
PUBLIC	??$_Emplace_reallocate@V?$basic_string@DU?$char_traits@D@std@@V?$allocator@D@2@@std@@@?$vector@V?$basic_string@DU?$char_traits@D@std@@V?$allocator@D@2@@std@@V?$allocator@V?$basic_string@DU?$char_traits@D@std@@V?$allocator@D@2@@std@@@2@@std@@AAEPAV?$basic_string@DU?$char_traits@D@std@@V?$allocator@D@2@@1@QAV21@$$QAV21@@Z ; std::vector<std::basic_string<char,std::char_traits<char>,std::allocator<char> >,std::allocator<std::basic_string<char,std::char_traits<char>,std::allocator<char> > > >::_Emplace_reallocate<std::basic_string<char,std::char_traits<char>,std::allocator<char> > >
PUBLIC	?_Mark@?$_String_bitmap@D$00@std@@QAE_NPBDQBD@Z	; std::_String_bitmap<char,1>::_Mark
PUBLIC	??$_Find_first_of_vectorized@$$CBD$$CBD@std@@YAPBDQBD000@Z ; std::_Find_first_of_vectorized<char const ,char const >
PUBLIC	??$uninitialized_copy@PAPAV?$basic_string@DU?$char_traits@D@std@@V?$allocator@D@2@@std@@PAPAV12@@std@@YAPAPAV?$basic_string@DU?$char_traits@D@std@@V?$allocator@D@2@@0@QAPAV10@0PAPAV10@@Z ; std::uninitialized_copy<std::basic_string<char,std::char_traits<char>,std::allocator<char> > * *,std::basic_string<char,std::char_traits<char>,std::allocator<char> > * *>
PUBLIC	??$_Uninitialized_value_construct_n_unchecked1@PAPAV?$basic_string@DU?$char_traits@D@std@@V?$allocator@D@2@@std@@I@std@@YAPAPAV?$basic_string@DU?$char_traits@D@std@@V?$allocator@D@2@@0@PAPAV10@I@Z ; std::_Uninitialized_value_construct_n_unchecked1<std::basic_string<char,std::char_traits<char>,std::allocator<char> > * *,unsigned int>
PUBLIC	??$_Zero_range@PAPAV?$basic_string@DU?$char_traits@D@std@@V?$allocator@D@2@@std@@@std@@YAPAPAV?$basic_string@DU?$char_traits@D@std@@V?$allocator@D@2@@0@QAPAV10@0@Z ; std::_Zero_range<std::basic_string<char,std::char_traits<char>,std::allocator<char> > * *>
PUBLIC	??$_Copy_memmove@PAPAV?$basic_string@DU?$char_traits@D@std@@V?$allocator@D@2@@std@@PAPAV12@@std@@YAPAPAV?$basic_string@DU?$char_traits@D@std@@V?$allocator@D@2@@0@PAPAV10@00@Z ; std::_Copy_memmove<std::basic_string<char,std::char_traits<char>,std::allocator<char> > * *,std::basic_string<char,std::char_traits<char>,std::allocator<char> > * *>
PUBLIC	??$_Copy_memmove_tail@PAPAV?$basic_string@DU?$char_traits@D@std@@V?$allocator@D@2@@std@@@std@@YAPAPAV?$basic_string@DU?$char_traits@D@std@@V?$allocator@D@2@@0@QBDQAPAV10@II@Z ; std::_Copy_memmove_tail<std::basic_string<char,std::char_traits<char>,std::allocator<char> > * *>
PUBLIC	?_OptionsStorage@?1??__local_stdio_printf_options@@9@4_KA ; `__local_stdio_printf_options'::`2'::_OptionsStorage
PUBLIC	??_7exception@std@@6B@				; std::exception::`vftable'
PUBLIC	??_C@_0BC@EOODALEL@Unknown?5exception@		; `string'
PUBLIC	??_7bad_alloc@std@@6B@				; std::bad_alloc::`vftable'
PUBLIC	??_7bad_array_new_length@std@@6B@		; std::bad_array_new_length::`vftable'
PUBLIC	??_C@_0BF@KINCDENJ@bad?5array?5new?5length@	; `string'
PUBLIC	??_R0?AVexception@std@@@8			; std::exception `RTTI Type Descriptor'
PUBLIC	__CT??_R0?AVexception@std@@@8??0exception@std@@QAE@ABV01@@Z12
PUBLIC	__TI3?AVbad_array_new_length@std@@
PUBLIC	__CTA3?AVbad_array_new_length@std@@
PUBLIC	??_R0?AVbad_array_new_length@std@@@8		; std::bad_array_new_length `RTTI Type Descriptor'
PUBLIC	__CT??_R0?AVbad_array_new_length@std@@@8??0bad_array_new_length@std@@QAE@ABV01@@Z12
PUBLIC	??_R0?AVbad_alloc@std@@@8			; std::bad_alloc `RTTI Type Descriptor'
PUBLIC	__CT??_R0?AVbad_alloc@std@@@8??0bad_alloc@std@@QAE@ABV01@@Z12
PUBLIC	?_Fake_alloc@std@@3U_Fake_allocator@1@B		; std::_Fake_alloc
PUBLIC	??_C@_0BA@JFNIOLAK@string?5too?5long@		; `string'
PUBLIC	??_C@_0BI@CFPLBAOH@invalid?5string?5position@	; `string'
PUBLIC	??_R4exception@std@@6B@				; std::exception::`RTTI Complete Object Locator'
PUBLIC	??_R3exception@std@@8				; std::exception::`RTTI Class Hierarchy Descriptor'
PUBLIC	??_R2exception@std@@8				; std::exception::`RTTI Base Class Array'
PUBLIC	??_R1A@?0A@EA@exception@std@@8			; std::exception::`RTTI Base Class Descriptor at (0,-1,0,64)'
PUBLIC	??_R4bad_array_new_length@std@@6B@		; std::bad_array_new_length::`RTTI Complete Object Locator'
PUBLIC	??_R3bad_array_new_length@std@@8		; std::bad_array_new_length::`RTTI Class Hierarchy Descriptor'
PUBLIC	??_R2bad_array_new_length@std@@8		; std::bad_array_new_length::`RTTI Base Class Array'
PUBLIC	??_R1A@?0A@EA@bad_array_new_length@std@@8	; std::bad_array_new_length::`RTTI Base Class Descriptor at (0,-1,0,64)'
PUBLIC	??_R1A@?0A@EA@bad_alloc@std@@8			; std::bad_alloc::`RTTI Base Class Descriptor at (0,-1,0,64)'
PUBLIC	??_R3bad_alloc@std@@8				; std::bad_alloc::`RTTI Class Hierarchy Descriptor'
PUBLIC	??_R2bad_alloc@std@@8				; std::bad_alloc::`RTTI Base Class Array'
PUBLIC	??_R4bad_alloc@std@@6B@				; std::bad_alloc::`RTTI Complete Object Locator'
PUBLIC	??_C@_03NGHAOOHL@etb@				; `string'
PUBLIC	??_C@_02GMHACPFF@?$CFu@				; `string'
PUBLIC	??_C@_00CNPNBAHC@@				; `string'
PUBLIC	??_C@_01LOCGONAA@?$AA@				; `string'
PUBLIC	??_C@_01KMDKNFGN@?1@				; `string'
PUBLIC	??_C@_0EE@CAMDODON@?9?9?9?9?9?9?9?9?9?9?9?9?9?9?9?9?9?9?9?9?9?9?9?9?9?9?9?9?9?9?9@ ; `string'
PUBLIC	??_C@_03NDEAONJP@?5?5?5@			; `string'
PUBLIC	??_C@_05CNDJFPDP@?$CF02x?5@			; `string'
PUBLIC	??_C@_02MINBJDHL@?$HM?5@			; `string'
PUBLIC	??_C@_02HAOIJKIC@?$CFc@				; `string'
PUBLIC	??_C@_01EEMJAFIK@?6@				; `string'
PUBLIC	?ms_strDirectoryDeque@CDirRemover@@1V?$deque@V?$basic_string@DU?$char_traits@D@std@@V?$allocator@D@2@@std@@V?$allocator@V?$basic_string@DU?$char_traits@D@std@@V?$allocator@D@2@@std@@@2@@std@@A ; CDirRemover::ms_strDirectoryDeque
PUBLIC	??_7CDirRemover@@6B@				; CDirRemover::`vftable'
PUBLIC	??_C@_03EMIMMIHL@?$CK?4?$CK@			; `string'
PUBLIC	??_C@_01BJJEKLCA@?$CC@				; `string'
PUBLIC	??_C@_0BA@FOIKENOD@vector?5too?5long@		; `string'
PUBLIC	??_C@_0BC@KBDMBKEH@deque?$DMT?$DO?5too?5long@	; `string'
PUBLIC	??_R4CDirRemover@@6B@				; CDirRemover::`RTTI Complete Object Locator'
PUBLIC	??_R0?AVCDirRemover@@@8				; CDirRemover `RTTI Type Descriptor'
PUBLIC	??_R3CDirRemover@@8				; CDirRemover::`RTTI Class Hierarchy Descriptor'
PUBLIC	??_R2CDirRemover@@8				; CDirRemover::`RTTI Base Class Array'
PUBLIC	??_R1A@?0A@EA@CDirRemover@@8			; CDirRemover::`RTTI Base Class Descriptor at (0,-1,0,64)'
PUBLIC	??_R1A@?0A@EA@CDir@@8				; CDir::`RTTI Base Class Descriptor at (0,-1,0,64)'
PUBLIC	??_R0?AVCDir@@@8				; CDir `RTTI Type Descriptor'
PUBLIC	??_R3CDir@@8					; CDir::`RTTI Class Hierarchy Descriptor'
PUBLIC	??_R2CDir@@8					; CDir::`RTTI Base Class Array'
EXTRN	??2@YAPAXI@Z:PROC				; operator new
EXTRN	??3@YAXPAXI@Z:PROC				; operator delete
EXTRN	??_U@YAPAXI@Z:PROC				; operator new[]
EXTRN	??_V@YAXPAX@Z:PROC				; operator delete[]
EXTRN	_atexit:PROC
EXTRN	___report_rangecheckfailure:PROC
EXTRN	__Init_thread_header:PROC
EXTRN	__Init_thread_footer:PROC
EXTRN	__invalid_parameter_noinfo_noreturn:PROC
EXTRN	_isprint:PROC
EXTRN	_strchr:PROC
EXTRN	_strncpy:PROC
EXTRN	__imp__CreateDirectoryA@8:PROC
EXTRN	__imp__DeleteFileA@4:PROC
EXTRN	__imp__RemoveDirectoryA@4:PROC
EXTRN	__imp__GetTempPathA@8:PROC
EXTRN	__imp__GetTempFileNameA@16:PROC
EXTRN	__imp__GetModuleFileNameA@12:PROC
EXTRN	__imp__GlobalAlloc@8:PROC
EXTRN	___acrt_iob_func:PROC
EXTRN	___stdio_common_vfprintf:PROC
EXTRN	___stdio_common_vsprintf:PROC
EXTRN	__ecvt:PROC
EXTRN	___std_find_first_of_trivial_1@16:PROC
EXTRN	?_Xlength_error@std@@YAXPBD@Z:PROC		; std::_Xlength_error
EXTRN	?_Xout_of_range@std@@YAXPBD@Z:PROC		; std::_Xout_of_range
EXTRN	___std_exception_copy:PROC
EXTRN	___std_exception_destroy:PROC
EXTRN	??_Eexception@std@@UAEPAXI@Z:PROC		; std::exception::`vector deleting destructor'
EXTRN	??_Ebad_alloc@std@@UAEPAXI@Z:PROC		; std::bad_alloc::`vector deleting destructor'
EXTRN	??_Ebad_array_new_length@std@@UAEPAXI@Z:PROC	; std::bad_array_new_length::`vector deleting destructor'
EXTRN	__getcwd:PROC
EXTRN	__access:PROC
EXTRN	__chmod:PROC
EXTRN	??0CDir@@QAE@XZ:PROC				; CDir::CDir
EXTRN	??1CDir@@UAE@XZ:PROC				; CDir::~CDir
EXTRN	?Create@CDir@@QAE_NPBD0H@Z:PROC			; CDir::Create
EXTRN	?korean_tolower@@YADD@Z:PROC			; korean_tolower
EXTRN	??_ECDirRemover@@UAEPAXI@Z:PROC			; CDirRemover::`vector deleting destructor'
EXTRN	@__security_check_cookie@4:PROC
EXTRN	__CxxThrowException@8:PROC
EXTRN	___CxxFrameHandler3:PROC
EXTRN	_memchr:PROC
EXTRN	_memcpy:PROC
EXTRN	_memmove:PROC
EXTRN	_memset:PROC
EXTRN	__Init_thread_epoch:DWORD
EXTRN	??_7type_info@@6B@:QWORD			; type_info::`vftable'
EXTRN	___security_cookie:DWORD
EXTRN	__fltused:DWORD
EXTRN	__tls_array:DWORD
EXTRN	__tls_index:DWORD
;	COMDAT ?_OptionsStorage@?1??__local_stdio_printf_options@@9@4_KA
_BSS	SEGMENT
?_OptionsStorage@?1??__local_stdio_printf_options@@9@4_KA DQ 01H DUP (?) ; `__local_stdio_printf_options'::`2'::_OptionsStorage
_BSS	ENDS
;	COMDAT ?szTempName@?1??CreateTempFileName@@YAPBDPBD@Z@4PADA
_BSS	SEGMENT
?szTempName@?1??CreateTempFileName@@YAPBDPBD@Z@4PADA DB 0105H DUP (?) ; `CreateTempFileName'::`2'::szTempName
_BSS	ENDS
;	COMDAT ?$TSS0@?1??GetOnlyPathName@@YAPBDPBD@Z@4HA
_BSS	SEGMENT
?$TSS0@?1??GetOnlyPathName@@YAPBDPBD@Z@4HA DD 01H DUP (?) ; `GetOnlyPathName'::`2'::$TSS0
_BSS	ENDS
_BSS	SEGMENT
?ms_strDirectoryDeque@CDirRemover@@1V?$deque@V?$basic_string@DU?$char_traits@D@std@@V?$allocator@D@2@@std@@V?$allocator@V?$basic_string@DU?$char_traits@D@std@@V?$allocator@D@2@@std@@@2@@std@@A DB 014H DUP (?) ; CDirRemover::ms_strDirectoryDeque
_BSS	ENDS
;	COMDAT ?szBuf@?1??_getf@@YAPBDPBDZZ@4PADA
_BSS	SEGMENT
?szBuf@?1??_getf@@YAPBDPBDZZ@4PADA DB 0100H DUP (?)	; `_getf'::`2'::szBuf
_BSS	ENDS
CRT$XCU	SEGMENT
??ms_strDirectoryDeque$initializer$@CDirRemover@@1P6AXXZA@@3P6AXXZA DD FLAT:??__E?ms_strDirectoryDeque@CDirRemover@@1V?$deque@V?$basic_string@DU?$char_traits@D@std@@V?$allocator@D@2@@std@@V?$allocator@V?$basic_string@DU?$char_traits@D@std@@V?$allocator@D@2@@std@@@2@@std@@A@@YAXXZ ; ??ms_strDirectoryDeque$initializer$@CDirRemover@@1P6AXXZA@@3P6AXXZA
CRT$XCU	ENDS
;	COMDAT ??_R2CDir@@8
rdata$r	SEGMENT
??_R2CDir@@8 DD	FLAT:??_R1A@?0A@EA@CDir@@8		; CDir::`RTTI Base Class Array'
rdata$r	ENDS
;	COMDAT ??_R3CDir@@8
rdata$r	SEGMENT
??_R3CDir@@8 DD	00H					; CDir::`RTTI Class Hierarchy Descriptor'
	DD	00H
	DD	01H
	DD	FLAT:??_R2CDir@@8
rdata$r	ENDS
;	COMDAT ??_R0?AVCDir@@@8
data$rs	SEGMENT
??_R0?AVCDir@@@8 DD FLAT:??_7type_info@@6B@		; CDir `RTTI Type Descriptor'
	DD	00H
	DB	'.?AVCDir@@', 00H
data$rs	ENDS
;	COMDAT ??_R1A@?0A@EA@CDir@@8
rdata$r	SEGMENT
??_R1A@?0A@EA@CDir@@8 DD FLAT:??_R0?AVCDir@@@8		; CDir::`RTTI Base Class Descriptor at (0,-1,0,64)'
	DD	00H
	DD	00H
	DD	0ffffffffH
	DD	00H
	DD	040H
	DD	FLAT:??_R3CDir@@8
rdata$r	ENDS
;	COMDAT ??_R1A@?0A@EA@CDirRemover@@8
rdata$r	SEGMENT
??_R1A@?0A@EA@CDirRemover@@8 DD FLAT:??_R0?AVCDirRemover@@@8 ; CDirRemover::`RTTI Base Class Descriptor at (0,-1,0,64)'
	DD	01H
	DD	00H
	DD	0ffffffffH
	DD	00H
	DD	040H
	DD	FLAT:??_R3CDirRemover@@8
rdata$r	ENDS
;	COMDAT ??_R2CDirRemover@@8
rdata$r	SEGMENT
??_R2CDirRemover@@8 DD FLAT:??_R1A@?0A@EA@CDirRemover@@8 ; CDirRemover::`RTTI Base Class Array'
	DD	FLAT:??_R1A@?0A@EA@CDir@@8
rdata$r	ENDS
;	COMDAT ??_R3CDirRemover@@8
rdata$r	SEGMENT
??_R3CDirRemover@@8 DD 00H				; CDirRemover::`RTTI Class Hierarchy Descriptor'
	DD	00H
	DD	02H
	DD	FLAT:??_R2CDirRemover@@8
rdata$r	ENDS
;	COMDAT ??_R0?AVCDirRemover@@@8
data$rs	SEGMENT
??_R0?AVCDirRemover@@@8 DD FLAT:??_7type_info@@6B@	; CDirRemover `RTTI Type Descriptor'
	DD	00H
	DB	'.?AVCDirRemover@@', 00H
data$rs	ENDS
;	COMDAT ??_R4CDirRemover@@6B@
rdata$r	SEGMENT
??_R4CDirRemover@@6B@ DD 00H				; CDirRemover::`RTTI Complete Object Locator'
	DD	00H
	DD	00H
	DD	FLAT:??_R0?AVCDirRemover@@@8
	DD	FLAT:??_R3CDirRemover@@8
rdata$r	ENDS
;	COMDAT ??_C@_0BC@KBDMBKEH@deque?$DMT?$DO?5too?5long@
CONST	SEGMENT
??_C@_0BC@KBDMBKEH@deque?$DMT?$DO?5too?5long@ DB 'deque<T> too long', 00H ; `string'
CONST	ENDS
;	COMDAT ??_C@_0BA@FOIKENOD@vector?5too?5long@
CONST	SEGMENT
??_C@_0BA@FOIKENOD@vector?5too?5long@ DB 'vector too long', 00H ; `string'
CONST	ENDS
;	COMDAT ??_C@_01BJJEKLCA@?$CC@
CONST	SEGMENT
??_C@_01BJJEKLCA@?$CC@ DB '"', 00H			; `string'
CONST	ENDS
;	COMDAT ??_C@_03EMIMMIHL@?$CK?4?$CK@
CONST	SEGMENT
??_C@_03EMIMMIHL@?$CK?4?$CK@ DB '*.*', 00H		; `string'
CONST	ENDS
;	COMDAT ??_7CDirRemover@@6B@
CONST	SEGMENT
??_7CDirRemover@@6B@ DD FLAT:??_R4CDirRemover@@6B@	; CDirRemover::`vftable'
	DD	FLAT:??_ECDirRemover@@UAEPAXI@Z
	DD	FLAT:?OnFolder@CDirRemover@@UAE_NPBD00@Z
	DD	FLAT:?OnFile@CDirRemover@@UAE_NPBD0@Z
CONST	ENDS
;	COMDAT ??_C@_01EEMJAFIK@?6@
CONST	SEGMENT
??_C@_01EEMJAFIK@?6@ DB 0aH, 00H			; `string'
CONST	ENDS
;	COMDAT ??_C@_02HAOIJKIC@?$CFc@
CONST	SEGMENT
??_C@_02HAOIJKIC@?$CFc@ DB '%c', 00H			; `string'
CONST	ENDS
;	COMDAT ??_C@_02MINBJDHL@?$HM?5@
CONST	SEGMENT
??_C@_02MINBJDHL@?$HM?5@ DB '| ', 00H			; `string'
CONST	ENDS
;	COMDAT ??_C@_05CNDJFPDP@?$CF02x?5@
CONST	SEGMENT
??_C@_05CNDJFPDP@?$CF02x?5@ DB '%02x ', 00H		; `string'
CONST	ENDS
;	COMDAT ??_C@_03NDEAONJP@?5?5?5@
CONST	SEGMENT
??_C@_03NDEAONJP@?5?5?5@ DB '   ', 00H			; `string'
CONST	ENDS
;	COMDAT ??_C@_0EE@CAMDODON@?9?9?9?9?9?9?9?9?9?9?9?9?9?9?9?9?9?9?9?9?9?9?9?9?9?9?9?9?9?9?9@
CONST	SEGMENT
??_C@_0EE@CAMDODON@?9?9?9?9?9?9?9?9?9?9?9?9?9?9?9?9?9?9?9?9?9?9?9?9?9?9?9?9?9?9?9@ DB '-'
	DB	'-------------------------------------------------------------'
	DB	'----', 0aH, 00H				; `string'
CONST	ENDS
;	COMDAT ??_C@_01KMDKNFGN@?1@
CONST	SEGMENT
??_C@_01KMDKNFGN@?1@ DB '/', 00H			; `string'
CONST	ENDS
;	COMDAT ?strPathName@?1??GetOnlyPathName@@YAPBDPBD@Z@4V?$basic_string@DU?$char_traits@D@std@@V?$allocator@D@2@@std@@A
_DATA	SEGMENT
?strPathName@?1??GetOnlyPathName@@YAPBDPBD@Z@4V?$basic_string@DU?$char_traits@D@std@@V?$allocator@D@2@@std@@A DB 00H ; `GetOnlyPathName'::`2'::strPathName
	DB	19 DUP(00H)
	DD	0fH
_DATA	ENDS
;	COMDAT ??_C@_01LOCGONAA@?$AA@
CONST	SEGMENT
??_C@_01LOCGONAA@?$AA@ DB 00H, 00H			; `string'
CONST	ENDS
;	COMDAT ??_C@_00CNPNBAHC@@
CONST	SEGMENT
??_C@_00CNPNBAHC@@ DB 00H				; `string'
CONST	ENDS
;	COMDAT ??_C@_02GMHACPFF@?$CFu@
CONST	SEGMENT
??_C@_02GMHACPFF@?$CFu@ DB '%u', 00H			; `string'
CONST	ENDS
;	COMDAT ??_C@_03NGHAOOHL@etb@
CONST	SEGMENT
??_C@_03NGHAOOHL@etb@ DB 'etb', 00H			; `string'
CONST	ENDS
;	COMDAT ??_R4bad_alloc@std@@6B@
rdata$r	SEGMENT
??_R4bad_alloc@std@@6B@ DD 00H				; std::bad_alloc::`RTTI Complete Object Locator'
	DD	00H
	DD	00H
	DD	FLAT:??_R0?AVbad_alloc@std@@@8
	DD	FLAT:??_R3bad_alloc@std@@8
rdata$r	ENDS
;	COMDAT ??_R2bad_alloc@std@@8
rdata$r	SEGMENT
??_R2bad_alloc@std@@8 DD FLAT:??_R1A@?0A@EA@bad_alloc@std@@8 ; std::bad_alloc::`RTTI Base Class Array'
	DD	FLAT:??_R1A@?0A@EA@exception@std@@8
rdata$r	ENDS
;	COMDAT ??_R3bad_alloc@std@@8
rdata$r	SEGMENT
??_R3bad_alloc@std@@8 DD 00H				; std::bad_alloc::`RTTI Class Hierarchy Descriptor'
	DD	00H
	DD	02H
	DD	FLAT:??_R2bad_alloc@std@@8
rdata$r	ENDS
;	COMDAT ??_R1A@?0A@EA@bad_alloc@std@@8
rdata$r	SEGMENT
??_R1A@?0A@EA@bad_alloc@std@@8 DD FLAT:??_R0?AVbad_alloc@std@@@8 ; std::bad_alloc::`RTTI Base Class Descriptor at (0,-1,0,64)'
	DD	01H
	DD	00H
	DD	0ffffffffH
	DD	00H
	DD	040H
	DD	FLAT:??_R3bad_alloc@std@@8
rdata$r	ENDS
;	COMDAT ??_R1A@?0A@EA@bad_array_new_length@std@@8
rdata$r	SEGMENT
??_R1A@?0A@EA@bad_array_new_length@std@@8 DD FLAT:??_R0?AVbad_array_new_length@std@@@8 ; std::bad_array_new_length::`RTTI Base Class Descriptor at (0,-1,0,64)'
	DD	02H
	DD	00H
	DD	0ffffffffH
	DD	00H
	DD	040H
	DD	FLAT:??_R3bad_array_new_length@std@@8
rdata$r	ENDS
;	COMDAT ??_R2bad_array_new_length@std@@8
rdata$r	SEGMENT
??_R2bad_array_new_length@std@@8 DD FLAT:??_R1A@?0A@EA@bad_array_new_length@std@@8 ; std::bad_array_new_length::`RTTI Base Class Array'
	DD	FLAT:??_R1A@?0A@EA@bad_alloc@std@@8
	DD	FLAT:??_R1A@?0A@EA@exception@std@@8
rdata$r	ENDS
;	COMDAT ??_R3bad_array_new_length@std@@8
rdata$r	SEGMENT
??_R3bad_array_new_length@std@@8 DD 00H			; std::bad_array_new_length::`RTTI Class Hierarchy Descriptor'
	DD	00H
	DD	03H
	DD	FLAT:??_R2bad_array_new_length@std@@8
rdata$r	ENDS
;	COMDAT ??_R4bad_array_new_length@std@@6B@
rdata$r	SEGMENT
??_R4bad_array_new_length@std@@6B@ DD 00H		; std::bad_array_new_length::`RTTI Complete Object Locator'
	DD	00H
	DD	00H
	DD	FLAT:??_R0?AVbad_array_new_length@std@@@8
	DD	FLAT:??_R3bad_array_new_length@std@@8
rdata$r	ENDS
;	COMDAT ??_R1A@?0A@EA@exception@std@@8
rdata$r	SEGMENT
??_R1A@?0A@EA@exception@std@@8 DD FLAT:??_R0?AVexception@std@@@8 ; std::exception::`RTTI Base Class Descriptor at (0,-1,0,64)'
	DD	00H
	DD	00H
	DD	0ffffffffH
	DD	00H
	DD	040H
	DD	FLAT:??_R3exception@std@@8
rdata$r	ENDS
;	COMDAT ??_R2exception@std@@8
rdata$r	SEGMENT
??_R2exception@std@@8 DD FLAT:??_R1A@?0A@EA@exception@std@@8 ; std::exception::`RTTI Base Class Array'
rdata$r	ENDS
;	COMDAT ??_R3exception@std@@8
rdata$r	SEGMENT
??_R3exception@std@@8 DD 00H				; std::exception::`RTTI Class Hierarchy Descriptor'
	DD	00H
	DD	01H
	DD	FLAT:??_R2exception@std@@8
rdata$r	ENDS
;	COMDAT ??_R4exception@std@@6B@
rdata$r	SEGMENT
??_R4exception@std@@6B@ DD 00H				; std::exception::`RTTI Complete Object Locator'
	DD	00H
	DD	00H
	DD	FLAT:??_R0?AVexception@std@@@8
	DD	FLAT:??_R3exception@std@@8
rdata$r	ENDS
;	COMDAT ??_C@_0BI@CFPLBAOH@invalid?5string?5position@
CONST	SEGMENT
??_C@_0BI@CFPLBAOH@invalid?5string?5position@ DB 'invalid string position'
	DB	00H						; `string'
CONST	ENDS
;	COMDAT ??_C@_0BA@JFNIOLAK@string?5too?5long@
CONST	SEGMENT
??_C@_0BA@JFNIOLAK@string?5too?5long@ DB 'string too long', 00H ; `string'
CONST	ENDS
;	COMDAT ?_Fake_alloc@std@@3U_Fake_allocator@1@B
CONST	SEGMENT
?_Fake_alloc@std@@3U_Fake_allocator@1@B	ORG $+1		; std::_Fake_alloc
CONST	ENDS
;	COMDAT __CT??_R0?AVbad_alloc@std@@@8??0bad_alloc@std@@QAE@ABV01@@Z12
xdata$x	SEGMENT
__CT??_R0?AVbad_alloc@std@@@8??0bad_alloc@std@@QAE@ABV01@@Z12 DD 010H
	DD	FLAT:??_R0?AVbad_alloc@std@@@8
	DD	00H
	DD	0ffffffffH
	ORG $+4
	DD	0cH
	DD	FLAT:??0bad_alloc@std@@QAE@ABV01@@Z
xdata$x	ENDS
;	COMDAT ??_R0?AVbad_alloc@std@@@8
data$r	SEGMENT
??_R0?AVbad_alloc@std@@@8 DD FLAT:??_7type_info@@6B@	; std::bad_alloc `RTTI Type Descriptor'
	DD	00H
	DB	'.?AVbad_alloc@std@@', 00H
data$r	ENDS
;	COMDAT __CT??_R0?AVbad_array_new_length@std@@@8??0bad_array_new_length@std@@QAE@ABV01@@Z12
xdata$x	SEGMENT
__CT??_R0?AVbad_array_new_length@std@@@8??0bad_array_new_length@std@@QAE@ABV01@@Z12 DD 00H
	DD	FLAT:??_R0?AVbad_array_new_length@std@@@8
	DD	00H
	DD	0ffffffffH
	ORG $+4
	DD	0cH
	DD	FLAT:??0bad_array_new_length@std@@QAE@ABV01@@Z
xdata$x	ENDS
;	COMDAT ??_R0?AVbad_array_new_length@std@@@8
data$r	SEGMENT
??_R0?AVbad_array_new_length@std@@@8 DD FLAT:??_7type_info@@6B@ ; std::bad_array_new_length `RTTI Type Descriptor'
	DD	00H
	DB	'.?AVbad_array_new_length@std@@', 00H
data$r	ENDS
;	COMDAT __CTA3?AVbad_array_new_length@std@@
xdata$x	SEGMENT
__CTA3?AVbad_array_new_length@std@@ DD 03H
	DD	FLAT:__CT??_R0?AVbad_array_new_length@std@@@8??0bad_array_new_length@std@@QAE@ABV01@@Z12
	DD	FLAT:__CT??_R0?AVbad_alloc@std@@@8??0bad_alloc@std@@QAE@ABV01@@Z12
	DD	FLAT:__CT??_R0?AVexception@std@@@8??0exception@std@@QAE@ABV01@@Z12
xdata$x	ENDS
;	COMDAT __TI3?AVbad_array_new_length@std@@
xdata$x	SEGMENT
__TI3?AVbad_array_new_length@std@@ DD 00H
	DD	FLAT:??1bad_array_new_length@std@@UAE@XZ
	DD	00H
	DD	FLAT:__CTA3?AVbad_array_new_length@std@@
xdata$x	ENDS
;	COMDAT __CT??_R0?AVexception@std@@@8??0exception@std@@QAE@ABV01@@Z12
xdata$x	SEGMENT
__CT??_R0?AVexception@std@@@8??0exception@std@@QAE@ABV01@@Z12 DD 00H
	DD	FLAT:??_R0?AVexception@std@@@8
	DD	00H
	DD	0ffffffffH
	ORG $+4
	DD	0cH
	DD	FLAT:??0exception@std@@QAE@ABV01@@Z
xdata$x	ENDS
;	COMDAT ??_R0?AVexception@std@@@8
data$r	SEGMENT
??_R0?AVexception@std@@@8 DD FLAT:??_7type_info@@6B@	; std::exception `RTTI Type Descriptor'
	DD	00H
	DB	'.?AVexception@std@@', 00H
data$r	ENDS
;	COMDAT ??_C@_0BF@KINCDENJ@bad?5array?5new?5length@
CONST	SEGMENT
??_C@_0BF@KINCDENJ@bad?5array?5new?5length@ DB 'bad array new length', 00H ; `string'
CONST	ENDS
;	COMDAT ??_7bad_array_new_length@std@@6B@
CONST	SEGMENT
??_7bad_array_new_length@std@@6B@ DD FLAT:??_R4bad_array_new_length@std@@6B@ ; std::bad_array_new_length::`vftable'
	DD	FLAT:??_Ebad_array_new_length@std@@UAEPAXI@Z
	DD	FLAT:?what@exception@std@@UBEPBDXZ
CONST	ENDS
;	COMDAT ??_7bad_alloc@std@@6B@
CONST	SEGMENT
??_7bad_alloc@std@@6B@ DD FLAT:??_R4bad_alloc@std@@6B@	; std::bad_alloc::`vftable'
	DD	FLAT:??_Ebad_alloc@std@@UAEPAXI@Z
	DD	FLAT:?what@exception@std@@UBEPBDXZ
CONST	ENDS
;	COMDAT ??_C@_0BC@EOODALEL@Unknown?5exception@
CONST	SEGMENT
??_C@_0BC@EOODALEL@Unknown?5exception@ DB 'Unknown exception', 00H ; `string'
CONST	ENDS
;	COMDAT ??_7exception@std@@6B@
CONST	SEGMENT
??_7exception@std@@6B@ DD FLAT:??_R4exception@std@@6B@	; std::exception::`vftable'
	DD	FLAT:??_Eexception@std@@UAEPAXI@Z
	DD	FLAT:?what@exception@std@@UBEPBDXZ
CONST	ENDS
;	COMDAT xdata$x
xdata$x	SEGMENT
__unwindtable$?OnFile@CDirRemover@@UAE_NPBD0@Z DD 0ffffffffH
	DD	FLAT:__unwindfunclet$?OnFile@CDirRemover@@UAE_NPBD0@Z$0
__ehfuncinfo$?OnFile@CDirRemover@@UAE_NPBD0@Z DD 019930522H
	DD	01H
	DD	FLAT:__unwindtable$?OnFile@CDirRemover@@UAE_NPBD0@Z
	DD	2 DUP(00H)
	DD	2 DUP(00H)
	DD	00H
	DD	01H
xdata$x	ENDS
;	COMDAT xdata$x
xdata$x	SEGMENT
__unwindtable$?OnFolder@CDirRemover@@UAE_NPBD00@Z DD 0ffffffffH
	DD	FLAT:__unwindfunclet$?OnFolder@CDirRemover@@UAE_NPBD00@Z$0
	DD	00H
	DD	FLAT:__unwindfunclet$?OnFolder@CDirRemover@@UAE_NPBD00@Z$1
	DD	01H
	DD	FLAT:__unwindfunclet$?OnFolder@CDirRemover@@UAE_NPBD00@Z$2
__ehfuncinfo$?OnFolder@CDirRemover@@UAE_NPBD00@Z DD 019930522H
	DD	03H
	DD	FLAT:__unwindtable$?OnFolder@CDirRemover@@UAE_NPBD00@Z
	DD	2 DUP(00H)
	DD	2 DUP(00H)
	DD	00H
	DD	01H
xdata$x	ENDS
;	COMDAT xdata$x
xdata$x	SEGMENT
__unwindtable$?StringExceptCharacter@@YAXPAV?$basic_string@DU?$char_traits@D@std@@V?$allocator@D@2@@std@@PBD@Z DD 0ffffffffH
	DD	FLAT:__unwindfunclet$?StringExceptCharacter@@YAXPAV?$basic_string@DU?$char_traits@D@std@@V?$allocator@D@2@@std@@PBD@Z$0
	DD	00H
	DD	FLAT:__unwindfunclet$?StringExceptCharacter@@YAXPAV?$basic_string@DU?$char_traits@D@std@@V?$allocator@D@2@@std@@PBD@Z$1
__ehfuncinfo$?StringExceptCharacter@@YAXPAV?$basic_string@DU?$char_traits@D@std@@V?$allocator@D@2@@std@@PBD@Z DD 019930522H
	DD	02H
	DD	FLAT:__unwindtable$?StringExceptCharacter@@YAXPAV?$basic_string@DU?$char_traits@D@std@@V?$allocator@D@2@@std@@PBD@Z
	DD	2 DUP(00H)
	DD	2 DUP(00H)
	DD	00H
	DD	01H
xdata$x	ENDS
;	COMDAT xdata$x
xdata$x	SEGMENT
__unwindtable$?SplitLine@@YA_NPBD0PAV?$vector@V?$basic_string@DU?$char_traits@D@std@@V?$allocator@D@2@@std@@V?$allocator@V?$basic_string@DU?$char_traits@D@std@@V?$allocator@D@2@@std@@@2@@std@@@Z DD 0ffffffffH
	DD	FLAT:__unwindfunclet$?SplitLine@@YA_NPBD0PAV?$vector@V?$basic_string@DU?$char_traits@D@std@@V?$allocator@D@2@@std@@V?$allocator@V?$basic_string@DU?$char_traits@D@std@@V?$allocator@D@2@@std@@@2@@std@@@Z$0
	DD	00H
	DD	FLAT:__unwindfunclet$?SplitLine@@YA_NPBD0PAV?$vector@V?$basic_string@DU?$char_traits@D@std@@V?$allocator@D@2@@std@@V?$allocator@V?$basic_string@DU?$char_traits@D@std@@V?$allocator@D@2@@std@@@2@@std@@@Z$1
__ehfuncinfo$?SplitLine@@YA_NPBD0PAV?$vector@V?$basic_string@DU?$char_traits@D@std@@V?$allocator@D@2@@std@@V?$allocator@V?$basic_string@DU?$char_traits@D@std@@V?$allocator@D@2@@std@@@2@@std@@@Z DD 019930522H
	DD	02H
	DD	FLAT:__unwindtable$?SplitLine@@YA_NPBD0PAV?$vector@V?$basic_string@DU?$char_traits@D@std@@V?$allocator@D@2@@std@@V?$allocator@V?$basic_string@DU?$char_traits@D@std@@V?$allocator@D@2@@std@@@2@@std@@@Z
	DD	2 DUP(00H)
	DD	2 DUP(00H)
	DD	00H
	DD	01H
xdata$x	ENDS
;	COMDAT xdata$x
xdata$x	SEGMENT
__unwindtable$?RemoveAllDirectory@@YAXPBD@Z DD 0ffffffffH
	DD	FLAT:__unwindfunclet$?RemoveAllDirectory@@YAXPBD@Z$0
__ehfuncinfo$?RemoveAllDirectory@@YAXPBD@Z DD 019930522H
	DD	01H
	DD	FLAT:__unwindtable$?RemoveAllDirectory@@YAXPBD@Z
	DD	2 DUP(00H)
	DD	2 DUP(00H)
	DD	00H
	DD	01H
xdata$x	ENDS
;	COMDAT xdata$x
xdata$x	SEGMENT
__unwindtable$?GetLocalFileName@@YA_NPBD0PAV?$basic_string@DU?$char_traits@D@std@@V?$allocator@D@2@@std@@@Z DD 0ffffffffH
	DD	FLAT:__unwindfunclet$?GetLocalFileName@@YA_NPBD0PAV?$basic_string@DU?$char_traits@D@std@@V?$allocator@D@2@@std@@@Z$0
	DD	00H
	DD	FLAT:__unwindfunclet$?GetLocalFileName@@YA_NPBD0PAV?$basic_string@DU?$char_traits@D@std@@V?$allocator@D@2@@std@@@Z$1
	DD	01H
	DD	FLAT:__unwindfunclet$?GetLocalFileName@@YA_NPBD0PAV?$basic_string@DU?$char_traits@D@std@@V?$allocator@D@2@@std@@@Z$2
__ehfuncinfo$?GetLocalFileName@@YA_NPBD0PAV?$basic_string@DU?$char_traits@D@std@@V?$allocator@D@2@@std@@@Z DD 019930522H
	DD	03H
	DD	FLAT:__unwindtable$?GetLocalFileName@@YA_NPBD0PAV?$basic_string@DU?$char_traits@D@std@@V?$allocator@D@2@@std@@@Z
	DD	2 DUP(00H)
	DD	2 DUP(00H)
	DD	00H
	DD	01H
xdata$x	ENDS
; Function compile flags: /Ogtp
; File D:\Program Files\Microsoft Visual Studio\2022\Community\VC\Tools\MSVC\14.43.34808\include\xutility
;	COMDAT ??$_Copy_memmove_tail@PAPAV?$basic_string@DU?$char_traits@D@std@@V?$allocator@D@2@@std@@@std@@YAPAPAV?$basic_string@DU?$char_traits@D@std@@V?$allocator@D@2@@0@QBDQAPAV10@II@Z
_TEXT	SEGMENT
__First_ch$ = 8						; size = 4
__Dest$ = 12						; size = 4
__Byte_count$ = 16					; size = 4
__Object_count$ = 20					; size = 4
??$_Copy_memmove_tail@PAPAV?$basic_string@DU?$char_traits@D@std@@V?$allocator@D@2@@std@@@std@@YAPAPAV?$basic_string@DU?$char_traits@D@std@@V?$allocator@D@2@@0@QBDQAPAV10@II@Z PROC ; std::_Copy_memmove_tail<std::basic_string<char,std::char_traits<char>,std::allocator<char> > * *>, COMDAT

; 4763 :     const char* const _First_ch, const _OutCtgIt _Dest, const size_t _Byte_count, const size_t _Object_count) {

  00000	55		 push	 ebp
  00001	8b ec		 mov	 ebp, esp
  00003	56		 push	 esi

; 4764 :     _STL_INTERNAL_CHECK(_Byte_count == _Object_count * sizeof(*_Dest));
; 4765 :     const auto _Dest_ptr = _STD _To_address(_Dest);
; 4766 :     const auto _Dest_ch  = const_cast<char*>(reinterpret_cast<const volatile char*>(_Dest_ptr));
; 4767 :     _CSTD memmove(_Dest_ch, _First_ch, _Byte_count);

  00004	8b 75 0c	 mov	 esi, DWORD PTR __Dest$[ebp]
  00007	57		 push	 edi
  00008	8b 7d 10	 mov	 edi, DWORD PTR __Byte_count$[ebp]
  0000b	57		 push	 edi
  0000c	ff 75 08	 push	 DWORD PTR __First_ch$[ebp]
  0000f	56		 push	 esi
  00010	e8 00 00 00 00	 call	 _memmove
  00015	83 c4 0c	 add	 esp, 12			; 0000000cH

; 4768 :     if constexpr (is_pointer_v<_OutCtgIt>) {
; 4769 :         (void) _Object_count;
; 4770 :         // CodeQL [SM02986] This cast is correct: we're bypassing pointer arithmetic for performance.
; 4771 :         return reinterpret_cast<_OutCtgIt>(_Dest_ch + _Byte_count);

  00018	8d 04 3e	 lea	 eax, DWORD PTR [esi+edi]
  0001b	5f		 pop	 edi
  0001c	5e		 pop	 esi

; 4772 :     } else {
; 4773 :         return _Dest + static_cast<_Iter_diff_t<_OutCtgIt>>(_Object_count);
; 4774 :     }
; 4775 : }

  0001d	5d		 pop	 ebp
  0001e	c3		 ret	 0
??$_Copy_memmove_tail@PAPAV?$basic_string@DU?$char_traits@D@std@@V?$allocator@D@2@@std@@@std@@YAPAPAV?$basic_string@DU?$char_traits@D@std@@V?$allocator@D@2@@0@QBDQAPAV10@II@Z ENDP ; std::_Copy_memmove_tail<std::basic_string<char,std::char_traits<char>,std::allocator<char> > * *>
_TEXT	ENDS
; Function compile flags: /Ogtp
; File D:\Program Files\Microsoft Visual Studio\2022\Community\VC\Tools\MSVC\14.43.34808\include\xutility
;	COMDAT ??$_Copy_memmove@PAPAV?$basic_string@DU?$char_traits@D@std@@V?$allocator@D@2@@std@@PAPAV12@@std@@YAPAPAV?$basic_string@DU?$char_traits@D@std@@V?$allocator@D@2@@0@PAPAV10@00@Z
_TEXT	SEGMENT
__First$ = 8						; size = 4
__Last$ = 12						; size = 4
__Dest$ = 16						; size = 4
??$_Copy_memmove@PAPAV?$basic_string@DU?$char_traits@D@std@@V?$allocator@D@2@@std@@PAPAV12@@std@@YAPAPAV?$basic_string@DU?$char_traits@D@std@@V?$allocator@D@2@@0@PAPAV10@00@Z PROC ; std::_Copy_memmove<std::basic_string<char,std::char_traits<char>,std::allocator<char> > * *,std::basic_string<char,std::char_traits<char>,std::allocator<char> > * *>, COMDAT

; 4778 : _OutCtgIt _Copy_memmove(_CtgIt _First, _CtgIt _Last, _OutCtgIt _Dest) {

  00000	55		 push	 ebp
  00001	8b ec		 mov	 ebp, esp

; 4779 :     _STL_INTERNAL_CHECK(_First <= _Last);
; 4780 :     const auto _First_ptr    = _STD _To_address(_First);
; 4781 :     const auto _Last_ptr     = _STD _To_address(_Last);
; 4782 :     const auto _Object_count = static_cast<size_t>(_Last_ptr - _First_ptr);

  00003	8b 55 08	 mov	 edx, DWORD PTR __First$[ebp]
  00006	8b 4d 0c	 mov	 ecx, DWORD PTR __Last$[ebp]
  00009	2b ca		 sub	 ecx, edx
  0000b	8b c1		 mov	 eax, ecx
  0000d	c1 f8 02	 sar	 eax, 2

; 4783 :     const auto _First_ch     = const_cast<const char*>(reinterpret_cast<const volatile char*>(_First_ptr));
; 4784 :     const auto _Last_ch      = const_cast<const char*>(reinterpret_cast<const volatile char*>(_Last_ptr));
; 4785 :     const auto _Byte_count   = static_cast<size_t>(_Last_ch - _First_ch);
; 4786 :     return _STD _Copy_memmove_tail(_First_ch, _STD move(_Dest), _Byte_count, _Object_count);

  00010	50		 push	 eax
  00011	51		 push	 ecx
  00012	ff 75 10	 push	 DWORD PTR __Dest$[ebp]
  00015	52		 push	 edx
  00016	e8 00 00 00 00	 call	 ??$_Copy_memmove_tail@PAPAV?$basic_string@DU?$char_traits@D@std@@V?$allocator@D@2@@std@@@std@@YAPAPAV?$basic_string@DU?$char_traits@D@std@@V?$allocator@D@2@@0@QBDQAPAV10@II@Z ; std::_Copy_memmove_tail<std::basic_string<char,std::char_traits<char>,std::allocator<char> > * *>
  0001b	83 c4 10	 add	 esp, 16			; 00000010H

; 4787 : }

  0001e	5d		 pop	 ebp
  0001f	c3		 ret	 0
??$_Copy_memmove@PAPAV?$basic_string@DU?$char_traits@D@std@@V?$allocator@D@2@@std@@PAPAV12@@std@@YAPAPAV?$basic_string@DU?$char_traits@D@std@@V?$allocator@D@2@@0@PAPAV10@00@Z ENDP ; std::_Copy_memmove<std::basic_string<char,std::char_traits<char>,std::allocator<char> > * *,std::basic_string<char,std::char_traits<char>,std::allocator<char> > * *>
_TEXT	ENDS
; Function compile flags: /Ogtp
; File D:\Program Files\Microsoft Visual Studio\2022\Community\VC\Tools\MSVC\14.43.34808\include\xmemory
;	COMDAT ??$_Zero_range@PAPAV?$basic_string@DU?$char_traits@D@std@@V?$allocator@D@2@@std@@@std@@YAPAPAV?$basic_string@DU?$char_traits@D@std@@V?$allocator@D@2@@0@QAPAV10@0@Z
_TEXT	SEGMENT
__First$ = 8						; size = 4
__Last$ = 12						; size = 4
??$_Zero_range@PAPAV?$basic_string@DU?$char_traits@D@std@@V?$allocator@D@2@@std@@@std@@YAPAPAV?$basic_string@DU?$char_traits@D@std@@V?$allocator@D@2@@0@QAPAV10@0@Z PROC ; std::_Zero_range<std::basic_string<char,std::char_traits<char>,std::allocator<char> > * *>, COMDAT

; 2032 : _Ptr _Zero_range(const _Ptr _First, const _Ptr _Last) { // fill [_First, _Last) with zeroes

  00000	55		 push	 ebp
  00001	8b ec		 mov	 ebp, esp

; 2033 :     char* const _First_ch = reinterpret_cast<char*>(_STD _To_address(_First));
; 2034 :     char* const _Last_ch  = reinterpret_cast<char*>(_STD _To_address(_Last));
; 2035 :     _CSTD memset(_First_ch, 0, static_cast<size_t>(_Last_ch - _First_ch));

  00003	8b 55 08	 mov	 edx, DWORD PTR __First$[ebp]
  00006	8b 4d 0c	 mov	 ecx, DWORD PTR __Last$[ebp]
  00009	2b ca		 sub	 ecx, edx
  0000b	51		 push	 ecx
  0000c	6a 00		 push	 0
  0000e	52		 push	 edx
  0000f	e8 00 00 00 00	 call	 _memset

; 2036 :     return _Last;

  00014	8b 45 0c	 mov	 eax, DWORD PTR __Last$[ebp]
  00017	83 c4 0c	 add	 esp, 12			; 0000000cH

; 2037 : }

  0001a	5d		 pop	 ebp
  0001b	c3		 ret	 0
??$_Zero_range@PAPAV?$basic_string@DU?$char_traits@D@std@@V?$allocator@D@2@@std@@@std@@YAPAPAV?$basic_string@DU?$char_traits@D@std@@V?$allocator@D@2@@0@QAPAV10@0@Z ENDP ; std::_Zero_range<std::basic_string<char,std::char_traits<char>,std::allocator<char> > * *>
_TEXT	ENDS
; Function compile flags: /Ogtp
; File D:\Program Files\Microsoft Visual Studio\2022\Community\VC\Tools\MSVC\14.43.34808\include\xmemory
;	COMDAT ??$_Uninitialized_value_construct_n_unchecked1@PAPAV?$basic_string@DU?$char_traits@D@std@@V?$allocator@D@2@@std@@I@std@@YAPAPAV?$basic_string@DU?$char_traits@D@std@@V?$allocator@D@2@@0@PAPAV10@I@Z
_TEXT	SEGMENT
__UFirst$ = 8						; size = 4
__Count$ = 12						; size = 4
??$_Uninitialized_value_construct_n_unchecked1@PAPAV?$basic_string@DU?$char_traits@D@std@@V?$allocator@D@2@@std@@I@std@@YAPAPAV?$basic_string@DU?$char_traits@D@std@@V?$allocator@D@2@@0@PAPAV10@I@Z PROC ; std::_Uninitialized_value_construct_n_unchecked1<std::basic_string<char,std::char_traits<char>,std::allocator<char> > * *,unsigned int>, COMDAT

; 2064 : _NoThrowFwdIt _Uninitialized_value_construct_n_unchecked1(_NoThrowFwdIt _UFirst, _Diff _Count) {

  00000	55		 push	 ebp
  00001	8b ec		 mov	 ebp, esp

; 2065 :     // value-initialize all elements in [_UFirst, _UFirst + _Count)
; 2066 :     _STL_INTERNAL_CHECK(_Count >= 0);
; 2067 :     if constexpr (_Use_memset_value_construct_v<_NoThrowFwdIt>) {
; 2068 :         return _STD _Zero_range(_UFirst, _UFirst + _Count);

  00003	8b 4d 08	 mov	 ecx, DWORD PTR __UFirst$[ebp]
  00006	8b 45 0c	 mov	 eax, DWORD PTR __Count$[ebp]
  00009	8d 04 81	 lea	 eax, DWORD PTR [ecx+eax*4]
  0000c	89 45 0c	 mov	 DWORD PTR __Count$[ebp], eax
  0000f	89 4d 08	 mov	 DWORD PTR __UFirst$[ebp], ecx

; 2069 :     } else {
; 2070 :         _Uninitialized_backout<_NoThrowFwdIt> _Backout{_UFirst};
; 2071 :         for (; 0 < _Count; --_Count) {
; 2072 :             _Backout._Emplace_back();
; 2073 :         }
; 2074 : 
; 2075 :         return _Backout._Release();
; 2076 :     }
; 2077 : }

  00012	5d		 pop	 ebp

; 2065 :     // value-initialize all elements in [_UFirst, _UFirst + _Count)
; 2066 :     _STL_INTERNAL_CHECK(_Count >= 0);
; 2067 :     if constexpr (_Use_memset_value_construct_v<_NoThrowFwdIt>) {
; 2068 :         return _STD _Zero_range(_UFirst, _UFirst + _Count);

  00013	e9 00 00 00 00	 jmp	 ??$_Zero_range@PAPAV?$basic_string@DU?$char_traits@D@std@@V?$allocator@D@2@@std@@@std@@YAPAPAV?$basic_string@DU?$char_traits@D@std@@V?$allocator@D@2@@0@QAPAV10@0@Z ; std::_Zero_range<std::basic_string<char,std::char_traits<char>,std::allocator<char> > * *>
??$_Uninitialized_value_construct_n_unchecked1@PAPAV?$basic_string@DU?$char_traits@D@std@@V?$allocator@D@2@@std@@I@std@@YAPAPAV?$basic_string@DU?$char_traits@D@std@@V?$allocator@D@2@@0@PAPAV10@I@Z ENDP ; std::_Uninitialized_value_construct_n_unchecked1<std::basic_string<char,std::char_traits<char>,std::allocator<char> > * *,unsigned int>
_TEXT	ENDS
; Function compile flags: /Ogtp
; File D:\Program Files\Microsoft Visual Studio\2022\Community\VC\Tools\MSVC\14.43.34808\include\xmemory
;	COMDAT ??$uninitialized_copy@PAPAV?$basic_string@DU?$char_traits@D@std@@V?$allocator@D@2@@std@@PAPAV12@@std@@YAPAPAV?$basic_string@DU?$char_traits@D@std@@V?$allocator@D@2@@0@QAPAV10@0PAPAV10@@Z
_TEXT	SEGMENT
__First$ = 8						; size = 4
__Last$ = 12						; size = 4
__Dest$ = 16						; size = 4
??$uninitialized_copy@PAPAV?$basic_string@DU?$char_traits@D@std@@V?$allocator@D@2@@std@@PAPAV12@@std@@YAPAPAV?$basic_string@DU?$char_traits@D@std@@V?$allocator@D@2@@0@QAPAV10@0PAPAV10@@Z PROC ; std::uninitialized_copy<std::basic_string<char,std::char_traits<char>,std::allocator<char> > * *,std::basic_string<char,std::char_traits<char>,std::allocator<char> > * *>, COMDAT

; 1928 : _NoThrowFwdIt uninitialized_copy(const _InIt _First, const _InIt _Last, _NoThrowFwdIt _Dest) {

  00000	55		 push	 ebp
  00001	8b ec		 mov	 ebp, esp

; 1929 :     // copy [_First, _Last) to raw [_Dest, ...)
; 1930 :     _STD _Adl_verify_range(_First, _Last);
; 1931 :     auto _UFirst      = _STD _Get_unwrapped(_First);
; 1932 :     const auto _ULast = _STD _Get_unwrapped(_Last);
; 1933 :     auto _UDest       = _STD _Get_unwrapped_n(_Dest, _STD _Idl_distance<_InIt>(_UFirst, _ULast));
; 1934 :     _STD _Seek_wrapped(_Dest, _STD _Uninitialized_copy_unchecked(_UFirst, _ULast, _UDest));
; 1935 :     return _Dest;
; 1936 : }

  00003	5d		 pop	 ebp

; 1915 :             return _STD _Copy_memmove(_First, _Last, _Dest);

  00004	e9 00 00 00 00	 jmp	 ??$_Copy_memmove@PAPAV?$basic_string@DU?$char_traits@D@std@@V?$allocator@D@2@@std@@PAPAV12@@std@@YAPAPAV?$basic_string@DU?$char_traits@D@std@@V?$allocator@D@2@@0@PAPAV10@00@Z ; std::_Copy_memmove<std::basic_string<char,std::char_traits<char>,std::allocator<char> > * *,std::basic_string<char,std::char_traits<char>,std::allocator<char> > * *>
??$uninitialized_copy@PAPAV?$basic_string@DU?$char_traits@D@std@@V?$allocator@D@2@@std@@PAPAV12@@std@@YAPAPAV?$basic_string@DU?$char_traits@D@std@@V?$allocator@D@2@@0@QAPAV10@0PAPAV10@@Z ENDP ; std::uninitialized_copy<std::basic_string<char,std::char_traits<char>,std::allocator<char> > * *,std::basic_string<char,std::char_traits<char>,std::allocator<char> > * *>
_TEXT	ENDS
; Function compile flags: /Ogtp
; File D:\Program Files\Microsoft Visual Studio\2022\Community\VC\Tools\MSVC\14.43.34808\include\xutility
;	COMDAT ??$_Find_first_of_vectorized@$$CBD$$CBD@std@@YAPBDQBD000@Z
_TEXT	SEGMENT
__First1$ = 8						; size = 4
__Last1$ = 12						; size = 4
__First2$ = 16						; size = 4
__Last2$ = 20						; size = 4
??$_Find_first_of_vectorized@$$CBD$$CBD@std@@YAPBDQBD000@Z PROC ; std::_Find_first_of_vectorized<char const ,char const >, COMDAT

; 257  :     _Ty1* const _First1, _Ty1* const _Last1, _Ty2* const _First2, _Ty2* const _Last2) noexcept {

  00000	55		 push	 ebp
  00001	8b ec		 mov	 ebp, esp

; 258  :     _STL_INTERNAL_STATIC_ASSERT(sizeof(_Ty1) == sizeof(_Ty2));
; 259  :     if constexpr (sizeof(_Ty1) == 1) {
; 260  :         return const_cast<_Ty1*>(

  00003	ff 75 14	 push	 DWORD PTR __Last2$[ebp]
  00006	ff 75 10	 push	 DWORD PTR __First2$[ebp]
  00009	ff 75 0c	 push	 DWORD PTR __Last1$[ebp]
  0000c	ff 75 08	 push	 DWORD PTR __First1$[ebp]
  0000f	e8 00 00 00 00	 call	 ___std_find_first_of_trivial_1@16

; 261  :             static_cast<const _Ty1*>(::__std_find_first_of_trivial_1(_First1, _Last1, _First2, _Last2)));
; 262  :     } else if constexpr (sizeof(_Ty1) == 2) {
; 263  :         return const_cast<_Ty1*>(
; 264  :             static_cast<const _Ty1*>(::__std_find_first_of_trivial_2(_First1, _Last1, _First2, _Last2)));
; 265  :     } else if constexpr (sizeof(_Ty1) == 4) {
; 266  :         return const_cast<_Ty1*>(
; 267  :             static_cast<const _Ty1*>(::__std_find_first_of_trivial_4(_First1, _Last1, _First2, _Last2)));
; 268  :     } else if constexpr (sizeof(_Ty1) == 8) {
; 269  :         return const_cast<_Ty1*>(
; 270  :             static_cast<const _Ty1*>(::__std_find_first_of_trivial_8(_First1, _Last1, _First2, _Last2)));
; 271  :     } else {
; 272  :         _STL_INTERNAL_STATIC_ASSERT(false); // unexpected size
; 273  :     }
; 274  : }

  00014	5d		 pop	 ebp
  00015	c3		 ret	 0
??$_Find_first_of_vectorized@$$CBD$$CBD@std@@YAPBDQBD000@Z ENDP ; std::_Find_first_of_vectorized<char const ,char const >
_TEXT	ENDS
; Function compile flags: /Ogtp
; File D:\Program Files\Microsoft Visual Studio\2022\Community\VC\Tools\MSVC\14.43.34808\include\__msvc_string_view.hpp
;	COMDAT ?_Mark@?$_String_bitmap@D$00@std@@QAE_NPBDQBD@Z
_TEXT	SEGMENT
__First$ = 8						; size = 4
__Last$ = 12						; size = 4
?_Mark@?$_String_bitmap@D$00@std@@QAE_NPBDQBD@Z PROC	; std::_String_bitmap<char,1>::_Mark, COMDAT
; _this$ = ecx

; 758  :     constexpr bool _Mark(const _Elem* _First, const _Elem* const _Last) noexcept {

  00000	55		 push	 ebp
  00001	8b ec		 mov	 ebp, esp

; 759  :         // mark this bitmap such that the characters in [_First, _Last) are intended to match
; 760  :         // returns whether all inputs can be placed in the bitmap
; 761  :         for (; _First != _Last; ++_First) {

  00003	8b 45 08	 mov	 eax, DWORD PTR __First$[ebp]
  00006	56		 push	 esi
  00007	8b 75 0c	 mov	 esi, DWORD PTR __Last$[ebp]
  0000a	3b c6		 cmp	 eax, esi
  0000c	74 0e		 je	 SHORT $LN11@Mark
  0000e	66 90		 npad	 2
$LL4@Mark:

; 762  :             _Matches[static_cast<unsigned char>(*_First)] = true;

  00010	0f b6 10	 movzx	 edx, BYTE PTR [eax]
  00013	40		 inc	 eax
  00014	c6 04 0a 01	 mov	 BYTE PTR [edx+ecx], 1
  00018	3b c6		 cmp	 eax, esi
  0001a	75 f4		 jne	 SHORT $LL4@Mark
$LN11@Mark:

; 763  :         }
; 764  : 
; 765  :         return true;
; 766  :     }

  0001c	b0 01		 mov	 al, 1
  0001e	5e		 pop	 esi
  0001f	5d		 pop	 ebp
  00020	c2 08 00	 ret	 8
?_Mark@?$_String_bitmap@D$00@std@@QAE_NPBDQBD@Z ENDP	; std::_String_bitmap<char,1>::_Mark
_TEXT	ENDS
; Function compile flags: /Ogtp
; File D:\Program Files\Microsoft Visual Studio\2022\Community\VC\Tools\MSVC\14.43.34808\include\vector
; File D:\Program Files\Microsoft Visual Studio\2022\Community\VC\Tools\MSVC\14.43.34808\include\xmemory
; File D:\Program Files\Microsoft Visual Studio\2022\Community\VC\Tools\MSVC\14.43.34808\include\vector
; File D:\Program Files\Microsoft Visual Studio\2022\Community\VC\Tools\MSVC\14.43.34808\include\xmemory
; File D:\Program Files\Microsoft Visual Studio\2022\Community\VC\Tools\MSVC\14.43.34808\include\vector
; File D:\Program Files\Microsoft Visual Studio\2022\Community\VC\Tools\MSVC\14.43.34808\include\xstring
; File D:\Program Files\Microsoft Visual Studio\2022\Community\VC\Tools\MSVC\14.43.34808\include\vector
; File D:\Program Files\Microsoft Visual Studio\2022\Community\VC\Tools\MSVC\14.43.34808\include\xstring
; File D:\Program Files\Microsoft Visual Studio\2022\Community\VC\Tools\MSVC\14.43.34808\include\vector
; File D:\Program Files\Microsoft Visual Studio\2022\Community\VC\Tools\MSVC\14.43.34808\include\xstring
; File D:\Program Files\Microsoft Visual Studio\2022\Community\VC\Tools\MSVC\14.43.34808\include\vector
; File D:\Program Files\Microsoft Visual Studio\2022\Community\VC\Tools\MSVC\14.43.34808\include\xstring
; File D:\Program Files\Microsoft Visual Studio\2022\Community\VC\Tools\MSVC\14.43.34808\include\vector
; File D:\Program Files\Microsoft Visual Studio\2022\Community\VC\Tools\MSVC\14.43.34808\include\xmemory
; File D:\Program Files\Microsoft Visual Studio\2022\Community\VC\Tools\MSVC\14.43.34808\include\vector
;	COMDAT ??$_Emplace_reallocate@V?$basic_string@DU?$char_traits@D@std@@V?$allocator@D@2@@std@@@?$vector@V?$basic_string@DU?$char_traits@D@std@@V?$allocator@D@2@@std@@V?$allocator@V?$basic_string@DU?$char_traits@D@std@@V?$allocator@D@2@@std@@@2@@std@@AAEPAV?$basic_string@DU?$char_traits@D@std@@V?$allocator@D@2@@1@QAV21@$$QAV21@@Z
_TEXT	SEGMENT
_this$1$ = -12						; size = 4
__Oldsize$1$ = -8					; size = 4
__Whereoff$1$ = -4					; size = 4
$T1 = -4						; size = 4
__Whereptr$ = 8						; size = 4
_<_Val_0>$ = 12						; size = 4
??$_Emplace_reallocate@V?$basic_string@DU?$char_traits@D@std@@V?$allocator@D@2@@std@@@?$vector@V?$basic_string@DU?$char_traits@D@std@@V?$allocator@D@2@@std@@V?$allocator@V?$basic_string@DU?$char_traits@D@std@@V?$allocator@D@2@@std@@@2@@std@@AAEPAV?$basic_string@DU?$char_traits@D@std@@V?$allocator@D@2@@1@QAV21@$$QAV21@@Z PROC ; std::vector<std::basic_string<char,std::char_traits<char>,std::allocator<char> >,std::allocator<std::basic_string<char,std::char_traits<char>,std::allocator<char> > > >::_Emplace_reallocate<std::basic_string<char,std::char_traits<char>,std::allocator<char> > >, COMDAT
; _this$ = ecx

; 860  :     _CONSTEXPR20 pointer _Emplace_reallocate(const pointer _Whereptr, _Valty&&... _Val) {

  00000	55		 push	 ebp
  00001	8b ec		 mov	 ebp, esp
  00003	83 ec 0c	 sub	 esp, 12			; 0000000cH

; 861  :         // reallocate and insert by perfectly forwarding _Val at _Whereptr
; 862  :         _Alty& _Al        = _Getal();
; 863  :         auto& _My_data    = _Mypair._Myval2;
; 864  :         pointer& _Myfirst = _My_data._Myfirst;
; 865  :         pointer& _Mylast  = _My_data._Mylast;
; 866  : 
; 867  :         _STL_INTERNAL_CHECK(_Mylast == _My_data._Myend); // check that we have no unused capacity
; 868  : 
; 869  :         const auto _Whereoff = static_cast<size_type>(_Whereptr - _Myfirst);

  00006	8b 55 08	 mov	 edx, DWORD PTR __Whereptr$[ebp]
  00009	b8 ab aa aa 2a	 mov	 eax, 715827883		; 2aaaaaabH
  0000e	53		 push	 ebx
  0000f	8b d9		 mov	 ebx, ecx
  00011	56		 push	 esi
  00012	57		 push	 edi
  00013	8b 33		 mov	 esi, DWORD PTR [ebx]
  00015	2b d6		 sub	 edx, esi

; 870  :         const auto _Oldsize  = static_cast<size_type>(_Mylast - _Myfirst);

  00017	8b 4b 04	 mov	 ecx, DWORD PTR [ebx+4]
  0001a	f7 ea		 imul	 edx
  0001c	2b ce		 sub	 ecx, esi
  0001e	c1 fa 02	 sar	 edx, 2
  00021	8b c2		 mov	 eax, edx
  00023	c1 e8 1f	 shr	 eax, 31			; 0000001fH
  00026	03 c2		 add	 eax, edx
  00028	89 45 fc	 mov	 DWORD PTR __Whereoff$1$[ebp], eax
  0002b	b8 ab aa aa 2a	 mov	 eax, 715827883		; 2aaaaaabH
  00030	f7 e9		 imul	 ecx
  00032	c1 fa 02	 sar	 edx, 2
  00035	8b c2		 mov	 eax, edx
  00037	c1 e8 1f	 shr	 eax, 31			; 0000001fH
  0003a	03 c2		 add	 eax, edx
  0003c	89 45 f8	 mov	 DWORD PTR __Oldsize$1$[ebp], eax

; 871  : 
; 872  :         if (_Oldsize == max_size()) {

  0003f	3d aa aa aa 0a	 cmp	 eax, 178956970		; 0aaaaaaaH
  00044	0f 84 0d 01 00
	00		 je	 $LN94@Emplace_re

; 1909 :         return static_cast<size_type>(_My_data._Myend - _My_data._Myfirst);

  0004a	8b 4b 08	 mov	 ecx, DWORD PTR [ebx+8]

; 874  :         }
; 875  : 
; 876  :         const size_type _Newsize = _Oldsize + 1;

  0004d	8d 78 01	 lea	 edi, DWORD PTR [eax+1]

; 1909 :         return static_cast<size_type>(_My_data._Myend - _My_data._Myfirst);

  00050	2b ce		 sub	 ecx, esi
  00052	b8 ab aa aa 2a	 mov	 eax, 715827883		; 2aaaaaabH
  00057	f7 e9		 imul	 ecx

; 1996 :         if (_Oldcapacity > _Max - _Oldcapacity / 2) {

  00059	b8 aa aa aa 0a	 mov	 eax, 178956970		; 0aaaaaaaH

; 1909 :         return static_cast<size_type>(_My_data._Myend - _My_data._Myfirst);

  0005e	c1 fa 02	 sar	 edx, 2
  00061	8b ca		 mov	 ecx, edx
  00063	c1 e9 1f	 shr	 ecx, 31			; 0000001fH
  00066	03 ca		 add	 ecx, edx

; 1996 :         if (_Oldcapacity > _Max - _Oldcapacity / 2) {

  00068	8b d1		 mov	 edx, ecx
  0006a	d1 ea		 shr	 edx, 1
  0006c	2b c2		 sub	 eax, edx
  0006e	3b c8		 cmp	 ecx, eax
  00070	76 12		 jbe	 SHORT $LN8@Emplace_re

; 1997 :             return _Max; // geometric growth would overflow

  00072	b8 f0 ff ff ff	 mov	 eax, -16		; fffffff0H
  00077	be aa aa aa 0a	 mov	 esi, 178956970		; 0aaaaaaaH
; File D:\Program Files\Microsoft Visual Studio\2022\Community\VC\Tools\MSVC\14.43.34808\include\xmemory

; 253  :             return _Allocate_manually_vector_aligned<_Traits>(_Bytes);

  0007c	50		 push	 eax
  0007d	e8 00 00 00 00	 call	 ??$_Allocate_manually_vector_aligned@U_Default_allocate_traits@std@@@std@@YAPAXI@Z ; std::_Allocate_manually_vector_aligned<std::_Default_allocate_traits>
  00082	eb 39		 jmp	 SHORT $LN92@Emplace_re
$LN8@Emplace_re:
; File D:\Program Files\Microsoft Visual Studio\2022\Community\VC\Tools\MSVC\14.43.34808\include\vector

; 2000 :         const size_type _Geometric = _Oldcapacity + _Oldcapacity / 2;

  00084	8d 04 0a	 lea	 eax, DWORD PTR [edx+ecx]
; File D:\Program Files\Microsoft Visual Studio\2022\Community\VC\Tools\MSVC\14.43.34808\include\xmemory

; 117  :         if (_Count > _Max_possible) {

  00087	8b f7		 mov	 esi, edi
  00089	3b c7		 cmp	 eax, edi
  0008b	0f 43 f0	 cmovae	 esi, eax
  0008e	81 fe aa aa aa
	0a		 cmp	 esi, 178956970		; 0aaaaaaaH
  00094	0f 87 c2 00 00
	00		 ja	 $LN95@Emplace_re

; 119  :         }
; 120  :     }
; 121  : 
; 122  :     return _Count * _Ty_size;

  0009a	8d 04 76	 lea	 eax, DWORD PTR [esi+esi*2]
  0009d	c1 e0 03	 shl	 eax, 3

; 227  :     if (_Bytes == 0) {

  000a0	85 c0		 test	 eax, eax
  000a2	75 04		 jne	 SHORT $LN23@Emplace_re

; 228  :         return nullptr;

  000a4	33 ff		 xor	 edi, edi
  000a6	eb 1a		 jmp	 SHORT $LN22@Emplace_re
$LN23@Emplace_re:

; 229  :     }
; 230  : 
; 231  : #if _HAS_CXX20 // TRANSITION, GH-1532
; 232  :     if (_STD is_constant_evaluated()) {
; 233  :         return _Traits::_Allocate(_Bytes);
; 234  :     }
; 235  : #endif // _HAS_CXX20
; 236  : 
; 237  : #ifdef __cpp_aligned_new
; 238  :     if constexpr (_Align > __STDCPP_DEFAULT_NEW_ALIGNMENT__) {
; 239  :         size_t _Passed_align = _Align;
; 240  : #if defined(_M_IX86) || defined(_M_X64)
; 241  :         if (_Bytes >= _Big_allocation_threshold) {
; 242  :             // boost the alignment of big allocations to help autovectorization
; 243  :             _Passed_align = (_STD max)(_Align, _Big_allocation_alignment);
; 244  :         }
; 245  : #endif // defined(_M_IX86) || defined(_M_X64)
; 246  :         return _Traits::_Allocate_aligned(_Bytes, _Passed_align);
; 247  :     } else
; 248  : #endif // defined(__cpp_aligned_new)
; 249  :     {
; 250  : #if defined(_M_IX86) || defined(_M_X64)
; 251  :         if (_Bytes >= _Big_allocation_threshold) {

  000a8	3d 00 10 00 00	 cmp	 eax, 4096		; 00001000H
  000ad	72 08		 jb	 SHORT $LN24@Emplace_re

; 253  :             return _Allocate_manually_vector_aligned<_Traits>(_Bytes);

  000af	50		 push	 eax
  000b0	e8 00 00 00 00	 call	 ??$_Allocate_manually_vector_aligned@U_Default_allocate_traits@std@@@std@@YAPAXI@Z ; std::_Allocate_manually_vector_aligned<std::_Default_allocate_traits>
  000b5	eb 06		 jmp	 SHORT $LN92@Emplace_re
$LN24@Emplace_re:

; 136  :         return ::operator new(_Bytes);

  000b7	50		 push	 eax
  000b8	e8 00 00 00 00	 call	 ??2@YAPAXI@Z		; operator new
$LN92@Emplace_re:
; File D:\Program Files\Microsoft Visual Studio\2022\Community\VC\Tools\MSVC\14.43.34808\include\vector

; 880  :         const pointer _Constructed_last = _Newvec + _Whereoff + 1;

  000bd	8b f8		 mov	 edi, eax
  000bf	83 c4 04	 add	 esp, 4
$LN22@Emplace_re:
  000c2	8b 45 fc	 mov	 eax, DWORD PTR __Whereoff$1$[ebp]
  000c5	0f 57 c0	 xorps	 xmm0, xmm0

; 888  :         if (_Whereptr == _Mylast) { // at back, provide strong guarantee

  000c8	8b 55 08	 mov	 edx, DWORD PTR __Whereptr$[ebp]
  000cb	8d 04 40	 lea	 eax, DWORD PTR [eax+eax*2]
  000ce	8d 0c c7	 lea	 ecx, DWORD PTR [edi+eax*8]
; File D:\Program Files\Microsoft Visual Studio\2022\Community\VC\Tools\MSVC\14.43.34808\include\xstring

; 474  :         _CONSTEXPR20 _Bxty() noexcept : _Buf() {} // user-provided, for fancy pointers

  000d1	0f 11 01	 movups	 XMMWORD PTR [ecx], xmm0
; File D:\Program Files\Microsoft Visual Studio\2022\Community\VC\Tools\MSVC\14.43.34808\include\vector

; 880  :         const pointer _Constructed_last = _Newvec + _Whereoff + 1;

  000d4	8d 41 18	 lea	 eax, DWORD PTR [ecx+24]
; File D:\Program Files\Microsoft Visual Studio\2022\Community\VC\Tools\MSVC\14.43.34808\include\xstring

; 498  :     size_type _Mysize = 0; // current length of string (size)

  000d7	c7 41 10 00 00
	00 00		 mov	 DWORD PTR [ecx+16], 0

; 499  :     size_type _Myres  = 0; // current storage reserved for string (capacity)

  000de	c7 41 14 00 00
	00 00		 mov	 DWORD PTR [ecx+20], 0
; File D:\Program Files\Microsoft Visual Studio\2022\Community\VC\Tools\MSVC\14.43.34808\include\vector

; 880  :         const pointer _Constructed_last = _Newvec + _Whereoff + 1;

  000e5	89 45 fc	 mov	 DWORD PTR $T1[ebp], eax
; File D:\Program Files\Microsoft Visual Studio\2022\Community\VC\Tools\MSVC\14.43.34808\include\xstring

; 1262 :                 _CSTD memcpy(_My_data_mem, _Right_data_mem, _Memcpy_val_size);

  000e8	8b 45 0c	 mov	 eax, DWORD PTR _<_Val_0>$[ebp]
; File D:\Program Files\Microsoft Visual Studio\2022\Community\VC\Tools\MSVC\14.43.34808\include\vector

; 880  :         const pointer _Constructed_last = _Newvec + _Whereoff + 1;

  000eb	89 4d f4	 mov	 DWORD PTR _this$1$[ebp], ecx
; File D:\Program Files\Microsoft Visual Studio\2022\Community\VC\Tools\MSVC\14.43.34808\include\xstring

; 1262 :                 _CSTD memcpy(_My_data_mem, _Right_data_mem, _Memcpy_val_size);

  000ee	0f 10 00	 movups	 xmm0, XMMWORD PTR [eax]
  000f1	0f 11 01	 movups	 XMMWORD PTR [ecx], xmm0
  000f4	f3 0f 7e 40 10	 movq	 xmm0, QWORD PTR [eax+16]
  000f9	66 0f d6 41 10	 movq	 QWORD PTR [ecx+16], xmm0

; 1263 : 
; 1264 :                 _Right_data._Mysize = 0;

  000fe	c7 40 10 00 00
	00 00		 mov	 DWORD PTR [eax+16], 0

; 1265 :                 _Right_data._Myres  = _Small_string_capacity;

  00105	c7 40 14 0f 00
	00 00		 mov	 DWORD PTR [eax+20], 15	; 0000000fH

; 1266 :                 _Right_data._Activate_SSO_buffer();
; 1267 :                 _Traits::assign(_Right_data._Bx._Buf[0], _Elem());

  0010c	c6 00 00	 mov	 BYTE PTR [eax], 0
; File D:\Program Files\Microsoft Visual Studio\2022\Community\VC\Tools\MSVC\14.43.34808\include\vector

; 888  :         if (_Whereptr == _Mylast) { // at back, provide strong guarantee

  0010f	8b 4b 04	 mov	 ecx, DWORD PTR [ebx+4]
  00112	8b 03		 mov	 eax, DWORD PTR [ebx]
  00114	3b d1		 cmp	 edx, ecx
  00116	75 04		 jne	 SHORT $LN3@Emplace_re

; 889  :             if constexpr (is_nothrow_move_constructible_v<_Ty> || !is_copy_constructible_v<_Ty>) {
; 890  :                 _STD _Uninitialized_move(_Myfirst, _Mylast, _Newvec, _Al);

  00118	8b d7		 mov	 edx, edi

; 891  :             } else {
; 892  :                 _STD _Uninitialized_copy(_Myfirst, _Mylast, _Newvec, _Al);
; 893  :             }
; 894  :         } else { // provide basic guarantee

  0011a	eb 15		 jmp	 SHORT $LN4@Emplace_re
$LN3@Emplace_re:

; 895  :             _STD _Uninitialized_move(_Myfirst, _Whereptr, _Newvec, _Al);

  0011c	53		 push	 ebx
  0011d	57		 push	 edi
  0011e	52		 push	 edx
  0011f	50		 push	 eax
  00120	e8 00 00 00 00	 call	 ??$_Uninitialized_move@PAV?$basic_string@DU?$char_traits@D@std@@V?$allocator@D@2@@std@@V?$allocator@V?$basic_string@DU?$char_traits@D@std@@V?$allocator@D@2@@std@@@2@@std@@YAPAV?$basic_string@DU?$char_traits@D@std@@V?$allocator@D@2@@0@QAV10@0PAV10@AAV?$allocator@V?$basic_string@DU?$char_traits@D@std@@V?$allocator@D@2@@std@@@0@@Z ; std::_Uninitialized_move<std::basic_string<char,std::char_traits<char>,std::allocator<char> > *,std::allocator<std::basic_string<char,std::char_traits<char>,std::allocator<char> > > >

; 896  :             _Constructed_first = _Newvec;
; 897  :             _STD _Uninitialized_move(_Whereptr, _Mylast, _Newvec + _Whereoff + 1, _Al);

  00125	8b 45 08	 mov	 eax, DWORD PTR __Whereptr$[ebp]
  00128	83 c4 10	 add	 esp, 16			; 00000010H
  0012b	8b 4b 04	 mov	 ecx, DWORD PTR [ebx+4]
  0012e	8b 55 fc	 mov	 edx, DWORD PTR $T1[ebp]
$LN4@Emplace_re:

; 898  :         }
; 899  : 
; 900  :         _Guard._New_begin = nullptr;

  00131	53		 push	 ebx
  00132	52		 push	 edx
  00133	51		 push	 ecx
  00134	50		 push	 eax
  00135	e8 00 00 00 00	 call	 ??$_Uninitialized_move@PAV?$basic_string@DU?$char_traits@D@std@@V?$allocator@D@2@@std@@V?$allocator@V?$basic_string@DU?$char_traits@D@std@@V?$allocator@D@2@@std@@@2@@std@@YAPAV?$basic_string@DU?$char_traits@D@std@@V?$allocator@D@2@@0@QAV10@0PAV10@AAV?$allocator@V?$basic_string@DU?$char_traits@D@std@@V?$allocator@D@2@@std@@@0@@Z ; std::_Uninitialized_move<std::basic_string<char,std::char_traits<char>,std::allocator<char> > *,std::allocator<std::basic_string<char,std::char_traits<char>,std::allocator<char> > > >

; 901  :         _Change_array(_Newvec, _Newsize, _Newcapacity);

  0013a	8b 45 f8	 mov	 eax, DWORD PTR __Oldsize$1$[ebp]
  0013d	83 c4 10	 add	 esp, 16			; 00000010H
  00140	40		 inc	 eax
  00141	8b cb		 mov	 ecx, ebx
  00143	56		 push	 esi
  00144	50		 push	 eax
  00145	57		 push	 edi
  00146	e8 00 00 00 00	 call	 ?_Change_array@?$vector@V?$basic_string@DU?$char_traits@D@std@@V?$allocator@D@2@@std@@V?$allocator@V?$basic_string@DU?$char_traits@D@std@@V?$allocator@D@2@@std@@@2@@std@@AAEXQAV?$basic_string@DU?$char_traits@D@std@@V?$allocator@D@2@@2@II@Z ; std::vector<std::basic_string<char,std::char_traits<char>,std::allocator<char> >,std::allocator<std::basic_string<char,std::char_traits<char>,std::allocator<char> > > >::_Change_array

; 902  :         return _Newvec + _Whereoff;

  0014b	8b 45 f4	 mov	 eax, DWORD PTR _this$1$[ebp]

; 903  :     }

  0014e	5f		 pop	 edi
  0014f	5e		 pop	 esi
  00150	5b		 pop	 ebx
  00151	8b e5		 mov	 esp, ebp
  00153	5d		 pop	 ebp
  00154	c2 08 00	 ret	 8
$LN94@Emplace_re:

; 873  :             _Xlength();

  00157	e8 00 00 00 00	 call	 ?_Xlength@?$vector@V?$basic_string@DU?$char_traits@D@std@@V?$allocator@D@2@@std@@V?$allocator@V?$basic_string@DU?$char_traits@D@std@@V?$allocator@D@2@@std@@@2@@std@@CAXXZ ; std::vector<std::basic_string<char,std::char_traits<char>,std::allocator<char> >,std::allocator<std::basic_string<char,std::char_traits<char>,std::allocator<char> > > >::_Xlength
$LN95@Emplace_re:
; File D:\Program Files\Microsoft Visual Studio\2022\Community\VC\Tools\MSVC\14.43.34808\include\xmemory

; 118  :             _Throw_bad_array_new_length(); // multiply overflow

  0015c	e8 00 00 00 00	 call	 ?_Throw_bad_array_new_length@std@@YAXXZ ; std::_Throw_bad_array_new_length
$LN91@Emplace_re:
  00161	cc		 int	 3
??$_Emplace_reallocate@V?$basic_string@DU?$char_traits@D@std@@V?$allocator@D@2@@std@@@?$vector@V?$basic_string@DU?$char_traits@D@std@@V?$allocator@D@2@@std@@V?$allocator@V?$basic_string@DU?$char_traits@D@std@@V?$allocator@D@2@@std@@@2@@std@@AAEPAV?$basic_string@DU?$char_traits@D@std@@V?$allocator@D@2@@1@QAV21@$$QAV21@@Z ENDP ; std::vector<std::basic_string<char,std::char_traits<char>,std::allocator<char> >,std::allocator<std::basic_string<char,std::char_traits<char>,std::allocator<char> > > >::_Emplace_reallocate<std::basic_string<char,std::char_traits<char>,std::allocator<char> > >
_TEXT	ENDS
; Function compile flags: /Ogtp
; File D:\Program Files\Microsoft Visual Studio\2022\Community\VC\Tools\MSVC\14.43.34808\include\xmemory
; File D:\Program Files\Microsoft Visual Studio\2022\Community\VC\Tools\MSVC\14.43.34808\include\xstring
; File D:\Program Files\Microsoft Visual Studio\2022\Community\VC\Tools\MSVC\14.43.34808\include\xmemory
; File D:\Program Files\Microsoft Visual Studio\2022\Community\VC\Tools\MSVC\14.43.34808\include\xstring
; File D:\Program Files\Microsoft Visual Studio\2022\Community\VC\Tools\MSVC\14.43.34808\include\xmemory
;	COMDAT ??$_Uninitialized_move@PAV?$basic_string@DU?$char_traits@D@std@@V?$allocator@D@2@@std@@V?$allocator@V?$basic_string@DU?$char_traits@D@std@@V?$allocator@D@2@@std@@@2@@std@@YAPAV?$basic_string@DU?$char_traits@D@std@@V?$allocator@D@2@@0@QAV10@0PAV10@AAV?$allocator@V?$basic_string@DU?$char_traits@D@std@@V?$allocator@D@2@@std@@@0@@Z
_TEXT	SEGMENT
__First$ = 8						; size = 4
__Last$ = 12						; size = 4
__Dest$ = 16						; size = 4
__Al$ = 20						; size = 4
??$_Uninitialized_move@PAV?$basic_string@DU?$char_traits@D@std@@V?$allocator@D@2@@std@@V?$allocator@V?$basic_string@DU?$char_traits@D@std@@V?$allocator@D@2@@std@@@2@@std@@YAPAV?$basic_string@DU?$char_traits@D@std@@V?$allocator@D@2@@0@QAV10@0PAV10@AAV?$allocator@V?$basic_string@DU?$char_traits@D@std@@V?$allocator@D@2@@std@@@0@@Z PROC ; std::_Uninitialized_move<std::basic_string<char,std::char_traits<char>,std::allocator<char> > *,std::allocator<std::basic_string<char,std::char_traits<char>,std::allocator<char> > > >, COMDAT

; 1940 :     const _InIt _First, const _InIt _Last, _Alloc_ptr_t<_Alloc> _Dest, _Alloc& _Al) {

  00000	55		 push	 ebp
  00001	8b ec		 mov	 ebp, esp

; 1941 :     // move [_First, _Last) to raw _Dest, using _Al
; 1942 :     // note: only called internally from elsewhere in the STL
; 1943 : #ifdef _ENABLE_STL_INTERNAL_CHECK
; 1944 :     _STD _Adl_verify_range(_First, _Last);
; 1945 : #endif // ^^^ defined(_ENABLE_STL_INTERNAL_CHECK) ^^^
; 1946 :     using _Ptrval     = typename _Alloc::value_type*;
; 1947 :     auto _UFirst      = _STD _Get_unwrapped(_First);
; 1948 :     const auto _ULast = _STD _Get_unwrapped(_Last);
; 1949 :     if constexpr (conjunction_v<bool_constant<_Iter_move_cat<decltype(_UFirst), _Ptrval>::_Bitcopy_constructible>,
; 1950 :                       _Uses_default_construct<_Alloc, _Ptrval, decltype(_STD move(*_UFirst))>>) {
; 1951 : #if _HAS_CXX20
; 1952 :         if (!_STD is_constant_evaluated())
; 1953 : #endif // _HAS_CXX20
; 1954 :         {
; 1955 :             _STD _Copy_memmove(_UFirst, _ULast, _STD _Unfancy(_Dest));
; 1956 :             return _Dest + (_ULast - _UFirst);
; 1957 :         }
; 1958 :     }
; 1959 : 
; 1960 :     _Uninitialized_backout_al<_Alloc> _Backout{_Dest, _Al};
; 1961 :     for (; _UFirst != _ULast; ++_UFirst) {

  00003	8b 45 08	 mov	 eax, DWORD PTR __First$[ebp]
  00006	8b 55 0c	 mov	 edx, DWORD PTR __Last$[ebp]
  00009	56		 push	 esi

; 1796 :     _CONSTEXPR20 _Uninitialized_backout_al(pointer _Dest, _Alloc& _Al_) : _First(_Dest), _Last(_Dest), _Al(_Al_) {}

  0000a	8b 75 10	 mov	 esi, DWORD PTR __Dest$[ebp]

; 1941 :     // move [_First, _Last) to raw _Dest, using _Al
; 1942 :     // note: only called internally from elsewhere in the STL
; 1943 : #ifdef _ENABLE_STL_INTERNAL_CHECK
; 1944 :     _STD _Adl_verify_range(_First, _Last);
; 1945 : #endif // ^^^ defined(_ENABLE_STL_INTERNAL_CHECK) ^^^
; 1946 :     using _Ptrval     = typename _Alloc::value_type*;
; 1947 :     auto _UFirst      = _STD _Get_unwrapped(_First);
; 1948 :     const auto _ULast = _STD _Get_unwrapped(_Last);
; 1949 :     if constexpr (conjunction_v<bool_constant<_Iter_move_cat<decltype(_UFirst), _Ptrval>::_Bitcopy_constructible>,
; 1950 :                       _Uses_default_construct<_Alloc, _Ptrval, decltype(_STD move(*_UFirst))>>) {
; 1951 : #if _HAS_CXX20
; 1952 :         if (!_STD is_constant_evaluated())
; 1953 : #endif // _HAS_CXX20
; 1954 :         {
; 1955 :             _STD _Copy_memmove(_UFirst, _ULast, _STD _Unfancy(_Dest));
; 1956 :             return _Dest + (_ULast - _UFirst);
; 1957 :         }
; 1958 :     }
; 1959 : 
; 1960 :     _Uninitialized_backout_al<_Alloc> _Backout{_Dest, _Al};
; 1961 :     for (; _UFirst != _ULast; ++_UFirst) {

  0000d	3b c2		 cmp	 eax, edx
  0000f	74 4f		 je	 SHORT $LN3@Uninitiali

; 1796 :     _CONSTEXPR20 _Uninitialized_backout_al(pointer _Dest, _Alloc& _Al_) : _First(_Dest), _Last(_Dest), _Al(_Al_) {}

  00011	8b ce		 mov	 ecx, esi
  00013	2b c8		 sub	 ecx, eax
  00015	66 66 66 0f 1f
	84 00 00 00 00
	00		 npad	 11
$LL4@Uninitiali:
  00020	0f 57 c0	 xorps	 xmm0, xmm0
; File D:\Program Files\Microsoft Visual Studio\2022\Community\VC\Tools\MSVC\14.43.34808\include\xstring

; 474  :         _CONSTEXPR20 _Bxty() noexcept : _Buf() {} // user-provided, for fancy pointers

  00023	0f 11 06	 movups	 XMMWORD PTR [esi], xmm0

; 498  :     size_type _Mysize = 0; // current length of string (size)

  00026	c7 46 10 00 00
	00 00		 mov	 DWORD PTR [esi+16], 0

; 499  :     size_type _Myres  = 0; // current storage reserved for string (capacity)

  0002d	c7 44 01 14 00
	00 00 00	 mov	 DWORD PTR [ecx+eax+20], 0

; 1262 :                 _CSTD memcpy(_My_data_mem, _Right_data_mem, _Memcpy_val_size);

  00035	0f 10 00	 movups	 xmm0, XMMWORD PTR [eax]
  00038	0f 11 06	 movups	 XMMWORD PTR [esi], xmm0
  0003b	f3 0f 7e 40 10	 movq	 xmm0, QWORD PTR [eax+16]
  00040	66 0f d6 46 10	 movq	 QWORD PTR [esi+16], xmm0
; File D:\Program Files\Microsoft Visual Studio\2022\Community\VC\Tools\MSVC\14.43.34808\include\xmemory

; 1808 :         ++_Last;

  00045	83 c6 18	 add	 esi, 24			; 00000018H
; File D:\Program Files\Microsoft Visual Studio\2022\Community\VC\Tools\MSVC\14.43.34808\include\xstring

; 1264 :                 _Right_data._Mysize = 0;

  00048	c7 40 10 00 00
	00 00		 mov	 DWORD PTR [eax+16], 0

; 1265 :                 _Right_data._Myres  = _Small_string_capacity;

  0004f	c7 40 14 0f 00
	00 00		 mov	 DWORD PTR [eax+20], 15	; 0000000fH

; 1266 :                 _Right_data._Activate_SSO_buffer();
; 1267 :                 _Traits::assign(_Right_data._Bx._Buf[0], _Elem());

  00056	c6 00 00	 mov	 BYTE PTR [eax], 0
; File D:\Program Files\Microsoft Visual Studio\2022\Community\VC\Tools\MSVC\14.43.34808\include\xmemory

; 1808 :         ++_Last;

  00059	83 c0 18	 add	 eax, 24			; 00000018H

; 1941 :     // move [_First, _Last) to raw _Dest, using _Al
; 1942 :     // note: only called internally from elsewhere in the STL
; 1943 : #ifdef _ENABLE_STL_INTERNAL_CHECK
; 1944 :     _STD _Adl_verify_range(_First, _Last);
; 1945 : #endif // ^^^ defined(_ENABLE_STL_INTERNAL_CHECK) ^^^
; 1946 :     using _Ptrval     = typename _Alloc::value_type*;
; 1947 :     auto _UFirst      = _STD _Get_unwrapped(_First);
; 1948 :     const auto _ULast = _STD _Get_unwrapped(_Last);
; 1949 :     if constexpr (conjunction_v<bool_constant<_Iter_move_cat<decltype(_UFirst), _Ptrval>::_Bitcopy_constructible>,
; 1950 :                       _Uses_default_construct<_Alloc, _Ptrval, decltype(_STD move(*_UFirst))>>) {
; 1951 : #if _HAS_CXX20
; 1952 :         if (!_STD is_constant_evaluated())
; 1953 : #endif // _HAS_CXX20
; 1954 :         {
; 1955 :             _STD _Copy_memmove(_UFirst, _ULast, _STD _Unfancy(_Dest));
; 1956 :             return _Dest + (_ULast - _UFirst);
; 1957 :         }
; 1958 :     }
; 1959 : 
; 1960 :     _Uninitialized_backout_al<_Alloc> _Backout{_Dest, _Al};
; 1961 :     for (; _UFirst != _ULast; ++_UFirst) {

  0005c	3b c2		 cmp	 eax, edx
  0005e	75 c0		 jne	 SHORT $LL4@Uninitiali
$LN3@Uninitiali:

; 1802 :         _STD _Destroy_range(_First, _Last, _Al);

  00060	ff 75 14	 push	 DWORD PTR __Al$[ebp]
  00063	56		 push	 esi
  00064	56		 push	 esi
  00065	e8 00 00 00 00	 call	 ??$_Destroy_range@V?$allocator@V?$basic_string@DU?$char_traits@D@std@@V?$allocator@D@2@@std@@@std@@@std@@YAXPAV?$basic_string@DU?$char_traits@D@std@@V?$allocator@D@2@@0@QAV10@AAV?$allocator@V?$basic_string@DU?$char_traits@D@std@@V?$allocator@D@2@@std@@@0@@Z ; std::_Destroy_range<std::allocator<std::basic_string<char,std::char_traits<char>,std::allocator<char> > > >
  0006a	83 c4 0c	 add	 esp, 12			; 0000000cH

; 1962 :         _Backout._Emplace_back(_STD move(*_UFirst));
; 1963 :     }
; 1964 : 
; 1965 :     return _Backout._Release();

  0006d	8b c6		 mov	 eax, esi
  0006f	5e		 pop	 esi

; 1966 : }

  00070	5d		 pop	 ebp
  00071	c3		 ret	 0
??$_Uninitialized_move@PAV?$basic_string@DU?$char_traits@D@std@@V?$allocator@D@2@@std@@V?$allocator@V?$basic_string@DU?$char_traits@D@std@@V?$allocator@D@2@@std@@@2@@std@@YAPAV?$basic_string@DU?$char_traits@D@std@@V?$allocator@D@2@@0@QAV10@0PAV10@AAV?$allocator@V?$basic_string@DU?$char_traits@D@std@@V?$allocator@D@2@@std@@@0@@Z ENDP ; std::_Uninitialized_move<std::basic_string<char,std::char_traits<char>,std::allocator<char> > *,std::allocator<std::basic_string<char,std::char_traits<char>,std::allocator<char> > > >
_TEXT	ENDS
; Function compile flags: /Ogtp
; File D:\Program Files\Microsoft Visual Studio\2022\Community\VC\Tools\MSVC\14.43.34808\include\deque
; File D:\Program Files\Microsoft Visual Studio\2022\Community\VC\Tools\MSVC\14.43.34808\include\xmemory
; File D:\Program Files\Microsoft Visual Studio\2022\Community\VC\Tools\MSVC\14.43.34808\include\deque
; File D:\Program Files\Microsoft Visual Studio\2022\Community\VC\Tools\MSVC\14.43.34808\include\xmemory
; File D:\Program Files\Microsoft Visual Studio\2022\Community\VC\Tools\MSVC\14.43.34808\include\deque
; File D:\Program Files\Microsoft Visual Studio\2022\Community\VC\Tools\MSVC\14.43.34808\include\xmemory
; File D:\Program Files\Microsoft Visual Studio\2022\Community\VC\Tools\MSVC\14.43.34808\include\deque
; File D:\Program Files\Microsoft Visual Studio\2022\Community\VC\Tools\MSVC\14.43.34808\include\xmemory
; File D:\Program Files\Microsoft Visual Studio\2022\Community\VC\Tools\MSVC\14.43.34808\include\xstring
; File D:\Program Files\Microsoft Visual Studio\2022\Community\VC\Tools\MSVC\14.43.34808\include\__msvc_string_view.hpp
; File D:\Program Files\Microsoft Visual Studio\2022\Community\VC\Tools\MSVC\14.43.34808\include\deque
; File D:\Program Files\Microsoft Visual Studio\2022\Community\VC\Tools\MSVC\14.43.34808\include\__msvc_string_view.hpp
; File D:\Program Files\Microsoft Visual Studio\2022\Community\VC\Tools\MSVC\14.43.34808\include\deque
; File D:\Program Files\Microsoft Visual Studio\2022\Community\VC\Tools\MSVC\14.43.34808\include\xstring
; File D:\Program Files\Microsoft Visual Studio\2022\Community\VC\Tools\MSVC\14.43.34808\include\xmemory
; File D:\Program Files\Microsoft Visual Studio\2022\Community\VC\Tools\MSVC\14.43.34808\include\xstring
; File D:\Program Files\Microsoft Visual Studio\2022\Community\VC\Tools\MSVC\14.43.34808\include\xmemory
; File D:\Program Files\Microsoft Visual Studio\2022\Community\VC\Tools\MSVC\14.43.34808\include\xstring
; File D:\Program Files\Microsoft Visual Studio\2022\Community\VC\Tools\MSVC\14.43.34808\include\__msvc_string_view.hpp
; File D:\Program Files\Microsoft Visual Studio\2022\Community\VC\Tools\MSVC\14.43.34808\include\xstring
; File D:\Program Files\Microsoft Visual Studio\2022\Community\VC\Tools\MSVC\14.43.34808\include\__msvc_string_view.hpp
; File D:\Program Files\Microsoft Visual Studio\2022\Community\VC\Tools\MSVC\14.43.34808\include\xstring
; File D:\Program Files\Microsoft Visual Studio\2022\Community\VC\Tools\MSVC\14.43.34808\include\__msvc_string_view.hpp
; File D:\Program Files\Microsoft Visual Studio\2022\Community\VC\Tools\MSVC\14.43.34808\include\deque
; File D:\Program Files\Microsoft Visual Studio\2022\Community\VC\Tools\MSVC\14.43.34808\include\xstring
; File D:\Program Files\Microsoft Visual Studio\2022\Community\VC\Tools\MSVC\14.43.34808\include\deque
;	COMDAT ??$_Emplace_back_internal@ABV?$basic_string@DU?$char_traits@D@std@@V?$allocator@D@2@@std@@@?$deque@V?$basic_string@DU?$char_traits@D@std@@V?$allocator@D@2@@std@@V?$allocator@V?$basic_string@DU?$char_traits@D@std@@V?$allocator@D@2@@std@@@2@@std@@AAEXABV?$basic_string@DU?$char_traits@D@std@@V?$allocator@D@2@@1@@Z
_TEXT	SEGMENT
$T1 = -4						; size = 4
_<_Vals_0>$ = 8						; size = 4
??$_Emplace_back_internal@ABV?$basic_string@DU?$char_traits@D@std@@V?$allocator@D@2@@std@@@?$deque@V?$basic_string@DU?$char_traits@D@std@@V?$allocator@D@2@@std@@V?$allocator@V?$basic_string@DU?$char_traits@D@std@@V?$allocator@D@2@@std@@@2@@std@@AAEXABV?$basic_string@DU?$char_traits@D@std@@V?$allocator@D@2@@1@@Z PROC ; std::deque<std::basic_string<char,std::char_traits<char>,std::allocator<char> >,std::allocator<std::basic_string<char,std::char_traits<char>,std::allocator<char> > > >::_Emplace_back_internal<std::basic_string<char,std::char_traits<char>,std::allocator<char> > const &>, COMDAT
; _this$ = ecx

; 1131 :     void _Emplace_back_internal(_Tys&&... _Vals) {

  00000	55		 push	 ebp
  00001	8b ec		 mov	 ebp, esp
  00003	51		 push	 ecx
  00004	56		 push	 esi
  00005	8b f1		 mov	 esi, ecx

; 1132 :         if ((_Myoff() + _Mysize()) % _Block_size == 0 && _Mapsize() <= (_Mysize() + _Block_size) / _Block_size) {

  00007	8b 46 10	 mov	 eax, DWORD PTR [esi+16]
  0000a	40		 inc	 eax
  0000b	39 46 08	 cmp	 DWORD PTR [esi+8], eax
  0000e	77 07		 ja	 SHORT $LN2@Emplace_ba

; 1133 :             _Growmap(1);

  00010	6a 01		 push	 1
  00012	e8 00 00 00 00	 call	 ?_Growmap@?$deque@V?$basic_string@DU?$char_traits@D@std@@V?$allocator@D@2@@std@@V?$allocator@V?$basic_string@DU?$char_traits@D@std@@V?$allocator@D@2@@std@@@2@@std@@AAEXI@Z ; std::deque<std::basic_string<char,std::char_traits<char>,std::allocator<char> >,std::allocator<std::basic_string<char,std::char_traits<char>,std::allocator<char> > > >::_Growmap
$LN2@Emplace_ba:

; 1134 :         }
; 1135 :         _Myoff() &= _Mapsize() * _Block_size - 1;

  00017	8b 4e 08	 mov	 ecx, DWORD PTR [esi+8]
  0001a	53		 push	 ebx
  0001b	57		 push	 edi
  0001c	8d 41 ff	 lea	 eax, DWORD PTR [ecx-1]
  0001f	21 46 0c	 and	 DWORD PTR [esi+12], eax

; 560  :         return static_cast<_Map_difference_type>((_Off / _Block_size) & (_Mapsize - 1));

  00022	8d 41 ff	 lea	 eax, DWORD PTR [ecx-1]

; 1136 :         const auto _Newoff = static_cast<size_type>(_Myoff() + _Mysize());

  00025	8b 5e 10	 mov	 ebx, DWORD PTR [esi+16]
  00028	03 5e 0c	 add	 ebx, DWORD PTR [esi+12]

; 560  :         return static_cast<_Map_difference_type>((_Off / _Block_size) & (_Mapsize - 1));

  0002b	23 c3		 and	 eax, ebx

; 1137 :         const auto _Block  = _Getblock(_Newoff);
; 1138 :         if (_Map()[_Block] == nullptr) {

  0002d	8d 3c 85 00 00
	00 00		 lea	 edi, DWORD PTR [eax*4]
  00034	8b 46 04	 mov	 eax, DWORD PTR [esi+4]
  00037	83 3c 07 00	 cmp	 DWORD PTR [edi+eax], 0
  0003b	75 10		 jne	 SHORT $LN3@Emplace_ba
; File D:\Program Files\Microsoft Visual Studio\2022\Community\VC\Tools\MSVC\14.43.34808\include\xmemory

; 136  :         return ::operator new(_Bytes);

  0003d	6a 18		 push	 24			; 00000018H
  0003f	e8 00 00 00 00	 call	 ??2@YAPAXI@Z		; operator new
; File D:\Program Files\Microsoft Visual Studio\2022\Community\VC\Tools\MSVC\14.43.34808\include\deque

; 1139 :             _Map()[_Block] = _Getal().allocate(_Block_size);

  00044	8b 4e 04	 mov	 ecx, DWORD PTR [esi+4]
; File D:\Program Files\Microsoft Visual Studio\2022\Community\VC\Tools\MSVC\14.43.34808\include\xmemory

; 136  :         return ::operator new(_Bytes);

  00047	83 c4 04	 add	 esp, 4
; File D:\Program Files\Microsoft Visual Studio\2022\Community\VC\Tools\MSVC\14.43.34808\include\deque

; 1139 :             _Map()[_Block] = _Getal().allocate(_Block_size);

  0004a	89 04 0f	 mov	 DWORD PTR [edi+ecx], eax
$LN3@Emplace_ba:

; 560  :         return static_cast<_Map_difference_type>((_Off / _Block_size) & (_Mapsize - 1));

  0004d	8b 4e 08	 mov	 ecx, DWORD PTR [esi+8]
  00050	0f 57 c0	 xorps	 xmm0, xmm0
; File D:\Program Files\Microsoft Visual Studio\2022\Community\VC\Tools\MSVC\14.43.34808\include\xmemory

; 732  :         ::new (const_cast<void*>(static_cast<const volatile void*>(_Ptr))) _Objty(_STD forward<_Types>(_Args)...);

  00053	8b 46 04	 mov	 eax, DWORD PTR [esi+4]
; File D:\Program Files\Microsoft Visual Studio\2022\Community\VC\Tools\MSVC\14.43.34808\include\deque

; 560  :         return static_cast<_Map_difference_type>((_Off / _Block_size) & (_Mapsize - 1));

  00056	49		 dec	 ecx
  00057	23 cb		 and	 ecx, ebx
; File D:\Program Files\Microsoft Visual Studio\2022\Community\VC\Tools\MSVC\14.43.34808\include\xmemory

; 732  :         ::new (const_cast<void*>(static_cast<const volatile void*>(_Ptr))) _Objty(_STD forward<_Types>(_Args)...);

  00059	8b 1c 88	 mov	 ebx, DWORD PTR [eax+ecx*4]
; File D:\Program Files\Microsoft Visual Studio\2022\Community\VC\Tools\MSVC\14.43.34808\include\xstring

; 694  :         _Construct<_Construct_strategy::_From_string>(_Right._Mypair._Myval2._Myptr(), _Right._Mypair._Myval2._Mysize);

  0005c	8b 4d 08	 mov	 ecx, DWORD PTR _<_Vals_0>$[ebp]

; 474  :         _CONSTEXPR20 _Bxty() noexcept : _Buf() {} // user-provided, for fancy pointers

  0005f	0f 11 03	 movups	 XMMWORD PTR [ebx], xmm0

; 498  :     size_type _Mysize = 0; // current length of string (size)

  00062	c7 43 10 00 00
	00 00		 mov	 DWORD PTR [ebx+16], 0

; 499  :     size_type _Myres  = 0; // current storage reserved for string (capacity)

  00069	c7 43 14 00 00
	00 00		 mov	 DWORD PTR [ebx+20], 0

; 434  :         return _Myres > _Small_string_capacity;

  00070	83 79 14 0f	 cmp	 DWORD PTR [ecx+20], 15	; 0000000fH

; 694  :         _Construct<_Construct_strategy::_From_string>(_Right._Mypair._Myval2._Myptr(), _Right._Mypair._Myval2._Mysize);

  00074	8b 41 10	 mov	 eax, DWORD PTR [ecx+16]
  00077	89 45 fc	 mov	 DWORD PTR $T1[ebp], eax

; 426  :         if (_Large_mode_engaged()) {

  0007a	76 05		 jbe	 SHORT $LN35@Emplace_ba

; 427  :             _Result = _Unfancy(_Bx._Ptr);

  0007c	8b 09		 mov	 ecx, DWORD PTR [ecx]
  0007e	89 4d 08	 mov	 DWORD PTR _<_Vals_0>$[ebp], ecx
$LN35@Emplace_ba:

; 857  :         if (_Count > max_size()) {

  00081	3d ff ff ff 7f	 cmp	 eax, 2147483647		; 7fffffffH
  00086	0f 87 91 00 00
	00		 ja	 $LN97@Emplace_ba

; 859  :         }
; 860  : 
; 861  :         auto& _Al       = _Getal();
; 862  :         auto&& _Alproxy = _GET_PROXY_ALLOCATOR(_Alty, _Al);
; 863  :         _Container_proxy_ptr<_Alty> _Proxy(_Alproxy, _My_data);
; 864  : 
; 865  :         if (_Count <= _Small_string_capacity) {

  0008c	83 f8 0f	 cmp	 eax, 15			; 0000000fH
  0008f	77 1c		 ja	 SHORT $LN43@Emplace_ba

; 866  :             _My_data._Mysize = _Count;

  00091	89 43 10	 mov	 DWORD PTR [ebx+16], eax

; 867  :             _My_data._Myres  = _Small_string_capacity;

  00094	c7 43 14 0f 00
	00 00		 mov	 DWORD PTR [ebx+20], 15	; 0000000fH
; File D:\Program Files\Microsoft Visual Studio\2022\Community\VC\Tools\MSVC\14.43.34808\include\__msvc_string_view.hpp

; 95   :         _CSTD memcpy(_First1, _First2, _Count * sizeof(_Elem));

  0009b	0f 10 01	 movups	 xmm0, XMMWORD PTR [ecx]
; File D:\Program Files\Microsoft Visual Studio\2022\Community\VC\Tools\MSVC\14.43.34808\include\deque

; 1144 :         ++_Mysize();

  0009e	5f		 pop	 edi
; File D:\Program Files\Microsoft Visual Studio\2022\Community\VC\Tools\MSVC\14.43.34808\include\__msvc_string_view.hpp

; 95   :         _CSTD memcpy(_First1, _First2, _Count * sizeof(_Elem));

  0009f	0f 11 03	 movups	 XMMWORD PTR [ebx], xmm0
; File D:\Program Files\Microsoft Visual Studio\2022\Community\VC\Tools\MSVC\14.43.34808\include\deque

; 1144 :         ++_Mysize();

  000a2	ff 46 10	 inc	 DWORD PTR [esi+16]
  000a5	5b		 pop	 ebx

; 1145 :     }

  000a6	5e		 pop	 esi
  000a7	8b e5		 mov	 esp, ebp
  000a9	5d		 pop	 ebp
  000aa	c2 04 00	 ret	 4
$LN43@Emplace_ba:
; File D:\Program Files\Microsoft Visual Studio\2022\Community\VC\Tools\MSVC\14.43.34808\include\xstring

; 2942 :         const size_type _Masked = _Requested | _Alloc_mask;

  000ad	8b f8		 mov	 edi, eax
  000af	83 cf 0f	 or	 edi, 15			; 0000000fH
  000b2	81 ff ff ff ff
	7f		 cmp	 edi, 2147483647		; 7fffffffH

; 2943 :         if (_Masked > _Max) { // the mask overflows, settle for max_size()

  000b8	76 12		 jbe	 SHORT $LN49@Emplace_ba

; 2944 :             return _Max;

  000ba	b9 00 00 00 80	 mov	 ecx, -2147483648	; 80000000H
  000bf	bf ff ff ff 7f	 mov	 edi, 2147483647		; 7fffffffH
; File D:\Program Files\Microsoft Visual Studio\2022\Community\VC\Tools\MSVC\14.43.34808\include\xmemory

; 253  :             return _Allocate_manually_vector_aligned<_Traits>(_Bytes);

  000c4	51		 push	 ecx
  000c5	e8 00 00 00 00	 call	 ??$_Allocate_manually_vector_aligned@U_Default_allocate_traits@std@@@std@@YAPAXI@Z ; std::_Allocate_manually_vector_aligned<std::_Default_allocate_traits>
  000ca	eb 27		 jmp	 SHORT $LN95@Emplace_ba
$LN49@Emplace_ba:
; File D:\Program Files\Microsoft Visual Studio\2022\Community\VC\Tools\MSVC\14.43.34808\include\xstring

; 2951 :         return (_STD max)(_Masked, _Old + _Old / 2);

  000cc	b9 16 00 00 00	 mov	 ecx, 22			; 00000016H
  000d1	3b f9		 cmp	 edi, ecx
  000d3	0f 42 f9	 cmovb	 edi, ecx

; 801  :         ++_Capacity; // Take null terminator into consideration

  000d6	8d 4f 01	 lea	 ecx, DWORD PTR [edi+1]
; File D:\Program Files\Microsoft Visual Studio\2022\Community\VC\Tools\MSVC\14.43.34808\include\xmemory

; 227  :     if (_Bytes == 0) {

  000d9	85 c9		 test	 ecx, ecx
  000db	74 1e		 je	 SHORT $LN62@Emplace_ba
$LN63@Emplace_ba:

; 228  :         return nullptr;
; 229  :     }
; 230  : 
; 231  : #if _HAS_CXX20 // TRANSITION, GH-1532
; 232  :     if (_STD is_constant_evaluated()) {
; 233  :         return _Traits::_Allocate(_Bytes);
; 234  :     }
; 235  : #endif // _HAS_CXX20
; 236  : 
; 237  : #ifdef __cpp_aligned_new
; 238  :     if constexpr (_Align > __STDCPP_DEFAULT_NEW_ALIGNMENT__) {
; 239  :         size_t _Passed_align = _Align;
; 240  : #if defined(_M_IX86) || defined(_M_X64)
; 241  :         if (_Bytes >= _Big_allocation_threshold) {
; 242  :             // boost the alignment of big allocations to help autovectorization
; 243  :             _Passed_align = (_STD max)(_Align, _Big_allocation_alignment);
; 244  :         }
; 245  : #endif // defined(_M_IX86) || defined(_M_X64)
; 246  :         return _Traits::_Allocate_aligned(_Bytes, _Passed_align);
; 247  :     } else
; 248  : #endif // defined(__cpp_aligned_new)
; 249  :     {
; 250  : #if defined(_M_IX86) || defined(_M_X64)
; 251  :         if (_Bytes >= _Big_allocation_threshold) {

  000dd	81 f9 00 10 00
	00		 cmp	 ecx, 4096		; 00001000H
  000e3	72 08		 jb	 SHORT $LN64@Emplace_ba

; 253  :             return _Allocate_manually_vector_aligned<_Traits>(_Bytes);

  000e5	51		 push	 ecx
  000e6	e8 00 00 00 00	 call	 ??$_Allocate_manually_vector_aligned@U_Default_allocate_traits@std@@@std@@YAPAXI@Z ; std::_Allocate_manually_vector_aligned<std::_Default_allocate_traits>
  000eb	eb 06		 jmp	 SHORT $LN95@Emplace_ba
$LN64@Emplace_ba:

; 136  :         return ::operator new(_Bytes);

  000ed	51		 push	 ecx
  000ee	e8 00 00 00 00	 call	 ??2@YAPAXI@Z		; operator new
$LN95@Emplace_ba:
; File D:\Program Files\Microsoft Visual Studio\2022\Community\VC\Tools\MSVC\14.43.34808\include\xstring

; 889  :         _Construct_in_place(_My_data._Bx._Ptr, _New_ptr);

  000f3	8b c8		 mov	 ecx, eax
  000f5	83 c4 04	 add	 esp, 4
  000f8	8b 45 fc	 mov	 eax, DWORD PTR $T1[ebp]
$LN62@Emplace_ba:

; 890  : 
; 891  :         _My_data._Mysize = _Count;

  000fb	89 43 10	 mov	 DWORD PTR [ebx+16], eax

; 893  :         if constexpr (_Strat == _Construct_strategy::_From_char) {
; 894  :             _Traits::assign(_Unfancy(_New_ptr), _Count, _Arg);
; 895  :             _Traits::assign(_Unfancy(_New_ptr)[_Count], _Elem());
; 896  :         } else if constexpr (_Strat == _Construct_strategy::_From_ptr) {
; 897  :             _Traits::copy(_Unfancy(_New_ptr), _Arg, _Count);
; 898  :             _Traits::assign(_Unfancy(_New_ptr)[_Count], _Elem());
; 899  :         } else { // _Strat == _Construct_strategy::_From_string
; 900  :             _Traits::copy(_Unfancy(_New_ptr), _Arg, _Count + 1);

  000fe	40		 inc	 eax
; File D:\Program Files\Microsoft Visual Studio\2022\Community\VC\Tools\MSVC\14.43.34808\include\__msvc_string_view.hpp

; 95   :         _CSTD memcpy(_First1, _First2, _Count * sizeof(_Elem));

  000ff	50		 push	 eax
  00100	ff 75 08	 push	 DWORD PTR _<_Vals_0>$[ebp]
; File D:\Program Files\Microsoft Visual Studio\2022\Community\VC\Tools\MSVC\14.43.34808\include\xstring

; 889  :         _Construct_in_place(_My_data._Bx._Ptr, _New_ptr);

  00103	89 0b		 mov	 DWORD PTR [ebx], ecx
; File D:\Program Files\Microsoft Visual Studio\2022\Community\VC\Tools\MSVC\14.43.34808\include\__msvc_string_view.hpp

; 95   :         _CSTD memcpy(_First1, _First2, _Count * sizeof(_Elem));

  00105	51		 push	 ecx
; File D:\Program Files\Microsoft Visual Studio\2022\Community\VC\Tools\MSVC\14.43.34808\include\xstring

; 892  :         _My_data._Myres  = _New_capacity;

  00106	89 7b 14	 mov	 DWORD PTR [ebx+20], edi
; File D:\Program Files\Microsoft Visual Studio\2022\Community\VC\Tools\MSVC\14.43.34808\include\__msvc_string_view.hpp

; 95   :         _CSTD memcpy(_First1, _First2, _Count * sizeof(_Elem));

  00109	e8 00 00 00 00	 call	 _memcpy
  0010e	83 c4 0c	 add	 esp, 12			; 0000000cH
; File D:\Program Files\Microsoft Visual Studio\2022\Community\VC\Tools\MSVC\14.43.34808\include\deque

; 1144 :         ++_Mysize();

  00111	ff 46 10	 inc	 DWORD PTR [esi+16]
  00114	5f		 pop	 edi
  00115	5b		 pop	 ebx

; 1145 :     }

  00116	5e		 pop	 esi
  00117	8b e5		 mov	 esp, ebp
  00119	5d		 pop	 ebp
  0011a	c2 04 00	 ret	 4
$LN97@Emplace_ba:
; File D:\Program Files\Microsoft Visual Studio\2022\Community\VC\Tools\MSVC\14.43.34808\include\xstring

; 858  :             _Xlen_string(); // result too long

  0011d	e8 00 00 00 00	 call	 ?_Xlen_string@std@@YAXXZ ; std::_Xlen_string
$LN94@Emplace_ba:
  00122	cc		 int	 3
??$_Emplace_back_internal@ABV?$basic_string@DU?$char_traits@D@std@@V?$allocator@D@2@@std@@@?$deque@V?$basic_string@DU?$char_traits@D@std@@V?$allocator@D@2@@std@@V?$allocator@V?$basic_string@DU?$char_traits@D@std@@V?$allocator@D@2@@std@@@2@@std@@AAEXABV?$basic_string@DU?$char_traits@D@std@@V?$allocator@D@2@@1@@Z ENDP ; std::deque<std::basic_string<char,std::char_traits<char>,std::allocator<char> >,std::allocator<std::basic_string<char,std::char_traits<char>,std::allocator<char> > > >::_Emplace_back_internal<std::basic_string<char,std::char_traits<char>,std::allocator<char> > const &>
_TEXT	ENDS
; Function compile flags: /Ogtp
; File D:\Program Files\Microsoft Visual Studio\2022\Community\VC\Tools\MSVC\14.43.34808\include\xmemory
; File D:\Program Files\Microsoft Visual Studio\2022\Community\VC\Tools\MSVC\14.43.34808\include\xstring
; File D:\Program Files\Microsoft Visual Studio\2022\Community\VC\Tools\MSVC\14.43.34808\include\xmemory
; File D:\Program Files\Microsoft Visual Studio\2022\Community\VC\Tools\MSVC\14.43.34808\include\xstring
; File D:\Program Files\Microsoft Visual Studio\2022\Community\VC\Tools\MSVC\14.43.34808\include\xmemory
; File D:\Program Files\Microsoft Visual Studio\2022\Community\VC\Tools\MSVC\14.43.34808\include\xstring
; File D:\Program Files\Microsoft Visual Studio\2022\Community\VC\Tools\MSVC\14.43.34808\include\xmemory
;	COMDAT ??$_Destroy_range@V?$allocator@V?$basic_string@DU?$char_traits@D@std@@V?$allocator@D@2@@std@@@std@@@std@@YAXPAV?$basic_string@DU?$char_traits@D@std@@V?$allocator@D@2@@0@QAV10@AAV?$allocator@V?$basic_string@DU?$char_traits@D@std@@V?$allocator@D@2@@std@@@0@@Z
_TEXT	SEGMENT
__First$ = 8						; size = 4
__Last$ = 12						; size = 4
__Al$ = 16						; size = 4
??$_Destroy_range@V?$allocator@V?$basic_string@DU?$char_traits@D@std@@V?$allocator@D@2@@std@@@std@@@std@@YAXPAV?$basic_string@DU?$char_traits@D@std@@V?$allocator@D@2@@0@QAV10@AAV?$allocator@V?$basic_string@DU?$char_traits@D@std@@V?$allocator@D@2@@std@@@0@@Z PROC ; std::_Destroy_range<std::allocator<std::basic_string<char,std::char_traits<char>,std::allocator<char> > > >, COMDAT

; 1094 : _CONSTEXPR20 void _Destroy_range(_Alloc_ptr_t<_Alloc> _First, const _Alloc_ptr_t<_Alloc> _Last, _Alloc& _Al) noexcept {

  00000	55		 push	 ebp
  00001	8b ec		 mov	 ebp, esp
  00003	56		 push	 esi

; 1098 :         for (; _First != _Last; ++_First) {

  00004	8b 75 08	 mov	 esi, DWORD PTR __First$[ebp]
  00007	57		 push	 edi
  00008	8b 7d 0c	 mov	 edi, DWORD PTR __Last$[ebp]
  0000b	3b f7		 cmp	 esi, edi
  0000d	74 48		 je	 SHORT $LN55@Destroy_ra
  0000f	90		 npad	 1
$LL4@Destroy_ra:
; File D:\Program Files\Microsoft Visual Studio\2022\Community\VC\Tools\MSVC\14.43.34808\include\xstring

; 434  :         return _Myres > _Small_string_capacity;

  00010	8b 4e 14	 mov	 ecx, DWORD PTR [esi+20]
  00013	83 f9 0f	 cmp	 ecx, 15			; 0000000fH

; 3047 :         if (_My_data._Large_mode_engaged()) {

  00016	76 27		 jbe	 SHORT $LN33@Destroy_ra
; File D:\Program Files\Microsoft Visual Studio\2022\Community\VC\Tools\MSVC\14.43.34808\include\xmemory

; 981  :         _STD _Deallocate<_New_alignof<_Ty>>(_Ptr, sizeof(_Ty) * _Count);

  00018	8b 06		 mov	 eax, DWORD PTR [esi]
; File D:\Program Files\Microsoft Visual Studio\2022\Community\VC\Tools\MSVC\14.43.34808\include\xstring

; 828  :         _Al.deallocate(_Old_ptr, _Capacity + 1); // +1 for null terminator

  0001a	41		 inc	 ecx
; File D:\Program Files\Microsoft Visual Studio\2022\Community\VC\Tools\MSVC\14.43.34808\include\xmemory

; 284  :         if (_Bytes >= _Big_allocation_threshold) {

  0001b	81 f9 00 10 00
	00		 cmp	 ecx, 4096		; 00001000H
  00021	72 12		 jb	 SHORT $LN44@Destroy_ra

; 205  :     const uintptr_t _Ptr_container   = _Ptr_user[-1];

  00023	8b 50 fc	 mov	 edx, DWORD PTR [eax-4]
  00026	83 c1 23	 add	 ecx, 35			; 00000023H

; 206  : 
; 207  :     // If the following asserts, it likely means that we are performing
; 208  :     // an aligned delete on memory coming from an unaligned allocation.
; 209  :     _STL_ASSERT(_Ptr_user[-2] == _Big_allocation_sentinel, "invalid argument");
; 210  : 
; 211  :     // Extra paranoia on aligned allocation/deallocation; ensure _Ptr_container is
; 212  :     // in range [_Min_back_shift, _Non_user_size]
; 213  : #ifdef _DEBUG
; 214  :     constexpr uintptr_t _Min_back_shift = 2 * sizeof(void*);
; 215  : #else // ^^^ defined(_DEBUG) / !defined(_DEBUG) vvv
; 216  :     constexpr uintptr_t _Min_back_shift = sizeof(void*);
; 217  : #endif // ^^^ !defined(_DEBUG) ^^^
; 218  :     const uintptr_t _Back_shift = reinterpret_cast<uintptr_t>(_Ptr) - _Ptr_container;

  00029	2b c2		 sub	 eax, edx

; 219  :     _STL_VERIFY(_Back_shift >= _Min_back_shift && _Back_shift <= _Non_user_size, "invalid argument");

  0002b	83 c0 fc	 add	 eax, -4			; fffffffcH
  0002e	83 f8 1f	 cmp	 eax, 31			; 0000001fH
  00031	77 28		 ja	 SHORT $LN41@Destroy_ra

; 220  :     _Ptr = reinterpret_cast<void*>(_Ptr_container);

  00033	8b c2		 mov	 eax, edx
$LN44@Destroy_ra:

; 289  :         ::operator delete(_Ptr, _Bytes);

  00035	51		 push	 ecx
  00036	50		 push	 eax
  00037	e8 00 00 00 00	 call	 ??3@YAXPAXI@Z		; operator delete
  0003c	83 c4 08	 add	 esp, 8
$LN33@Destroy_ra:
; File D:\Program Files\Microsoft Visual Studio\2022\Community\VC\Tools\MSVC\14.43.34808\include\xstring

; 3054 :         _My_data._Mysize = 0;

  0003f	c7 46 10 00 00
	00 00		 mov	 DWORD PTR [esi+16], 0

; 3055 :         _My_data._Myres  = _Small_string_capacity;

  00046	c7 46 14 0f 00
	00 00		 mov	 DWORD PTR [esi+20], 15	; 0000000fH

; 3056 :         // the _Traits::assign is last so the codegen doesn't think the char write can alias this
; 3057 :         _Traits::assign(_My_data._Bx._Buf[0], _Elem());

  0004d	c6 06 00	 mov	 BYTE PTR [esi], 0
; File D:\Program Files\Microsoft Visual Studio\2022\Community\VC\Tools\MSVC\14.43.34808\include\xmemory

; 1098 :         for (; _First != _Last; ++_First) {

  00050	83 c6 18	 add	 esi, 24			; 00000018H
  00053	3b f7		 cmp	 esi, edi
  00055	75 b9		 jne	 SHORT $LL4@Destroy_ra
$LN55@Destroy_ra:
  00057	5f		 pop	 edi

; 1099 :             allocator_traits<_Alloc>::destroy(_Al, _STD _Unfancy(_First));
; 1100 :         }
; 1101 :     }
; 1102 : }

  00058	5e		 pop	 esi
  00059	5d		 pop	 ebp
  0005a	c3		 ret	 0
$LN41@Destroy_ra:

; 219  :     _STL_VERIFY(_Back_shift >= _Min_back_shift && _Back_shift <= _Non_user_size, "invalid argument");

  0005b	e8 00 00 00 00	 call	 __invalid_parameter_noinfo_noreturn
$LN62@Destroy_ra:
  00060	cc		 int	 3
??$_Destroy_range@V?$allocator@V?$basic_string@DU?$char_traits@D@std@@V?$allocator@D@2@@std@@@std@@@std@@YAXPAV?$basic_string@DU?$char_traits@D@std@@V?$allocator@D@2@@0@QAV10@AAV?$allocator@V?$basic_string@DU?$char_traits@D@std@@V?$allocator@D@2@@std@@@0@@Z ENDP ; std::_Destroy_range<std::allocator<std::basic_string<char,std::char_traits<char>,std::allocator<char> > > >
_TEXT	ENDS
; Function compile flags: /Ogtp
; File D:\Program Files\Microsoft Visual Studio\2022\Community\VC\Tools\MSVC\14.43.34808\include\vector
;	COMDAT ?_Xlength@?$vector@V?$basic_string@DU?$char_traits@D@std@@V?$allocator@D@2@@std@@V?$allocator@V?$basic_string@DU?$char_traits@D@std@@V?$allocator@D@2@@std@@@2@@std@@CAXXZ
_TEXT	SEGMENT
?_Xlength@?$vector@V?$basic_string@DU?$char_traits@D@std@@V?$allocator@D@2@@std@@V?$allocator@V?$basic_string@DU?$char_traits@D@std@@V?$allocator@D@2@@std@@@2@@std@@CAXXZ PROC ; std::vector<std::basic_string<char,std::char_traits<char>,std::allocator<char> >,std::allocator<std::basic_string<char,std::char_traits<char>,std::allocator<char> > > >::_Xlength, COMDAT

; 2169 :         _Xlength_error("vector too long");

  00000	68 00 00 00 00	 push	 OFFSET ??_C@_0BA@FOIKENOD@vector?5too?5long@
  00005	e8 00 00 00 00	 call	 ?_Xlength_error@std@@YAXPBD@Z ; std::_Xlength_error
$LN3@Xlength:
  0000a	cc		 int	 3
?_Xlength@?$vector@V?$basic_string@DU?$char_traits@D@std@@V?$allocator@D@2@@std@@V?$allocator@V?$basic_string@DU?$char_traits@D@std@@V?$allocator@D@2@@std@@@2@@std@@CAXXZ ENDP ; std::vector<std::basic_string<char,std::char_traits<char>,std::allocator<char> >,std::allocator<std::basic_string<char,std::char_traits<char>,std::allocator<char> > > >::_Xlength
_TEXT	ENDS
; Function compile flags: /Ogtp
; File D:\Program Files\Microsoft Visual Studio\2022\Community\VC\Tools\MSVC\14.43.34808\include\vector
; File D:\Program Files\Microsoft Visual Studio\2022\Community\VC\Tools\MSVC\14.43.34808\include\xmemory
; File D:\Program Files\Microsoft Visual Studio\2022\Community\VC\Tools\MSVC\14.43.34808\include\vector
; File D:\Program Files\Microsoft Visual Studio\2022\Community\VC\Tools\MSVC\14.43.34808\include\xmemory
; File D:\Program Files\Microsoft Visual Studio\2022\Community\VC\Tools\MSVC\14.43.34808\include\vector
;	COMDAT ?_Change_array@?$vector@V?$basic_string@DU?$char_traits@D@std@@V?$allocator@D@2@@std@@V?$allocator@V?$basic_string@DU?$char_traits@D@std@@V?$allocator@D@2@@std@@@2@@std@@AAEXQAV?$basic_string@DU?$char_traits@D@std@@V?$allocator@D@2@@2@II@Z
_TEXT	SEGMENT
__Newvec$ = 8						; size = 4
__Newsize$ = 12						; size = 4
__Newcapacity$ = 16					; size = 4
?_Change_array@?$vector@V?$basic_string@DU?$char_traits@D@std@@V?$allocator@D@2@@std@@V?$allocator@V?$basic_string@DU?$char_traits@D@std@@V?$allocator@D@2@@std@@@2@@std@@AAEXQAV?$basic_string@DU?$char_traits@D@std@@V?$allocator@D@2@@2@II@Z PROC ; std::vector<std::basic_string<char,std::char_traits<char>,std::allocator<char> >,std::allocator<std::basic_string<char,std::char_traits<char>,std::allocator<char> > > >::_Change_array, COMDAT
; _this$ = ecx

; 2044 :         const pointer _Newvec, const size_type _Newsize, const size_type _Newcapacity) noexcept {

  00000	55		 push	 ebp
  00001	8b ec		 mov	 ebp, esp
  00003	57		 push	 edi
  00004	8b f9		 mov	 edi, ecx

; 2045 :         // orphan all iterators, discard old array, acquire new array
; 2046 :         auto& _Al         = _Getal();
; 2047 :         auto& _My_data    = _Mypair._Myval2;
; 2048 :         pointer& _Myfirst = _My_data._Myfirst;
; 2049 :         pointer& _Mylast  = _My_data._Mylast;
; 2050 :         pointer& _Myend   = _My_data._Myend;
; 2051 : 
; 2052 :         _My_data._Orphan_all();
; 2053 : 
; 2054 :         if (_Myfirst) { // destroy and deallocate old array

  00006	8b 07		 mov	 eax, DWORD PTR [edi]
  00008	85 c0		 test	 eax, eax
  0000a	74 51		 je	 SHORT $LN10@Change_arr

; 2055 :             _STD _Destroy_range(_Myfirst, _Mylast, _Al);

  0000c	56		 push	 esi
  0000d	57		 push	 edi
  0000e	ff 77 04	 push	 DWORD PTR [edi+4]
  00011	50		 push	 eax
  00012	e8 00 00 00 00	 call	 ??$_Destroy_range@V?$allocator@V?$basic_string@DU?$char_traits@D@std@@V?$allocator@D@2@@std@@@std@@@std@@YAXPAV?$basic_string@DU?$char_traits@D@std@@V?$allocator@D@2@@0@QAV10@AAV?$allocator@V?$basic_string@DU?$char_traits@D@std@@V?$allocator@D@2@@std@@@0@@Z ; std::_Destroy_range<std::allocator<std::basic_string<char,std::char_traits<char>,std::allocator<char> > > >

; 2056 :             _ASAN_VECTOR_REMOVE;
; 2057 :             _Al.deallocate(_Myfirst, static_cast<size_type>(_Myend - _Myfirst));

  00017	8b 4f 08	 mov	 ecx, DWORD PTR [edi+8]
  0001a	b8 ab aa aa 2a	 mov	 eax, 715827883		; 2aaaaaabH
  0001f	8b 37		 mov	 esi, DWORD PTR [edi]
  00021	83 c4 0c	 add	 esp, 12			; 0000000cH
  00024	2b ce		 sub	 ecx, esi
  00026	f7 e9		 imul	 ecx
  00028	c1 fa 02	 sar	 edx, 2
  0002b	8b c2		 mov	 eax, edx
  0002d	c1 e8 1f	 shr	 eax, 31			; 0000001fH
  00030	03 c2		 add	 eax, edx
; File D:\Program Files\Microsoft Visual Studio\2022\Community\VC\Tools\MSVC\14.43.34808\include\xmemory

; 981  :         _STD _Deallocate<_New_alignof<_Ty>>(_Ptr, sizeof(_Ty) * _Count);

  00032	8d 0c 40	 lea	 ecx, DWORD PTR [eax+eax*2]
  00035	c1 e1 03	 shl	 ecx, 3

; 284  :         if (_Bytes >= _Big_allocation_threshold) {

  00038	81 f9 00 10 00
	00		 cmp	 ecx, 4096		; 00001000H
  0003e	72 12		 jb	 SHORT $LN21@Change_arr

; 205  :     const uintptr_t _Ptr_container   = _Ptr_user[-1];

  00040	8b 56 fc	 mov	 edx, DWORD PTR [esi-4]
  00043	83 c1 23	 add	 ecx, 35			; 00000023H

; 206  : 
; 207  :     // If the following asserts, it likely means that we are performing
; 208  :     // an aligned delete on memory coming from an unaligned allocation.
; 209  :     _STL_ASSERT(_Ptr_user[-2] == _Big_allocation_sentinel, "invalid argument");
; 210  : 
; 211  :     // Extra paranoia on aligned allocation/deallocation; ensure _Ptr_container is
; 212  :     // in range [_Min_back_shift, _Non_user_size]
; 213  : #ifdef _DEBUG
; 214  :     constexpr uintptr_t _Min_back_shift = 2 * sizeof(void*);
; 215  : #else // ^^^ defined(_DEBUG) / !defined(_DEBUG) vvv
; 216  :     constexpr uintptr_t _Min_back_shift = sizeof(void*);
; 217  : #endif // ^^^ !defined(_DEBUG) ^^^
; 218  :     const uintptr_t _Back_shift = reinterpret_cast<uintptr_t>(_Ptr) - _Ptr_container;

  00046	2b f2		 sub	 esi, edx

; 219  :     _STL_VERIFY(_Back_shift >= _Min_back_shift && _Back_shift <= _Non_user_size, "invalid argument");

  00048	8d 46 fc	 lea	 eax, DWORD PTR [esi-4]
  0004b	83 f8 1f	 cmp	 eax, 31			; 0000001fH
  0004e	77 2f		 ja	 SHORT $LN18@Change_arr

; 220  :     _Ptr = reinterpret_cast<void*>(_Ptr_container);

  00050	8b f2		 mov	 esi, edx
$LN21@Change_arr:

; 289  :         ::operator delete(_Ptr, _Bytes);

  00052	51		 push	 ecx
  00053	56		 push	 esi
  00054	e8 00 00 00 00	 call	 ??3@YAXPAXI@Z		; operator delete
  00059	83 c4 08	 add	 esp, 8
  0005c	5e		 pop	 esi
$LN10@Change_arr:
; File D:\Program Files\Microsoft Visual Studio\2022\Community\VC\Tools\MSVC\14.43.34808\include\vector

; 2060 :         _Myfirst = _Newvec;

  0005d	8b 4d 08	 mov	 ecx, DWORD PTR __Newvec$[ebp]

; 2061 :         _Mylast  = _Newvec + _Newsize;

  00060	8b 45 0c	 mov	 eax, DWORD PTR __Newsize$[ebp]
  00063	89 0f		 mov	 DWORD PTR [edi], ecx
  00065	8d 04 40	 lea	 eax, DWORD PTR [eax+eax*2]
  00068	8d 04 c1	 lea	 eax, DWORD PTR [ecx+eax*8]
  0006b	89 47 04	 mov	 DWORD PTR [edi+4], eax

; 2062 :         _Myend   = _Newvec + _Newcapacity;

  0006e	8b 45 10	 mov	 eax, DWORD PTR __Newcapacity$[ebp]
  00071	8d 04 40	 lea	 eax, DWORD PTR [eax+eax*2]
  00074	8d 04 c1	 lea	 eax, DWORD PTR [ecx+eax*8]
  00077	89 47 08	 mov	 DWORD PTR [edi+8], eax
  0007a	5f		 pop	 edi

; 2064 :     }

  0007b	5d		 pop	 ebp
  0007c	c2 0c 00	 ret	 12			; 0000000cH
$LN18@Change_arr:
; File D:\Program Files\Microsoft Visual Studio\2022\Community\VC\Tools\MSVC\14.43.34808\include\xmemory

; 219  :     _STL_VERIFY(_Back_shift >= _Min_back_shift && _Back_shift <= _Non_user_size, "invalid argument");

  0007f	e8 00 00 00 00	 call	 __invalid_parameter_noinfo_noreturn
$LN28@Change_arr:
  00084	cc		 int	 3
?_Change_array@?$vector@V?$basic_string@DU?$char_traits@D@std@@V?$allocator@D@2@@std@@V?$allocator@V?$basic_string@DU?$char_traits@D@std@@V?$allocator@D@2@@std@@@2@@std@@AAEXQAV?$basic_string@DU?$char_traits@D@std@@V?$allocator@D@2@@2@II@Z ENDP ; std::vector<std::basic_string<char,std::char_traits<char>,std::allocator<char> >,std::allocator<std::basic_string<char,std::char_traits<char>,std::allocator<char> > > >::_Change_array
_TEXT	ENDS
; Function compile flags: /Ogtp
; File D:\Program Files\Microsoft Visual Studio\2022\Community\VC\Tools\MSVC\14.43.34808\include\deque
; File D:\Program Files\Microsoft Visual Studio\2022\Community\VC\Tools\MSVC\14.43.34808\include\utility
; File D:\Program Files\Microsoft Visual Studio\2022\Community\VC\Tools\MSVC\14.43.34808\include\xmemory
; File D:\Program Files\Microsoft Visual Studio\2022\Community\VC\Tools\MSVC\14.43.34808\include\utility
; File D:\Program Files\Microsoft Visual Studio\2022\Community\VC\Tools\MSVC\14.43.34808\include\xmemory
;	COMDAT ??__F?ms_strDirectoryDeque@CDirRemover@@1V?$deque@V?$basic_string@DU?$char_traits@D@std@@V?$allocator@D@2@@std@@V?$allocator@V?$basic_string@DU?$char_traits@D@std@@V?$allocator@D@2@@std@@@2@@std@@A@@YAXXZ
text$yd	SEGMENT
??__F?ms_strDirectoryDeque@CDirRemover@@1V?$deque@V?$basic_string@DU?$char_traits@D@std@@V?$allocator@D@2@@std@@V?$allocator@V?$basic_string@DU?$char_traits@D@std@@V?$allocator@D@2@@std@@@2@@std@@A@@YAXXZ PROC ; `dynamic atexit destructor for 'CDirRemover::ms_strDirectoryDeque'', COMDAT
; File D:\Program Files\Microsoft Visual Studio\2022\Community\VC\Tools\MSVC\14.43.34808\include\deque

; 762  :         _Tidy();

  00000	b9 00 00 00 00	 mov	 ecx, OFFSET ?ms_strDirectoryDeque@CDirRemover@@1V?$deque@V?$basic_string@DU?$char_traits@D@std@@V?$allocator@D@2@@std@@V?$allocator@V?$basic_string@DU?$char_traits@D@std@@V?$allocator@D@2@@std@@@2@@std@@A ; CDirRemover::ms_strDirectoryDeque
  00005	e8 00 00 00 00	 call	 ?_Tidy@?$deque@V?$basic_string@DU?$char_traits@D@std@@V?$allocator@D@2@@std@@V?$allocator@V?$basic_string@DU?$char_traits@D@std@@V?$allocator@D@2@@std@@@2@@std@@AAEXXZ ; std::deque<std::basic_string<char,std::char_traits<char>,std::allocator<char> >,std::allocator<std::basic_string<char,std::char_traits<char>,std::allocator<char> > > >::_Tidy
; File D:\Program Files\Microsoft Visual Studio\2022\Community\VC\Tools\MSVC\14.43.34808\include\utility

; 773  :     _Ty _Old_val = static_cast<_Ty&&>(_Val);

  0000a	a1 00 00 00 00	 mov	 eax, DWORD PTR ?ms_strDirectoryDeque@CDirRemover@@1V?$deque@V?$basic_string@DU?$char_traits@D@std@@V?$allocator@D@2@@std@@V?$allocator@V?$basic_string@DU?$char_traits@D@std@@V?$allocator@D@2@@std@@@2@@std@@A
; File D:\Program Files\Microsoft Visual Studio\2022\Community\VC\Tools\MSVC\14.43.34808\include\xmemory

; 289  :         ::operator delete(_Ptr, _Bytes);

  0000f	6a 08		 push	 8
  00011	50		 push	 eax
; File D:\Program Files\Microsoft Visual Studio\2022\Community\VC\Tools\MSVC\14.43.34808\include\utility

; 774  :     _Val         = static_cast<_Other&&>(_New_val);

  00012	c7 05 00 00 00
	00 00 00 00 00	 mov	 DWORD PTR ?ms_strDirectoryDeque@CDirRemover@@1V?$deque@V?$basic_string@DU?$char_traits@D@std@@V?$allocator@D@2@@std@@V?$allocator@V?$basic_string@DU?$char_traits@D@std@@V?$allocator@D@2@@std@@@2@@std@@A, 0
; File D:\Program Files\Microsoft Visual Studio\2022\Community\VC\Tools\MSVC\14.43.34808\include\xmemory

; 289  :         ::operator delete(_Ptr, _Bytes);

  0001c	e8 00 00 00 00	 call	 ??3@YAXPAXI@Z		; operator delete
  00021	83 c4 08	 add	 esp, 8
  00024	c3		 ret	 0
??__F?ms_strDirectoryDeque@CDirRemover@@1V?$deque@V?$basic_string@DU?$char_traits@D@std@@V?$allocator@D@2@@std@@V?$allocator@V?$basic_string@DU?$char_traits@D@std@@V?$allocator@D@2@@std@@@2@@std@@A@@YAXXZ ENDP ; `dynamic atexit destructor for 'CDirRemover::ms_strDirectoryDeque''
text$yd	ENDS
; Function compile flags: /Ogtp
; File C:\Marty 5.5\Src-Client\Client\EterBase\Utils.cpp
; File D:\Program Files\Microsoft Visual Studio\2022\Community\VC\Tools\MSVC\14.43.34808\include\xmemory
; File C:\Marty 5.5\Src-Client\Client\EterBase\Utils.cpp
; File D:\Program Files\Microsoft Visual Studio\2022\Community\VC\Tools\MSVC\14.43.34808\include\xmemory
; File C:\Marty 5.5\Src-Client\Client\EterBase\Utils.cpp
;	COMDAT ??__E?ms_strDirectoryDeque@CDirRemover@@1V?$deque@V?$basic_string@DU?$char_traits@D@std@@V?$allocator@D@2@@std@@V?$allocator@V?$basic_string@DU?$char_traits@D@std@@V?$allocator@D@2@@std@@@2@@std@@A@@YAXXZ
text$di	SEGMENT
??__E?ms_strDirectoryDeque@CDirRemover@@1V?$deque@V?$basic_string@DU?$char_traits@D@std@@V?$allocator@D@2@@std@@V?$allocator@V?$basic_string@DU?$char_traits@D@std@@V?$allocator@D@2@@std@@@2@@std@@A@@YAXXZ PROC ; `dynamic initializer for 'CDirRemover::ms_strDirectoryDeque'', COMDAT
; File D:\Program Files\Microsoft Visual Studio\2022\Community\VC\Tools\MSVC\14.43.34808\include\xmemory

; 136  :         return ::operator new(_Bytes);

  00000	6a 08		 push	 8
  00002	e8 00 00 00 00	 call	 ??2@YAPAXI@Z		; operator new
; File C:\Marty 5.5\Src-Client\Client\EterBase\Utils.cpp

; 512  : std::deque<std::string> CDirRemover::ms_strDirectoryDeque;

  00007	68 00 00 00 00	 push	 OFFSET ??__F?ms_strDirectoryDeque@CDirRemover@@1V?$deque@V?$basic_string@DU?$char_traits@D@std@@V?$allocator@D@2@@std@@V?$allocator@V?$basic_string@DU?$char_traits@D@std@@V?$allocator@D@2@@std@@@2@@std@@A@@YAXXZ ; `dynamic atexit destructor for 'CDirRemover::ms_strDirectoryDeque''
; File D:\Program Files\Microsoft Visual Studio\2022\Community\VC\Tools\MSVC\14.43.34808\include\xmemory

; 1201 :     mutable _Iterator_base12* _Myfirstiter = nullptr;

  0000c	c7 40 04 00 00
	00 00		 mov	 DWORD PTR [eax+4], 0

; 1218 :         _Myproxy            = _New_proxy;

  00013	a3 00 00 00 00	 mov	 DWORD PTR ?ms_strDirectoryDeque@CDirRemover@@1V?$deque@V?$basic_string@DU?$char_traits@D@std@@V?$allocator@D@2@@std@@V?$allocator@V?$basic_string@DU?$char_traits@D@std@@V?$allocator@D@2@@std@@@2@@std@@A, eax

; 1219 :         _New_proxy->_Mycont = this;

  00018	c7 00 00 00 00
	00		 mov	 DWORD PTR [eax], OFFSET ?ms_strDirectoryDeque@CDirRemover@@1V?$deque@V?$basic_string@DU?$char_traits@D@std@@V?$allocator@D@2@@std@@V?$allocator@V?$basic_string@DU?$char_traits@D@std@@V?$allocator@D@2@@std@@@2@@std@@A ; CDirRemover::ms_strDirectoryDeque
; File C:\Marty 5.5\Src-Client\Client\EterBase\Utils.cpp

; 512  : std::deque<std::string> CDirRemover::ms_strDirectoryDeque;

  0001e	e8 00 00 00 00	 call	 _atexit
  00023	83 c4 08	 add	 esp, 8
  00026	c3		 ret	 0
??__E?ms_strDirectoryDeque@CDirRemover@@1V?$deque@V?$basic_string@DU?$char_traits@D@std@@V?$allocator@D@2@@std@@V?$allocator@V?$basic_string@DU?$char_traits@D@std@@V?$allocator@D@2@@std@@@2@@std@@A@@YAXXZ ENDP ; `dynamic initializer for 'CDirRemover::ms_strDirectoryDeque''
text$di	ENDS
; Function compile flags: /Ogtp
; File D:\Program Files\Microsoft Visual Studio\2022\Community\VC\Tools\MSVC\14.43.34808\include\deque
; File D:\Program Files\Microsoft Visual Studio\2022\Community\VC\Tools\MSVC\14.43.34808\include\xstring
; File D:\Program Files\Microsoft Visual Studio\2022\Community\VC\Tools\MSVC\14.43.34808\include\xmemory
; File D:\Program Files\Microsoft Visual Studio\2022\Community\VC\Tools\MSVC\14.43.34808\include\xstring
; File D:\Program Files\Microsoft Visual Studio\2022\Community\VC\Tools\MSVC\14.43.34808\include\xmemory
; File D:\Program Files\Microsoft Visual Studio\2022\Community\VC\Tools\MSVC\14.43.34808\include\xstring
; File D:\Program Files\Microsoft Visual Studio\2022\Community\VC\Tools\MSVC\14.43.34808\include\deque
; File D:\Program Files\Microsoft Visual Studio\2022\Community\VC\Tools\MSVC\14.43.34808\include\xmemory
; File D:\Program Files\Microsoft Visual Studio\2022\Community\VC\Tools\MSVC\14.43.34808\include\deque
; File D:\Program Files\Microsoft Visual Studio\2022\Community\VC\Tools\MSVC\14.43.34808\include\xmemory
; File D:\Program Files\Microsoft Visual Studio\2022\Community\VC\Tools\MSVC\14.43.34808\include\deque
; File D:\Program Files\Microsoft Visual Studio\2022\Community\VC\Tools\MSVC\14.43.34808\include\xmemory
; File D:\Program Files\Microsoft Visual Studio\2022\Community\VC\Tools\MSVC\14.43.34808\include\deque
;	COMDAT ?_Tidy@?$deque@V?$basic_string@DU?$char_traits@D@std@@V?$allocator@D@2@@std@@V?$allocator@V?$basic_string@DU?$char_traits@D@std@@V?$allocator@D@2@@std@@@2@@std@@AAEXXZ
_TEXT	SEGMENT
?_Tidy@?$deque@V?$basic_string@DU?$char_traits@D@std@@V?$allocator@D@2@@std@@V?$allocator@V?$basic_string@DU?$char_traits@D@std@@V?$allocator@D@2@@std@@@2@@std@@AAEXXZ PROC ; std::deque<std::basic_string<char,std::char_traits<char>,std::allocator<char> >,std::allocator<std::basic_string<char,std::char_traits<char>,std::allocator<char> > > >::_Tidy, COMDAT
; _this$ = ecx

; 1671 :     void _Tidy() noexcept { // free all storage

  00000	56		 push	 esi
  00001	8b f1		 mov	 esi, ecx
  00003	57		 push	 edi

; 959  :         return _Mysize() == 0;

  00004	8b 4e 10	 mov	 ecx, DWORD PTR [esi+16]
  00007	85 c9		 test	 ecx, ecx

; 1672 :         _Orphan_all();
; 1673 : 
; 1674 :         while (!empty()) {

  00009	74 6d		 je	 SHORT $LN116@Tidy
  0000b	0f 1f 44 00 00	 npad	 5
$LL2@Tidy:

; 560  :         return static_cast<_Map_difference_type>((_Off / _Block_size) & (_Mapsize - 1));

  00010	8b 46 0c	 mov	 eax, DWORD PTR [esi+12]
  00013	48		 dec	 eax
  00014	03 c8		 add	 ecx, eax
  00016	8b 46 08	 mov	 eax, DWORD PTR [esi+8]
  00019	48		 dec	 eax
  0001a	23 c8		 and	 ecx, eax

; 1512 :         _Alty_traits::destroy(_Getal(), _Get_data()._Address_subscript(_Newoff));

  0001c	8b 46 04	 mov	 eax, DWORD PTR [esi+4]
  0001f	8b 3c 88	 mov	 edi, DWORD PTR [eax+ecx*4]
; File D:\Program Files\Microsoft Visual Studio\2022\Community\VC\Tools\MSVC\14.43.34808\include\xstring

; 434  :         return _Myres > _Small_string_capacity;

  00022	8b 4f 14	 mov	 ecx, DWORD PTR [edi+20]
  00025	83 f9 0f	 cmp	 ecx, 15			; 0000000fH

; 3047 :         if (_My_data._Large_mode_engaged()) {

  00028	76 2b		 jbe	 SHORT $LN46@Tidy
; File D:\Program Files\Microsoft Visual Studio\2022\Community\VC\Tools\MSVC\14.43.34808\include\xmemory

; 981  :         _STD _Deallocate<_New_alignof<_Ty>>(_Ptr, sizeof(_Ty) * _Count);

  0002a	8b 07		 mov	 eax, DWORD PTR [edi]
; File D:\Program Files\Microsoft Visual Studio\2022\Community\VC\Tools\MSVC\14.43.34808\include\xstring

; 828  :         _Al.deallocate(_Old_ptr, _Capacity + 1); // +1 for null terminator

  0002c	41		 inc	 ecx
; File D:\Program Files\Microsoft Visual Studio\2022\Community\VC\Tools\MSVC\14.43.34808\include\xmemory

; 284  :         if (_Bytes >= _Big_allocation_threshold) {

  0002d	81 f9 00 10 00
	00		 cmp	 ecx, 4096		; 00001000H
  00033	72 16		 jb	 SHORT $LN57@Tidy

; 205  :     const uintptr_t _Ptr_container   = _Ptr_user[-1];

  00035	8b 50 fc	 mov	 edx, DWORD PTR [eax-4]
  00038	83 c1 23	 add	 ecx, 35			; 00000023H

; 206  : 
; 207  :     // If the following asserts, it likely means that we are performing
; 208  :     // an aligned delete on memory coming from an unaligned allocation.
; 209  :     _STL_ASSERT(_Ptr_user[-2] == _Big_allocation_sentinel, "invalid argument");
; 210  : 
; 211  :     // Extra paranoia on aligned allocation/deallocation; ensure _Ptr_container is
; 212  :     // in range [_Min_back_shift, _Non_user_size]
; 213  : #ifdef _DEBUG
; 214  :     constexpr uintptr_t _Min_back_shift = 2 * sizeof(void*);
; 215  : #else // ^^^ defined(_DEBUG) / !defined(_DEBUG) vvv
; 216  :     constexpr uintptr_t _Min_back_shift = sizeof(void*);
; 217  : #endif // ^^^ !defined(_DEBUG) ^^^
; 218  :     const uintptr_t _Back_shift = reinterpret_cast<uintptr_t>(_Ptr) - _Ptr_container;

  0003b	2b c2		 sub	 eax, edx

; 219  :     _STL_VERIFY(_Back_shift >= _Min_back_shift && _Back_shift <= _Non_user_size, "invalid argument");

  0003d	83 c0 fc	 add	 eax, -4			; fffffffcH
  00040	83 f8 1f	 cmp	 eax, 31			; 0000001fH
  00043	0f 87 94 00 00
	00		 ja	 $LN107@Tidy

; 220  :     _Ptr = reinterpret_cast<void*>(_Ptr_container);

  00049	8b c2		 mov	 eax, edx
$LN57@Tidy:

; 289  :         ::operator delete(_Ptr, _Bytes);

  0004b	51		 push	 ecx
  0004c	50		 push	 eax
  0004d	e8 00 00 00 00	 call	 ??3@YAXPAXI@Z		; operator delete
  00052	83 c4 08	 add	 esp, 8
$LN46@Tidy:
; File D:\Program Files\Microsoft Visual Studio\2022\Community\VC\Tools\MSVC\14.43.34808\include\xstring

; 3054 :         _My_data._Mysize = 0;

  00055	c7 47 10 00 00
	00 00		 mov	 DWORD PTR [edi+16], 0

; 3055 :         _My_data._Myres  = _Small_string_capacity;

  0005c	c7 47 14 0f 00
	00 00		 mov	 DWORD PTR [edi+20], 15	; 0000000fH

; 3056 :         // the _Traits::assign is last so the codegen doesn't think the char write can alias this
; 3057 :         _Traits::assign(_My_data._Bx._Buf[0], _Elem());

  00063	c6 07 00	 mov	 BYTE PTR [edi], 0
; File D:\Program Files\Microsoft Visual Studio\2022\Community\VC\Tools\MSVC\14.43.34808\include\deque

; 1513 :         if (--_Mysize() == 0) {

  00066	8b 4e 10	 mov	 ecx, DWORD PTR [esi+16]
  00069	83 e9 01	 sub	 ecx, 1
  0006c	89 4e 10	 mov	 DWORD PTR [esi+16], ecx
  0006f	75 9f		 jne	 SHORT $LL2@Tidy

; 1514 :             _Myoff() = 0;

  00071	c7 46 0c 00 00
	00 00		 mov	 DWORD PTR [esi+12], 0
$LN116@Tidy:

; 1675 :             pop_back();
; 1676 :         }
; 1677 : 
; 1678 :         if (_Map() != nullptr) {

  00078	83 7e 04 00	 cmp	 DWORD PTR [esi+4], 0
  0007c	74 5c		 je	 SHORT $LN72@Tidy

; 1655 :         for (auto _Block = _Map_distance(); _Block > 0;) { // free storage for a block and destroy pointer

  0007e	8b 7e 08	 mov	 edi, DWORD PTR [esi+8]
  00081	85 ff		 test	 edi, edi
  00083	7e 1a		 jle	 SHORT $LN121@Tidy
$LL70@Tidy:

; 1656 :             --_Block;
; 1657 :             auto& _Block_ptr = _Map()[_Block];
; 1658 :             if (_Block_ptr) { // free block

  00085	8b 46 04	 mov	 eax, DWORD PTR [esi+4]
  00088	4f		 dec	 edi
  00089	8b 04 b8	 mov	 eax, DWORD PTR [eax+edi*4]
  0008c	85 c0		 test	 eax, eax
  0008e	74 0b		 je	 SHORT $LN68@Tidy
; File D:\Program Files\Microsoft Visual Studio\2022\Community\VC\Tools\MSVC\14.43.34808\include\xmemory

; 289  :         ::operator delete(_Ptr, _Bytes);

  00090	6a 18		 push	 24			; 00000018H
  00092	50		 push	 eax
  00093	e8 00 00 00 00	 call	 ??3@YAXPAXI@Z		; operator delete
  00098	83 c4 08	 add	 esp, 8
$LN68@Tidy:
; File D:\Program Files\Microsoft Visual Studio\2022\Community\VC\Tools\MSVC\14.43.34808\include\deque

; 1655 :         for (auto _Block = _Map_distance(); _Block > 0;) { // free storage for a block and destroy pointer

  0009b	85 ff		 test	 edi, edi
  0009d	7f e6		 jg	 SHORT $LL70@Tidy
$LN121@Tidy:
; File D:\Program Files\Microsoft Visual Studio\2022\Community\VC\Tools\MSVC\14.43.34808\include\xmemory

; 981  :         _STD _Deallocate<_New_alignof<_Ty>>(_Ptr, sizeof(_Ty) * _Count);

  0009f	8b 4e 08	 mov	 ecx, DWORD PTR [esi+8]
  000a2	8b 46 04	 mov	 eax, DWORD PTR [esi+4]
  000a5	c1 e1 02	 shl	 ecx, 2

; 284  :         if (_Bytes >= _Big_allocation_threshold) {

  000a8	81 f9 00 10 00
	00		 cmp	 ecx, 4096		; 00001000H
  000ae	72 12		 jb	 SHORT $LN110@Tidy

; 205  :     const uintptr_t _Ptr_container   = _Ptr_user[-1];

  000b0	8b 50 fc	 mov	 edx, DWORD PTR [eax-4]
  000b3	83 c1 23	 add	 ecx, 35			; 00000023H

; 206  : 
; 207  :     // If the following asserts, it likely means that we are performing
; 208  :     // an aligned delete on memory coming from an unaligned allocation.
; 209  :     _STL_ASSERT(_Ptr_user[-2] == _Big_allocation_sentinel, "invalid argument");
; 210  : 
; 211  :     // Extra paranoia on aligned allocation/deallocation; ensure _Ptr_container is
; 212  :     // in range [_Min_back_shift, _Non_user_size]
; 213  : #ifdef _DEBUG
; 214  :     constexpr uintptr_t _Min_back_shift = 2 * sizeof(void*);
; 215  : #else // ^^^ defined(_DEBUG) / !defined(_DEBUG) vvv
; 216  :     constexpr uintptr_t _Min_back_shift = sizeof(void*);
; 217  : #endif // ^^^ !defined(_DEBUG) ^^^
; 218  :     const uintptr_t _Back_shift = reinterpret_cast<uintptr_t>(_Ptr) - _Ptr_container;

  000b6	2b c2		 sub	 eax, edx

; 219  :     _STL_VERIFY(_Back_shift >= _Min_back_shift && _Back_shift <= _Non_user_size, "invalid argument");

  000b8	83 c0 fc	 add	 eax, -4			; fffffffcH
  000bb	83 f8 1f	 cmp	 eax, 31			; 0000001fH
  000be	77 1d		 ja	 SHORT $LN107@Tidy

; 220  :     _Ptr = reinterpret_cast<void*>(_Ptr_container);

  000c0	8b c2		 mov	 eax, edx
$LN110@Tidy:

; 289  :         ::operator delete(_Ptr, _Bytes);

  000c2	51		 push	 ecx
  000c3	50		 push	 eax
  000c4	e8 00 00 00 00	 call	 ??3@YAXPAXI@Z		; operator delete
  000c9	83 c4 08	 add	 esp, 8
; File D:\Program Files\Microsoft Visual Studio\2022\Community\VC\Tools\MSVC\14.43.34808\include\deque

; 1667 :         _Map()     = nullptr;

  000cc	c7 46 04 00 00
	00 00		 mov	 DWORD PTR [esi+4], 0

; 1668 :         _Mapsize() = 0;

  000d3	c7 46 08 00 00
	00 00		 mov	 DWORD PTR [esi+8], 0
$LN72@Tidy:
  000da	5f		 pop	 edi

; 1683 :     }

  000db	5e		 pop	 esi
  000dc	c3		 ret	 0
$LN107@Tidy:
; File D:\Program Files\Microsoft Visual Studio\2022\Community\VC\Tools\MSVC\14.43.34808\include\xmemory

; 219  :     _STL_VERIFY(_Back_shift >= _Min_back_shift && _Back_shift <= _Non_user_size, "invalid argument");

  000dd	e8 00 00 00 00	 call	 __invalid_parameter_noinfo_noreturn
$LN136@Tidy:
  000e2	cc		 int	 3
?_Tidy@?$deque@V?$basic_string@DU?$char_traits@D@std@@V?$allocator@D@2@@std@@V?$allocator@V?$basic_string@DU?$char_traits@D@std@@V?$allocator@D@2@@std@@@2@@std@@AAEXXZ ENDP ; std::deque<std::basic_string<char,std::char_traits<char>,std::allocator<char> >,std::allocator<std::basic_string<char,std::char_traits<char>,std::allocator<char> > > >::_Tidy
_TEXT	ENDS
; Function compile flags: /Ogtp
; File D:\Program Files\Microsoft Visual Studio\2022\Community\VC\Tools\MSVC\14.43.34808\include\deque
; File D:\Program Files\Microsoft Visual Studio\2022\Community\VC\Tools\MSVC\14.43.34808\include\xmemory
; File D:\Program Files\Microsoft Visual Studio\2022\Community\VC\Tools\MSVC\14.43.34808\include\deque
; File D:\Program Files\Microsoft Visual Studio\2022\Community\VC\Tools\MSVC\14.43.34808\include\xmemory
; File D:\Program Files\Microsoft Visual Studio\2022\Community\VC\Tools\MSVC\14.43.34808\include\deque
; File D:\Program Files\Microsoft Visual Studio\2022\Community\VC\Tools\MSVC\14.43.34808\include\xmemory
; File D:\Program Files\Microsoft Visual Studio\2022\Community\VC\Tools\MSVC\14.43.34808\include\deque
;	COMDAT ?_Growmap@?$deque@V?$basic_string@DU?$char_traits@D@std@@V?$allocator@D@2@@std@@V?$allocator@V?$basic_string@DU?$char_traits@D@std@@V?$allocator@D@2@@std@@@2@@std@@AAEXI@Z
_TEXT	SEGMENT
__Myptr$1$ = -8						; size = 4
tv465 = -4						; size = 4
__Count$ = 8						; size = 4
$T1 = 8							; size = 4
?_Growmap@?$deque@V?$basic_string@DU?$char_traits@D@std@@V?$allocator@D@2@@std@@V?$allocator@V?$basic_string@DU?$char_traits@D@std@@V?$allocator@D@2@@std@@@2@@std@@AAEXI@Z PROC ; std::deque<std::basic_string<char,std::char_traits<char>,std::allocator<char> >,std::allocator<std::basic_string<char,std::char_traits<char>,std::allocator<char> > > >::_Growmap, COMDAT
; _this$ = ecx

; 1603 :     void _Growmap(size_type _Count) { // grow map by at least _Count pointers, _Mapsize() a power of 2

  00000	55		 push	 ebp
  00001	8b ec		 mov	 ebp, esp

; 1604 :         static_assert(_Minimum_map_size > 1, "The _Xlen() test should always be performed.");
; 1605 : 
; 1606 :         _Alpty _Almap(_Getal());
; 1607 :         size_type _Newsize = _Mapsize() > 0 ? _Mapsize() : 1;

  00003	8b 55 08	 mov	 edx, DWORD PTR __Count$[ebp]
  00006	83 ec 08	 sub	 esp, 8
  00009	56		 push	 esi
  0000a	57		 push	 edi
  0000b	8b f9		 mov	 edi, ecx
  0000d	be 01 00 00 00	 mov	 esi, 1
  00012	8b 4f 08	 mov	 ecx, DWORD PTR [edi+8]
  00015	85 c9		 test	 ecx, ecx
  00017	0f 45 f1	 cmovne	 esi, ecx
  0001a	66 0f 1f 44 00
	00		 npad	 6
$LL2@Growmap:

; 1608 :         while (_Newsize - _Mapsize() < _Count || _Newsize < _Minimum_map_size) {

  00020	8b c6		 mov	 eax, esi
  00022	2b c1		 sub	 eax, ecx
  00024	3b c2		 cmp	 eax, edx
  00026	72 05		 jb	 SHORT $LN6@Growmap
  00028	83 fe 08	 cmp	 esi, 8
  0002b	73 13		 jae	 SHORT $LN3@Growmap
$LN6@Growmap:

; 1609 :             // scale _Newsize to 2^N >= _Mapsize() + _Count
; 1610 :             if (max_size() / _Block_size - _Newsize < _Newsize) {

  0002d	b8 aa aa aa 0a	 mov	 eax, 178956970		; 0aaaaaaaH
  00032	2b c6		 sub	 eax, esi
  00034	3b c6		 cmp	 eax, esi
  00036	0f 82 10 01 00
	00		 jb	 $LN55@Growmap

; 1612 :             }
; 1613 : 
; 1614 :             _Newsize *= 2;

  0003c	03 f6		 add	 esi, esi

; 1615 :         }

  0003e	eb e0		 jmp	 SHORT $LL2@Growmap
$LN3@Growmap:

; 1616 : 
; 1617 :         size_type _Allocsize = _Newsize;
; 1618 : 
; 1619 :         const auto _Myboff  = static_cast<size_type>(_Myoff() / _Block_size);

  00040	8b 47 0c	 mov	 eax, DWORD PTR [edi+12]
  00043	89 45 08	 mov	 DWORD PTR $T1[ebp], eax
; File D:\Program Files\Microsoft Visual Studio\2022\Community\VC\Tools\MSVC\14.43.34808\include\xmemory

; 117  :         if (_Count > _Max_possible) {

  00046	81 fe ff ff ff
	3f		 cmp	 esi, 1073741823		; 3fffffffH
  0004c	0f 87 ff 00 00
	00		 ja	 $LN80@Growmap

; 119  :         }
; 120  :     }
; 121  : 
; 122  :     return _Count * _Ty_size;

  00052	8d 04 b5 00 00
	00 00		 lea	 eax, DWORD PTR [esi*4]
  00059	53		 push	 ebx

; 227  :     if (_Bytes == 0) {

  0005a	85 c0		 test	 eax, eax
  0005c	75 04		 jne	 SHORT $LN23@Growmap

; 228  :         return nullptr;

  0005e	33 db		 xor	 ebx, ebx
  00060	eb 19		 jmp	 SHORT $LN22@Growmap
$LN23@Growmap:

; 229  :     }
; 230  : 
; 231  : #if _HAS_CXX20 // TRANSITION, GH-1532
; 232  :     if (_STD is_constant_evaluated()) {
; 233  :         return _Traits::_Allocate(_Bytes);
; 234  :     }
; 235  : #endif // _HAS_CXX20
; 236  : 
; 237  : #ifdef __cpp_aligned_new
; 238  :     if constexpr (_Align > __STDCPP_DEFAULT_NEW_ALIGNMENT__) {
; 239  :         size_t _Passed_align = _Align;
; 240  : #if defined(_M_IX86) || defined(_M_X64)
; 241  :         if (_Bytes >= _Big_allocation_threshold) {
; 242  :             // boost the alignment of big allocations to help autovectorization
; 243  :             _Passed_align = (_STD max)(_Align, _Big_allocation_alignment);
; 244  :         }
; 245  : #endif // defined(_M_IX86) || defined(_M_X64)
; 246  :         return _Traits::_Allocate_aligned(_Bytes, _Passed_align);
; 247  :     } else
; 248  : #endif // defined(__cpp_aligned_new)
; 249  :     {
; 250  : #if defined(_M_IX86) || defined(_M_X64)
; 251  :         if (_Bytes >= _Big_allocation_threshold) {

  00062	50		 push	 eax
  00063	3d 00 10 00 00	 cmp	 eax, 4096		; 00001000H
  00068	72 07		 jb	 SHORT $LN24@Growmap

; 252  :             // boost the alignment of big allocations to help autovectorization
; 253  :             return _Allocate_manually_vector_aligned<_Traits>(_Bytes);

  0006a	e8 00 00 00 00	 call	 ??$_Allocate_manually_vector_aligned@U_Default_allocate_traits@std@@@std@@YAPAXI@Z ; std::_Allocate_manually_vector_aligned<std::_Default_allocate_traits>
  0006f	eb 05		 jmp	 SHORT $LN78@Growmap
$LN24@Growmap:

; 136  :         return ::operator new(_Bytes);

  00071	e8 00 00 00 00	 call	 ??2@YAPAXI@Z		; operator new
$LN78@Growmap:
; File D:\Program Files\Microsoft Visual Studio\2022\Community\VC\Tools\MSVC\14.43.34808\include\deque

; 1622 :         _Mapptr _Myptr      = _Newmap + _Map_off;

  00076	8b d8		 mov	 ebx, eax
  00078	83 c4 04	 add	 esp, 4
$LN22@Growmap:
  0007b	8b 55 08	 mov	 edx, DWORD PTR $T1[ebp]
  0007e	c1 e2 02	 shl	 edx, 2
  00081	89 55 fc	 mov	 DWORD PTR tv465[ebp], edx
  00084	8d 04 1a	 lea	 eax, DWORD PTR [edx+ebx]
  00087	89 45 f8	 mov	 DWORD PTR __Myptr$1$[ebp], eax

; 1623 :         _STL_ASSERT(_Allocsize >= _Newsize, "_Allocsize >= _Newsize");
; 1624 :         while (_Newsize <= _Allocsize / 2) {

  0008a	8b c6		 mov	 eax, esi
  0008c	d1 e8		 shr	 eax, 1
  0008e	3b f0		 cmp	 esi, eax
  00090	77 06		 ja	 SHORT $LN5@Growmap
$LL4@Growmap:

; 1625 :             _Newsize *= 2;

  00092	03 f6		 add	 esi, esi
  00094	3b f0		 cmp	 esi, eax
  00096	76 fa		 jbe	 SHORT $LL4@Growmap
$LN5@Growmap:

; 1626 :         }
; 1627 : 
; 1628 :         _Count = _Newsize - _Mapsize();

  00098	8b 47 08	 mov	 eax, DWORD PTR [edi+8]
  0009b	2b f0		 sub	 esi, eax

; 1629 : 
; 1630 :         const auto _Map_count = static_cast<_Map_difference_type>(_Count);
; 1631 : 
; 1632 :         _Myptr = _STD uninitialized_copy(_Map() + _Map_off, _Map() + _Map_distance(), _Myptr); // copy initial to end

  0009d	8b 4f 04	 mov	 ecx, DWORD PTR [edi+4]
  000a0	ff 75 f8	 push	 DWORD PTR __Myptr$1$[ebp]
  000a3	8d 04 81	 lea	 eax, DWORD PTR [ecx+eax*4]
  000a6	50		 push	 eax
  000a7	8d 04 0a	 lea	 eax, DWORD PTR [edx+ecx]
  000aa	50		 push	 eax
  000ab	e8 00 00 00 00	 call	 ??$uninitialized_copy@PAPAV?$basic_string@DU?$char_traits@D@std@@V?$allocator@D@2@@std@@PAPAV12@@std@@YAPAPAV?$basic_string@DU?$char_traits@D@std@@V?$allocator@D@2@@0@QAPAV10@0PAPAV10@@Z ; std::uninitialized_copy<std::basic_string<char,std::char_traits<char>,std::allocator<char> > * *,std::basic_string<char,std::char_traits<char>,std::allocator<char> > * *>
  000b0	8b 4f 04	 mov	 ecx, DWORD PTR [edi+4]
  000b3	83 c4 0c	 add	 esp, 12			; 0000000cH

; 1633 :         if (_Myboff <= _Count) { // increment greater than offset of initial block

  000b6	50		 push	 eax
  000b7	39 75 08	 cmp	 DWORD PTR $T1[ebp], esi
  000ba	77 22		 ja	 SHORT $LN8@Growmap

; 1634 :             _Myptr = _STD uninitialized_copy(_Map(), _Map() + _Map_off, _Myptr); // copy rest of old

  000bc	8b 45 fc	 mov	 eax, DWORD PTR tv465[ebp]
  000bf	03 c1		 add	 eax, ecx
  000c1	50		 push	 eax
  000c2	51		 push	 ecx
  000c3	e8 00 00 00 00	 call	 ??$uninitialized_copy@PAPAV?$basic_string@DU?$char_traits@D@std@@V?$allocator@D@2@@std@@PAPAV12@@std@@YAPAPAV?$basic_string@DU?$char_traits@D@std@@V?$allocator@D@2@@0@QAPAV10@0PAPAV10@@Z ; std::uninitialized_copy<std::basic_string<char,std::char_traits<char>,std::allocator<char> > * *,std::basic_string<char,std::char_traits<char>,std::allocator<char> > * *>

; 1635 :             _Uninitialized_value_construct_n_unchecked1(_Myptr, _Count - _Myboff); // clear suffix of new

  000c8	8b ce		 mov	 ecx, esi
  000ca	2b 4d 08	 sub	 ecx, DWORD PTR $T1[ebp]
  000cd	51		 push	 ecx
  000ce	50		 push	 eax
  000cf	e8 00 00 00 00	 call	 ??$_Uninitialized_value_construct_n_unchecked1@PAPAV?$basic_string@DU?$char_traits@D@std@@V?$allocator@D@2@@std@@I@std@@YAPAPAV?$basic_string@DU?$char_traits@D@std@@V?$allocator@D@2@@0@PAPAV10@I@Z ; std::_Uninitialized_value_construct_n_unchecked1<std::basic_string<char,std::char_traits<char>,std::allocator<char> > * *,unsigned int>

; 1636 :             _Uninitialized_value_construct_n_unchecked1(_Newmap, _Myboff); // clear prefix of new
; 1637 :         } else { // increment not greater than offset of initial block

  000d4	8b 45 08	 mov	 eax, DWORD PTR $T1[ebp]
  000d7	83 c4 14	 add	 esp, 20			; 00000014H
  000da	8b cb		 mov	 ecx, ebx
  000dc	eb 24		 jmp	 SHORT $LN9@Growmap
$LN8@Growmap:

; 1638 :             _STD uninitialized_copy(_Map(), _Map() + _Map_count, _Myptr); // copy more old

  000de	8d 04 b1	 lea	 eax, DWORD PTR [ecx+esi*4]
  000e1	50		 push	 eax
  000e2	51		 push	 ecx
  000e3	e8 00 00 00 00	 call	 ??$uninitialized_copy@PAPAV?$basic_string@DU?$char_traits@D@std@@V?$allocator@D@2@@std@@PAPAV12@@std@@YAPAPAV?$basic_string@DU?$char_traits@D@std@@V?$allocator@D@2@@0@QAPAV10@0PAPAV10@@Z ; std::uninitialized_copy<std::basic_string<char,std::char_traits<char>,std::allocator<char> > * *,std::basic_string<char,std::char_traits<char>,std::allocator<char> > * *>

; 1639 :             _Myptr = _STD uninitialized_copy(_Map() + _Map_count, _Map() + _Map_off, _Newmap); // copy rest of old

  000e8	8b 4f 04	 mov	 ecx, DWORD PTR [edi+4]
  000eb	8b 45 fc	 mov	 eax, DWORD PTR tv465[ebp]
  000ee	03 c1		 add	 eax, ecx
  000f0	53		 push	 ebx
  000f1	50		 push	 eax
  000f2	8d 04 b1	 lea	 eax, DWORD PTR [ecx+esi*4]
  000f5	50		 push	 eax
  000f6	e8 00 00 00 00	 call	 ??$uninitialized_copy@PAPAV?$basic_string@DU?$char_traits@D@std@@V?$allocator@D@2@@std@@PAPAV12@@std@@YAPAPAV?$basic_string@DU?$char_traits@D@std@@V?$allocator@D@2@@0@QAPAV10@0PAPAV10@@Z ; std::uninitialized_copy<std::basic_string<char,std::char_traits<char>,std::allocator<char> > * *,std::basic_string<char,std::char_traits<char>,std::allocator<char> > * *>

; 1640 :             _Uninitialized_value_construct_n_unchecked1(_Myptr, _Count); // clear rest to initial block

  000fb	8b c8		 mov	 ecx, eax
  000fd	83 c4 18	 add	 esp, 24			; 00000018H
  00100	8b c6		 mov	 eax, esi
$LN9@Growmap:

; 1641 :         }
; 1642 : 
; 1643 :         if (_Map() != nullptr) {

  00102	50		 push	 eax
  00103	51		 push	 ecx
  00104	e8 00 00 00 00	 call	 ??$_Uninitialized_value_construct_n_unchecked1@PAPAV?$basic_string@DU?$char_traits@D@std@@V?$allocator@D@2@@std@@I@std@@YAPAPAV?$basic_string@DU?$char_traits@D@std@@V?$allocator@D@2@@0@PAPAV10@I@Z ; std::_Uninitialized_value_construct_n_unchecked1<std::basic_string<char,std::char_traits<char>,std::allocator<char> > * *,unsigned int>
  00109	8b 47 04	 mov	 eax, DWORD PTR [edi+4]
  0010c	83 c4 08	 add	 esp, 8
  0010f	85 c0		 test	 eax, eax
  00111	74 2a		 je	 SHORT $LN38@Growmap
; File D:\Program Files\Microsoft Visual Studio\2022\Community\VC\Tools\MSVC\14.43.34808\include\xmemory

; 981  :         _STD _Deallocate<_New_alignof<_Ty>>(_Ptr, sizeof(_Ty) * _Count);

  00113	8b 4f 08	 mov	 ecx, DWORD PTR [edi+8]
  00116	c1 e1 02	 shl	 ecx, 2

; 284  :         if (_Bytes >= _Big_allocation_threshold) {

  00119	81 f9 00 10 00
	00		 cmp	 ecx, 4096		; 00001000H
  0011f	72 12		 jb	 SHORT $LN49@Growmap

; 205  :     const uintptr_t _Ptr_container   = _Ptr_user[-1];

  00121	8b 50 fc	 mov	 edx, DWORD PTR [eax-4]
  00124	83 c1 23	 add	 ecx, 35			; 00000023H

; 206  : 
; 207  :     // If the following asserts, it likely means that we are performing
; 208  :     // an aligned delete on memory coming from an unaligned allocation.
; 209  :     _STL_ASSERT(_Ptr_user[-2] == _Big_allocation_sentinel, "invalid argument");
; 210  : 
; 211  :     // Extra paranoia on aligned allocation/deallocation; ensure _Ptr_container is
; 212  :     // in range [_Min_back_shift, _Non_user_size]
; 213  : #ifdef _DEBUG
; 214  :     constexpr uintptr_t _Min_back_shift = 2 * sizeof(void*);
; 215  : #else // ^^^ defined(_DEBUG) / !defined(_DEBUG) vvv
; 216  :     constexpr uintptr_t _Min_back_shift = sizeof(void*);
; 217  : #endif // ^^^ !defined(_DEBUG) ^^^
; 218  :     const uintptr_t _Back_shift = reinterpret_cast<uintptr_t>(_Ptr) - _Ptr_container;

  00127	2b c2		 sub	 eax, edx

; 219  :     _STL_VERIFY(_Back_shift >= _Min_back_shift && _Back_shift <= _Non_user_size, "invalid argument");

  00129	83 c0 fc	 add	 eax, -4			; fffffffcH
  0012c	83 f8 1f	 cmp	 eax, 31			; 0000001fH
  0012f	77 25		 ja	 SHORT $LN46@Growmap

; 220  :     _Ptr = reinterpret_cast<void*>(_Ptr_container);

  00131	8b c2		 mov	 eax, edx
$LN49@Growmap:

; 289  :         ::operator delete(_Ptr, _Bytes);

  00133	51		 push	 ecx
  00134	50		 push	 eax
  00135	e8 00 00 00 00	 call	 ??3@YAXPAXI@Z		; operator delete
  0013a	83 c4 08	 add	 esp, 8
$LN38@Growmap:
; File D:\Program Files\Microsoft Visual Studio\2022\Community\VC\Tools\MSVC\14.43.34808\include\deque

; 1649 :         _Mapsize() += _Count;

  0013d	01 77 08	 add	 DWORD PTR [edi+8], esi
  00140	89 5f 04	 mov	 DWORD PTR [edi+4], ebx
  00143	5b		 pop	 ebx

; 1650 :     }

  00144	5f		 pop	 edi
  00145	5e		 pop	 esi
  00146	8b e5		 mov	 esp, ebp
  00148	5d		 pop	 ebp
  00149	c2 04 00	 ret	 4
$LN55@Growmap:

; 1611 :                 _Xlen(); // result too long

  0014c	e8 00 00 00 00	 call	 ?_Xlen@?$deque@V?$basic_string@DU?$char_traits@D@std@@V?$allocator@D@2@@std@@V?$allocator@V?$basic_string@DU?$char_traits@D@std@@V?$allocator@D@2@@std@@@2@@std@@CAXXZ ; std::deque<std::basic_string<char,std::char_traits<char>,std::allocator<char> >,std::allocator<std::basic_string<char,std::char_traits<char>,std::allocator<char> > > >::_Xlen
$LN80@Growmap:
; File D:\Program Files\Microsoft Visual Studio\2022\Community\VC\Tools\MSVC\14.43.34808\include\xmemory

; 118  :             _Throw_bad_array_new_length(); // multiply overflow

  00151	e8 00 00 00 00	 call	 ?_Throw_bad_array_new_length@std@@YAXXZ ; std::_Throw_bad_array_new_length
$LN46@Growmap:

; 219  :     _STL_VERIFY(_Back_shift >= _Min_back_shift && _Back_shift <= _Non_user_size, "invalid argument");

  00156	e8 00 00 00 00	 call	 __invalid_parameter_noinfo_noreturn
$LN77@Growmap:
  0015b	cc		 int	 3
?_Growmap@?$deque@V?$basic_string@DU?$char_traits@D@std@@V?$allocator@D@2@@std@@V?$allocator@V?$basic_string@DU?$char_traits@D@std@@V?$allocator@D@2@@std@@@2@@std@@AAEXI@Z ENDP ; std::deque<std::basic_string<char,std::char_traits<char>,std::allocator<char> >,std::allocator<std::basic_string<char,std::char_traits<char>,std::allocator<char> > > >::_Growmap
_TEXT	ENDS
; Function compile flags: /Ogtp
; File D:\Program Files\Microsoft Visual Studio\2022\Community\VC\Tools\MSVC\14.43.34808\include\deque
;	COMDAT ?_Xlen@?$deque@V?$basic_string@DU?$char_traits@D@std@@V?$allocator@D@2@@std@@V?$allocator@V?$basic_string@DU?$char_traits@D@std@@V?$allocator@D@2@@std@@@2@@std@@CAXXZ
_TEXT	SEGMENT
?_Xlen@?$deque@V?$basic_string@DU?$char_traits@D@std@@V?$allocator@D@2@@std@@V?$allocator@V?$basic_string@DU?$char_traits@D@std@@V?$allocator@D@2@@std@@@2@@std@@CAXXZ PROC ; std::deque<std::basic_string<char,std::char_traits<char>,std::allocator<char> >,std::allocator<std::basic_string<char,std::char_traits<char>,std::allocator<char> > > >::_Xlen, COMDAT

; 1596 :         _Xlength_error("deque<T> too long");

  00000	68 00 00 00 00	 push	 OFFSET ??_C@_0BC@KBDMBKEH@deque?$DMT?$DO?5too?5long@
  00005	e8 00 00 00 00	 call	 ?_Xlength_error@std@@YAXPBD@Z ; std::_Xlength_error
$LN3@Xlen:
  0000a	cc		 int	 3
?_Xlen@?$deque@V?$basic_string@DU?$char_traits@D@std@@V?$allocator@D@2@@std@@V?$allocator@V?$basic_string@DU?$char_traits@D@std@@V?$allocator@D@2@@std@@@2@@std@@CAXXZ ENDP ; std::deque<std::basic_string<char,std::char_traits<char>,std::allocator<char> >,std::allocator<std::basic_string<char,std::char_traits<char>,std::allocator<char> > > >::_Xlen
_TEXT	ENDS
; Function compile flags: /Ogtp
; File C:\Marty 5.5\Src-Client\Client\EterBase\Utils.cpp
;	COMDAT ??_GCDirRemover@@UAEPAXI@Z
_TEXT	SEGMENT
___flags$ = 8						; size = 4
??_GCDirRemover@@UAEPAXI@Z PROC				; CDirRemover::`scalar deleting destructor', COMDAT
; _this$ = ecx
  00000	55		 push	 ebp
  00001	8b ec		 mov	 ebp, esp

; 467  : 		{

  00003	56		 push	 esi
  00004	8b f1		 mov	 esi, ecx
  00006	c7 06 00 00 00
	00		 mov	 DWORD PTR [esi], OFFSET ??_7CDirRemover@@6B@

; 468  : 		}

  0000c	e8 00 00 00 00	 call	 ??1CDir@@UAE@XZ		; CDir::~CDir
  00011	f6 45 08 01	 test	 BYTE PTR ___flags$[ebp], 1
  00015	74 0e		 je	 SHORT $LN10@scalar
  00017	68 48 01 00 00	 push	 328			; 00000148H
  0001c	56		 push	 esi
  0001d	e8 00 00 00 00	 call	 ??3@YAXPAXI@Z		; operator delete
  00022	83 c4 08	 add	 esp, 8
$LN10@scalar:
  00025	8b c6		 mov	 eax, esi
  00027	5e		 pop	 esi
  00028	5d		 pop	 ebp
  00029	c2 04 00	 ret	 4
??_GCDirRemover@@UAEPAXI@Z ENDP				; CDirRemover::`scalar deleting destructor'
_TEXT	ENDS
; Function compile flags: /Ogtp
; File C:\Marty 5.5\Src-Client\Client\EterBase\Utils.cpp
; File D:\Program Files\Microsoft Visual Studio\2022\Community\VC\Tools\MSVC\14.43.34808\include\xstring
; File C:\Marty 5.5\Src-Client\Client\EterBase\Utils.cpp
; File D:\Program Files\Microsoft Visual Studio\2022\Community\VC\Tools\MSVC\14.43.34808\include\__msvc_string_view.hpp
; File D:\Program Files\Microsoft Visual Studio\2022\Community\VC\Tools\MSVC\14.43.34808\include\xstring
; File C:\Marty 5.5\Src-Client\Client\EterBase\Utils.cpp
; File D:\Program Files\Microsoft Visual Studio\2022\Community\VC\Tools\MSVC\14.43.34808\include\xstring
; File C:\Marty 5.5\Src-Client\Client\EterBase\Utils.cpp
; File D:\Program Files\Microsoft Visual Studio\2022\Community\VC\Tools\MSVC\14.43.34808\include\xstring
; File C:\Marty 5.5\Src-Client\Client\EterBase\Utils.cpp
; File D:\Program Files\Microsoft Visual Studio\2022\Community\VC\Tools\MSVC\14.43.34808\include\xstring
; File D:\Program Files\Microsoft Visual Studio\2022\Community\VC\Tools\MSVC\14.43.34808\include\xmemory
; File D:\Program Files\Microsoft Visual Studio\2022\Community\VC\Tools\MSVC\14.43.34808\include\xstring
; File D:\Program Files\Microsoft Visual Studio\2022\Community\VC\Tools\MSVC\14.43.34808\include\xmemory
; File C:\Marty 5.5\Src-Client\Client\EterBase\Utils.cpp
; File D:\Program Files\Microsoft Visual Studio\2022\Community\VC\Tools\MSVC\14.43.34808\include\xmemory
; File C:\Marty 5.5\Src-Client\Client\EterBase\Utils.cpp
;	COMDAT ?OnFile@CDirRemover@@UAE_NPBD0@Z
_TEXT	SEGMENT
_strFullPathName$ = -40					; size = 24
__$ArrayPad$ = -16					; size = 4
__$EHRec$ = -12						; size = 12
_c_szPathName$ = 8					; size = 4
_c_szFileName$ = 12					; size = 4
?OnFile@CDirRemover@@UAE_NPBD0@Z PROC			; CDirRemover::OnFile, COMDAT
; _this$ = ecx

; 488  : 		{

  00000	55		 push	 ebp
  00001	8b ec		 mov	 ebp, esp
  00003	6a ff		 push	 -1
  00005	68 00 00 00 00	 push	 __ehhandler$?OnFile@CDirRemover@@UAE_NPBD0@Z
  0000a	64 a1 00 00 00
	00		 mov	 eax, DWORD PTR fs:0
  00010	50		 push	 eax
  00011	83 ec 1c	 sub	 esp, 28			; 0000001cH
  00014	a1 00 00 00 00	 mov	 eax, DWORD PTR ___security_cookie
  00019	33 c5		 xor	 eax, ebp
  0001b	89 45 f0	 mov	 DWORD PTR __$ArrayPad$[ebp], eax
  0001e	56		 push	 esi
  0001f	50		 push	 eax
  00020	8d 45 f4	 lea	 eax, DWORD PTR __$EHRec$[ebp]
  00023	64 a3 00 00 00
	00		 mov	 DWORD PTR fs:0, eax
  00029	8b 45 08	 mov	 eax, DWORD PTR _c_szPathName$[ebp]
  0002c	0f 57 c0	 xorps	 xmm0, xmm0
  0002f	8b 75 0c	 mov	 esi, DWORD PTR _c_szFileName$[ebp]
; File D:\Program Files\Microsoft Visual Studio\2022\Community\VC\Tools\MSVC\14.43.34808\include\xstring

; 474  :         _CONSTEXPR20 _Bxty() noexcept : _Buf() {} // user-provided, for fancy pointers

  00032	0f 11 45 d8	 movups	 XMMWORD PTR _strFullPathName$[ebp], xmm0

; 836  :         _My_data._Mysize = 0;

  00036	c7 45 e8 00 00
	00 00		 mov	 DWORD PTR _strFullPathName$[ebp+16], 0

; 837  :         _My_data._Myres  = _Small_string_capacity;

  0003d	c7 45 ec 0f 00
	00 00		 mov	 DWORD PTR _strFullPathName$[ebp+20], 15 ; 0000000fH

; 838  :         _My_data._Activate_SSO_buffer();
; 839  : 
; 840  :         // the _Traits::assign is last so the codegen doesn't think the char write can alias this
; 841  :         _Traits::assign(_My_data._Bx._Buf[0], _Elem());

  00044	c6 45 d8 00	 mov	 BYTE PTR _strFullPathName$[ebp], 0
; File C:\Marty 5.5\Src-Client\Client\EterBase\Utils.cpp

; 490  : 			strFullPathName = c_szPathName;

  00048	50		 push	 eax
  00049	8d 4d d8	 lea	 ecx, DWORD PTR _strFullPathName$[ebp]
  0004c	c7 45 fc 00 00
	00 00		 mov	 DWORD PTR __$EHRec$[ebp+8], 0
  00053	e8 00 00 00 00	 call	 ??4?$basic_string@DU?$char_traits@D@std@@V?$allocator@D@2@@std@@QAEAAV01@QBD@Z ; std::basic_string<char,std::char_traits<char>,std::allocator<char> >::operator=
; File D:\Program Files\Microsoft Visual Studio\2022\Community\VC\Tools\MSVC\14.43.34808\include\__msvc_string_view.hpp

; 430  :             return __builtin_strlen(_First);

  00058	8b ce		 mov	 ecx, esi
  0005a	8d 51 01	 lea	 edx, DWORD PTR [ecx+1]
  0005d	0f 1f 00	 npad	 3
$LL89@OnFile:
  00060	8a 01		 mov	 al, BYTE PTR [ecx]
  00062	41		 inc	 ecx
  00063	84 c0		 test	 al, al
  00065	75 f9		 jne	 SHORT $LL89@OnFile
  00067	2b ca		 sub	 ecx, edx
; File D:\Program Files\Microsoft Visual Studio\2022\Community\VC\Tools\MSVC\14.43.34808\include\xstring

; 1510 :         return append(_Ptr, _Convert_size<size_type>(_Traits::length(_Ptr)));

  00069	51		 push	 ecx
  0006a	56		 push	 esi
  0006b	8d 4d d8	 lea	 ecx, DWORD PTR _strFullPathName$[ebp]
  0006e	e8 00 00 00 00	 call	 ?append@?$basic_string@DU?$char_traits@D@std@@V?$allocator@D@2@@std@@QAEAAV12@QBDI@Z ; std::basic_string<char,std::char_traits<char>,std::allocator<char> >::append

; 434  :         return _Myres > _Small_string_capacity;

  00073	83 7d ec 0f	 cmp	 DWORD PTR _strFullPathName$[ebp+20], 15 ; 0000000fH

; 425  :         const value_type* _Result = _Bx._Buf;

  00077	8d 45 d8	 lea	 eax, DWORD PTR _strFullPathName$[ebp]
; File C:\Marty 5.5\Src-Client\Client\EterBase\Utils.cpp

; 492  : 			_chmod(strFullPathName.c_str(), _S_IWRITE);

  0007a	68 80 00 00 00	 push	 128			; 00000080H
; File D:\Program Files\Microsoft Visual Studio\2022\Community\VC\Tools\MSVC\14.43.34808\include\xstring

; 426  :         if (_Large_mode_engaged()) {

  0007f	0f 47 45 d8	 cmova	 eax, DWORD PTR _strFullPathName$[ebp]
; File C:\Marty 5.5\Src-Client\Client\EterBase\Utils.cpp

; 492  : 			_chmod(strFullPathName.c_str(), _S_IWRITE);

  00083	50		 push	 eax
  00084	e8 00 00 00 00	 call	 __chmod
  00089	83 c4 08	 add	 esp, 8
; File D:\Program Files\Microsoft Visual Studio\2022\Community\VC\Tools\MSVC\14.43.34808\include\xstring

; 425  :         const value_type* _Result = _Bx._Buf;

  0008c	8d 45 d8	 lea	 eax, DWORD PTR _strFullPathName$[ebp]

; 434  :         return _Myres > _Small_string_capacity;

  0008f	83 7d ec 0f	 cmp	 DWORD PTR _strFullPathName$[ebp+20], 15 ; 0000000fH

; 426  :         if (_Large_mode_engaged()) {

  00093	0f 47 45 d8	 cmova	 eax, DWORD PTR _strFullPathName$[ebp]
; File C:\Marty 5.5\Src-Client\Client\EterBase\Utils.cpp

; 493  : 			DeleteFile(strFullPathName.c_str());

  00097	50		 push	 eax
  00098	ff 15 00 00 00
	00		 call	 DWORD PTR __imp__DeleteFileA@4
; File D:\Program Files\Microsoft Visual Studio\2022\Community\VC\Tools\MSVC\14.43.34808\include\xstring

; 434  :         return _Myres > _Small_string_capacity;

  0009e	8b 4d ec	 mov	 ecx, DWORD PTR _strFullPathName$[ebp+20]
  000a1	83 f9 0f	 cmp	 ecx, 15			; 0000000fH

; 3047 :         if (_My_data._Large_mode_engaged()) {

  000a4	76 28		 jbe	 SHORT $LN71@OnFile
; File D:\Program Files\Microsoft Visual Studio\2022\Community\VC\Tools\MSVC\14.43.34808\include\xmemory

; 981  :         _STD _Deallocate<_New_alignof<_Ty>>(_Ptr, sizeof(_Ty) * _Count);

  000a6	8b 55 d8	 mov	 edx, DWORD PTR _strFullPathName$[ebp]
; File D:\Program Files\Microsoft Visual Studio\2022\Community\VC\Tools\MSVC\14.43.34808\include\xstring

; 828  :         _Al.deallocate(_Old_ptr, _Capacity + 1); // +1 for null terminator

  000a9	41		 inc	 ecx
; File D:\Program Files\Microsoft Visual Studio\2022\Community\VC\Tools\MSVC\14.43.34808\include\xmemory

; 981  :         _STD _Deallocate<_New_alignof<_Ty>>(_Ptr, sizeof(_Ty) * _Count);

  000aa	8b c2		 mov	 eax, edx

; 284  :         if (_Bytes >= _Big_allocation_threshold) {

  000ac	81 f9 00 10 00
	00		 cmp	 ecx, 4096		; 00001000H
  000b2	72 10		 jb	 SHORT $LN82@OnFile

; 205  :     const uintptr_t _Ptr_container   = _Ptr_user[-1];

  000b4	8b 50 fc	 mov	 edx, DWORD PTR [eax-4]
  000b7	83 c1 23	 add	 ecx, 35			; 00000023H
  000ba	2b c2		 sub	 eax, edx

; 219  :     _STL_VERIFY(_Back_shift >= _Min_back_shift && _Back_shift <= _Non_user_size, "invalid argument");

  000bc	83 c0 fc	 add	 eax, -4			; fffffffcH
  000bf	83 f8 1f	 cmp	 eax, 31			; 0000001fH
  000c2	77 28		 ja	 SHORT $LN93@OnFile
$LN82@OnFile:

; 289  :         ::operator delete(_Ptr, _Bytes);

  000c4	51		 push	 ecx
  000c5	52		 push	 edx
  000c6	e8 00 00 00 00	 call	 ??3@YAXPAXI@Z		; operator delete
  000cb	83 c4 08	 add	 esp, 8
$LN71@OnFile:
; File C:\Marty 5.5\Src-Client\Client\EterBase\Utils.cpp

; 494  : 			return true;

  000ce	b0 01		 mov	 al, 1

; 495  : 		}

  000d0	8b 4d f4	 mov	 ecx, DWORD PTR __$EHRec$[ebp]
  000d3	64 89 0d 00 00
	00 00		 mov	 DWORD PTR fs:0, ecx
  000da	59		 pop	 ecx
  000db	5e		 pop	 esi
  000dc	8b 4d f0	 mov	 ecx, DWORD PTR __$ArrayPad$[ebp]
  000df	33 cd		 xor	 ecx, ebp
  000e1	e8 00 00 00 00	 call	 @__security_check_cookie@4
  000e6	8b e5		 mov	 esp, ebp
  000e8	5d		 pop	 ebp
  000e9	c2 08 00	 ret	 8
$LN93@OnFile:
; File D:\Program Files\Microsoft Visual Studio\2022\Community\VC\Tools\MSVC\14.43.34808\include\xmemory

; 219  :     _STL_VERIFY(_Back_shift >= _Min_back_shift && _Back_shift <= _Non_user_size, "invalid argument");

  000ec	e8 00 00 00 00	 call	 __invalid_parameter_noinfo_noreturn
$LN91@OnFile:
  000f1	cc		 int	 3
_TEXT	ENDS
;	COMDAT text$x
text$x	SEGMENT
__unwindfunclet$?OnFile@CDirRemover@@UAE_NPBD0@Z$0:
  00000	8d 4d d8	 lea	 ecx, DWORD PTR _strFullPathName$[ebp]
  00003	e9 00 00 00 00	 jmp	 ??1?$basic_string@DU?$char_traits@D@std@@V?$allocator@D@2@@std@@QAE@XZ ; std::basic_string<char,std::char_traits<char>,std::allocator<char> >::~basic_string<char,std::char_traits<char>,std::allocator<char> >
  00008	cc		 int	 3
  00009	cc		 int	 3
  0000a	cc		 int	 3
  0000b	cc		 int	 3
  0000c	cc		 int	 3
__ehhandler$?OnFile@CDirRemover@@UAE_NPBD0@Z:
  0000d	90		 npad	 1
  0000e	90		 npad	 1
  0000f	8b 54 24 08	 mov	 edx, DWORD PTR [esp+8]
  00013	8d 42 0c	 lea	 eax, DWORD PTR [edx+12]
  00016	8b 4a dc	 mov	 ecx, DWORD PTR [edx-36]
  00019	33 c8		 xor	 ecx, eax
  0001b	e8 00 00 00 00	 call	 @__security_check_cookie@4
  00020	8b 4a fc	 mov	 ecx, DWORD PTR [edx-4]
  00023	33 c8		 xor	 ecx, eax
  00025	e8 00 00 00 00	 call	 @__security_check_cookie@4
  0002a	b8 00 00 00 00	 mov	 eax, OFFSET __ehfuncinfo$?OnFile@CDirRemover@@UAE_NPBD0@Z
  0002f	e9 00 00 00 00	 jmp	 ___CxxFrameHandler3
text$x	ENDS
?OnFile@CDirRemover@@UAE_NPBD0@Z ENDP			; CDirRemover::OnFile
; Function compile flags: /Ogtp
; File C:\Marty 5.5\Src-Client\Client\EterBase\Utils.cpp
; File D:\Program Files\Microsoft Visual Studio\2022\Community\VC\Tools\MSVC\14.43.34808\include\xstring
; File C:\Marty 5.5\Src-Client\Client\EterBase\Utils.cpp
; File D:\Program Files\Microsoft Visual Studio\2022\Community\VC\Tools\MSVC\14.43.34808\include\__msvc_string_view.hpp
; File D:\Program Files\Microsoft Visual Studio\2022\Community\VC\Tools\MSVC\14.43.34808\include\xstring
; File C:\Marty 5.5\Src-Client\Client\EterBase\Utils.cpp
; File D:\Program Files\Microsoft Visual Studio\2022\Community\VC\Tools\MSVC\14.43.34808\include\xstring
; File C:\Marty 5.5\Src-Client\Client\EterBase\Utils.cpp
; File D:\Program Files\Microsoft Visual Studio\2022\Community\VC\Tools\MSVC\14.43.34808\include\xstring
; File C:\Marty 5.5\Src-Client\Client\EterBase\Utils.cpp
; File D:\Program Files\Microsoft Visual Studio\2022\Community\VC\Tools\MSVC\14.43.34808\include\xstring
; File C:\Marty 5.5\Src-Client\Client\EterBase\Utils.cpp
; File D:\Program Files\Microsoft Visual Studio\2022\Community\VC\Tools\MSVC\14.43.34808\include\xstring
; File C:\Marty 5.5\Src-Client\Client\EterBase\Utils.cpp
; File D:\Program Files\Microsoft Visual Studio\2022\Community\VC\Tools\MSVC\14.43.34808\include\deque
; File D:\Program Files\Microsoft Visual Studio\2022\Community\VC\Tools\MSVC\14.43.34808\include\xstring
; File D:\Program Files\Microsoft Visual Studio\2022\Community\VC\Tools\MSVC\14.43.34808\include\xmemory
; File D:\Program Files\Microsoft Visual Studio\2022\Community\VC\Tools\MSVC\14.43.34808\include\xstring
; File D:\Program Files\Microsoft Visual Studio\2022\Community\VC\Tools\MSVC\14.43.34808\include\xmemory
; File C:\Marty 5.5\Src-Client\Client\EterBase\Utils.cpp
; File D:\Program Files\Microsoft Visual Studio\2022\Community\VC\Tools\MSVC\14.43.34808\include\xstring
; File C:\Marty 5.5\Src-Client\Client\EterBase\Utils.cpp
; File D:\Program Files\Microsoft Visual Studio\2022\Community\VC\Tools\MSVC\14.43.34808\include\xstring
; File D:\Program Files\Microsoft Visual Studio\2022\Community\VC\Tools\MSVC\14.43.34808\include\xmemory
; File D:\Program Files\Microsoft Visual Studio\2022\Community\VC\Tools\MSVC\14.43.34808\include\xstring
; File D:\Program Files\Microsoft Visual Studio\2022\Community\VC\Tools\MSVC\14.43.34808\include\xmemory
; File C:\Marty 5.5\Src-Client\Client\EterBase\Utils.cpp
; File D:\Program Files\Microsoft Visual Studio\2022\Community\VC\Tools\MSVC\14.43.34808\include\xmemory
; File C:\Marty 5.5\Src-Client\Client\EterBase\Utils.cpp
;	COMDAT ?OnFolder@CDirRemover@@UAE_NPBD00@Z
_TEXT	SEGMENT
_remover$ = -392					; size = 328
_strWorkingFolder$ = -64				; size = 24
_strFullPathName$ = -40					; size = 24
__$ArrayPad$ = -16					; size = 4
__$EHRec$ = -12						; size = 12
_c_szFilter$ = 8					; size = 4
_c_szPathName$ = 12					; size = 4
_c_szFileName$ = 16					; size = 4
?OnFolder@CDirRemover@@UAE_NPBD00@Z PROC		; CDirRemover::OnFolder, COMDAT
; _this$ = ecx

; 471  : 		{

  00000	55		 push	 ebp
  00001	8b ec		 mov	 ebp, esp
  00003	6a ff		 push	 -1
  00005	68 00 00 00 00	 push	 __ehhandler$?OnFolder@CDirRemover@@UAE_NPBD00@Z
  0000a	64 a1 00 00 00
	00		 mov	 eax, DWORD PTR fs:0
  00010	50		 push	 eax
  00011	81 ec 7c 01 00
	00		 sub	 esp, 380		; 0000017cH
  00017	a1 00 00 00 00	 mov	 eax, DWORD PTR ___security_cookie
  0001c	33 c5		 xor	 eax, ebp
  0001e	89 45 f0	 mov	 DWORD PTR __$ArrayPad$[ebp], eax
  00021	56		 push	 esi
  00022	57		 push	 edi
  00023	50		 push	 eax
  00024	8d 45 f4	 lea	 eax, DWORD PTR __$EHRec$[ebp]
  00027	64 a3 00 00 00
	00		 mov	 DWORD PTR fs:0, eax
  0002d	8b 7d 08	 mov	 edi, DWORD PTR _c_szFilter$[ebp]
  00030	0f 57 c0	 xorps	 xmm0, xmm0
  00033	8b 45 0c	 mov	 eax, DWORD PTR _c_szPathName$[ebp]
  00036	8b 75 10	 mov	 esi, DWORD PTR _c_szFileName$[ebp]
; File D:\Program Files\Microsoft Visual Studio\2022\Community\VC\Tools\MSVC\14.43.34808\include\xstring

; 474  :         _CONSTEXPR20 _Bxty() noexcept : _Buf() {} // user-provided, for fancy pointers

  00039	0f 11 45 d8	 movups	 XMMWORD PTR _strFullPathName$[ebp], xmm0

; 836  :         _My_data._Mysize = 0;

  0003d	c7 45 e8 00 00
	00 00		 mov	 DWORD PTR _strFullPathName$[ebp+16], 0

; 837  :         _My_data._Myres  = _Small_string_capacity;

  00044	c7 45 ec 0f 00
	00 00		 mov	 DWORD PTR _strFullPathName$[ebp+20], 15 ; 0000000fH

; 838  :         _My_data._Activate_SSO_buffer();
; 839  : 
; 840  :         // the _Traits::assign is last so the codegen doesn't think the char write can alias this
; 841  :         _Traits::assign(_My_data._Bx._Buf[0], _Elem());

  0004b	c6 45 d8 00	 mov	 BYTE PTR _strFullPathName$[ebp], 0
; File C:\Marty 5.5\Src-Client\Client\EterBase\Utils.cpp

; 473  : 			strFullPathName = c_szPathName;

  0004f	50		 push	 eax
  00050	8d 4d d8	 lea	 ecx, DWORD PTR _strFullPathName$[ebp]
  00053	c7 45 fc 00 00
	00 00		 mov	 DWORD PTR __$EHRec$[ebp+8], 0
  0005a	e8 00 00 00 00	 call	 ??4?$basic_string@DU?$char_traits@D@std@@V?$allocator@D@2@@std@@QAEAAV01@QBD@Z ; std::basic_string<char,std::char_traits<char>,std::allocator<char> >::operator=
; File D:\Program Files\Microsoft Visual Studio\2022\Community\VC\Tools\MSVC\14.43.34808\include\__msvc_string_view.hpp

; 430  :             return __builtin_strlen(_First);

  0005f	8b ce		 mov	 ecx, esi
  00061	8d 51 01	 lea	 edx, DWORD PTR [ecx+1]
$LL166@OnFolder:
  00064	8a 01		 mov	 al, BYTE PTR [ecx]
  00066	41		 inc	 ecx
  00067	84 c0		 test	 al, al
  00069	75 f9		 jne	 SHORT $LL166@OnFolder
  0006b	2b ca		 sub	 ecx, edx
; File D:\Program Files\Microsoft Visual Studio\2022\Community\VC\Tools\MSVC\14.43.34808\include\xstring

; 1510 :         return append(_Ptr, _Convert_size<size_type>(_Traits::length(_Ptr)));

  0006d	51		 push	 ecx
  0006e	56		 push	 esi
  0006f	8d 4d d8	 lea	 ecx, DWORD PTR _strFullPathName$[ebp]
  00072	e8 00 00 00 00	 call	 ?append@?$basic_string@DU?$char_traits@D@std@@V?$allocator@D@2@@std@@QAEAAV12@QBDI@Z ; std::basic_string<char,std::char_traits<char>,std::allocator<char> >::append
; File C:\Marty 5.5\Src-Client\Client\EterBase\Utils.cpp

; 464  : 		{

  00077	8d 8d 78 fe ff
	ff		 lea	 ecx, DWORD PTR _remover$[ebp]
  0007d	e8 00 00 00 00	 call	 ??0CDir@@QAE@XZ		; CDir::CDir
  00082	c7 85 78 fe ff
	ff 00 00 00 00	 mov	 DWORD PTR _remover$[ebp], OFFSET ??_7CDirRemover@@6B@
; File D:\Program Files\Microsoft Visual Studio\2022\Community\VC\Tools\MSVC\14.43.34808\include\xstring

; 434  :         return _Myres > _Small_string_capacity;

  0008c	83 7d ec 0f	 cmp	 DWORD PTR _strFullPathName$[ebp+20], 15 ; 0000000fH

; 425  :         const value_type* _Result = _Bx._Buf;

  00090	8d 45 d8	 lea	 eax, DWORD PTR _strFullPathName$[ebp]
; File C:\Marty 5.5\Src-Client\Client\EterBase\Utils.cpp

; 477  : 			remover.Create(c_szFilter, strFullPathName.c_str());

  00093	6a 00		 push	 0
; File D:\Program Files\Microsoft Visual Studio\2022\Community\VC\Tools\MSVC\14.43.34808\include\xstring

; 426  :         if (_Large_mode_engaged()) {

  00095	0f 47 45 d8	 cmova	 eax, DWORD PTR _strFullPathName$[ebp]
; File C:\Marty 5.5\Src-Client\Client\EterBase\Utils.cpp

; 477  : 			remover.Create(c_szFilter, strFullPathName.c_str());

  00099	8d 8d 78 fe ff
	ff		 lea	 ecx, DWORD PTR _remover$[ebp]
  0009f	50		 push	 eax
  000a0	57		 push	 edi
  000a1	c6 45 fc 01	 mov	 BYTE PTR __$EHRec$[ebp+8], 1
  000a5	e8 00 00 00 00	 call	 ?Create@CDir@@QAE_NPBD0H@Z ; CDir::Create
  000aa	0f 57 c0	 xorps	 xmm0, xmm0
; File D:\Program Files\Microsoft Visual Studio\2022\Community\VC\Tools\MSVC\14.43.34808\include\xstring

; 836  :         _My_data._Mysize = 0;

  000ad	c7 45 d0 00 00
	00 00		 mov	 DWORD PTR _strWorkingFolder$[ebp+16], 0

; 474  :         _CONSTEXPR20 _Bxty() noexcept : _Buf() {} // user-provided, for fancy pointers

  000b4	0f 11 45 c0	 movups	 XMMWORD PTR _strWorkingFolder$[ebp], xmm0

; 837  :         _My_data._Myres  = _Small_string_capacity;

  000b8	c7 45 d4 0f 00
	00 00		 mov	 DWORD PTR _strWorkingFolder$[ebp+20], 15 ; 0000000fH

; 838  :         _My_data._Activate_SSO_buffer();
; 839  : 
; 840  :         // the _Traits::assign is last so the codegen doesn't think the char write can alias this
; 841  :         _Traits::assign(_My_data._Bx._Buf[0], _Elem());

  000bf	c6 45 c0 00	 mov	 BYTE PTR _strWorkingFolder$[ebp], 0
; File C:\Marty 5.5\Src-Client\Client\EterBase\Utils.cpp

; 480  : 			GetWorkingFolder(strWorkingFolder);

  000c3	8d 45 c0	 lea	 eax, DWORD PTR _strWorkingFolder$[ebp]
  000c6	c6 45 fc 02	 mov	 BYTE PTR __$EHRec$[ebp+8], 2
  000ca	50		 push	 eax
  000cb	e8 00 00 00 00	 call	 ?GetWorkingFolder@@YAXAAV?$basic_string@DU?$char_traits@D@std@@V?$allocator@D@2@@std@@@Z ; GetWorkingFolder
  000d0	83 c4 04	 add	 esp, 4
; File D:\Program Files\Microsoft Visual Studio\2022\Community\VC\Tools\MSVC\14.43.34808\include\xstring

; 425  :         const value_type* _Result = _Bx._Buf;

  000d3	8d 45 d8	 lea	 eax, DWORD PTR _strFullPathName$[ebp]

; 434  :         return _Myres > _Small_string_capacity;

  000d6	83 7d ec 0f	 cmp	 DWORD PTR _strFullPathName$[ebp+20], 15 ; 0000000fH

; 1459 :         return append(_Right._Mypair._Myval2._Myptr(), _Right._Mypair._Myval2._Mysize);

  000da	8d 4d c0	 lea	 ecx, DWORD PTR _strWorkingFolder$[ebp]

; 426  :         if (_Large_mode_engaged()) {

  000dd	0f 47 45 d8	 cmova	 eax, DWORD PTR _strFullPathName$[ebp]

; 1459 :         return append(_Right._Mypair._Myval2._Myptr(), _Right._Mypair._Myval2._Mysize);

  000e1	ff 75 e8	 push	 DWORD PTR _strFullPathName$[ebp+16]
  000e4	50		 push	 eax
  000e5	e8 00 00 00 00	 call	 ?append@?$basic_string@DU?$char_traits@D@std@@V?$allocator@D@2@@std@@QAEAAV12@QBDI@Z ; std::basic_string<char,std::char_traits<char>,std::allocator<char> >::append

; 1510 :         return append(_Ptr, _Convert_size<size_type>(_Traits::length(_Ptr)));

  000ea	6a 01		 push	 1
  000ec	68 00 00 00 00	 push	 OFFSET ??_C@_01KMDKNFGN@?1@
  000f1	8d 4d c0	 lea	 ecx, DWORD PTR _strWorkingFolder$[ebp]
  000f4	e8 00 00 00 00	 call	 ?append@?$basic_string@DU?$char_traits@D@std@@V?$allocator@D@2@@std@@QAEAAV12@QBDI@Z ; std::basic_string<char,std::char_traits<char>,std::allocator<char> >::append
; File C:\Marty 5.5\Src-Client\Client\EterBase\Utils.cpp

; 483  : 			StringPath(strWorkingFolder);

  000f9	8d 45 c0	 lea	 eax, DWORD PTR _strWorkingFolder$[ebp]
  000fc	50		 push	 eax
  000fd	e8 00 00 00 00	 call	 ?StringPath@@YAXAAV?$basic_string@DU?$char_traits@D@std@@V?$allocator@D@2@@std@@@Z ; StringPath
  00102	83 c4 04	 add	 esp, 4
; File D:\Program Files\Microsoft Visual Studio\2022\Community\VC\Tools\MSVC\14.43.34808\include\deque

; 1237 :         _Emplace_back_internal(_Val);

  00105	8d 45 c0	 lea	 eax, DWORD PTR _strWorkingFolder$[ebp]
  00108	b9 00 00 00 00	 mov	 ecx, OFFSET ?ms_strDirectoryDeque@CDirRemover@@1V?$deque@V?$basic_string@DU?$char_traits@D@std@@V?$allocator@D@2@@std@@V?$allocator@V?$basic_string@DU?$char_traits@D@std@@V?$allocator@D@2@@std@@@2@@std@@A ; CDirRemover::ms_strDirectoryDeque
  0010d	50		 push	 eax
  0010e	e8 00 00 00 00	 call	 ??$_Emplace_back_internal@ABV?$basic_string@DU?$char_traits@D@std@@V?$allocator@D@2@@std@@@?$deque@V?$basic_string@DU?$char_traits@D@std@@V?$allocator@D@2@@std@@V?$allocator@V?$basic_string@DU?$char_traits@D@std@@V?$allocator@D@2@@std@@@2@@std@@AAEXABV?$basic_string@DU?$char_traits@D@std@@V?$allocator@D@2@@1@@Z ; std::deque<std::basic_string<char,std::char_traits<char>,std::allocator<char> >,std::allocator<std::basic_string<char,std::char_traits<char>,std::allocator<char> > > >::_Emplace_back_internal<std::basic_string<char,std::char_traits<char>,std::allocator<char> > const &>
; File D:\Program Files\Microsoft Visual Studio\2022\Community\VC\Tools\MSVC\14.43.34808\include\xstring

; 434  :         return _Myres > _Small_string_capacity;

  00113	8b 4d d4	 mov	 ecx, DWORD PTR _strWorkingFolder$[ebp+20]
  00116	83 f9 0f	 cmp	 ecx, 15			; 0000000fH

; 3047 :         if (_My_data._Large_mode_engaged()) {

  00119	76 2c		 jbe	 SHORT $LN106@OnFolder
; File D:\Program Files\Microsoft Visual Studio\2022\Community\VC\Tools\MSVC\14.43.34808\include\xmemory

; 981  :         _STD _Deallocate<_New_alignof<_Ty>>(_Ptr, sizeof(_Ty) * _Count);

  0011b	8b 55 c0	 mov	 edx, DWORD PTR _strWorkingFolder$[ebp]
; File D:\Program Files\Microsoft Visual Studio\2022\Community\VC\Tools\MSVC\14.43.34808\include\xstring

; 828  :         _Al.deallocate(_Old_ptr, _Capacity + 1); // +1 for null terminator

  0011e	41		 inc	 ecx
; File D:\Program Files\Microsoft Visual Studio\2022\Community\VC\Tools\MSVC\14.43.34808\include\xmemory

; 981  :         _STD _Deallocate<_New_alignof<_Ty>>(_Ptr, sizeof(_Ty) * _Count);

  0011f	8b c2		 mov	 eax, edx

; 284  :         if (_Bytes >= _Big_allocation_threshold) {

  00121	81 f9 00 10 00
	00		 cmp	 ecx, 4096		; 00001000H
  00127	72 14		 jb	 SHORT $LN117@OnFolder

; 205  :     const uintptr_t _Ptr_container   = _Ptr_user[-1];

  00129	8b 50 fc	 mov	 edx, DWORD PTR [eax-4]
  0012c	83 c1 23	 add	 ecx, 35			; 00000023H
  0012f	2b c2		 sub	 eax, edx

; 219  :     _STL_VERIFY(_Back_shift >= _Min_back_shift && _Back_shift <= _Non_user_size, "invalid argument");

  00131	83 c0 fc	 add	 eax, -4			; fffffffcH
  00134	83 f8 1f	 cmp	 eax, 31			; 0000001fH
  00137	0f 87 80 00 00
	00		 ja	 $LN157@OnFolder
$LN117@OnFolder:

; 289  :         ::operator delete(_Ptr, _Bytes);

  0013d	51		 push	 ecx
  0013e	52		 push	 edx
  0013f	e8 00 00 00 00	 call	 ??3@YAXPAXI@Z		; operator delete
  00144	83 c4 08	 add	 esp, 8
$LN106@OnFolder:
; File C:\Marty 5.5\Src-Client\Client\EterBase\Utils.cpp

; 468  : 		}

  00147	8d 8d 78 fe ff
	ff		 lea	 ecx, DWORD PTR _remover$[ebp]
; File D:\Program Files\Microsoft Visual Studio\2022\Community\VC\Tools\MSVC\14.43.34808\include\xstring

; 3054 :         _My_data._Mysize = 0;

  0014d	c7 45 d0 00 00
	00 00		 mov	 DWORD PTR _strWorkingFolder$[ebp+16], 0

; 3055 :         _My_data._Myres  = _Small_string_capacity;

  00154	c7 45 d4 0f 00
	00 00		 mov	 DWORD PTR _strWorkingFolder$[ebp+20], 15 ; 0000000fH

; 3056 :         // the _Traits::assign is last so the codegen doesn't think the char write can alias this
; 3057 :         _Traits::assign(_My_data._Bx._Buf[0], _Elem());

  0015b	c6 45 c0 00	 mov	 BYTE PTR _strWorkingFolder$[ebp], 0
; File C:\Marty 5.5\Src-Client\Client\EterBase\Utils.cpp

; 467  : 		{

  0015f	c7 85 78 fe ff
	ff 00 00 00 00	 mov	 DWORD PTR _remover$[ebp], OFFSET ??_7CDirRemover@@6B@

; 468  : 		}

  00169	e8 00 00 00 00	 call	 ??1CDir@@UAE@XZ		; CDir::~CDir
; File D:\Program Files\Microsoft Visual Studio\2022\Community\VC\Tools\MSVC\14.43.34808\include\xstring

; 434  :         return _Myres > _Small_string_capacity;

  0016e	8b 4d ec	 mov	 ecx, DWORD PTR _strFullPathName$[ebp+20]
  00171	83 f9 0f	 cmp	 ecx, 15			; 0000000fH

; 3047 :         if (_My_data._Large_mode_engaged()) {

  00174	76 28		 jbe	 SHORT $LN149@OnFolder
; File D:\Program Files\Microsoft Visual Studio\2022\Community\VC\Tools\MSVC\14.43.34808\include\xmemory

; 981  :         _STD _Deallocate<_New_alignof<_Ty>>(_Ptr, sizeof(_Ty) * _Count);

  00176	8b 55 d8	 mov	 edx, DWORD PTR _strFullPathName$[ebp]
; File D:\Program Files\Microsoft Visual Studio\2022\Community\VC\Tools\MSVC\14.43.34808\include\xstring

; 828  :         _Al.deallocate(_Old_ptr, _Capacity + 1); // +1 for null terminator

  00179	41		 inc	 ecx
; File D:\Program Files\Microsoft Visual Studio\2022\Community\VC\Tools\MSVC\14.43.34808\include\xmemory

; 981  :         _STD _Deallocate<_New_alignof<_Ty>>(_Ptr, sizeof(_Ty) * _Count);

  0017a	8b c2		 mov	 eax, edx

; 284  :         if (_Bytes >= _Big_allocation_threshold) {

  0017c	81 f9 00 10 00
	00		 cmp	 ecx, 4096		; 00001000H
  00182	72 10		 jb	 SHORT $LN160@OnFolder

; 205  :     const uintptr_t _Ptr_container   = _Ptr_user[-1];

  00184	8b 50 fc	 mov	 edx, DWORD PTR [eax-4]
  00187	83 c1 23	 add	 ecx, 35			; 00000023H
  0018a	2b c2		 sub	 eax, edx

; 219  :     _STL_VERIFY(_Back_shift >= _Min_back_shift && _Back_shift <= _Non_user_size, "invalid argument");

  0018c	83 c0 fc	 add	 eax, -4			; fffffffcH
  0018f	83 f8 1f	 cmp	 eax, 31			; 0000001fH
  00192	77 29		 ja	 SHORT $LN157@OnFolder
$LN160@OnFolder:

; 289  :         ::operator delete(_Ptr, _Bytes);

  00194	51		 push	 ecx
  00195	52		 push	 edx
  00196	e8 00 00 00 00	 call	 ??3@YAXPAXI@Z		; operator delete
  0019b	83 c4 08	 add	 esp, 8
$LN149@OnFolder:
; File C:\Marty 5.5\Src-Client\Client\EterBase\Utils.cpp

; 485  : 			return true;

  0019e	b0 01		 mov	 al, 1

; 486  : 		}

  001a0	8b 4d f4	 mov	 ecx, DWORD PTR __$EHRec$[ebp]
  001a3	64 89 0d 00 00
	00 00		 mov	 DWORD PTR fs:0, ecx
  001aa	59		 pop	 ecx
  001ab	5f		 pop	 edi
  001ac	5e		 pop	 esi
  001ad	8b 4d f0	 mov	 ecx, DWORD PTR __$ArrayPad$[ebp]
  001b0	33 cd		 xor	 ecx, ebp
  001b2	e8 00 00 00 00	 call	 @__security_check_cookie@4
  001b7	8b e5		 mov	 esp, ebp
  001b9	5d		 pop	 ebp
  001ba	c2 0c 00	 ret	 12			; 0000000cH
$LN157@OnFolder:
; File D:\Program Files\Microsoft Visual Studio\2022\Community\VC\Tools\MSVC\14.43.34808\include\xmemory

; 219  :     _STL_VERIFY(_Back_shift >= _Min_back_shift && _Back_shift <= _Non_user_size, "invalid argument");

  001bd	e8 00 00 00 00	 call	 __invalid_parameter_noinfo_noreturn
$LN168@OnFolder:
  001c2	cc		 int	 3
_TEXT	ENDS
;	COMDAT text$x
text$x	SEGMENT
__unwindfunclet$?OnFolder@CDirRemover@@UAE_NPBD00@Z$0:
  00000	8d 4d d8	 lea	 ecx, DWORD PTR _strFullPathName$[ebp]
  00003	e9 00 00 00 00	 jmp	 ??1?$basic_string@DU?$char_traits@D@std@@V?$allocator@D@2@@std@@QAE@XZ ; std::basic_string<char,std::char_traits<char>,std::allocator<char> >::~basic_string<char,std::char_traits<char>,std::allocator<char> >
__unwindfunclet$?OnFolder@CDirRemover@@UAE_NPBD00@Z$1:
  00008	8d 8d 78 fe ff
	ff		 lea	 ecx, DWORD PTR _remover$[ebp]
  0000e	e9 00 00 00 00	 jmp	 ??1CDirRemover@@UAE@XZ	; CDirRemover::~CDirRemover
__unwindfunclet$?OnFolder@CDirRemover@@UAE_NPBD00@Z$2:
  00013	8d 4d c0	 lea	 ecx, DWORD PTR _strWorkingFolder$[ebp]
  00016	e9 00 00 00 00	 jmp	 ??1?$basic_string@DU?$char_traits@D@std@@V?$allocator@D@2@@std@@QAE@XZ ; std::basic_string<char,std::char_traits<char>,std::allocator<char> >::~basic_string<char,std::char_traits<char>,std::allocator<char> >
  0001b	cc		 int	 3
  0001c	cc		 int	 3
  0001d	cc		 int	 3
  0001e	cc		 int	 3
  0001f	cc		 int	 3
__ehhandler$?OnFolder@CDirRemover@@UAE_NPBD00@Z:
  00020	90		 npad	 1
  00021	90		 npad	 1
  00022	8b 54 24 08	 mov	 edx, DWORD PTR [esp+8]
  00026	8d 42 0c	 lea	 eax, DWORD PTR [edx+12]
  00029	8b 8a 78 fe ff
	ff		 mov	 ecx, DWORD PTR [edx-392]
  0002f	33 c8		 xor	 ecx, eax
  00031	e8 00 00 00 00	 call	 @__security_check_cookie@4
  00036	8b 4a fc	 mov	 ecx, DWORD PTR [edx-4]
  00039	33 c8		 xor	 ecx, eax
  0003b	e8 00 00 00 00	 call	 @__security_check_cookie@4
  00040	b8 00 00 00 00	 mov	 eax, OFFSET __ehfuncinfo$?OnFolder@CDirRemover@@UAE_NPBD00@Z
  00045	e9 00 00 00 00	 jmp	 ___CxxFrameHandler3
text$x	ENDS
?OnFolder@CDirRemover@@UAE_NPBD00@Z ENDP		; CDirRemover::OnFolder
; Function compile flags: /Ogtp
; File C:\Marty 5.5\Src-Client\Client\EterBase\Utils.cpp
;	COMDAT ??1CDirRemover@@UAE@XZ
_TEXT	SEGMENT
??1CDirRemover@@UAE@XZ PROC				; CDirRemover::~CDirRemover, COMDAT
; _this$ = ecx

; 467  : 		{

  00000	c7 01 00 00 00
	00		 mov	 DWORD PTR [ecx], OFFSET ??_7CDirRemover@@6B@

; 468  : 		}

  00006	e9 00 00 00 00	 jmp	 ??1CDir@@UAE@XZ		; CDir::~CDir
??1CDirRemover@@UAE@XZ ENDP				; CDirRemover::~CDirRemover
_TEXT	ENDS
; Function compile flags: /Ogtp
; File D:\Program Files\Microsoft Visual Studio\2022\Community\VC\Tools\MSVC\14.43.34808\include\xstring
; File D:\Program Files\Microsoft Visual Studio\2022\Community\VC\Tools\MSVC\14.43.34808\include\xmemory
; File D:\Program Files\Microsoft Visual Studio\2022\Community\VC\Tools\MSVC\14.43.34808\include\xstring
; File D:\Program Files\Microsoft Visual Studio\2022\Community\VC\Tools\MSVC\14.43.34808\include\xmemory
; File D:\Program Files\Microsoft Visual Studio\2022\Community\VC\Tools\MSVC\14.43.34808\include\xstring
;	COMDAT ??__FstrPathName@?1??GetOnlyPathName@@YAPBDPBD@Z@YAXXZ
text$yd	SEGMENT
??__FstrPathName@?1??GetOnlyPathName@@YAPBDPBD@Z@YAXXZ PROC ; `GetOnlyPathName'::`2'::`dynamic atexit destructor for 'strPathName'', COMDAT

; 434  :         return _Myres > _Small_string_capacity;

  00000	8b 0d 14 00 00
	00		 mov	 ecx, DWORD PTR ?strPathName@?1??GetOnlyPathName@@YAPBDPBD@Z@4V?$basic_string@DU?$char_traits@D@std@@V?$allocator@D@2@@std@@A+20
  00006	83 f9 0f	 cmp	 ecx, 15			; 0000000fH

; 3047 :         if (_My_data._Large_mode_engaged()) {

  00009	76 2f		 jbe	 SHORT $LN23@dynamic
; File D:\Program Files\Microsoft Visual Studio\2022\Community\VC\Tools\MSVC\14.43.34808\include\xmemory

; 981  :         _STD _Deallocate<_New_alignof<_Ty>>(_Ptr, sizeof(_Ty) * _Count);

  0000b	8b 15 00 00 00
	00		 mov	 edx, DWORD PTR ?strPathName@?1??GetOnlyPathName@@YAPBDPBD@Z@4V?$basic_string@DU?$char_traits@D@std@@V?$allocator@D@2@@std@@A
; File D:\Program Files\Microsoft Visual Studio\2022\Community\VC\Tools\MSVC\14.43.34808\include\xstring

; 828  :         _Al.deallocate(_Old_ptr, _Capacity + 1); // +1 for null terminator

  00011	41		 inc	 ecx
; File D:\Program Files\Microsoft Visual Studio\2022\Community\VC\Tools\MSVC\14.43.34808\include\xmemory

; 981  :         _STD _Deallocate<_New_alignof<_Ty>>(_Ptr, sizeof(_Ty) * _Count);

  00012	8b c2		 mov	 eax, edx

; 284  :         if (_Bytes >= _Big_allocation_threshold) {

  00014	81 f9 00 10 00
	00		 cmp	 ecx, 4096		; 00001000H
  0001a	72 14		 jb	 SHORT $LN34@dynamic

; 205  :     const uintptr_t _Ptr_container   = _Ptr_user[-1];

  0001c	8b 50 fc	 mov	 edx, DWORD PTR [eax-4]
  0001f	83 c1 23	 add	 ecx, 35			; 00000023H
  00022	2b c2		 sub	 eax, edx

; 206  : 
; 207  :     // If the following asserts, it likely means that we are performing
; 208  :     // an aligned delete on memory coming from an unaligned allocation.
; 209  :     _STL_ASSERT(_Ptr_user[-2] == _Big_allocation_sentinel, "invalid argument");
; 210  : 
; 211  :     // Extra paranoia on aligned allocation/deallocation; ensure _Ptr_container is
; 212  :     // in range [_Min_back_shift, _Non_user_size]
; 213  : #ifdef _DEBUG
; 214  :     constexpr uintptr_t _Min_back_shift = 2 * sizeof(void*);
; 215  : #else // ^^^ defined(_DEBUG) / !defined(_DEBUG) vvv
; 216  :     constexpr uintptr_t _Min_back_shift = sizeof(void*);
; 217  : #endif // ^^^ !defined(_DEBUG) ^^^
; 218  :     const uintptr_t _Back_shift = reinterpret_cast<uintptr_t>(_Ptr) - _Ptr_container;
; 219  :     _STL_VERIFY(_Back_shift >= _Min_back_shift && _Back_shift <= _Non_user_size, "invalid argument");

  00024	83 c0 fc	 add	 eax, -4			; fffffffcH
  00027	83 f8 1f	 cmp	 eax, 31			; 0000001fH
  0002a	0f 87 00 00 00
	00		 ja	 __invalid_parameter_noinfo_noreturn
$LN34@dynamic:

; 289  :         ::operator delete(_Ptr, _Bytes);

  00030	51		 push	 ecx
  00031	52		 push	 edx
  00032	e8 00 00 00 00	 call	 ??3@YAXPAXI@Z		; operator delete
  00037	83 c4 08	 add	 esp, 8
$LN23@dynamic:
; File D:\Program Files\Microsoft Visual Studio\2022\Community\VC\Tools\MSVC\14.43.34808\include\xstring

; 3054 :         _My_data._Mysize = 0;

  0003a	c7 05 10 00 00
	00 00 00 00 00	 mov	 DWORD PTR ?strPathName@?1??GetOnlyPathName@@YAPBDPBD@Z@4V?$basic_string@DU?$char_traits@D@std@@V?$allocator@D@2@@std@@A+16, 0

; 3055 :         _My_data._Myres  = _Small_string_capacity;

  00044	c7 05 14 00 00
	00 0f 00 00 00	 mov	 DWORD PTR ?strPathName@?1??GetOnlyPathName@@YAPBDPBD@Z@4V?$basic_string@DU?$char_traits@D@std@@V?$allocator@D@2@@std@@A+20, 15 ; 0000000fH

; 3056 :         // the _Traits::assign is last so the codegen doesn't think the char write can alias this
; 3057 :         _Traits::assign(_My_data._Bx._Buf[0], _Elem());

  0004e	c6 05 00 00 00
	00 00		 mov	 BYTE PTR ?strPathName@?1??GetOnlyPathName@@YAPBDPBD@Z@4V?$basic_string@DU?$char_traits@D@std@@V?$allocator@D@2@@std@@A, 0
  00055	c3		 ret	 0
??__FstrPathName@?1??GetOnlyPathName@@YAPBDPBD@Z@YAXXZ ENDP ; `GetOnlyPathName'::`2'::`dynamic atexit destructor for 'strPathName''
text$yd	ENDS
; Function compile flags: /Ogtp
; File C:\Marty 5.5\Src-Client\Client\EterBase\Utils.cpp
;	COMDAT ?GetExcutedFileName@@YAXAAV?$basic_string@DU?$char_traits@D@std@@V?$allocator@D@2@@std@@@Z
_TEXT	SEGMENT
_szPath$ = -268						; size = 261
__$ArrayPad$ = -4					; size = 4
_r_str$ = 8						; size = 4
?GetExcutedFileName@@YAXAAV?$basic_string@DU?$char_traits@D@std@@V?$allocator@D@2@@std@@@Z PROC ; GetExcutedFileName, COMDAT

; 577  : {

  00000	55		 push	 ebp
  00001	8b ec		 mov	 ebp, esp
  00003	81 ec 0c 01 00
	00		 sub	 esp, 268		; 0000010cH
  00009	a1 00 00 00 00	 mov	 eax, DWORD PTR ___security_cookie
  0000e	33 c5		 xor	 eax, ebp
  00010	89 45 fc	 mov	 DWORD PTR __$ArrayPad$[ebp], eax
  00013	56		 push	 esi
  00014	8b 75 08	 mov	 esi, DWORD PTR _r_str$[ebp]

; 578  : 	char szPath[MAX_PATH+1];
; 579  : 
; 580  : 	GetModuleFileName(NULL, szPath, MAX_PATH);

  00017	8d 85 f4 fe ff
	ff		 lea	 eax, DWORD PTR _szPath$[ebp]
  0001d	68 04 01 00 00	 push	 260			; 00000104H
  00022	50		 push	 eax
  00023	6a 00		 push	 0
  00025	ff 15 00 00 00
	00		 call	 DWORD PTR __imp__GetModuleFileNameA@12

; 581  : 	szPath[MAX_PATH] = '\0';
; 582  : 
; 583  : 	r_str = szPath;

  0002b	8d 85 f4 fe ff
	ff		 lea	 eax, DWORD PTR _szPath$[ebp]
  00031	c6 45 f8 00	 mov	 BYTE PTR _szPath$[ebp+260], 0
  00035	50		 push	 eax
  00036	8b ce		 mov	 ecx, esi
  00038	e8 00 00 00 00	 call	 ??4?$basic_string@DU?$char_traits@D@std@@V?$allocator@D@2@@std@@QAEAAV01@QBD@Z ; std::basic_string<char,std::char_traits<char>,std::allocator<char> >::operator=

; 584  : }

  0003d	8b 4d fc	 mov	 ecx, DWORD PTR __$ArrayPad$[ebp]
  00040	33 cd		 xor	 ecx, ebp
  00042	5e		 pop	 esi
  00043	e8 00 00 00 00	 call	 @__security_check_cookie@4
  00048	8b e5		 mov	 esp, ebp
  0004a	5d		 pop	 ebp
  0004b	c3		 ret	 0
?GetExcutedFileName@@YAXAAV?$basic_string@DU?$char_traits@D@std@@V?$allocator@D@2@@std@@@Z ENDP ; GetExcutedFileName
_TEXT	ENDS
; Function compile flags: /Ogtp
; File C:\Marty 5.5\Src-Client\Client\EterBase\Utils.cpp
; File D:\Program Files\Microsoft Visual Studio\2022\Community\VC\Tools\MSVC\14.43.34808\include\__msvc_string_view.hpp
; File D:\Program Files\Microsoft Visual Studio\2022\Community\VC\Tools\MSVC\14.43.34808\include\xstring
; File D:\Program Files\Microsoft Visual Studio\2022\Community\VC\Tools\MSVC\14.43.34808\include\__msvc_string_view.hpp
; File C:\Marty 5.5\Src-Client\Client\EterBase\Utils.cpp
; File D:\Program Files\Microsoft Visual Studio\2022\Community\VC\Tools\MSVC\14.43.34808\include\xstring
; File C:\Marty 5.5\Src-Client\Client\EterBase\Utils.cpp
; File D:\Program Files\Microsoft Visual Studio\2022\Community\VC\Tools\MSVC\14.43.34808\include\xstring
; File C:\Marty 5.5\Src-Client\Client\EterBase\Utils.cpp
; File D:\Program Files\Microsoft Visual Studio\2022\Community\VC\Tools\MSVC\14.43.34808\include\xstring
; File C:\Marty 5.5\Src-Client\Client\EterBase\Utils.cpp
; File D:\Program Files\Microsoft Visual Studio\2022\Community\VC\Tools\MSVC\14.43.34808\include\xstring
; File C:\Marty 5.5\Src-Client\Client\EterBase\Utils.cpp
; File D:\Program Files\Microsoft Visual Studio\2022\Community\VC\Tools\MSVC\14.43.34808\include\xstring
; File D:\Program Files\Microsoft Visual Studio\2022\Community\VC\Tools\MSVC\14.43.34808\include\xmemory
; File D:\Program Files\Microsoft Visual Studio\2022\Community\VC\Tools\MSVC\14.43.34808\include\__msvc_string_view.hpp
; File D:\Program Files\Microsoft Visual Studio\2022\Community\VC\Tools\MSVC\14.43.34808\include\xstring
; File D:\Program Files\Microsoft Visual Studio\2022\Community\VC\Tools\MSVC\14.43.34808\include\__msvc_string_view.hpp
; File D:\Program Files\Microsoft Visual Studio\2022\Community\VC\Tools\MSVC\14.43.34808\include\xstring
; File D:\Program Files\Microsoft Visual Studio\2022\Community\VC\Tools\MSVC\14.43.34808\include\xmemory
; File D:\Program Files\Microsoft Visual Studio\2022\Community\VC\Tools\MSVC\14.43.34808\include\xstring
; File D:\Program Files\Microsoft Visual Studio\2022\Community\VC\Tools\MSVC\14.43.34808\include\__msvc_string_view.hpp
; File D:\Program Files\Microsoft Visual Studio\2022\Community\VC\Tools\MSVC\14.43.34808\include\xstring
; File D:\Program Files\Microsoft Visual Studio\2022\Community\VC\Tools\MSVC\14.43.34808\include\__msvc_string_view.hpp
; File D:\Program Files\Microsoft Visual Studio\2022\Community\VC\Tools\MSVC\14.43.34808\include\xstring
; File D:\Program Files\Microsoft Visual Studio\2022\Community\VC\Tools\MSVC\14.43.34808\include\__msvc_string_view.hpp
; File D:\Program Files\Microsoft Visual Studio\2022\Community\VC\Tools\MSVC\14.43.34808\include\xstring
; File D:\Program Files\Microsoft Visual Studio\2022\Community\VC\Tools\MSVC\14.43.34808\include\__msvc_string_view.hpp
; File D:\Program Files\Microsoft Visual Studio\2022\Community\VC\Tools\MSVC\14.43.34808\include\xstring
; File D:\Program Files\Microsoft Visual Studio\2022\Community\VC\Tools\MSVC\14.43.34808\include\__msvc_string_view.hpp
; File D:\Program Files\Microsoft Visual Studio\2022\Community\VC\Tools\MSVC\14.43.34808\include\xstring
; File D:\Program Files\Microsoft Visual Studio\2022\Community\VC\Tools\MSVC\14.43.34808\include\xmemory
; File D:\Program Files\Microsoft Visual Studio\2022\Community\VC\Tools\MSVC\14.43.34808\include\xstring
; File D:\Program Files\Microsoft Visual Studio\2022\Community\VC\Tools\MSVC\14.43.34808\include\xmemory
; File D:\Program Files\Microsoft Visual Studio\2022\Community\VC\Tools\MSVC\14.43.34808\include\xstring
; File C:\Marty 5.5\Src-Client\Client\EterBase\Utils.cpp
; File D:\Program Files\Microsoft Visual Studio\2022\Community\VC\Tools\MSVC\14.43.34808\include\xstring
; File D:\Program Files\Microsoft Visual Studio\2022\Community\VC\Tools\MSVC\14.43.34808\include\xmemory
; File D:\Program Files\Microsoft Visual Studio\2022\Community\VC\Tools\MSVC\14.43.34808\include\xstring
; File D:\Program Files\Microsoft Visual Studio\2022\Community\VC\Tools\MSVC\14.43.34808\include\xmemory
; File D:\Program Files\Microsoft Visual Studio\2022\Community\VC\Tools\MSVC\14.43.34808\include\xstring
; File C:\Marty 5.5\Src-Client\Client\EterBase\Utils.cpp
; File D:\Program Files\Microsoft Visual Studio\2022\Community\VC\Tools\MSVC\14.43.34808\include\xstring
; File D:\Program Files\Microsoft Visual Studio\2022\Community\VC\Tools\MSVC\14.43.34808\include\xmemory
; File C:\Marty 5.5\Src-Client\Client\EterBase\Utils.cpp
; File D:\Program Files\Microsoft Visual Studio\2022\Community\VC\Tools\MSVC\14.43.34808\include\xmemory
; File C:\Marty 5.5\Src-Client\Client\EterBase\Utils.cpp
; File D:\Program Files\Microsoft Visual Studio\2022\Community\VC\Tools\MSVC\14.43.34808\include\xmemory
; File D:\Program Files\Microsoft Visual Studio\2022\Community\VC\Tools\MSVC\14.43.34808\include\xstring
; File C:\Marty 5.5\Src-Client\Client\EterBase\Utils.cpp
;	COMDAT ?StringExceptCharacter@@YAXPAV?$basic_string@DU?$char_traits@D@std@@V?$allocator@D@2@@std@@PBD@Z
_TEXT	SEGMENT
__Ptr$1$ = -376						; size = 4
__Result$2$ = -372					; size = 4
__Result$2$ = -368					; size = 4
__Ptr$1$ = -364						; size = 4
_pstrString$GSCopy$1$ = -360				; size = 4
_c_szCharacter$GSCopy$1$ = -356				; size = 4
$T2 = -352						; size = 4
__Ptr$1$ = -352						; size = 4
__Result$1$ = -348					; size = 4
__New_size$1$ = -348					; size = 4
__Matches$3 = -344					; size = 256
_strBack$4 = -88					; size = 24
$T5 = -64						; size = 24
_strFront$6 = -40					; size = 24
__$ArrayPad$ = -16					; size = 4
__$EHRec$ = -12						; size = 12
_pstrString$ = 8					; size = 4
_c_szCharacter$ = 12					; size = 4
?StringExceptCharacter@@YAXPAV?$basic_string@DU?$char_traits@D@std@@V?$allocator@D@2@@std@@PBD@Z PROC ; StringExceptCharacter, COMDAT

; 525  : {

  00000	55		 push	 ebp
  00001	8b ec		 mov	 ebp, esp
  00003	6a ff		 push	 -1
  00005	68 00 00 00 00	 push	 __ehhandler$?StringExceptCharacter@@YAXPAV?$basic_string@DU?$char_traits@D@std@@V?$allocator@D@2@@std@@PBD@Z
  0000a	64 a1 00 00 00
	00		 mov	 eax, DWORD PTR fs:0
  00010	50		 push	 eax
  00011	81 ec 6c 01 00
	00		 sub	 esp, 364		; 0000016cH
  00017	a1 00 00 00 00	 mov	 eax, DWORD PTR ___security_cookie
  0001c	33 c5		 xor	 eax, ebp
  0001e	89 45 f0	 mov	 DWORD PTR __$ArrayPad$[ebp], eax
  00021	56		 push	 esi
  00022	57		 push	 edi
  00023	50		 push	 eax
  00024	8d 45 f4	 lea	 eax, DWORD PTR __$EHRec$[ebp]
  00027	64 a3 00 00 00
	00		 mov	 DWORD PTR fs:0, eax
  0002d	8b 4d 08	 mov	 ecx, DWORD PTR _pstrString$[ebp]
  00030	8b 45 0c	 mov	 eax, DWORD PTR _c_szCharacter$[ebp]
  00033	89 8d 98 fe ff
	ff		 mov	 DWORD PTR _pstrString$GSCopy$1$[ebp], ecx
  00039	89 85 9c fe ff
	ff		 mov	 DWORD PTR _c_szCharacter$GSCopy$1$[ebp], eax
  0003f	90		 npad	 1
$LL2@StringExce:
; File D:\Program Files\Microsoft Visual Studio\2022\Community\VC\Tools\MSVC\14.43.34808\include\__msvc_string_view.hpp

; 430  :             return __builtin_strlen(_First);

  00040	8b f8		 mov	 edi, eax
  00042	8d 57 01	 lea	 edx, DWORD PTR [edi+1]
$LL346@StringExce:
  00045	8a 07		 mov	 al, BYTE PTR [edi]
  00047	47		 inc	 edi
  00048	84 c0		 test	 al, al
  0004a	75 f9		 jne	 SHORT $LL346@StringExce
  0004c	2b fa		 sub	 edi, edx
; File D:\Program Files\Microsoft Visual Studio\2022\Community\VC\Tools\MSVC\14.43.34808\include\xstring

; 425  :         const value_type* _Result = _Bx._Buf;

  0004e	89 8d a4 fe ff
	ff		 mov	 DWORD PTR __Result$1$[ebp], ecx

; 434  :         return _Myres > _Small_string_capacity;

  00054	83 79 14 0f	 cmp	 DWORD PTR [ecx+20], 15	; 0000000fH

; 425  :         const value_type* _Result = _Bx._Buf;

  00058	8b c1		 mov	 eax, ecx

; 2661 :         return static_cast<size_type>(_Traits_find_first_of<_Traits>(

  0005a	8b 51 10	 mov	 edx, DWORD PTR [ecx+16]
  0005d	89 95 a0 fe ff
	ff		 mov	 DWORD PTR $T2[ebp], edx

; 426  :         if (_Large_mode_engaged()) {

  00063	76 08		 jbe	 SHORT $LN342@StringExce

; 427  :             _Result = _Unfancy(_Bx._Ptr);

  00065	8b 01		 mov	 eax, DWORD PTR [ecx]
  00067	89 85 a4 fe ff
	ff		 mov	 DWORD PTR __Result$1$[ebp], eax
$LN342@StringExce:
; File D:\Program Files\Microsoft Visual Studio\2022\Community\VC\Tools\MSVC\14.43.34808\include\__msvc_string_view.hpp

; 812  :     if (_Needle_size == 0 || _Start_at >= _Hay_size) { // no match possible

  0006d	85 ff		 test	 edi, edi
  0006f	0f 84 81 00 00
	00		 je	 $LN29@StringExce
  00075	85 d2		 test	 edx, edx
  00077	0f 84 79 00 00
	00		 je	 $LN29@StringExce

; 813  :         return static_cast<size_t>(-1);
; 814  :     }
; 815  : 
; 816  :     const auto _Hay_start = _Haystack + _Start_at;
; 817  :     const auto _Hay_end   = _Haystack + _Hay_size;

  0007d	8d 34 02	 lea	 esi, DWORD PTR [edx+eax]

; 818  : 
; 819  :     if constexpr (_Is_implementation_handled_char_traits<_Traits>) {
; 820  :         if (!_STD _Is_constant_evaluated()) {
; 821  :             using _Elem = typename _Traits::char_type;
; 822  : 
; 823  : #if _USE_STD_VECTOR_ALGORITHMS
; 824  :             const bool _Try_vectorize = _Hay_size - _Start_at > _Threshold_find_first_of;
; 825  : 
; 826  :             // Additional condition for when the vectorization outperforms the table lookup
; 827  :             constexpr size_t _Find_first_of_bitmap_threshold = sizeof(_Elem) == 1 ? 48 : sizeof(_Elem) == 8 ? 8 : 16;
; 828  : 
; 829  :             const bool _Use_bitmap = !_Try_vectorize || _Needle_size > _Find_first_of_bitmap_threshold;

  00080	83 fa 10	 cmp	 edx, 16			; 00000010H
  00083	76 13		 jbe	 SHORT $LN341@StringExce
  00085	83 ff 30	 cmp	 edi, 48			; 00000030H
  00088	77 0e		 ja	 SHORT $LN341@StringExce
  0008a	8b 95 9c fe ff
	ff		 mov	 edx, DWORD PTR _c_szCharacter$GSCopy$1$[ebp]
  00090	8d 0c 3a	 lea	 ecx, DWORD PTR [edx+edi]
  00093	e9 a7 01 00 00	 jmp	 $LN344@StringExce
$LN341@StringExce:
  00098	68 00 01 00 00	 push	 256			; 00000100H
  0009d	8d 85 a8 fe ff
	ff		 lea	 eax, DWORD PTR __Matches$3[ebp]
  000a3	6a 00		 push	 0
  000a5	50		 push	 eax
  000a6	e8 00 00 00 00	 call	 _memset

; 830  : #else // ^^^ _USE_STD_VECTOR_ALGORITHMS / !_USE_STD_VECTOR_ALGORITHMS vvv
; 831  :             const bool _Use_bitmap = true;
; 832  : #endif // ^^^ !_USE_STD_VECTOR_ALGORITHMS ^^^
; 833  : 
; 834  :             if (_Use_bitmap) {
; 835  :                 _String_bitmap<_Elem> _Matches;
; 836  : 
; 837  :                 if (_Matches._Mark(_Needle, _Needle + _Needle_size)) {

  000ab	8b 8d 9c fe ff
	ff		 mov	 ecx, DWORD PTR _c_szCharacter$GSCopy$1$[ebp]
  000b1	83 c4 0c	 add	 esp, 12			; 0000000cH
  000b4	8d 04 39	 lea	 eax, DWORD PTR [ecx+edi]
  000b7	50		 push	 eax
  000b8	51		 push	 ecx
  000b9	8d 8d a8 fe ff
	ff		 lea	 ecx, DWORD PTR __Matches$3[ebp]
  000bf	e8 00 00 00 00	 call	 ?_Mark@?$_String_bitmap@D$00@std@@QAE_NPBDQBD@Z ; std::_String_bitmap<char,1>::_Mark
  000c4	84 c0		 test	 al, al
  000c6	0f 84 54 01 00
	00		 je	 $LN335@StringExce

; 838  :                     for (auto _Match_try = _Hay_start; _Match_try < _Hay_end; ++_Match_try) {

  000cc	8b 95 a4 fe ff
	ff		 mov	 edx, DWORD PTR __Result$1$[ebp]
  000d2	8b f2		 mov	 esi, edx
  000d4	8b 8d a0 fe ff
	ff		 mov	 ecx, DWORD PTR $T2[ebp]
  000da	03 ca		 add	 ecx, edx
  000dc	3b d1		 cmp	 edx, ecx
  000de	73 16		 jae	 SHORT $LN29@StringExce
$LL24@StringExce:

; 770  :         return _Matches[static_cast<unsigned char>(_Ch)];

  000e0	0f b6 06	 movzx	 eax, BYTE PTR [esi]

; 839  :                         if (_Matches._Match(*_Match_try)) {

  000e3	80 bc 05 a8 fe
	ff ff 00	 cmp	 BYTE PTR __Matches$3[ebp+eax], 0
  000eb	0f 85 28 01 00
	00		 jne	 $LN325@StringExce

; 838  :                     for (auto _Match_try = _Hay_start; _Match_try < _Hay_end; ++_Match_try) {

  000f1	46		 inc	 esi
  000f2	3b f1		 cmp	 esi, ecx
  000f4	72 ea		 jb	 SHORT $LL24@StringExce
$LN29@StringExce:
; File C:\Marty 5.5\Src-Client\Client\EterBase\Utils.cpp

; 529  : 	while((iNextPos = pstrString->find_first_of(c_szCharacter, icurPos)) >= 0)

  000f6	83 ce ff	 or	 esi, -1
$LN21@StringExce:
  000f9	85 f6		 test	 esi, esi
  000fb	0f 88 1c 03 00
	00		 js	 $LN3@StringExce
; File D:\Program Files\Microsoft Visual Studio\2022\Community\VC\Tools\MSVC\14.43.34808\include\xstring

; 450  :         if (_Mysize < _Off) {

  00101	8b bd 98 fe ff
	ff		 mov	 edi, DWORD PTR _pstrString$GSCopy$1$[ebp]

; 468  :         return (_STD min)(_Size, _Mysize - _Off);

  00107	8b ce		 mov	 ecx, esi
  00109	0f 57 c0	 xorps	 xmm0, xmm0

; 498  :     size_type _Mysize = 0; // current length of string (size)

  0010c	c7 45 e8 00 00
	00 00		 mov	 DWORD PTR _strFront$6[ebp+16], 0

; 474  :         _CONSTEXPR20 _Bxty() noexcept : _Buf() {} // user-provided, for fancy pointers

  00113	0f 11 45 d8	 movups	 XMMWORD PTR _strFront$6[ebp], xmm0

; 499  :     size_type _Myres  = 0; // current storage reserved for string (capacity)

  00117	c7 45 ec 00 00
	00 00		 mov	 DWORD PTR _strFront$6[ebp+20], 0

; 425  :         const value_type* _Result = _Bx._Buf;

  0011e	8b c7		 mov	 eax, edi

; 468  :         return (_STD min)(_Size, _Mysize - _Off);

  00120	39 77 10	 cmp	 DWORD PTR [edi+16], esi
  00123	0f 42 4f 10	 cmovb	 ecx, DWORD PTR [edi+16]

; 434  :         return _Myres > _Small_string_capacity;

  00127	83 7f 14 0f	 cmp	 DWORD PTR [edi+20], 15	; 0000000fH

; 426  :         if (_Large_mode_engaged()) {

  0012b	76 02		 jbe	 SHORT $LN343@StringExce

; 427  :             _Result = _Unfancy(_Bx._Ptr);

  0012d	8b 07		 mov	 eax, DWORD PTR [edi]
$LN343@StringExce:

; 713  :         _Construct<_Construct_strategy::_From_ptr>(

  0012f	51		 push	 ecx
  00130	50		 push	 eax
  00131	8d 4d d8	 lea	 ecx, DWORD PTR _strFront$6[ebp]
  00134	e8 00 00 00 00	 call	 ??$_Construct@$00PBD@?$basic_string@DU?$char_traits@D@std@@V?$allocator@D@2@@std@@AAEXQBDI@Z ; std::basic_string<char,std::char_traits<char>,std::allocator<char> >::_Construct<1,char const *>
; File C:\Marty 5.5\Src-Client\Client\EterBase\Utils.cpp

; 532  : 		std::string strBack = pstrString->substr(iNextPos+1, pstrString->length() - iNextPos - 1);

  00139	8b 4f 10	 mov	 ecx, DWORD PTR [edi+16]
  0013c	0f 57 c0	 xorps	 xmm0, xmm0
  0013f	8b d1		 mov	 edx, ecx
  00141	c7 45 fc 00 00
	00 00		 mov	 DWORD PTR __$EHRec$[ebp+8], 0
  00148	2b d6		 sub	 edx, esi
; File D:\Program Files\Microsoft Visual Studio\2022\Community\VC\Tools\MSVC\14.43.34808\include\xstring

; 498  :     size_type _Mysize = 0; // current length of string (size)

  0014a	c7 45 b8 00 00
	00 00		 mov	 DWORD PTR _strBack$4[ebp+16], 0
; File C:\Marty 5.5\Src-Client\Client\EterBase\Utils.cpp

; 532  : 		std::string strBack = pstrString->substr(iNextPos+1, pstrString->length() - iNextPos - 1);

  00151	46		 inc	 esi
; File D:\Program Files\Microsoft Visual Studio\2022\Community\VC\Tools\MSVC\14.43.34808\include\xstring

; 499  :     size_type _Myres  = 0; // current storage reserved for string (capacity)

  00152	c7 45 bc 00 00
	00 00		 mov	 DWORD PTR _strBack$4[ebp+20], 0
; File C:\Marty 5.5\Src-Client\Client\EterBase\Utils.cpp

; 532  : 		std::string strBack = pstrString->substr(iNextPos+1, pstrString->length() - iNextPos - 1);

  00159	4a		 dec	 edx
; File D:\Program Files\Microsoft Visual Studio\2022\Community\VC\Tools\MSVC\14.43.34808\include\xstring

; 474  :         _CONSTEXPR20 _Bxty() noexcept : _Buf() {} // user-provided, for fancy pointers

  0015a	0f 11 45 a8	 movups	 XMMWORD PTR _strBack$4[ebp], xmm0

; 450  :         if (_Mysize < _Off) {

  0015e	3b ce		 cmp	 ecx, esi
  00160	0f 82 dc 02 00
	00		 jb	 $LN328@StringExce

; 468  :         return (_STD min)(_Size, _Mysize - _Off);

  00166	2b ce		 sub	 ecx, esi

; 425  :         const value_type* _Result = _Bx._Buf;

  00168	8b c7		 mov	 eax, edi

; 468  :         return (_STD min)(_Size, _Mysize - _Off);

  0016a	3b ca		 cmp	 ecx, edx
  0016c	0f 42 d1	 cmovb	 edx, ecx

; 434  :         return _Myres > _Small_string_capacity;

  0016f	83 7f 14 0f	 cmp	 DWORD PTR [edi+20], 15	; 0000000fH

; 426  :         if (_Large_mode_engaged()) {

  00173	76 02		 jbe	 SHORT $LN119@StringExce

; 427  :             _Result = _Unfancy(_Bx._Ptr);

  00175	8b 07		 mov	 eax, DWORD PTR [edi]
$LN119@StringExce:

; 713  :         _Construct<_Construct_strategy::_From_ptr>(

  00177	03 c6		 add	 eax, esi
  00179	8d 4d a8	 lea	 ecx, DWORD PTR _strBack$4[ebp]
  0017c	52		 push	 edx
  0017d	50		 push	 eax
  0017e	e8 00 00 00 00	 call	 ??$_Construct@$00PBD@?$basic_string@DU?$char_traits@D@std@@V?$allocator@D@2@@std@@AAEXQBDI@Z ; std::basic_string<char,std::char_traits<char>,std::allocator<char> >::_Construct<1,char const *>

; 3115 :     if (_Left.max_size() - _Left_size < _Right_size) {

  00183	8b 4d e8	 mov	 ecx, DWORD PTR _strFront$6[ebp+16]
  00186	b8 ff ff ff 7f	 mov	 eax, 2147483647		; 7fffffffH
  0018b	8b 55 b8	 mov	 edx, DWORD PTR _strBack$4[ebp+16]
  0018e	2b c1		 sub	 eax, ecx
; File C:\Marty 5.5\Src-Client\Client\EterBase\Utils.cpp

; 532  : 		std::string strBack = pstrString->substr(iNextPos+1, pstrString->length() - iNextPos - 1);

  00190	c6 45 fc 01	 mov	 BYTE PTR __$EHRec$[ebp+8], 1
; File D:\Program Files\Microsoft Visual Studio\2022\Community\VC\Tools\MSVC\14.43.34808\include\xstring

; 3115 :     if (_Left.max_size() - _Left_size < _Right_size) {

  00194	3b c2		 cmp	 eax, edx
  00196	0f 82 a1 02 00
	00		 jb	 $LN329@StringExce

; 434  :         return _Myres > _Small_string_capacity;

  0019c	83 7d ec 0f	 cmp	 DWORD PTR _strFront$6[ebp+20], 15 ; 0000000fH

; 425  :         const value_type* _Result = _Bx._Buf;

  001a0	8d 75 d8	 lea	 esi, DWORD PTR _strFront$6[ebp]

; 426  :         if (_Large_mode_engaged()) {

  001a3	8b 45 d8	 mov	 eax, DWORD PTR _strFront$6[ebp]
  001a6	0f 57 c0	 xorps	 xmm0, xmm0
  001a9	0f 47 f0	 cmova	 esi, eax
  001ac	89 85 94 fe ff
	ff		 mov	 DWORD PTR __Ptr$1$[ebp], eax

; 434  :         return _Myres > _Small_string_capacity;

  001b2	83 7d bc 0f	 cmp	 DWORD PTR _strBack$4[ebp+20], 15 ; 0000000fH

; 426  :         if (_Large_mode_engaged()) {

  001b6	8b 45 a8	 mov	 eax, DWORD PTR _strBack$4[ebp]
  001b9	89 b5 90 fe ff
	ff		 mov	 DWORD PTR __Result$2$[ebp], esi

; 425  :         const value_type* _Result = _Bx._Buf;

  001bf	8d 75 a8	 lea	 esi, DWORD PTR _strBack$4[ebp]

; 426  :         if (_Large_mode_engaged()) {

  001c2	0f 47 f0	 cmova	 esi, eax
  001c5	89 85 88 fe ff
	ff		 mov	 DWORD PTR __Ptr$1$[ebp], eax
  001cb	89 b5 8c fe ff
	ff		 mov	 DWORD PTR __Result$2$[ebp], esi

; 1035 :         _Elem* _Ptr             = _My_data._Bx._Buf;

  001d1	8d 45 c0	 lea	 eax, DWORD PTR $T5[ebp]
  001d4	03 d1		 add	 edx, ecx
  001d6	89 85 a0 fe ff
	ff		 mov	 DWORD PTR __Ptr$1$[ebp], eax
  001dc	be 0f 00 00 00	 mov	 esi, 15			; 0000000fH
  001e1	89 95 a4 fe ff
	ff		 mov	 DWORD PTR __New_size$1$[ebp], edx

; 474  :         _CONSTEXPR20 _Bxty() noexcept : _Buf() {} // user-provided, for fancy pointers

  001e7	0f 11 45 c0	 movups	 XMMWORD PTR $T5[ebp], xmm0

; 1039 :         if (_New_capacity < _New_size) {

  001eb	3b d6		 cmp	 edx, esi
  001ed	0f 86 01 01 00
	00		 jbe	 $LN152@StringExce

; 2942 :         const size_type _Masked = _Requested | _Alloc_mask;

  001f3	8b f2		 mov	 esi, edx
  001f5	83 ce 0f	 or	 esi, 15			; 0000000fH
  001f8	81 fe ff ff ff
	7f		 cmp	 esi, 2147483647		; 7fffffffH

; 2943 :         if (_Masked > _Max) { // the mask overflows, settle for max_size()

  001fe	0f 86 b4 00 00
	00		 jbe	 $LN168@StringExce

; 2944 :             return _Max;

  00204	b8 00 00 00 80	 mov	 eax, -2147483648	; 80000000H
  00209	be ff ff ff 7f	 mov	 esi, 2147483647		; 7fffffffH
; File D:\Program Files\Microsoft Visual Studio\2022\Community\VC\Tools\MSVC\14.43.34808\include\xmemory

; 253  :             return _Allocate_manually_vector_aligned<_Traits>(_Bytes);

  0020e	50		 push	 eax
  0020f	e8 00 00 00 00	 call	 ??$_Allocate_manually_vector_aligned@U_Default_allocate_traits@std@@@std@@YAPAXI@Z ; std::_Allocate_manually_vector_aligned<std::_Default_allocate_traits>
  00214	e9 c6 00 00 00	 jmp	 $LN351@StringExce
$LN325@StringExce:
; File D:\Program Files\Microsoft Visual Studio\2022\Community\VC\Tools\MSVC\14.43.34808\include\__msvc_string_view.hpp

; 840  :                             return static_cast<size_t>(_Match_try - _Haystack); // found a match

  00219	2b f2		 sub	 esi, edx

; 841  :                         }
; 842  :                     }
; 843  :                     return static_cast<size_t>(-1); // no match

  0021b	e9 d9 fe ff ff	 jmp	 $LN21@StringExce
$LN335@StringExce:

; 844  :                 }
; 845  : 
; 846  :                 // couldn't put one of the characters into the bitmap, fall back to vectorized or serial algorithms
; 847  :             }
; 848  : 
; 849  : #if _USE_STD_VECTOR_ALGORITHMS
; 850  :             if (_Try_vectorize) {

  00220	8b 8d 9c fe ff
	ff		 mov	 ecx, DWORD PTR _c_szCharacter$GSCopy$1$[ebp]
  00226	8b 95 a0 fe ff
	ff		 mov	 edx, DWORD PTR $T2[ebp]
  0022c	03 cf		 add	 ecx, edi
  0022e	83 fa 10	 cmp	 edx, 16			; 00000010H
  00231	76 37		 jbe	 SHORT $LN36@StringExce
  00233	8b 85 a4 fe ff
	ff		 mov	 eax, DWORD PTR __Result$1$[ebp]
  00239	8b 95 9c fe ff
	ff		 mov	 edx, DWORD PTR _c_szCharacter$GSCopy$1$[ebp]
$LN344@StringExce:

; 851  :                 const _Traits_ptr_t<_Traits> _Found =

  0023f	51		 push	 ecx
  00240	52		 push	 edx
  00241	56		 push	 esi
  00242	50		 push	 eax
  00243	e8 00 00 00 00	 call	 ??$_Find_first_of_vectorized@$$CBD$$CBD@std@@YAPBDQBD000@Z ; std::_Find_first_of_vectorized<char const ,char const >

; 852  :                     _STD _Find_first_of_vectorized(_Hay_start, _Hay_end, _Needle, _Needle + _Needle_size);
; 853  : 
; 854  :                 if (_Found != _Hay_end) {

  00248	8b 8d a4 fe ff
	ff		 mov	 ecx, DWORD PTR __Result$1$[ebp]
  0024e	8b f0		 mov	 esi, eax
  00250	8b 85 a0 fe ff
	ff		 mov	 eax, DWORD PTR $T2[ebp]
  00256	83 c4 10	 add	 esp, 16			; 00000010H
  00259	03 c1		 add	 eax, ecx
  0025b	3b f0		 cmp	 esi, eax
  0025d	0f 84 93 fe ff
	ff		 je	 $LN29@StringExce

; 855  :                     return static_cast<size_t>(_Found - _Haystack); // found a match

  00263	2b f1		 sub	 esi, ecx

; 856  :                 } else {
; 857  :                     return static_cast<size_t>(-1); // no match

  00265	e9 8f fe ff ff	 jmp	 $LN21@StringExce
$LN36@StringExce:

; 858  :                 }
; 859  :             }
; 860  : #endif // _USE_STD_VECTOR_ALGORITHMS
; 861  :         }
; 862  :     }
; 863  : 
; 864  :     for (auto _Match_try = _Hay_start; _Match_try < _Hay_end; ++_Match_try) {

  0026a	8b 8d a4 fe ff
	ff		 mov	 ecx, DWORD PTR __Result$1$[ebp]
  00270	8b f1		 mov	 esi, ecx
  00272	8d 04 0a	 lea	 eax, DWORD PTR [edx+ecx]
  00275	3b c8		 cmp	 ecx, eax
  00277	0f 83 79 fe ff
	ff		 jae	 $LN29@StringExce
  0027d	0f 1f 00	 npad	 3
$LL27@StringExce:

; 451  :             return __builtin_char_memchr(_First, _Ch, _Count);

  00280	0f be 06	 movsx	 eax, BYTE PTR [esi]
  00283	57		 push	 edi
  00284	50		 push	 eax
  00285	ff b5 9c fe ff
	ff		 push	 DWORD PTR _c_szCharacter$GSCopy$1$[ebp]
  0028b	e8 00 00 00 00	 call	 _memchr
  00290	83 c4 0c	 add	 esp, 12			; 0000000cH

; 865  :         if (_Traits::find(_Needle, _Needle_size, *_Match_try)) {

  00293	85 c0		 test	 eax, eax
  00295	75 16		 jne	 SHORT $LN326@StringExce

; 858  :                 }
; 859  :             }
; 860  : #endif // _USE_STD_VECTOR_ALGORITHMS
; 861  :         }
; 862  :     }
; 863  : 
; 864  :     for (auto _Match_try = _Hay_start; _Match_try < _Hay_end; ++_Match_try) {

  00297	8b 85 a0 fe ff
	ff		 mov	 eax, DWORD PTR $T2[ebp]
  0029d	46		 inc	 esi
  0029e	03 85 a4 fe ff
	ff		 add	 eax, DWORD PTR __Result$1$[ebp]
  002a4	3b f0		 cmp	 esi, eax
  002a6	72 d8		 jb	 SHORT $LL27@StringExce
; File D:\Program Files\Microsoft Visual Studio\2022\Community\VC\Tools\MSVC\14.43.34808\include\xstring

; 3115 :     if (_Left.max_size() - _Left_size < _Right_size) {

  002a8	e9 49 fe ff ff	 jmp	 $LN29@StringExce
$LN326@StringExce:
; File D:\Program Files\Microsoft Visual Studio\2022\Community\VC\Tools\MSVC\14.43.34808\include\__msvc_string_view.hpp

; 866  :             return static_cast<size_t>(_Match_try - _Haystack); // found a match

  002ad	2b b5 a4 fe ff
	ff		 sub	 esi, DWORD PTR __Result$1$[ebp]
  002b3	e9 41 fe ff ff	 jmp	 $LN21@StringExce
$LN168@StringExce:
; File D:\Program Files\Microsoft Visual Studio\2022\Community\VC\Tools\MSVC\14.43.34808\include\xstring

; 2951 :         return (_STD max)(_Masked, _Old + _Old / 2);

  002b8	83 fe 16	 cmp	 esi, 22			; 00000016H
  002bb	b8 16 00 00 00	 mov	 eax, 22			; 00000016H
  002c0	0f 42 f0	 cmovb	 esi, eax

; 801  :         ++_Capacity; // Take null terminator into consideration

  002c3	8d 46 01	 lea	 eax, DWORD PTR [esi+1]
; File D:\Program Files\Microsoft Visual Studio\2022\Community\VC\Tools\MSVC\14.43.34808\include\xmemory

; 227  :     if (_Bytes == 0) {

  002c6	85 c0		 test	 eax, eax
  002c8	74 21		 je	 SHORT $LN350@StringExce
$LN182@StringExce:

; 228  :         return nullptr;
; 229  :     }
; 230  : 
; 231  : #if _HAS_CXX20 // TRANSITION, GH-1532
; 232  :     if (_STD is_constant_evaluated()) {
; 233  :         return _Traits::_Allocate(_Bytes);
; 234  :     }
; 235  : #endif // _HAS_CXX20
; 236  : 
; 237  : #ifdef __cpp_aligned_new
; 238  :     if constexpr (_Align > __STDCPP_DEFAULT_NEW_ALIGNMENT__) {
; 239  :         size_t _Passed_align = _Align;
; 240  : #if defined(_M_IX86) || defined(_M_X64)
; 241  :         if (_Bytes >= _Big_allocation_threshold) {
; 242  :             // boost the alignment of big allocations to help autovectorization
; 243  :             _Passed_align = (_STD max)(_Align, _Big_allocation_alignment);
; 244  :         }
; 245  : #endif // defined(_M_IX86) || defined(_M_X64)
; 246  :         return _Traits::_Allocate_aligned(_Bytes, _Passed_align);
; 247  :     } else
; 248  : #endif // defined(__cpp_aligned_new)
; 249  :     {
; 250  : #if defined(_M_IX86) || defined(_M_X64)
; 251  :         if (_Bytes >= _Big_allocation_threshold) {

  002ca	3d 00 10 00 00	 cmp	 eax, 4096		; 00001000H
  002cf	72 08		 jb	 SHORT $LN183@StringExce

; 253  :             return _Allocate_manually_vector_aligned<_Traits>(_Bytes);

  002d1	50		 push	 eax
  002d2	e8 00 00 00 00	 call	 ??$_Allocate_manually_vector_aligned@U_Default_allocate_traits@std@@@std@@YAPAXI@Z ; std::_Allocate_manually_vector_aligned<std::_Default_allocate_traits>
  002d7	eb 06		 jmp	 SHORT $LN351@StringExce
$LN183@StringExce:

; 136  :         return ::operator new(_Bytes);

  002d9	50		 push	 eax
  002da	e8 00 00 00 00	 call	 ??2@YAPAXI@Z		; operator new
$LN351@StringExce:
; File D:\Program Files\Microsoft Visual Studio\2022\Community\VC\Tools\MSVC\14.43.34808\include\xstring

; 1043 :             _Construct_in_place(_My_data._Bx._Ptr, _Fancyptr);

  002df	8b 95 a4 fe ff
	ff		 mov	 edx, DWORD PTR __New_size$1$[ebp]
  002e5	83 c4 04	 add	 esp, 4
  002e8	8b 4d e8	 mov	 ecx, DWORD PTR _strFront$6[ebp+16]
$LN350@StringExce:
  002eb	89 85 a0 fe ff
	ff		 mov	 DWORD PTR __Ptr$1$[ebp], eax
  002f1	89 45 c0	 mov	 DWORD PTR $T5[ebp], eax
$LN152@StringExce:
; File D:\Program Files\Microsoft Visual Studio\2022\Community\VC\Tools\MSVC\14.43.34808\include\__msvc_string_view.hpp

; 95   :         _CSTD memcpy(_First1, _First2, _Count * sizeof(_Elem));

  002f4	51		 push	 ecx
  002f5	ff b5 90 fe ff
	ff		 push	 DWORD PTR __Result$2$[ebp]
; File D:\Program Files\Microsoft Visual Studio\2022\Community\VC\Tools\MSVC\14.43.34808\include\xstring

; 1046 :         _My_data._Mysize = _New_size;

  002fb	89 55 d0	 mov	 DWORD PTR $T5[ebp+16], edx
; File D:\Program Files\Microsoft Visual Studio\2022\Community\VC\Tools\MSVC\14.43.34808\include\__msvc_string_view.hpp

; 95   :         _CSTD memcpy(_First1, _First2, _Count * sizeof(_Elem));

  002fe	50		 push	 eax
; File D:\Program Files\Microsoft Visual Studio\2022\Community\VC\Tools\MSVC\14.43.34808\include\xstring

; 1047 :         _My_data._Myres  = _New_capacity;

  002ff	89 75 d4	 mov	 DWORD PTR $T5[ebp+20], esi
; File D:\Program Files\Microsoft Visual Studio\2022\Community\VC\Tools\MSVC\14.43.34808\include\__msvc_string_view.hpp

; 95   :         _CSTD memcpy(_First1, _First2, _Count * sizeof(_Elem));

  00302	e8 00 00 00 00	 call	 _memcpy
  00307	ff 75 b8	 push	 DWORD PTR _strBack$4[ebp+16]
; File D:\Program Files\Microsoft Visual Studio\2022\Community\VC\Tools\MSVC\14.43.34808\include\xstring

; 1049 :         _Traits::copy(_Ptr + static_cast<ptrdiff_t>(_Left_size), _Right_ptr, _Right_size);

  0030a	8b 45 e8	 mov	 eax, DWORD PTR _strFront$6[ebp+16]
  0030d	8b b5 a0 fe ff
	ff		 mov	 esi, DWORD PTR __Ptr$1$[ebp]
  00313	03 c6		 add	 eax, esi
; File D:\Program Files\Microsoft Visual Studio\2022\Community\VC\Tools\MSVC\14.43.34808\include\__msvc_string_view.hpp

; 95   :         _CSTD memcpy(_First1, _First2, _Count * sizeof(_Elem));

  00315	ff b5 8c fe ff
	ff		 push	 DWORD PTR __Result$2$[ebp]
  0031b	50		 push	 eax
  0031c	e8 00 00 00 00	 call	 _memcpy
; File D:\Program Files\Microsoft Visual Studio\2022\Community\VC\Tools\MSVC\14.43.34808\include\xstring

; 1050 :         _Traits::assign(_Ptr[_New_size], _Elem());

  00321	8b 85 a4 fe ff
	ff		 mov	 eax, DWORD PTR __New_size$1$[ebp]
; File D:\Program Files\Microsoft Visual Studio\2022\Community\VC\Tools\MSVC\14.43.34808\include\__msvc_string_view.hpp

; 95   :         _CSTD memcpy(_First1, _First2, _Count * sizeof(_Elem));

  00327	83 c4 18	 add	 esp, 24			; 00000018H
; File D:\Program Files\Microsoft Visual Studio\2022\Community\VC\Tools\MSVC\14.43.34808\include\xstring

; 1050 :         _Traits::assign(_Ptr[_New_size], _Elem());

  0032a	c6 04 06 00	 mov	 BYTE PTR [esi+eax], 0

; 1202 :         if (this == _STD addressof(_Right)) {

  0032e	8d 45 c0	 lea	 eax, DWORD PTR $T5[ebp]
  00331	3b f8		 cmp	 edi, eax
  00333	74 1a		 je	 SHORT $LN200@StringExce

; 1203 :             return *this;
; 1204 :         }
; 1205 : 
; 1206 :         auto& _Al                 = _Getal();
; 1207 :         auto& _Right_al           = _Right._Getal();
; 1208 :         constexpr auto _Pocma_val = _Choose_pocma_v<_Alty>;
; 1209 :         if constexpr (_Pocma_val == _Pocma_values::_Propagate_allocators) {
; 1210 :             if (_Al != _Right_al) {
; 1211 :                 // intentionally slams into noexcept on OOM, TRANSITION, VSO-466800
; 1212 :                 _Mypair._Myval2._Orphan_all();
; 1213 :                 _Mypair._Myval2._Reload_proxy(_GET_PROXY_ALLOCATOR(_Alty, _Al), _GET_PROXY_ALLOCATOR(_Alty, _Right_al));
; 1214 :             }
; 1215 :         } else if constexpr (_Pocma_val == _Pocma_values::_No_propagate_allocators) {
; 1216 :             if (_Al != _Right_al) {
; 1217 :                 assign(_Right._Mypair._Myval2._Myptr(), _Right._Mypair._Myval2._Mysize);
; 1218 :                 return *this;
; 1219 :             }
; 1220 :         }
; 1221 : 
; 1222 :         _Tidy_deallocate();

  00335	8b cf		 mov	 ecx, edi
  00337	e8 00 00 00 00	 call	 ?_Tidy_deallocate@?$basic_string@DU?$char_traits@D@std@@V?$allocator@D@2@@std@@AAEXXZ ; std::basic_string<char,std::char_traits<char>,std::allocator<char> >::_Tidy_deallocate

; 1262 :                 _CSTD memcpy(_My_data_mem, _Right_data_mem, _Memcpy_val_size);

  0033c	0f 10 45 c0	 movups	 xmm0, XMMWORD PTR $T5[ebp]
  00340	0f 11 07	 movups	 XMMWORD PTR [edi], xmm0
  00343	f3 0f 7e 45 d0	 movq	 xmm0, QWORD PTR $T5[ebp+16]
  00348	66 0f d6 47 10	 movq	 QWORD PTR [edi+16], xmm0

; 434  :         return _Myres > _Small_string_capacity;

  0034d	eb 34		 jmp	 SHORT $LN231@StringExce
$LN200@StringExce:
  0034f	8b 4d d4	 mov	 ecx, DWORD PTR $T5[ebp+20]
  00352	83 f9 0f	 cmp	 ecx, 15			; 0000000fH

; 3047 :         if (_My_data._Large_mode_engaged()) {

  00355	76 2c		 jbe	 SHORT $LN231@StringExce
; File D:\Program Files\Microsoft Visual Studio\2022\Community\VC\Tools\MSVC\14.43.34808\include\xmemory

; 981  :         _STD _Deallocate<_New_alignof<_Ty>>(_Ptr, sizeof(_Ty) * _Count);

  00357	8b 55 c0	 mov	 edx, DWORD PTR $T5[ebp]
; File D:\Program Files\Microsoft Visual Studio\2022\Community\VC\Tools\MSVC\14.43.34808\include\xstring

; 828  :         _Al.deallocate(_Old_ptr, _Capacity + 1); // +1 for null terminator

  0035a	41		 inc	 ecx
; File D:\Program Files\Microsoft Visual Studio\2022\Community\VC\Tools\MSVC\14.43.34808\include\xmemory

; 981  :         _STD _Deallocate<_New_alignof<_Ty>>(_Ptr, sizeof(_Ty) * _Count);

  0035b	8b c2		 mov	 eax, edx

; 284  :         if (_Bytes >= _Big_allocation_threshold) {

  0035d	81 f9 00 10 00
	00		 cmp	 ecx, 4096		; 00001000H
  00363	72 14		 jb	 SHORT $LN242@StringExce

; 205  :     const uintptr_t _Ptr_container   = _Ptr_user[-1];

  00365	8b 50 fc	 mov	 edx, DWORD PTR [eax-4]
  00368	83 c1 23	 add	 ecx, 35			; 00000023H
  0036b	2b c2		 sub	 eax, edx

; 219  :     _STL_VERIFY(_Back_shift >= _Min_back_shift && _Back_shift <= _Non_user_size, "invalid argument");

  0036d	83 c0 fc	 add	 eax, -4			; fffffffcH
  00370	83 f8 1f	 cmp	 eax, 31			; 0000001fH
  00373	0f 87 bf 00 00
	00		 ja	 $LN313@StringExce
$LN242@StringExce:

; 289  :         ::operator delete(_Ptr, _Bytes);

  00379	51		 push	 ecx
  0037a	52		 push	 edx
  0037b	e8 00 00 00 00	 call	 ??3@YAXPAXI@Z		; operator delete
  00380	83 c4 08	 add	 esp, 8
$LN231@StringExce:
; File D:\Program Files\Microsoft Visual Studio\2022\Community\VC\Tools\MSVC\14.43.34808\include\xstring

; 434  :         return _Myres > _Small_string_capacity;

  00383	8b 45 bc	 mov	 eax, DWORD PTR _strBack$4[ebp+20]
; File C:\Marty 5.5\Src-Client\Client\EterBase\Utils.cpp

; 534  : 	}

  00386	c6 45 fc 00	 mov	 BYTE PTR __$EHRec$[ebp+8], 0
; File D:\Program Files\Microsoft Visual Studio\2022\Community\VC\Tools\MSVC\14.43.34808\include\xstring

; 434  :         return _Myres > _Small_string_capacity;

  0038a	83 f8 0f	 cmp	 eax, 15			; 0000000fH

; 3047 :         if (_My_data._Large_mode_engaged()) {

  0038d	76 31		 jbe	 SHORT $LN268@StringExce
; File D:\Program Files\Microsoft Visual Studio\2022\Community\VC\Tools\MSVC\14.43.34808\include\xmemory

; 981  :         _STD _Deallocate<_New_alignof<_Ty>>(_Ptr, sizeof(_Ty) * _Count);

  0038f	8b 95 88 fe ff
	ff		 mov	 edx, DWORD PTR __Ptr$1$[ebp]
; File D:\Program Files\Microsoft Visual Studio\2022\Community\VC\Tools\MSVC\14.43.34808\include\xstring

; 828  :         _Al.deallocate(_Old_ptr, _Capacity + 1); // +1 for null terminator

  00395	8d 48 01	 lea	 ecx, DWORD PTR [eax+1]
; File D:\Program Files\Microsoft Visual Studio\2022\Community\VC\Tools\MSVC\14.43.34808\include\xmemory

; 981  :         _STD _Deallocate<_New_alignof<_Ty>>(_Ptr, sizeof(_Ty) * _Count);

  00398	8b c2		 mov	 eax, edx

; 284  :         if (_Bytes >= _Big_allocation_threshold) {

  0039a	81 f9 00 10 00
	00		 cmp	 ecx, 4096		; 00001000H
  003a0	72 14		 jb	 SHORT $LN279@StringExce

; 205  :     const uintptr_t _Ptr_container   = _Ptr_user[-1];

  003a2	8b 50 fc	 mov	 edx, DWORD PTR [eax-4]
  003a5	83 c1 23	 add	 ecx, 35			; 00000023H
  003a8	2b c2		 sub	 eax, edx

; 219  :     _STL_VERIFY(_Back_shift >= _Min_back_shift && _Back_shift <= _Non_user_size, "invalid argument");

  003aa	83 c0 fc	 add	 eax, -4			; fffffffcH
  003ad	83 f8 1f	 cmp	 eax, 31			; 0000001fH
  003b0	0f 87 82 00 00
	00		 ja	 $LN313@StringExce
$LN279@StringExce:

; 289  :         ::operator delete(_Ptr, _Bytes);

  003b6	51		 push	 ecx
  003b7	52		 push	 edx
  003b8	e8 00 00 00 00	 call	 ??3@YAXPAXI@Z		; operator delete
  003bd	83 c4 08	 add	 esp, 8
$LN268@StringExce:
; File D:\Program Files\Microsoft Visual Studio\2022\Community\VC\Tools\MSVC\14.43.34808\include\xstring

; 434  :         return _Myres > _Small_string_capacity;

  003c0	8b 55 ec	 mov	 edx, DWORD PTR _strFront$6[ebp+20]

; 3047 :         if (_My_data._Large_mode_engaged()) {

  003c3	8b 8d 98 fe ff
	ff		 mov	 ecx, DWORD PTR _pstrString$GSCopy$1$[ebp]
  003c9	8b 85 9c fe ff
	ff		 mov	 eax, DWORD PTR _c_szCharacter$GSCopy$1$[ebp]
; File C:\Marty 5.5\Src-Client\Client\EterBase\Utils.cpp

; 534  : 	}

  003cf	c7 45 fc ff ff
	ff ff		 mov	 DWORD PTR __$EHRec$[ebp+8], -1
; File D:\Program Files\Microsoft Visual Studio\2022\Community\VC\Tools\MSVC\14.43.34808\include\xstring

; 434  :         return _Myres > _Small_string_capacity;

  003d6	83 fa 0f	 cmp	 edx, 15			; 0000000fH

; 3047 :         if (_My_data._Large_mode_engaged()) {

  003d9	0f 86 61 fc ff
	ff		 jbe	 $LL2@StringExce

; 828  :         _Al.deallocate(_Old_ptr, _Capacity + 1); // +1 for null terminator

  003df	8d 4a 01	 lea	 ecx, DWORD PTR [edx+1]
; File D:\Program Files\Microsoft Visual Studio\2022\Community\VC\Tools\MSVC\14.43.34808\include\xmemory

; 981  :         _STD _Deallocate<_New_alignof<_Ty>>(_Ptr, sizeof(_Ty) * _Count);

  003e2	8b 95 94 fe ff
	ff		 mov	 edx, DWORD PTR __Ptr$1$[ebp]
  003e8	8b c2		 mov	 eax, edx

; 284  :         if (_Bytes >= _Big_allocation_threshold) {

  003ea	81 f9 00 10 00
	00		 cmp	 ecx, 4096		; 00001000H
  003f0	72 10		 jb	 SHORT $LN316@StringExce

; 205  :     const uintptr_t _Ptr_container   = _Ptr_user[-1];

  003f2	8b 50 fc	 mov	 edx, DWORD PTR [eax-4]
  003f5	83 c1 23	 add	 ecx, 35			; 00000023H
  003f8	2b c2		 sub	 eax, edx

; 219  :     _STL_VERIFY(_Back_shift >= _Min_back_shift && _Back_shift <= _Non_user_size, "invalid argument");

  003fa	83 c0 fc	 add	 eax, -4			; fffffffcH
  003fd	83 f8 1f	 cmp	 eax, 31			; 0000001fH
  00400	77 36		 ja	 SHORT $LN313@StringExce
$LN316@StringExce:

; 289  :         ::operator delete(_Ptr, _Bytes);

  00402	51		 push	 ecx
  00403	52		 push	 edx
  00404	e8 00 00 00 00	 call	 ??3@YAXPAXI@Z		; operator delete
; File C:\Marty 5.5\Src-Client\Client\EterBase\Utils.cpp

; 534  : 	}

  00409	8b 8d 98 fe ff
	ff		 mov	 ecx, DWORD PTR _pstrString$GSCopy$1$[ebp]
; File D:\Program Files\Microsoft Visual Studio\2022\Community\VC\Tools\MSVC\14.43.34808\include\xmemory

; 289  :         ::operator delete(_Ptr, _Bytes);

  0040f	83 c4 08	 add	 esp, 8
; File C:\Marty 5.5\Src-Client\Client\EterBase\Utils.cpp

; 534  : 	}

  00412	8b 85 9c fe ff
	ff		 mov	 eax, DWORD PTR _c_szCharacter$GSCopy$1$[ebp]
  00418	e9 23 fc ff ff	 jmp	 $LL2@StringExce
$LN3@StringExce:

; 535  : }

  0041d	8b 4d f4	 mov	 ecx, DWORD PTR __$EHRec$[ebp]
  00420	64 89 0d 00 00
	00 00		 mov	 DWORD PTR fs:0, ecx
  00427	59		 pop	 ecx
  00428	5f		 pop	 edi
  00429	5e		 pop	 esi
  0042a	8b 4d f0	 mov	 ecx, DWORD PTR __$ArrayPad$[ebp]
  0042d	33 cd		 xor	 ecx, ebp
  0042f	e8 00 00 00 00	 call	 @__security_check_cookie@4
  00434	8b e5		 mov	 esp, ebp
  00436	5d		 pop	 ebp
  00437	c3		 ret	 0
$LN313@StringExce:
; File D:\Program Files\Microsoft Visual Studio\2022\Community\VC\Tools\MSVC\14.43.34808\include\xmemory

; 219  :     _STL_VERIFY(_Back_shift >= _Min_back_shift && _Back_shift <= _Non_user_size, "invalid argument");

  00438	e8 00 00 00 00	 call	 __invalid_parameter_noinfo_noreturn
$LN329@StringExce:
; File D:\Program Files\Microsoft Visual Studio\2022\Community\VC\Tools\MSVC\14.43.34808\include\xstring

; 3116 :         _Xlen_string();

  0043d	e8 00 00 00 00	 call	 ?_Xlen_string@std@@YAXXZ ; std::_Xlen_string
$LN328@StringExce:

; 451  :             _Xran();

  00442	e8 00 00 00 00	 call	 ?_Xran@?$_String_val@U?$_Simple_types@D@std@@@std@@SAXXZ ; std::_String_val<std::_Simple_types<char> >::_Xran
$LN348@StringExce:
  00447	cc		 int	 3
_TEXT	ENDS
;	COMDAT text$x
text$x	SEGMENT
__unwindfunclet$?StringExceptCharacter@@YAXPAV?$basic_string@DU?$char_traits@D@std@@V?$allocator@D@2@@std@@PBD@Z$0:
  00000	8d 4d d8	 lea	 ecx, DWORD PTR _strFront$6[ebp]
  00003	e9 00 00 00 00	 jmp	 ??1?$basic_string@DU?$char_traits@D@std@@V?$allocator@D@2@@std@@QAE@XZ ; std::basic_string<char,std::char_traits<char>,std::allocator<char> >::~basic_string<char,std::char_traits<char>,std::allocator<char> >
__unwindfunclet$?StringExceptCharacter@@YAXPAV?$basic_string@DU?$char_traits@D@std@@V?$allocator@D@2@@std@@PBD@Z$1:
  00008	8d 4d a8	 lea	 ecx, DWORD PTR _strBack$4[ebp]
  0000b	e9 00 00 00 00	 jmp	 ??1?$basic_string@DU?$char_traits@D@std@@V?$allocator@D@2@@std@@QAE@XZ ; std::basic_string<char,std::char_traits<char>,std::allocator<char> >::~basic_string<char,std::char_traits<char>,std::allocator<char> >
  00010	cc		 int	 3
  00011	cc		 int	 3
  00012	cc		 int	 3
  00013	cc		 int	 3
  00014	cc		 int	 3
__ehhandler$?StringExceptCharacter@@YAXPAV?$basic_string@DU?$char_traits@D@std@@V?$allocator@D@2@@std@@PBD@Z:
  00015	90		 npad	 1
  00016	90		 npad	 1
  00017	8b 54 24 08	 mov	 edx, DWORD PTR [esp+8]
  0001b	8d 42 0c	 lea	 eax, DWORD PTR [edx+12]
  0001e	8b 8a 88 fe ff
	ff		 mov	 ecx, DWORD PTR [edx-376]
  00024	33 c8		 xor	 ecx, eax
  00026	e8 00 00 00 00	 call	 @__security_check_cookie@4
  0002b	8b 4a fc	 mov	 ecx, DWORD PTR [edx-4]
  0002e	33 c8		 xor	 ecx, eax
  00030	e8 00 00 00 00	 call	 @__security_check_cookie@4
  00035	b8 00 00 00 00	 mov	 eax, OFFSET __ehfuncinfo$?StringExceptCharacter@@YAXPAV?$basic_string@DU?$char_traits@D@std@@V?$allocator@D@2@@std@@PBD@Z
  0003a	e9 00 00 00 00	 jmp	 ___CxxFrameHandler3
text$x	ENDS
?StringExceptCharacter@@YAXPAV?$basic_string@DU?$char_traits@D@std@@V?$allocator@D@2@@std@@PBD@Z ENDP ; StringExceptCharacter
; Function compile flags: /Ogtp
; File C:\Marty 5.5\Src-Client\Client\EterBase\Utils.cpp
;	COMDAT ?CommandLineToArgv@@YAPAPADPADPAH@Z
_TEXT	SEGMENT
__argv$1$ = -12						; size = 4
_argv$1$ = -8						; size = 4
_in_QM$1$ = -1						; size = 1
_CmdLine$ = 8						; size = 4
_in_TEXT$1$ = 11					; size = 1
__argc$ = 12						; size = 4
?CommandLineToArgv@@YAPAPADPADPAH@Z PROC		; CommandLineToArgv, COMDAT

; 599  : {

  00000	55		 push	 ebp
  00001	8b ec		 mov	 ebp, esp
  00003	83 ec 0c	 sub	 esp, 12			; 0000000cH
  00006	53		 push	 ebx

; 600  : 	PCHAR* argv;
; 601  : 	PCHAR  _argv;
; 602  : 	ULONG   len;
; 603  : 	ULONG   argc;
; 604  : 	CHAR   a;
; 605  : 	ULONG   i, j;
; 606  : 
; 607  : 	BOOLEAN  in_QM;
; 608  : 	BOOLEAN  in_TEXT;
; 609  : 	BOOLEAN  in_SPACE;
; 610  : 
; 611  : 	len = strlen(CmdLine);

  00007	8b 5d 08	 mov	 ebx, DWORD PTR _CmdLine$[ebp]
  0000a	8b cb		 mov	 ecx, ebx
  0000c	56		 push	 esi
  0000d	57		 push	 edi
  0000e	8d 51 01	 lea	 edx, DWORD PTR [ecx+1]
$LL26@CommandLin:
  00011	8a 01		 mov	 al, BYTE PTR [ecx]
  00013	41		 inc	 ecx
  00014	84 c0		 test	 al, al
  00016	75 f9		 jne	 SHORT $LL26@CommandLin
  00018	2b ca		 sub	 ecx, edx

; 612  : 	i = ((len+2)/2)*sizeof(PVOID) + sizeof(PVOID);

  0001a	8d 41 02	 lea	 eax, DWORD PTR [ecx+2]
  0001d	d1 e8		 shr	 eax, 1
  0001f	8d 34 85 04 00
	00 00		 lea	 esi, DWORD PTR [eax*4+4]

; 613  : 
; 614  : 	argv = (PCHAR*)GlobalAlloc(GMEM_FIXED,

  00026	8d 41 02	 lea	 eax, DWORD PTR [ecx+2]
  00029	03 c6		 add	 eax, esi
  0002b	50		 push	 eax
  0002c	6a 00		 push	 0
  0002e	ff 15 00 00 00
	00		 call	 DWORD PTR __imp__GlobalAlloc@8

; 615  : 		i + (len+2)*sizeof(CHAR));
; 616  : 
; 617  : 	_argv = (PCHAR)(((PUCHAR)argv)+i);
; 618  : 
; 619  : 	argc = 0;

  00034	33 ff		 xor	 edi, edi
  00036	89 45 f8	 mov	 DWORD PTR _argv$1$[ebp], eax

; 620  : 	argv[argc] = _argv;
; 621  : 	in_QM = FALSE;
; 622  : 	in_TEXT = FALSE;
; 623  : 	in_SPACE = TRUE;

  00039	b6 01		 mov	 dh, 1
  0003b	8d 0c 30	 lea	 ecx, DWORD PTR [eax+esi]

; 624  : 	i = 0;
; 625  : 	j = 0;

  0003e	33 f6		 xor	 esi, esi
  00040	89 08		 mov	 DWORD PTR [eax], ecx

; 626  : 
; 627  : 	while( (a = CmdLine[i]) != 0 ) {

  00042	8a 13		 mov	 dl, BYTE PTR [ebx]
  00044	89 4d f4	 mov	 DWORD PTR __argv$1$[ebp], ecx
  00047	32 c9		 xor	 cl, cl
  00049	88 4d ff	 mov	 BYTE PTR _in_QM$1$[ebp], cl
  0004c	88 4d 0b	 mov	 BYTE PTR _in_TEXT$1$[ebp], cl
  0004f	84 d2		 test	 dl, dl
  00051	0f 84 86 00 00
	00		 je	 $LN3@CommandLin

; 600  : 	PCHAR* argv;
; 601  : 	PCHAR  _argv;
; 602  : 	ULONG   len;
; 603  : 	ULONG   argc;
; 604  : 	CHAR   a;
; 605  : 	ULONG   i, j;
; 606  : 
; 607  : 	BOOLEAN  in_QM;
; 608  : 	BOOLEAN  in_TEXT;
; 609  : 	BOOLEAN  in_SPACE;
; 610  : 
; 611  : 	len = strlen(CmdLine);

  00057	8b 45 f4	 mov	 eax, DWORD PTR __argv$1$[ebp]
  0005a	66 0f 1f 44 00
	00		 npad	 6
$LL2@CommandLin:

; 628  : 		if(in_QM) {

  00060	84 c9		 test	 cl, cl
  00062	74 12		 je	 SHORT $LN6@CommandLin

; 629  : 			if(a == '\"') {

  00064	80 fa 22	 cmp	 dl, 34			; 00000022H
  00067	75 07		 jne	 SHORT $LN8@CommandLin

; 630  : 				in_QM = FALSE;

  00069	32 c9		 xor	 cl, cl
  0006b	88 4d ff	 mov	 BYTE PTR _in_QM$1$[ebp], cl

; 631  : 			} else {

  0006e	eb 62		 jmp	 SHORT $LN4@CommandLin
$LN8@CommandLin:

; 632  : 				_argv[j] = a;

  00070	88 10		 mov	 BYTE PTR [eax], dl

; 633  : 				j++;

  00072	46		 inc	 esi
  00073	40		 inc	 eax

; 634  : 			}
; 635  : 		} else {

  00074	eb 5c		 jmp	 SHORT $LN4@CommandLin
$LN6@CommandLin:

; 636  : 			switch(a) {

  00076	0f be ca	 movsx	 ecx, dl
  00079	83 c1 f7	 add	 ecx, -9			; fffffff7H
  0007c	83 f9 19	 cmp	 ecx, 25			; 00000019H
  0007f	77 39		 ja	 SHORT $LN17@CommandLin
  00081	0f b6 89 00 00
	00 00		 movzx	 ecx, BYTE PTR $LN27@CommandLin[ecx]
  00088	ff 24 8d 00 00
	00 00		 jmp	 DWORD PTR $LN28@CommandLin[ecx*4]
$LN10@CommandLin:

; 637  : 				case '\"':
; 638  : 					in_QM = TRUE;

  0008f	b1 01		 mov	 cl, 1
  00091	88 4d ff	 mov	 BYTE PTR _in_QM$1$[ebp], cl

; 639  : 					in_TEXT = TRUE;

  00094	88 4d 0b	 mov	 BYTE PTR _in_TEXT$1$[ebp], cl

; 640  : 					if(in_SPACE) {

  00097	84 f6		 test	 dh, dh
  00099	74 35		 je	 SHORT $LN25@CommandLin

; 641  : 						argv[argc] = _argv+j;

  0009b	8b 55 f8	 mov	 edx, DWORD PTR _argv$1$[ebp]
  0009e	89 04 ba	 mov	 DWORD PTR [edx+edi*4], eax

; 642  : 						argc++;

  000a1	47		 inc	 edi

; 643  : 					}
; 644  : 					in_SPACE = FALSE;
; 645  : 					break;

  000a2	eb 2c		 jmp	 SHORT $LN25@CommandLin
$LN12@CommandLin:

; 646  : 				case ' ':
; 647  : 				case '\t':
; 648  : 				case '\n':
; 649  : 				case '\r':
; 650  : 					if(in_TEXT) {

  000a4	80 7d 0b 00	 cmp	 BYTE PTR _in_TEXT$1$[ebp], 0
  000a8	74 05		 je	 SHORT $LN24@CommandLin

; 651  : 						_argv[j] = '\0';

  000aa	c6 00 00	 mov	 BYTE PTR [eax], 0

; 652  : 						j++;

  000ad	46		 inc	 esi
  000ae	40		 inc	 eax
$LN24@CommandLin:

; 653  : 					}
; 654  : 					in_TEXT = FALSE;
; 655  : 					in_SPACE = TRUE;
; 656  : 					break;

  000af	8a 4d ff	 mov	 cl, BYTE PTR _in_QM$1$[ebp]
  000b2	b6 01		 mov	 dh, 1
  000b4	c6 45 0b 00	 mov	 BYTE PTR _in_TEXT$1$[ebp], 0
  000b8	eb 18		 jmp	 SHORT $LN4@CommandLin
$LN17@CommandLin:

; 657  : 				default:
; 658  : 					in_TEXT = TRUE;

  000ba	c6 45 0b 01	 mov	 BYTE PTR _in_TEXT$1$[ebp], 1

; 659  : 					if(in_SPACE) {

  000be	84 f6		 test	 dh, dh
  000c0	74 07		 je	 SHORT $LN18@CommandLin

; 660  : 						argv[argc] = _argv+j;

  000c2	8b 4d f8	 mov	 ecx, DWORD PTR _argv$1$[ebp]
  000c5	89 04 b9	 mov	 DWORD PTR [ecx+edi*4], eax

; 661  : 						argc++;

  000c8	47		 inc	 edi
$LN18@CommandLin:

; 662  : 					}
; 663  : 					_argv[j] = a;
; 664  : 					j++;

  000c9	8a 4d ff	 mov	 cl, BYTE PTR _in_QM$1$[ebp]
  000cc	46		 inc	 esi
  000cd	88 10		 mov	 BYTE PTR [eax], dl
  000cf	40		 inc	 eax
$LN25@CommandLin:

; 665  : 					in_SPACE = FALSE;
; 666  : 					break;
; 667  : 			}
; 668  : 		}
; 669  : 		i++;

  000d0	32 f6		 xor	 dh, dh
$LN4@CommandLin:

; 626  : 
; 627  : 	while( (a = CmdLine[i]) != 0 ) {

  000d2	8a 53 01	 mov	 dl, BYTE PTR [ebx+1]

; 665  : 					in_SPACE = FALSE;
; 666  : 					break;
; 667  : 			}
; 668  : 		}
; 669  : 		i++;

  000d5	43		 inc	 ebx
  000d6	84 d2		 test	 dl, dl
  000d8	75 86		 jne	 SHORT $LL2@CommandLin
  000da	8b 45 f8	 mov	 eax, DWORD PTR _argv$1$[ebp]
$LN3@CommandLin:

; 670  : 	}
; 671  : 	_argv[j] = '\0';

  000dd	8b 4d f4	 mov	 ecx, DWORD PTR __argv$1$[ebp]
  000e0	c6 04 0e 00	 mov	 BYTE PTR [esi+ecx], 0

; 672  : 	argv[argc] = NULL;
; 673  : 
; 674  : 	(*_argc) = argc;

  000e4	8b 4d 0c	 mov	 ecx, DWORD PTR __argc$[ebp]
  000e7	c7 04 b8 00 00
	00 00		 mov	 DWORD PTR [eax+edi*4], 0
  000ee	89 39		 mov	 DWORD PTR [ecx], edi

; 675  : 	return argv;

  000f0	5f		 pop	 edi
  000f1	5e		 pop	 esi
  000f2	5b		 pop	 ebx

; 676  : }

  000f3	8b e5		 mov	 esp, ebp
  000f5	5d		 pop	 ebp
  000f6	c3		 ret	 0
  000f7	90		 npad	 1
$LN28@CommandLin:
  000f8	00 00 00 00	 DD	 $LN12@CommandLin
  000fc	00 00 00 00	 DD	 $LN10@CommandLin
  00100	00 00 00 00	 DD	 $LN17@CommandLin
$LN27@CommandLin:
  00104	00		 DB	 0
  00105	00		 DB	 0
  00106	02		 DB	 2
  00107	02		 DB	 2
  00108	00		 DB	 0
  00109	02		 DB	 2
  0010a	02		 DB	 2
  0010b	02		 DB	 2
  0010c	02		 DB	 2
  0010d	02		 DB	 2
  0010e	02		 DB	 2
  0010f	02		 DB	 2
  00110	02		 DB	 2
  00111	02		 DB	 2
  00112	02		 DB	 2
  00113	02		 DB	 2
  00114	02		 DB	 2
  00115	02		 DB	 2
  00116	02		 DB	 2
  00117	02		 DB	 2
  00118	02		 DB	 2
  00119	02		 DB	 2
  0011a	02		 DB	 2
  0011b	00		 DB	 0
  0011c	02		 DB	 2
  0011d	01		 DB	 1
?CommandLineToArgv@@YAPAPADPADPAH@Z ENDP		; CommandLineToArgv
_TEXT	ENDS
; Function compile flags: /Ogtp
; File C:\Marty 5.5\Src-Client\Client\EterBase\Utils.cpp
; File D:\Windows Kits\10\Include\10.0.26100.0\ucrt\stdio.h
; File C:\Marty 5.5\Src-Client\Client\EterBase\Utils.cpp
;	COMDAT ?_getf@@YAPBDPBDZZ
_TEXT	SEGMENT
_c_szFormat$ = 8					; size = 4
?_getf@@YAPBDPBDZZ PROC					; _getf, COMDAT

; 587  : {

  00000	55		 push	 ebp
  00001	8b ec		 mov	 ebp, esp
; File D:\Windows Kits\10\Include\10.0.26100.0\ucrt\stdio.h

; 1392 :         int const _Result = __stdio_common_vsprintf(

  00003	8d 45 0c	 lea	 eax, DWORD PTR _c_szFormat$[ebp+4]
  00006	50		 push	 eax
  00007	6a 00		 push	 0
  00009	ff 75 08	 push	 DWORD PTR _c_szFormat$[ebp]
  0000c	68 00 01 00 00	 push	 256			; 00000100H
  00011	68 00 00 00 00	 push	 OFFSET ?szBuf@?1??_getf@@YAPBDPBDZZ@4PADA
  00016	e8 00 00 00 00	 call	 ___local_stdio_printf_options
  0001b	8b 08		 mov	 ecx, DWORD PTR [eax]
  0001d	ff 70 04	 push	 DWORD PTR [eax+4]
  00020	83 c9 01	 or	 ecx, 1
  00023	51		 push	 ecx
  00024	e8 00 00 00 00	 call	 ___stdio_common_vsprintf
  00029	83 c4 1c	 add	 esp, 28			; 0000001cH
; File C:\Marty 5.5\Src-Client\Client\EterBase\Utils.cpp

; 595  : 	return szBuf;

  0002c	b8 00 00 00 00	 mov	 eax, OFFSET ?szBuf@?1??_getf@@YAPBDPBDZZ@4PADA

; 596  : }

  00031	5d		 pop	 ebp
  00032	c3		 ret	 0
?_getf@@YAPBDPBDZZ ENDP					; _getf
_TEXT	ENDS
; Function compile flags: /Ogtp
; File C:\Marty 5.5\Src-Client\Client\EterBase\Utils.cpp
; File D:\Program Files\Microsoft Visual Studio\2022\Community\VC\Tools\MSVC\14.43.34808\include\vector
; File C:\Marty 5.5\Src-Client\Client\EterBase\Utils.cpp
; File D:\Program Files\Microsoft Visual Studio\2022\Community\VC\Tools\MSVC\14.43.34808\include\vector
; File C:\Marty 5.5\Src-Client\Client\EterBase\Utils.cpp
; File D:\Program Files\Microsoft Visual Studio\2022\Community\VC\Tools\MSVC\14.43.34808\include\vector
; File D:\Program Files\Microsoft Visual Studio\2022\Community\VC\Tools\MSVC\14.43.34808\include\xmemory
; File D:\Program Files\Microsoft Visual Studio\2022\Community\VC\Tools\MSVC\14.43.34808\include\vector
; File D:\Program Files\Microsoft Visual Studio\2022\Community\VC\Tools\MSVC\14.43.34808\include\xmemory
; File D:\Program Files\Microsoft Visual Studio\2022\Community\VC\Tools\MSVC\14.43.34808\include\vector
; File D:\Program Files\Microsoft Visual Studio\2022\Community\VC\Tools\MSVC\14.43.34808\include\xmemory
; File D:\Program Files\Microsoft Visual Studio\2022\Community\VC\Tools\MSVC\14.43.34808\include\vector
; File D:\Program Files\Microsoft Visual Studio\2022\Community\VC\Tools\MSVC\14.43.34808\include\__msvc_string_view.hpp
; File D:\Program Files\Microsoft Visual Studio\2022\Community\VC\Tools\MSVC\14.43.34808\include\xstring
; File D:\Program Files\Microsoft Visual Studio\2022\Community\VC\Tools\MSVC\14.43.34808\include\__msvc_string_view.hpp
; File D:\Program Files\Microsoft Visual Studio\2022\Community\VC\Tools\MSVC\14.43.34808\include\xstring
; File C:\Marty 5.5\Src-Client\Client\EterBase\Utils.cpp
; File D:\Program Files\Microsoft Visual Studio\2022\Community\VC\Tools\MSVC\14.43.34808\include\__msvc_string_view.hpp
; File D:\Program Files\Microsoft Visual Studio\2022\Community\VC\Tools\MSVC\14.43.34808\include\xstring
; File D:\Program Files\Microsoft Visual Studio\2022\Community\VC\Tools\MSVC\14.43.34808\include\__msvc_string_view.hpp
; File D:\Program Files\Microsoft Visual Studio\2022\Community\VC\Tools\MSVC\14.43.34808\include\xstring
; File D:\Program Files\Microsoft Visual Studio\2022\Community\VC\Tools\MSVC\14.43.34808\include\xmemory
; File D:\Program Files\Microsoft Visual Studio\2022\Community\VC\Tools\MSVC\14.43.34808\include\xstring
; File D:\Program Files\Microsoft Visual Studio\2022\Community\VC\Tools\MSVC\14.43.34808\include\xmemory
; File D:\Program Files\Microsoft Visual Studio\2022\Community\VC\Tools\MSVC\14.43.34808\include\__msvc_string_view.hpp
; File C:\Marty 5.5\Src-Client\Client\EterBase\Utils.cpp
; File D:\Program Files\Microsoft Visual Studio\2022\Community\VC\Tools\MSVC\14.43.34808\include\xstring
; File C:\Marty 5.5\Src-Client\Client\EterBase\Utils.cpp
; File D:\Program Files\Microsoft Visual Studio\2022\Community\VC\Tools\MSVC\14.43.34808\include\__msvc_string_view.hpp
; File D:\Program Files\Microsoft Visual Studio\2022\Community\VC\Tools\MSVC\14.43.34808\include\xstring
; File C:\Marty 5.5\Src-Client\Client\EterBase\Utils.cpp
; File D:\Program Files\Microsoft Visual Studio\2022\Community\VC\Tools\MSVC\14.43.34808\include\xstring
; File C:\Marty 5.5\Src-Client\Client\EterBase\Utils.cpp
; File D:\Program Files\Microsoft Visual Studio\2022\Community\VC\Tools\MSVC\14.43.34808\include\xstring
; File D:\Program Files\Microsoft Visual Studio\2022\Community\VC\Tools\MSVC\14.43.34808\include\__msvc_string_view.hpp
; File C:\Marty 5.5\Src-Client\Client\EterBase\Utils.cpp
; File D:\Program Files\Microsoft Visual Studio\2022\Community\VC\Tools\MSVC\14.43.34808\include\__msvc_string_view.hpp
; File D:\Program Files\Microsoft Visual Studio\2022\Community\VC\Tools\MSVC\14.43.34808\include\xstring
; File D:\Program Files\Microsoft Visual Studio\2022\Community\VC\Tools\MSVC\14.43.34808\include\__msvc_string_view.hpp
; File C:\Marty 5.5\Src-Client\Client\EterBase\Utils.cpp
; File D:\Program Files\Microsoft Visual Studio\2022\Community\VC\Tools\MSVC\14.43.34808\include\__msvc_string_view.hpp
; File C:\Marty 5.5\Src-Client\Client\EterBase\Utils.cpp
; File D:\Program Files\Microsoft Visual Studio\2022\Community\VC\Tools\MSVC\14.43.34808\include\xstring
; File C:\Marty 5.5\Src-Client\Client\EterBase\Utils.cpp
; File D:\Program Files\Microsoft Visual Studio\2022\Community\VC\Tools\MSVC\14.43.34808\include\xstring
; File D:\Program Files\Microsoft Visual Studio\2022\Community\VC\Tools\MSVC\14.43.34808\include\vector
; File C:\Marty 5.5\Src-Client\Client\EterBase\Utils.cpp
; File D:\Program Files\Microsoft Visual Studio\2022\Community\VC\Tools\MSVC\14.43.34808\include\vector
; File D:\Program Files\Microsoft Visual Studio\2022\Community\VC\Tools\MSVC\14.43.34808\include\xstring
; File D:\Program Files\Microsoft Visual Studio\2022\Community\VC\Tools\MSVC\14.43.34808\include\vector
; File C:\Marty 5.5\Src-Client\Client\EterBase\Utils.cpp
; File D:\Program Files\Microsoft Visual Studio\2022\Community\VC\Tools\MSVC\14.43.34808\include\xstring
; File D:\Program Files\Microsoft Visual Studio\2022\Community\VC\Tools\MSVC\14.43.34808\include\xmemory
; File D:\Program Files\Microsoft Visual Studio\2022\Community\VC\Tools\MSVC\14.43.34808\include\xstring
; File D:\Program Files\Microsoft Visual Studio\2022\Community\VC\Tools\MSVC\14.43.34808\include\xmemory
; File C:\Marty 5.5\Src-Client\Client\EterBase\Utils.cpp
; File D:\Program Files\Microsoft Visual Studio\2022\Community\VC\Tools\MSVC\14.43.34808\include\xmemory
; File C:\Marty 5.5\Src-Client\Client\EterBase\Utils.cpp
; File D:\Program Files\Microsoft Visual Studio\2022\Community\VC\Tools\MSVC\14.43.34808\include\xmemory
; File D:\Program Files\Microsoft Visual Studio\2022\Community\VC\Tools\MSVC\14.43.34808\include\xstring
; File C:\Marty 5.5\Src-Client\Client\EterBase\Utils.cpp
;	COMDAT ?SplitLine@@YA_NPBD0PAV?$vector@V?$basic_string@DU?$char_traits@D@std@@V?$allocator@D@2@@std@@V?$allocator@V?$basic_string@DU?$char_traits@D@std@@V?$allocator@D@2@@std@@@2@@std@@@Z
_TEXT	SEGMENT
tv1663 = -868						; size = 4
_pkVec_strToken$GSCopy$1$ = -864			; size = 4
_beginPos$1$ = -860					; size = 4
__Hay_end$1$ = -860					; size = 4
_c_szLine$GSCopy$1$ = -860				; size = 4
__Result$2$ = -856					; size = 4
__Hay_end$1$ = -856					; size = 4
_c_szDelimeter$GSCopy$1$ = -852				; size = 4
__Mylast$1$ = -848					; size = 4
__Result$2$ = -844					; size = 4
__Hay_end$1$ = -844					; size = 4
__Result$2$ = -844					; size = 4
_strLine$1$ = -840					; size = 4
$T2 = -833						; size = 1
__Matches$3 = -832					; size = 256
__Matches$4 = -576					; size = 256
__Matches$5 = -320					; size = 256
$T6 = -64						; size = 24
_strLine$ = -40						; size = 24
__$ArrayPad$ = -16					; size = 4
__$EHRec$ = -12						; size = 12
_c_szLine$ = 8						; size = 4
_c_szDelimeter$ = 12					; size = 4
_pkVec_strToken$ = 16					; size = 4
?SplitLine@@YA_NPBD0PAV?$vector@V?$basic_string@DU?$char_traits@D@std@@V?$allocator@D@2@@std@@V?$allocator@V?$basic_string@DU?$char_traits@D@std@@V?$allocator@D@2@@std@@@2@@std@@@Z PROC ; SplitLine, COMDAT

; 538  : {

  00000	55		 push	 ebp
  00001	8b ec		 mov	 ebp, esp
  00003	6a ff		 push	 -1
  00005	68 00 00 00 00	 push	 __ehhandler$?SplitLine@@YA_NPBD0PAV?$vector@V?$basic_string@DU?$char_traits@D@std@@V?$allocator@D@2@@std@@V?$allocator@V?$basic_string@DU?$char_traits@D@std@@V?$allocator@D@2@@std@@@2@@std@@@Z
  0000a	64 a1 00 00 00
	00		 mov	 eax, DWORD PTR fs:0
  00010	50		 push	 eax
  00011	81 ec 58 03 00
	00		 sub	 esp, 856		; 00000358H
  00017	a1 00 00 00 00	 mov	 eax, DWORD PTR ___security_cookie
  0001c	33 c5		 xor	 eax, ebp
  0001e	89 45 f0	 mov	 DWORD PTR __$ArrayPad$[ebp], eax
  00021	56		 push	 esi
  00022	57		 push	 edi
  00023	50		 push	 eax
  00024	8d 45 f4	 lea	 eax, DWORD PTR __$EHRec$[ebp]
  00027	64 a3 00 00 00
	00		 mov	 DWORD PTR fs:0, eax
  0002d	8b 55 10	 mov	 edx, DWORD PTR _pkVec_strToken$[ebp]
  00030	8b 75 08	 mov	 esi, DWORD PTR _c_szLine$[ebp]
  00033	8b 7d 0c	 mov	 edi, DWORD PTR _c_szDelimeter$[ebp]
  00036	89 95 a0 fc ff
	ff		 mov	 DWORD PTR _pkVec_strToken$GSCopy$1$[ebp], edx
; File D:\Program Files\Microsoft Visual Studio\2022\Community\VC\Tools\MSVC\14.43.34808\include\vector

; 1909 :         return static_cast<size_type>(_My_data._Myend - _My_data._Myfirst);

  0003c	8b 4a 08	 mov	 ecx, DWORD PTR [edx+8]
  0003f	8d 42 04	 lea	 eax, DWORD PTR [edx+4]
  00042	2b 0a		 sub	 ecx, DWORD PTR [edx]
  00044	89 85 b0 fc ff
	ff		 mov	 DWORD PTR __Mylast$1$[ebp], eax
  0004a	b8 ab aa aa 2a	 mov	 eax, 715827883		; 2aaaaaabH
  0004f	f7 e9		 imul	 ecx

; 1710 :         if (_Newcapacity > capacity()) { // something to do (reserve() never shrinks)

  00051	8b 85 b0 fc ff
	ff		 mov	 eax, DWORD PTR __Mylast$1$[ebp]

; 1909 :         return static_cast<size_type>(_My_data._Myend - _My_data._Myfirst);

  00057	c1 fa 02	 sar	 edx, 2
  0005a	8b ca		 mov	 ecx, edx
; File C:\Marty 5.5\Src-Client\Client\EterBase\Utils.cpp

; 538  : {

  0005c	89 b5 a4 fc ff
	ff		 mov	 DWORD PTR _c_szLine$GSCopy$1$[ebp], esi
; File D:\Program Files\Microsoft Visual Studio\2022\Community\VC\Tools\MSVC\14.43.34808\include\vector

; 1909 :         return static_cast<size_type>(_My_data._Myend - _My_data._Myfirst);

  00062	c1 e9 1f	 shr	 ecx, 31			; 0000001fH
  00065	03 ca		 add	 ecx, edx
; File C:\Marty 5.5\Src-Client\Client\EterBase\Utils.cpp

; 538  : {

  00067	89 bd ac fc ff
	ff		 mov	 DWORD PTR _c_szDelimeter$GSCopy$1$[ebp], edi
; File D:\Program Files\Microsoft Visual Studio\2022\Community\VC\Tools\MSVC\14.43.34808\include\vector

; 1710 :         if (_Newcapacity > capacity()) { // something to do (reserve() never shrinks)

  0006d	83 f9 0a	 cmp	 ecx, 10			; 0000000aH
  00070	73 5e		 jae	 SHORT $LN460@SplitLine

; 1634 :         const auto _Size = static_cast<size_type>(_Mylast - _Myfirst);

  00072	8b 08		 mov	 ecx, DWORD PTR [eax]
  00074	8b 85 a0 fc ff
	ff		 mov	 eax, DWORD PTR _pkVec_strToken$GSCopy$1$[ebp]
; File D:\Program Files\Microsoft Visual Studio\2022\Community\VC\Tools\MSVC\14.43.34808\include\xmemory

; 136  :         return ::operator new(_Bytes);

  0007a	68 f0 00 00 00	 push	 240			; 000000f0H
; File D:\Program Files\Microsoft Visual Studio\2022\Community\VC\Tools\MSVC\14.43.34808\include\vector

; 1634 :         const auto _Size = static_cast<size_type>(_Mylast - _Myfirst);

  0007f	2b 08		 sub	 ecx, DWORD PTR [eax]
  00081	b8 ab aa aa 2a	 mov	 eax, 715827883		; 2aaaaaabH
  00086	f7 e9		 imul	 ecx
  00088	c1 fa 02	 sar	 edx, 2
  0008b	8b fa		 mov	 edi, edx
  0008d	c1 ef 1f	 shr	 edi, 31			; 0000001fH
  00090	03 fa		 add	 edi, edx
; File D:\Program Files\Microsoft Visual Studio\2022\Community\VC\Tools\MSVC\14.43.34808\include\xmemory

; 136  :         return ::operator new(_Bytes);

  00092	e8 00 00 00 00	 call	 ??2@YAPAXI@Z		; operator new
; File D:\Program Files\Microsoft Visual Studio\2022\Community\VC\Tools\MSVC\14.43.34808\include\vector

; 1647 :             _Uninitialized_move(_Myfirst, _Mylast, _Newvec, _Al);

  00097	8b 8d a0 fc ff
	ff		 mov	 ecx, DWORD PTR _pkVec_strToken$GSCopy$1$[ebp]
; File D:\Program Files\Microsoft Visual Studio\2022\Community\VC\Tools\MSVC\14.43.34808\include\xmemory

; 256  :         return _Traits::_Allocate(_Bytes);

  0009d	8b f0		 mov	 esi, eax
; File D:\Program Files\Microsoft Visual Studio\2022\Community\VC\Tools\MSVC\14.43.34808\include\vector

; 1647 :             _Uninitialized_move(_Myfirst, _Mylast, _Newvec, _Al);

  0009f	8b 85 b0 fc ff
	ff		 mov	 eax, DWORD PTR __Mylast$1$[ebp]
  000a5	51		 push	 ecx
  000a6	56		 push	 esi
  000a7	ff 30		 push	 DWORD PTR [eax]
  000a9	ff 31		 push	 DWORD PTR [ecx]
  000ab	e8 00 00 00 00	 call	 ??$_Uninitialized_move@PAV?$basic_string@DU?$char_traits@D@std@@V?$allocator@D@2@@std@@V?$allocator@V?$basic_string@DU?$char_traits@D@std@@V?$allocator@D@2@@std@@@2@@std@@YAPAV?$basic_string@DU?$char_traits@D@std@@V?$allocator@D@2@@0@QAV10@0PAV10@AAV?$allocator@V?$basic_string@DU?$char_traits@D@std@@V?$allocator@D@2@@std@@@0@@Z ; std::_Uninitialized_move<std::basic_string<char,std::char_traits<char>,std::allocator<char> > *,std::allocator<std::basic_string<char,std::char_traits<char>,std::allocator<char> > > >

; 1648 :         } else {
; 1649 :             _Uninitialized_copy(_Myfirst, _Mylast, _Newvec, _Al);
; 1650 :         }
; 1651 : 
; 1652 :         _Guard._New_begin = nullptr;
; 1653 :         _Change_array(_Newvec, _Size, _Newcapacity);

  000b0	8b 8d a0 fc ff
	ff		 mov	 ecx, DWORD PTR _pkVec_strToken$GSCopy$1$[ebp]
  000b6	83 c4 14	 add	 esp, 20			; 00000014H
  000b9	6a 0a		 push	 10			; 0000000aH
  000bb	57		 push	 edi
  000bc	56		 push	 esi
  000bd	e8 00 00 00 00	 call	 ?_Change_array@?$vector@V?$basic_string@DU?$char_traits@D@std@@V?$allocator@D@2@@std@@V?$allocator@V?$basic_string@DU?$char_traits@D@std@@V?$allocator@D@2@@std@@@2@@std@@AAEXQAV?$basic_string@DU?$char_traits@D@std@@V?$allocator@D@2@@2@II@Z ; std::vector<std::basic_string<char,std::char_traits<char>,std::allocator<char> >,std::allocator<std::basic_string<char,std::char_traits<char>,std::allocator<char> > > >::_Change_array
  000c2	8b bd ac fc ff
	ff		 mov	 edi, DWORD PTR _c_szDelimeter$GSCopy$1$[ebp]
  000c8	8b b5 a4 fc ff
	ff		 mov	 esi, DWORD PTR _c_szLine$GSCopy$1$[ebp]
  000ce	eb 06		 jmp	 SHORT $LN49@SplitLine
$LN460@SplitLine:
  000d0	89 85 b0 fc ff
	ff		 mov	 DWORD PTR __Mylast$1$[ebp], eax
$LN49@SplitLine:

; 1797 :         if (_Myfirst == _Mylast) { // already empty, nothing to do

  000d6	8b 95 a0 fc ff
	ff		 mov	 edx, DWORD PTR _pkVec_strToken$GSCopy$1$[ebp]
  000dc	8b 8d b0 fc ff
	ff		 mov	 ecx, DWORD PTR __Mylast$1$[ebp]
  000e2	8b 02		 mov	 eax, DWORD PTR [edx]
  000e4	8b 09		 mov	 ecx, DWORD PTR [ecx]
  000e6	3b c1		 cmp	 eax, ecx
  000e8	74 1b		 je	 SHORT $LN66@SplitLine

; 1798 :             // This is an optimization for debug mode: we can avoid taking the debug lock to invalidate iterators.
; 1799 :             // Note that when clearing an empty vector, this will preserve past-the-end iterators, which is allowed by
; 1800 :             // N4950 [sequence.reqmts]/54 "a.clear() [...] may invalidate the past-the-end iterator".
; 1801 :             return;
; 1802 :         }
; 1803 : 
; 1804 :         _My_data._Orphan_all();
; 1805 :         _Destroy_range(_Myfirst, _Mylast, _Getal());

  000ea	52		 push	 edx
  000eb	51		 push	 ecx
  000ec	50		 push	 eax
  000ed	e8 00 00 00 00	 call	 ??$_Destroy_range@V?$allocator@V?$basic_string@DU?$char_traits@D@std@@V?$allocator@D@2@@std@@@std@@@std@@YAXPAV?$basic_string@DU?$char_traits@D@std@@V?$allocator@D@2@@0@QAV10@AAV?$allocator@V?$basic_string@DU?$char_traits@D@std@@V?$allocator@D@2@@std@@@0@@Z ; std::_Destroy_range<std::allocator<std::basic_string<char,std::char_traits<char>,std::allocator<char> > > >

; 1806 :         _ASAN_VECTOR_MODIFY(static_cast<difference_type>(_Myfirst - _Mylast)); // negative when destroying elements
; 1807 :         _Mylast = _Myfirst;

  000f2	8b 85 a0 fc ff
	ff		 mov	 eax, DWORD PTR _pkVec_strToken$GSCopy$1$[ebp]
  000f8	83 c4 0c	 add	 esp, 12			; 0000000cH
  000fb	8b 8d b0 fc ff
	ff		 mov	 ecx, DWORD PTR __Mylast$1$[ebp]
  00101	8b 00		 mov	 eax, DWORD PTR [eax]
  00103	89 01		 mov	 DWORD PTR [ecx], eax
$LN66@SplitLine:
; File D:\Program Files\Microsoft Visual Studio\2022\Community\VC\Tools\MSVC\14.43.34808\include\__msvc_string_view.hpp

; 430  :             return __builtin_strlen(_First);

  00105	8b ce		 mov	 ecx, esi
; File D:\Program Files\Microsoft Visual Studio\2022\Community\VC\Tools\MSVC\14.43.34808\include\xstring

; 498  :     size_type _Mysize = 0; // current length of string (size)

  00107	c7 45 e8 00 00
	00 00		 mov	 DWORD PTR _strLine$[ebp+16], 0
  0010e	0f 57 c0	 xorps	 xmm0, xmm0

; 499  :     size_type _Myres  = 0; // current storage reserved for string (capacity)

  00111	c7 45 ec 00 00
	00 00		 mov	 DWORD PTR _strLine$[ebp+20], 0

; 474  :         _CONSTEXPR20 _Bxty() noexcept : _Buf() {} // user-provided, for fancy pointers

  00118	0f 11 45 d8	 movups	 XMMWORD PTR _strLine$[ebp], xmm0
; File D:\Program Files\Microsoft Visual Studio\2022\Community\VC\Tools\MSVC\14.43.34808\include\__msvc_string_view.hpp

; 430  :             return __builtin_strlen(_First);

  0011c	8d 51 01	 lea	 edx, DWORD PTR [ecx+1]
  0011f	90		 npad	 1
$LL466@SplitLine:
  00120	8a 01		 mov	 al, BYTE PTR [ecx]
  00122	41		 inc	 ecx
  00123	84 c0		 test	 al, al
  00125	75 f9		 jne	 SHORT $LL466@SplitLine
  00127	2b ca		 sub	 ecx, edx
; File D:\Program Files\Microsoft Visual Studio\2022\Community\VC\Tools\MSVC\14.43.34808\include\xstring

; 745  :         _Construct<_Construct_strategy::_From_ptr>(_Ptr, _Convert_size<size_type>(_Traits::length(_Ptr)));

  00129	51		 push	 ecx
  0012a	56		 push	 esi
  0012b	8d 4d d8	 lea	 ecx, DWORD PTR _strLine$[ebp]
  0012e	e8 00 00 00 00	 call	 ??$_Construct@$00PBD@?$basic_string@DU?$char_traits@D@std@@V?$allocator@D@2@@std@@AAEXQBDI@Z ; std::basic_string<char,std::char_traits<char>,std::allocator<char> >::_Construct<1,char const *>
; File C:\Marty 5.5\Src-Client\Client\EterBase\Utils.cpp

; 544  : 	DWORD basePos = 0;

  00133	8b 4d e8	 mov	 ecx, DWORD PTR _strLine$[ebp+16]
  00136	33 f6		 xor	 esi, esi
  00138	c7 45 fc 00 00
	00 00		 mov	 DWORD PTR __$EHRec$[ebp+8], 0
  0013f	89 8d b8 fc ff
	ff		 mov	 DWORD PTR _strLine$1$[ebp], ecx
$LL4@SplitLine:
; File D:\Program Files\Microsoft Visual Studio\2022\Community\VC\Tools\MSVC\14.43.34808\include\__msvc_string_view.hpp

; 430  :             return __builtin_strlen(_First);

  00145	8d 57 01	 lea	 edx, DWORD PTR [edi+1]
$LL467@SplitLine:
  00148	8a 07		 mov	 al, BYTE PTR [edi]
  0014a	47		 inc	 edi
  0014b	84 c0		 test	 al, al
  0014d	75 f9		 jne	 SHORT $LL467@SplitLine
  0014f	2b fa		 sub	 edi, edx
; File D:\Program Files\Microsoft Visual Studio\2022\Community\VC\Tools\MSVC\14.43.34808\include\xstring

; 425  :         const value_type* _Result = _Bx._Buf;

  00151	8d 45 d8	 lea	 eax, DWORD PTR _strLine$[ebp]

; 434  :         return _Myres > _Small_string_capacity;

  00154	83 7d ec 0f	 cmp	 DWORD PTR _strLine$[ebp+20], 15 ; 0000000fH

; 426  :         if (_Large_mode_engaged()) {

  00158	0f 47 45 d8	 cmova	 eax, DWORD PTR _strLine$[ebp]
  0015c	89 85 b4 fc ff
	ff		 mov	 DWORD PTR __Result$2$[ebp], eax
; File D:\Program Files\Microsoft Visual Studio\2022\Community\VC\Tools\MSVC\14.43.34808\include\__msvc_string_view.hpp

; 944  :     if (_Start_at >= _Hay_size) { // no room for match

  00162	3b f1		 cmp	 esi, ecx
  00164	73 6c		 jae	 SHORT $LN426@SplitLine

; 945  :         return static_cast<size_t>(-1);
; 946  :     }
; 947  : 
; 948  :     const auto _Hay_start = _Haystack + _Start_at;

  00166	03 f0		 add	 esi, eax

; 949  :     const auto _Hay_end   = _Haystack + _Hay_size;

  00168	03 c1		 add	 eax, ecx
  0016a	68 00 01 00 00	 push	 256			; 00000100H
  0016f	89 85 a4 fc ff
	ff		 mov	 DWORD PTR __Hay_end$1$[ebp], eax
  00175	8d 85 c0 fe ff
	ff		 lea	 eax, DWORD PTR __Matches$5[ebp]
  0017b	6a 00		 push	 0
  0017d	50		 push	 eax
  0017e	e8 00 00 00 00	 call	 _memset

; 950  : 
; 951  :     if constexpr (_Is_implementation_handled_char_traits<_Traits>) {
; 952  :         using _Elem = typename _Traits::char_type;
; 953  :         _String_bitmap<_Elem> _Matches;
; 954  :         if (_Matches._Mark(_Needle, _Needle + _Needle_size)) {

  00183	8b 85 ac fc ff
	ff		 mov	 eax, DWORD PTR _c_szDelimeter$GSCopy$1$[ebp]
  00189	83 c4 0c	 add	 esp, 12			; 0000000cH
  0018c	8b c8		 mov	 ecx, eax
  0018e	8d 14 38	 lea	 edx, DWORD PTR [eax+edi]

; 761  :         for (; _First != _Last; ++_First) {

  00191	3b c2		 cmp	 eax, edx
  00193	74 1b		 je	 SHORT $LN119@SplitLine
  00195	66 66 66 0f 1f
	84 00 00 00 00
	00		 npad	 11
$LL120@SplitLine:

; 762  :             _Matches[static_cast<unsigned char>(*_First)] = true;

  001a0	0f b6 01	 movzx	 eax, BYTE PTR [ecx]
  001a3	41		 inc	 ecx
  001a4	c6 84 05 c0 fe
	ff ff 01	 mov	 BYTE PTR __Matches$5[ebp+eax], 1
  001ac	3b ca		 cmp	 ecx, edx
  001ae	75 f0		 jne	 SHORT $LL120@SplitLine
$LN119@SplitLine:

; 955  :             for (auto _Match_try = _Hay_start; _Match_try < _Hay_end; ++_Match_try) {

  001b0	8b 8d a4 fc ff
	ff		 mov	 ecx, DWORD PTR __Hay_end$1$[ebp]
  001b6	3b f1		 cmp	 esi, ecx
  001b8	73 18		 jae	 SHORT $LN426@SplitLine
  001ba	66 0f 1f 44 00
	00		 npad	 6
$LL104@SplitLine:

; 770  :         return _Matches[static_cast<unsigned char>(_Ch)];

  001c0	0f b6 06	 movzx	 eax, BYTE PTR [esi]

; 956  :                 if (!_Matches._Match(*_Match_try)) {

  001c3	80 bc 05 c0 fe
	ff ff 00	 cmp	 BYTE PTR __Matches$5[ebp+eax], 0
  001cb	74 43		 je	 SHORT $LN420@SplitLine

; 955  :             for (auto _Match_try = _Hay_start; _Match_try < _Hay_end; ++_Match_try) {

  001cd	46		 inc	 esi
  001ce	3b f1		 cmp	 esi, ecx
  001d0	72 ee		 jb	 SHORT $LL104@SplitLine
$LN426@SplitLine:
  001d2	c6 85 bf fc ff
	ff 00		 mov	 BYTE PTR $T2[ebp], 0
$LN13@SplitLine:
; File D:\Program Files\Microsoft Visual Studio\2022\Community\VC\Tools\MSVC\14.43.34808\include\xstring

; 434  :         return _Myres > _Small_string_capacity;

  001d9	8b 55 ec	 mov	 edx, DWORD PTR _strLine$[ebp+20]
  001dc	83 fa 0f	 cmp	 edx, 15			; 0000000fH

; 3047 :         if (_My_data._Large_mode_engaged()) {

  001df	0f 86 33 03 00
	00		 jbe	 $LN394@SplitLine
; File D:\Program Files\Microsoft Visual Studio\2022\Community\VC\Tools\MSVC\14.43.34808\include\xmemory

; 981  :         _STD _Deallocate<_New_alignof<_Ty>>(_Ptr, sizeof(_Ty) * _Count);

  001e5	8b 4d d8	 mov	 ecx, DWORD PTR _strLine$[ebp]
; File D:\Program Files\Microsoft Visual Studio\2022\Community\VC\Tools\MSVC\14.43.34808\include\xstring

; 828  :         _Al.deallocate(_Old_ptr, _Capacity + 1); // +1 for null terminator

  001e8	42		 inc	 edx
; File D:\Program Files\Microsoft Visual Studio\2022\Community\VC\Tools\MSVC\14.43.34808\include\xmemory

; 981  :         _STD _Deallocate<_New_alignof<_Ty>>(_Ptr, sizeof(_Ty) * _Count);

  001e9	8b c1		 mov	 eax, ecx

; 284  :         if (_Bytes >= _Big_allocation_threshold) {

  001eb	81 fa 00 10 00
	00		 cmp	 edx, 4096		; 00001000H
  001f1	0f 82 17 03 00
	00		 jb	 $LN405@SplitLine

; 205  :     const uintptr_t _Ptr_container   = _Ptr_user[-1];

  001f7	8b 48 fc	 mov	 ecx, DWORD PTR [eax-4]
  001fa	83 c2 23	 add	 edx, 35			; 00000023H
  001fd	2b c1		 sub	 eax, ecx

; 219  :     _STL_VERIFY(_Back_shift >= _Min_back_shift && _Back_shift <= _Non_user_size, "invalid argument");

  001ff	83 c0 fc	 add	 eax, -4			; fffffffcH
  00202	83 f8 1f	 cmp	 eax, 31			; 0000001fH
  00205	0f 87 2e 03 00
	00		 ja	 $LN402@SplitLine
  0020b	e9 fe 02 00 00	 jmp	 $LN405@SplitLine
$LN420@SplitLine:
