; Listing generated by Microsoft (R) Optimizing Compiler Version 19.37.32822.0 

	TITLE	C:\Marty 5.5\Src-Client\Client\eterPythonLib\Distribute\PythonWindow.obj
	.686P
	.XMM
	include listing.inc
	.model	flat

INCLUDELIB LIBCMT
INCLUDELIB OLDNAMES

PUBLIC	?g_bOutlineBoxEnable@@3HA			; g_bOutlineBoxEnable
_BSS	SEGMENT
?g_bOutlineBoxEnable@@3HA DD 01H DUP (?)		; g_bOutlineBoxEnable
_BSS	ENDS
CONST	SEGMENT
?_Fake_alloc@std@@3U_Fake_allocator@1@B	ORG $+1		; std::_Fake_alloc
CONST	ENDS
PUBLIC	??0exception@std@@QAE@ABV01@@Z			; std::exception::exception
PUBLIC	??1exception@std@@UAE@XZ			; std::exception::~exception
PUBLIC	?what@exception@std@@UBEPBDXZ			; std::exception::what
PUBLIC	??_Gexception@std@@UAEPAXI@Z			; std::exception::`scalar deleting destructor'
PUBLIC	??0bad_alloc@std@@QAE@ABV01@@Z			; std::bad_alloc::bad_alloc
PUBLIC	??_Gbad_alloc@std@@UAEPAXI@Z			; std::bad_alloc::`scalar deleting destructor'
PUBLIC	??0bad_array_new_length@std@@QAE@XZ		; std::bad_array_new_length::bad_array_new_length
PUBLIC	??1bad_array_new_length@std@@UAE@XZ		; std::bad_array_new_length::~bad_array_new_length
PUBLIC	??0bad_array_new_length@std@@QAE@ABV01@@Z	; std::bad_array_new_length::bad_array_new_length
PUBLIC	??_Gbad_array_new_length@std@@UAEPAXI@Z		; std::bad_array_new_length::`scalar deleting destructor'
PUBLIC	?_Throw_bad_array_new_length@std@@YAXXZ		; std::_Throw_bad_array_new_length
PUBLIC	?_Xlen_string@std@@YAXXZ			; std::_Xlen_string
PUBLIC	??1?$basic_string@DU?$char_traits@D@std@@V?$allocator@D@2@@std@@QAE@XZ ; std::basic_string<char,std::char_traits<char>,std::allocator<char> >::~basic_string<char,std::char_traits<char>,std::allocator<char> >
PUBLIC	?append@?$basic_string@DU?$char_traits@D@std@@V?$allocator@D@2@@std@@QAEAAV12@QBDI@Z ; std::basic_string<char,std::char_traits<char>,std::allocator<char> >::append
PUBLIC	?assign@?$basic_string@DU?$char_traits@D@std@@V?$allocator@D@2@@std@@QAEAAV12@QBDI@Z ; std::basic_string<char,std::char_traits<char>,std::allocator<char> >::assign
PUBLIC	?DeleteExpandedImageInstance@CGraphicExpandedImageInstance@@SAXPAV1@@Z ; CGraphicExpandedImageInstance::DeleteExpandedImageInstance
PUBLIC	?_Xlength@?$vector@PAVCGraphicExpandedImageInstance@@V?$allocator@PAVCGraphicExpandedImageInstance@@@std@@@std@@CAXXZ ; std::vector<CGraphicExpandedImageInstance *,std::allocator<CGraphicExpandedImageInstance *> >::_Xlength
PUBLIC	??1?$list@PAVCWindow@UI@@V?$allocator@PAVCWindow@UI@@@std@@@std@@QAE@XZ ; std::list<UI::CWindow *,std::allocator<UI::CWindow *> >::~list<UI::CWindow *,std::allocator<UI::CWindow *> >
PUBLIC	?push_back@?$list@PAVCWindow@UI@@V?$allocator@PAVCWindow@UI@@@std@@@std@@QAEXABQAVCWindow@UI@@@Z ; std::list<UI::CWindow *,std::allocator<UI::CWindow *> >::push_back
PUBLIC	?remove@?$list@PAVCWindow@UI@@V?$allocator@PAVCWindow@UI@@@std@@@std@@QAE@ABQAVCWindow@UI@@@Z ; std::list<UI::CWindow *,std::allocator<UI::CWindow *> >::remove
PUBLIC	??$_Emplace_reallocate@ABQAVCGraphicExpandedImageInstance@@@?$vector@PAVCGraphicExpandedImageInstance@@V?$allocator@PAVCGraphicExpandedImageInstance@@@std@@@std@@AAEPAPAVCGraphicExpandedImageInstance@@QAPAV2@ABQAV2@@Z ; std::vector<CGraphicExpandedImageInstance *,std::allocator<CGraphicExpandedImageInstance *> >::_Emplace_reallocate<CGraphicExpandedImageInstance * const &>
PUBLIC	??$_Allocate_manually_vector_aligned@U_Default_allocate_traits@std@@@std@@YAPAXI@Z ; std::_Allocate_manually_vector_aligned<std::_Default_allocate_traits>
PUBLIC	??$_Copy_memmove@PAPAVCGraphicExpandedImageInstance@@PAPAV1@@std@@YAPAPAVCGraphicExpandedImageInstance@@PAPAV1@00@Z ; std::_Copy_memmove<CGraphicExpandedImageInstance * *,CGraphicExpandedImageInstance * *>
PUBLIC	?Type@CWindow@UI@@SAKXZ				; UI::CWindow::Type
PUBLIC	?IsType@CWindow@UI@@QAEHK@Z			; UI::CWindow::IsType
PUBLIC	??0CWindow@UI@@QAE@PAU_object@@@Z		; UI::CWindow::CWindow
PUBLIC	??1CWindow@UI@@UAE@XZ				; UI::CWindow::~CWindow
PUBLIC	?AddChild@CWindow@UI@@QAEXPAV12@@Z		; UI::CWindow::AddChild
PUBLIC	?Clear@CWindow@UI@@QAEXXZ			; UI::CWindow::Clear
PUBLIC	?DestroyHandle@CWindow@UI@@QAEXXZ		; UI::CWindow::DestroyHandle
PUBLIC	?Update@CWindow@UI@@QAEXXZ			; UI::CWindow::Update
PUBLIC	?Render@CWindow@UI@@QAEXXZ			; UI::CWindow::Render
PUBLIC	?SetName@CWindow@UI@@QAEXPBD@Z			; UI::CWindow::SetName
PUBLIC	?SetSize@CWindow@UI@@QAEXJJ@Z			; UI::CWindow::SetSize
PUBLIC	?SetHorizontalAlign@CWindow@UI@@QAEXK@Z		; UI::CWindow::SetHorizontalAlign
PUBLIC	?SetVerticalAlign@CWindow@UI@@QAEXK@Z		; UI::CWindow::SetVerticalAlign
PUBLIC	?SetPosition@CWindow@UI@@QAEXJJ@Z		; UI::CWindow::SetPosition
PUBLIC	?GetPosition@CWindow@UI@@QAEXPAJ0@Z		; UI::CWindow::GetPosition
PUBLIC	?GetLocalPosition@CWindow@UI@@QAEXAAJ0@Z	; UI::CWindow::GetLocalPosition
PUBLIC	?GetMouseLocalPosition@CWindow@UI@@QAEXAAJ0@Z	; UI::CWindow::GetMouseLocalPosition
PUBLIC	?UpdateRect@CWindow@UI@@QAEJXZ			; UI::CWindow::UpdateRect
PUBLIC	?Show@CWindow@UI@@QAEXXZ			; UI::CWindow::Show
PUBLIC	?Hide@CWindow@UI@@QAEXXZ			; UI::CWindow::Hide
PUBLIC	?IsRendering@CWindow@UI@@QAE_NXZ		; UI::CWindow::IsRendering
PUBLIC	?GetRoot@CWindow@UI@@QAEPAV12@XZ		; UI::CWindow::GetRoot
PUBLIC	?GetParent@CWindow@UI@@QAEPAV12@XZ		; UI::CWindow::GetParent
PUBLIC	?IsChild@CWindow@UI@@QAE_NPAV12@@Z		; UI::CWindow::IsChild
PUBLIC	?DeleteChild@CWindow@UI@@QAEXPAV12@@Z		; UI::CWindow::DeleteChild
PUBLIC	?SetTop@CWindow@UI@@QAEXPAV12@@Z		; UI::CWindow::SetTop
PUBLIC	?IsIn@CWindow@UI@@QAE_NJJ@Z			; UI::CWindow::IsIn
PUBLIC	?IsIn@CWindow@UI@@QAE_NXZ			; UI::CWindow::IsIn
PUBLIC	?PickWindow@CWindow@UI@@QAEPAV12@JJ@Z		; UI::CWindow::PickWindow
PUBLIC	?PickTopWindow@CWindow@UI@@QAEPAV12@JJ@Z	; UI::CWindow::PickTopWindow
PUBLIC	?__RemoveReserveChildren@CWindow@UI@@QAEXXZ	; UI::CWindow::__RemoveReserveChildren
PUBLIC	?OnRender@CWindow@UI@@UAEXXZ			; UI::CWindow::OnRender
PUBLIC	?OnUpdate@CWindow@UI@@UAEXXZ			; UI::CWindow::OnUpdate
PUBLIC	?OnChangePosition@CWindow@UI@@UAEXXZ		; UI::CWindow::OnChangePosition
PUBLIC	?OnSetFocus@CWindow@UI@@UAEXXZ			; UI::CWindow::OnSetFocus
PUBLIC	?OnKillFocus@CWindow@UI@@UAEXXZ			; UI::CWindow::OnKillFocus
PUBLIC	?OnMouseDrag@CWindow@UI@@UAEXJJ@Z		; UI::CWindow::OnMouseDrag
PUBLIC	?OnMouseOverIn@CWindow@UI@@UAEXXZ		; UI::CWindow::OnMouseOverIn
PUBLIC	?OnMouseOverOut@CWindow@UI@@UAEXXZ		; UI::CWindow::OnMouseOverOut
PUBLIC	?OnMouseOver@CWindow@UI@@UAEXXZ			; UI::CWindow::OnMouseOver
PUBLIC	?OnDrop@CWindow@UI@@UAEXXZ			; UI::CWindow::OnDrop
PUBLIC	?OnTop@CWindow@UI@@UAEXXZ			; UI::CWindow::OnTop
PUBLIC	?OnIMEUpdate@CWindow@UI@@UAEXXZ			; UI::CWindow::OnIMEUpdate
PUBLIC	?OnMoveWindow@CWindow@UI@@UAEXJJ@Z		; UI::CWindow::OnMoveWindow
PUBLIC	?RunIMETabEvent@CWindow@UI@@QAEHXZ		; UI::CWindow::RunIMETabEvent
PUBLIC	?RunIMEReturnEvent@CWindow@UI@@QAEHXZ		; UI::CWindow::RunIMEReturnEvent
PUBLIC	?RunIMEKeyDownEvent@CWindow@UI@@QAEHH@Z		; UI::CWindow::RunIMEKeyDownEvent
PUBLIC	?RunKeyDownEvent@CWindow@UI@@QAEPAV12@H@Z	; UI::CWindow::RunKeyDownEvent
PUBLIC	?RunKeyUpEvent@CWindow@UI@@QAEHH@Z		; UI::CWindow::RunKeyUpEvent
PUBLIC	?RunPressEscapeKeyEvent@CWindow@UI@@QAEHXZ	; UI::CWindow::RunPressEscapeKeyEvent
PUBLIC	?RunPressExitKeyEvent@CWindow@UI@@QAEHXZ	; UI::CWindow::RunPressExitKeyEvent
PUBLIC	?OnIMETabEvent@CWindow@UI@@UAEHXZ		; UI::CWindow::OnIMETabEvent
PUBLIC	?OnIMEReturnEvent@CWindow@UI@@UAEHXZ		; UI::CWindow::OnIMEReturnEvent
PUBLIC	?OnIMEKeyDownEvent@CWindow@UI@@UAEHH@Z		; UI::CWindow::OnIMEKeyDownEvent
PUBLIC	?OnIMEChangeCodePage@CWindow@UI@@UAEHXZ		; UI::CWindow::OnIMEChangeCodePage
PUBLIC	?OnIMEOpenCandidateListEvent@CWindow@UI@@UAEHXZ	; UI::CWindow::OnIMEOpenCandidateListEvent
PUBLIC	?OnIMECloseCandidateListEvent@CWindow@UI@@UAEHXZ ; UI::CWindow::OnIMECloseCandidateListEvent
PUBLIC	?OnIMEOpenReadingWndEvent@CWindow@UI@@UAEHXZ	; UI::CWindow::OnIMEOpenReadingWndEvent
PUBLIC	?OnIMECloseReadingWndEvent@CWindow@UI@@UAEHXZ	; UI::CWindow::OnIMECloseReadingWndEvent
PUBLIC	?OnMouseLeftButtonDown@CWindow@UI@@UAEHXZ	; UI::CWindow::OnMouseLeftButtonDown
PUBLIC	?OnMouseLeftButtonUp@CWindow@UI@@UAEHXZ		; UI::CWindow::OnMouseLeftButtonUp
PUBLIC	?OnMouseLeftButtonDoubleClick@CWindow@UI@@UAEHXZ ; UI::CWindow::OnMouseLeftButtonDoubleClick
PUBLIC	?OnMouseRightButtonDown@CWindow@UI@@UAEHXZ	; UI::CWindow::OnMouseRightButtonDown
PUBLIC	?OnMouseRightButtonUp@CWindow@UI@@UAEHXZ	; UI::CWindow::OnMouseRightButtonUp
PUBLIC	?OnMouseRightButtonDoubleClick@CWindow@UI@@UAEHXZ ; UI::CWindow::OnMouseRightButtonDoubleClick
PUBLIC	?OnMouseMiddleButtonDown@CWindow@UI@@UAEHXZ	; UI::CWindow::OnMouseMiddleButtonDown
PUBLIC	?OnMouseMiddleButtonUp@CWindow@UI@@UAEHXZ	; UI::CWindow::OnMouseMiddleButtonUp
PUBLIC	?OnMouseWheelScroll@CWindow@UI@@UAEHF@Z		; UI::CWindow::OnMouseWheelScroll
PUBLIC	?SetScrollable@CWindow@UI@@UAEXXZ		; UI::CWindow::SetScrollable
PUBLIC	?OnKeyDown@CWindow@UI@@UAEHH@Z			; UI::CWindow::OnKeyDown
PUBLIC	?OnKeyUp@CWindow@UI@@UAEHH@Z			; UI::CWindow::OnKeyUp
PUBLIC	?OnPressEscapeKey@CWindow@UI@@UAEHXZ		; UI::CWindow::OnPressEscapeKey
PUBLIC	?OnPressExitKey@CWindow@UI@@UAEHXZ		; UI::CWindow::OnPressExitKey
PUBLIC	?SetColor@CWindow@UI@@UAEXK@Z			; UI::CWindow::SetColor
PUBLIC	?OnIsType@CWindow@UI@@UAEHK@Z			; UI::CWindow::OnIsType
PUBLIC	?IsWindow@CWindow@UI@@UAEHXZ			; UI::CWindow::IsWindow
PUBLIC	??_GCWindow@UI@@UAEPAXI@Z			; UI::CWindow::`scalar deleting destructor'
PUBLIC	??0CBox@UI@@QAE@PAU_object@@@Z			; UI::CBox::CBox
PUBLIC	??1CBox@UI@@UAE@XZ				; UI::CBox::~CBox
PUBLIC	?SetColor@CBox@UI@@UAEXK@Z			; UI::CBox::SetColor
PUBLIC	?OnRender@CBox@UI@@MAEXXZ			; UI::CBox::OnRender
PUBLIC	??_GCBox@UI@@UAEPAXI@Z				; UI::CBox::`scalar deleting destructor'
PUBLIC	??0CBar@UI@@QAE@PAU_object@@@Z			; UI::CBar::CBar
PUBLIC	??1CBar@UI@@UAE@XZ				; UI::CBar::~CBar
PUBLIC	?SetColor@CBar@UI@@UAEXK@Z			; UI::CBar::SetColor
PUBLIC	?OnRender@CBar@UI@@MAEXXZ			; UI::CBar::OnRender
PUBLIC	??_GCBar@UI@@UAEPAXI@Z				; UI::CBar::`scalar deleting destructor'
PUBLIC	??0CLine@UI@@QAE@PAU_object@@@Z			; UI::CLine::CLine
PUBLIC	??1CLine@UI@@UAE@XZ				; UI::CLine::~CLine
PUBLIC	?SetColor@CLine@UI@@UAEXK@Z			; UI::CLine::SetColor
PUBLIC	?OnRender@CLine@UI@@MAEXXZ			; UI::CLine::OnRender
PUBLIC	??_GCLine@UI@@UAEPAXI@Z				; UI::CLine::`scalar deleting destructor'
PUBLIC	?Type@CBar3D@UI@@SAKXZ				; UI::CBar3D::Type
PUBLIC	??0CBar3D@UI@@QAE@PAU_object@@@Z		; UI::CBar3D::CBar3D
PUBLIC	??1CBar3D@UI@@UAE@XZ				; UI::CBar3D::~CBar3D
PUBLIC	?SetColor@CBar3D@UI@@QAEXKKK@Z			; UI::CBar3D::SetColor
PUBLIC	?OnRender@CBar3D@UI@@MAEXXZ			; UI::CBar3D::OnRender
PUBLIC	??_GCBar3D@UI@@UAEPAXI@Z			; UI::CBar3D::`scalar deleting destructor'
PUBLIC	??0CTextLine@UI@@QAE@PAU_object@@@Z		; UI::CTextLine::CTextLine
PUBLIC	??1CTextLine@UI@@UAE@XZ				; UI::CTextLine::~CTextLine
PUBLIC	?SetMax@CTextLine@UI@@QAEXH@Z			; UI::CTextLine::SetMax
PUBLIC	?SetHorizontalAlign@CTextLine@UI@@QAEXH@Z	; UI::CTextLine::SetHorizontalAlign
PUBLIC	?SetVerticalAlign@CTextLine@UI@@QAEXH@Z		; UI::CTextLine::SetVerticalAlign
PUBLIC	?SetSecret@CTextLine@UI@@QAEXH@Z		; UI::CTextLine::SetSecret
PUBLIC	?SetOutline@CTextLine@UI@@QAEXH@Z		; UI::CTextLine::SetOutline
PUBLIC	?SetFeather@CTextLine@UI@@QAEXH@Z		; UI::CTextLine::SetFeather
PUBLIC	?SetMultiLine@CTextLine@UI@@QAEXH@Z		; UI::CTextLine::SetMultiLine
PUBLIC	?SetFontName@CTextLine@UI@@QAEXPBD@Z		; UI::CTextLine::SetFontName
PUBLIC	?SetFontColor@CTextLine@UI@@QAEXK@Z		; UI::CTextLine::SetFontColor
PUBLIC	?SetLimitWidth@CTextLine@UI@@QAEXM@Z		; UI::CTextLine::SetLimitWidth
PUBLIC	?ShowCursor@CTextLine@UI@@QAEXXZ		; UI::CTextLine::ShowCursor
PUBLIC	?HideCursor@CTextLine@UI@@QAEXXZ		; UI::CTextLine::HideCursor
PUBLIC	?GetCursorPosition@CTextLine@UI@@QAEHXZ		; UI::CTextLine::GetCursorPosition
PUBLIC	?SetText@CTextLine@UI@@QAEXPBD@Z		; UI::CTextLine::SetText
PUBLIC	?GetText@CTextLine@UI@@QAEPBDXZ			; UI::CTextLine::GetText
PUBLIC	?GetTextSize@CTextLine@UI@@QAEXPAH0@Z		; UI::CTextLine::GetTextSize
PUBLIC	?OnUpdate@CTextLine@UI@@MAEXXZ			; UI::CTextLine::OnUpdate
PUBLIC	?OnRender@CTextLine@UI@@MAEXXZ			; UI::CTextLine::OnRender
PUBLIC	?OnChangePosition@CTextLine@UI@@MAEXXZ		; UI::CTextLine::OnChangePosition
PUBLIC	?OnSetText@CTextLine@UI@@MAEXPBD@Z		; UI::CTextLine::OnSetText
PUBLIC	??_GCTextLine@UI@@UAEPAXI@Z			; UI::CTextLine::`scalar deleting destructor'
PUBLIC	??0CNumberLine@UI@@QAE@PAU_object@@@Z		; UI::CNumberLine::CNumberLine
PUBLIC	??0CNumberLine@UI@@QAE@PAVCWindow@1@@Z		; UI::CNumberLine::CNumberLine
PUBLIC	??1CNumberLine@UI@@UAE@XZ			; UI::CNumberLine::~CNumberLine
PUBLIC	?SetPath@CNumberLine@UI@@QAEXPBD@Z		; UI::CNumberLine::SetPath
PUBLIC	?SetHorizontalAlign@CNumberLine@UI@@QAEXH@Z	; UI::CNumberLine::SetHorizontalAlign
PUBLIC	?SetNumber@CNumberLine@UI@@QAEXPBD@Z		; UI::CNumberLine::SetNumber
PUBLIC	?ClearNumber@CNumberLine@UI@@IAEXXZ		; UI::CNumberLine::ClearNumber
PUBLIC	?OnRender@CNumberLine@UI@@MAEXXZ		; UI::CNumberLine::OnRender
PUBLIC	?OnChangePosition@CNumberLine@UI@@MAEXXZ	; UI::CNumberLine::OnChangePosition
PUBLIC	??1?$vector@PAVCGraphicImageInstance@@V?$allocator@PAVCGraphicImageInstance@@@std@@@std@@QAE@XZ ; std::vector<CGraphicImageInstance *,std::allocator<CGraphicImageInstance *> >::~vector<CGraphicImageInstance *,std::allocator<CGraphicImageInstance *> >
PUBLIC	?_Xlength@?$vector@PAVCGraphicImageInstance@@V?$allocator@PAVCGraphicImageInstance@@@std@@@std@@CAXXZ ; std::vector<CGraphicImageInstance *,std::allocator<CGraphicImageInstance *> >::_Xlength
PUBLIC	??_GCNumberLine@UI@@UAEPAXI@Z			; UI::CNumberLine::`scalar deleting destructor'
PUBLIC	??0CImageBox@UI@@QAE@PAU_object@@@Z		; UI::CImageBox::CImageBox
PUBLIC	??1CImageBox@UI@@UAE@XZ				; UI::CImageBox::~CImageBox
PUBLIC	?LoadImageA@CImageBox@UI@@QAEHPBD@Z		; UI::CImageBox::LoadImageA
PUBLIC	?SetDiffuseColor@CImageBox@UI@@QAEXMMMM@Z	; UI::CImageBox::SetDiffuseColor
PUBLIC	?GetWidth@CImageBox@UI@@QAEHXZ			; UI::CImageBox::GetWidth
PUBLIC	?GetHeight@CImageBox@UI@@QAEHXZ			; UI::CImageBox::GetHeight
PUBLIC	?OnCreateInstance@CImageBox@UI@@MAEXXZ		; UI::CImageBox::OnCreateInstance
PUBLIC	?OnDestroyInstance@CImageBox@UI@@MAEXXZ		; UI::CImageBox::OnDestroyInstance
PUBLIC	?OnUpdate@CImageBox@UI@@MAEXXZ			; UI::CImageBox::OnUpdate
PUBLIC	?OnRender@CImageBox@UI@@MAEXXZ			; UI::CImageBox::OnRender
PUBLIC	?OnChangePosition@CImageBox@UI@@MAEXXZ		; UI::CImageBox::OnChangePosition
PUBLIC	??_GCImageBox@UI@@UAEPAXI@Z			; UI::CImageBox::`scalar deleting destructor'
PUBLIC	??0CMarkBox@UI@@QAE@PAU_object@@@Z		; UI::CMarkBox::CMarkBox
PUBLIC	??1CMarkBox@UI@@UAE@XZ				; UI::CMarkBox::~CMarkBox
PUBLIC	?LoadImageA@CMarkBox@UI@@QAEXPBD@Z		; UI::CMarkBox::LoadImageA
PUBLIC	?SetDiffuseColor@CMarkBox@UI@@QAEXMMMM@Z	; UI::CMarkBox::SetDiffuseColor
PUBLIC	?SetIndex@CMarkBox@UI@@QAEXI@Z			; UI::CMarkBox::SetIndex
PUBLIC	?SetScale@CMarkBox@UI@@QAEXM@Z			; UI::CMarkBox::SetScale
PUBLIC	?OnCreateInstance@CMarkBox@UI@@MAEXXZ		; UI::CMarkBox::OnCreateInstance
PUBLIC	?OnDestroyInstance@CMarkBox@UI@@MAEXXZ		; UI::CMarkBox::OnDestroyInstance
PUBLIC	?OnUpdate@CMarkBox@UI@@MAEXXZ			; UI::CMarkBox::OnUpdate
PUBLIC	?OnRender@CMarkBox@UI@@MAEXXZ			; UI::CMarkBox::OnRender
PUBLIC	?OnChangePosition@CMarkBox@UI@@MAEXXZ		; UI::CMarkBox::OnChangePosition
PUBLIC	??_GCMarkBox@UI@@UAEPAXI@Z			; UI::CMarkBox::`scalar deleting destructor'
PUBLIC	?Type@CExpandedImageBox@UI@@SAKXZ		; UI::CExpandedImageBox::Type
PUBLIC	??0CExpandedImageBox@UI@@QAE@PAU_object@@@Z	; UI::CExpandedImageBox::CExpandedImageBox
PUBLIC	??1CExpandedImageBox@UI@@UAE@XZ			; UI::CExpandedImageBox::~CExpandedImageBox
PUBLIC	?SetScale@CExpandedImageBox@UI@@QAEXMM@Z	; UI::CExpandedImageBox::SetScale
PUBLIC	?SetOrigin@CExpandedImageBox@UI@@QAEXMM@Z	; UI::CExpandedImageBox::SetOrigin
PUBLIC	?SetRotation@CExpandedImageBox@UI@@QAEXM@Z	; UI::CExpandedImageBox::SetRotation
PUBLIC	?SetRenderingRect@CExpandedImageBox@UI@@QAEXMMMM@Z ; UI::CExpandedImageBox::SetRenderingRect
PUBLIC	?SetRenderingMode@CExpandedImageBox@UI@@QAEXH@Z	; UI::CExpandedImageBox::SetRenderingMode
PUBLIC	?OnCreateInstance@CExpandedImageBox@UI@@MAEXXZ	; UI::CExpandedImageBox::OnCreateInstance
PUBLIC	?OnDestroyInstance@CExpandedImageBox@UI@@MAEXXZ	; UI::CExpandedImageBox::OnDestroyInstance
PUBLIC	?OnUpdate@CExpandedImageBox@UI@@MAEXXZ		; UI::CExpandedImageBox::OnUpdate
PUBLIC	?OnRender@CExpandedImageBox@UI@@MAEXXZ		; UI::CExpandedImageBox::OnRender
PUBLIC	?OnIsType@CExpandedImageBox@UI@@MAEHK@Z		; UI::CExpandedImageBox::OnIsType
PUBLIC	??_GCExpandedImageBox@UI@@UAEPAXI@Z		; UI::CExpandedImageBox::`scalar deleting destructor'
PUBLIC	?Type@CAniImageBox@UI@@SAKXZ			; UI::CAniImageBox::Type
PUBLIC	??0CAniImageBox@UI@@QAE@PAU_object@@@Z		; UI::CAniImageBox::CAniImageBox
PUBLIC	??1CAniImageBox@UI@@UAE@XZ			; UI::CAniImageBox::~CAniImageBox
PUBLIC	?SetDelay@CAniImageBox@UI@@QAEXH@Z		; UI::CAniImageBox::SetDelay
PUBLIC	?SetDiffuseColor@CAniImageBox@UI@@QAEXABUD3DXCOLOR@@@Z ; UI::CAniImageBox::SetDiffuseColor
PUBLIC	?AppendImage@CAniImageBox@UI@@QAEXPBD@Z		; UI::CAniImageBox::AppendImage
PUBLIC	?SetRenderingRect@CAniImageBox@UI@@QAEXMMMM@Z	; UI::CAniImageBox::SetRenderingRect
PUBLIC	?SetRenderingMode@CAniImageBox@UI@@QAEXH@Z	; UI::CAniImageBox::SetRenderingMode
PUBLIC	?ResetFrame@CAniImageBox@UI@@QAEXXZ		; UI::CAniImageBox::ResetFrame
PUBLIC	?OnUpdate@CAniImageBox@UI@@MAEXXZ		; UI::CAniImageBox::OnUpdate
PUBLIC	?OnRender@CAniImageBox@UI@@MAEXXZ		; UI::CAniImageBox::OnRender
PUBLIC	?OnChangePosition@CAniImageBox@UI@@MAEXXZ	; UI::CAniImageBox::OnChangePosition
PUBLIC	?OnEndFrame@CAniImageBox@UI@@MAEXXZ		; UI::CAniImageBox::OnEndFrame
PUBLIC	?OnIsType@CAniImageBox@UI@@MAEHK@Z		; UI::CAniImageBox::OnIsType
PUBLIC	??_GCAniImageBox@UI@@UAEPAXI@Z			; UI::CAniImageBox::`scalar deleting destructor'
PUBLIC	??0CButton@UI@@QAE@PAU_object@@@Z		; UI::CButton::CButton
PUBLIC	??1CButton@UI@@UAE@XZ				; UI::CButton::~CButton
PUBLIC	?SetUpVisual@CButton@UI@@QAEHPBD@Z		; UI::CButton::SetUpVisual
PUBLIC	?SetOverVisual@CButton@UI@@QAEHPBD@Z		; UI::CButton::SetOverVisual
PUBLIC	?SetDownVisual@CButton@UI@@QAEHPBD@Z		; UI::CButton::SetDownVisual
PUBLIC	?SetDisableVisual@CButton@UI@@QAEHPBD@Z		; UI::CButton::SetDisableVisual
PUBLIC	?GetUpVisualFileName@CButton@UI@@QAEPBDXZ	; UI::CButton::GetUpVisualFileName
PUBLIC	?GetOverVisualFileName@CButton@UI@@QAEPBDXZ	; UI::CButton::GetOverVisualFileName
PUBLIC	?GetDownVisualFileName@CButton@UI@@QAEPBDXZ	; UI::CButton::GetDownVisualFileName
PUBLIC	?Flash@CButton@UI@@QAEXXZ			; UI::CButton::Flash
PUBLIC	?Enable@CButton@UI@@QAEXXZ			; UI::CButton::Enable
PUBLIC	?Disable@CButton@UI@@QAEXXZ			; UI::CButton::Disable
PUBLIC	?SetUp@CButton@UI@@QAEXXZ			; UI::CButton::SetUp
PUBLIC	?Up@CButton@UI@@QAEXXZ				; UI::CButton::Up
PUBLIC	?Over@CButton@UI@@QAEXXZ			; UI::CButton::Over
PUBLIC	?Down@CButton@UI@@QAEXXZ			; UI::CButton::Down
PUBLIC	?IsDisable@CButton@UI@@QAEHXZ			; UI::CButton::IsDisable
PUBLIC	?IsPressed@CButton@UI@@QAEHXZ			; UI::CButton::IsPressed
PUBLIC	?OnUpdate@CButton@UI@@MAEXXZ			; UI::CButton::OnUpdate
PUBLIC	?OnRender@CButton@UI@@MAEXXZ			; UI::CButton::OnRender
PUBLIC	?OnChangePosition@CButton@UI@@MAEXXZ		; UI::CButton::OnChangePosition
PUBLIC	?OnMouseLeftButtonDown@CButton@UI@@MAEHXZ	; UI::CButton::OnMouseLeftButtonDown
PUBLIC	?OnMouseLeftButtonDoubleClick@CButton@UI@@MAEHXZ ; UI::CButton::OnMouseLeftButtonDoubleClick
PUBLIC	?OnMouseLeftButtonUp@CButton@UI@@MAEHXZ		; UI::CButton::OnMouseLeftButtonUp
PUBLIC	?OnMouseOverIn@CButton@UI@@MAEXXZ		; UI::CButton::OnMouseOverIn
PUBLIC	?OnMouseOverOut@CButton@UI@@MAEXXZ		; UI::CButton::OnMouseOverOut
PUBLIC	?IsEnable@CButton@UI@@IAEHXZ			; UI::CButton::IsEnable
PUBLIC	?SetCurrentVisual@CButton@UI@@IAEXPAVCGraphicImageInstance@@@Z ; UI::CButton::SetCurrentVisual
PUBLIC	??_GCButton@UI@@UAEPAXI@Z			; UI::CButton::`scalar deleting destructor'
PUBLIC	??0CRadioButton@UI@@QAE@PAU_object@@@Z		; UI::CRadioButton::CRadioButton
PUBLIC	??1CRadioButton@UI@@UAE@XZ			; UI::CRadioButton::~CRadioButton
PUBLIC	?OnMouseLeftButtonDown@CRadioButton@UI@@MAEHXZ	; UI::CRadioButton::OnMouseLeftButtonDown
PUBLIC	?OnMouseLeftButtonUp@CRadioButton@UI@@MAEHXZ	; UI::CRadioButton::OnMouseLeftButtonUp
PUBLIC	?OnMouseOverIn@CRadioButton@UI@@MAEXXZ		; UI::CRadioButton::OnMouseOverIn
PUBLIC	?OnMouseOverOut@CRadioButton@UI@@MAEXXZ		; UI::CRadioButton::OnMouseOverOut
PUBLIC	??_GCRadioButton@UI@@UAEPAXI@Z			; UI::CRadioButton::`scalar deleting destructor'
PUBLIC	??0CToggleButton@UI@@QAE@PAU_object@@@Z		; UI::CToggleButton::CToggleButton
PUBLIC	??1CToggleButton@UI@@UAE@XZ			; UI::CToggleButton::~CToggleButton
PUBLIC	?OnMouseLeftButtonDown@CToggleButton@UI@@MAEHXZ	; UI::CToggleButton::OnMouseLeftButtonDown
PUBLIC	?OnMouseLeftButtonUp@CToggleButton@UI@@MAEHXZ	; UI::CToggleButton::OnMouseLeftButtonUp
PUBLIC	?OnMouseOverIn@CToggleButton@UI@@MAEXXZ		; UI::CToggleButton::OnMouseOverIn
PUBLIC	?OnMouseOverOut@CToggleButton@UI@@MAEXXZ	; UI::CToggleButton::OnMouseOverOut
PUBLIC	??_GCToggleButton@UI@@UAEPAXI@Z			; UI::CToggleButton::`scalar deleting destructor'
PUBLIC	??0CDragButton@UI@@QAE@PAU_object@@@Z		; UI::CDragButton::CDragButton
PUBLIC	??1CDragButton@UI@@UAE@XZ			; UI::CDragButton::~CDragButton
PUBLIC	?SetRestrictMovementArea@CDragButton@UI@@QAEXHHHH@Z ; UI::CDragButton::SetRestrictMovementArea
PUBLIC	?OnChangePosition@CDragButton@UI@@MAEXXZ	; UI::CDragButton::OnChangePosition
PUBLIC	?OnMouseOverIn@CDragButton@UI@@MAEXXZ		; UI::CDragButton::OnMouseOverIn
PUBLIC	?OnMouseOverOut@CDragButton@UI@@MAEXXZ		; UI::CDragButton::OnMouseOverOut
PUBLIC	??_GCDragButton@UI@@UAEPAXI@Z			; UI::CDragButton::`scalar deleting destructor'
PUBLIC	??$?HDU?$char_traits@D@std@@V?$allocator@D@1@@std@@YA?AV?$basic_string@DU?$char_traits@D@std@@V?$allocator@D@2@@0@ABV10@QBD@Z ; std::operator+<char,std::char_traits<char>,std::allocator<char> >
PUBLIC	??$_Emplace_reallocate@ABQAVCGraphicImageInstance@@@?$vector@PAVCGraphicImageInstance@@V?$allocator@PAVCGraphicImageInstance@@@std@@@std@@AAEPAPAVCGraphicImageInstance@@QAPAV2@ABQAV2@@Z ; std::vector<CGraphicImageInstance *,std::allocator<CGraphicImageInstance *> >::_Emplace_reallocate<CGraphicImageInstance * const &>
PUBLIC	??1?$_Alloc_construct_ptr@V?$allocator@U?$_List_node@PAVCWindow@UI@@PAX@std@@@std@@@std@@QAE@XZ ; std::_Alloc_construct_ptr<std::allocator<std::_List_node<UI::CWindow *,void *> > >::~_Alloc_construct_ptr<std::allocator<std::_List_node<UI::CWindow *,void *> > >
PUBLIC	??$_Copy_memmove@PAPAVCGraphicImageInstance@@PAPAV1@@std@@YAPAPAVCGraphicImageInstance@@PAPAV1@00@Z ; std::_Copy_memmove<CGraphicImageInstance * *,CGraphicImageInstance * *>
PUBLIC	??_7exception@std@@6B@				; std::exception::`vftable'
PUBLIC	??_C@_0BC@EOODALEL@Unknown?5exception@		; `string'
PUBLIC	??_7bad_alloc@std@@6B@				; std::bad_alloc::`vftable'
PUBLIC	??_7bad_array_new_length@std@@6B@		; std::bad_array_new_length::`vftable'
PUBLIC	??_C@_0BF@KINCDENJ@bad?5array?5new?5length@	; `string'
PUBLIC	__TI3?AVbad_array_new_length@std@@
PUBLIC	__CTA3?AVbad_array_new_length@std@@
PUBLIC	??_R0?AVbad_array_new_length@std@@@8		; std::bad_array_new_length `RTTI Type Descriptor'
PUBLIC	__CT??_R0?AVbad_array_new_length@std@@@8??0bad_array_new_length@std@@QAE@ABV01@@Z12
PUBLIC	??_R0?AVbad_alloc@std@@@8			; std::bad_alloc `RTTI Type Descriptor'
PUBLIC	__CT??_R0?AVbad_alloc@std@@@8??0bad_alloc@std@@QAE@ABV01@@Z12
PUBLIC	??_R0?AVexception@std@@@8			; std::exception `RTTI Type Descriptor'
PUBLIC	__CT??_R0?AVexception@std@@@8??0exception@std@@QAE@ABV01@@Z12
PUBLIC	??_C@_0BA@JFNIOLAK@string?5too?5long@		; `string'
PUBLIC	??_C@_00CNPNBAHC@@				; `string'
PUBLIC	?ms_singleton@?$CSingleton@VCResourceManager@@@@0PAVCResourceManager@@A ; CSingleton<CResourceManager>::ms_singleton
PUBLIC	?ms_singleton@?$CSingleton@VCPythonGraphic@@@@0PAVCPythonGraphic@@A ; CSingleton<CPythonGraphic>::ms_singleton
PUBLIC	?ms_singleton@?$CSingleton@VCWindowManager@UI@@@@0PAVCWindowManager@UI@@A ; CSingleton<UI::CWindowManager>::ms_singleton
PUBLIC	??_C@_0BA@FOIKENOD@vector?5too?5long@		; `string'
PUBLIC	??_R4exception@std@@6B@				; std::exception::`RTTI Complete Object Locator'
PUBLIC	??_R3exception@std@@8				; std::exception::`RTTI Class Hierarchy Descriptor'
PUBLIC	??_R2exception@std@@8				; std::exception::`RTTI Base Class Array'
PUBLIC	??_R1A@?0A@EA@exception@std@@8			; std::exception::`RTTI Base Class Descriptor at (0,-1,0,64)'
PUBLIC	??_R4bad_alloc@std@@6B@				; std::bad_alloc::`RTTI Complete Object Locator'
PUBLIC	??_R3bad_alloc@std@@8				; std::bad_alloc::`RTTI Class Hierarchy Descriptor'
PUBLIC	??_R2bad_alloc@std@@8				; std::bad_alloc::`RTTI Base Class Array'
PUBLIC	??_R1A@?0A@EA@bad_alloc@std@@8			; std::bad_alloc::`RTTI Base Class Descriptor at (0,-1,0,64)'
PUBLIC	??_R4bad_array_new_length@std@@6B@		; std::bad_array_new_length::`RTTI Complete Object Locator'
PUBLIC	??_R3bad_array_new_length@std@@8		; std::bad_array_new_length::`RTTI Class Hierarchy Descriptor'
PUBLIC	??_R2bad_array_new_length@std@@8		; std::bad_array_new_length::`RTTI Base Class Array'
PUBLIC	??_R1A@?0A@EA@bad_array_new_length@std@@8	; std::bad_array_new_length::`RTTI Base Class Descriptor at (0,-1,0,64)'
PUBLIC	??_7CWindow@UI@@6B@				; UI::CWindow::`vftable'
PUBLIC	??_7CBox@UI@@6B@				; UI::CBox::`vftable'
PUBLIC	??_7CBar@UI@@6B@				; UI::CBar::`vftable'
PUBLIC	??_7CLine@UI@@6B@				; UI::CLine::`vftable'
PUBLIC	??_7CBar3D@UI@@6B@				; UI::CBar3D::`vftable'
PUBLIC	??_7CTextLine@UI@@6B@				; UI::CTextLine::`vftable'
PUBLIC	??_7CNumberLine@UI@@6B@				; UI::CNumberLine::`vftable'
PUBLIC	??_7CImageBox@UI@@6B@				; UI::CImageBox::`vftable'
PUBLIC	??_7CMarkBox@UI@@6B@				; UI::CMarkBox::`vftable'
PUBLIC	??_7CExpandedImageBox@UI@@6B@			; UI::CExpandedImageBox::`vftable'
PUBLIC	??_7CAniImageBox@UI@@6B@			; UI::CAniImageBox::`vftable'
PUBLIC	??_7CButton@UI@@6B@				; UI::CButton::`vftable'
PUBLIC	??_7CRadioButton@UI@@6B@			; UI::CRadioButton::`vftable'
PUBLIC	??_7CToggleButton@UI@@6B@			; UI::CToggleButton::`vftable'
PUBLIC	??_7CDragButton@UI@@6B@				; UI::CDragButton::`vftable'
PUBLIC	??_C@_07EFPFKGGH@CWindow@			; `string'
PUBLIC	??_C@_08DCJEAFK@OnUpdate@			; `string'
PUBLIC	??_C@_08PAJMEILO@OnRender@			; `string'
PUBLIC	??_C@_0DA@NEIGMJK@?5CWindow?3?3SetTop?5?9?5Failed?5to?5fi@ ; `string'
PUBLIC	??_C@_04INACLLOK@?$CIii?$CJ@			; `string'
PUBLIC	??_C@_0M@ECAEGPAI@OnMouseDrag@			; `string'
PUBLIC	??_C@_0N@PFKNBOJP@OnMoveWindow@			; `string'
PUBLIC	??_C@_0L@GIMNGBCD@OnSetFocus@			; `string'
PUBLIC	??_C@_0M@CEGPCFGM@OnKillFocus@			; `string'
PUBLIC	??_C@_0O@JKDAFDCC@OnMouseOverIn@		; `string'
PUBLIC	??_C@_0P@KLLBNOAI@OnMouseOverOut@		; `string'
PUBLIC	??_C@_06OCNPCIEO@OnDrop@			; `string'
PUBLIC	??_C@_05LOOKECNH@OnTop@				; `string'
PUBLIC	??_C@_0M@DGOFHNMI@OnIMEUpdate@			; `string'
PUBLIC	??_C@_0BG@DNDHJHBD@OnMouseLeftButtonDown@	; `string'
PUBLIC	??_C@_0BE@MJALGMGL@OnMouseLeftButtonUp@		; `string'
PUBLIC	??_C@_0BN@KEKGIMMP@OnMouseLeftButtonDoubleClick@ ; `string'
PUBLIC	??_C@_0BH@ELECPAKA@OnMouseRightButtonDown@	; `string'
PUBLIC	??_C@_0BF@FDIGHPIH@OnMouseRightButtonUp@	; `string'
PUBLIC	??_C@_0BO@NPKMHGOP@OnMouseRightButtonDoubleClick@ ; `string'
PUBLIC	??_C@_0BI@LKFMHNKP@OnMouseMiddleButtonDown@	; `string'
PUBLIC	??_C@_0BG@IGAJCEHG@OnMouseMiddleButtonUp@	; `string'
PUBLIC	??_C@_02NAHCJHOC@UP@				; `string'
PUBLIC	??_C@_04FANAOELO@DOWN@				; `string'
PUBLIC	??_C@_03KJMMOONA@?$CIs?$CJ@			; `string'
PUBLIC	??_C@_0BD@GNNJJHBO@OnMouseWheelScroll@		; `string'
PUBLIC	??_C@_08HFELFLOI@OnIMETab@			; `string'
PUBLIC	??_C@_0M@PILLCCFN@OnIMEReturn@			; `string'
PUBLIC	??_C@_03LIHNMIHG@?$CIi?$CJ@			; `string'
PUBLIC	??_C@_0N@BMPDGPBH@OnIMEKeyDown@			; `string'
PUBLIC	??_C@_0BE@EHKLBB@OnIMEChangeCodePage@		; `string'
PUBLIC	??_C@_0BH@HEDPBKEK@OnIMEOpenCandidateList@	; `string'
PUBLIC	??_C@_0BI@LOIKIPJ@OnIMECloseCandidateList@	; `string'
PUBLIC	??_C@_0BE@KDCLEDDC@OnIMEOpenReadingWnd@		; `string'
PUBLIC	??_C@_0BF@DEOILJPB@OnIMECloseReadingWnd@	; `string'
PUBLIC	??_C@_09CMHFBEC@OnKeyDown@			; `string'
PUBLIC	??_C@_07NGNLLPEG@OnKeyUp@			; `string'
PUBLIC	??_C@_0BB@HCFLIMGH@OnPressEscapeKey@		; `string'
PUBLIC	??_C@_0P@KEJGBDKK@OnPressExitKey@		; `string'
PUBLIC	??_C@_06ICLMADCA@CBar3D@			; `string'
PUBLIC	??_C@_04FAHLGLIA@?4fnt@				; `string'
PUBLIC	??_C@_0BO@GPCBPBEE@d?3?1ymir?5work?1ui?1game?1taskbar?1@ ; `string'
PUBLIC	??_C@_09GPLBLMNE@colon?4sub@			; `string'
PUBLIC	??_C@_0BB@POBNNLPJ@questionmark?4sub@		; `string'
PUBLIC	??_C@_09JMLAABIP@slash?4sub@			; `string'
PUBLIC	??_C@_0M@MHAKIBOD@percent?4sub@			; `string'
PUBLIC	??_C@_08FPHNCABK@plus?4sub@			; `string'
PUBLIC	??_C@_05PINNHPFB@m?4sub@			; `string'
PUBLIC	??_C@_05FJEGFMDH@g?4sub@			; `string'
PUBLIC	??_C@_05EHJFGOBE@p?4sub@			; `string'
PUBLIC	??_C@_04DLFHDFGL@?4sub@				; `string'
PUBLIC	??_C@_0BC@DJHPPMGJ@CExpandedImageBox@		; `string'
PUBLIC	??_C@_0N@LBBHECOO@CAniImageBox@			; `string'
PUBLIC	??_C@_0L@LBHHAGOH@OnEndFrame@			; `string'
PUBLIC	??_C@_09MFFHPOPB@CallEvent@			; `string'
PUBLIC	??_C@_09FJAHACEO@DownEvent@			; `string'
PUBLIC	??_C@_0M@LEFCMAKP@ShowToolTip@			; `string'
PUBLIC	??_C@_0M@HCIAMHJN@HideToolTip@			; `string'
PUBLIC	??_C@_0L@HGABHAMN@OnToggleUp@			; `string'
PUBLIC	??_C@_0N@NBGLGPDJ@OnToggleDown@			; `string'
PUBLIC	??_C@_06GJPOLLJG@OnMove@			; `string'
PUBLIC	??_C@_0O@NKNMEGII@list?5too?5long@		; `string'
PUBLIC	??_R4CWindow@UI@@6B@				; UI::CWindow::`RTTI Complete Object Locator'
PUBLIC	??_R0?AVCWindow@UI@@@8				; UI::CWindow `RTTI Type Descriptor'
PUBLIC	??_R3CWindow@UI@@8				; UI::CWindow::`RTTI Class Hierarchy Descriptor'
PUBLIC	??_R2CWindow@UI@@8				; UI::CWindow::`RTTI Base Class Array'
PUBLIC	??_R1A@?0A@EA@CWindow@UI@@8			; UI::CWindow::`RTTI Base Class Descriptor at (0,-1,0,64)'
PUBLIC	??_R4CBox@UI@@6B@				; UI::CBox::`RTTI Complete Object Locator'
PUBLIC	??_R0?AVCBox@UI@@@8				; UI::CBox `RTTI Type Descriptor'
PUBLIC	??_R3CBox@UI@@8					; UI::CBox::`RTTI Class Hierarchy Descriptor'
PUBLIC	??_R2CBox@UI@@8					; UI::CBox::`RTTI Base Class Array'
PUBLIC	??_R1A@?0A@EA@CBox@UI@@8			; UI::CBox::`RTTI Base Class Descriptor at (0,-1,0,64)'
PUBLIC	??_R4CBar@UI@@6B@				; UI::CBar::`RTTI Complete Object Locator'
PUBLIC	??_R0?AVCBar@UI@@@8				; UI::CBar `RTTI Type Descriptor'
PUBLIC	??_R3CBar@UI@@8					; UI::CBar::`RTTI Class Hierarchy Descriptor'
PUBLIC	??_R2CBar@UI@@8					; UI::CBar::`RTTI Base Class Array'
PUBLIC	??_R1A@?0A@EA@CBar@UI@@8			; UI::CBar::`RTTI Base Class Descriptor at (0,-1,0,64)'
PUBLIC	??_R4CLine@UI@@6B@				; UI::CLine::`RTTI Complete Object Locator'
PUBLIC	??_R0?AVCLine@UI@@@8				; UI::CLine `RTTI Type Descriptor'
PUBLIC	??_R3CLine@UI@@8				; UI::CLine::`RTTI Class Hierarchy Descriptor'
PUBLIC	??_R2CLine@UI@@8				; UI::CLine::`RTTI Base Class Array'
PUBLIC	??_R1A@?0A@EA@CLine@UI@@8			; UI::CLine::`RTTI Base Class Descriptor at (0,-1,0,64)'
PUBLIC	??_R4CBar3D@UI@@6B@				; UI::CBar3D::`RTTI Complete Object Locator'
PUBLIC	??_R0?AVCBar3D@UI@@@8				; UI::CBar3D `RTTI Type Descriptor'
PUBLIC	??_R3CBar3D@UI@@8				; UI::CBar3D::`RTTI Class Hierarchy Descriptor'
PUBLIC	??_R2CBar3D@UI@@8				; UI::CBar3D::`RTTI Base Class Array'
PUBLIC	??_R1A@?0A@EA@CBar3D@UI@@8			; UI::CBar3D::`RTTI Base Class Descriptor at (0,-1,0,64)'
PUBLIC	??_R4CTextLine@UI@@6B@				; UI::CTextLine::`RTTI Complete Object Locator'
PUBLIC	??_R0?AVCTextLine@UI@@@8			; UI::CTextLine `RTTI Type Descriptor'
PUBLIC	??_R3CTextLine@UI@@8				; UI::CTextLine::`RTTI Class Hierarchy Descriptor'
PUBLIC	??_R2CTextLine@UI@@8				; UI::CTextLine::`RTTI Base Class Array'
PUBLIC	??_R1A@?0A@EA@CTextLine@UI@@8			; UI::CTextLine::`RTTI Base Class Descriptor at (0,-1,0,64)'
PUBLIC	??_R4CNumberLine@UI@@6B@			; UI::CNumberLine::`RTTI Complete Object Locator'
PUBLIC	??_R0?AVCNumberLine@UI@@@8			; UI::CNumberLine `RTTI Type Descriptor'
PUBLIC	??_R3CNumberLine@UI@@8				; UI::CNumberLine::`RTTI Class Hierarchy Descriptor'
PUBLIC	??_R2CNumberLine@UI@@8				; UI::CNumberLine::`RTTI Base Class Array'
PUBLIC	??_R1A@?0A@EA@CNumberLine@UI@@8			; UI::CNumberLine::`RTTI Base Class Descriptor at (0,-1,0,64)'
PUBLIC	??_R4CImageBox@UI@@6B@				; UI::CImageBox::`RTTI Complete Object Locator'
PUBLIC	??_R0?AVCImageBox@UI@@@8			; UI::CImageBox `RTTI Type Descriptor'
PUBLIC	??_R3CImageBox@UI@@8				; UI::CImageBox::`RTTI Class Hierarchy Descriptor'
PUBLIC	??_R2CImageBox@UI@@8				; UI::CImageBox::`RTTI Base Class Array'
PUBLIC	??_R1A@?0A@EA@CImageBox@UI@@8			; UI::CImageBox::`RTTI Base Class Descriptor at (0,-1,0,64)'
PUBLIC	??_R4CMarkBox@UI@@6B@				; UI::CMarkBox::`RTTI Complete Object Locator'
PUBLIC	??_R0?AVCMarkBox@UI@@@8				; UI::CMarkBox `RTTI Type Descriptor'
PUBLIC	??_R3CMarkBox@UI@@8				; UI::CMarkBox::`RTTI Class Hierarchy Descriptor'
PUBLIC	??_R2CMarkBox@UI@@8				; UI::CMarkBox::`RTTI Base Class Array'
PUBLIC	??_R1A@?0A@EA@CMarkBox@UI@@8			; UI::CMarkBox::`RTTI Base Class Descriptor at (0,-1,0,64)'
PUBLIC	??_R4CExpandedImageBox@UI@@6B@			; UI::CExpandedImageBox::`RTTI Complete Object Locator'
PUBLIC	??_R0?AVCExpandedImageBox@UI@@@8		; UI::CExpandedImageBox `RTTI Type Descriptor'
PUBLIC	??_R3CExpandedImageBox@UI@@8			; UI::CExpandedImageBox::`RTTI Class Hierarchy Descriptor'
PUBLIC	??_R2CExpandedImageBox@UI@@8			; UI::CExpandedImageBox::`RTTI Base Class Array'
PUBLIC	??_R1A@?0A@EA@CExpandedImageBox@UI@@8		; UI::CExpandedImageBox::`RTTI Base Class Descriptor at (0,-1,0,64)'
PUBLIC	??_R4CAniImageBox@UI@@6B@			; UI::CAniImageBox::`RTTI Complete Object Locator'
PUBLIC	??_R0?AVCAniImageBox@UI@@@8			; UI::CAniImageBox `RTTI Type Descriptor'
PUBLIC	??_R3CAniImageBox@UI@@8				; UI::CAniImageBox::`RTTI Class Hierarchy Descriptor'
PUBLIC	??_R2CAniImageBox@UI@@8				; UI::CAniImageBox::`RTTI Base Class Array'
PUBLIC	??_R1A@?0A@EA@CAniImageBox@UI@@8		; UI::CAniImageBox::`RTTI Base Class Descriptor at (0,-1,0,64)'
PUBLIC	??_R4CButton@UI@@6B@				; UI::CButton::`RTTI Complete Object Locator'
PUBLIC	??_R0?AVCButton@UI@@@8				; UI::CButton `RTTI Type Descriptor'
PUBLIC	??_R3CButton@UI@@8				; UI::CButton::`RTTI Class Hierarchy Descriptor'
PUBLIC	??_R2CButton@UI@@8				; UI::CButton::`RTTI Base Class Array'
PUBLIC	??_R1A@?0A@EA@CButton@UI@@8			; UI::CButton::`RTTI Base Class Descriptor at (0,-1,0,64)'
PUBLIC	??_R4CRadioButton@UI@@6B@			; UI::CRadioButton::`RTTI Complete Object Locator'
PUBLIC	??_R0?AVCRadioButton@UI@@@8			; UI::CRadioButton `RTTI Type Descriptor'
PUBLIC	??_R3CRadioButton@UI@@8				; UI::CRadioButton::`RTTI Class Hierarchy Descriptor'
PUBLIC	??_R2CRadioButton@UI@@8				; UI::CRadioButton::`RTTI Base Class Array'
PUBLIC	??_R1A@?0A@EA@CRadioButton@UI@@8		; UI::CRadioButton::`RTTI Base Class Descriptor at (0,-1,0,64)'
PUBLIC	??_R4CToggleButton@UI@@6B@			; UI::CToggleButton::`RTTI Complete Object Locator'
PUBLIC	??_R0?AVCToggleButton@UI@@@8			; UI::CToggleButton `RTTI Type Descriptor'
PUBLIC	??_R3CToggleButton@UI@@8			; UI::CToggleButton::`RTTI Class Hierarchy Descriptor'
PUBLIC	??_R2CToggleButton@UI@@8			; UI::CToggleButton::`RTTI Base Class Array'
PUBLIC	??_R1A@?0A@EA@CToggleButton@UI@@8		; UI::CToggleButton::`RTTI Base Class Descriptor at (0,-1,0,64)'
PUBLIC	??_R4CDragButton@UI@@6B@			; UI::CDragButton::`RTTI Complete Object Locator'
PUBLIC	??_R0?AVCDragButton@UI@@@8			; UI::CDragButton `RTTI Type Descriptor'
PUBLIC	??_R3CDragButton@UI@@8				; UI::CDragButton::`RTTI Class Hierarchy Descriptor'
PUBLIC	??_R2CDragButton@UI@@8				; UI::CDragButton::`RTTI Base Class Array'
PUBLIC	??_R1A@?0A@EA@CDragButton@UI@@8			; UI::CDragButton::`RTTI Base Class Descriptor at (0,-1,0,64)'
EXTRN	??2@YAPAXI@Z:PROC				; operator new
EXTRN	??3@YAXPAXI@Z:PROC				; operator delete
EXTRN	__Init_thread_header:PROC
EXTRN	__Init_thread_abort:PROC
EXTRN	__Init_thread_footer:PROC
EXTRN	__invalid_parameter_noinfo_noreturn:PROC
EXTRN	_rand:PROC
EXTRN	__imp__timeGetTime@0:PROC
EXTRN	___std_exception_copy:PROC
EXTRN	___std_exception_destroy:PROC
EXTRN	??_Eexception@std@@UAEPAXI@Z:PROC		; std::exception::`vector deleting destructor'
EXTRN	??_Ebad_alloc@std@@UAEPAXI@Z:PROC		; std::bad_alloc::`vector deleting destructor'
EXTRN	??_Ebad_array_new_length@std@@UAEPAXI@Z:PROC	; std::bad_array_new_length::`vector deleting destructor'
EXTRN	?_Xlength_error@std@@YAXPBD@Z:PROC		; std::_Xlength_error
EXTRN	?TraceError@@YAXPBDZZ:PROC			; TraceError
EXTRN	__imp__PyString_InternFromString:PROC
EXTRN	__imp__Py_BuildValue:PROC
EXTRN	?PyCallClassMemberFunc@@YA_NPAU_object@@PBD0@Z:PROC ; PyCallClassMemberFunc
EXTRN	?PyCallClassMemberFunc@@YA_NPAU_object@@PBD0PAJ@Z:PROC ; PyCallClassMemberFunc
EXTRN	?PyCallClassMemberFunc_ByPyString@@YA_NPAU_object@@00@Z:PROC ; PyCallClassMemberFunc_ByPyString
EXTRN	?GetCRC32@@YAKPBDI@Z:PROC			; GetCRC32
EXTRN	?GetDefaultCodePage@@YAKXZ:PROC			; GetDefaultCodePage
EXTRN	?IsType@CResource@@QAE_NK@Z:PROC		; CResource::IsType
EXTRN	?GetResourcePointer@CResourceManager@@QAEPAVCResource@@PBD@Z:PROC ; CResourceManager::GetResourcePointer
EXTRN	?GetTypeResourcePointer@CResourceManager@@QAEPAVCResource@@PBDH@Z:PROC ; CResourceManager::GetTypeResourcePointer
EXTRN	?IsFileExist@CResourceManager@@QAE_NPBD@Z:PROC	; CResourceManager::IsFileExist
EXTRN	?Type@CGraphicImage@@SAKXZ:PROC			; CGraphicImage::Type
EXTRN	??0CGraphicImageInstance@@QAE@XZ:PROC		; CGraphicImageInstance::CGraphicImageInstance
EXTRN	??1CGraphicImageInstance@@UAE@XZ:PROC		; CGraphicImageInstance::~CGraphicImageInstance
EXTRN	?Render@CGraphicImageInstance@@QAEXXZ:PROC	; CGraphicImageInstance::Render
EXTRN	?SetDiffuseColor@CGraphicImageInstance@@QAEXMMMM@Z:PROC ; CGraphicImageInstance::SetDiffuseColor
EXTRN	?SetPosition@CGraphicImageInstance@@QAEXMM@Z:PROC ; CGraphicImageInstance::SetPosition
EXTRN	?SetImagePointer@CGraphicImageInstance@@QAEXPAVCGraphicImage@@@Z:PROC ; CGraphicImageInstance::SetImagePointer
EXTRN	?IsEmpty@CGraphicImageInstance@@QBE_NXZ:PROC	; CGraphicImageInstance::IsEmpty
EXTRN	?GetWidth@CGraphicImageInstance@@QAEHXZ:PROC	; CGraphicImageInstance::GetWidth
EXTRN	?GetHeight@CGraphicImageInstance@@QAEHXZ:PROC	; CGraphicImageInstance::GetHeight
EXTRN	?GetGraphicImagePointer@CGraphicImageInstance@@QAEPAVCGraphicImage@@XZ:PROC ; CGraphicImageInstance::GetGraphicImagePointer
EXTRN	?New@CGraphicImageInstance@@SAPAV1@XZ:PROC	; CGraphicImageInstance::New
EXTRN	?Delete@CGraphicImageInstance@@SAXPAV1@@Z:PROC	; CGraphicImageInstance::Delete
EXTRN	??0CGraphicTextInstance@@QAE@XZ:PROC		; CGraphicTextInstance::CGraphicTextInstance
EXTRN	??1CGraphicTextInstance@@UAE@XZ:PROC		; CGraphicTextInstance::~CGraphicTextInstance
EXTRN	?Destroy@CGraphicTextInstance@@QAEXXZ:PROC	; CGraphicTextInstance::Destroy
EXTRN	?Update@CGraphicTextInstance@@QAEXXZ:PROC	; CGraphicTextInstance::Update
EXTRN	?Render@CGraphicTextInstance@@QAEXPAUtagRECT@@@Z:PROC ; CGraphicTextInstance::Render
EXTRN	?ShowCursor@CGraphicTextInstance@@QAEXXZ:PROC	; CGraphicTextInstance::ShowCursor
EXTRN	?HideCursor@CGraphicTextInstance@@QAEXXZ:PROC	; CGraphicTextInstance::HideCursor
EXTRN	?SetColor@CGraphicTextInstance@@QAEXK@Z:PROC	; CGraphicTextInstance::SetColor
EXTRN	?SetColor@CGraphicTextInstance@@QAEXMMMM@Z:PROC	; CGraphicTextInstance::SetColor
EXTRN	?SetHorizonalAlign@CGraphicTextInstance@@QAEXH@Z:PROC ; CGraphicTextInstance::SetHorizonalAlign
EXTRN	?SetVerticalAlign@CGraphicTextInstance@@QAEXH@Z:PROC ; CGraphicTextInstance::SetVerticalAlign
EXTRN	?SetMax@CGraphicTextInstance@@QAEXH@Z:PROC	; CGraphicTextInstance::SetMax
EXTRN	?SetTextPointer@CGraphicTextInstance@@QAEXPAVCGraphicText@@@Z:PROC ; CGraphicTextInstance::SetTextPointer
EXTRN	?SetValue@CGraphicTextInstance@@QAEXPBDI@Z:PROC	; CGraphicTextInstance::SetValue
EXTRN	?SetPosition@CGraphicTextInstance@@QAEXMMM@Z:PROC ; CGraphicTextInstance::SetPosition
EXTRN	?SetSecret@CGraphicTextInstance@@QAEX_N@Z:PROC	; CGraphicTextInstance::SetSecret
EXTRN	?SetOutline@CGraphicTextInstance@@QAEX_N@Z:PROC	; CGraphicTextInstance::SetOutline
EXTRN	?SetFeather@CGraphicTextInstance@@QAEX_N@Z:PROC	; CGraphicTextInstance::SetFeather
EXTRN	?SetMultiLine@CGraphicTextInstance@@QAEX_N@Z:PROC ; CGraphicTextInstance::SetMultiLine
EXTRN	?SetLimitWidth@CGraphicTextInstance@@QAEXM@Z:PROC ; CGraphicTextInstance::SetLimitWidth
EXTRN	?GetTextSize@CGraphicTextInstance@@QAEXPAH0@Z:PROC ; CGraphicTextInstance::GetTextSize
EXTRN	?GetValueStringReference@CGraphicTextInstance@@QAEABV?$basic_string@DU?$char_traits@D@std@@V?$allocator@D@2@@std@@XZ:PROC ; CGraphicTextInstance::GetValueStringReference
EXTRN	?PixelPositionToCharacterPosition@CGraphicTextInstance@@QAEHH@Z:PROC ; CGraphicTextInstance::PixelPositionToCharacterPosition
EXTRN	?SetImageFileName@CGraphicMarkInstance@@QAEXPBD@Z:PROC ; CGraphicMarkInstance::SetImageFileName
EXTRN	?Render@CGraphicMarkInstance@@QAEXXZ:PROC	; CGraphicMarkInstance::Render
EXTRN	?SetDiffuseColor@CGraphicMarkInstance@@QAEXMMMM@Z:PROC ; CGraphicMarkInstance::SetDiffuseColor
EXTRN	?SetPosition@CGraphicMarkInstance@@QAEXMM@Z:PROC ; CGraphicMarkInstance::SetPosition
EXTRN	?SetIndex@CGraphicMarkInstance@@QAEXI@Z:PROC	; CGraphicMarkInstance::SetIndex
EXTRN	?SetScale@CGraphicMarkInstance@@QAEXM@Z:PROC	; CGraphicMarkInstance::SetScale
EXTRN	?Load@CGraphicMarkInstance@@QAEXXZ:PROC		; CGraphicMarkInstance::Load
EXTRN	?GetWidth@CGraphicMarkInstance@@QAEHXZ:PROC	; CGraphicMarkInstance::GetWidth
EXTRN	?GetHeight@CGraphicMarkInstance@@QAEHXZ:PROC	; CGraphicMarkInstance::GetHeight
EXTRN	?New@CGraphicMarkInstance@@SAPAV1@XZ:PROC	; CGraphicMarkInstance::New
EXTRN	?Delete@CGraphicMarkInstance@@SAXPAV1@@Z:PROC	; CGraphicMarkInstance::Delete
EXTRN	?Destroy@CGraphicExpandedImageInstance@@QAEXXZ:PROC ; CGraphicExpandedImageInstance::Destroy
EXTRN	?SetOrigin@CGraphicExpandedImageInstance@@QAEXMM@Z:PROC ; CGraphicExpandedImageInstance::SetOrigin
EXTRN	?SetRotation@CGraphicExpandedImageInstance@@QAEXM@Z:PROC ; CGraphicExpandedImageInstance::SetRotation
EXTRN	?SetScale@CGraphicExpandedImageInstance@@QAEXMM@Z:PROC ; CGraphicExpandedImageInstance::SetScale
EXTRN	?SetRenderingRect@CGraphicExpandedImageInstance@@QAEXMMMM@Z:PROC ; CGraphicExpandedImageInstance::SetRenderingRect
EXTRN	?SetRenderingMode@CGraphicExpandedImageInstance@@QAEXH@Z:PROC ; CGraphicExpandedImageInstance::SetRenderingMode
EXTRN	?New@CGraphicExpandedImageInstance@@SAPAV1@XZ:PROC ; CGraphicExpandedImageInstance::New
EXTRN	?Delete@CGraphicExpandedImageInstance@@SAXPAV1@@Z:PROC ; CGraphicExpandedImageInstance::Delete
EXTRN	?RenderLine2d@CScreen@@QAEXMMMMM@Z:PROC		; CScreen::RenderLine2d
EXTRN	?RenderBox2d@CScreen@@QAEXMMMMM@Z:PROC		; CScreen::RenderBox2d
EXTRN	?RenderBar2d@CScreen@@QAEXMMMMM@Z:PROC		; CScreen::RenderBar2d
EXTRN	?SetDiffuseColor@CScreen@@QAEXK@Z:PROC		; CScreen::SetDiffuseColor
EXTRN	?SetDiffuseColor@CScreen@@QAEXMMMM@Z:PROC	; CScreen::SetDiffuseColor
EXTRN	?GetMousePosition@CWindowManager@UI@@QAEXAAJ0@Z:PROC ; UI::CWindowManager::GetMousePosition
EXTRN	?BuildEmptyTuple@UI@@YAPAU_object@@XZ:PROC	; UI::BuildEmptyTuple
EXTRN	??_ECWindow@UI@@UAEPAXI@Z:PROC			; UI::CWindow::`vector deleting destructor'
EXTRN	??_ECBox@UI@@UAEPAXI@Z:PROC			; UI::CBox::`vector deleting destructor'
EXTRN	??_ECBar@UI@@UAEPAXI@Z:PROC			; UI::CBar::`vector deleting destructor'
EXTRN	??_ECLine@UI@@UAEPAXI@Z:PROC			; UI::CLine::`vector deleting destructor'
EXTRN	??_ECBar3D@UI@@UAEPAXI@Z:PROC			; UI::CBar3D::`vector deleting destructor'
EXTRN	??_ECTextLine@UI@@UAEPAXI@Z:PROC		; UI::CTextLine::`vector deleting destructor'
EXTRN	??_ECNumberLine@UI@@UAEPAXI@Z:PROC		; UI::CNumberLine::`vector deleting destructor'
EXTRN	??_ECImageBox@UI@@UAEPAXI@Z:PROC		; UI::CImageBox::`vector deleting destructor'
EXTRN	??_ECMarkBox@UI@@UAEPAXI@Z:PROC			; UI::CMarkBox::`vector deleting destructor'
EXTRN	??_ECExpandedImageBox@UI@@UAEPAXI@Z:PROC	; UI::CExpandedImageBox::`vector deleting destructor'
EXTRN	??_ECAniImageBox@UI@@UAEPAXI@Z:PROC		; UI::CAniImageBox::`vector deleting destructor'
EXTRN	??_ECButton@UI@@UAEPAXI@Z:PROC			; UI::CButton::`vector deleting destructor'
EXTRN	??_ECRadioButton@UI@@UAEPAXI@Z:PROC		; UI::CRadioButton::`vector deleting destructor'
EXTRN	??_ECToggleButton@UI@@UAEPAXI@Z:PROC		; UI::CToggleButton::`vector deleting destructor'
EXTRN	??_ECDragButton@UI@@UAEPAXI@Z:PROC		; UI::CDragButton::`vector deleting destructor'
EXTRN	@__security_check_cookie@4:PROC
EXTRN	__CxxThrowException@8:PROC
EXTRN	___CxxFrameHandler3:PROC
EXTRN	__ftol3:PROC
EXTRN	_memcpy:PROC
EXTRN	_memmove:PROC
EXTRN	__Init_thread_epoch:DWORD
EXTRN	??_7type_info@@6B@:QWORD			; type_info::`vftable'
EXTRN	?ms_kPool@CGraphicExpandedImageInstance@@2V?$CDynamicPool@VCGraphicExpandedImageInstance@@@@A:BYTE ; CGraphicExpandedImageInstance::ms_kPool
EXTRN	___security_cookie:DWORD
EXTRN	__fltused:DWORD
EXTRN	__tls_array:DWORD
EXTRN	__tls_index:DWORD
;	COMDAT ?ms_singleton@?$CSingleton@VCResourceManager@@@@0PAVCResourceManager@@A
_BSS	SEGMENT
?ms_singleton@?$CSingleton@VCResourceManager@@@@0PAVCResourceManager@@A DD 01H DUP (?) ; CSingleton<CResourceManager>::ms_singleton
_BSS	ENDS
;	COMDAT ?ms_singleton@?$CSingleton@VCPythonGraphic@@@@0PAVCPythonGraphic@@A
_BSS	SEGMENT
?ms_singleton@?$CSingleton@VCPythonGraphic@@@@0PAVCPythonGraphic@@A DD 01H DUP (?) ; CSingleton<CPythonGraphic>::ms_singleton
_BSS	ENDS
;	COMDAT ?ms_singleton@?$CSingleton@VCWindowManager@UI@@@@0PAVCWindowManager@UI@@A
_BSS	SEGMENT
?ms_singleton@?$CSingleton@VCWindowManager@UI@@@@0PAVCWindowManager@UI@@A DD 01H DUP (?) ; CSingleton<UI::CWindowManager>::ms_singleton
_BSS	ENDS
;	COMDAT ?s_dwType@?1??Type@CWindow@UI@@SAKXZ@4KA
_BSS	SEGMENT
?s_dwType@?1??Type@CWindow@UI@@SAKXZ@4KA DD 01H DUP (?)	; `UI::CWindow::Type'::`2'::s_dwType
_BSS	ENDS
;	COMDAT ?$TSS0@?1??Type@CWindow@UI@@SAKXZ@4HA
_BSS	SEGMENT
?$TSS0@?1??Type@CWindow@UI@@SAKXZ@4HA DD 01H DUP (?)	; `UI::CWindow::Type'::`2'::$TSS0
_BSS	ENDS
;	COMDAT ?poFuncName_OnUpdate@?1??OnUpdate@CWindow@UI@@UAEXXZ@4PAU_object@@A
_BSS	SEGMENT
?poFuncName_OnUpdate@?1??OnUpdate@CWindow@UI@@UAEXXZ@4PAU_object@@A DD 01H DUP (?) ; `UI::CWindow::OnUpdate'::`2'::poFuncName_OnUpdate
_BSS	ENDS
;	COMDAT ?$TSS0@?1??OnUpdate@CWindow@UI@@UAEXXZ@4HA
_BSS	SEGMENT
?$TSS0@?1??OnUpdate@CWindow@UI@@UAEXXZ@4HA DD 01H DUP (?) ; `UI::CWindow::OnUpdate'::`2'::$TSS0
_BSS	ENDS
;	COMDAT ?s_dwType@?1??Type@CBar3D@UI@@SAKXZ@4KA
_BSS	SEGMENT
?s_dwType@?1??Type@CBar3D@UI@@SAKXZ@4KA DD 01H DUP (?)	; `UI::CBar3D::Type'::`2'::s_dwType
_BSS	ENDS
;	COMDAT ?$TSS0@?1??Type@CBar3D@UI@@SAKXZ@4HA
_BSS	SEGMENT
?$TSS0@?1??Type@CBar3D@UI@@SAKXZ@4HA DD 01H DUP (?)	; `UI::CBar3D::Type'::`2'::$TSS0
_BSS	ENDS
;	COMDAT ?s_dwType@?1??Type@CExpandedImageBox@UI@@SAKXZ@4KA
_BSS	SEGMENT
?s_dwType@?1??Type@CExpandedImageBox@UI@@SAKXZ@4KA DD 01H DUP (?) ; `UI::CExpandedImageBox::Type'::`2'::s_dwType
_BSS	ENDS
;	COMDAT ?$TSS0@?1??Type@CExpandedImageBox@UI@@SAKXZ@4HA
_BSS	SEGMENT
?$TSS0@?1??Type@CExpandedImageBox@UI@@SAKXZ@4HA DD 01H DUP (?) ; `UI::CExpandedImageBox::Type'::`2'::$TSS0
_BSS	ENDS
;	COMDAT ?s_dwType@?1??Type@CAniImageBox@UI@@SAKXZ@4KA
_BSS	SEGMENT
?s_dwType@?1??Type@CAniImageBox@UI@@SAKXZ@4KA DD 01H DUP (?) ; `UI::CAniImageBox::Type'::`2'::s_dwType
_BSS	ENDS
;	COMDAT ?$TSS0@?1??Type@CAniImageBox@UI@@SAKXZ@4HA
_BSS	SEGMENT
?$TSS0@?1??Type@CAniImageBox@UI@@SAKXZ@4HA DD 01H DUP (?) ; `UI::CAniImageBox::Type'::`2'::$TSS0
_BSS	ENDS
;	COMDAT ??_R1A@?0A@EA@CDragButton@UI@@8
rdata$r	SEGMENT
??_R1A@?0A@EA@CDragButton@UI@@8 DD FLAT:??_R0?AVCDragButton@UI@@@8 ; UI::CDragButton::`RTTI Base Class Descriptor at (0,-1,0,64)'
	DD	02H
	DD	00H
	DD	0ffffffffH
	DD	00H
	DD	040H
	DD	FLAT:??_R3CDragButton@UI@@8
rdata$r	ENDS
;	COMDAT ??_R2CDragButton@UI@@8
rdata$r	SEGMENT
??_R2CDragButton@UI@@8 DD FLAT:??_R1A@?0A@EA@CDragButton@UI@@8 ; UI::CDragButton::`RTTI Base Class Array'
	DD	FLAT:??_R1A@?0A@EA@CButton@UI@@8
	DD	FLAT:??_R1A@?0A@EA@CWindow@UI@@8
rdata$r	ENDS
;	COMDAT ??_R3CDragButton@UI@@8
rdata$r	SEGMENT
??_R3CDragButton@UI@@8 DD 00H				; UI::CDragButton::`RTTI Class Hierarchy Descriptor'
	DD	00H
	DD	03H
	DD	FLAT:??_R2CDragButton@UI@@8
rdata$r	ENDS
;	COMDAT ??_R0?AVCDragButton@UI@@@8
data$rs	SEGMENT
??_R0?AVCDragButton@UI@@@8 DD FLAT:??_7type_info@@6B@	; UI::CDragButton `RTTI Type Descriptor'
	DD	00H
	DB	'.?AVCDragButton@UI@@', 00H
data$rs	ENDS
;	COMDAT ??_R4CDragButton@UI@@6B@
rdata$r	SEGMENT
??_R4CDragButton@UI@@6B@ DD 00H				; UI::CDragButton::`RTTI Complete Object Locator'
	DD	00H
	DD	00H
	DD	FLAT:??_R0?AVCDragButton@UI@@@8
	DD	FLAT:??_R3CDragButton@UI@@8
rdata$r	ENDS
;	COMDAT ??_R1A@?0A@EA@CToggleButton@UI@@8
rdata$r	SEGMENT
??_R1A@?0A@EA@CToggleButton@UI@@8 DD FLAT:??_R0?AVCToggleButton@UI@@@8 ; UI::CToggleButton::`RTTI Base Class Descriptor at (0,-1,0,64)'
	DD	02H
	DD	00H
	DD	0ffffffffH
	DD	00H
	DD	040H
	DD	FLAT:??_R3CToggleButton@UI@@8
rdata$r	ENDS
;	COMDAT ??_R2CToggleButton@UI@@8
rdata$r	SEGMENT
??_R2CToggleButton@UI@@8 DD FLAT:??_R1A@?0A@EA@CToggleButton@UI@@8 ; UI::CToggleButton::`RTTI Base Class Array'
	DD	FLAT:??_R1A@?0A@EA@CButton@UI@@8
	DD	FLAT:??_R1A@?0A@EA@CWindow@UI@@8
rdata$r	ENDS
;	COMDAT ??_R3CToggleButton@UI@@8
rdata$r	SEGMENT
??_R3CToggleButton@UI@@8 DD 00H				; UI::CToggleButton::`RTTI Class Hierarchy Descriptor'
	DD	00H
	DD	03H
	DD	FLAT:??_R2CToggleButton@UI@@8
rdata$r	ENDS
;	COMDAT ??_R0?AVCToggleButton@UI@@@8
data$rs	SEGMENT
??_R0?AVCToggleButton@UI@@@8 DD FLAT:??_7type_info@@6B@	; UI::CToggleButton `RTTI Type Descriptor'
	DD	00H
	DB	'.?AVCToggleButton@UI@@', 00H
data$rs	ENDS
;	COMDAT ??_R4CToggleButton@UI@@6B@
rdata$r	SEGMENT
??_R4CToggleButton@UI@@6B@ DD 00H			; UI::CToggleButton::`RTTI Complete Object Locator'
	DD	00H
	DD	00H
	DD	FLAT:??_R0?AVCToggleButton@UI@@@8
	DD	FLAT:??_R3CToggleButton@UI@@8
rdata$r	ENDS
;	COMDAT ??_R1A@?0A@EA@CRadioButton@UI@@8
rdata$r	SEGMENT
??_R1A@?0A@EA@CRadioButton@UI@@8 DD FLAT:??_R0?AVCRadioButton@UI@@@8 ; UI::CRadioButton::`RTTI Base Class Descriptor at (0,-1,0,64)'
	DD	02H
	DD	00H
	DD	0ffffffffH
	DD	00H
	DD	040H
	DD	FLAT:??_R3CRadioButton@UI@@8
rdata$r	ENDS
;	COMDAT ??_R2CRadioButton@UI@@8
rdata$r	SEGMENT
??_R2CRadioButton@UI@@8 DD FLAT:??_R1A@?0A@EA@CRadioButton@UI@@8 ; UI::CRadioButton::`RTTI Base Class Array'
	DD	FLAT:??_R1A@?0A@EA@CButton@UI@@8
	DD	FLAT:??_R1A@?0A@EA@CWindow@UI@@8
rdata$r	ENDS
;	COMDAT ??_R3CRadioButton@UI@@8
rdata$r	SEGMENT
??_R3CRadioButton@UI@@8 DD 00H				; UI::CRadioButton::`RTTI Class Hierarchy Descriptor'
	DD	00H
	DD	03H
	DD	FLAT:??_R2CRadioButton@UI@@8
rdata$r	ENDS
;	COMDAT ??_R0?AVCRadioButton@UI@@@8
data$rs	SEGMENT
??_R0?AVCRadioButton@UI@@@8 DD FLAT:??_7type_info@@6B@	; UI::CRadioButton `RTTI Type Descriptor'
	DD	00H
	DB	'.?AVCRadioButton@UI@@', 00H
data$rs	ENDS
;	COMDAT ??_R4CRadioButton@UI@@6B@
rdata$r	SEGMENT
??_R4CRadioButton@UI@@6B@ DD 00H			; UI::CRadioButton::`RTTI Complete Object Locator'
	DD	00H
	DD	00H
	DD	FLAT:??_R0?AVCRadioButton@UI@@@8
	DD	FLAT:??_R3CRadioButton@UI@@8
rdata$r	ENDS
;	COMDAT ??_R1A@?0A@EA@CButton@UI@@8
rdata$r	SEGMENT
??_R1A@?0A@EA@CButton@UI@@8 DD FLAT:??_R0?AVCButton@UI@@@8 ; UI::CButton::`RTTI Base Class Descriptor at (0,-1,0,64)'
	DD	01H
	DD	00H
	DD	0ffffffffH
	DD	00H
	DD	040H
	DD	FLAT:??_R3CButton@UI@@8
rdata$r	ENDS
;	COMDAT ??_R2CButton@UI@@8
rdata$r	SEGMENT
??_R2CButton@UI@@8 DD FLAT:??_R1A@?0A@EA@CButton@UI@@8	; UI::CButton::`RTTI Base Class Array'
	DD	FLAT:??_R1A@?0A@EA@CWindow@UI@@8
rdata$r	ENDS
;	COMDAT ??_R3CButton@UI@@8
rdata$r	SEGMENT
??_R3CButton@UI@@8 DD 00H				; UI::CButton::`RTTI Class Hierarchy Descriptor'
	DD	00H
	DD	02H
	DD	FLAT:??_R2CButton@UI@@8
rdata$r	ENDS
;	COMDAT ??_R0?AVCButton@UI@@@8
data$rs	SEGMENT
??_R0?AVCButton@UI@@@8 DD FLAT:??_7type_info@@6B@	; UI::CButton `RTTI Type Descriptor'
	DD	00H
	DB	'.?AVCButton@UI@@', 00H
data$rs	ENDS
;	COMDAT ??_R4CButton@UI@@6B@
rdata$r	SEGMENT
??_R4CButton@UI@@6B@ DD 00H				; UI::CButton::`RTTI Complete Object Locator'
	DD	00H
	DD	00H
	DD	FLAT:??_R0?AVCButton@UI@@@8
	DD	FLAT:??_R3CButton@UI@@8
rdata$r	ENDS
;	COMDAT ??_R1A@?0A@EA@CAniImageBox@UI@@8
rdata$r	SEGMENT
??_R1A@?0A@EA@CAniImageBox@UI@@8 DD FLAT:??_R0?AVCAniImageBox@UI@@@8 ; UI::CAniImageBox::`RTTI Base Class Descriptor at (0,-1,0,64)'
	DD	01H
	DD	00H
	DD	0ffffffffH
	DD	00H
	DD	040H
	DD	FLAT:??_R3CAniImageBox@UI@@8
rdata$r	ENDS
;	COMDAT ??_R2CAniImageBox@UI@@8
rdata$r	SEGMENT
??_R2CAniImageBox@UI@@8 DD FLAT:??_R1A@?0A@EA@CAniImageBox@UI@@8 ; UI::CAniImageBox::`RTTI Base Class Array'
	DD	FLAT:??_R1A@?0A@EA@CWindow@UI@@8
rdata$r	ENDS
;	COMDAT ??_R3CAniImageBox@UI@@8
rdata$r	SEGMENT
??_R3CAniImageBox@UI@@8 DD 00H				; UI::CAniImageBox::`RTTI Class Hierarchy Descriptor'
	DD	00H
	DD	02H
	DD	FLAT:??_R2CAniImageBox@UI@@8
rdata$r	ENDS
;	COMDAT ??_R0?AVCAniImageBox@UI@@@8
data$rs	SEGMENT
??_R0?AVCAniImageBox@UI@@@8 DD FLAT:??_7type_info@@6B@	; UI::CAniImageBox `RTTI Type Descriptor'
	DD	00H
	DB	'.?AVCAniImageBox@UI@@', 00H
data$rs	ENDS
;	COMDAT ??_R4CAniImageBox@UI@@6B@
rdata$r	SEGMENT
??_R4CAniImageBox@UI@@6B@ DD 00H			; UI::CAniImageBox::`RTTI Complete Object Locator'
	DD	00H
	DD	00H
	DD	FLAT:??_R0?AVCAniImageBox@UI@@@8
	DD	FLAT:??_R3CAniImageBox@UI@@8
rdata$r	ENDS
;	COMDAT ??_R1A@?0A@EA@CExpandedImageBox@UI@@8
rdata$r	SEGMENT
??_R1A@?0A@EA@CExpandedImageBox@UI@@8 DD FLAT:??_R0?AVCExpandedImageBox@UI@@@8 ; UI::CExpandedImageBox::`RTTI Base Class Descriptor at (0,-1,0,64)'
	DD	02H
	DD	00H
	DD	0ffffffffH
	DD	00H
	DD	040H
	DD	FLAT:??_R3CExpandedImageBox@UI@@8
rdata$r	ENDS
;	COMDAT ??_R2CExpandedImageBox@UI@@8
rdata$r	SEGMENT
??_R2CExpandedImageBox@UI@@8 DD FLAT:??_R1A@?0A@EA@CExpandedImageBox@UI@@8 ; UI::CExpandedImageBox::`RTTI Base Class Array'
	DD	FLAT:??_R1A@?0A@EA@CImageBox@UI@@8
	DD	FLAT:??_R1A@?0A@EA@CWindow@UI@@8
rdata$r	ENDS
;	COMDAT ??_R3CExpandedImageBox@UI@@8
rdata$r	SEGMENT
??_R3CExpandedImageBox@UI@@8 DD 00H			; UI::CExpandedImageBox::`RTTI Class Hierarchy Descriptor'
	DD	00H
	DD	03H
	DD	FLAT:??_R2CExpandedImageBox@UI@@8
rdata$r	ENDS
;	COMDAT ??_R0?AVCExpandedImageBox@UI@@@8
data$rs	SEGMENT
??_R0?AVCExpandedImageBox@UI@@@8 DD FLAT:??_7type_info@@6B@ ; UI::CExpandedImageBox `RTTI Type Descriptor'
	DD	00H
	DB	'.?AVCExpandedImageBox@UI@@', 00H
data$rs	ENDS
;	COMDAT ??_R4CExpandedImageBox@UI@@6B@
rdata$r	SEGMENT
??_R4CExpandedImageBox@UI@@6B@ DD 00H			; UI::CExpandedImageBox::`RTTI Complete Object Locator'
	DD	00H
	DD	00H
	DD	FLAT:??_R0?AVCExpandedImageBox@UI@@@8
	DD	FLAT:??_R3CExpandedImageBox@UI@@8
rdata$r	ENDS
;	COMDAT ??_R1A@?0A@EA@CMarkBox@UI@@8
rdata$r	SEGMENT
??_R1A@?0A@EA@CMarkBox@UI@@8 DD FLAT:??_R0?AVCMarkBox@UI@@@8 ; UI::CMarkBox::`RTTI Base Class Descriptor at (0,-1,0,64)'
	DD	01H
	DD	00H
	DD	0ffffffffH
	DD	00H
	DD	040H
	DD	FLAT:??_R3CMarkBox@UI@@8
rdata$r	ENDS
;	COMDAT ??_R2CMarkBox@UI@@8
rdata$r	SEGMENT
??_R2CMarkBox@UI@@8 DD FLAT:??_R1A@?0A@EA@CMarkBox@UI@@8 ; UI::CMarkBox::`RTTI Base Class Array'
	DD	FLAT:??_R1A@?0A@EA@CWindow@UI@@8
rdata$r	ENDS
;	COMDAT ??_R3CMarkBox@UI@@8
rdata$r	SEGMENT
??_R3CMarkBox@UI@@8 DD 00H				; UI::CMarkBox::`RTTI Class Hierarchy Descriptor'
	DD	00H
	DD	02H
	DD	FLAT:??_R2CMarkBox@UI@@8
rdata$r	ENDS
;	COMDAT ??_R0?AVCMarkBox@UI@@@8
data$rs	SEGMENT
??_R0?AVCMarkBox@UI@@@8 DD FLAT:??_7type_info@@6B@	; UI::CMarkBox `RTTI Type Descriptor'
	DD	00H
	DB	'.?AVCMarkBox@UI@@', 00H
data$rs	ENDS
;	COMDAT ??_R4CMarkBox@UI@@6B@
rdata$r	SEGMENT
??_R4CMarkBox@UI@@6B@ DD 00H				; UI::CMarkBox::`RTTI Complete Object Locator'
	DD	00H
	DD	00H
	DD	FLAT:??_R0?AVCMarkBox@UI@@@8
	DD	FLAT:??_R3CMarkBox@UI@@8
rdata$r	ENDS
;	COMDAT ??_R1A@?0A@EA@CImageBox@UI@@8
rdata$r	SEGMENT
??_R1A@?0A@EA@CImageBox@UI@@8 DD FLAT:??_R0?AVCImageBox@UI@@@8 ; UI::CImageBox::`RTTI Base Class Descriptor at (0,-1,0,64)'
	DD	01H
	DD	00H
	DD	0ffffffffH
	DD	00H
	DD	040H
	DD	FLAT:??_R3CImageBox@UI@@8
rdata$r	ENDS
;	COMDAT ??_R2CImageBox@UI@@8
rdata$r	SEGMENT
??_R2CImageBox@UI@@8 DD FLAT:??_R1A@?0A@EA@CImageBox@UI@@8 ; UI::CImageBox::`RTTI Base Class Array'
	DD	FLAT:??_R1A@?0A@EA@CWindow@UI@@8
rdata$r	ENDS
;	COMDAT ??_R3CImageBox@UI@@8
rdata$r	SEGMENT
??_R3CImageBox@UI@@8 DD 00H				; UI::CImageBox::`RTTI Class Hierarchy Descriptor'
	DD	00H
	DD	02H
	DD	FLAT:??_R2CImageBox@UI@@8
rdata$r	ENDS
;	COMDAT ??_R0?AVCImageBox@UI@@@8
data$rs	SEGMENT
??_R0?AVCImageBox@UI@@@8 DD FLAT:??_7type_info@@6B@	; UI::CImageBox `RTTI Type Descriptor'
	DD	00H
	DB	'.?AVCImageBox@UI@@', 00H
data$rs	ENDS
;	COMDAT ??_R4CImageBox@UI@@6B@
rdata$r	SEGMENT
??_R4CImageBox@UI@@6B@ DD 00H				; UI::CImageBox::`RTTI Complete Object Locator'
	DD	00H
	DD	00H
	DD	FLAT:??_R0?AVCImageBox@UI@@@8
	DD	FLAT:??_R3CImageBox@UI@@8
rdata$r	ENDS
;	COMDAT ??_R1A@?0A@EA@CNumberLine@UI@@8
rdata$r	SEGMENT
??_R1A@?0A@EA@CNumberLine@UI@@8 DD FLAT:??_R0?AVCNumberLine@UI@@@8 ; UI::CNumberLine::`RTTI Base Class Descriptor at (0,-1,0,64)'
	DD	01H
	DD	00H
	DD	0ffffffffH
	DD	00H
	DD	040H
	DD	FLAT:??_R3CNumberLine@UI@@8
rdata$r	ENDS
;	COMDAT ??_R2CNumberLine@UI@@8
rdata$r	SEGMENT
??_R2CNumberLine@UI@@8 DD FLAT:??_R1A@?0A@EA@CNumberLine@UI@@8 ; UI::CNumberLine::`RTTI Base Class Array'
	DD	FLAT:??_R1A@?0A@EA@CWindow@UI@@8
rdata$r	ENDS
;	COMDAT ??_R3CNumberLine@UI@@8
rdata$r	SEGMENT
??_R3CNumberLine@UI@@8 DD 00H				; UI::CNumberLine::`RTTI Class Hierarchy Descriptor'
	DD	00H
	DD	02H
	DD	FLAT:??_R2CNumberLine@UI@@8
rdata$r	ENDS
;	COMDAT ??_R0?AVCNumberLine@UI@@@8
data$rs	SEGMENT
??_R0?AVCNumberLine@UI@@@8 DD FLAT:??_7type_info@@6B@	; UI::CNumberLine `RTTI Type Descriptor'
	DD	00H
	DB	'.?AVCNumberLine@UI@@', 00H
data$rs	ENDS
;	COMDAT ??_R4CNumberLine@UI@@6B@
rdata$r	SEGMENT
??_R4CNumberLine@UI@@6B@ DD 00H				; UI::CNumberLine::`RTTI Complete Object Locator'
	DD	00H
	DD	00H
	DD	FLAT:??_R0?AVCNumberLine@UI@@@8
	DD	FLAT:??_R3CNumberLine@UI@@8
rdata$r	ENDS
;	COMDAT ??_R1A@?0A@EA@CTextLine@UI@@8
rdata$r	SEGMENT
??_R1A@?0A@EA@CTextLine@UI@@8 DD FLAT:??_R0?AVCTextLine@UI@@@8 ; UI::CTextLine::`RTTI Base Class Descriptor at (0,-1,0,64)'
	DD	01H
	DD	00H
	DD	0ffffffffH
	DD	00H
	DD	040H
	DD	FLAT:??_R3CTextLine@UI@@8
rdata$r	ENDS
;	COMDAT ??_R2CTextLine@UI@@8
rdata$r	SEGMENT
??_R2CTextLine@UI@@8 DD FLAT:??_R1A@?0A@EA@CTextLine@UI@@8 ; UI::CTextLine::`RTTI Base Class Array'
	DD	FLAT:??_R1A@?0A@EA@CWindow@UI@@8
rdata$r	ENDS
;	COMDAT ??_R3CTextLine@UI@@8
rdata$r	SEGMENT
??_R3CTextLine@UI@@8 DD 00H				; UI::CTextLine::`RTTI Class Hierarchy Descriptor'
	DD	00H
	DD	02H
	DD	FLAT:??_R2CTextLine@UI@@8
rdata$r	ENDS
;	COMDAT ??_R0?AVCTextLine@UI@@@8
data$rs	SEGMENT
??_R0?AVCTextLine@UI@@@8 DD FLAT:??_7type_info@@6B@	; UI::CTextLine `RTTI Type Descriptor'
	DD	00H
	DB	'.?AVCTextLine@UI@@', 00H
data$rs	ENDS
;	COMDAT ??_R4CTextLine@UI@@6B@
rdata$r	SEGMENT
??_R4CTextLine@UI@@6B@ DD 00H				; UI::CTextLine::`RTTI Complete Object Locator'
	DD	00H
	DD	00H
	DD	FLAT:??_R0?AVCTextLine@UI@@@8
	DD	FLAT:??_R3CTextLine@UI@@8
rdata$r	ENDS
;	COMDAT ??_R1A@?0A@EA@CBar3D@UI@@8
rdata$r	SEGMENT
??_R1A@?0A@EA@CBar3D@UI@@8 DD FLAT:??_R0?AVCBar3D@UI@@@8 ; UI::CBar3D::`RTTI Base Class Descriptor at (0,-1,0,64)'
	DD	01H
	DD	00H
	DD	0ffffffffH
	DD	00H
	DD	040H
	DD	FLAT:??_R3CBar3D@UI@@8
rdata$r	ENDS
;	COMDAT ??_R2CBar3D@UI@@8
rdata$r	SEGMENT
??_R2CBar3D@UI@@8 DD FLAT:??_R1A@?0A@EA@CBar3D@UI@@8	; UI::CBar3D::`RTTI Base Class Array'
	DD	FLAT:??_R1A@?0A@EA@CWindow@UI@@8
rdata$r	ENDS
;	COMDAT ??_R3CBar3D@UI@@8
rdata$r	SEGMENT
??_R3CBar3D@UI@@8 DD 00H				; UI::CBar3D::`RTTI Class Hierarchy Descriptor'
	DD	00H
	DD	02H
	DD	FLAT:??_R2CBar3D@UI@@8
rdata$r	ENDS
;	COMDAT ??_R0?AVCBar3D@UI@@@8
data$rs	SEGMENT
??_R0?AVCBar3D@UI@@@8 DD FLAT:??_7type_info@@6B@	; UI::CBar3D `RTTI Type Descriptor'
	DD	00H
	DB	'.?AVCBar3D@UI@@', 00H
data$rs	ENDS
;	COMDAT ??_R4CBar3D@UI@@6B@
rdata$r	SEGMENT
??_R4CBar3D@UI@@6B@ DD 00H				; UI::CBar3D::`RTTI Complete Object Locator'
	DD	00H
	DD	00H
	DD	FLAT:??_R0?AVCBar3D@UI@@@8
	DD	FLAT:??_R3CBar3D@UI@@8
rdata$r	ENDS
;	COMDAT ??_R1A@?0A@EA@CLine@UI@@8
rdata$r	SEGMENT
??_R1A@?0A@EA@CLine@UI@@8 DD FLAT:??_R0?AVCLine@UI@@@8	; UI::CLine::`RTTI Base Class Descriptor at (0,-1,0,64)'
	DD	01H
	DD	00H
	DD	0ffffffffH
	DD	00H
	DD	040H
	DD	FLAT:??_R3CLine@UI@@8
rdata$r	ENDS
;	COMDAT ??_R2CLine@UI@@8
rdata$r	SEGMENT
??_R2CLine@UI@@8 DD FLAT:??_R1A@?0A@EA@CLine@UI@@8	; UI::CLine::`RTTI Base Class Array'
	DD	FLAT:??_R1A@?0A@EA@CWindow@UI@@8
rdata$r	ENDS
;	COMDAT ??_R3CLine@UI@@8
rdata$r	SEGMENT
??_R3CLine@UI@@8 DD 00H					; UI::CLine::`RTTI Class Hierarchy Descriptor'
	DD	00H
	DD	02H
	DD	FLAT:??_R2CLine@UI@@8
rdata$r	ENDS
;	COMDAT ??_R0?AVCLine@UI@@@8
data$rs	SEGMENT
??_R0?AVCLine@UI@@@8 DD FLAT:??_7type_info@@6B@		; UI::CLine `RTTI Type Descriptor'
	DD	00H
	DB	'.?AVCLine@UI@@', 00H
data$rs	ENDS
;	COMDAT ??_R4CLine@UI@@6B@
rdata$r	SEGMENT
??_R4CLine@UI@@6B@ DD 00H				; UI::CLine::`RTTI Complete Object Locator'
	DD	00H
	DD	00H
	DD	FLAT:??_R0?AVCLine@UI@@@8
	DD	FLAT:??_R3CLine@UI@@8
rdata$r	ENDS
;	COMDAT ??_R1A@?0A@EA@CBar@UI@@8
rdata$r	SEGMENT
??_R1A@?0A@EA@CBar@UI@@8 DD FLAT:??_R0?AVCBar@UI@@@8	; UI::CBar::`RTTI Base Class Descriptor at (0,-1,0,64)'
	DD	01H
	DD	00H
	DD	0ffffffffH
	DD	00H
	DD	040H
	DD	FLAT:??_R3CBar@UI@@8
rdata$r	ENDS
;	COMDAT ??_R2CBar@UI@@8
rdata$r	SEGMENT
??_R2CBar@UI@@8 DD FLAT:??_R1A@?0A@EA@CBar@UI@@8	; UI::CBar::`RTTI Base Class Array'
	DD	FLAT:??_R1A@?0A@EA@CWindow@UI@@8
rdata$r	ENDS
;	COMDAT ??_R3CBar@UI@@8
rdata$r	SEGMENT
??_R3CBar@UI@@8 DD 00H					; UI::CBar::`RTTI Class Hierarchy Descriptor'
	DD	00H
	DD	02H
	DD	FLAT:??_R2CBar@UI@@8
rdata$r	ENDS
;	COMDAT ??_R0?AVCBar@UI@@@8
data$rs	SEGMENT
??_R0?AVCBar@UI@@@8 DD FLAT:??_7type_info@@6B@		; UI::CBar `RTTI Type Descriptor'
	DD	00H
	DB	'.?AVCBar@UI@@', 00H
data$rs	ENDS
;	COMDAT ??_R4CBar@UI@@6B@
rdata$r	SEGMENT
??_R4CBar@UI@@6B@ DD 00H				; UI::CBar::`RTTI Complete Object Locator'
	DD	00H
	DD	00H
	DD	FLAT:??_R0?AVCBar@UI@@@8
	DD	FLAT:??_R3CBar@UI@@8
rdata$r	ENDS
;	COMDAT ??_R1A@?0A@EA@CBox@UI@@8
rdata$r	SEGMENT
??_R1A@?0A@EA@CBox@UI@@8 DD FLAT:??_R0?AVCBox@UI@@@8	; UI::CBox::`RTTI Base Class Descriptor at (0,-1,0,64)'
	DD	01H
	DD	00H
	DD	0ffffffffH
	DD	00H
	DD	040H
	DD	FLAT:??_R3CBox@UI@@8
rdata$r	ENDS
;	COMDAT ??_R2CBox@UI@@8
rdata$r	SEGMENT
??_R2CBox@UI@@8 DD FLAT:??_R1A@?0A@EA@CBox@UI@@8	; UI::CBox::`RTTI Base Class Array'
	DD	FLAT:??_R1A@?0A@EA@CWindow@UI@@8
rdata$r	ENDS
;	COMDAT ??_R3CBox@UI@@8
rdata$r	SEGMENT
??_R3CBox@UI@@8 DD 00H					; UI::CBox::`RTTI Class Hierarchy Descriptor'
	DD	00H
	DD	02H
	DD	FLAT:??_R2CBox@UI@@8
rdata$r	ENDS
;	COMDAT ??_R0?AVCBox@UI@@@8
data$rs	SEGMENT
??_R0?AVCBox@UI@@@8 DD FLAT:??_7type_info@@6B@		; UI::CBox `RTTI Type Descriptor'
	DD	00H
	DB	'.?AVCBox@UI@@', 00H
data$rs	ENDS
;	COMDAT ??_R4CBox@UI@@6B@
rdata$r	SEGMENT
??_R4CBox@UI@@6B@ DD 00H				; UI::CBox::`RTTI Complete Object Locator'
	DD	00H
	DD	00H
	DD	FLAT:??_R0?AVCBox@UI@@@8
	DD	FLAT:??_R3CBox@UI@@8
rdata$r	ENDS
;	COMDAT ??_R1A@?0A@EA@CWindow@UI@@8
rdata$r	SEGMENT
??_R1A@?0A@EA@CWindow@UI@@8 DD FLAT:??_R0?AVCWindow@UI@@@8 ; UI::CWindow::`RTTI Base Class Descriptor at (0,-1,0,64)'
	DD	00H
	DD	00H
	DD	0ffffffffH
	DD	00H
	DD	040H
	DD	FLAT:??_R3CWindow@UI@@8
rdata$r	ENDS
;	COMDAT ??_R2CWindow@UI@@8
rdata$r	SEGMENT
??_R2CWindow@UI@@8 DD FLAT:??_R1A@?0A@EA@CWindow@UI@@8	; UI::CWindow::`RTTI Base Class Array'
rdata$r	ENDS
;	COMDAT ??_R3CWindow@UI@@8
rdata$r	SEGMENT
??_R3CWindow@UI@@8 DD 00H				; UI::CWindow::`RTTI Class Hierarchy Descriptor'
	DD	00H
	DD	01H
	DD	FLAT:??_R2CWindow@UI@@8
rdata$r	ENDS
;	COMDAT ??_R0?AVCWindow@UI@@@8
data$rs	SEGMENT
??_R0?AVCWindow@UI@@@8 DD FLAT:??_7type_info@@6B@	; UI::CWindow `RTTI Type Descriptor'
	DD	00H
	DB	'.?AVCWindow@UI@@', 00H
data$rs	ENDS
;	COMDAT ??_R4CWindow@UI@@6B@
rdata$r	SEGMENT
??_R4CWindow@UI@@6B@ DD 00H				; UI::CWindow::`RTTI Complete Object Locator'
	DD	00H
	DD	00H
	DD	FLAT:??_R0?AVCWindow@UI@@@8
	DD	FLAT:??_R3CWindow@UI@@8
rdata$r	ENDS
;	COMDAT ??_C@_0O@NKNMEGII@list?5too?5long@
CONST	SEGMENT
??_C@_0O@NKNMEGII@list?5too?5long@ DB 'list too long', 00H ; `string'
CONST	ENDS
;	COMDAT ??_C@_06GJPOLLJG@OnMove@
CONST	SEGMENT
??_C@_06GJPOLLJG@OnMove@ DB 'OnMove', 00H		; `string'
CONST	ENDS
;	COMDAT ??_C@_0N@NBGLGPDJ@OnToggleDown@
CONST	SEGMENT
??_C@_0N@NBGLGPDJ@OnToggleDown@ DB 'OnToggleDown', 00H	; `string'
CONST	ENDS
;	COMDAT ??_C@_0L@HGABHAMN@OnToggleUp@
CONST	SEGMENT
??_C@_0L@HGABHAMN@OnToggleUp@ DB 'OnToggleUp', 00H	; `string'
CONST	ENDS
;	COMDAT ??_C@_0M@HCIAMHJN@HideToolTip@
CONST	SEGMENT
??_C@_0M@HCIAMHJN@HideToolTip@ DB 'HideToolTip', 00H	; `string'
CONST	ENDS
;	COMDAT ??_C@_0M@LEFCMAKP@ShowToolTip@
CONST	SEGMENT
??_C@_0M@LEFCMAKP@ShowToolTip@ DB 'ShowToolTip', 00H	; `string'
CONST	ENDS
;	COMDAT ??_C@_09FJAHACEO@DownEvent@
CONST	SEGMENT
??_C@_09FJAHACEO@DownEvent@ DB 'DownEvent', 00H		; `string'
CONST	ENDS
;	COMDAT ??_C@_09MFFHPOPB@CallEvent@
CONST	SEGMENT
??_C@_09MFFHPOPB@CallEvent@ DB 'CallEvent', 00H		; `string'
CONST	ENDS
;	COMDAT ??_C@_0L@LBHHAGOH@OnEndFrame@
CONST	SEGMENT
??_C@_0L@LBHHAGOH@OnEndFrame@ DB 'OnEndFrame', 00H	; `string'
CONST	ENDS
;	COMDAT ??_C@_0N@LBBHECOO@CAniImageBox@
CONST	SEGMENT
??_C@_0N@LBBHECOO@CAniImageBox@ DB 'CAniImageBox', 00H	; `string'
CONST	ENDS
;	COMDAT ??_C@_0BC@DJHPPMGJ@CExpandedImageBox@
CONST	SEGMENT
??_C@_0BC@DJHPPMGJ@CExpandedImageBox@ DB 'CExpandedImageBox', 00H ; `string'
CONST	ENDS
;	COMDAT ??_C@_04DLFHDFGL@?4sub@
CONST	SEGMENT
??_C@_04DLFHDFGL@?4sub@ DB '.sub', 00H			; `string'
CONST	ENDS
;	COMDAT ??_C@_05EHJFGOBE@p?4sub@
CONST	SEGMENT
??_C@_05EHJFGOBE@p?4sub@ DB 'p.sub', 00H		; `string'
CONST	ENDS
;	COMDAT ??_C@_05FJEGFMDH@g?4sub@
CONST	SEGMENT
??_C@_05FJEGFMDH@g?4sub@ DB 'g.sub', 00H		; `string'
CONST	ENDS
;	COMDAT ??_C@_05PINNHPFB@m?4sub@
CONST	SEGMENT
??_C@_05PINNHPFB@m?4sub@ DB 'm.sub', 00H		; `string'
CONST	ENDS
;	COMDAT ??_C@_08FPHNCABK@plus?4sub@
CONST	SEGMENT
??_C@_08FPHNCABK@plus?4sub@ DB 'plus.sub', 00H		; `string'
CONST	ENDS
;	COMDAT ??_C@_0M@MHAKIBOD@percent?4sub@
CONST	SEGMENT
??_C@_0M@MHAKIBOD@percent?4sub@ DB 'percent.sub', 00H	; `string'
CONST	ENDS
;	COMDAT ??_C@_09JMLAABIP@slash?4sub@
CONST	SEGMENT
??_C@_09JMLAABIP@slash?4sub@ DB 'slash.sub', 00H	; `string'
CONST	ENDS
;	COMDAT ??_C@_0BB@POBNNLPJ@questionmark?4sub@
CONST	SEGMENT
??_C@_0BB@POBNNLPJ@questionmark?4sub@ DB 'questionmark.sub', 00H ; `string'
CONST	ENDS
;	COMDAT ??_C@_09GPLBLMNE@colon?4sub@
CONST	SEGMENT
??_C@_09GPLBLMNE@colon?4sub@ DB 'colon.sub', 00H	; `string'
CONST	ENDS
;	COMDAT ??_C@_0BO@GPCBPBEE@d?3?1ymir?5work?1ui?1game?1taskbar?1@
CONST	SEGMENT
??_C@_0BO@GPCBPBEE@d?3?1ymir?5work?1ui?1game?1taskbar?1@ DB 'd:/ymir work'
	DB	'/ui/game/taskbar/', 00H			; `string'
CONST	ENDS
;	COMDAT ??_C@_04FAHLGLIA@?4fnt@
CONST	SEGMENT
??_C@_04FAHLGLIA@?4fnt@ DB '.fnt', 00H			; `string'
CONST	ENDS
;	COMDAT ??_C@_06ICLMADCA@CBar3D@
CONST	SEGMENT
??_C@_06ICLMADCA@CBar3D@ DB 'CBar3D', 00H		; `string'
CONST	ENDS
;	COMDAT ??_C@_0P@KEJGBDKK@OnPressExitKey@
CONST	SEGMENT
??_C@_0P@KEJGBDKK@OnPressExitKey@ DB 'OnPressExitKey', 00H ; `string'
CONST	ENDS
;	COMDAT ??_C@_0BB@HCFLIMGH@OnPressEscapeKey@
CONST	SEGMENT
??_C@_0BB@HCFLIMGH@OnPressEscapeKey@ DB 'OnPressEscapeKey', 00H ; `string'
CONST	ENDS
;	COMDAT ??_C@_07NGNLLPEG@OnKeyUp@
CONST	SEGMENT
??_C@_07NGNLLPEG@OnKeyUp@ DB 'OnKeyUp', 00H		; `string'
CONST	ENDS
;	COMDAT ??_C@_09CMHFBEC@OnKeyDown@
CONST	SEGMENT
??_C@_09CMHFBEC@OnKeyDown@ DB 'OnKeyDown', 00H		; `string'
CONST	ENDS
;	COMDAT ??_C@_0BF@DEOILJPB@OnIMECloseReadingWnd@
CONST	SEGMENT
??_C@_0BF@DEOILJPB@OnIMECloseReadingWnd@ DB 'OnIMECloseReadingWnd', 00H ; `string'
CONST	ENDS
;	COMDAT ??_C@_0BE@KDCLEDDC@OnIMEOpenReadingWnd@
CONST	SEGMENT
??_C@_0BE@KDCLEDDC@OnIMEOpenReadingWnd@ DB 'OnIMEOpenReadingWnd', 00H ; `string'
CONST	ENDS
;	COMDAT ??_C@_0BI@LOIKIPJ@OnIMECloseCandidateList@
CONST	SEGMENT
??_C@_0BI@LOIKIPJ@OnIMECloseCandidateList@ DB 'OnIMECloseCandidateList', 00H ; `string'
CONST	ENDS
;	COMDAT ??_C@_0BH@HEDPBKEK@OnIMEOpenCandidateList@
CONST	SEGMENT
??_C@_0BH@HEDPBKEK@OnIMEOpenCandidateList@ DB 'OnIMEOpenCandidateList', 00H ; `string'
CONST	ENDS
;	COMDAT ??_C@_0BE@EHKLBB@OnIMEChangeCodePage@
CONST	SEGMENT
??_C@_0BE@EHKLBB@OnIMEChangeCodePage@ DB 'OnIMEChangeCodePage', 00H ; `string'
CONST	ENDS
;	COMDAT ??_C@_0N@BMPDGPBH@OnIMEKeyDown@
CONST	SEGMENT
??_C@_0N@BMPDGPBH@OnIMEKeyDown@ DB 'OnIMEKeyDown', 00H	; `string'
CONST	ENDS
;	COMDAT ??_C@_03LIHNMIHG@?$CIi?$CJ@
CONST	SEGMENT
??_C@_03LIHNMIHG@?$CIi?$CJ@ DB '(i)', 00H		; `string'
CONST	ENDS
;	COMDAT ??_C@_0M@PILLCCFN@OnIMEReturn@
CONST	SEGMENT
??_C@_0M@PILLCCFN@OnIMEReturn@ DB 'OnIMEReturn', 00H	; `string'
CONST	ENDS
;	COMDAT ??_C@_08HFELFLOI@OnIMETab@
CONST	SEGMENT
??_C@_08HFELFLOI@OnIMETab@ DB 'OnIMETab', 00H		; `string'
CONST	ENDS
;	COMDAT ??_C@_0BD@GNNJJHBO@OnMouseWheelScroll@
CONST	SEGMENT
??_C@_0BD@GNNJJHBO@OnMouseWheelScroll@ DB 'OnMouseWheelScroll', 00H ; `string'
CONST	ENDS
;	COMDAT ??_C@_03KJMMOONA@?$CIs?$CJ@
CONST	SEGMENT
??_C@_03KJMMOONA@?$CIs?$CJ@ DB '(s)', 00H		; `string'
CONST	ENDS
;	COMDAT ??_C@_04FANAOELO@DOWN@
CONST	SEGMENT
??_C@_04FANAOELO@DOWN@ DB 'DOWN', 00H			; `string'
CONST	ENDS
;	COMDAT ??_C@_02NAHCJHOC@UP@
CONST	SEGMENT
??_C@_02NAHCJHOC@UP@ DB 'UP', 00H			; `string'
CONST	ENDS
;	COMDAT ??_C@_0BG@IGAJCEHG@OnMouseMiddleButtonUp@
CONST	SEGMENT
??_C@_0BG@IGAJCEHG@OnMouseMiddleButtonUp@ DB 'OnMouseMiddleButtonUp', 00H ; `string'
CONST	ENDS
;	COMDAT ??_C@_0BI@LKFMHNKP@OnMouseMiddleButtonDown@
CONST	SEGMENT
??_C@_0BI@LKFMHNKP@OnMouseMiddleButtonDown@ DB 'OnMouseMiddleButtonDown', 00H ; `string'
CONST	ENDS
;	COMDAT ??_C@_0BO@NPKMHGOP@OnMouseRightButtonDoubleClick@
CONST	SEGMENT
??_C@_0BO@NPKMHGOP@OnMouseRightButtonDoubleClick@ DB 'OnMouseRightButtonD'
	DB	'oubleClick', 00H				; `string'
CONST	ENDS
;	COMDAT ??_C@_0BF@FDIGHPIH@OnMouseRightButtonUp@
CONST	SEGMENT
??_C@_0BF@FDIGHPIH@OnMouseRightButtonUp@ DB 'OnMouseRightButtonUp', 00H ; `string'
CONST	ENDS
;	COMDAT ??_C@_0BH@ELECPAKA@OnMouseRightButtonDown@
CONST	SEGMENT
??_C@_0BH@ELECPAKA@OnMouseRightButtonDown@ DB 'OnMouseRightButtonDown', 00H ; `string'
CONST	ENDS
;	COMDAT ??_C@_0BN@KEKGIMMP@OnMouseLeftButtonDoubleClick@
CONST	SEGMENT
??_C@_0BN@KEKGIMMP@OnMouseLeftButtonDoubleClick@ DB 'OnMouseLeftButtonDou'
	DB	'bleClick', 00H				; `string'
CONST	ENDS
;	COMDAT ??_C@_0BE@MJALGMGL@OnMouseLeftButtonUp@
CONST	SEGMENT
??_C@_0BE@MJALGMGL@OnMouseLeftButtonUp@ DB 'OnMouseLeftButtonUp', 00H ; `string'
CONST	ENDS
;	COMDAT ??_C@_0BG@DNDHJHBD@OnMouseLeftButtonDown@
CONST	SEGMENT
??_C@_0BG@DNDHJHBD@OnMouseLeftButtonDown@ DB 'OnMouseLeftButtonDown', 00H ; `string'
CONST	ENDS
;	COMDAT ??_C@_0M@DGOFHNMI@OnIMEUpdate@
CONST	SEGMENT
??_C@_0M@DGOFHNMI@OnIMEUpdate@ DB 'OnIMEUpdate', 00H	; `string'
CONST	ENDS
;	COMDAT ??_C@_05LOOKECNH@OnTop@
CONST	SEGMENT
??_C@_05LOOKECNH@OnTop@ DB 'OnTop', 00H			; `string'
CONST	ENDS
;	COMDAT ??_C@_06OCNPCIEO@OnDrop@
CONST	SEGMENT
??_C@_06OCNPCIEO@OnDrop@ DB 'OnDrop', 00H		; `string'
CONST	ENDS
;	COMDAT ??_C@_0P@KLLBNOAI@OnMouseOverOut@
CONST	SEGMENT
??_C@_0P@KLLBNOAI@OnMouseOverOut@ DB 'OnMouseOverOut', 00H ; `string'
CONST	ENDS
;	COMDAT ??_C@_0O@JKDAFDCC@OnMouseOverIn@
CONST	SEGMENT
??_C@_0O@JKDAFDCC@OnMouseOverIn@ DB 'OnMouseOverIn', 00H ; `string'
CONST	ENDS
;	COMDAT ??_C@_0M@CEGPCFGM@OnKillFocus@
CONST	SEGMENT
??_C@_0M@CEGPCFGM@OnKillFocus@ DB 'OnKillFocus', 00H	; `string'
CONST	ENDS
;	COMDAT ??_C@_0L@GIMNGBCD@OnSetFocus@
CONST	SEGMENT
??_C@_0L@GIMNGBCD@OnSetFocus@ DB 'OnSetFocus', 00H	; `string'
CONST	ENDS
;	COMDAT ??_C@_0N@PFKNBOJP@OnMoveWindow@
CONST	SEGMENT
??_C@_0N@PFKNBOJP@OnMoveWindow@ DB 'OnMoveWindow', 00H	; `string'
CONST	ENDS
;	COMDAT ??_C@_0M@ECAEGPAI@OnMouseDrag@
CONST	SEGMENT
??_C@_0M@ECAEGPAI@OnMouseDrag@ DB 'OnMouseDrag', 00H	; `string'
CONST	ENDS
;	COMDAT ??_C@_04INACLLOK@?$CIii?$CJ@
CONST	SEGMENT
??_C@_04INACLLOK@?$CIii?$CJ@ DB '(ii)', 00H		; `string'
CONST	ENDS
;	COMDAT ??_C@_0DA@NEIGMJK@?5CWindow?3?3SetTop?5?9?5Failed?5to?5fi@
CONST	SEGMENT
??_C@_0DA@NEIGMJK@?5CWindow?3?3SetTop?5?9?5Failed?5to?5fi@ DB ' CWindow::'
	DB	'SetTop - Failed to find child window', 0aH, 00H ; `string'
CONST	ENDS
;	COMDAT ??_C@_08PAJMEILO@OnRender@
CONST	SEGMENT
??_C@_08PAJMEILO@OnRender@ DB 'OnRender', 00H		; `string'
CONST	ENDS
;	COMDAT ??_C@_08DCJEAFK@OnUpdate@
CONST	SEGMENT
??_C@_08DCJEAFK@OnUpdate@ DB 'OnUpdate', 00H		; `string'
CONST	ENDS
;	COMDAT ??_C@_07EFPFKGGH@CWindow@
CONST	SEGMENT
??_C@_07EFPFKGGH@CWindow@ DB 'CWindow', 00H		; `string'
CONST	ENDS
;	COMDAT ??_7CDragButton@UI@@6B@
CONST	SEGMENT
??_7CDragButton@UI@@6B@ DD FLAT:??_R4CDragButton@UI@@6B@ ; UI::CDragButton::`vftable'
	DD	FLAT:??_ECDragButton@UI@@UAEPAXI@Z
	DD	FLAT:?OnRender@CButton@UI@@MAEXXZ
	DD	FLAT:?OnUpdate@CButton@UI@@MAEXXZ
	DD	FLAT:?OnChangePosition@CDragButton@UI@@MAEXXZ
	DD	FLAT:?OnSetFocus@CWindow@UI@@UAEXXZ
	DD	FLAT:?OnKillFocus@CWindow@UI@@UAEXXZ
	DD	FLAT:?OnMouseDrag@CWindow@UI@@UAEXJJ@Z
	DD	FLAT:?OnMouseOverIn@CDragButton@UI@@MAEXXZ
	DD	FLAT:?OnMouseOverOut@CDragButton@UI@@MAEXXZ
	DD	FLAT:?OnMouseOver@CWindow@UI@@UAEXXZ
	DD	FLAT:?OnDrop@CWindow@UI@@UAEXXZ
	DD	FLAT:?OnTop@CWindow@UI@@UAEXXZ
	DD	FLAT:?OnIMEUpdate@CWindow@UI@@UAEXXZ
	DD	FLAT:?OnMoveWindow@CWindow@UI@@UAEXJJ@Z
	DD	FLAT:?OnIMETabEvent@CWindow@UI@@UAEHXZ
	DD	FLAT:?OnIMEReturnEvent@CWindow@UI@@UAEHXZ
	DD	FLAT:?OnIMEKeyDownEvent@CWindow@UI@@UAEHH@Z
	DD	FLAT:?OnIMEChangeCodePage@CWindow@UI@@UAEHXZ
	DD	FLAT:?OnIMEOpenCandidateListEvent@CWindow@UI@@UAEHXZ
	DD	FLAT:?OnIMECloseCandidateListEvent@CWindow@UI@@UAEHXZ
	DD	FLAT:?OnIMEOpenReadingWndEvent@CWindow@UI@@UAEHXZ
	DD	FLAT:?OnIMECloseReadingWndEvent@CWindow@UI@@UAEHXZ
	DD	FLAT:?OnMouseLeftButtonDown@CButton@UI@@MAEHXZ
	DD	FLAT:?OnMouseLeftButtonUp@CButton@UI@@MAEHXZ
	DD	FLAT:?OnMouseLeftButtonDoubleClick@CButton@UI@@MAEHXZ
	DD	FLAT:?OnMouseRightButtonDown@CWindow@UI@@UAEHXZ
	DD	FLAT:?OnMouseRightButtonUp@CWindow@UI@@UAEHXZ
	DD	FLAT:?OnMouseRightButtonDoubleClick@CWindow@UI@@UAEHXZ
	DD	FLAT:?OnMouseMiddleButtonDown@CWindow@UI@@UAEHXZ
	DD	FLAT:?OnMouseMiddleButtonUp@CWindow@UI@@UAEHXZ
	DD	FLAT:?OnMouseWheelScroll@CWindow@UI@@UAEHF@Z
	DD	FLAT:?SetScrollable@CWindow@UI@@UAEXXZ
	DD	FLAT:?OnKeyDown@CWindow@UI@@UAEHH@Z
	DD	FLAT:?OnKeyUp@CWindow@UI@@UAEHH@Z
	DD	FLAT:?OnPressEscapeKey@CWindow@UI@@UAEHXZ
	DD	FLAT:?OnPressExitKey@CWindow@UI@@UAEHXZ
	DD	FLAT:?SetColor@CWindow@UI@@UAEXK@Z
	DD	FLAT:?OnIsType@CWindow@UI@@UAEHK@Z
	DD	FLAT:?IsWindow@CWindow@UI@@UAEHXZ
CONST	ENDS
;	COMDAT ??_7CToggleButton@UI@@6B@
CONST	SEGMENT
??_7CToggleButton@UI@@6B@ DD FLAT:??_R4CToggleButton@UI@@6B@ ; UI::CToggleButton::`vftable'
	DD	FLAT:??_ECToggleButton@UI@@UAEPAXI@Z
	DD	FLAT:?OnRender@CButton@UI@@MAEXXZ
	DD	FLAT:?OnUpdate@CButton@UI@@MAEXXZ
	DD	FLAT:?OnChangePosition@CButton@UI@@MAEXXZ
	DD	FLAT:?OnSetFocus@CWindow@UI@@UAEXXZ
	DD	FLAT:?OnKillFocus@CWindow@UI@@UAEXXZ
	DD	FLAT:?OnMouseDrag@CWindow@UI@@UAEXJJ@Z
	DD	FLAT:?OnMouseOverIn@CToggleButton@UI@@MAEXXZ
	DD	FLAT:?OnMouseOverOut@CToggleButton@UI@@MAEXXZ
	DD	FLAT:?OnMouseOver@CWindow@UI@@UAEXXZ
	DD	FLAT:?OnDrop@CWindow@UI@@UAEXXZ
	DD	FLAT:?OnTop@CWindow@UI@@UAEXXZ
	DD	FLAT:?OnIMEUpdate@CWindow@UI@@UAEXXZ
	DD	FLAT:?OnMoveWindow@CWindow@UI@@UAEXJJ@Z
	DD	FLAT:?OnIMETabEvent@CWindow@UI@@UAEHXZ
	DD	FLAT:?OnIMEReturnEvent@CWindow@UI@@UAEHXZ
	DD	FLAT:?OnIMEKeyDownEvent@CWindow@UI@@UAEHH@Z
	DD	FLAT:?OnIMEChangeCodePage@CWindow@UI@@UAEHXZ
	DD	FLAT:?OnIMEOpenCandidateListEvent@CWindow@UI@@UAEHXZ
	DD	FLAT:?OnIMECloseCandidateListEvent@CWindow@UI@@UAEHXZ
	DD	FLAT:?OnIMEOpenReadingWndEvent@CWindow@UI@@UAEHXZ
	DD	FLAT:?OnIMECloseReadingWndEvent@CWindow@UI@@UAEHXZ
	DD	FLAT:?OnMouseLeftButtonDown@CToggleButton@UI@@MAEHXZ
	DD	FLAT:?OnMouseLeftButtonUp@CToggleButton@UI@@MAEHXZ
	DD	FLAT:?OnMouseLeftButtonDoubleClick@CButton@UI@@MAEHXZ
	DD	FLAT:?OnMouseRightButtonDown@CWindow@UI@@UAEHXZ
	DD	FLAT:?OnMouseRightButtonUp@CWindow@UI@@UAEHXZ
	DD	FLAT:?OnMouseRightButtonDoubleClick@CWindow@UI@@UAEHXZ
	DD	FLAT:?OnMouseMiddleButtonDown@CWindow@UI@@UAEHXZ
	DD	FLAT:?OnMouseMiddleButtonUp@CWindow@UI@@UAEHXZ
	DD	FLAT:?OnMouseWheelScroll@CWindow@UI@@UAEHF@Z
	DD	FLAT:?SetScrollable@CWindow@UI@@UAEXXZ
	DD	FLAT:?OnKeyDown@CWindow@UI@@UAEHH@Z
	DD	FLAT:?OnKeyUp@CWindow@UI@@UAEHH@Z
	DD	FLAT:?OnPressEscapeKey@CWindow@UI@@UAEHXZ
	DD	FLAT:?OnPressExitKey@CWindow@UI@@UAEHXZ
	DD	FLAT:?SetColor@CWindow@UI@@UAEXK@Z
	DD	FLAT:?OnIsType@CWindow@UI@@UAEHK@Z
	DD	FLAT:?IsWindow@CWindow@UI@@UAEHXZ
CONST	ENDS
;	COMDAT ??_7CRadioButton@UI@@6B@
CONST	SEGMENT
??_7CRadioButton@UI@@6B@ DD FLAT:??_R4CRadioButton@UI@@6B@ ; UI::CRadioButton::`vftable'
	DD	FLAT:??_ECRadioButton@UI@@UAEPAXI@Z
	DD	FLAT:?OnRender@CButton@UI@@MAEXXZ
	DD	FLAT:?OnUpdate@CButton@UI@@MAEXXZ
	DD	FLAT:?OnChangePosition@CButton@UI@@MAEXXZ
	DD	FLAT:?OnSetFocus@CWindow@UI@@UAEXXZ
	DD	FLAT:?OnKillFocus@CWindow@UI@@UAEXXZ
	DD	FLAT:?OnMouseDrag@CWindow@UI@@UAEXJJ@Z
	DD	FLAT:?OnMouseOverIn@CRadioButton@UI@@MAEXXZ
	DD	FLAT:?OnMouseOverOut@CRadioButton@UI@@MAEXXZ
	DD	FLAT:?OnMouseOver@CWindow@UI@@UAEXXZ
	DD	FLAT:?OnDrop@CWindow@UI@@UAEXXZ
	DD	FLAT:?OnTop@CWindow@UI@@UAEXXZ
	DD	FLAT:?OnIMEUpdate@CWindow@UI@@UAEXXZ
	DD	FLAT:?OnMoveWindow@CWindow@UI@@UAEXJJ@Z
	DD	FLAT:?OnIMETabEvent@CWindow@UI@@UAEHXZ
	DD	FLAT:?OnIMEReturnEvent@CWindow@UI@@UAEHXZ
	DD	FLAT:?OnIMEKeyDownEvent@CWindow@UI@@UAEHH@Z
	DD	FLAT:?OnIMEChangeCodePage@CWindow@UI@@UAEHXZ
	DD	FLAT:?OnIMEOpenCandidateListEvent@CWindow@UI@@UAEHXZ
	DD	FLAT:?OnIMECloseCandidateListEvent@CWindow@UI@@UAEHXZ
	DD	FLAT:?OnIMEOpenReadingWndEvent@CWindow@UI@@UAEHXZ
	DD	FLAT:?OnIMECloseReadingWndEvent@CWindow@UI@@UAEHXZ
	DD	FLAT:?OnMouseLeftButtonDown@CRadioButton@UI@@MAEHXZ
	DD	FLAT:?OnMouseLeftButtonUp@CRadioButton@UI@@MAEHXZ
	DD	FLAT:?OnMouseLeftButtonDoubleClick@CButton@UI@@MAEHXZ
	DD	FLAT:?OnMouseRightButtonDown@CWindow@UI@@UAEHXZ
	DD	FLAT:?OnMouseRightButtonUp@CWindow@UI@@UAEHXZ
	DD	FLAT:?OnMouseRightButtonDoubleClick@CWindow@UI@@UAEHXZ
	DD	FLAT:?OnMouseMiddleButtonDown@CWindow@UI@@UAEHXZ
	DD	FLAT:?OnMouseMiddleButtonUp@CWindow@UI@@UAEHXZ
	DD	FLAT:?OnMouseWheelScroll@CWindow@UI@@UAEHF@Z
	DD	FLAT:?SetScrollable@CWindow@UI@@UAEXXZ
	DD	FLAT:?OnKeyDown@CWindow@UI@@UAEHH@Z
	DD	FLAT:?OnKeyUp@CWindow@UI@@UAEHH@Z
	DD	FLAT:?OnPressEscapeKey@CWindow@UI@@UAEHXZ
	DD	FLAT:?OnPressExitKey@CWindow@UI@@UAEHXZ
	DD	FLAT:?SetColor@CWindow@UI@@UAEXK@Z
	DD	FLAT:?OnIsType@CWindow@UI@@UAEHK@Z
	DD	FLAT:?IsWindow@CWindow@UI@@UAEHXZ
CONST	ENDS
;	COMDAT ??_7CButton@UI@@6B@
CONST	SEGMENT
??_7CButton@UI@@6B@ DD FLAT:??_R4CButton@UI@@6B@	; UI::CButton::`vftable'
	DD	FLAT:??_ECButton@UI@@UAEPAXI@Z
	DD	FLAT:?OnRender@CButton@UI@@MAEXXZ
	DD	FLAT:?OnUpdate@CButton@UI@@MAEXXZ
	DD	FLAT:?OnChangePosition@CButton@UI@@MAEXXZ
	DD	FLAT:?OnSetFocus@CWindow@UI@@UAEXXZ
	DD	FLAT:?OnKillFocus@CWindow@UI@@UAEXXZ
	DD	FLAT:?OnMouseDrag@CWindow@UI@@UAEXJJ@Z
	DD	FLAT:?OnMouseOverIn@CButton@UI@@MAEXXZ
	DD	FLAT:?OnMouseOverOut@CButton@UI@@MAEXXZ
	DD	FLAT:?OnMouseOver@CWindow@UI@@UAEXXZ
	DD	FLAT:?OnDrop@CWindow@UI@@UAEXXZ
	DD	FLAT:?OnTop@CWindow@UI@@UAEXXZ
	DD	FLAT:?OnIMEUpdate@CWindow@UI@@UAEXXZ
	DD	FLAT:?OnMoveWindow@CWindow@UI@@UAEXJJ@Z
	DD	FLAT:?OnIMETabEvent@CWindow@UI@@UAEHXZ
	DD	FLAT:?OnIMEReturnEvent@CWindow@UI@@UAEHXZ
	DD	FLAT:?OnIMEKeyDownEvent@CWindow@UI@@UAEHH@Z
	DD	FLAT:?OnIMEChangeCodePage@CWindow@UI@@UAEHXZ
	DD	FLAT:?OnIMEOpenCandidateListEvent@CWindow@UI@@UAEHXZ
	DD	FLAT:?OnIMECloseCandidateListEvent@CWindow@UI@@UAEHXZ
	DD	FLAT:?OnIMEOpenReadingWndEvent@CWindow@UI@@UAEHXZ
	DD	FLAT:?OnIMECloseReadingWndEvent@CWindow@UI@@UAEHXZ
	DD	FLAT:?OnMouseLeftButtonDown@CButton@UI@@MAEHXZ
	DD	FLAT:?OnMouseLeftButtonUp@CButton@UI@@MAEHXZ
	DD	FLAT:?OnMouseLeftButtonDoubleClick@CButton@UI@@MAEHXZ
	DD	FLAT:?OnMouseRightButtonDown@CWindow@UI@@UAEHXZ
	DD	FLAT:?OnMouseRightButtonUp@CWindow@UI@@UAEHXZ
	DD	FLAT:?OnMouseRightButtonDoubleClick@CWindow@UI@@UAEHXZ
	DD	FLAT:?OnMouseMiddleButtonDown@CWindow@UI@@UAEHXZ
	DD	FLAT:?OnMouseMiddleButtonUp@CWindow@UI@@UAEHXZ
	DD	FLAT:?OnMouseWheelScroll@CWindow@UI@@UAEHF@Z
	DD	FLAT:?SetScrollable@CWindow@UI@@UAEXXZ
	DD	FLAT:?OnKeyDown@CWindow@UI@@UAEHH@Z
	DD	FLAT:?OnKeyUp@CWindow@UI@@UAEHH@Z
	DD	FLAT:?OnPressEscapeKey@CWindow@UI@@UAEHXZ
	DD	FLAT:?OnPressExitKey@CWindow@UI@@UAEHXZ
	DD	FLAT:?SetColor@CWindow@UI@@UAEXK@Z
	DD	FLAT:?OnIsType@CWindow@UI@@UAEHK@Z
	DD	FLAT:?IsWindow@CWindow@UI@@UAEHXZ
CONST	ENDS
;	COMDAT ??_7CAniImageBox@UI@@6B@
CONST	SEGMENT
??_7CAniImageBox@UI@@6B@ DD FLAT:??_R4CAniImageBox@UI@@6B@ ; UI::CAniImageBox::`vftable'
	DD	FLAT:??_ECAniImageBox@UI@@UAEPAXI@Z
	DD	FLAT:?OnRender@CAniImageBox@UI@@MAEXXZ
	DD	FLAT:?OnUpdate@CAniImageBox@UI@@MAEXXZ
	DD	FLAT:?OnChangePosition@CAniImageBox@UI@@MAEXXZ
	DD	FLAT:?OnSetFocus@CWindow@UI@@UAEXXZ
	DD	FLAT:?OnKillFocus@CWindow@UI@@UAEXXZ
	DD	FLAT:?OnMouseDrag@CWindow@UI@@UAEXJJ@Z
	DD	FLAT:?OnMouseOverIn@CWindow@UI@@UAEXXZ
	DD	FLAT:?OnMouseOverOut@CWindow@UI@@UAEXXZ
	DD	FLAT:?OnMouseOver@CWindow@UI@@UAEXXZ
	DD	FLAT:?OnDrop@CWindow@UI@@UAEXXZ
	DD	FLAT:?OnTop@CWindow@UI@@UAEXXZ
	DD	FLAT:?OnIMEUpdate@CWindow@UI@@UAEXXZ
	DD	FLAT:?OnMoveWindow@CWindow@UI@@UAEXJJ@Z
	DD	FLAT:?OnIMETabEvent@CWindow@UI@@UAEHXZ
	DD	FLAT:?OnIMEReturnEvent@CWindow@UI@@UAEHXZ
	DD	FLAT:?OnIMEKeyDownEvent@CWindow@UI@@UAEHH@Z
	DD	FLAT:?OnIMEChangeCodePage@CWindow@UI@@UAEHXZ
	DD	FLAT:?OnIMEOpenCandidateListEvent@CWindow@UI@@UAEHXZ
	DD	FLAT:?OnIMECloseCandidateListEvent@CWindow@UI@@UAEHXZ
	DD	FLAT:?OnIMEOpenReadingWndEvent@CWindow@UI@@UAEHXZ
	DD	FLAT:?OnIMECloseReadingWndEvent@CWindow@UI@@UAEHXZ
	DD	FLAT:?OnMouseLeftButtonDown@CWindow@UI@@UAEHXZ
	DD	FLAT:?OnMouseLeftButtonUp@CWindow@UI@@UAEHXZ
	DD	FLAT:?OnMouseLeftButtonDoubleClick@CWindow@UI@@UAEHXZ
	DD	FLAT:?OnMouseRightButtonDown@CWindow@UI@@UAEHXZ
	DD	FLAT:?OnMouseRightButtonUp@CWindow@UI@@UAEHXZ
	DD	FLAT:?OnMouseRightButtonDoubleClick@CWindow@UI@@UAEHXZ
	DD	FLAT:?OnMouseMiddleButtonDown@CWindow@UI@@UAEHXZ
	DD	FLAT:?OnMouseMiddleButtonUp@CWindow@UI@@UAEHXZ
	DD	FLAT:?OnMouseWheelScroll@CWindow@UI@@UAEHF@Z
	DD	FLAT:?SetScrollable@CWindow@UI@@UAEXXZ
	DD	FLAT:?OnKeyDown@CWindow@UI@@UAEHH@Z
	DD	FLAT:?OnKeyUp@CWindow@UI@@UAEHH@Z
	DD	FLAT:?OnPressEscapeKey@CWindow@UI@@UAEHXZ
	DD	FLAT:?OnPressExitKey@CWindow@UI@@UAEHXZ
	DD	FLAT:?SetColor@CWindow@UI@@UAEXK@Z
	DD	FLAT:?OnIsType@CAniImageBox@UI@@MAEHK@Z
	DD	FLAT:?IsWindow@CWindow@UI@@UAEHXZ
	DD	FLAT:?OnEndFrame@CAniImageBox@UI@@MAEXXZ
CONST	ENDS
;	COMDAT ??_7CExpandedImageBox@UI@@6B@
CONST	SEGMENT
??_7CExpandedImageBox@UI@@6B@ DD FLAT:??_R4CExpandedImageBox@UI@@6B@ ; UI::CExpandedImageBox::`vftable'
	DD	FLAT:??_ECExpandedImageBox@UI@@UAEPAXI@Z
	DD	FLAT:?OnRender@CExpandedImageBox@UI@@MAEXXZ
	DD	FLAT:?OnUpdate@CExpandedImageBox@UI@@MAEXXZ
	DD	FLAT:?OnChangePosition@CImageBox@UI@@MAEXXZ
	DD	FLAT:?OnSetFocus@CWindow@UI@@UAEXXZ
	DD	FLAT:?OnKillFocus@CWindow@UI@@UAEXXZ
	DD	FLAT:?OnMouseDrag@CWindow@UI@@UAEXJJ@Z
	DD	FLAT:?OnMouseOverIn@CWindow@UI@@UAEXXZ
	DD	FLAT:?OnMouseOverOut@CWindow@UI@@UAEXXZ
	DD	FLAT:?OnMouseOver@CWindow@UI@@UAEXXZ
	DD	FLAT:?OnDrop@CWindow@UI@@UAEXXZ
	DD	FLAT:?OnTop@CWindow@UI@@UAEXXZ
	DD	FLAT:?OnIMEUpdate@CWindow@UI@@UAEXXZ
	DD	FLAT:?OnMoveWindow@CWindow@UI@@UAEXJJ@Z
	DD	FLAT:?OnIMETabEvent@CWindow@UI@@UAEHXZ
	DD	FLAT:?OnIMEReturnEvent@CWindow@UI@@UAEHXZ
	DD	FLAT:?OnIMEKeyDownEvent@CWindow@UI@@UAEHH@Z
	DD	FLAT:?OnIMEChangeCodePage@CWindow@UI@@UAEHXZ
	DD	FLAT:?OnIMEOpenCandidateListEvent@CWindow@UI@@UAEHXZ
	DD	FLAT:?OnIMECloseCandidateListEvent@CWindow@UI@@UAEHXZ
	DD	FLAT:?OnIMEOpenReadingWndEvent@CWindow@UI@@UAEHXZ
	DD	FLAT:?OnIMECloseReadingWndEvent@CWindow@UI@@UAEHXZ
	DD	FLAT:?OnMouseLeftButtonDown@CWindow@UI@@UAEHXZ
	DD	FLAT:?OnMouseLeftButtonUp@CWindow@UI@@UAEHXZ
	DD	FLAT:?OnMouseLeftButtonDoubleClick@CWindow@UI@@UAEHXZ
	DD	FLAT:?OnMouseRightButtonDown@CWindow@UI@@UAEHXZ
	DD	FLAT:?OnMouseRightButtonUp@CWindow@UI@@UAEHXZ
	DD	FLAT:?OnMouseRightButtonDoubleClick@CWindow@UI@@UAEHXZ
	DD	FLAT:?OnMouseMiddleButtonDown@CWindow@UI@@UAEHXZ
	DD	FLAT:?OnMouseMiddleButtonUp@CWindow@UI@@UAEHXZ
	DD	FLAT:?OnMouseWheelScroll@CWindow@UI@@UAEHF@Z
	DD	FLAT:?SetScrollable@CWindow@UI@@UAEXXZ
	DD	FLAT:?OnKeyDown@CWindow@UI@@UAEHH@Z
	DD	FLAT:?OnKeyUp@CWindow@UI@@UAEHH@Z
	DD	FLAT:?OnPressEscapeKey@CWindow@UI@@UAEHXZ
	DD	FLAT:?OnPressExitKey@CWindow@UI@@UAEHXZ
	DD	FLAT:?SetColor@CWindow@UI@@UAEXK@Z
	DD	FLAT:?OnIsType@CExpandedImageBox@UI@@MAEHK@Z
	DD	FLAT:?IsWindow@CWindow@UI@@UAEHXZ
	DD	FLAT:?OnCreateInstance@CExpandedImageBox@UI@@MAEXXZ
	DD	FLAT:?OnDestroyInstance@CExpandedImageBox@UI@@MAEXXZ
CONST	ENDS
;	COMDAT ??_7CMarkBox@UI@@6B@
CONST	SEGMENT
??_7CMarkBox@UI@@6B@ DD FLAT:??_R4CMarkBox@UI@@6B@	; UI::CMarkBox::`vftable'
	DD	FLAT:??_ECMarkBox@UI@@UAEPAXI@Z
	DD	FLAT:?OnRender@CMarkBox@UI@@MAEXXZ
	DD	FLAT:?OnUpdate@CMarkBox@UI@@MAEXXZ
	DD	FLAT:?OnChangePosition@CMarkBox@UI@@MAEXXZ
	DD	FLAT:?OnSetFocus@CWindow@UI@@UAEXXZ
	DD	FLAT:?OnKillFocus@CWindow@UI@@UAEXXZ
	DD	FLAT:?OnMouseDrag@CWindow@UI@@UAEXJJ@Z
	DD	FLAT:?OnMouseOverIn@CWindow@UI@@UAEXXZ
	DD	FLAT:?OnMouseOverOut@CWindow@UI@@UAEXXZ
	DD	FLAT:?OnMouseOver@CWindow@UI@@UAEXXZ
	DD	FLAT:?OnDrop@CWindow@UI@@UAEXXZ
	DD	FLAT:?OnTop@CWindow@UI@@UAEXXZ
	DD	FLAT:?OnIMEUpdate@CWindow@UI@@UAEXXZ
	DD	FLAT:?OnMoveWindow@CWindow@UI@@UAEXJJ@Z
	DD	FLAT:?OnIMETabEvent@CWindow@UI@@UAEHXZ
	DD	FLAT:?OnIMEReturnEvent@CWindow@UI@@UAEHXZ
	DD	FLAT:?OnIMEKeyDownEvent@CWindow@UI@@UAEHH@Z
	DD	FLAT:?OnIMEChangeCodePage@CWindow@UI@@UAEHXZ
	DD	FLAT:?OnIMEOpenCandidateListEvent@CWindow@UI@@UAEHXZ
	DD	FLAT:?OnIMECloseCandidateListEvent@CWindow@UI@@UAEHXZ
	DD	FLAT:?OnIMEOpenReadingWndEvent@CWindow@UI@@UAEHXZ
	DD	FLAT:?OnIMECloseReadingWndEvent@CWindow@UI@@UAEHXZ
	DD	FLAT:?OnMouseLeftButtonDown@CWindow@UI@@UAEHXZ
	DD	FLAT:?OnMouseLeftButtonUp@CWindow@UI@@UAEHXZ
	DD	FLAT:?OnMouseLeftButtonDoubleClick@CWindow@UI@@UAEHXZ
	DD	FLAT:?OnMouseRightButtonDown@CWindow@UI@@UAEHXZ
	DD	FLAT:?OnMouseRightButtonUp@CWindow@UI@@UAEHXZ
	DD	FLAT:?OnMouseRightButtonDoubleClick@CWindow@UI@@UAEHXZ
	DD	FLAT:?OnMouseMiddleButtonDown@CWindow@UI@@UAEHXZ
	DD	FLAT:?OnMouseMiddleButtonUp@CWindow@UI@@UAEHXZ
	DD	FLAT:?OnMouseWheelScroll@CWindow@UI@@UAEHF@Z
	DD	FLAT:?SetScrollable@CWindow@UI@@UAEXXZ
	DD	FLAT:?OnKeyDown@CWindow@UI@@UAEHH@Z
	DD	FLAT:?OnKeyUp@CWindow@UI@@UAEHH@Z
	DD	FLAT:?OnPressEscapeKey@CWindow@UI@@UAEHXZ
	DD	FLAT:?OnPressExitKey@CWindow@UI@@UAEHXZ
	DD	FLAT:?SetColor@CWindow@UI@@UAEXK@Z
	DD	FLAT:?OnIsType@CWindow@UI@@UAEHK@Z
	DD	FLAT:?IsWindow@CWindow@UI@@UAEHXZ
	DD	FLAT:?OnCreateInstance@CMarkBox@UI@@MAEXXZ
	DD	FLAT:?OnDestroyInstance@CMarkBox@UI@@MAEXXZ
CONST	ENDS
;	COMDAT ??_7CImageBox@UI@@6B@
CONST	SEGMENT
??_7CImageBox@UI@@6B@ DD FLAT:??_R4CImageBox@UI@@6B@	; UI::CImageBox::`vftable'
	DD	FLAT:??_ECImageBox@UI@@UAEPAXI@Z
	DD	FLAT:?OnRender@CImageBox@UI@@MAEXXZ
	DD	FLAT:?OnUpdate@CImageBox@UI@@MAEXXZ
	DD	FLAT:?OnChangePosition@CImageBox@UI@@MAEXXZ
	DD	FLAT:?OnSetFocus@CWindow@UI@@UAEXXZ
	DD	FLAT:?OnKillFocus@CWindow@UI@@UAEXXZ
	DD	FLAT:?OnMouseDrag@CWindow@UI@@UAEXJJ@Z
	DD	FLAT:?OnMouseOverIn@CWindow@UI@@UAEXXZ
	DD	FLAT:?OnMouseOverOut@CWindow@UI@@UAEXXZ
	DD	FLAT:?OnMouseOver@CWindow@UI@@UAEXXZ
	DD	FLAT:?OnDrop@CWindow@UI@@UAEXXZ
	DD	FLAT:?OnTop@CWindow@UI@@UAEXXZ
	DD	FLAT:?OnIMEUpdate@CWindow@UI@@UAEXXZ
	DD	FLAT:?OnMoveWindow@CWindow@UI@@UAEXJJ@Z
	DD	FLAT:?OnIMETabEvent@CWindow@UI@@UAEHXZ
	DD	FLAT:?OnIMEReturnEvent@CWindow@UI@@UAEHXZ
	DD	FLAT:?OnIMEKeyDownEvent@CWindow@UI@@UAEHH@Z
	DD	FLAT:?OnIMEChangeCodePage@CWindow@UI@@UAEHXZ
	DD	FLAT:?OnIMEOpenCandidateListEvent@CWindow@UI@@UAEHXZ
	DD	FLAT:?OnIMECloseCandidateListEvent@CWindow@UI@@UAEHXZ
	DD	FLAT:?OnIMEOpenReadingWndEvent@CWindow@UI@@UAEHXZ
	DD	FLAT:?OnIMECloseReadingWndEvent@CWindow@UI@@UAEHXZ
	DD	FLAT:?OnMouseLeftButtonDown@CWindow@UI@@UAEHXZ
	DD	FLAT:?OnMouseLeftButtonUp@CWindow@UI@@UAEHXZ
	DD	FLAT:?OnMouseLeftButtonDoubleClick@CWindow@UI@@UAEHXZ
	DD	FLAT:?OnMouseRightButtonDown@CWindow@UI@@UAEHXZ
	DD	FLAT:?OnMouseRightButtonUp@CWindow@UI@@UAEHXZ
	DD	FLAT:?OnMouseRightButtonDoubleClick@CWindow@UI@@UAEHXZ
	DD	FLAT:?OnMouseMiddleButtonDown@CWindow@UI@@UAEHXZ
	DD	FLAT:?OnMouseMiddleButtonUp@CWindow@UI@@UAEHXZ
	DD	FLAT:?OnMouseWheelScroll@CWindow@UI@@UAEHF@Z
	DD	FLAT:?SetScrollable@CWindow@UI@@UAEXXZ
	DD	FLAT:?OnKeyDown@CWindow@UI@@UAEHH@Z
	DD	FLAT:?OnKeyUp@CWindow@UI@@UAEHH@Z
	DD	FLAT:?OnPressEscapeKey@CWindow@UI@@UAEHXZ
	DD	FLAT:?OnPressExitKey@CWindow@UI@@UAEHXZ
	DD	FLAT:?SetColor@CWindow@UI@@UAEXK@Z
	DD	FLAT:?OnIsType@CWindow@UI@@UAEHK@Z
	DD	FLAT:?IsWindow@CWindow@UI@@UAEHXZ
	DD	FLAT:?OnCreateInstance@CImageBox@UI@@MAEXXZ
	DD	FLAT:?OnDestroyInstance@CImageBox@UI@@MAEXXZ
CONST	ENDS
;	COMDAT ??_7CNumberLine@UI@@6B@
CONST	SEGMENT
??_7CNumberLine@UI@@6B@ DD FLAT:??_R4CNumberLine@UI@@6B@ ; UI::CNumberLine::`vftable'
	DD	FLAT:??_ECNumberLine@UI@@UAEPAXI@Z
	DD	FLAT:?OnRender@CNumberLine@UI@@MAEXXZ
	DD	FLAT:?OnUpdate@CWindow@UI@@UAEXXZ
	DD	FLAT:?OnChangePosition@CNumberLine@UI@@MAEXXZ
	DD	FLAT:?OnSetFocus@CWindow@UI@@UAEXXZ
	DD	FLAT:?OnKillFocus@CWindow@UI@@UAEXXZ
	DD	FLAT:?OnMouseDrag@CWindow@UI@@UAEXJJ@Z
	DD	FLAT:?OnMouseOverIn@CWindow@UI@@UAEXXZ
	DD	FLAT:?OnMouseOverOut@CWindow@UI@@UAEXXZ
	DD	FLAT:?OnMouseOver@CWindow@UI@@UAEXXZ
	DD	FLAT:?OnDrop@CWindow@UI@@UAEXXZ
	DD	FLAT:?OnTop@CWindow@UI@@UAEXXZ
	DD	FLAT:?OnIMEUpdate@CWindow@UI@@UAEXXZ
	DD	FLAT:?OnMoveWindow@CWindow@UI@@UAEXJJ@Z
	DD	FLAT:?OnIMETabEvent@CWindow@UI@@UAEHXZ
	DD	FLAT:?OnIMEReturnEvent@CWindow@UI@@UAEHXZ
	DD	FLAT:?OnIMEKeyDownEvent@CWindow@UI@@UAEHH@Z
	DD	FLAT:?OnIMEChangeCodePage@CWindow@UI@@UAEHXZ
	DD	FLAT:?OnIMEOpenCandidateListEvent@CWindow@UI@@UAEHXZ
	DD	FLAT:?OnIMECloseCandidateListEvent@CWindow@UI@@UAEHXZ
	DD	FLAT:?OnIMEOpenReadingWndEvent@CWindow@UI@@UAEHXZ
	DD	FLAT:?OnIMECloseReadingWndEvent@CWindow@UI@@UAEHXZ
	DD	FLAT:?OnMouseLeftButtonDown@CWindow@UI@@UAEHXZ
	DD	FLAT:?OnMouseLeftButtonUp@CWindow@UI@@UAEHXZ
	DD	FLAT:?OnMouseLeftButtonDoubleClick@CWindow@UI@@UAEHXZ
	DD	FLAT:?OnMouseRightButtonDown@CWindow@UI@@UAEHXZ
	DD	FLAT:?OnMouseRightButtonUp@CWindow@UI@@UAEHXZ
	DD	FLAT:?OnMouseRightButtonDoubleClick@CWindow@UI@@UAEHXZ
	DD	FLAT:?OnMouseMiddleButtonDown@CWindow@UI@@UAEHXZ
	DD	FLAT:?OnMouseMiddleButtonUp@CWindow@UI@@UAEHXZ
	DD	FLAT:?OnMouseWheelScroll@CWindow@UI@@UAEHF@Z
	DD	FLAT:?SetScrollable@CWindow@UI@@UAEXXZ
	DD	FLAT:?OnKeyDown@CWindow@UI@@UAEHH@Z
	DD	FLAT:?OnKeyUp@CWindow@UI@@UAEHH@Z
	DD	FLAT:?OnPressEscapeKey@CWindow@UI@@UAEHXZ
	DD	FLAT:?OnPressExitKey@CWindow@UI@@UAEHXZ
	DD	FLAT:?SetColor@CWindow@UI@@UAEXK@Z
	DD	FLAT:?OnIsType@CWindow@UI@@UAEHK@Z
	DD	FLAT:?IsWindow@CWindow@UI@@UAEHXZ
CONST	ENDS
;	COMDAT ??_7CTextLine@UI@@6B@
CONST	SEGMENT
??_7CTextLine@UI@@6B@ DD FLAT:??_R4CTextLine@UI@@6B@	; UI::CTextLine::`vftable'
	DD	FLAT:??_ECTextLine@UI@@UAEPAXI@Z
	DD	FLAT:?OnRender@CTextLine@UI@@MAEXXZ
	DD	FLAT:?OnUpdate@CTextLine@UI@@MAEXXZ
	DD	FLAT:?OnChangePosition@CTextLine@UI@@MAEXXZ
	DD	FLAT:?OnSetFocus@CWindow@UI@@UAEXXZ
	DD	FLAT:?OnKillFocus@CWindow@UI@@UAEXXZ
	DD	FLAT:?OnMouseDrag@CWindow@UI@@UAEXJJ@Z
	DD	FLAT:?OnMouseOverIn@CWindow@UI@@UAEXXZ
	DD	FLAT:?OnMouseOverOut@CWindow@UI@@UAEXXZ
	DD	FLAT:?OnMouseOver@CWindow@UI@@UAEXXZ
	DD	FLAT:?OnDrop@CWindow@UI@@UAEXXZ
	DD	FLAT:?OnTop@CWindow@UI@@UAEXXZ
	DD	FLAT:?OnIMEUpdate@CWindow@UI@@UAEXXZ
	DD	FLAT:?OnMoveWindow@CWindow@UI@@UAEXJJ@Z
	DD	FLAT:?OnIMETabEvent@CWindow@UI@@UAEHXZ
	DD	FLAT:?OnIMEReturnEvent@CWindow@UI@@UAEHXZ
	DD	FLAT:?OnIMEKeyDownEvent@CWindow@UI@@UAEHH@Z
	DD	FLAT:?OnIMEChangeCodePage@CWindow@UI@@UAEHXZ
	DD	FLAT:?OnIMEOpenCandidateListEvent@CWindow@UI@@UAEHXZ
	DD	FLAT:?OnIMECloseCandidateListEvent@CWindow@UI@@UAEHXZ
	DD	FLAT:?OnIMEOpenReadingWndEvent@CWindow@UI@@UAEHXZ
	DD	FLAT:?OnIMECloseReadingWndEvent@CWindow@UI@@UAEHXZ
	DD	FLAT:?OnMouseLeftButtonDown@CWindow@UI@@UAEHXZ
	DD	FLAT:?OnMouseLeftButtonUp@CWindow@UI@@UAEHXZ
	DD	FLAT:?OnMouseLeftButtonDoubleClick@CWindow@UI@@UAEHXZ
	DD	FLAT:?OnMouseRightButtonDown@CWindow@UI@@UAEHXZ
	DD	FLAT:?OnMouseRightButtonUp@CWindow@UI@@UAEHXZ
	DD	FLAT:?OnMouseRightButtonDoubleClick@CWindow@UI@@UAEHXZ
	DD	FLAT:?OnMouseMiddleButtonDown@CWindow@UI@@UAEHXZ
	DD	FLAT:?OnMouseMiddleButtonUp@CWindow@UI@@UAEHXZ
	DD	FLAT:?OnMouseWheelScroll@CWindow@UI@@UAEHF@Z
	DD	FLAT:?SetScrollable@CWindow@UI@@UAEXXZ
	DD	FLAT:?OnKeyDown@CWindow@UI@@UAEHH@Z
	DD	FLAT:?OnKeyUp@CWindow@UI@@UAEHH@Z
	DD	FLAT:?OnPressEscapeKey@CWindow@UI@@UAEHXZ
	DD	FLAT:?OnPressExitKey@CWindow@UI@@UAEHXZ
	DD	FLAT:?SetColor@CWindow@UI@@UAEXK@Z
	DD	FLAT:?OnIsType@CWindow@UI@@UAEHK@Z
	DD	FLAT:?IsWindow@CWindow@UI@@UAEHXZ
	DD	FLAT:?OnSetText@CTextLine@UI@@MAEXPBD@Z
CONST	ENDS
;	COMDAT ??_7CBar3D@UI@@6B@
CONST	SEGMENT
??_7CBar3D@UI@@6B@ DD FLAT:??_R4CBar3D@UI@@6B@		; UI::CBar3D::`vftable'
	DD	FLAT:??_ECBar3D@UI@@UAEPAXI@Z
	DD	FLAT:?OnRender@CBar3D@UI@@MAEXXZ
	DD	FLAT:?OnUpdate@CWindow@UI@@UAEXXZ
	DD	FLAT:?OnChangePosition@CWindow@UI@@UAEXXZ
	DD	FLAT:?OnSetFocus@CWindow@UI@@UAEXXZ
	DD	FLAT:?OnKillFocus@CWindow@UI@@UAEXXZ
	DD	FLAT:?OnMouseDrag@CWindow@UI@@UAEXJJ@Z
	DD	FLAT:?OnMouseOverIn@CWindow@UI@@UAEXXZ
	DD	FLAT:?OnMouseOverOut@CWindow@UI@@UAEXXZ
	DD	FLAT:?OnMouseOver@CWindow@UI@@UAEXXZ
	DD	FLAT:?OnDrop@CWindow@UI@@UAEXXZ
	DD	FLAT:?OnTop@CWindow@UI@@UAEXXZ
	DD	FLAT:?OnIMEUpdate@CWindow@UI@@UAEXXZ
	DD	FLAT:?OnMoveWindow@CWindow@UI@@UAEXJJ@Z
	DD	FLAT:?OnIMETabEvent@CWindow@UI@@UAEHXZ
	DD	FLAT:?OnIMEReturnEvent@CWindow@UI@@UAEHXZ
	DD	FLAT:?OnIMEKeyDownEvent@CWindow@UI@@UAEHH@Z
	DD	FLAT:?OnIMEChangeCodePage@CWindow@UI@@UAEHXZ
	DD	FLAT:?OnIMEOpenCandidateListEvent@CWindow@UI@@UAEHXZ
	DD	FLAT:?OnIMECloseCandidateListEvent@CWindow@UI@@UAEHXZ
	DD	FLAT:?OnIMEOpenReadingWndEvent@CWindow@UI@@UAEHXZ
	DD	FLAT:?OnIMECloseReadingWndEvent@CWindow@UI@@UAEHXZ
	DD	FLAT:?OnMouseLeftButtonDown@CWindow@UI@@UAEHXZ
	DD	FLAT:?OnMouseLeftButtonUp@CWindow@UI@@UAEHXZ
	DD	FLAT:?OnMouseLeftButtonDoubleClick@CWindow@UI@@UAEHXZ
	DD	FLAT:?OnMouseRightButtonDown@CWindow@UI@@UAEHXZ
	DD	FLAT:?OnMouseRightButtonUp@CWindow@UI@@UAEHXZ
	DD	FLAT:?OnMouseRightButtonDoubleClick@CWindow@UI@@UAEHXZ
	DD	FLAT:?OnMouseMiddleButtonDown@CWindow@UI@@UAEHXZ
	DD	FLAT:?OnMouseMiddleButtonUp@CWindow@UI@@UAEHXZ
	DD	FLAT:?OnMouseWheelScroll@CWindow@UI@@UAEHF@Z
	DD	FLAT:?SetScrollable@CWindow@UI@@UAEXXZ
	DD	FLAT:?OnKeyDown@CWindow@UI@@UAEHH@Z
	DD	FLAT:?OnKeyUp@CWindow@UI@@UAEHH@Z
	DD	FLAT:?OnPressEscapeKey@CWindow@UI@@UAEHXZ
	DD	FLAT:?OnPressExitKey@CWindow@UI@@UAEHXZ
	DD	FLAT:?SetColor@CWindow@UI@@UAEXK@Z
	DD	FLAT:?OnIsType@CWindow@UI@@UAEHK@Z
	DD	FLAT:?IsWindow@CWindow@UI@@UAEHXZ
CONST	ENDS
;	COMDAT ??_7CLine@UI@@6B@
CONST	SEGMENT
??_7CLine@UI@@6B@ DD FLAT:??_R4CLine@UI@@6B@		; UI::CLine::`vftable'
	DD	FLAT:??_ECLine@UI@@UAEPAXI@Z
	DD	FLAT:?OnRender@CLine@UI@@MAEXXZ
	DD	FLAT:?OnUpdate@CWindow@UI@@UAEXXZ
	DD	FLAT:?OnChangePosition@CWindow@UI@@UAEXXZ
	DD	FLAT:?OnSetFocus@CWindow@UI@@UAEXXZ
	DD	FLAT:?OnKillFocus@CWindow@UI@@UAEXXZ
	DD	FLAT:?OnMouseDrag@CWindow@UI@@UAEXJJ@Z
	DD	FLAT:?OnMouseOverIn@CWindow@UI@@UAEXXZ
	DD	FLAT:?OnMouseOverOut@CWindow@UI@@UAEXXZ
	DD	FLAT:?OnMouseOver@CWindow@UI@@UAEXXZ
	DD	FLAT:?OnDrop@CWindow@UI@@UAEXXZ
	DD	FLAT:?OnTop@CWindow@UI@@UAEXXZ
	DD	FLAT:?OnIMEUpdate@CWindow@UI@@UAEXXZ
	DD	FLAT:?OnMoveWindow@CWindow@UI@@UAEXJJ@Z
	DD	FLAT:?OnIMETabEvent@CWindow@UI@@UAEHXZ
	DD	FLAT:?OnIMEReturnEvent@CWindow@UI@@UAEHXZ
	DD	FLAT:?OnIMEKeyDownEvent@CWindow@UI@@UAEHH@Z
	DD	FLAT:?OnIMEChangeCodePage@CWindow@UI@@UAEHXZ
	DD	FLAT:?OnIMEOpenCandidateListEvent@CWindow@UI@@UAEHXZ
	DD	FLAT:?OnIMECloseCandidateListEvent@CWindow@UI@@UAEHXZ
	DD	FLAT:?OnIMEOpenReadingWndEvent@CWindow@UI@@UAEHXZ
	DD	FLAT:?OnIMECloseReadingWndEvent@CWindow@UI@@UAEHXZ
	DD	FLAT:?OnMouseLeftButtonDown@CWindow@UI@@UAEHXZ
	DD	FLAT:?OnMouseLeftButtonUp@CWindow@UI@@UAEHXZ
	DD	FLAT:?OnMouseLeftButtonDoubleClick@CWindow@UI@@UAEHXZ
	DD	FLAT:?OnMouseRightButtonDown@CWindow@UI@@UAEHXZ
	DD	FLAT:?OnMouseRightButtonUp@CWindow@UI@@UAEHXZ
	DD	FLAT:?OnMouseRightButtonDoubleClick@CWindow@UI@@UAEHXZ
	DD	FLAT:?OnMouseMiddleButtonDown@CWindow@UI@@UAEHXZ
	DD	FLAT:?OnMouseMiddleButtonUp@CWindow@UI@@UAEHXZ
	DD	FLAT:?OnMouseWheelScroll@CWindow@UI@@UAEHF@Z
	DD	FLAT:?SetScrollable@CWindow@UI@@UAEXXZ
	DD	FLAT:?OnKeyDown@CWindow@UI@@UAEHH@Z
	DD	FLAT:?OnKeyUp@CWindow@UI@@UAEHH@Z
	DD	FLAT:?OnPressEscapeKey@CWindow@UI@@UAEHXZ
	DD	FLAT:?OnPressExitKey@CWindow@UI@@UAEHXZ
	DD	FLAT:?SetColor@CLine@UI@@UAEXK@Z
	DD	FLAT:?OnIsType@CWindow@UI@@UAEHK@Z
	DD	FLAT:?IsWindow@CWindow@UI@@UAEHXZ
CONST	ENDS
;	COMDAT ??_7CBar@UI@@6B@
CONST	SEGMENT
??_7CBar@UI@@6B@ DD FLAT:??_R4CBar@UI@@6B@		; UI::CBar::`vftable'
	DD	FLAT:??_ECBar@UI@@UAEPAXI@Z
	DD	FLAT:?OnRender@CBar@UI@@MAEXXZ
	DD	FLAT:?OnUpdate@CWindow@UI@@UAEXXZ
	DD	FLAT:?OnChangePosition@CWindow@UI@@UAEXXZ
	DD	FLAT:?OnSetFocus@CWindow@UI@@UAEXXZ
	DD	FLAT:?OnKillFocus@CWindow@UI@@UAEXXZ
	DD	FLAT:?OnMouseDrag@CWindow@UI@@UAEXJJ@Z
	DD	FLAT:?OnMouseOverIn@CWindow@UI@@UAEXXZ
	DD	FLAT:?OnMouseOverOut@CWindow@UI@@UAEXXZ
	DD	FLAT:?OnMouseOver@CWindow@UI@@UAEXXZ
	DD	FLAT:?OnDrop@CWindow@UI@@UAEXXZ
	DD	FLAT:?OnTop@CWindow@UI@@UAEXXZ
	DD	FLAT:?OnIMEUpdate@CWindow@UI@@UAEXXZ
	DD	FLAT:?OnMoveWindow@CWindow@UI@@UAEXJJ@Z
	DD	FLAT:?OnIMETabEvent@CWindow@UI@@UAEHXZ
	DD	FLAT:?OnIMEReturnEvent@CWindow@UI@@UAEHXZ
	DD	FLAT:?OnIMEKeyDownEvent@CWindow@UI@@UAEHH@Z
	DD	FLAT:?OnIMEChangeCodePage@CWindow@UI@@UAEHXZ
	DD	FLAT:?OnIMEOpenCandidateListEvent@CWindow@UI@@UAEHXZ
	DD	FLAT:?OnIMECloseCandidateListEvent@CWindow@UI@@UAEHXZ
	DD	FLAT:?OnIMEOpenReadingWndEvent@CWindow@UI@@UAEHXZ
	DD	FLAT:?OnIMECloseReadingWndEvent@CWindow@UI@@UAEHXZ
	DD	FLAT:?OnMouseLeftButtonDown@CWindow@UI@@UAEHXZ
	DD	FLAT:?OnMouseLeftButtonUp@CWindow@UI@@UAEHXZ
	DD	FLAT:?OnMouseLeftButtonDoubleClick@CWindow@UI@@UAEHXZ
	DD	FLAT:?OnMouseRightButtonDown@CWindow@UI@@UAEHXZ
	DD	FLAT:?OnMouseRightButtonUp@CWindow@UI@@UAEHXZ
	DD	FLAT:?OnMouseRightButtonDoubleClick@CWindow@UI@@UAEHXZ
	DD	FLAT:?OnMouseMiddleButtonDown@CWindow@UI@@UAEHXZ
	DD	FLAT:?OnMouseMiddleButtonUp@CWindow@UI@@UAEHXZ
	DD	FLAT:?OnMouseWheelScroll@CWindow@UI@@UAEHF@Z
	DD	FLAT:?SetScrollable@CWindow@UI@@UAEXXZ
	DD	FLAT:?OnKeyDown@CWindow@UI@@UAEHH@Z
	DD	FLAT:?OnKeyUp@CWindow@UI@@UAEHH@Z
	DD	FLAT:?OnPressEscapeKey@CWindow@UI@@UAEHXZ
	DD	FLAT:?OnPressExitKey@CWindow@UI@@UAEHXZ
	DD	FLAT:?SetColor@CBar@UI@@UAEXK@Z
	DD	FLAT:?OnIsType@CWindow@UI@@UAEHK@Z
	DD	FLAT:?IsWindow@CWindow@UI@@UAEHXZ
CONST	ENDS
;	COMDAT ??_7CBox@UI@@6B@
CONST	SEGMENT
??_7CBox@UI@@6B@ DD FLAT:??_R4CBox@UI@@6B@		; UI::CBox::`vftable'
	DD	FLAT:??_ECBox@UI@@UAEPAXI@Z
	DD	FLAT:?OnRender@CBox@UI@@MAEXXZ
	DD	FLAT:?OnUpdate@CWindow@UI@@UAEXXZ
	DD	FLAT:?OnChangePosition@CWindow@UI@@UAEXXZ
	DD	FLAT:?OnSetFocus@CWindow@UI@@UAEXXZ
	DD	FLAT:?OnKillFocus@CWindow@UI@@UAEXXZ
	DD	FLAT:?OnMouseDrag@CWindow@UI@@UAEXJJ@Z
	DD	FLAT:?OnMouseOverIn@CWindow@UI@@UAEXXZ
	DD	FLAT:?OnMouseOverOut@CWindow@UI@@UAEXXZ
	DD	FLAT:?OnMouseOver@CWindow@UI@@UAEXXZ
	DD	FLAT:?OnDrop@CWindow@UI@@UAEXXZ
	DD	FLAT:?OnTop@CWindow@UI@@UAEXXZ
	DD	FLAT:?OnIMEUpdate@CWindow@UI@@UAEXXZ
	DD	FLAT:?OnMoveWindow@CWindow@UI@@UAEXJJ@Z
	DD	FLAT:?OnIMETabEvent@CWindow@UI@@UAEHXZ
	DD	FLAT:?OnIMEReturnEvent@CWindow@UI@@UAEHXZ
	DD	FLAT:?OnIMEKeyDownEvent@CWindow@UI@@UAEHH@Z
	DD	FLAT:?OnIMEChangeCodePage@CWindow@UI@@UAEHXZ
	DD	FLAT:?OnIMEOpenCandidateListEvent@CWindow@UI@@UAEHXZ
	DD	FLAT:?OnIMECloseCandidateListEvent@CWindow@UI@@UAEHXZ
	DD	FLAT:?OnIMEOpenReadingWndEvent@CWindow@UI@@UAEHXZ
	DD	FLAT:?OnIMECloseReadingWndEvent@CWindow@UI@@UAEHXZ
	DD	FLAT:?OnMouseLeftButtonDown@CWindow@UI@@UAEHXZ
	DD	FLAT:?OnMouseLeftButtonUp@CWindow@UI@@UAEHXZ
	DD	FLAT:?OnMouseLeftButtonDoubleClick@CWindow@UI@@UAEHXZ
	DD	FLAT:?OnMouseRightButtonDown@CWindow@UI@@UAEHXZ
	DD	FLAT:?OnMouseRightButtonUp@CWindow@UI@@UAEHXZ
	DD	FLAT:?OnMouseRightButtonDoubleClick@CWindow@UI@@UAEHXZ
	DD	FLAT:?OnMouseMiddleButtonDown@CWindow@UI@@UAEHXZ
	DD	FLAT:?OnMouseMiddleButtonUp@CWindow@UI@@UAEHXZ
	DD	FLAT:?OnMouseWheelScroll@CWindow@UI@@UAEHF@Z
	DD	FLAT:?SetScrollable@CWindow@UI@@UAEXXZ
	DD	FLAT:?OnKeyDown@CWindow@UI@@UAEHH@Z
	DD	FLAT:?OnKeyUp@CWindow@UI@@UAEHH@Z
	DD	FLAT:?OnPressEscapeKey@CWindow@UI@@UAEHXZ
	DD	FLAT:?OnPressExitKey@CWindow@UI@@UAEHXZ
	DD	FLAT:?SetColor@CBox@UI@@UAEXK@Z
	DD	FLAT:?OnIsType@CWindow@UI@@UAEHK@Z
	DD	FLAT:?IsWindow@CWindow@UI@@UAEHXZ
CONST	ENDS
;	COMDAT ??_7CWindow@UI@@6B@
CONST	SEGMENT
??_7CWindow@UI@@6B@ DD FLAT:??_R4CWindow@UI@@6B@	; UI::CWindow::`vftable'
	DD	FLAT:??_ECWindow@UI@@UAEPAXI@Z
	DD	FLAT:?OnRender@CWindow@UI@@UAEXXZ
	DD	FLAT:?OnUpdate@CWindow@UI@@UAEXXZ
	DD	FLAT:?OnChangePosition@CWindow@UI@@UAEXXZ
	DD	FLAT:?OnSetFocus@CWindow@UI@@UAEXXZ
	DD	FLAT:?OnKillFocus@CWindow@UI@@UAEXXZ
	DD	FLAT:?OnMouseDrag@CWindow@UI@@UAEXJJ@Z
	DD	FLAT:?OnMouseOverIn@CWindow@UI@@UAEXXZ
	DD	FLAT:?OnMouseOverOut@CWindow@UI@@UAEXXZ
	DD	FLAT:?OnMouseOver@CWindow@UI@@UAEXXZ
	DD	FLAT:?OnDrop@CWindow@UI@@UAEXXZ
	DD	FLAT:?OnTop@CWindow@UI@@UAEXXZ
	DD	FLAT:?OnIMEUpdate@CWindow@UI@@UAEXXZ
	DD	FLAT:?OnMoveWindow@CWindow@UI@@UAEXJJ@Z
	DD	FLAT:?OnIMETabEvent@CWindow@UI@@UAEHXZ
	DD	FLAT:?OnIMEReturnEvent@CWindow@UI@@UAEHXZ
	DD	FLAT:?OnIMEKeyDownEvent@CWindow@UI@@UAEHH@Z
	DD	FLAT:?OnIMEChangeCodePage@CWindow@UI@@UAEHXZ
	DD	FLAT:?OnIMEOpenCandidateListEvent@CWindow@UI@@UAEHXZ
	DD	FLAT:?OnIMECloseCandidateListEvent@CWindow@UI@@UAEHXZ
	DD	FLAT:?OnIMEOpenReadingWndEvent@CWindow@UI@@UAEHXZ
	DD	FLAT:?OnIMECloseReadingWndEvent@CWindow@UI@@UAEHXZ
	DD	FLAT:?OnMouseLeftButtonDown@CWindow@UI@@UAEHXZ
	DD	FLAT:?OnMouseLeftButtonUp@CWindow@UI@@UAEHXZ
	DD	FLAT:?OnMouseLeftButtonDoubleClick@CWindow@UI@@UAEHXZ
	DD	FLAT:?OnMouseRightButtonDown@CWindow@UI@@UAEHXZ
	DD	FLAT:?OnMouseRightButtonUp@CWindow@UI@@UAEHXZ
	DD	FLAT:?OnMouseRightButtonDoubleClick@CWindow@UI@@UAEHXZ
	DD	FLAT:?OnMouseMiddleButtonDown@CWindow@UI@@UAEHXZ
	DD	FLAT:?OnMouseMiddleButtonUp@CWindow@UI@@UAEHXZ
	DD	FLAT:?OnMouseWheelScroll@CWindow@UI@@UAEHF@Z
	DD	FLAT:?SetScrollable@CWindow@UI@@UAEXXZ
	DD	FLAT:?OnKeyDown@CWindow@UI@@UAEHH@Z
	DD	FLAT:?OnKeyUp@CWindow@UI@@UAEHH@Z
	DD	FLAT:?OnPressEscapeKey@CWindow@UI@@UAEHXZ
	DD	FLAT:?OnPressExitKey@CWindow@UI@@UAEHXZ
	DD	FLAT:?SetColor@CWindow@UI@@UAEXK@Z
	DD	FLAT:?OnIsType@CWindow@UI@@UAEHK@Z
	DD	FLAT:?IsWindow@CWindow@UI@@UAEHXZ
CONST	ENDS
;	COMDAT ??_R1A@?0A@EA@bad_array_new_length@std@@8
rdata$r	SEGMENT
??_R1A@?0A@EA@bad_array_new_length@std@@8 DD FLAT:??_R0?AVbad_array_new_length@std@@@8 ; std::bad_array_new_length::`RTTI Base Class Descriptor at (0,-1,0,64)'
	DD	02H
	DD	00H
	DD	0ffffffffH
	DD	00H
	DD	040H
	DD	FLAT:??_R3bad_array_new_length@std@@8
rdata$r	ENDS
;	COMDAT ??_R2bad_array_new_length@std@@8
rdata$r	SEGMENT
??_R2bad_array_new_length@std@@8 DD FLAT:??_R1A@?0A@EA@bad_array_new_length@std@@8 ; std::bad_array_new_length::`RTTI Base Class Array'
	DD	FLAT:??_R1A@?0A@EA@bad_alloc@std@@8
	DD	FLAT:??_R1A@?0A@EA@exception@std@@8
rdata$r	ENDS
;	COMDAT ??_R3bad_array_new_length@std@@8
rdata$r	SEGMENT
??_R3bad_array_new_length@std@@8 DD 00H			; std::bad_array_new_length::`RTTI Class Hierarchy Descriptor'
	DD	00H
	DD	03H
	DD	FLAT:??_R2bad_array_new_length@std@@8
rdata$r	ENDS
;	COMDAT ??_R4bad_array_new_length@std@@6B@
rdata$r	SEGMENT
??_R4bad_array_new_length@std@@6B@ DD 00H		; std::bad_array_new_length::`RTTI Complete Object Locator'
	DD	00H
	DD	00H
	DD	FLAT:??_R0?AVbad_array_new_length@std@@@8
	DD	FLAT:??_R3bad_array_new_length@std@@8
rdata$r	ENDS
;	COMDAT ??_R1A@?0A@EA@bad_alloc@std@@8
rdata$r	SEGMENT
??_R1A@?0A@EA@bad_alloc@std@@8 DD FLAT:??_R0?AVbad_alloc@std@@@8 ; std::bad_alloc::`RTTI Base Class Descriptor at (0,-1,0,64)'
	DD	01H
	DD	00H
	DD	0ffffffffH
	DD	00H
	DD	040H
	DD	FLAT:??_R3bad_alloc@std@@8
rdata$r	ENDS
;	COMDAT ??_R2bad_alloc@std@@8
rdata$r	SEGMENT
??_R2bad_alloc@std@@8 DD FLAT:??_R1A@?0A@EA@bad_alloc@std@@8 ; std::bad_alloc::`RTTI Base Class Array'
	DD	FLAT:??_R1A@?0A@EA@exception@std@@8
rdata$r	ENDS
;	COMDAT ??_R3bad_alloc@std@@8
rdata$r	SEGMENT
??_R3bad_alloc@std@@8 DD 00H				; std::bad_alloc::`RTTI Class Hierarchy Descriptor'
	DD	00H
	DD	02H
	DD	FLAT:??_R2bad_alloc@std@@8
rdata$r	ENDS
;	COMDAT ??_R4bad_alloc@std@@6B@
rdata$r	SEGMENT
??_R4bad_alloc@std@@6B@ DD 00H				; std::bad_alloc::`RTTI Complete Object Locator'
	DD	00H
	DD	00H
	DD	FLAT:??_R0?AVbad_alloc@std@@@8
	DD	FLAT:??_R3bad_alloc@std@@8
rdata$r	ENDS
;	COMDAT ??_R1A@?0A@EA@exception@std@@8
rdata$r	SEGMENT
??_R1A@?0A@EA@exception@std@@8 DD FLAT:??_R0?AVexception@std@@@8 ; std::exception::`RTTI Base Class Descriptor at (0,-1,0,64)'
	DD	00H
	DD	00H
	DD	0ffffffffH
	DD	00H
	DD	040H
	DD	FLAT:??_R3exception@std@@8
rdata$r	ENDS
;	COMDAT ??_R2exception@std@@8
rdata$r	SEGMENT
??_R2exception@std@@8 DD FLAT:??_R1A@?0A@EA@exception@std@@8 ; std::exception::`RTTI Base Class Array'
rdata$r	ENDS
;	COMDAT ??_R3exception@std@@8
rdata$r	SEGMENT
??_R3exception@std@@8 DD 00H				; std::exception::`RTTI Class Hierarchy Descriptor'
	DD	00H
	DD	01H
	DD	FLAT:??_R2exception@std@@8
rdata$r	ENDS
;	COMDAT ??_R4exception@std@@6B@
rdata$r	SEGMENT
??_R4exception@std@@6B@ DD 00H				; std::exception::`RTTI Complete Object Locator'
	DD	00H
	DD	00H
	DD	FLAT:??_R0?AVexception@std@@@8
	DD	FLAT:??_R3exception@std@@8
rdata$r	ENDS
;	COMDAT ??_C@_0BA@FOIKENOD@vector?5too?5long@
CONST	SEGMENT
??_C@_0BA@FOIKENOD@vector?5too?5long@ DB 'vector too long', 00H ; `string'
CONST	ENDS
;	COMDAT ??_C@_00CNPNBAHC@@
CONST	SEGMENT
??_C@_00CNPNBAHC@@ DB 00H				; `string'
CONST	ENDS
;	COMDAT ??_C@_0BA@JFNIOLAK@string?5too?5long@
CONST	SEGMENT
??_C@_0BA@JFNIOLAK@string?5too?5long@ DB 'string too long', 00H ; `string'
CONST	ENDS
;	COMDAT __CT??_R0?AVexception@std@@@8??0exception@std@@QAE@ABV01@@Z12
xdata$x	SEGMENT
__CT??_R0?AVexception@std@@@8??0exception@std@@QAE@ABV01@@Z12 DD 00H
	DD	FLAT:??_R0?AVexception@std@@@8
	DD	00H
	DD	0ffffffffH
	ORG $+4
	DD	0cH
	DD	FLAT:??0exception@std@@QAE@ABV01@@Z
xdata$x	ENDS
;	COMDAT ??_R0?AVexception@std@@@8
data$r	SEGMENT
??_R0?AVexception@std@@@8 DD FLAT:??_7type_info@@6B@	; std::exception `RTTI Type Descriptor'
	DD	00H
	DB	'.?AVexception@std@@', 00H
data$r	ENDS
;	COMDAT __CT??_R0?AVbad_alloc@std@@@8??0bad_alloc@std@@QAE@ABV01@@Z12
xdata$x	SEGMENT
__CT??_R0?AVbad_alloc@std@@@8??0bad_alloc@std@@QAE@ABV01@@Z12 DD 010H
	DD	FLAT:??_R0?AVbad_alloc@std@@@8
	DD	00H
	DD	0ffffffffH
	ORG $+4
	DD	0cH
	DD	FLAT:??0bad_alloc@std@@QAE@ABV01@@Z
xdata$x	ENDS
;	COMDAT ??_R0?AVbad_alloc@std@@@8
data$r	SEGMENT
??_R0?AVbad_alloc@std@@@8 DD FLAT:??_7type_info@@6B@	; std::bad_alloc `RTTI Type Descriptor'
	DD	00H
	DB	'.?AVbad_alloc@std@@', 00H
data$r	ENDS
;	COMDAT __CT??_R0?AVbad_array_new_length@std@@@8??0bad_array_new_length@std@@QAE@ABV01@@Z12
xdata$x	SEGMENT
__CT??_R0?AVbad_array_new_length@std@@@8??0bad_array_new_length@std@@QAE@ABV01@@Z12 DD 00H
	DD	FLAT:??_R0?AVbad_array_new_length@std@@@8
	DD	00H
	DD	0ffffffffH
	ORG $+4
	DD	0cH
	DD	FLAT:??0bad_array_new_length@std@@QAE@ABV01@@Z
xdata$x	ENDS
;	COMDAT ??_R0?AVbad_array_new_length@std@@@8
data$r	SEGMENT
??_R0?AVbad_array_new_length@std@@@8 DD FLAT:??_7type_info@@6B@ ; std::bad_array_new_length `RTTI Type Descriptor'
	DD	00H
	DB	'.?AVbad_array_new_length@std@@', 00H
data$r	ENDS
;	COMDAT __CTA3?AVbad_array_new_length@std@@
xdata$x	SEGMENT
__CTA3?AVbad_array_new_length@std@@ DD 03H
	DD	FLAT:__CT??_R0?AVbad_array_new_length@std@@@8??0bad_array_new_length@std@@QAE@ABV01@@Z12
	DD	FLAT:__CT??_R0?AVbad_alloc@std@@@8??0bad_alloc@std@@QAE@ABV01@@Z12
	DD	FLAT:__CT??_R0?AVexception@std@@@8??0exception@std@@QAE@ABV01@@Z12
xdata$x	ENDS
;	COMDAT __TI3?AVbad_array_new_length@std@@
xdata$x	SEGMENT
__TI3?AVbad_array_new_length@std@@ DD 00H
	DD	FLAT:??1bad_array_new_length@std@@UAE@XZ
	DD	00H
	DD	FLAT:__CTA3?AVbad_array_new_length@std@@
xdata$x	ENDS
;	COMDAT ??_C@_0BF@KINCDENJ@bad?5array?5new?5length@
CONST	SEGMENT
??_C@_0BF@KINCDENJ@bad?5array?5new?5length@ DB 'bad array new length', 00H ; `string'
CONST	ENDS
;	COMDAT ??_7bad_array_new_length@std@@6B@
CONST	SEGMENT
??_7bad_array_new_length@std@@6B@ DD FLAT:??_R4bad_array_new_length@std@@6B@ ; std::bad_array_new_length::`vftable'
	DD	FLAT:??_Ebad_array_new_length@std@@UAEPAXI@Z
	DD	FLAT:?what@exception@std@@UBEPBDXZ
CONST	ENDS
;	COMDAT ??_7bad_alloc@std@@6B@
CONST	SEGMENT
??_7bad_alloc@std@@6B@ DD FLAT:??_R4bad_alloc@std@@6B@	; std::bad_alloc::`vftable'
	DD	FLAT:??_Ebad_alloc@std@@UAEPAXI@Z
	DD	FLAT:?what@exception@std@@UBEPBDXZ
CONST	ENDS
;	COMDAT ??_C@_0BC@EOODALEL@Unknown?5exception@
CONST	SEGMENT
??_C@_0BC@EOODALEL@Unknown?5exception@ DB 'Unknown exception', 00H ; `string'
CONST	ENDS
;	COMDAT ??_7exception@std@@6B@
CONST	SEGMENT
??_7exception@std@@6B@ DD FLAT:??_R4exception@std@@6B@	; std::exception::`vftable'
	DD	FLAT:??_Eexception@std@@UAEPAXI@Z
	DD	FLAT:?what@exception@std@@UBEPBDXZ
CONST	ENDS
;	COMDAT xdata$x
xdata$x	SEGMENT
__unwindtable$??$?0ABQAVCWindow@UI@@@?$_List_node_emplace_op2@V?$allocator@U?$_List_node@PAVCWindow@UI@@PAX@std@@@std@@@std@@QAE@AAV?$allocator@U?$_List_node@PAVCWindow@UI@@PAX@std@@@1@ABQAVCWindow@UI@@@Z DD 0ffffffffH
	DD	FLAT:__unwindfunclet$??$?0ABQAVCWindow@UI@@@?$_List_node_emplace_op2@V?$allocator@U?$_List_node@PAVCWindow@UI@@PAX@std@@@std@@@std@@QAE@AAV?$allocator@U?$_List_node@PAVCWindow@UI@@PAX@std@@@1@ABQAVCWindow@UI@@@Z$0
__ehfuncinfo$??$?0ABQAVCWindow@UI@@@?$_List_node_emplace_op2@V?$allocator@U?$_List_node@PAVCWindow@UI@@PAX@std@@@std@@@std@@QAE@AAV?$allocator@U?$_List_node@PAVCWindow@UI@@PAX@std@@@1@ABQAVCWindow@UI@@@Z DD 019930522H
	DD	01H
	DD	FLAT:__unwindtable$??$?0ABQAVCWindow@UI@@@?$_List_node_emplace_op2@V?$allocator@U?$_List_node@PAVCWindow@UI@@PAX@std@@@std@@@std@@QAE@AAV?$allocator@U?$_List_node@PAVCWindow@UI@@PAX@std@@@1@ABQAVCWindow@UI@@@Z
	DD	2 DUP(00H)
	DD	2 DUP(00H)
	DD	00H
	DD	01H
xdata$x	ENDS
;	COMDAT xdata$x
xdata$x	SEGMENT
__unwindtable$??$_Emplace@ABQAVCWindow@UI@@@?$list@PAVCWindow@UI@@V?$allocator@PAVCWindow@UI@@@std@@@std@@QAEPAU?$_List_node@PAVCWindow@UI@@PAX@1@QAU21@ABQAVCWindow@UI@@@Z DD 0ffffffffH
	DD	FLAT:__unwindfunclet$??$_Emplace@ABQAVCWindow@UI@@@?$list@PAVCWindow@UI@@V?$allocator@PAVCWindow@UI@@@std@@@std@@QAEPAU?$_List_node@PAVCWindow@UI@@PAX@1@QAU21@ABQAVCWindow@UI@@@Z$1
__ehfuncinfo$??$_Emplace@ABQAVCWindow@UI@@@?$list@PAVCWindow@UI@@V?$allocator@PAVCWindow@UI@@@std@@@std@@QAEPAU?$_List_node@PAVCWindow@UI@@PAX@1@QAU21@ABQAVCWindow@UI@@@Z DD 019930522H
	DD	01H
	DD	FLAT:__unwindtable$??$_Emplace@ABQAVCWindow@UI@@@?$list@PAVCWindow@UI@@V?$allocator@PAVCWindow@UI@@@std@@@std@@QAEPAU?$_List_node@PAVCWindow@UI@@PAX@1@QAU21@ABQAVCWindow@UI@@@Z
	DD	2 DUP(00H)
	DD	2 DUP(00H)
	DD	00H
	DD	01H
xdata$x	ENDS
;	COMDAT xdata$x
xdata$x	SEGMENT
__unwindtable$??0CButton@UI@@QAE@PAU_object@@@Z DD 0ffffffffH
	DD	FLAT:__unwindfunclet$??0CButton@UI@@QAE@PAU_object@@@Z$0
	DD	00H
	DD	FLAT:__unwindfunclet$??0CButton@UI@@QAE@PAU_object@@@Z$1
	DD	01H
	DD	FLAT:__unwindfunclet$??0CButton@UI@@QAE@PAU_object@@@Z$2
	DD	02H
	DD	FLAT:__unwindfunclet$??0CButton@UI@@QAE@PAU_object@@@Z$3
__ehfuncinfo$??0CButton@UI@@QAE@PAU_object@@@Z DD 019930522H
	DD	04H
	DD	FLAT:__unwindtable$??0CButton@UI@@QAE@PAU_object@@@Z
	DD	2 DUP(00H)
	DD	2 DUP(00H)
	DD	00H
	DD	01H
xdata$x	ENDS
;	COMDAT xdata$x
xdata$x	SEGMENT
__ehfuncinfo$??1CAniImageBox@UI@@UAE@XZ DD 019930522H
	DD	00H
	DD	00H
	DD	2 DUP(00H)
	DD	2 DUP(00H)
	DD	00H
	DD	05H
xdata$x	ENDS
;	COMDAT xdata$x
xdata$x	SEGMENT
__unwindtable$?Type@CAniImageBox@UI@@SAKXZ DD 0ffffffffH
	DD	FLAT:__unwindfunclet$?Type@CAniImageBox@UI@@SAKXZ$0
__ehfuncinfo$?Type@CAniImageBox@UI@@SAKXZ DD 019930522H
	DD	01H
	DD	FLAT:__unwindtable$?Type@CAniImageBox@UI@@SAKXZ
	DD	2 DUP(00H)
	DD	2 DUP(00H)
	DD	00H
	DD	01H
xdata$x	ENDS
;	COMDAT xdata$x
xdata$x	SEGMENT
__ehfuncinfo$??1CExpandedImageBox@UI@@UAE@XZ DD 019930522H
	DD	00H
	DD	00H
	DD	2 DUP(00H)
	DD	2 DUP(00H)
	DD	00H
	DD	05H
xdata$x	ENDS
;	COMDAT xdata$x
xdata$x	SEGMENT
__unwindtable$?Type@CExpandedImageBox@UI@@SAKXZ DD 0ffffffffH
	DD	FLAT:__unwindfunclet$?Type@CExpandedImageBox@UI@@SAKXZ$0
__ehfuncinfo$?Type@CExpandedImageBox@UI@@SAKXZ DD 019930522H
	DD	01H
	DD	FLAT:__unwindtable$?Type@CExpandedImageBox@UI@@SAKXZ
	DD	2 DUP(00H)
	DD	2 DUP(00H)
	DD	00H
	DD	01H
xdata$x	ENDS
;	COMDAT xdata$x
xdata$x	SEGMENT
__ehfuncinfo$??1CMarkBox@UI@@UAE@XZ DD 019930522H
	DD	00H
	DD	00H
	DD	2 DUP(00H)
	DD	2 DUP(00H)
	DD	00H
	DD	05H
xdata$x	ENDS
;	COMDAT xdata$x
xdata$x	SEGMENT
__ehfuncinfo$??1CImageBox@UI@@UAE@XZ DD 019930522H
	DD	00H
	DD	00H
	DD	2 DUP(00H)
	DD	2 DUP(00H)
	DD	00H
	DD	05H
xdata$x	ENDS
;	COMDAT xdata$x
xdata$x	SEGMENT
__unwindtable$?SetNumber@CNumberLine@UI@@QAEXPBD@Z DD 0ffffffffH
	DD	FLAT:__unwindfunclet$?SetNumber@CNumberLine@UI@@QAEXPBD@Z$0
__ehfuncinfo$?SetNumber@CNumberLine@UI@@QAEXPBD@Z DD 019930522H
	DD	01H
	DD	FLAT:__unwindtable$?SetNumber@CNumberLine@UI@@QAEXPBD@Z
	DD	2 DUP(00H)
	DD	2 DUP(00H)
	DD	00H
	DD	01H
xdata$x	ENDS
;	COMDAT xdata$x
xdata$x	SEGMENT
__ehfuncinfo$??1CNumberLine@UI@@UAE@XZ DD 019930522H
	DD	00H
	DD	00H
	DD	2 DUP(00H)
	DD	2 DUP(00H)
	DD	00H
	DD	05H
xdata$x	ENDS
;	COMDAT xdata$x
xdata$x	SEGMENT
__unwindtable$??0CNumberLine@UI@@QAE@PAVCWindow@1@@Z DD 0ffffffffH
	DD	FLAT:__unwindfunclet$??0CNumberLine@UI@@QAE@PAVCWindow@1@@Z$0
	DD	00H
	DD	FLAT:__unwindfunclet$??0CNumberLine@UI@@QAE@PAVCWindow@1@@Z$1
	DD	01H
	DD	FLAT:__unwindfunclet$??0CNumberLine@UI@@QAE@PAVCWindow@1@@Z$2
	DD	02H
	DD	FLAT:__unwindfunclet$??0CNumberLine@UI@@QAE@PAVCWindow@1@@Z$3
__ehfuncinfo$??0CNumberLine@UI@@QAE@PAVCWindow@1@@Z DD 019930522H
	DD	04H
	DD	FLAT:__unwindtable$??0CNumberLine@UI@@QAE@PAVCWindow@1@@Z
	DD	2 DUP(00H)
	DD	2 DUP(00H)
	DD	00H
	DD	01H
xdata$x	ENDS
;	COMDAT xdata$x
xdata$x	SEGMENT
__unwindtable$??0CNumberLine@UI@@QAE@PAU_object@@@Z DD 0ffffffffH
	DD	FLAT:__unwindfunclet$??0CNumberLine@UI@@QAE@PAU_object@@@Z$0
	DD	00H
	DD	FLAT:__unwindfunclet$??0CNumberLine@UI@@QAE@PAU_object@@@Z$1
	DD	01H
	DD	FLAT:__unwindfunclet$??0CNumberLine@UI@@QAE@PAU_object@@@Z$2
	DD	02H
	DD	FLAT:__unwindfunclet$??0CNumberLine@UI@@QAE@PAU_object@@@Z$3
__ehfuncinfo$??0CNumberLine@UI@@QAE@PAU_object@@@Z DD 019930522H
	DD	04H
	DD	FLAT:__unwindtable$??0CNumberLine@UI@@QAE@PAU_object@@@Z
	DD	2 DUP(00H)
	DD	2 DUP(00H)
	DD	00H
	DD	01H
xdata$x	ENDS
;	COMDAT xdata$x
xdata$x	SEGMENT
__unwindtable$?SetFontName@CTextLine@UI@@QAEXPBD@Z DD 0ffffffffH
	DD	FLAT:__unwindfunclet$?SetFontName@CTextLine@UI@@QAEXPBD@Z$0
__ehfuncinfo$?SetFontName@CTextLine@UI@@QAEXPBD@Z DD 019930522H
	DD	01H
	DD	FLAT:__unwindtable$?SetFontName@CTextLine@UI@@QAEXPBD@Z
	DD	2 DUP(00H)
	DD	2 DUP(00H)
	DD	00H
	DD	01H
xdata$x	ENDS
;	COMDAT xdata$x
xdata$x	SEGMENT
__ehfuncinfo$??1CTextLine@UI@@UAE@XZ DD 019930522H
	DD	00H
	DD	00H
	DD	2 DUP(00H)
	DD	2 DUP(00H)
	DD	00H
	DD	05H
xdata$x	ENDS
;	COMDAT xdata$x
xdata$x	SEGMENT
__unwindtable$??0CTextLine@UI@@QAE@PAU_object@@@Z DD 0ffffffffH
	DD	FLAT:__unwindfunclet$??0CTextLine@UI@@QAE@PAU_object@@@Z$0
	DD	00H
	DD	FLAT:__unwindfunclet$??0CTextLine@UI@@QAE@PAU_object@@@Z$1
__ehfuncinfo$??0CTextLine@UI@@QAE@PAU_object@@@Z DD 019930522H
	DD	02H
	DD	FLAT:__unwindtable$??0CTextLine@UI@@QAE@PAU_object@@@Z
	DD	2 DUP(00H)
	DD	2 DUP(00H)
	DD	00H
	DD	01H
xdata$x	ENDS
;	COMDAT xdata$x
xdata$x	SEGMENT
__unwindtable$?Type@CBar3D@UI@@SAKXZ DD 0ffffffffH
	DD	FLAT:__unwindfunclet$?Type@CBar3D@UI@@SAKXZ$0
__ehfuncinfo$?Type@CBar3D@UI@@SAKXZ DD 019930522H
	DD	01H
	DD	FLAT:__unwindtable$?Type@CBar3D@UI@@SAKXZ
	DD	2 DUP(00H)
	DD	2 DUP(00H)
	DD	00H
	DD	01H
xdata$x	ENDS
;	COMDAT xdata$x
xdata$x	SEGMENT
__unwindtable$??0CWindow@UI@@QAE@PAU_object@@@Z DD 0ffffffffH
	DD	FLAT:__unwindfunclet$??0CWindow@UI@@QAE@PAU_object@@@Z$0
	DD	00H
	DD	FLAT:__unwindfunclet$??0CWindow@UI@@QAE@PAU_object@@@Z$1
__ehfuncinfo$??0CWindow@UI@@QAE@PAU_object@@@Z DD 019930522H
	DD	02H
	DD	FLAT:__unwindtable$??0CWindow@UI@@QAE@PAU_object@@@Z
	DD	2 DUP(00H)
	DD	2 DUP(00H)
	DD	00H
	DD	01H
xdata$x	ENDS
;	COMDAT xdata$x
xdata$x	SEGMENT
__unwindtable$?Type@CWindow@UI@@SAKXZ DD 0ffffffffH
	DD	FLAT:__unwindfunclet$?Type@CWindow@UI@@SAKXZ$0
__ehfuncinfo$?Type@CWindow@UI@@SAKXZ DD 019930522H
	DD	01H
	DD	FLAT:__unwindtable$?Type@CWindow@UI@@SAKXZ
	DD	2 DUP(00H)
	DD	2 DUP(00H)
	DD	00H
	DD	01H
xdata$x	ENDS
;	COMDAT xdata$x
xdata$x	SEGMENT
__unwindtable$?push_back@?$list@PAVCWindow@UI@@V?$allocator@PAVCWindow@UI@@@std@@@std@@QAEXABQAVCWindow@UI@@@Z DD 0ffffffffH
	DD	FLAT:__unwindfunclet$?push_back@?$list@PAVCWindow@UI@@V?$allocator@PAVCWindow@UI@@@std@@@std@@QAEXABQAVCWindow@UI@@@Z$1
__ehfuncinfo$?push_back@?$list@PAVCWindow@UI@@V?$allocator@PAVCWindow@UI@@@std@@@std@@QAEXABQAVCWindow@UI@@@Z DD 019930522H
	DD	01H
	DD	FLAT:__unwindtable$?push_back@?$list@PAVCWindow@UI@@V?$allocator@PAVCWindow@UI@@@std@@@std@@QAEXABQAVCWindow@UI@@@Z
	DD	2 DUP(00H)
	DD	2 DUP(00H)
	DD	00H
	DD	01H
xdata$x	ENDS
; Function compile flags: /Ogtp
; File C:\Program Files\Microsoft Visual Studio\2022\Community\VC\Tools\MSVC\14.37.32822\include\xutility
;	COMDAT ??$_Copy_memmove@PAPAVCGraphicImageInstance@@PAPAV1@@std@@YAPAPAVCGraphicImageInstance@@PAPAV1@00@Z
_TEXT	SEGMENT
__First$ = 8						; size = 4
__Last$ = 12						; size = 4
__Dest$ = 16						; size = 4
??$_Copy_memmove@PAPAVCGraphicImageInstance@@PAPAV1@@std@@YAPAPAVCGraphicImageInstance@@PAPAV1@00@Z PROC ; std::_Copy_memmove<CGraphicImageInstance * *,CGraphicImageInstance * *>, COMDAT

; 4526 : _OutCtgIt _Copy_memmove(_CtgIt _First, _CtgIt _Last, _OutCtgIt _Dest) {

  00000	55		 push	 ebp
  00001	8b ec		 mov	 ebp, esp

; 4527 :     auto _FirstPtr              = _To_address(_First);
; 4528 :     auto _LastPtr               = _To_address(_Last);
; 4529 :     auto _DestPtr               = _To_address(_Dest);
; 4530 :     const char* const _First_ch = const_cast<const char*>(reinterpret_cast<const volatile char*>(_FirstPtr));
; 4531 :     const char* const _Last_ch  = const_cast<const char*>(reinterpret_cast<const volatile char*>(_LastPtr));
; 4532 :     char* const _Dest_ch        = const_cast<char*>(reinterpret_cast<const volatile char*>(_DestPtr));
; 4533 :     const auto _Count           = static_cast<size_t>(_Last_ch - _First_ch);

  00003	8b 45 08	 mov	 eax, DWORD PTR __First$[ebp]
  00006	56		 push	 esi

; 4534 :     _CSTD memmove(_Dest_ch, _First_ch, _Count);

  00007	8b 75 10	 mov	 esi, DWORD PTR __Dest$[ebp]
  0000a	57		 push	 edi
  0000b	8b 7d 0c	 mov	 edi, DWORD PTR __Last$[ebp]
  0000e	2b f8		 sub	 edi, eax
  00010	57		 push	 edi
  00011	50		 push	 eax
  00012	56		 push	 esi
  00013	e8 00 00 00 00	 call	 _memmove
  00018	83 c4 0c	 add	 esp, 12			; 0000000cH

; 4535 :     if constexpr (is_pointer_v<_OutCtgIt>) {
; 4536 :         return reinterpret_cast<_OutCtgIt>(_Dest_ch + _Count);

  0001b	8d 04 37	 lea	 eax, DWORD PTR [edi+esi]
  0001e	5f		 pop	 edi
  0001f	5e		 pop	 esi

; 4537 :     } else {
; 4538 :         return _Dest + (_LastPtr - _FirstPtr);
; 4539 :     }
; 4540 : }

  00020	5d		 pop	 ebp
  00021	c3		 ret	 0
??$_Copy_memmove@PAPAVCGraphicImageInstance@@PAPAV1@@std@@YAPAPAVCGraphicImageInstance@@PAPAV1@00@Z ENDP ; std::_Copy_memmove<CGraphicImageInstance * *,CGraphicImageInstance * *>
_TEXT	ENDS
; Function compile flags: /Ogtp
; File C:\Program Files\Microsoft Visual Studio\2022\Community\VC\Tools\MSVC\14.37.32822\include\xmemory
;	COMDAT ??1?$_Alloc_construct_ptr@V?$allocator@U?$_List_node@PAVCWindow@UI@@PAX@std@@@std@@@std@@QAE@XZ
_TEXT	SEGMENT
??1?$_Alloc_construct_ptr@V?$allocator@U?$_List_node@PAVCWindow@UI@@PAX@std@@@std@@@std@@QAE@XZ PROC ; std::_Alloc_construct_ptr<std::allocator<std::_List_node<UI::CWindow *,void *> > >::~_Alloc_construct_ptr<std::allocator<std::_List_node<UI::CWindow *,void *> > >, COMDAT
; _this$ = ecx

; 1156 :         if (_Ptr) {

  00000	8b 41 04	 mov	 eax, DWORD PTR [ecx+4]
  00003	85 c0		 test	 eax, eax
  00005	74 0b		 je	 SHORT $LN8@Alloc_cons

; 265  :         ::operator delete(_Ptr, _Bytes);

  00007	6a 0c		 push	 12			; 0000000cH
  00009	50		 push	 eax
  0000a	e8 00 00 00 00	 call	 ??3@YAXPAXI@Z		; operator delete
  0000f	83 c4 08	 add	 esp, 8
$LN8@Alloc_cons:

; 1157 :             _Al.deallocate(_Ptr, 1);
; 1158 :         }
; 1159 :     }

  00012	c3		 ret	 0
??1?$_Alloc_construct_ptr@V?$allocator@U?$_List_node@PAVCWindow@UI@@PAX@std@@@std@@@std@@QAE@XZ ENDP ; std::_Alloc_construct_ptr<std::allocator<std::_List_node<UI::CWindow *,void *> > >::~_Alloc_construct_ptr<std::allocator<std::_List_node<UI::CWindow *,void *> > >
_TEXT	ENDS
; Function compile flags: /Ogtp
; File C:\Program Files\Microsoft Visual Studio\2022\Community\VC\Tools\MSVC\14.37.32822\include\vector
; File C:\Program Files\Microsoft Visual Studio\2022\Community\VC\Tools\MSVC\14.37.32822\include\xmemory
; File C:\Program Files\Microsoft Visual Studio\2022\Community\VC\Tools\MSVC\14.37.32822\include\vector
; File C:\Program Files\Microsoft Visual Studio\2022\Community\VC\Tools\MSVC\14.37.32822\include\xmemory
; File C:\Program Files\Microsoft Visual Studio\2022\Community\VC\Tools\MSVC\14.37.32822\include\vector
; File C:\Program Files\Microsoft Visual Studio\2022\Community\VC\Tools\MSVC\14.37.32822\include\xmemory
; File C:\Program Files\Microsoft Visual Studio\2022\Community\VC\Tools\MSVC\14.37.32822\include\vector
; File C:\Program Files\Microsoft Visual Studio\2022\Community\VC\Tools\MSVC\14.37.32822\include\xmemory
; File C:\Program Files\Microsoft Visual Studio\2022\Community\VC\Tools\MSVC\14.37.32822\include\vector
; File C:\Program Files\Microsoft Visual Studio\2022\Community\VC\Tools\MSVC\14.37.32822\include\xmemory
; File C:\Program Files\Microsoft Visual Studio\2022\Community\VC\Tools\MSVC\14.37.32822\include\vector
; File C:\Program Files\Microsoft Visual Studio\2022\Community\VC\Tools\MSVC\14.37.32822\include\xmemory
; File C:\Program Files\Microsoft Visual Studio\2022\Community\VC\Tools\MSVC\14.37.32822\include\vector
; File C:\Program Files\Microsoft Visual Studio\2022\Community\VC\Tools\MSVC\14.37.32822\include\xmemory
; File C:\Program Files\Microsoft Visual Studio\2022\Community\VC\Tools\MSVC\14.37.32822\include\vector
; File C:\Program Files\Microsoft Visual Studio\2022\Community\VC\Tools\MSVC\14.37.32822\include\xmemory
; File C:\Program Files\Microsoft Visual Studio\2022\Community\VC\Tools\MSVC\14.37.32822\include\vector
; File C:\Program Files\Microsoft Visual Studio\2022\Community\VC\Tools\MSVC\14.37.32822\include\xmemory
; File C:\Program Files\Microsoft Visual Studio\2022\Community\VC\Tools\MSVC\14.37.32822\include\vector
;	COMDAT ??$_Emplace_reallocate@ABQAVCGraphicImageInstance@@@?$vector@PAVCGraphicImageInstance@@V?$allocator@PAVCGraphicImageInstance@@@std@@@std@@AAEPAPAVCGraphicImageInstance@@QAPAV2@ABQAV2@@Z
_TEXT	SEGMENT
__Newsize$1$ = -12					; size = 4
tv607 = -8						; size = 4
tv590 = -4						; size = 4
__Whereptr$ = 8						; size = 4
_<_Val_0>$ = 12						; size = 4
??$_Emplace_reallocate@ABQAVCGraphicImageInstance@@@?$vector@PAVCGraphicImageInstance@@V?$allocator@PAVCGraphicImageInstance@@@std@@@std@@AAEPAPAVCGraphicImageInstance@@QAPAV2@ABQAV2@@Z PROC ; std::vector<CGraphicImageInstance *,std::allocator<CGraphicImageInstance *> >::_Emplace_reallocate<CGraphicImageInstance * const &>, COMDAT
; _this$ = ecx

; 812  :     _CONSTEXPR20 pointer _Emplace_reallocate(const pointer _Whereptr, _Valty&&... _Val) {

  00000	55		 push	 ebp
  00001	8b ec		 mov	 ebp, esp
  00003	83 ec 0c	 sub	 esp, 12			; 0000000cH
  00006	53		 push	 ebx

; 813  :         // reallocate and insert by perfectly forwarding _Val at _Whereptr
; 814  :         _Alty& _Al        = _Getal();
; 815  :         auto& _My_data    = _Mypair._Myval2;
; 816  :         pointer& _Myfirst = _My_data._Myfirst;
; 817  :         pointer& _Mylast  = _My_data._Mylast;
; 818  : 
; 819  :         _STL_INTERNAL_CHECK(_Mylast == _My_data._Myend); // check that we have no unused capacity
; 820  : 
; 821  :         const auto _Whereoff = static_cast<size_type>(_Whereptr - _Myfirst);

  00007	8b 5d 08	 mov	 ebx, DWORD PTR __Whereptr$[ebp]
  0000a	56		 push	 esi
  0000b	8b f1		 mov	 esi, ecx
  0000d	57		 push	 edi
  0000e	8b 0e		 mov	 ecx, DWORD PTR [esi]
  00010	2b d9		 sub	 ebx, ecx

; 822  :         const auto _Oldsize  = static_cast<size_type>(_Mylast - _Myfirst);

  00012	8b 46 04	 mov	 eax, DWORD PTR [esi+4]
  00015	2b c1		 sub	 eax, ecx
  00017	c1 fb 02	 sar	 ebx, 2
  0001a	c1 f8 02	 sar	 eax, 2

; 823  : 
; 824  :         if (_Oldsize == max_size()) {

  0001d	3d ff ff ff 3f	 cmp	 eax, 1073741823		; 3fffffffH
  00022	0f 84 0f 01 00
	00		 je	 $LN96@Emplace_re

; 1879 :         return static_cast<size_type>(_My_data._Myend - _My_data._Myfirst);

  00028	8b 56 08	 mov	 edx, DWORD PTR [esi+8]

; 826  :         }
; 827  : 
; 828  :         const size_type _Newsize     = _Oldsize + 1;

  0002b	8d 78 01	 lea	 edi, DWORD PTR [eax+1]

; 1879 :         return static_cast<size_type>(_My_data._Myend - _My_data._Myfirst);

  0002e	2b d1		 sub	 edx, ecx

; 826  :         }
; 827  : 
; 828  :         const size_type _Newsize     = _Oldsize + 1;

  00030	89 7d f4	 mov	 DWORD PTR __Newsize$1$[ebp], edi

; 1879 :         return static_cast<size_type>(_My_data._Myend - _My_data._Myfirst);

  00033	c1 fa 02	 sar	 edx, 2

; 1966 :         if (_Oldcapacity > _Max - _Oldcapacity / 2) {

  00036	b8 ff ff ff 3f	 mov	 eax, 1073741823		; 3fffffffH
  0003b	8b ca		 mov	 ecx, edx
  0003d	d1 e9		 shr	 ecx, 1
  0003f	2b c1		 sub	 eax, ecx
  00041	3b d0		 cmp	 edx, eax
  00043	76 15		 jbe	 SHORT $LN12@Emplace_re

; 1967 :             return _Max; // geometric growth would overflow

  00045	b8 fc ff ff ff	 mov	 eax, -4			; fffffffcH
; File C:\Program Files\Microsoft Visual Studio\2022\Community\VC\Tools\MSVC\14.37.32822\include\xmemory

; 239  :             return _Allocate_manually_vector_aligned<_Traits>(_Bytes);

  0004a	50		 push	 eax
; File C:\Program Files\Microsoft Visual Studio\2022\Community\VC\Tools\MSVC\14.37.32822\include\vector

; 1967 :             return _Max; // geometric growth would overflow

  0004b	89 45 f8	 mov	 DWORD PTR tv607[ebp], eax
; File C:\Program Files\Microsoft Visual Studio\2022\Community\VC\Tools\MSVC\14.37.32822\include\xmemory

; 239  :             return _Allocate_manually_vector_aligned<_Traits>(_Bytes);

  0004e	e8 00 00 00 00	 call	 ??$_Allocate_manually_vector_aligned@U_Default_allocate_traits@std@@@std@@YAPAXI@Z ; std::_Allocate_manually_vector_aligned<std::_Default_allocate_traits>
  00053	83 c4 04	 add	 esp, 4
  00056	8b f8		 mov	 edi, eax
  00058	eb 47		 jmp	 SHORT $LN23@Emplace_re
$LN12@Emplace_re:
; File C:\Program Files\Microsoft Visual Studio\2022\Community\VC\Tools\MSVC\14.37.32822\include\vector

; 1970 :         const size_type _Geometric = _Oldcapacity + _Oldcapacity / 2;

  0005a	8d 04 11	 lea	 eax, DWORD PTR [ecx+edx]
; File C:\Program Files\Microsoft Visual Studio\2022\Community\VC\Tools\MSVC\14.37.32822\include\xmemory

; 70   :         if (_Count > _Max_possible) {

  0005d	8b cf		 mov	 ecx, edi
  0005f	3b c7		 cmp	 eax, edi
  00061	0f 43 c8	 cmovae	 ecx, eax
  00064	81 f9 ff ff ff
	3f		 cmp	 ecx, 1073741823		; 3fffffffH
  0006a	0f 87 cc 00 00
	00		 ja	 $LN97@Emplace_re

; 72   :         }
; 73   :     }
; 74   : 
; 75   :     return _Count * _Ty_size;

  00070	8d 04 8d 00 00
	00 00		 lea	 eax, DWORD PTR [ecx*4]
  00077	89 45 f8	 mov	 DWORD PTR tv607[ebp], eax

; 238  :         if (_Bytes >= _Big_allocation_threshold) { // boost the alignment of big allocations to help autovectorization

  0007a	3d 00 10 00 00	 cmp	 eax, 4096		; 00001000H
  0007f	72 0d		 jb	 SHORT $LN24@Emplace_re

; 239  :             return _Allocate_manually_vector_aligned<_Traits>(_Bytes);

  00081	50		 push	 eax
  00082	e8 00 00 00 00	 call	 ??$_Allocate_manually_vector_aligned@U_Default_allocate_traits@std@@@std@@YAPAXI@Z ; std::_Allocate_manually_vector_aligned<std::_Default_allocate_traits>
  00087	83 c4 04	 add	 esp, 4
  0008a	8b f8		 mov	 edi, eax
  0008c	eb 13		 jmp	 SHORT $LN23@Emplace_re
$LN24@Emplace_re:

; 240  :         }
; 241  :     }
; 242  : #endif // defined(_M_IX86) || defined(_M_X64)
; 243  : 
; 244  :     if (_Bytes != 0) {

  0008e	85 c0		 test	 eax, eax
  00090	74 0d		 je	 SHORT $LN25@Emplace_re

; 87   :         return ::operator new(_Bytes);

  00092	50		 push	 eax
  00093	e8 00 00 00 00	 call	 ??2@YAPAXI@Z		; operator new
  00098	83 c4 04	 add	 esp, 4

; 245  :         return _Traits::_Allocate(_Bytes);

  0009b	8b f8		 mov	 edi, eax
  0009d	eb 02		 jmp	 SHORT $LN23@Emplace_re
$LN25@Emplace_re:

; 246  :     }
; 247  : 
; 248  :     return nullptr;

  0009f	33 ff		 xor	 edi, edi
$LN23@Emplace_re:
; File C:\Program Files\Microsoft Visual Studio\2022\Community\VC\Tools\MSVC\14.37.32822\include\vector

; 836  :         _Alty_traits::construct(_Al, _Unfancy(_Newvec + _Whereoff), _STD forward<_Valty>(_Val)...);

  000a1	8b 45 0c	 mov	 eax, DWORD PTR _<_Val_0>$[ebp]
  000a4	8d 0c 9f	 lea	 ecx, DWORD PTR [edi+ebx*4]

; 837  :         _Constructed_first = _Newvec + _Whereoff;
; 838  : 
; 839  :         if (_Whereptr == _Mylast) { // at back, provide strong guarantee

  000a7	8b 5d 08	 mov	 ebx, DWORD PTR __Whereptr$[ebp]
  000aa	89 4d fc	 mov	 DWORD PTR tv590[ebp], ecx
  000ad	8b 00		 mov	 eax, DWORD PTR [eax]
  000af	89 01		 mov	 DWORD PTR [ecx], eax
  000b1	8b 46 04	 mov	 eax, DWORD PTR [esi+4]
  000b4	8b 0e		 mov	 ecx, DWORD PTR [esi]
  000b6	3b d8		 cmp	 ebx, eax
  000b8	75 07		 jne	 SHORT $LN4@Emplace_re

; 845  :         } else { // provide basic guarantee

  000ba	8b 5d fc	 mov	 ebx, DWORD PTR tv590[ebp]
; File C:\Program Files\Microsoft Visual Studio\2022\Community\VC\Tools\MSVC\14.37.32822\include\xmemory

; 1939 :             _Copy_memmove(_UFirst, _ULast, _Unfancy(_Dest));

  000bd	8b d7		 mov	 edx, edi
; File C:\Program Files\Microsoft Visual Studio\2022\Community\VC\Tools\MSVC\14.37.32822\include\vector

; 845  :         } else { // provide basic guarantee

  000bf	eb 16		 jmp	 SHORT $LN52@Emplace_re
$LN4@Emplace_re:
; File C:\Program Files\Microsoft Visual Studio\2022\Community\VC\Tools\MSVC\14.37.32822\include\xmemory

; 1939 :             _Copy_memmove(_UFirst, _ULast, _Unfancy(_Dest));

  000c1	57		 push	 edi
  000c2	53		 push	 ebx
  000c3	51		 push	 ecx
  000c4	e8 00 00 00 00	 call	 ??$_Copy_memmove@PAPAVCGraphicImageInstance@@PAPAV1@@std@@YAPAPAVCGraphicImageInstance@@PAPAV1@00@Z ; std::_Copy_memmove<CGraphicImageInstance * *,CGraphicImageInstance * *>
  000c9	8b 46 04	 mov	 eax, DWORD PTR [esi+4]
  000cc	8b cb		 mov	 ecx, ebx
; File C:\Program Files\Microsoft Visual Studio\2022\Community\VC\Tools\MSVC\14.37.32822\include\vector

; 848  :             _Uninitialized_move(_Whereptr, _Mylast, _Newvec + _Whereoff + 1, _Al);

  000ce	8b 5d fc	 mov	 ebx, DWORD PTR tv590[ebp]
; File C:\Program Files\Microsoft Visual Studio\2022\Community\VC\Tools\MSVC\14.37.32822\include\xmemory

; 1939 :             _Copy_memmove(_UFirst, _ULast, _Unfancy(_Dest));

  000d1	83 c4 0c	 add	 esp, 12			; 0000000cH
; File C:\Program Files\Microsoft Visual Studio\2022\Community\VC\Tools\MSVC\14.37.32822\include\vector

; 848  :             _Uninitialized_move(_Whereptr, _Mylast, _Newvec + _Whereoff + 1, _Al);

  000d4	8d 53 04	 lea	 edx, DWORD PTR [ebx+4]
$LN52@Emplace_re:
  000d7	52		 push	 edx
  000d8	50		 push	 eax
  000d9	51		 push	 ecx
  000da	e8 00 00 00 00	 call	 ??$_Copy_memmove@PAPAVCGraphicImageInstance@@PAPAV1@@std@@YAPAPAVCGraphicImageInstance@@PAPAV1@00@Z ; std::_Copy_memmove<CGraphicImageInstance * *,CGraphicImageInstance * *>

; 2023 :         if (_Myfirst) { // destroy and deallocate old array

  000df	8b 06		 mov	 eax, DWORD PTR [esi]

; 848  :             _Uninitialized_move(_Whereptr, _Mylast, _Newvec + _Whereoff + 1, _Al);

  000e1	83 c4 0c	 add	 esp, 12			; 0000000cH

; 2023 :         if (_Myfirst) { // destroy and deallocate old array

  000e4	85 c0		 test	 eax, eax
  000e6	74 2c		 je	 SHORT $LN70@Emplace_re

; 2024 :             _Destroy_range(_Myfirst, _Mylast, _Al);
; 2025 :             _ASAN_VECTOR_REMOVE;
; 2026 :             _Al.deallocate(_Myfirst, static_cast<size_type>(_Myend - _Myfirst));

  000e8	8b 4e 08	 mov	 ecx, DWORD PTR [esi+8]
  000eb	2b c8		 sub	 ecx, eax
; File C:\Program Files\Microsoft Visual Studio\2022\Community\VC\Tools\MSVC\14.37.32822\include\xmemory

; 969  :         _Deallocate<_New_alignof<_Ty>>(_Ptr, sizeof(_Ty) * _Count);

  000ed	83 e1 fc	 and	 ecx, -4			; fffffffcH

; 261  :         if (_Bytes >= _Big_allocation_threshold) { // boost the alignment of big allocations to help autovectorization

  000f0	81 f9 00 10 00
	00		 cmp	 ecx, 4096		; 00001000H
  000f6	72 12		 jb	 SHORT $LN80@Emplace_re

; 160  :     const uintptr_t _Ptr_container   = _Ptr_user[-1];

  000f8	8b 50 fc	 mov	 edx, DWORD PTR [eax-4]
  000fb	83 c1 23	 add	 ecx, 35			; 00000023H

; 161  : 
; 162  :     // If the following asserts, it likely means that we are performing
; 163  :     // an aligned delete on memory coming from an unaligned allocation.
; 164  :     _STL_ASSERT(_Ptr_user[-2] == _Big_allocation_sentinel, "invalid argument");
; 165  : 
; 166  :     // Extra paranoia on aligned allocation/deallocation; ensure _Ptr_container is
; 167  :     // in range [_Min_back_shift, _Non_user_size]
; 168  : #ifdef _DEBUG
; 169  :     constexpr uintptr_t _Min_back_shift = 2 * sizeof(void*);
; 170  : #else // ^^^ _DEBUG / !_DEBUG vvv
; 171  :     constexpr uintptr_t _Min_back_shift = sizeof(void*);
; 172  : #endif // _DEBUG
; 173  :     const uintptr_t _Back_shift = reinterpret_cast<uintptr_t>(_Ptr) - _Ptr_container;

  000fe	2b c2		 sub	 eax, edx

; 174  :     _STL_VERIFY(_Back_shift >= _Min_back_shift && _Back_shift <= _Non_user_size, "invalid argument");

  00100	83 c0 fc	 add	 eax, -4			; fffffffcH
  00103	83 f8 1f	 cmp	 eax, 31			; 0000001fH
  00106	77 2a		 ja	 SHORT $LN77@Emplace_re

; 175  :     _Ptr = reinterpret_cast<void*>(_Ptr_container);

  00108	8b c2		 mov	 eax, edx
$LN80@Emplace_re:

; 265  :         ::operator delete(_Ptr, _Bytes);

  0010a	51		 push	 ecx
  0010b	50		 push	 eax
  0010c	e8 00 00 00 00	 call	 ??3@YAXPAXI@Z		; operator delete
  00111	83 c4 08	 add	 esp, 8
$LN70@Emplace_re:
; File C:\Program Files\Microsoft Visual Studio\2022\Community\VC\Tools\MSVC\14.37.32822\include\vector

; 2030 :         _Mylast  = _Newvec + _Newsize;

  00114	8b 45 f4	 mov	 eax, DWORD PTR __Newsize$1$[ebp]
  00117	89 3e		 mov	 DWORD PTR [esi], edi
  00119	8d 0c 87	 lea	 ecx, DWORD PTR [edi+eax*4]

; 849  :         }
; 850  :         _CATCH_ALL
; 851  :         _Destroy_range(_Constructed_first, _Constructed_last, _Al);
; 852  :         _Al.deallocate(_Newvec, _Newcapacity);
; 853  :         _RERAISE;
; 854  :         _CATCH_END
; 855  : 
; 856  :         _Change_array(_Newvec, _Newsize, _Newcapacity);
; 857  :         return _Newvec + _Whereoff;

  0011c	8b c3		 mov	 eax, ebx

; 2030 :         _Mylast  = _Newvec + _Newsize;

  0011e	89 4e 04	 mov	 DWORD PTR [esi+4], ecx

; 2031 :         _Myend   = _Newvec + _Newcapacity;

  00121	8b 4d f8	 mov	 ecx, DWORD PTR tv607[ebp]
  00124	03 cf		 add	 ecx, edi

; 858  :     }

  00126	5f		 pop	 edi

; 2031 :         _Myend   = _Newvec + _Newcapacity;

  00127	89 4e 08	 mov	 DWORD PTR [esi+8], ecx

; 858  :     }

  0012a	5e		 pop	 esi
  0012b	5b		 pop	 ebx
  0012c	8b e5		 mov	 esp, ebp
  0012e	5d		 pop	 ebp
  0012f	c2 08 00	 ret	 8
$LN77@Emplace_re:
; File C:\Program Files\Microsoft Visual Studio\2022\Community\VC\Tools\MSVC\14.37.32822\include\xmemory

; 174  :     _STL_VERIFY(_Back_shift >= _Min_back_shift && _Back_shift <= _Non_user_size, "invalid argument");

  00132	e8 00 00 00 00	 call	 __invalid_parameter_noinfo_noreturn
$LN96@Emplace_re:
; File C:\Program Files\Microsoft Visual Studio\2022\Community\VC\Tools\MSVC\14.37.32822\include\vector

; 825  :             _Xlength();

  00137	e8 00 00 00 00	 call	 ?_Xlength@?$vector@PAVCGraphicImageInstance@@V?$allocator@PAVCGraphicImageInstance@@@std@@@std@@CAXXZ ; std::vector<CGraphicImageInstance *,std::allocator<CGraphicImageInstance *> >::_Xlength
$LN97@Emplace_re:
; File C:\Program Files\Microsoft Visual Studio\2022\Community\VC\Tools\MSVC\14.37.32822\include\xmemory

; 71   :             _Throw_bad_array_new_length(); // multiply overflow

  0013c	e8 00 00 00 00	 call	 ?_Throw_bad_array_new_length@std@@YAXXZ ; std::_Throw_bad_array_new_length
$LN94@Emplace_re:
  00141	cc		 int	 3
??$_Emplace_reallocate@ABQAVCGraphicImageInstance@@@?$vector@PAVCGraphicImageInstance@@V?$allocator@PAVCGraphicImageInstance@@@std@@@std@@AAEPAPAVCGraphicImageInstance@@QAPAV2@ABQAV2@@Z ENDP ; std::vector<CGraphicImageInstance *,std::allocator<CGraphicImageInstance *> >::_Emplace_reallocate<CGraphicImageInstance * const &>
_TEXT	ENDS
; Function compile flags: /Ogtp
; File C:\Program Files\Microsoft Visual Studio\2022\Community\VC\Tools\MSVC\14.37.32822\include\xstring
; File C:\Program Files\Microsoft Visual Studio\2022\Community\VC\Tools\MSVC\14.37.32822\include\xmemory
; File C:\Program Files\Microsoft Visual Studio\2022\Community\VC\Tools\MSVC\14.37.32822\include\utility
; File C:\Program Files\Microsoft Visual Studio\2022\Community\VC\Tools\MSVC\14.37.32822\include\xstring
; File C:\Program Files\Microsoft Visual Studio\2022\Community\VC\Tools\MSVC\14.37.32822\include\xmemory
; File C:\Program Files\Microsoft Visual Studio\2022\Community\VC\Tools\MSVC\14.37.32822\include\xstring
;	COMDAT ??$?HDU?$char_traits@D@std@@V?$allocator@D@1@@std@@YA?AV?$basic_string@DU?$char_traits@D@std@@V?$allocator@D@2@@0@ABV10@QBD@Z
_TEXT	SEGMENT
__New_size$1$ = -8					; size = 4
__Left_size$1$ = -4					; size = 4
___$ReturnUdt$ = 8					; size = 4
__Left$ = 12						; size = 4
__Right$ = 16						; size = 4
??$?HDU?$char_traits@D@std@@V?$allocator@D@1@@std@@YA?AV?$basic_string@DU?$char_traits@D@std@@V?$allocator@D@2@@0@ABV10@QBD@Z PROC ; std::operator+<char,std::char_traits<char>,std::allocator<char> >, COMDAT

; 4936 :     const basic_string<_Elem, _Traits, _Alloc>& _Left, _In_z_ const _Elem* const _Right) {

  00000	55		 push	 ebp
  00001	8b ec		 mov	 ebp, esp
  00003	83 ec 0c	 sub	 esp, 12			; 0000000cH

; 4937 :     using _Size_type       = typename basic_string<_Elem, _Traits, _Alloc>::size_type;
; 4938 :     const auto _Left_size  = _Left.size();

  00006	8b 4d 0c	 mov	 ecx, DWORD PTR __Left$[ebp]
  00009	56		 push	 esi

; 403  :         return _CSTD strlen(reinterpret_cast<const char*>(_First));

  0000a	8b 75 10	 mov	 esi, DWORD PTR __Right$[ebp]

; 4936 :     const basic_string<_Elem, _Traits, _Alloc>& _Left, _In_z_ const _Elem* const _Right) {

  0000d	57		 push	 edi

; 4937 :     using _Size_type       = typename basic_string<_Elem, _Traits, _Alloc>::size_type;
; 4938 :     const auto _Left_size  = _Left.size();

  0000e	8b 51 10	 mov	 edx, DWORD PTR [ecx+16]
  00011	89 55 fc	 mov	 DWORD PTR __Left_size$1$[ebp], edx

; 403  :         return _CSTD strlen(reinterpret_cast<const char*>(_First));

  00014	8d 7e 01	 lea	 edi, DWORD PTR [esi+1]
$LL45@operator:
  00017	8a 06		 mov	 al, BYTE PTR [esi]
  00019	46		 inc	 esi
  0001a	84 c0		 test	 al, al
  0001c	75 f9		 jne	 SHORT $LL45@operator

; 4939 :     const auto _Right_size = _Convert_size<_Size_type>(_Traits::length(_Right));
; 4940 :     if (_Left.max_size() - _Left_size < _Right_size) {

  0001e	b8 ff ff ff 7f	 mov	 eax, 2147483647		; 7fffffffH

; 403  :         return _CSTD strlen(reinterpret_cast<const char*>(_First));

  00023	2b f7		 sub	 esi, edi

; 4939 :     const auto _Right_size = _Convert_size<_Size_type>(_Traits::length(_Right));
; 4940 :     if (_Left.max_size() - _Left_size < _Right_size) {

  00025	2b c2		 sub	 eax, edx
  00027	3b c6		 cmp	 eax, esi
  00029	0f 82 d6 00 00
	00		 jb	 $LN54@operator

; 2244 :         return _BUF_SIZE <= _Myres;

  0002f	83 79 14 10	 cmp	 DWORD PTR [ecx+20], 16	; 00000010H

; 2236 :         if (_Large_string_engaged()) {

  00033	72 05		 jb	 SHORT $LN11@operator

; 2237 :             _Result = _Unfancy(_Bx._Ptr);

  00035	8b 09		 mov	 ecx, DWORD PTR [ecx]
  00037	89 4d 0c	 mov	 DWORD PTR __Left$[ebp], ecx
$LN11@operator:

; 2284 :         _CONSTEXPR20 _Bxty() noexcept : _Buf() {} // user-provided, for fancy pointers

  0003a	8b 45 08	 mov	 eax, DWORD PTR ___$ReturnUdt$[ebp]

; 2794 :         if (_New_capacity < _New_size) {

  0003d	8d 0c 16	 lea	 ecx, DWORD PTR [esi+edx]
  00040	53		 push	 ebx

; 2295 : };
; 2296 : 
; 2297 : // get _Ty's size after being EBCO'd
; 2298 : template <class _Ty>
; 2299 : _INLINE_VAR constexpr size_t _Size_after_ebco_v = is_empty_v<_Ty> ? 0 : sizeof(_Ty);
; 2300 : 
; 2301 : struct _String_constructor_concat_tag {
; 2302 :     // tag to select constructors used by basic_string's concatenation operators (operator+)
; 2303 :     explicit _String_constructor_concat_tag() = default;
; 2304 : };
; 2305 : 
; 2306 : struct _String_constructor_rvalue_allocator_tag {
; 2307 :     // tag to select constructors used by basic_stringbuf's rvalue str()
; 2308 :     explicit _String_constructor_rvalue_allocator_tag() = default;
; 2309 : };
; 2310 : 
; 2311 : [[noreturn]] inline void _Xlen_string() {
; 2312 :     _Xlength_error("string too long");
; 2313 : }
; 2314 : 
; 2315 : #if _HAS_CXX23 && defined(__cpp_lib_concepts) // TRANSITION, GH-395
; 2316 : template <class _Rng, class _Ty>
; 2317 : concept _Contiguous_range_of =
; 2318 :     (_RANGES contiguous_range<_Rng>) &&same_as<remove_cvref_t<_RANGES range_reference_t<_Rng>>, _Ty>;
; 2319 : #endif // _HAS_CXX23 && defined(__cpp_lib_concepts)
; 2320 : 
; 2321 : _EXPORT_STD template <class _Elem, class _Traits = char_traits<_Elem>, class _Alloc = allocator<_Elem>>
; 2322 : class basic_string { // null-terminated transparent array of elements
; 2323 : private:
; 2324 :     friend _Tidy_deallocate_guard<basic_string>;
; 2325 :     friend basic_stringbuf<_Elem, _Traits, _Alloc>;
; 2326 : 
; 2327 :     using _Alty        = _Rebind_alloc_t<_Alloc, _Elem>;
; 2328 :     using _Alty_traits = allocator_traits<_Alty>;
; 2329 : 
; 2330 :     using _Scary_val = _String_val<conditional_t<_Is_simple_alloc_v<_Alty>, _Simple_types<_Elem>,
; 2331 :         _String_iter_types<_Elem, typename _Alty_traits::size_type, typename _Alty_traits::difference_type,
; 2332 :             typename _Alty_traits::pointer, typename _Alty_traits::const_pointer, _Elem&, const _Elem&>>>;
; 2333 : 
; 2334 :     static_assert(!_ENFORCE_MATCHING_ALLOCATORS || is_same_v<_Elem, typename _Alloc::value_type>,
; 2335 :         _MISMATCHED_ALLOCATOR_MESSAGE("basic_string<T, Traits, Allocator>", "T"));
; 2336 : 
; 2337 :     static_assert(is_same_v<_Elem, typename _Traits::char_type>,
; 2338 :         "N4950 [string.require]/3 requires that the supplied "
; 2339 :         "char_traits character type match the string's character type.");
; 2340 : 
; 2341 :     static_assert(!is_array_v<_Elem> && is_trivial_v<_Elem> && is_standard_layout_v<_Elem>,
; 2342 :         "The character type of basic_string must be a non-array trivial standard-layout type. See N4950 "
; 2343 :         "[strings.general]/1.");
; 2344 : 
; 2345 : public:
; 2346 :     using traits_type    = _Traits;
; 2347 :     using allocator_type = _Alloc;
; 2348 : 
; 2349 :     using value_type      = _Elem;
; 2350 :     using size_type       = typename _Alty_traits::size_type;
; 2351 :     using difference_type = typename _Alty_traits::difference_type;
; 2352 :     using pointer         = typename _Alty_traits::pointer;
; 2353 :     using const_pointer   = typename _Alty_traits::const_pointer;
; 2354 :     using reference       = value_type&;
; 2355 :     using const_reference = const value_type&;
; 2356 : 
; 2357 :     using iterator       = _String_iterator<_Scary_val>;
; 2358 :     using const_iterator = _String_const_iterator<_Scary_val>;
; 2359 : 
; 2360 :     using reverse_iterator       = _STD reverse_iterator<iterator>;
; 2361 :     using const_reverse_iterator = _STD reverse_iterator<const_iterator>;
; 2362 : 
; 2363 : private:
; 2364 :     static constexpr auto _BUF_SIZE   = _Scary_val::_BUF_SIZE;
; 2365 :     static constexpr auto _ALLOC_MASK = _Scary_val::_ALLOC_MASK;
; 2366 : 
; 2367 :     // When doing _String_val operations by memcpy, we are touching:
; 2368 :     //   _String_val::_Bx::_Buf (type is array of _Elem)
; 2369 :     //   _String_val::_Bx::_Ptr (type is pointer)
; 2370 :     //   _String_val::_Mysize   (type is size_type)
; 2371 :     //   _String_val::_Myres    (type is size_type)
; 2372 :     // N4950 [strings.general]/1 says _Elem must be trivial standard-layout, so memcpy is safe.
; 2373 :     // We need to ask if pointer is safe to memcpy.
; 2374 :     // size_type must be an unsigned integral type so memcpy is safe.
; 2375 :     // We also need to disable memcpy if the user has supplied _Traits, since
; 2376 :     //   they can observe traits::assign and similar.
; 2377 :     static constexpr bool _Can_memcpy_val = _Is_specialization_v<_Traits, char_traits> && is_trivial_v<pointer>;
; 2378 :     // This offset skips over the _Container_base members, if any
; 2379 :     static constexpr size_t _Memcpy_val_offset = _Size_after_ebco_v<_Container_base>;
; 2380 :     static constexpr size_t _Memcpy_val_size   = sizeof(_Scary_val) - _Memcpy_val_offset;
; 2381 : 
; 2382 :     template <class _Iter>
; 2383 :     // TRANSITION, /clr:pure is incompatible with templated static constexpr data members
; 2384 :     // static constexpr bool _Is_elem_cptr =_Is_any_of_v<_Iter, const _Elem* const, _Elem* const, const _Elem*, _Elem*>;
; 2385 :     using _Is_elem_cptr = bool_constant<_Is_any_of_v<_Iter, const _Elem* const, _Elem* const, const _Elem*, _Elem*>>;
; 2386 : 
; 2387 : #if _HAS_CXX17
; 2388 :     template <class _StringViewIsh>
; 2389 :     using _Is_string_view_ish =
; 2390 :         enable_if_t<conjunction_v<is_convertible<const _StringViewIsh&, basic_string_view<_Elem, _Traits>>,
; 2391 :                         negation<is_convertible<const _StringViewIsh&, const _Elem*>>>,
; 2392 :             int>;
; 2393 : #endif // _HAS_CXX17
; 2394 : 
; 2395 : #ifdef _INSERT_STRING_ANNOTATION
; 2396 :     _CONSTEXPR20 void _Create_annotation() const noexcept {
; 2397 :         // Annotates the valid range with shadow memory
; 2398 :         auto& _My_data = _Mypair._Myval2;
; 2399 :         _Apply_annotation(_My_data._Myptr(), _My_data._Myres, _My_data._Myres, _My_data._Mysize);
; 2400 :     }
; 2401 : 
; 2402 :     _CONSTEXPR20 void _Remove_annotation() const noexcept {
; 2403 :         // Removes annotation of the range with shadow memory
; 2404 :         auto& _My_data = _Mypair._Myval2;
; 2405 :         _Apply_annotation(_My_data._Myptr(), _My_data._Myres, _My_data._Mysize, _My_data._Myres);
; 2406 :     }
; 2407 : 
; 2408 :     _CONSTEXPR20 void _Modify_annotation(const size_type _Old_size, const size_type _New_size) const noexcept {
; 2409 :         if (_Old_size == _New_size) {
; 2410 :             return;
; 2411 :         }
; 2412 : 
; 2413 :         auto& _My_data = _Mypair._Myval2;
; 2414 :         _Apply_annotation(_My_data._Myptr(), _My_data._Myres, _Old_size, _New_size);
; 2415 :     }
; 2416 : 
; 2417 :     static _CONSTEXPR20 void _Apply_annotation(const value_type* const _First, const size_type _Capacity,
; 2418 :         const size_type _Old_size, const size_type _New_size) noexcept {
; 2419 : #if _HAS_CXX20
; 2420 :         if (_STD is_constant_evaluated()) {
; 2421 :             return;
; 2422 :         }
; 2423 : #endif // _HAS_CXX20
; 2424 :        // Don't annotate small strings; only annotate on the heap.
; 2425 :         if (_Capacity == _BUF_SIZE - 1 || !_Asan_string_should_annotate) {
; 2426 :             return;
; 2427 :         }
; 2428 : 
; 2429 :         // Note that `_Capacity`, `_Old_size`, and `_New_size` do not include the null terminator
; 2430 :         const void* const _End      = _First + _Capacity + 1;
; 2431 :         const void* const _Old_last = _First + _Old_size + 1;
; 2432 :         const void* const _New_last = _First + _New_size + 1;
; 2433 : 
; 2434 :         constexpr bool _Large_string_always_asan_aligned =
; 2435 :             (_Container_allocation_minimum_asan_alignment<basic_string>) >= _Asan_granularity;
; 2436 : 
; 2437 :         // for the non-aligned buffer options, the buffer must always have size >= 9 bytes,
; 2438 :         // so it will always end at least one shadow memory section.
; 2439 : 
; 2440 :         _Asan_aligned_pointers _Aligned;
; 2441 :         if constexpr (_Large_string_always_asan_aligned) {
; 2442 :             _Aligned = {_First, _STD _Get_asan_aligned_after(_End)};
; 2443 :         } else {
; 2444 :             _Aligned = _STD _Get_asan_aligned_first_end(_First, _End);
; 2445 :         }
; 2446 :         const void* const _Old_fixed = _Aligned._Clamp_to_end(_Old_last);
; 2447 :         const void* const _New_fixed = _Aligned._Clamp_to_end(_New_last);
; 2448 : 
; 2449 :         // --- always aligned case ---
; 2450 :         // old state:
; 2451 :         //   [_First, _Old_last) valid
; 2452 :         //   [_Old_last, asan_aligned_after(_End)) poison
; 2453 :         // new state:
; 2454 :         //   [_First, _New_last) valid
; 2455 :         //   [_New_last, asan_aligned_after(_End)) poison
; 2456 : 
; 2457 :         // --- sometimes non-aligned case ---
; 2458 :         // old state:
; 2459 :         //   [_Aligned._First, _Old_fixed) valid
; 2460 :         //   [_Old_fixed, _Aligned._End) poison
; 2461 :         //   [_Aligned._End, _End) valid
; 2462 :         // new state:
; 2463 :         //   [_Aligned._First, _New_fixed) valid
; 2464 :         //   [_New_fixed, _Aligned._End) poison
; 2465 :         //   [_Aligned._End, _End) valid
; 2466 :         _CSTD __sanitizer_annotate_contiguous_container(_Aligned._First, _Aligned._End, _Old_fixed, _New_fixed);
; 2467 :     }
; 2468 : 
; 2469 : #define _ASAN_STRING_REMOVE(_Str)                       (_Str)._Remove_annotation()
; 2470 : #define _ASAN_STRING_CREATE(_Str)                       (_Str)._Create_annotation()
; 2471 : #define _ASAN_STRING_MODIFY(_Str, _Old_size, _New_size) (_Str)._Modify_annotation(_Old_size, _New_size)
; 2472 : #else // ^^^ _INSERT_STRING_ANNOTATION / !_INSERT_STRING_ANNOTATION vvv
; 2473 : #define _ASAN_STRING_REMOVE(_Str)
; 2474 : #define _ASAN_STRING_CREATE(_Str)
; 2475 : #define _ASAN_STRING_MODIFY(_Str, _Old_size, _New_size)
; 2476 : #endif // !_INSERT_STRING_ANNOTATION
; 2477 : 
; 2478 : public:
; 2479 :     _CONSTEXPR20
; 2480 :     basic_string() noexcept(is_nothrow_default_constructible_v<_Alty>) : _Mypair(_Zero_then_variadic_args_t{}) {
; 2481 :         _Mypair._Myval2._Alloc_proxy(_GET_PROXY_ALLOCATOR(_Alty, _Getal()));
; 2482 :         _Tidy_init();
; 2483 :     }
; 2484 : 
; 2485 :     _CONSTEXPR20 explicit basic_string(const _Alloc& _Al) noexcept : _Mypair(_One_then_variadic_args_t{}, _Al) {
; 2486 :         _Mypair._Myval2._Alloc_proxy(_GET_PROXY_ALLOCATOR(_Alty, _Getal()));
; 2487 :         _Tidy_init();
; 2488 :     }
; 2489 : 
; 2490 :     _CONSTEXPR20 basic_string(const basic_string& _Right)
; 2491 :         : _Mypair(_One_then_variadic_args_t{}, _Alty_traits::select_on_container_copy_construction(_Right._Getal())) {
; 2492 :         _Construct<_Construct_strategy::_From_string>(_Right._Mypair._Myval2._Myptr(), _Right._Mypair._Myval2._Mysize);
; 2493 :     }
; 2494 : 
; 2495 :     _CONSTEXPR20 basic_string(const basic_string& _Right, const _Alloc& _Al)
; 2496 :         : _Mypair(_One_then_variadic_args_t{}, _Al) {
; 2497 :         _Construct<_Construct_strategy::_From_string>(_Right._Mypair._Myval2._Myptr(), _Right._Mypair._Myval2._Mysize);
; 2498 :     }
; 2499 : 
; 2500 :     _CONSTEXPR20 basic_string(const basic_string& _Right, const size_type _Roff, const _Alloc& _Al = _Alloc())
; 2501 :         : _Mypair(_One_then_variadic_args_t{}, _Al) { // construct from _Right [_Roff, <end>)
; 2502 :         _Right._Mypair._Myval2._Check_offset(_Roff);
; 2503 :         _Construct<_Construct_strategy::_From_ptr>(
; 2504 :             _Right._Mypair._Myval2._Myptr() + _Roff, _Right._Mypair._Myval2._Clamp_suffix_size(_Roff, npos));
; 2505 :     }
; 2506 : 
; 2507 :     _CONSTEXPR20 basic_string(
; 2508 :         const basic_string& _Right, const size_type _Roff, const size_type _Count, const _Alloc& _Al = _Alloc())
; 2509 :         : _Mypair(_One_then_variadic_args_t{}, _Al) { // construct from _Right [_Roff, _Roff + _Count)
; 2510 :         _Right._Mypair._Myval2._Check_offset(_Roff);
; 2511 :         _Construct<_Construct_strategy::_From_ptr>(
; 2512 :             _Right._Mypair._Myval2._Myptr() + _Roff, _Right._Mypair._Myval2._Clamp_suffix_size(_Roff, _Count));
; 2513 :     }
; 2514 : 
; 2515 : #if _HAS_CXX23
; 2516 :     constexpr basic_string(basic_string&& _Right, const size_type _Roff, const _Alloc& _Al = _Alloc())
; 2517 :         : _Mypair(_One_then_variadic_args_t{}, _Al) { // construct from _Right [_Roff, <end>), potentially move
; 2518 :         _Move_construct_from_substr(_Right, _Roff, npos);
; 2519 :     }
; 2520 : 
; 2521 :     constexpr basic_string(
; 2522 :         basic_string&& _Right, const size_type _Roff, const size_type _Count, const _Alloc& _Al = _Alloc())
; 2523 :         : _Mypair(_One_then_variadic_args_t{}, _Al) { // construct from _Right [_Roff, _Roff + _Count), potentially move
; 2524 :         _Move_construct_from_substr(_Right, _Roff, _Count);
; 2525 :     }
; 2526 : #endif // _HAS_CXX23
; 2527 : 
; 2528 :     _CONSTEXPR20 basic_string(_In_reads_(_Count) const _Elem* const _Ptr, _CRT_GUARDOVERFLOW const size_type _Count)
; 2529 :         : _Mypair(_Zero_then_variadic_args_t{}) {
; 2530 :         _Construct<_Construct_strategy::_From_ptr>(_Ptr, _Count);
; 2531 :     }
; 2532 : 
; 2533 :     _CONSTEXPR20 basic_string(
; 2534 :         _In_reads_(_Count) const _Elem* const _Ptr, _CRT_GUARDOVERFLOW const size_type _Count, const _Alloc& _Al)
; 2535 :         : _Mypair(_One_then_variadic_args_t{}, _Al) {
; 2536 :         _Construct<_Construct_strategy::_From_ptr>(_Ptr, _Count);
; 2537 :     }
; 2538 : 
; 2539 :     _CONSTEXPR20 basic_string(_In_z_ const _Elem* const _Ptr) : _Mypair(_Zero_then_variadic_args_t{}) {
; 2540 :         _Construct<_Construct_strategy::_From_ptr>(_Ptr, _Convert_size<size_type>(_Traits::length(_Ptr)));
; 2541 :     }
; 2542 : 
; 2543 : #if _HAS_CXX23
; 2544 :     basic_string(nullptr_t) = delete;
; 2545 : #endif // _HAS_CXX23
; 2546 : 
; 2547 : #if _HAS_CXX17
; 2548 :     template <class _Alloc2 = _Alloc, enable_if_t<_Is_allocator<_Alloc2>::value, int> = 0>
; 2549 : #endif // _HAS_CXX17
; 2550 :     _CONSTEXPR20 basic_string(_In_z_ const _Elem* const _Ptr, const _Alloc& _Al)
; 2551 :         : _Mypair(_One_then_variadic_args_t{}, _Al) {
; 2552 :         _Construct<_Construct_strategy::_From_ptr>(_Ptr, _Convert_size<size_type>(_Traits::length(_Ptr)));
; 2553 :     }
; 2554 : 
; 2555 :     _CONSTEXPR20 basic_string(_CRT_GUARDOVERFLOW const size_type _Count, const _Elem _Ch)
; 2556 :         : _Mypair(_Zero_then_variadic_args_t{}) { // construct from _Count * _Ch
; 2557 :         _Construct<_Construct_strategy::_From_char>(_Ch, _Count);
; 2558 :     }
; 2559 : 
; 2560 : #if _HAS_CXX17
; 2561 :     template <class _Alloc2 = _Alloc, enable_if_t<_Is_allocator<_Alloc2>::value, int> = 0>
; 2562 : #endif // _HAS_CXX17
; 2563 :     _CONSTEXPR20 basic_string(_CRT_GUARDOVERFLOW const size_type _Count, const _Elem _Ch, const _Alloc& _Al)
; 2564 :         : _Mypair(_One_then_variadic_args_t{}, _Al) { // construct from _Count * _Ch with allocator
; 2565 :         _Construct<_Construct_strategy::_From_char>(_Ch, _Count);
; 2566 :     }
; 2567 : 
; 2568 :     template <class _Iter, enable_if_t<_Is_iterator_v<_Iter>, int> = 0>
; 2569 :     _CONSTEXPR20 basic_string(_Iter _First, _Iter _Last, const _Alloc& _Al = _Alloc())
; 2570 :         : _Mypair(_One_then_variadic_args_t{}, _Al) {
; 2571 :         _Adl_verify_range(_First, _Last);
; 2572 :         auto _UFirst = _Get_unwrapped(_First);
; 2573 :         auto _ULast  = _Get_unwrapped(_Last);
; 2574 :         if (_UFirst == _ULast) {
; 2575 :             _Mypair._Myval2._Alloc_proxy(_GET_PROXY_ALLOCATOR(_Alty, _Getal()));
; 2576 :             _Tidy_init();
; 2577 :         } else {
; 2578 :             if constexpr (_Is_elem_cptr<decltype(_UFirst)>::value) {
; 2579 :                 _Construct<_Construct_strategy::_From_ptr>(
; 2580 :                     _UFirst, _Convert_size<size_type>(static_cast<size_t>(_ULast - _UFirst)));
; 2581 :             } else if constexpr (_Is_cpp17_fwd_iter_v<decltype(_UFirst)>) {
; 2582 :                 const auto _Length = static_cast<size_t>(_STD distance(_UFirst, _ULast));
; 2583 :                 const auto _Count  = _Convert_size<size_type>(_Length);
; 2584 :                 _Construct_from_iter(_STD move(_UFirst), _STD move(_ULast), _Count);
; 2585 :             } else {
; 2586 :                 _Construct_from_iter(_STD move(_UFirst), _STD move(_ULast));
; 2587 :             }
; 2588 :         }
; 2589 :     }
; 2590 : 
; 2591 : private:
; 2592 :     static constexpr void _Start_element_lifetimes(_Elem* const _Ptr, const size_type _Size) {
; 2593 :         // Start element lifetimes to avoid UB. This is a more general mechanism than _String_val::_Activate_SSO_buffer,
; 2594 :         // but likely more impactful to throughput.
; 2595 : #if _HAS_CXX20
; 2596 :         if (_STD is_constant_evaluated()) {
; 2597 :             for (size_type _Idx = 0; _Idx < _Size; ++_Idx) {
; 2598 :                 _STD construct_at(_Ptr + _Idx);
; 2599 :             }
; 2600 :         }
; 2601 : #else // ^^^ C++20-or-later / pre-C++20 vvv
; 2602 :         (void) _Ptr;
; 2603 :         (void) _Size;
; 2604 : #endif // _HAS_CXX20
; 2605 :     }
; 2606 : 
; 2607 :     enum class _Construct_strategy : uint8_t { _From_char, _From_ptr, _From_string };
; 2608 : 
; 2609 :     template <_Construct_strategy _Strat, class _Char_or_ptr>
; 2610 :     _CONSTEXPR20 void _Construct(const _Char_or_ptr _Arg, _CRT_GUARDOVERFLOW const size_type _Count) {
; 2611 :         auto& _My_data = _Mypair._Myval2;
; 2612 :         _STL_INTERNAL_CHECK(!_My_data._Large_string_engaged());
; 2613 : 
; 2614 :         if constexpr (_Strat == _Construct_strategy::_From_char) {
; 2615 :             _STL_INTERNAL_STATIC_ASSERT(is_same_v<_Char_or_ptr, _Elem>);
; 2616 :         } else {
; 2617 :             _STL_INTERNAL_STATIC_ASSERT(_Is_elem_cptr<_Char_or_ptr>::value);
; 2618 :         }
; 2619 : 
; 2620 :         if (_Count > max_size()) {
; 2621 :             _Xlen_string(); // result too long
; 2622 :         }
; 2623 : 
; 2624 :         auto& _Al       = _Getal();
; 2625 :         auto&& _Alproxy = _GET_PROXY_ALLOCATOR(_Alty, _Al);
; 2626 :         _Container_proxy_ptr<_Alty> _Proxy(_Alproxy, _My_data);
; 2627 : 
; 2628 :         if (_Count < _BUF_SIZE) {
; 2629 :             _My_data._Mysize = _Count;
; 2630 :             _My_data._Myres  = _BUF_SIZE - 1;
; 2631 : 
; 2632 :             if constexpr (_Strat == _Construct_strategy::_From_char) {
; 2633 :                 _Traits::assign(_My_data._Bx._Buf, _Count, _Arg);
; 2634 :                 _Traits::assign(_My_data._Bx._Buf[_Count], _Elem());
; 2635 :             } else if constexpr (_Strat == _Construct_strategy::_From_ptr) {
; 2636 :                 _Traits::copy(_My_data._Bx._Buf, _Arg, _Count);
; 2637 :                 _Traits::assign(_My_data._Bx._Buf[_Count], _Elem());
; 2638 :             } else { // _Strat == _Construct_strategy::_From_string
; 2639 : #ifdef _INSERT_STRING_ANNOTATION
; 2640 :                 _Traits::copy(_My_data._Bx._Buf, _Arg, _Count + 1);
; 2641 : #else // ^^^ _INSERT_STRING_ANNOTATION / !_INSERT_STRING_ANNOTATION vvv
; 2642 :                 _Traits::copy(_My_data._Bx._Buf, _Arg, _BUF_SIZE);
; 2643 : #endif // !_INSERT_STRING_ANNOTATION
; 2644 :             }
; 2645 : 
; 2646 :             _Proxy._Release();
; 2647 :             return;
; 2648 :         }
; 2649 : 
; 2650 :         _My_data._Myres               = _BUF_SIZE - 1;
; 2651 :         const size_type _New_capacity = _Calculate_growth(_Count);
; 2652 :         const pointer _New_ptr        = _Al.allocate(_New_capacity + 1); // throws
; 2653 :         _Construct_in_place(_My_data._Bx._Ptr, _New_ptr);
; 2654 : 
; 2655 :         _Start_element_lifetimes(_Unfancy(_New_ptr), _New_capacity + 1);
; 2656 : 
; 2657 :         _My_data._Mysize = _Count;
; 2658 :         _My_data._Myres  = _New_capacity;
; 2659 :         if constexpr (_Strat == _Construct_strategy::_From_char) {
; 2660 :             _Traits::assign(_Unfancy(_New_ptr), _Count, _Arg);
; 2661 :             _Traits::assign(_Unfancy(_New_ptr)[_Count], _Elem());
; 2662 :         } else if constexpr (_Strat == _Construct_strategy::_From_ptr) {
; 2663 :             _Traits::copy(_Unfancy(_New_ptr), _Arg, _Count);
; 2664 :             _Traits::assign(_Unfancy(_New_ptr)[_Count], _Elem());
; 2665 :         } else { // _Strat == _Construct_strategy::_From_string
; 2666 :             _Traits::copy(_Unfancy(_New_ptr), _Arg, _Count + 1);
; 2667 :         }
; 2668 : 
; 2669 :         _ASAN_STRING_CREATE(*this);
; 2670 :         _Proxy._Release();
; 2671 :     }
; 2672 : 
; 2673 :     template <class _Iter, class _Sent, class _Size = nullptr_t>
; 2674 :     _CONSTEXPR20 void _Construct_from_iter(_Iter _First, const _Sent _Last, _Size _Count = {}) {
; 2675 :         // Pre: _First models input_iterator or meets the Cpp17InputIterator requirements
; 2676 :         // Pre: [_First, _Last) is a valid range
; 2677 :         // Pre: if is_same_v<_Size, size_type>, _Count is the length of [_First, _Last).
; 2678 :         // Pre: *this is in SSO mode; the lifetime of the SSO elements has already begun
; 2679 : 
; 2680 :         auto& _My_data  = _Mypair._Myval2;
; 2681 :         auto& _Al       = _Getal();
; 2682 :         auto&& _Alproxy = _GET_PROXY_ALLOCATOR(_Alty, _Al);
; 2683 :         _Container_proxy_ptr<_Alty> _Proxy(_Alproxy, _My_data);
; 2684 : 
; 2685 :         _My_data._Mysize = 0;
; 2686 :         _My_data._Myres  = _BUF_SIZE - 1;
; 2687 : 
; 2688 :         if constexpr (is_same_v<_Size, size_type>) {
; 2689 :             if (_Count > max_size()) {
; 2690 :                 _Xlen_string(); // result too long
; 2691 :             }
; 2692 : 
; 2693 :             if (_Count >= _BUF_SIZE) {
; 2694 :                 const size_type _New_capacity = _Calculate_growth(_Count);
; 2695 :                 const pointer _New_ptr        = _Al.allocate(_New_capacity + 1); // throws
; 2696 :                 _Construct_in_place(_My_data._Bx._Ptr, _New_ptr);
; 2697 :                 _My_data._Myres = _New_capacity;
; 2698 : 
; 2699 :                 _Start_element_lifetimes(_Unfancy(_New_ptr), _New_capacity + 1);
; 2700 :             }
; 2701 :         }
; 2702 : 
; 2703 :         _Tidy_deallocate_guard<basic_string> _Guard{this};
; 2704 :         for (; _First != _Last; ++_First) {
; 2705 :             if constexpr (!is_same_v<_Size, size_type>) {
; 2706 :                 if (_My_data._Mysize == _My_data._Myres) { // Need to grow
; 2707 :                     if (_My_data._Mysize == max_size()) {
; 2708 :                         _Xlen_string(); // result too long
; 2709 :                     }
; 2710 : 
; 2711 :                     const auto _Old_ptr           = _My_data._Myptr();
; 2712 :                     const size_type _New_capacity = _Calculate_growth(_My_data._Mysize);
; 2713 :                     const pointer _New_ptr        = _Al.allocate(_New_capacity + 1); // throws
; 2714 : 
; 2715 :                     _Start_element_lifetimes(_Unfancy(_New_ptr), _New_capacity + 1);
; 2716 :                     _Traits::copy(_Unfancy(_New_ptr), _Old_ptr, _My_data._Mysize);
; 2717 :                     if (_My_data._Myres >= _BUF_SIZE) { // Need to deallocate old storage
; 2718 :                         _Al.deallocate(_My_data._Bx._Ptr, _My_data._Myres + 1);
; 2719 :                         _My_data._Bx._Ptr = _New_ptr;
; 2720 :                     } else {
; 2721 :                         _Construct_in_place(_My_data._Bx._Ptr, _New_ptr);
; 2722 :                     }
; 2723 :                     _My_data._Myres = _New_capacity;
; 2724 :                 }
; 2725 :             }
; 2726 : 
; 2727 :             _Elem* const _Ptr = _My_data._Myptr();
; 2728 :             _Traits::assign(_Ptr[_My_data._Mysize], *_First);
; 2729 :             ++_My_data._Mysize;
; 2730 :         }
; 2731 : 
; 2732 :         _Elem* const _Ptr = _My_data._Myptr();
; 2733 :         _Traits::assign(_Ptr[_My_data._Mysize], _Elem());
; 2734 :         _ASAN_STRING_CREATE(*this);
; 2735 :         _Guard._Target = nullptr;
; 2736 :         _Proxy._Release();
; 2737 :     }
; 2738 : 
; 2739 : public:
; 2740 : #if _HAS_CXX23 && defined(__cpp_lib_concepts) // TRANSITION, GH-395
; 2741 :     template <_Container_compatible_range<_Elem> _Rng>
; 2742 :     constexpr basic_string(from_range_t, _Rng&& _Range, const _Alloc& _Al = _Alloc())
; 2743 :         : _Mypair(_One_then_variadic_args_t{}, _Al) {
; 2744 :         if constexpr (_RANGES sized_range<_Rng> || _RANGES forward_range<_Rng>) {
; 2745 :             const auto _Length = _To_unsigned_like(_RANGES distance(_Range));
; 2746 :             const auto _Count  = _Convert_size<size_type>(_Length);
; 2747 :             if constexpr (_Contiguous_range_of<_Rng, _Elem>) {
; 2748 :                 _Construct<_Construct_strategy::_From_ptr>(_RANGES data(_Range), _Count);
; 2749 :             } else {
; 2750 :                 _Construct_from_iter(_RANGES _Ubegin(_Range), _RANGES _Uend(_Range), _Count);
; 2751 :             }
; 2752 :         } else {
; 2753 :             _Construct_from_iter(_RANGES _Ubegin(_Range), _RANGES _Uend(_Range));
; 2754 :         }
; 2755 :     }
; 2756 : #endif // _HAS_CXX23 && defined(__cpp_lib_concepts)
; 2757 : 
; 2758 :     _CONSTEXPR20 basic_string(basic_string&& _Right) noexcept
; 2759 :         : _Mypair(_One_then_variadic_args_t{}, _STD move(_Right._Getal())) {
; 2760 :         _Mypair._Myval2._Alloc_proxy(_GET_PROXY_ALLOCATOR(_Alty, _Getal()));
; 2761 :         _Take_contents(_Right);
; 2762 :     }
; 2763 : 
; 2764 :     _CONSTEXPR20 basic_string(basic_string&& _Right, const _Alloc& _Al) noexcept(
; 2765 :         _Alty_traits::is_always_equal::value) // strengthened
; 2766 :         : _Mypair(_One_then_variadic_args_t{}, _Al) {
; 2767 :         if constexpr (!_Alty_traits::is_always_equal::value) {
; 2768 :             if (_Getal() != _Right._Getal()) {
; 2769 :                 _Construct<_Construct_strategy::_From_string>(
; 2770 :                     _Right._Mypair._Myval2._Myptr(), _Right._Mypair._Myval2._Mysize);
; 2771 :                 return;
; 2772 :             }
; 2773 :         }
; 2774 : 
; 2775 :         _Mypair._Myval2._Alloc_proxy(_GET_PROXY_ALLOCATOR(_Alty, _Getal()));
; 2776 :         _Take_contents(_Right);
; 2777 :     }
; 2778 : 
; 2779 :     _CONSTEXPR20 basic_string(_String_constructor_concat_tag, const basic_string& _Source_of_al,
; 2780 :         const _Elem* const _Left_ptr, const size_type _Left_size, const _Elem* const _Right_ptr,
; 2781 :         const size_type _Right_size)
; 2782 :         : _Mypair(
; 2783 :             _One_then_variadic_args_t{}, _Alty_traits::select_on_container_copy_construction(_Source_of_al._Getal())) {
; 2784 :         _STL_INTERNAL_CHECK(_Left_size <= max_size());
; 2785 :         _STL_INTERNAL_CHECK(_Right_size <= max_size());
; 2786 :         _STL_INTERNAL_CHECK(_Right_size <= max_size() - _Left_size);
; 2787 :         const auto _New_size    = static_cast<size_type>(_Left_size + _Right_size);

  00041	8d 1c 16	 lea	 ebx, DWORD PTR [esi+edx]
  00044	0f 57 c0	 xorps	 xmm0, xmm0

; 2788 :         size_type _New_capacity = _BUF_SIZE - 1;

  00047	bf 0f 00 00 00	 mov	 edi, 15			; 0000000fH
  0004c	89 5d f8	 mov	 DWORD PTR __New_size$1$[ebp], ebx

; 2789 :         auto& _My_data          = _Mypair._Myval2;
; 2790 :         _Elem* _Ptr             = _My_data._Bx._Buf;

  0004f	8b d8		 mov	 ebx, eax

; 2284 :         _CONSTEXPR20 _Bxty() noexcept : _Buf() {} // user-provided, for fancy pointers

  00051	0f 11 00	 movups	 XMMWORD PTR [eax], xmm0

; 2293 :     size_type _Mysize = 0; // current length of string

  00054	c7 40 10 00 00
	00 00		 mov	 DWORD PTR [eax+16], 0

; 2294 :     size_type _Myres  = 0; // current storage reserved for string

  0005b	c7 40 14 00 00
	00 00		 mov	 DWORD PTR [eax+20], 0

; 2794 :         if (_New_capacity < _New_size) {

  00062	3b cf		 cmp	 ecx, edi
  00064	76 68		 jbe	 SHORT $LN16@operator

; 4714 :         const size_type _Masked = _Requested | _ALLOC_MASK;

  00066	8b 7d f8	 mov	 edi, DWORD PTR __New_size$1$[ebp]
  00069	83 cf 0f	 or	 edi, 15			; 0000000fH
  0006c	81 ff ff ff ff
	7f		 cmp	 edi, 2147483647		; 7fffffffH

; 4715 :         if (_Masked > _Max) { // the mask overflows, settle for max_size()

  00072	76 1a		 jbe	 SHORT $LN31@operator

; 4716 :             return _Max;

  00074	ba 00 00 00 80	 mov	 edx, -2147483648	; 80000000H
  00079	bf ff ff ff 7f	 mov	 edi, 2147483647		; 7fffffffH
; File C:\Program Files\Microsoft Visual Studio\2022\Community\VC\Tools\MSVC\14.37.32822\include\xmemory

; 239  :             return _Allocate_manually_vector_aligned<_Traits>(_Bytes);

  0007e	52		 push	 edx
  0007f	e8 00 00 00 00	 call	 ??$_Allocate_manually_vector_aligned@U_Default_allocate_traits@std@@@std@@YAPAXI@Z ; std::_Allocate_manually_vector_aligned<std::_Default_allocate_traits>
  00084	8b d8		 mov	 ebx, eax
  00086	83 c4 04	 add	 esp, 4
  00089	8b 45 08	 mov	 eax, DWORD PTR ___$ReturnUdt$[ebp]
  0008c	eb 3b		 jmp	 SHORT $LN38@operator
$LN31@operator:
; File C:\Program Files\Microsoft Visual Studio\2022\Community\VC\Tools\MSVC\14.37.32822\include\utility

; 47   :     return _Left < _Right ? _Right : _Left;

  0008e	ba 16 00 00 00	 mov	 edx, 22			; 00000016H
  00093	3b fa		 cmp	 edi, edx
  00095	0f 42 fa	 cmovb	 edi, edx
; File C:\Program Files\Microsoft Visual Studio\2022\Community\VC\Tools\MSVC\14.37.32822\include\xstring

; 2796 :             const pointer _Fancyptr = _Getal().allocate(_New_capacity + 1); // throws

  00098	8d 57 01	 lea	 edx, DWORD PTR [edi+1]
; File C:\Program Files\Microsoft Visual Studio\2022\Community\VC\Tools\MSVC\14.37.32822\include\xmemory

; 238  :         if (_Bytes >= _Big_allocation_threshold) { // boost the alignment of big allocations to help autovectorization

  0009b	81 fa 00 10 00
	00		 cmp	 edx, 4096		; 00001000H
  000a1	72 10		 jb	 SHORT $LN39@operator

; 239  :             return _Allocate_manually_vector_aligned<_Traits>(_Bytes);

  000a3	52		 push	 edx
  000a4	e8 00 00 00 00	 call	 ??$_Allocate_manually_vector_aligned@U_Default_allocate_traits@std@@@std@@YAPAXI@Z ; std::_Allocate_manually_vector_aligned<std::_Default_allocate_traits>
  000a9	8b d8		 mov	 ebx, eax
  000ab	83 c4 04	 add	 esp, 4
  000ae	8b 45 08	 mov	 eax, DWORD PTR ___$ReturnUdt$[ebp]
  000b1	eb 16		 jmp	 SHORT $LN38@operator
$LN39@operator:

; 240  :         }
; 241  :     }
; 242  : #endif // defined(_M_IX86) || defined(_M_X64)
; 243  : 
; 244  :     if (_Bytes != 0) {

  000b3	85 d2		 test	 edx, edx
  000b5	74 10		 je	 SHORT $LN40@operator

; 87   :         return ::operator new(_Bytes);

  000b7	52		 push	 edx
  000b8	e8 00 00 00 00	 call	 ??2@YAPAXI@Z		; operator new

; 245  :         return _Traits::_Allocate(_Bytes);

  000bd	8b d8		 mov	 ebx, eax

; 87   :         return ::operator new(_Bytes);

  000bf	83 c4 04	 add	 esp, 4

; 245  :         return _Traits::_Allocate(_Bytes);

  000c2	8b 45 08	 mov	 eax, DWORD PTR ___$ReturnUdt$[ebp]
  000c5	eb 02		 jmp	 SHORT $LN38@operator
$LN40@operator:

; 246  :     }
; 247  : 
; 248  :     return nullptr;

  000c7	33 db		 xor	 ebx, ebx
$LN38@operator:
  000c9	8b 55 fc	 mov	 edx, DWORD PTR __Left_size$1$[ebp]
; File C:\Program Files\Microsoft Visual Studio\2022\Community\VC\Tools\MSVC\14.37.32822\include\xstring

; 2798 :             _Construct_in_place(_My_data._Bx._Ptr, _Fancyptr);

  000cc	89 18		 mov	 DWORD PTR [eax], ebx
$LN16@operator:

; 2799 : 
; 2800 :             _Start_element_lifetimes(_Ptr, _New_capacity + 1);
; 2801 :         }
; 2802 : 
; 2803 :         _My_data._Mysize = _New_size;

  000ce	8d 0c 16	 lea	 ecx, DWORD PTR [esi+edx]

; 2804 :         _My_data._Myres  = _New_capacity;

  000d1	89 78 14	 mov	 DWORD PTR [eax+20], edi

; 66   :         _CSTD memcpy(_First1, _First2, _Count * sizeof(_Elem));

  000d4	52		 push	 edx

; 2803 :         _My_data._Mysize = _New_size;

  000d5	89 48 10	 mov	 DWORD PTR [eax+16], ecx

; 66   :         _CSTD memcpy(_First1, _First2, _Count * sizeof(_Elem));

  000d8	8b 4d 0c	 mov	 ecx, DWORD PTR __Left$[ebp]
  000db	51		 push	 ecx
  000dc	53		 push	 ebx
  000dd	e8 00 00 00 00	 call	 _memcpy

; 2806 :         _Traits::copy(_Ptr + static_cast<ptrdiff_t>(_Left_size), _Right_ptr, _Right_size);

  000e2	8b 4d fc	 mov	 ecx, DWORD PTR __Left_size$1$[ebp]

; 66   :         _CSTD memcpy(_First1, _First2, _Count * sizeof(_Elem));

  000e5	56		 push	 esi
  000e6	ff 75 10	 push	 DWORD PTR __Right$[ebp]

; 2806 :         _Traits::copy(_Ptr + static_cast<ptrdiff_t>(_Left_size), _Right_ptr, _Right_size);

  000e9	03 cb		 add	 ecx, ebx

; 66   :         _CSTD memcpy(_First1, _First2, _Count * sizeof(_Elem));

  000eb	51		 push	 ecx
  000ec	e8 00 00 00 00	 call	 _memcpy

; 2807 :         _Traits::assign(_Ptr[_New_size], _Elem());

  000f1	8b 45 f8	 mov	 eax, DWORD PTR __New_size$1$[ebp]

; 66   :         _CSTD memcpy(_First1, _First2, _Count * sizeof(_Elem));

  000f4	83 c4 18	 add	 esp, 24			; 00000018H

; 2807 :         _Traits::assign(_Ptr[_New_size], _Elem());

  000f7	c6 04 03 00	 mov	 BYTE PTR [ebx+eax], 0

; 4942 :     }
; 4943 : 
; 4944 :     return {_String_constructor_concat_tag{}, _Left, _Left.c_str(), _Left_size, _Right, _Right_size};

  000fb	8b 45 08	 mov	 eax, DWORD PTR ___$ReturnUdt$[ebp]
  000fe	5b		 pop	 ebx

; 4945 : }

  000ff	5f		 pop	 edi
  00100	5e		 pop	 esi
  00101	8b e5		 mov	 esp, ebp
  00103	5d		 pop	 ebp
  00104	c3		 ret	 0
$LN54@operator:

; 4941 :         _Xlen_string();

  00105	e8 00 00 00 00	 call	 ?_Xlen_string@std@@YAXXZ ; std::_Xlen_string
$LN52@operator:
  0010a	cc		 int	 3
??$?HDU?$char_traits@D@std@@V?$allocator@D@1@@std@@YA?AV?$basic_string@DU?$char_traits@D@std@@V?$allocator@D@2@@0@ABV10@QBD@Z ENDP ; std::operator+<char,std::char_traits<char>,std::allocator<char> >
_TEXT	ENDS
; Function compile flags: /Ogtp
;	COMDAT ??_GCDragButton@UI@@UAEPAXI@Z
_TEXT	SEGMENT
___flags$ = 8						; size = 4
??_GCDragButton@UI@@UAEPAXI@Z PROC			; UI::CDragButton::`scalar deleting destructor', COMDAT
; _this$ = ecx
  00000	55		 push	 ebp
  00001	8b ec		 mov	 ebp, esp
  00003	56		 push	 esi
  00004	8b f1		 mov	 esi, ecx
  00006	e8 00 00 00 00	 call	 ??1CDragButton@UI@@UAE@XZ ; UI::CDragButton::~CDragButton
  0000b	f6 45 08 01	 test	 BYTE PTR ___flags$[ebp], 1
  0000f	74 0e		 je	 SHORT $LN4@scalar
  00011	68 1c 01 00 00	 push	 284			; 0000011cH
  00016	56		 push	 esi
  00017	e8 00 00 00 00	 call	 ??3@YAXPAXI@Z		; operator delete
  0001c	83 c4 08	 add	 esp, 8
$LN4@scalar:
  0001f	8b c6		 mov	 eax, esi
  00021	5e		 pop	 esi
  00022	5d		 pop	 ebp
  00023	c2 04 00	 ret	 4
??_GCDragButton@UI@@UAEPAXI@Z ENDP			; UI::CDragButton::`scalar deleting destructor'
_TEXT	ENDS
; Function compile flags: /Ogtp
; File C:\Marty 5.5\Src-Client\Client\eterPythonLib\PythonWindow.cpp
;	COMDAT ?OnMouseOverOut@CDragButton@UI@@MAEXXZ
_TEXT	SEGMENT
?OnMouseOverOut@CDragButton@UI@@MAEXXZ PROC		; UI::CDragButton::OnMouseOverOut, COMDAT
; _this$ = ecx

; 2035 : 	{

  00000	56		 push	 esi
  00001	8b f1		 mov	 esi, ecx

; 2036 : 		if (!IsEnable())

  00003	e8 00 00 00 00	 call	 ?IsEnable@CButton@UI@@IAEHXZ ; UI::CButton::IsEnable
  00008	85 c0		 test	 eax, eax
  0000a	74 1d		 je	 SHORT $LN1@OnMouseOve

; 2037 : 			return;
; 2038 : 
; 2039 : 		CButton::OnMouseOverIn();

  0000c	8b ce		 mov	 ecx, esi
  0000e	e8 00 00 00 00	 call	 ?OnMouseOverIn@CButton@UI@@MAEXXZ ; UI::CButton::OnMouseOverIn

; 2040 : 		PyCallClassMemberFunc(m_poHandler, "OnMouseOverOut", BuildEmptyTuple());

  00013	e8 00 00 00 00	 call	 ?BuildEmptyTuple@UI@@YAPAU_object@@XZ ; UI::BuildEmptyTuple
  00018	50		 push	 eax
  00019	68 00 00 00 00	 push	 OFFSET ??_C@_0P@KLLBNOAI@OnMouseOverOut@
  0001e	ff 76 5c	 push	 DWORD PTR [esi+92]
  00021	e8 00 00 00 00	 call	 ?PyCallClassMemberFunc@@YA_NPAU_object@@PBD0@Z ; PyCallClassMemberFunc
  00026	83 c4 0c	 add	 esp, 12			; 0000000cH
$LN1@OnMouseOve:

; 2041 : 	}

  00029	5e		 pop	 esi
  0002a	c3		 ret	 0
?OnMouseOverOut@CDragButton@UI@@MAEXXZ ENDP		; UI::CDragButton::OnMouseOverOut
_TEXT	ENDS
; Function compile flags: /Ogtp
; File C:\Marty 5.5\Src-Client\Client\eterPythonLib\PythonWindow.cpp
;	COMDAT ?OnMouseOverIn@CDragButton@UI@@MAEXXZ
_TEXT	SEGMENT
?OnMouseOverIn@CDragButton@UI@@MAEXXZ PROC		; UI::CDragButton::OnMouseOverIn, COMDAT
; _this$ = ecx

; 2025 : 	{

  00000	56		 push	 esi
  00001	8b f1		 mov	 esi, ecx

; 2026 : 		if (!IsEnable())

  00003	e8 00 00 00 00	 call	 ?IsEnable@CButton@UI@@IAEHXZ ; UI::CButton::IsEnable
  00008	85 c0		 test	 eax, eax
  0000a	74 1d		 je	 SHORT $LN1@OnMouseOve

; 2027 : 
; 2028 : 			return;
; 2029 : 
; 2030 : 		CButton::OnMouseOverIn();

  0000c	8b ce		 mov	 ecx, esi
  0000e	e8 00 00 00 00	 call	 ?OnMouseOverIn@CButton@UI@@MAEXXZ ; UI::CButton::OnMouseOverIn

; 2031 : 		PyCallClassMemberFunc(m_poHandler, "OnMouseOverIn", BuildEmptyTuple());

  00013	e8 00 00 00 00	 call	 ?BuildEmptyTuple@UI@@YAPAU_object@@XZ ; UI::BuildEmptyTuple
  00018	50		 push	 eax
  00019	68 00 00 00 00	 push	 OFFSET ??_C@_0O@JKDAFDCC@OnMouseOverIn@
  0001e	ff 76 5c	 push	 DWORD PTR [esi+92]
  00021	e8 00 00 00 00	 call	 ?PyCallClassMemberFunc@@YA_NPAU_object@@PBD0@Z ; PyCallClassMemberFunc
  00026	83 c4 0c	 add	 esp, 12			; 0000000cH
$LN1@OnMouseOve:

; 2032 : 	}

  00029	5e		 pop	 esi
  0002a	c3		 ret	 0
?OnMouseOverIn@CDragButton@UI@@MAEXXZ ENDP		; UI::CDragButton::OnMouseOverIn
_TEXT	ENDS
; Function compile flags: /Ogtp
; File C:\Marty 5.5\Src-Client\Client\eterPythonLib\PythonWindow.cpp
; File C:\Program Files\Microsoft Visual Studio\2022\Community\VC\Tools\MSVC\14.37.32822\include\list
; File C:\Marty 5.5\Src-Client\Client\eterPythonLib\PythonWindow.cpp
; File C:\Program Files\Microsoft Visual Studio\2022\Community\VC\Tools\MSVC\14.37.32822\include\list
; File C:\Program Files\Microsoft Visual Studio\2022\Community\VC\Tools\MSVC\14.37.32822\include\algorithm
; File C:\Program Files\Microsoft Visual Studio\2022\Community\VC\Tools\MSVC\14.37.32822\include\type_traits
; File C:\Program Files\Microsoft Visual Studio\2022\Community\VC\Tools\MSVC\14.37.32822\include\list
; File C:\Program Files\Microsoft Visual Studio\2022\Community\VC\Tools\MSVC\14.37.32822\include\algorithm
; File C:\Marty 5.5\Src-Client\Client\eterPythonLib\PythonWindow.cpp
;	COMDAT ?OnChangePosition@CDragButton@UI@@MAEXXZ
_TEXT	SEGMENT
?OnChangePosition@CDragButton@UI@@MAEXXZ PROC		; UI::CDragButton::OnChangePosition, COMDAT
; _this$ = ecx

; 1996 : 	{

  00000	53		 push	 ebx
  00001	56		 push	 esi
  00002	57		 push	 edi
  00003	8b f9		 mov	 edi, ecx

; 1997 : 		m_x = max(m_x, m_restrictArea.left);

  00005	8b 87 0c 01 00
	00		 mov	 eax, DWORD PTR [edi+268]
  0000b	8b 57 24	 mov	 edx, DWORD PTR [edi+36]
  0000e	3b d0		 cmp	 edx, eax

; 1998 : 		m_y = max(m_y, m_restrictArea.top);

  00010	8b 4f 28	 mov	 ecx, DWORD PTR [edi+40]

; 1999 : 		m_x = min(m_x, max(0, m_restrictArea.right - m_lWidth));

  00013	8b b7 14 01 00
	00		 mov	 esi, DWORD PTR [edi+276]
  00019	0f 4e d0	 cmovle	 edx, eax
  0001c	8b 87 10 01 00
	00		 mov	 eax, DWORD PTR [edi+272]
  00022	3b c8		 cmp	 ecx, eax
  00024	0f 4e c8	 cmovle	 ecx, eax
  00027	2b 77 2c	 sub	 esi, DWORD PTR [edi+44]
  0002a	b8 00 00 00 00	 mov	 eax, 0
  0002f	0f 49 c6	 cmovns	 eax, esi
  00032	3b d0		 cmp	 edx, eax
  00034	7c 09		 jl	 SHORT $LN12@OnChangePo
  00036	33 c0		 xor	 eax, eax
  00038	8b d6		 mov	 edx, esi
  0003a	85 f6		 test	 esi, esi
  0003c	0f 48 d0	 cmovs	 edx, eax
$LN12@OnChangePo:

; 2000 : 		m_y = min(m_y, max(0, m_restrictArea.bottom - m_lHeight));

  0003f	8b b7 18 01 00
	00		 mov	 esi, DWORD PTR [edi+280]
  00045	b8 00 00 00 00	 mov	 eax, 0
  0004a	8b 5f 30	 mov	 ebx, DWORD PTR [edi+48]
  0004d	2b f3		 sub	 esi, ebx
  0004f	89 57 24	 mov	 DWORD PTR [edi+36], edx
  00052	0f 49 c6	 cmovns	 eax, esi
  00055	3b c8		 cmp	 ecx, eax
  00057	7c 09		 jl	 SHORT $LN18@OnChangePo
  00059	33 c0		 xor	 eax, eax
  0005b	8b ce		 mov	 ecx, esi
  0005d	85 f6		 test	 esi, esi
  0005f	0f 48 c8	 cmovs	 ecx, eax
$LN18@OnChangePo:

; 2001 : 
; 2002 : 		m_rect.left = m_x;
; 2003 : 		m_rect.top = m_y;
; 2004 : 
; 2005 : 		if (m_pParent)

  00062	8b 77 60	 mov	 esi, DWORD PTR [edi+96]
  00065	89 4f 28	 mov	 DWORD PTR [edi+40], ecx
  00068	89 57 34	 mov	 DWORD PTR [edi+52], edx
  0006b	89 4f 38	 mov	 DWORD PTR [edi+56], ecx
  0006e	85 f6		 test	 esi, esi
  00070	74 0c		 je	 SHORT $LN2@OnChangePo

; 2006 : 		{
; 2007 : 			const RECT & c_rRect = m_pParent->GetRect();
; 2008 : 			m_rect.left += c_rRect.left;

  00072	03 56 34	 add	 edx, DWORD PTR [esi+52]
  00075	89 57 34	 mov	 DWORD PTR [edi+52], edx

; 2009 : 			m_rect.top += c_rRect.top;

  00078	03 4e 38	 add	 ecx, DWORD PTR [esi+56]
  0007b	89 4f 38	 mov	 DWORD PTR [edi+56], ecx
$LN2@OnChangePo:

; 2010 : 		}
; 2011 : 
; 2012 : 		m_rect.right = m_rect.left + m_lWidth;

  0007e	8b 47 2c	 mov	 eax, DWORD PTR [edi+44]
  00081	03 c2		 add	 eax, edx
  00083	89 47 3c	 mov	 DWORD PTR [edi+60], eax

; 2013 : 		m_rect.bottom = m_rect.top + m_lHeight;

  00086	8d 04 0b	 lea	 eax, DWORD PTR [ebx+ecx]
; File C:\Program Files\Microsoft Visual Studio\2022\Community\VC\Tools\MSVC\14.37.32822\include\list

; 38   :     _List_unchecked_const_iterator(_Nodeptr _Pnode, const _Mylist* _Plist) noexcept : _Ptr(_Pnode) {

  00089	8b 5f 64	 mov	 ebx, DWORD PTR [edi+100]
; File C:\Marty 5.5\Src-Client\Client\eterPythonLib\PythonWindow.cpp

; 2013 : 		m_rect.bottom = m_rect.top + m_lHeight;

  0008c	89 47 40	 mov	 DWORD PTR [edi+64], eax
; File C:\Program Files\Microsoft Visual Studio\2022\Community\VC\Tools\MSVC\14.37.32822\include\list

; 38   :     _List_unchecked_const_iterator(_Nodeptr _Pnode, const _Mylist* _Plist) noexcept : _Ptr(_Pnode) {

  0008f	8b 33		 mov	 esi, DWORD PTR [ebx]

; 73   :         return _Ptr == _Right._Ptr;

  00091	3b f3		 cmp	 esi, ebx
; File C:\Program Files\Microsoft Visual Studio\2022\Community\VC\Tools\MSVC\14.37.32822\include\algorithm

; 245  :     for (; _UFirst != _ULast; ++_UFirst) {

  00093	74 0e		 je	 SHORT $LN44@OnChangePo
$LL88@OnChangePo:
; File C:\Program Files\Microsoft Visual Studio\2022\Community\VC\Tools\MSVC\14.37.32822\include\type_traits

; 1768 :         return ((*static_cast<_Ty1&&>(_Arg1)).*_Obj)(static_cast<_Types2&&>(_Args2)...);

  00095	8b 4e 08	 mov	 ecx, DWORD PTR [esi+8]
  00098	e8 00 00 00 00	 call	 ?UpdateRect@CWindow@UI@@QAEJXZ ; UI::CWindow::UpdateRect
; File C:\Program Files\Microsoft Visual Studio\2022\Community\VC\Tools\MSVC\14.37.32822\include\list

; 51   :         _Ptr = _Ptr->_Next;

  0009d	8b 36		 mov	 esi, DWORD PTR [esi]

; 73   :         return _Ptr == _Right._Ptr;

  0009f	3b f3		 cmp	 esi, ebx
; File C:\Program Files\Microsoft Visual Studio\2022\Community\VC\Tools\MSVC\14.37.32822\include\algorithm

; 245  :     for (; _UFirst != _ULast; ++_UFirst) {

  000a1	75 f2		 jne	 SHORT $LL88@OnChangePo
$LN44@OnChangePo:
; File C:\Marty 5.5\Src-Client\Client\eterPythonLib\PythonWindow.cpp

; 2017 : 		if (m_pcurVisual)

  000a3	8b 8f 88 00 00
	00		 mov	 ecx, DWORD PTR [edi+136]
  000a9	85 c9		 test	 ecx, ecx
  000ab	74 23		 je	 SHORT $LN3@OnChangePo

; 2018 : 			m_pcurVisual->SetPosition(m_rect.left, m_rect.top);

  000ad	66 0f 6e 47 38	 movd	 xmm0, DWORD PTR [edi+56]
  000b2	83 ec 08	 sub	 esp, 8
  000b5	0f 5b c0	 cvtdq2ps xmm0, xmm0
  000b8	f3 0f 11 44 24
	04		 movss	 DWORD PTR [esp+4], xmm0
  000be	66 0f 6e 47 34	 movd	 xmm0, DWORD PTR [edi+52]
  000c3	0f 5b c0	 cvtdq2ps xmm0, xmm0
  000c6	f3 0f 11 04 24	 movss	 DWORD PTR [esp], xmm0
  000cb	e8 00 00 00 00	 call	 ?SetPosition@CGraphicImageInstance@@QAEXMM@Z ; CGraphicImageInstance::SetPosition
$LN3@OnChangePo:

; 2019 : 
; 2020 : 		if (IsPressed())

  000d0	8b cf		 mov	 ecx, edi
  000d2	e8 00 00 00 00	 call	 ?IsPressed@CButton@UI@@QAEHXZ ; UI::CButton::IsPressed
  000d7	85 c0		 test	 eax, eax
  000d9	74 16		 je	 SHORT $LN4@OnChangePo

; 2021 : 			PyCallClassMemberFunc(m_poHandler, "OnMove", BuildEmptyTuple());

  000db	e8 00 00 00 00	 call	 ?BuildEmptyTuple@UI@@YAPAU_object@@XZ ; UI::BuildEmptyTuple
  000e0	50		 push	 eax
  000e1	68 00 00 00 00	 push	 OFFSET ??_C@_06GJPOLLJG@OnMove@
  000e6	ff 77 5c	 push	 DWORD PTR [edi+92]
  000e9	e8 00 00 00 00	 call	 ?PyCallClassMemberFunc@@YA_NPAU_object@@PBD0@Z ; PyCallClassMemberFunc
  000ee	83 c4 0c	 add	 esp, 12			; 0000000cH
$LN4@OnChangePo:

; 2022 : 	}

  000f1	5f		 pop	 edi
  000f2	5e		 pop	 esi
  000f3	5b		 pop	 ebx
  000f4	c3		 ret	 0
?OnChangePosition@CDragButton@UI@@MAEXXZ ENDP		; UI::CDragButton::OnChangePosition
_TEXT	ENDS
; Function compile flags: /Ogtp
; File C:\Marty 5.5\Src-Client\Client\eterPythonLib\PythonWindow.cpp
;	COMDAT ?SetRestrictMovementArea@CDragButton@UI@@QAEXHHHH@Z
_TEXT	SEGMENT
_ix$ = 8						; size = 4
_iy$ = 12						; size = 4
_iwidth$ = 16						; size = 4
_iheight$ = 20						; size = 4
?SetRestrictMovementArea@CDragButton@UI@@QAEXHHHH@Z PROC ; UI::CDragButton::SetRestrictMovementArea, COMDAT
; _this$ = ecx

; 1988 : 	{

  00000	55		 push	 ebp
  00001	8b ec		 mov	 ebp, esp

; 1989 : 		m_restrictArea.left = ix;

  00003	8b 55 08	 mov	 edx, DWORD PTR _ix$[ebp]

; 1990 : 		m_restrictArea.top = iy;
; 1991 : 		m_restrictArea.right = ix + iwidth;

  00006	8b 45 10	 mov	 eax, DWORD PTR _iwidth$[ebp]
  00009	03 c2		 add	 eax, edx
  0000b	89 91 0c 01 00
	00		 mov	 DWORD PTR [ecx+268], edx
  00011	89 81 14 01 00
	00		 mov	 DWORD PTR [ecx+276], eax

; 1992 : 		m_restrictArea.bottom = iy + iheight;

  00017	8b 45 14	 mov	 eax, DWORD PTR _iheight$[ebp]
  0001a	56		 push	 esi
  0001b	8b 75 0c	 mov	 esi, DWORD PTR _iy$[ebp]
  0001e	03 c6		 add	 eax, esi
  00020	89 b1 10 01 00
	00		 mov	 DWORD PTR [ecx+272], esi
  00026	89 81 18 01 00
	00		 mov	 DWORD PTR [ecx+280], eax
  0002c	5e		 pop	 esi

; 1993 : 	}

  0002d	5d		 pop	 ebp
  0002e	c2 10 00	 ret	 16			; 00000010H
?SetRestrictMovementArea@CDragButton@UI@@QAEXHHHH@Z ENDP ; UI::CDragButton::SetRestrictMovementArea
_TEXT	ENDS
; Function compile flags: /Ogtp
; File C:\Marty 5.5\Src-Client\Client\eterPythonLib\PythonWindow.cpp
;	COMDAT ??1CDragButton@UI@@UAE@XZ
_TEXT	SEGMENT
??1CDragButton@UI@@UAE@XZ PROC				; UI::CDragButton::~CDragButton, COMDAT
; _this$ = ecx

; 1984 : 	{

  00000	c7 01 00 00 00
	00		 mov	 DWORD PTR [ecx], OFFSET ??_7CDragButton@UI@@6B@

; 1985 : 	}

  00006	e9 00 00 00 00	 jmp	 ??1CButton@UI@@UAE@XZ	; UI::CButton::~CButton
??1CDragButton@UI@@UAE@XZ ENDP				; UI::CDragButton::~CDragButton
_TEXT	ENDS
; Function compile flags: /Ogtp
; File C:\Marty 5.5\Src-Client\Client\eterPythonLib\PythonWindow.cpp
; File C:\Marty 5.5\Src-Client\Client\eterPythonLib\PythonWindow.h
; File C:\Marty 5.5\Src-Client\Client\eterPythonLib\PythonWindow.cpp
;	COMDAT ??0CDragButton@UI@@QAE@PAU_object@@@Z
_TEXT	SEGMENT
_this$ = -4						; size = 4
_ppyObject$ = 8						; size = 4
??0CDragButton@UI@@QAE@PAU_object@@@Z PROC		; UI::CDragButton::CDragButton, COMDAT
; _this$ = ecx

; 1976 : 	{

  00000	55		 push	 ebp
  00001	8b ec		 mov	 ebp, esp
  00003	51		 push	 ecx
  00004	56		 push	 esi
  00005	ff 75 08	 push	 DWORD PTR _ppyObject$[ebp]
  00008	8b f1		 mov	 esi, ecx
  0000a	89 75 fc	 mov	 DWORD PTR _this$[ebp], esi
  0000d	e8 00 00 00 00	 call	 ??0CButton@UI@@QAE@PAU_object@@@Z ; UI::CButton::CButton
; File C:\Marty 5.5\Src-Client\Client\eterPythonLib\PythonWindow.h

; 99   : 			void			RemoveFlag(DWORD flag)	{ REMOVE_BIT(m_dwFlag, flag);	}

  00012	81 66 58 7f ff
	ff ff		 and	 DWORD PTR [esi+88], -129 ; ffffff7fH
; File C:\Marty 5.5\Src-Client\Client\eterPythonLib\PythonWindow.cpp

; 1976 : 	{

  00019	c7 06 00 00 00
	00		 mov	 DWORD PTR [esi], OFFSET ??_7CDragButton@UI@@6B@

; 1977 : 		CWindow::RemoveFlag(CWindow::FLAG_NOT_CAPTURE);
; 1978 : 		m_restrictArea.left = 0;

  0001f	c7 86 0c 01 00
	00 00 00 00 00	 mov	 DWORD PTR [esi+268], 0

; 1979 : 		m_restrictArea.top = 0;

  00029	c7 86 10 01 00
	00 00 00 00 00	 mov	 DWORD PTR [esi+272], 0

; 1980 : 		m_restrictArea.right = CWindowManager::Instance().GetScreenWidth();

  00033	a1 00 00 00 00	 mov	 eax, DWORD PTR ?ms_singleton@?$CSingleton@VCWindowManager@UI@@@@0PAVCWindowManager@UI@@A ; CSingleton<UI::CWindowManager>::ms_singleton
  00038	8b 40 04	 mov	 eax, DWORD PTR [eax+4]
  0003b	89 86 14 01 00
	00		 mov	 DWORD PTR [esi+276], eax

; 1981 : 		m_restrictArea.bottom = CWindowManager::Instance().GetScreenHeight();

  00041	a1 00 00 00 00	 mov	 eax, DWORD PTR ?ms_singleton@?$CSingleton@VCWindowManager@UI@@@@0PAVCWindowManager@UI@@A ; CSingleton<UI::CWindowManager>::ms_singleton
  00046	8b 40 08	 mov	 eax, DWORD PTR [eax+8]
  00049	89 86 18 01 00
	00		 mov	 DWORD PTR [esi+280], eax

; 1982 : 	}

  0004f	8b c6		 mov	 eax, esi
  00051	5e		 pop	 esi
  00052	8b e5		 mov	 esp, ebp
  00054	5d		 pop	 ebp
  00055	c2 04 00	 ret	 4
??0CDragButton@UI@@QAE@PAU_object@@@Z ENDP		; UI::CDragButton::CDragButton
_TEXT	ENDS
; Function compile flags: /Ogtp
;	COMDAT ??_GCToggleButton@UI@@UAEPAXI@Z
_TEXT	SEGMENT
___flags$ = 8						; size = 4
??_GCToggleButton@UI@@UAEPAXI@Z PROC			; UI::CToggleButton::`scalar deleting destructor', COMDAT
; _this$ = ecx
  00000	55		 push	 ebp
  00001	8b ec		 mov	 ebp, esp
  00003	56		 push	 esi
  00004	8b f1		 mov	 esi, ecx
  00006	e8 00 00 00 00	 call	 ??1CToggleButton@UI@@UAE@XZ ; UI::CToggleButton::~CToggleButton
  0000b	f6 45 08 01	 test	 BYTE PTR ___flags$[ebp], 1
  0000f	74 0e		 je	 SHORT $LN4@scalar
  00011	68 0c 01 00 00	 push	 268			; 0000010cH
  00016	56		 push	 esi
  00017	e8 00 00 00 00	 call	 ??3@YAXPAXI@Z		; operator delete
  0001c	83 c4 08	 add	 esp, 8
$LN4@scalar:
  0001f	8b c6		 mov	 eax, esi
  00021	5e		 pop	 esi
  00022	5d		 pop	 ebp
  00023	c2 04 00	 ret	 4
??_GCToggleButton@UI@@UAEPAXI@Z ENDP			; UI::CToggleButton::`scalar deleting destructor'
_TEXT	ENDS
; Function compile flags: /Ogtp
; File C:\Marty 5.5\Src-Client\Client\eterPythonLib\PythonWindow.cpp
;	COMDAT ?OnMouseOverOut@CToggleButton@UI@@MAEXXZ
_TEXT	SEGMENT
?OnMouseOverOut@CToggleButton@UI@@MAEXXZ PROC		; UI::CToggleButton::OnMouseOverOut, COMDAT
; _this$ = ecx

; 1959 : 	{

  00000	56		 push	 esi
  00001	8b f1		 mov	 esi, ecx

; 1960 : 		if (!IsEnable())

  00003	e8 00 00 00 00	 call	 ?IsEnable@CButton@UI@@IAEHXZ ; UI::CButton::IsEnable
  00008	85 c0		 test	 eax, eax
  0000a	74 2d		 je	 SHORT $LN1@OnMouseOve

; 1961 : 			return;
; 1962 : 
; 1963 : 		if (!m_isPressed)

  0000c	83 be 80 00 00
	00 00		 cmp	 DWORD PTR [esi+128], 0
  00013	75 0e		 jne	 SHORT $LN3@OnMouseOve

; 1964 : 		{
; 1965 : 			SetCurrentVisual(&m_upVisual);

  00015	8d 86 8c 00 00
	00		 lea	 eax, DWORD PTR [esi+140]
  0001b	8b ce		 mov	 ecx, esi
  0001d	50		 push	 eax
  0001e	e8 00 00 00 00	 call	 ?SetCurrentVisual@CButton@UI@@IAEXPAVCGraphicImageInstance@@@Z ; UI::CButton::SetCurrentVisual
$LN3@OnMouseOve:

; 1966 : 		}
; 1967 : 
; 1968 : 		PyCallClassMemberFunc(m_poHandler, "HideToolTip", BuildEmptyTuple());

  00023	e8 00 00 00 00	 call	 ?BuildEmptyTuple@UI@@YAPAU_object@@XZ ; UI::BuildEmptyTuple
  00028	50		 push	 eax
  00029	68 00 00 00 00	 push	 OFFSET ??_C@_0M@HCIAMHJN@HideToolTip@
  0002e	ff 76 5c	 push	 DWORD PTR [esi+92]
  00031	e8 00 00 00 00	 call	 ?PyCallClassMemberFunc@@YA_NPAU_object@@PBD0@Z ; PyCallClassMemberFunc
  00036	83 c4 0c	 add	 esp, 12			; 0000000cH
$LN1@OnMouseOve:

; 1969 : 	}

  00039	5e		 pop	 esi
  0003a	c3		 ret	 0
?OnMouseOverOut@CToggleButton@UI@@MAEXXZ ENDP		; UI::CToggleButton::OnMouseOverOut
_TEXT	ENDS
; Function compile flags: /Ogtp
; File C:\Marty 5.5\Src-Client\Client\eterPythonLib\PythonWindow.cpp
;	COMDAT ?OnMouseOverIn@CToggleButton@UI@@MAEXXZ
_TEXT	SEGMENT
?OnMouseOverIn@CToggleButton@UI@@MAEXXZ PROC		; UI::CToggleButton::OnMouseOverIn, COMDAT
; _this$ = ecx

; 1947 : 	{

  00000	56		 push	 esi
  00001	8b f1		 mov	 esi, ecx

; 1948 : 		if (!IsEnable())

  00003	e8 00 00 00 00	 call	 ?IsEnable@CButton@UI@@IAEHXZ ; UI::CButton::IsEnable
  00008	85 c0		 test	 eax, eax
  0000a	74 2d		 je	 SHORT $LN1@OnMouseOve

; 1949 : 			return;
; 1950 : 
; 1951 : 		if (!m_isPressed)

  0000c	83 be 80 00 00
	00 00		 cmp	 DWORD PTR [esi+128], 0
  00013	75 0e		 jne	 SHORT $LN3@OnMouseOve

; 1952 : 		{
; 1953 : 			SetCurrentVisual(&m_overVisual);

  00015	8d 86 ac 00 00
	00		 lea	 eax, DWORD PTR [esi+172]
  0001b	8b ce		 mov	 ecx, esi
  0001d	50		 push	 eax
  0001e	e8 00 00 00 00	 call	 ?SetCurrentVisual@CButton@UI@@IAEXPAVCGraphicImageInstance@@@Z ; UI::CButton::SetCurrentVisual
$LN3@OnMouseOve:

; 1954 : 		}
; 1955 : 
; 1956 : 		PyCallClassMemberFunc(m_poHandler, "ShowToolTip", BuildEmptyTuple());

  00023	e8 00 00 00 00	 call	 ?BuildEmptyTuple@UI@@YAPAU_object@@XZ ; UI::BuildEmptyTuple
  00028	50		 push	 eax
  00029	68 00 00 00 00	 push	 OFFSET ??_C@_0M@LEFCMAKP@ShowToolTip@
  0002e	ff 76 5c	 push	 DWORD PTR [esi+92]
  00031	e8 00 00 00 00	 call	 ?PyCallClassMemberFunc@@YA_NPAU_object@@PBD0@Z ; PyCallClassMemberFunc
  00036	83 c4 0c	 add	 esp, 12			; 0000000cH
$LN1@OnMouseOve:

; 1957 : 	}

  00039	5e		 pop	 esi
  0003a	c3		 ret	 0
?OnMouseOverIn@CToggleButton@UI@@MAEXXZ ENDP		; UI::CToggleButton::OnMouseOverIn
_TEXT	ENDS
; Function compile flags: /Ogtp
; File C:\Marty 5.5\Src-Client\Client\eterPythonLib\PythonWindow.cpp
;	COMDAT ?OnMouseLeftButtonUp@CToggleButton@UI@@MAEHXZ
_TEXT	SEGMENT
?OnMouseLeftButtonUp@CToggleButton@UI@@MAEHXZ PROC	; UI::CToggleButton::OnMouseLeftButtonUp, COMDAT
; _this$ = ecx

; 1943 : 		return TRUE;

  00000	b8 01 00 00 00	 mov	 eax, 1

; 1944 : 	}

  00005	c3		 ret	 0
?OnMouseLeftButtonUp@CToggleButton@UI@@MAEHXZ ENDP	; UI::CToggleButton::OnMouseLeftButtonUp
_TEXT	ENDS
; Function compile flags: /Ogtp
; File C:\Marty 5.5\Src-Client\Client\eterPythonLib\PythonWindow.cpp
;	COMDAT ?OnMouseLeftButtonDown@CToggleButton@UI@@MAEHXZ
_TEXT	SEGMENT
?OnMouseLeftButtonDown@CToggleButton@UI@@MAEHXZ PROC	; UI::CToggleButton::OnMouseLeftButtonDown, COMDAT
; _this$ = ecx

; 1920 : 	{

  00000	56		 push	 esi
  00001	8b f1		 mov	 esi, ecx

; 1921 : 		if (!IsEnable())

  00003	e8 00 00 00 00	 call	 ?IsEnable@CButton@UI@@IAEHXZ ; UI::CButton::IsEnable
  00008	85 c0		 test	 eax, eax
  0000a	74 51		 je	 SHORT $LN10@OnMouseLef

; 1922 : 			return TRUE;
; 1923 : 
; 1924 : 		if (m_isPressed)

  0000c	83 be 80 00 00
	00 00		 cmp	 DWORD PTR [esi+128], 0
  00013	8b ce		 mov	 ecx, esi
  00015	57		 push	 edi
  00016	74 28		 je	 SHORT $LN3@OnMouseLef

; 1925 : 		{
; 1926 : 			SetUp();

  00018	e8 00 00 00 00	 call	 ?SetUp@CButton@UI@@QAEXXZ ; UI::CButton::SetUp

; 1927 : 			if (IsIn())

  0001d	8b ce		 mov	 ecx, esi
  0001f	e8 00 00 00 00	 call	 ?IsIn@CWindow@UI@@QAE_NXZ ; UI::CWindow::IsIn

; 1928 : 				SetCurrentVisual(&m_overVisual);
; 1929 : 			else
; 1930 : 				SetCurrentVisual(&m_upVisual);
; 1931 : 			PyCallClassMemberFunc(m_poHandler, "OnToggleUp", BuildEmptyTuple());

  00024	0f b6 c0	 movzx	 eax, al
  00027	8b ce		 mov	 ecx, esi
  00029	c1 e0 05	 shl	 eax, 5
  0002c	05 8c 00 00 00	 add	 eax, 140		; 0000008cH
  00031	03 c6		 add	 eax, esi
  00033	50		 push	 eax
  00034	e8 00 00 00 00	 call	 ?SetCurrentVisual@CButton@UI@@IAEXPAVCGraphicImageInstance@@@Z ; UI::CButton::SetCurrentVisual
  00039	bf 00 00 00 00	 mov	 edi, OFFSET ??_C@_0L@HGABHAMN@OnToggleUp@

; 1932 : 		}

  0003e	eb 0a		 jmp	 SHORT $LN4@OnMouseLef
$LN3@OnMouseLef:

; 1933 : 		else
; 1934 : 		{
; 1935 : 			Down();

  00040	e8 00 00 00 00	 call	 ?Down@CButton@UI@@QAEXXZ ; UI::CButton::Down

; 1936 : 			PyCallClassMemberFunc(m_poHandler, "OnToggleDown", BuildEmptyTuple());

  00045	bf 00 00 00 00	 mov	 edi, OFFSET ??_C@_0N@NBGLGPDJ@OnToggleDown@
$LN4@OnMouseLef:

; 1937 : 		}
; 1938 : 
; 1939 : 		return TRUE;

  0004a	e8 00 00 00 00	 call	 ?BuildEmptyTuple@UI@@YAPAU_object@@XZ ; UI::BuildEmptyTuple
  0004f	50		 push	 eax
  00050	57		 push	 edi
  00051	ff 76 5c	 push	 DWORD PTR [esi+92]
  00054	e8 00 00 00 00	 call	 ?PyCallClassMemberFunc@@YA_NPAU_object@@PBD0@Z ; PyCallClassMemberFunc
  00059	83 c4 0c	 add	 esp, 12			; 0000000cH
  0005c	5f		 pop	 edi
$LN10@OnMouseLef:

; 1940 : 	}

  0005d	b8 01 00 00 00	 mov	 eax, 1
  00062	5e		 pop	 esi
  00063	c3		 ret	 0
?OnMouseLeftButtonDown@CToggleButton@UI@@MAEHXZ ENDP	; UI::CToggleButton::OnMouseLeftButtonDown
_TEXT	ENDS
; Function compile flags: /Ogtp
; File C:\Marty 5.5\Src-Client\Client\eterPythonLib\PythonWindow.cpp
;	COMDAT ??1CToggleButton@UI@@UAE@XZ
_TEXT	SEGMENT
??1CToggleButton@UI@@UAE@XZ PROC			; UI::CToggleButton::~CToggleButton, COMDAT
; _this$ = ecx

; 1916 : 	{

  00000	c7 01 00 00 00
	00		 mov	 DWORD PTR [ecx], OFFSET ??_7CToggleButton@UI@@6B@

; 1917 : 	}

  00006	e9 00 00 00 00	 jmp	 ??1CButton@UI@@UAE@XZ	; UI::CButton::~CButton
??1CToggleButton@UI@@UAE@XZ ENDP			; UI::CToggleButton::~CToggleButton
_TEXT	ENDS
; Function compile flags: /Ogtp
; File C:\Marty 5.5\Src-Client\Client\eterPythonLib\PythonWindow.cpp
;	COMDAT ??0CToggleButton@UI@@QAE@PAU_object@@@Z
_TEXT	SEGMENT
_this$ = -4						; size = 4
_ppyObject$ = 8						; size = 4
??0CToggleButton@UI@@QAE@PAU_object@@@Z PROC		; UI::CToggleButton::CToggleButton, COMDAT
; _this$ = ecx

; 1913 : 	{

  00000	55		 push	 ebp
  00001	8b ec		 mov	 ebp, esp
  00003	51		 push	 ecx
  00004	56		 push	 esi
  00005	ff 75 08	 push	 DWORD PTR _ppyObject$[ebp]
  00008	8b f1		 mov	 esi, ecx
  0000a	89 75 fc	 mov	 DWORD PTR _this$[ebp], esi
  0000d	e8 00 00 00 00	 call	 ??0CButton@UI@@QAE@PAU_object@@@Z ; UI::CButton::CButton
  00012	c7 06 00 00 00
	00		 mov	 DWORD PTR [esi], OFFSET ??_7CToggleButton@UI@@6B@

; 1914 : 	}

  00018	8b c6		 mov	 eax, esi
  0001a	5e		 pop	 esi
  0001b	8b e5		 mov	 esp, ebp
  0001d	5d		 pop	 ebp
  0001e	c2 04 00	 ret	 4
??0CToggleButton@UI@@QAE@PAU_object@@@Z ENDP		; UI::CToggleButton::CToggleButton
_TEXT	ENDS
; Function compile flags: /Ogtp
;	COMDAT ??_GCRadioButton@UI@@UAEPAXI@Z
_TEXT	SEGMENT
___flags$ = 8						; size = 4
??_GCRadioButton@UI@@UAEPAXI@Z PROC			; UI::CRadioButton::`scalar deleting destructor', COMDAT
; _this$ = ecx
  00000	55		 push	 ebp
  00001	8b ec		 mov	 ebp, esp
  00003	56		 push	 esi
  00004	8b f1		 mov	 esi, ecx
  00006	e8 00 00 00 00	 call	 ??1CRadioButton@UI@@UAE@XZ ; UI::CRadioButton::~CRadioButton
  0000b	f6 45 08 01	 test	 BYTE PTR ___flags$[ebp], 1
  0000f	74 0e		 je	 SHORT $LN4@scalar
  00011	68 0c 01 00 00	 push	 268			; 0000010cH
  00016	56		 push	 esi
  00017	e8 00 00 00 00	 call	 ??3@YAXPAXI@Z		; operator delete
  0001c	83 c4 08	 add	 esp, 8
$LN4@scalar:
  0001f	8b c6		 mov	 eax, esi
  00021	5e		 pop	 esi
  00022	5d		 pop	 ebp
  00023	c2 04 00	 ret	 4
??_GCRadioButton@UI@@UAEPAXI@Z ENDP			; UI::CRadioButton::`scalar deleting destructor'
_TEXT	ENDS
; Function compile flags: /Ogtp
; File C:\Marty 5.5\Src-Client\Client\eterPythonLib\PythonWindow.cpp
;	COMDAT ?OnMouseOverOut@CRadioButton@UI@@MAEXXZ
_TEXT	SEGMENT
?OnMouseOverOut@CRadioButton@UI@@MAEXXZ PROC		; UI::CRadioButton::OnMouseOverOut, COMDAT
; _this$ = ecx

; 1896 : 	{

  00000	56		 push	 esi
  00001	8b f1		 mov	 esi, ecx

; 1897 : 		if (!IsEnable())

  00003	e8 00 00 00 00	 call	 ?IsEnable@CButton@UI@@IAEHXZ ; UI::CButton::IsEnable
  00008	85 c0		 test	 eax, eax
  0000a	74 2d		 je	 SHORT $LN1@OnMouseOve

; 1898 : 			return;
; 1899 : 
; 1900 : 		if (!m_isPressed)

  0000c	83 be 80 00 00
	00 00		 cmp	 DWORD PTR [esi+128], 0
  00013	75 0e		 jne	 SHORT $LN3@OnMouseOve

; 1901 : 		{
; 1902 : 			SetCurrentVisual(&m_upVisual);

  00015	8d 86 8c 00 00
	00		 lea	 eax, DWORD PTR [esi+140]
  0001b	8b ce		 mov	 ecx, esi
  0001d	50		 push	 eax
  0001e	e8 00 00 00 00	 call	 ?SetCurrentVisual@CButton@UI@@IAEXPAVCGraphicImageInstance@@@Z ; UI::CButton::SetCurrentVisual
$LN3@OnMouseOve:

; 1903 : 		}
; 1904 : 
; 1905 : 		PyCallClassMemberFunc(m_poHandler, "HideToolTip", BuildEmptyTuple());

  00023	e8 00 00 00 00	 call	 ?BuildEmptyTuple@UI@@YAPAU_object@@XZ ; UI::BuildEmptyTuple
  00028	50		 push	 eax
  00029	68 00 00 00 00	 push	 OFFSET ??_C@_0M@HCIAMHJN@HideToolTip@
  0002e	ff 76 5c	 push	 DWORD PTR [esi+92]
  00031	e8 00 00 00 00	 call	 ?PyCallClassMemberFunc@@YA_NPAU_object@@PBD0@Z ; PyCallClassMemberFunc
  00036	83 c4 0c	 add	 esp, 12			; 0000000cH
$LN1@OnMouseOve:

; 1906 : 	}

  00039	5e		 pop	 esi
  0003a	c3		 ret	 0
?OnMouseOverOut@CRadioButton@UI@@MAEXXZ ENDP		; UI::CRadioButton::OnMouseOverOut
_TEXT	ENDS
; Function compile flags: /Ogtp
; File C:\Marty 5.5\Src-Client\Client\eterPythonLib\PythonWindow.cpp
;	COMDAT ?OnMouseOverIn@CRadioButton@UI@@MAEXXZ
_TEXT	SEGMENT
?OnMouseOverIn@CRadioButton@UI@@MAEXXZ PROC		; UI::CRadioButton::OnMouseOverIn, COMDAT
; _this$ = ecx

; 1884 : 	{

  00000	56		 push	 esi
  00001	8b f1		 mov	 esi, ecx

; 1885 : 		if (!IsEnable())

  00003	e8 00 00 00 00	 call	 ?IsEnable@CButton@UI@@IAEHXZ ; UI::CButton::IsEnable
  00008	85 c0		 test	 eax, eax
  0000a	74 2d		 je	 SHORT $LN1@OnMouseOve

; 1886 : 			return;
; 1887 : 
; 1888 : 		if (!m_isPressed)

  0000c	83 be 80 00 00
	00 00		 cmp	 DWORD PTR [esi+128], 0
  00013	75 0e		 jne	 SHORT $LN3@OnMouseOve

; 1889 : 		{
; 1890 : 			SetCurrentVisual(&m_overVisual);

  00015	8d 86 ac 00 00
	00		 lea	 eax, DWORD PTR [esi+172]
  0001b	8b ce		 mov	 ecx, esi
  0001d	50		 push	 eax
  0001e	e8 00 00 00 00	 call	 ?SetCurrentVisual@CButton@UI@@IAEXPAVCGraphicImageInstance@@@Z ; UI::CButton::SetCurrentVisual
$LN3@OnMouseOve:

; 1891 : 		}
; 1892 : 
; 1893 : 		PyCallClassMemberFunc(m_poHandler, "ShowToolTip", BuildEmptyTuple());

  00023	e8 00 00 00 00	 call	 ?BuildEmptyTuple@UI@@YAPAU_object@@XZ ; UI::BuildEmptyTuple
  00028	50		 push	 eax
  00029	68 00 00 00 00	 push	 OFFSET ??_C@_0M@LEFCMAKP@ShowToolTip@
  0002e	ff 76 5c	 push	 DWORD PTR [esi+92]
  00031	e8 00 00 00 00	 call	 ?PyCallClassMemberFunc@@YA_NPAU_object@@PBD0@Z ; PyCallClassMemberFunc
  00036	83 c4 0c	 add	 esp, 12			; 0000000cH
$LN1@OnMouseOve:

; 1894 : 	}

  00039	5e		 pop	 esi
  0003a	c3		 ret	 0
?OnMouseOverIn@CRadioButton@UI@@MAEXXZ ENDP		; UI::CRadioButton::OnMouseOverIn
_TEXT	ENDS
; Function compile flags: /Ogtp
; File C:\Marty 5.5\Src-Client\Client\eterPythonLib\PythonWindow.cpp
;	COMDAT ?OnMouseLeftButtonUp@CRadioButton@UI@@MAEHXZ
_TEXT	SEGMENT
?OnMouseLeftButtonUp@CRadioButton@UI@@MAEHXZ PROC	; UI::CRadioButton::OnMouseLeftButtonUp, COMDAT
; _this$ = ecx

; 1881 : 		return TRUE;

  00000	b8 01 00 00 00	 mov	 eax, 1

; 1882 : 	}

  00005	c3		 ret	 0
?OnMouseLeftButtonUp@CRadioButton@UI@@MAEHXZ ENDP	; UI::CRadioButton::OnMouseLeftButtonUp
_TEXT	ENDS
; Function compile flags: /Ogtp
; File C:\Marty 5.5\Src-Client\Client\eterPythonLib\PythonWindow.cpp
;	COMDAT ?OnMouseLeftButtonDown@CRadioButton@UI@@MAEHXZ
_TEXT	SEGMENT
?OnMouseLeftButtonDown@CRadioButton@UI@@MAEHXZ PROC	; UI::CRadioButton::OnMouseLeftButtonDown, COMDAT
; _this$ = ecx

; 1867 : 	{

  00000	56		 push	 esi
  00001	8b f1		 mov	 esi, ecx

; 1868 : 		if (!IsEnable())

  00003	e8 00 00 00 00	 call	 ?IsEnable@CButton@UI@@IAEHXZ ; UI::CButton::IsEnable
  00008	85 c0		 test	 eax, eax
  0000a	74 26		 je	 SHORT $LN7@OnMouseLef

; 1869 : 			return TRUE;
; 1870 : 
; 1871 : 		if (!m_isPressed)

  0000c	83 be 80 00 00
	00 00		 cmp	 DWORD PTR [esi+128], 0
  00013	75 1d		 jne	 SHORT $LN7@OnMouseLef

; 1872 : 		{
; 1873 : 			Down();

  00015	8b ce		 mov	 ecx, esi
  00017	e8 00 00 00 00	 call	 ?Down@CButton@UI@@QAEXXZ ; UI::CButton::Down

; 1874 : 			PyCallClassMemberFunc(m_poHandler, "CallEvent", BuildEmptyTuple());

  0001c	e8 00 00 00 00	 call	 ?BuildEmptyTuple@UI@@YAPAU_object@@XZ ; UI::BuildEmptyTuple
  00021	50		 push	 eax
  00022	68 00 00 00 00	 push	 OFFSET ??_C@_09MFFHPOPB@CallEvent@
  00027	ff 76 5c	 push	 DWORD PTR [esi+92]
  0002a	e8 00 00 00 00	 call	 ?PyCallClassMemberFunc@@YA_NPAU_object@@PBD0@Z ; PyCallClassMemberFunc
  0002f	83 c4 0c	 add	 esp, 12			; 0000000cH
$LN7@OnMouseLef:

; 1875 : 		}
; 1876 : 
; 1877 : 		return TRUE;
; 1878 : 	}

  00032	b8 01 00 00 00	 mov	 eax, 1
  00037	5e		 pop	 esi
  00038	c3		 ret	 0
?OnMouseLeftButtonDown@CRadioButton@UI@@MAEHXZ ENDP	; UI::CRadioButton::OnMouseLeftButtonDown
_TEXT	ENDS
; Function compile flags: /Ogtp
; File C:\Marty 5.5\Src-Client\Client\eterPythonLib\PythonWindow.cpp
;	COMDAT ??1CRadioButton@UI@@UAE@XZ
_TEXT	SEGMENT
??1CRadioButton@UI@@UAE@XZ PROC				; UI::CRadioButton::~CRadioButton, COMDAT
; _this$ = ecx

; 1863 : 	{

  00000	c7 01 00 00 00
	00		 mov	 DWORD PTR [ecx], OFFSET ??_7CRadioButton@UI@@6B@

; 1864 : 	}

  00006	e9 00 00 00 00	 jmp	 ??1CButton@UI@@UAE@XZ	; UI::CButton::~CButton
??1CRadioButton@UI@@UAE@XZ ENDP				; UI::CRadioButton::~CRadioButton
_TEXT	ENDS
; Function compile flags: /Ogtp
; File C:\Marty 5.5\Src-Client\Client\eterPythonLib\PythonWindow.cpp
;	COMDAT ??0CRadioButton@UI@@QAE@PAU_object@@@Z
_TEXT	SEGMENT
_this$ = -4						; size = 4
_ppyObject$ = 8						; size = 4
??0CRadioButton@UI@@QAE@PAU_object@@@Z PROC		; UI::CRadioButton::CRadioButton, COMDAT
; _this$ = ecx

; 1860 : 	{

  00000	55		 push	 ebp
  00001	8b ec		 mov	 ebp, esp
  00003	51		 push	 ecx
  00004	56		 push	 esi
  00005	ff 75 08	 push	 DWORD PTR _ppyObject$[ebp]
  00008	8b f1		 mov	 esi, ecx
  0000a	89 75 fc	 mov	 DWORD PTR _this$[ebp], esi
  0000d	e8 00 00 00 00	 call	 ??0CButton@UI@@QAE@PAU_object@@@Z ; UI::CButton::CButton
  00012	c7 06 00 00 00
	00		 mov	 DWORD PTR [esi], OFFSET ??_7CRadioButton@UI@@6B@

; 1861 : 	}

  00018	8b c6		 mov	 eax, esi
  0001a	5e		 pop	 esi
  0001b	8b e5		 mov	 esp, ebp
  0001d	5d		 pop	 ebp
  0001e	c2 04 00	 ret	 4
??0CRadioButton@UI@@QAE@PAU_object@@@Z ENDP		; UI::CRadioButton::CRadioButton
_TEXT	ENDS
; Function compile flags: /Ogtp
;	COMDAT ??_GCButton@UI@@UAEPAXI@Z
_TEXT	SEGMENT
___flags$ = 8						; size = 4
??_GCButton@UI@@UAEPAXI@Z PROC				; UI::CButton::`scalar deleting destructor', COMDAT
; _this$ = ecx
  00000	55		 push	 ebp
  00001	8b ec		 mov	 ebp, esp
  00003	56		 push	 esi
  00004	8b f1		 mov	 esi, ecx
  00006	e8 00 00 00 00	 call	 ??1CButton@UI@@UAE@XZ	; UI::CButton::~CButton
  0000b	f6 45 08 01	 test	 BYTE PTR ___flags$[ebp], 1
  0000f	74 0e		 je	 SHORT $LN4@scalar
  00011	68 0c 01 00 00	 push	 268			; 0000010cH
  00016	56		 push	 esi
  00017	e8 00 00 00 00	 call	 ??3@YAXPAXI@Z		; operator delete
  0001c	83 c4 08	 add	 esp, 8
$LN4@scalar:
  0001f	8b c6		 mov	 eax, esi
  00021	5e		 pop	 esi
  00022	5d		 pop	 ebp
  00023	c2 04 00	 ret	 4
??_GCButton@UI@@UAEPAXI@Z ENDP				; UI::CButton::`scalar deleting destructor'
_TEXT	ENDS
; Function compile flags: /Ogtp
; File C:\Marty 5.5\Src-Client\Client\eterPythonLib\PythonWindow.cpp
;	COMDAT ?SetCurrentVisual@CButton@UI@@IAEXPAVCGraphicImageInstance@@@Z
_TEXT	SEGMENT
_pVisual$ = 8						; size = 4
?SetCurrentVisual@CButton@UI@@IAEXPAVCGraphicImageInstance@@@Z PROC ; UI::CButton::SetCurrentVisual, COMDAT
; _this$ = ecx

; 1840 : 	{

  00000	55		 push	 ebp
  00001	8b ec		 mov	 ebp, esp
  00003	66 0f 6e 41 38	 movd	 xmm0, DWORD PTR [ecx+56]

; 1841 : 		m_pcurVisual = pVisual;
; 1842 : 		m_pcurVisual->SetPosition(m_rect.left, m_rect.top);

  00008	83 ec 08	 sub	 esp, 8
  0000b	8b 45 08	 mov	 eax, DWORD PTR _pVisual$[ebp]
  0000e	0f 5b c0	 cvtdq2ps xmm0, xmm0
  00011	89 81 88 00 00
	00		 mov	 DWORD PTR [ecx+136], eax
  00017	f3 0f 11 44 24
	04		 movss	 DWORD PTR [esp+4], xmm0
  0001d	66 0f 6e 41 34	 movd	 xmm0, DWORD PTR [ecx+52]
  00022	8b c8		 mov	 ecx, eax
  00024	0f 5b c0	 cvtdq2ps xmm0, xmm0
  00027	f3 0f 11 04 24	 movss	 DWORD PTR [esp], xmm0
  0002c	e8 00 00 00 00	 call	 ?SetPosition@CGraphicImageInstance@@QAEXMM@Z ; CGraphicImageInstance::SetPosition

; 1843 : 	}

  00031	5d		 pop	 ebp
  00032	c2 04 00	 ret	 4
?SetCurrentVisual@CButton@UI@@IAEXPAVCGraphicImageInstance@@@Z ENDP ; UI::CButton::SetCurrentVisual
_TEXT	ENDS
; Function compile flags: /Ogtp
; File C:\Marty 5.5\Src-Client\Client\eterPythonLib\PythonWindow.cpp
;	COMDAT ?IsEnable@CButton@UI@@IAEHXZ
_TEXT	SEGMENT
?IsEnable@CButton@UI@@IAEHXZ PROC			; UI::CButton::IsEnable, COMDAT
; _this$ = ecx

; 1847 : 		return m_bEnable;

  00000	8b 41 7c	 mov	 eax, DWORD PTR [ecx+124]

; 1848 : 	}

  00003	c3		 ret	 0
?IsEnable@CButton@UI@@IAEHXZ ENDP			; UI::CButton::IsEnable
_TEXT	ENDS
; Function compile flags: /Ogtp
; File C:\Marty 5.5\Src-Client\Client\eterPythonLib\PythonWindow.cpp
;	COMDAT ?OnMouseOverOut@CButton@UI@@MAEXXZ
_TEXT	SEGMENT
?OnMouseOverOut@CButton@UI@@MAEXXZ PROC			; UI::CButton::OnMouseOverOut, COMDAT
; _this$ = ecx

; 1831 : 	{

  00000	56		 push	 esi
  00001	8b f1		 mov	 esi, ecx

; 1832 : 		if (!IsEnable())

  00003	e8 00 00 00 00	 call	 ?IsEnable@CButton@UI@@IAEHXZ ; UI::CButton::IsEnable
  00008	85 c0		 test	 eax, eax
  0000a	74 1d		 je	 SHORT $LN1@OnMouseOve

; 1833 : 			return;
; 1834 : 
; 1835 : 		SetUp();

  0000c	8b ce		 mov	 ecx, esi
  0000e	e8 00 00 00 00	 call	 ?SetUp@CButton@UI@@QAEXXZ ; UI::CButton::SetUp

; 1836 : 		PyCallClassMemberFunc(m_poHandler, "HideToolTip", BuildEmptyTuple());

  00013	e8 00 00 00 00	 call	 ?BuildEmptyTuple@UI@@YAPAU_object@@XZ ; UI::BuildEmptyTuple
  00018	50		 push	 eax
  00019	68 00 00 00 00	 push	 OFFSET ??_C@_0M@HCIAMHJN@HideToolTip@
  0001e	ff 76 5c	 push	 DWORD PTR [esi+92]
  00021	e8 00 00 00 00	 call	 ?PyCallClassMemberFunc@@YA_NPAU_object@@PBD0@Z ; PyCallClassMemberFunc
  00026	83 c4 0c	 add	 esp, 12			; 0000000cH
$LN1@OnMouseOve:

; 1837 : 	}

  00029	5e		 pop	 esi
  0002a	c3		 ret	 0
?OnMouseOverOut@CButton@UI@@MAEXXZ ENDP			; UI::CButton::OnMouseOverOut
_TEXT	ENDS
; Function compile flags: /Ogtp
; File C:\Marty 5.5\Src-Client\Client\eterPythonLib\PythonWindow.cpp
;	COMDAT ?OnMouseOverIn@CButton@UI@@MAEXXZ
_TEXT	SEGMENT
?OnMouseOverIn@CButton@UI@@MAEXXZ PROC			; UI::CButton::OnMouseOverIn, COMDAT
; _this$ = ecx

; 1823 : 	{

  00000	56		 push	 esi
  00001	8b f1		 mov	 esi, ecx

; 1824 : 		if (!IsEnable())

  00003	e8 00 00 00 00	 call	 ?IsEnable@CButton@UI@@IAEHXZ ; UI::CButton::IsEnable
  00008	85 c0		 test	 eax, eax
  0000a	74 1d		 je	 SHORT $LN1@OnMouseOve

; 1825 : 			return;
; 1826 : 
; 1827 : 		Over();

  0000c	8b ce		 mov	 ecx, esi
  0000e	e8 00 00 00 00	 call	 ?Over@CButton@UI@@QAEXXZ ; UI::CButton::Over

; 1828 : 		PyCallClassMemberFunc(m_poHandler, "ShowToolTip", BuildEmptyTuple());

  00013	e8 00 00 00 00	 call	 ?BuildEmptyTuple@UI@@YAPAU_object@@XZ ; UI::BuildEmptyTuple
  00018	50		 push	 eax
  00019	68 00 00 00 00	 push	 OFFSET ??_C@_0M@LEFCMAKP@ShowToolTip@
  0001e	ff 76 5c	 push	 DWORD PTR [esi+92]
  00021	e8 00 00 00 00	 call	 ?PyCallClassMemberFunc@@YA_NPAU_object@@PBD0@Z ; PyCallClassMemberFunc
  00026	83 c4 0c	 add	 esp, 12			; 0000000cH
$LN1@OnMouseOve:

; 1829 : 	}

  00029	5e		 pop	 esi
  0002a	c3		 ret	 0
?OnMouseOverIn@CButton@UI@@MAEXXZ ENDP			; UI::CButton::OnMouseOverIn
_TEXT	ENDS
; Function compile flags: /Ogtp
; File C:\Marty 5.5\Src-Client\Client\eterPythonLib\PythonWindow.cpp
;	COMDAT ?OnMouseLeftButtonUp@CButton@UI@@MAEHXZ
_TEXT	SEGMENT
?OnMouseLeftButtonUp@CButton@UI@@MAEHXZ PROC		; UI::CButton::OnMouseLeftButtonUp, COMDAT
; _this$ = ecx

; 1811 : 	{

  00000	56		 push	 esi
  00001	8b f1		 mov	 esi, ecx

; 1812 : 		if (!IsEnable())

  00003	e8 00 00 00 00	 call	 ?IsEnable@CButton@UI@@IAEHXZ ; UI::CButton::IsEnable
  00008	85 c0		 test	 eax, eax
  0000a	74 1c		 je	 SHORT $LN5@OnMouseLef

; 1813 : 			return TRUE;
; 1814 : 		if (!IsPressed())

  0000c	8b ce		 mov	 ecx, esi
  0000e	e8 00 00 00 00	 call	 ?IsPressed@CButton@UI@@QAEHXZ ; UI::CButton::IsPressed
  00013	85 c0		 test	 eax, eax
  00015	74 11		 je	 SHORT $LN5@OnMouseLef

; 1815 : 			return TRUE;
; 1816 : 
; 1817 : 		m_isPressed = FALSE;
; 1818 : 		Up();

  00017	8b ce		 mov	 ecx, esi
  00019	c7 86 80 00 00
	00 00 00 00 00	 mov	 DWORD PTR [esi+128], 0
  00023	e8 00 00 00 00	 call	 ?Up@CButton@UI@@QAEXXZ	; UI::CButton::Up
$LN5@OnMouseLef:

; 1819 : 
; 1820 : 		return TRUE;
; 1821 : 	}

  00028	b8 01 00 00 00	 mov	 eax, 1
  0002d	5e		 pop	 esi
  0002e	c3		 ret	 0
?OnMouseLeftButtonUp@CButton@UI@@MAEHXZ ENDP		; UI::CButton::OnMouseLeftButtonUp
_TEXT	ENDS
; Function compile flags: /Ogtp
; File C:\Marty 5.5\Src-Client\Client\eterPythonLib\PythonWindow.cpp
;	COMDAT ?OnMouseLeftButtonDoubleClick@CButton@UI@@MAEHXZ
_TEXT	SEGMENT
?OnMouseLeftButtonDoubleClick@CButton@UI@@MAEHXZ PROC	; UI::CButton::OnMouseLeftButtonDoubleClick, COMDAT
; _this$ = ecx

; 1802 : 	{

  00000	56		 push	 esi
  00001	8b f1		 mov	 esi, ecx

; 1803 : 		if (!IsEnable())

  00003	e8 00 00 00 00	 call	 ?IsEnable@CButton@UI@@IAEHXZ ; UI::CButton::IsEnable
  00008	85 c0		 test	 eax, eax
  0000a	74 07		 je	 SHORT $LN5@OnMouseLef

; 1804 : 			return TRUE;
; 1805 : 
; 1806 : 		OnMouseLeftButtonDown();

  0000c	8b 06		 mov	 eax, DWORD PTR [esi]
  0000e	8b ce		 mov	 ecx, esi
  00010	ff 50 58	 call	 DWORD PTR [eax+88]
$LN5@OnMouseLef:

; 1807 : 
; 1808 : 		return TRUE;
; 1809 : 	}

  00013	b8 01 00 00 00	 mov	 eax, 1
  00018	5e		 pop	 esi
  00019	c3		 ret	 0
?OnMouseLeftButtonDoubleClick@CButton@UI@@MAEHXZ ENDP	; UI::CButton::OnMouseLeftButtonDoubleClick
_TEXT	ENDS
; Function compile flags: /Ogtp
; File C:\Marty 5.5\Src-Client\Client\eterPythonLib\PythonWindow.cpp
;	COMDAT ?OnMouseLeftButtonDown@CButton@UI@@MAEHXZ
_TEXT	SEGMENT
?OnMouseLeftButtonDown@CButton@UI@@MAEHXZ PROC		; UI::CButton::OnMouseLeftButtonDown, COMDAT
; _this$ = ecx

; 1792 : 	{

  00000	56		 push	 esi
  00001	8b f1		 mov	 esi, ecx

; 1793 : 		if (!IsEnable())

  00003	e8 00 00 00 00	 call	 ?IsEnable@CButton@UI@@IAEHXZ ; UI::CButton::IsEnable
  00008	85 c0		 test	 eax, eax
  0000a	74 11		 je	 SHORT $LN5@OnMouseLef

; 1794 : 			return TRUE;
; 1795 : 
; 1796 : 		m_isPressed = TRUE;
; 1797 : 		Down();

  0000c	8b ce		 mov	 ecx, esi
  0000e	c7 86 80 00 00
	00 01 00 00 00	 mov	 DWORD PTR [esi+128], 1
  00018	e8 00 00 00 00	 call	 ?Down@CButton@UI@@QAEXXZ ; UI::CButton::Down
$LN5@OnMouseLef:

; 1798 : 
; 1799 : 		return TRUE;
; 1800 : 	}

  0001d	b8 01 00 00 00	 mov	 eax, 1
  00022	5e		 pop	 esi
  00023	c3		 ret	 0
?OnMouseLeftButtonDown@CButton@UI@@MAEHXZ ENDP		; UI::CButton::OnMouseLeftButtonDown
_TEXT	ENDS
; Function compile flags: /Ogtp
; File C:\Marty 5.5\Src-Client\Client\eterPythonLib\PythonWindow.cpp
;	COMDAT ?OnChangePosition@CButton@UI@@MAEXXZ
_TEXT	SEGMENT
?OnChangePosition@CButton@UI@@MAEXXZ PROC		; UI::CButton::OnChangePosition, COMDAT
; _this$ = ecx

; 1787 : 		if (m_pcurVisual)

  00000	8b 81 88 00 00
	00		 mov	 eax, DWORD PTR [ecx+136]
  00006	85 c0		 test	 eax, eax
  00008	74 25		 je	 SHORT $LN2@OnChangePo

; 1788 : 			m_pcurVisual->SetPosition(m_rect.left, m_rect.top);

  0000a	66 0f 6e 41 38	 movd	 xmm0, DWORD PTR [ecx+56]
  0000f	83 ec 08	 sub	 esp, 8
  00012	0f 5b c0	 cvtdq2ps xmm0, xmm0
  00015	f3 0f 11 44 24
	04		 movss	 DWORD PTR [esp+4], xmm0
  0001b	66 0f 6e 41 34	 movd	 xmm0, DWORD PTR [ecx+52]
  00020	8b c8		 mov	 ecx, eax
  00022	0f 5b c0	 cvtdq2ps xmm0, xmm0
  00025	f3 0f 11 04 24	 movss	 DWORD PTR [esp], xmm0
  0002a	e8 00 00 00 00	 call	 ?SetPosition@CGraphicImageInstance@@QAEXMM@Z ; CGraphicImageInstance::SetPosition
$LN2@OnChangePo:

; 1789 : 	}

  0002f	c3		 ret	 0
?OnChangePosition@CButton@UI@@MAEXXZ ENDP		; UI::CButton::OnChangePosition
_TEXT	ENDS
; Function compile flags: /Ogtp
; File C:\Marty 5.5\Src-Client\Client\eterPythonLib\PythonWindow.cpp
;	COMDAT ?OnRender@CButton@UI@@MAEXXZ
_TEXT	SEGMENT
?OnRender@CButton@UI@@MAEXXZ PROC			; UI::CButton::OnRender, COMDAT
; _this$ = ecx

; 1767 : 	{

  00000	56		 push	 esi
  00001	8b f1		 mov	 esi, ecx

; 1768 : 		if (!IsShow())

  00003	80 7e 55 00	 cmp	 BYTE PTR [esi+85], 0
  00007	74 53		 je	 SHORT $LN1@OnRender

; 1769 : 			return;
; 1770 : 
; 1771 : 		if (m_pcurVisual)

  00009	83 be 88 00 00
	00 00		 cmp	 DWORD PTR [esi+136], 0
  00010	74 34		 je	 SHORT $LN3@OnRender

; 1772 : 		{
; 1773 : 			if (m_isFlash)

  00012	83 be 84 00 00
	00 00		 cmp	 DWORD PTR [esi+132], 0
  00019	74 20		 je	 SHORT $LN6@OnRender

; 1774 : 			if (!IsIn())

  0001b	e8 00 00 00 00	 call	 ?IsIn@CWindow@UI@@QAE_NXZ ; UI::CWindow::IsIn
  00020	84 c0		 test	 al, al
  00022	75 17		 jne	 SHORT $LN6@OnRender

; 1775 : 			if (int(timeGetTime() / 500)%2)

  00024	ff 15 00 00 00
	00		 call	 DWORD PTR __imp__timeGetTime@0
  0002a	8b c8		 mov	 ecx, eax
  0002c	b8 d3 4d 62 10	 mov	 eax, 274877907		; 10624dd3H
  00031	f7 e1		 mul	 ecx
  00033	c1 ea 05	 shr	 edx, 5
  00036	f6 c2 01	 test	 dl, 1
  00039	75 21		 jne	 SHORT $LN1@OnRender
$LN6@OnRender:

; 1776 : 			{
; 1777 : 				return;
; 1778 : 			}
; 1779 : 
; 1780 : 			m_pcurVisual->Render();

  0003b	8b 8e 88 00 00
	00		 mov	 ecx, DWORD PTR [esi+136]
  00041	e8 00 00 00 00	 call	 ?Render@CGraphicImageInstance@@QAEXXZ ; CGraphicImageInstance::Render
$LN3@OnRender:

; 1781 : 		}
; 1782 : 
; 1783 : 		PyCallClassMemberFunc(m_poHandler, "OnRender", BuildEmptyTuple());

  00046	e8 00 00 00 00	 call	 ?BuildEmptyTuple@UI@@YAPAU_object@@XZ ; UI::BuildEmptyTuple
  0004b	50		 push	 eax
  0004c	68 00 00 00 00	 push	 OFFSET ??_C@_08PAJMEILO@OnRender@
  00051	ff 76 5c	 push	 DWORD PTR [esi+92]
  00054	e8 00 00 00 00	 call	 ?PyCallClassMemberFunc@@YA_NPAU_object@@PBD0@Z ; PyCallClassMemberFunc
  00059	83 c4 0c	 add	 esp, 12			; 0000000cH
$LN1@OnRender:

; 1784 : 	}

  0005c	5e		 pop	 esi
  0005d	c3		 ret	 0
?OnRender@CButton@UI@@MAEXXZ ENDP			; UI::CButton::OnRender
_TEXT	ENDS
; Function compile flags: /Ogtp
; File C:\Marty 5.5\Src-Client\Client\eterPythonLib\PythonWindow.cpp
;	COMDAT ?OnUpdate@CButton@UI@@MAEXXZ
_TEXT	SEGMENT
?OnUpdate@CButton@UI@@MAEXXZ PROC			; UI::CButton::OnUpdate, COMDAT
; _this$ = ecx

; 1765 : 	}

  00000	c2 00 00	 ret	 0
?OnUpdate@CButton@UI@@MAEXXZ ENDP			; UI::CButton::OnUpdate
_TEXT	ENDS
; Function compile flags: /Ogtp
; File C:\Marty 5.5\Src-Client\Client\eterPythonLib\PythonWindow.cpp
;	COMDAT ?IsPressed@CButton@UI@@QAEHXZ
_TEXT	SEGMENT
?IsPressed@CButton@UI@@QAEHXZ PROC			; UI::CButton::IsPressed, COMDAT
; _this$ = ecx

; 1852 : 		return m_isPressed;

  00000	8b 81 80 00 00
	00		 mov	 eax, DWORD PTR [ecx+128]

; 1853 : 	}

  00006	c3		 ret	 0
?IsPressed@CButton@UI@@QAEHXZ ENDP			; UI::CButton::IsPressed
_TEXT	ENDS
; Function compile flags: /Ogtp
; File C:\Marty 5.5\Src-Client\Client\eterPythonLib\PythonWindow.cpp
;	COMDAT ?IsDisable@CButton@UI@@QAEHXZ
_TEXT	SEGMENT
?IsDisable@CButton@UI@@QAEHXZ PROC			; UI::CButton::IsDisable, COMDAT
; _this$ = ecx

; 1735 : 		return m_bEnable;

  00000	8b 41 7c	 mov	 eax, DWORD PTR [ecx+124]

; 1736 : 	}

  00003	c3		 ret	 0
?IsDisable@CButton@UI@@QAEHXZ ENDP			; UI::CButton::IsDisable
_TEXT	ENDS
; Function compile flags: /Ogtp
; File C:\Marty 5.5\Src-Client\Client\eterPythonLib\PythonWindow.cpp
;	COMDAT ?Down@CButton@UI@@QAEXXZ
_TEXT	SEGMENT
?Down@CButton@UI@@QAEXXZ PROC				; UI::CButton::Down, COMDAT
; _this$ = ecx

; 1757 : 	{

  00000	56		 push	 esi
  00001	8b f1		 mov	 esi, ecx

; 1758 : 		m_isPressed = TRUE;
; 1759 : 		SetCurrentVisual(&m_downVisual);

  00003	8d 86 cc 00 00
	00		 lea	 eax, DWORD PTR [esi+204]
  00009	c7 86 80 00 00
	00 01 00 00 00	 mov	 DWORD PTR [esi+128], 1
  00013	50		 push	 eax
  00014	e8 00 00 00 00	 call	 ?SetCurrentVisual@CButton@UI@@IAEXPAVCGraphicImageInstance@@@Z ; UI::CButton::SetCurrentVisual

; 1760 : 		PyCallClassMemberFunc(m_poHandler, "DownEvent", BuildEmptyTuple());

  00019	e8 00 00 00 00	 call	 ?BuildEmptyTuple@UI@@YAPAU_object@@XZ ; UI::BuildEmptyTuple
  0001e	50		 push	 eax
  0001f	68 00 00 00 00	 push	 OFFSET ??_C@_09FJAHACEO@DownEvent@
  00024	ff 76 5c	 push	 DWORD PTR [esi+92]
  00027	e8 00 00 00 00	 call	 ?PyCallClassMemberFunc@@YA_NPAU_object@@PBD0@Z ; PyCallClassMemberFunc
  0002c	83 c4 0c	 add	 esp, 12			; 0000000cH
  0002f	5e		 pop	 esi

; 1761 : 	}

  00030	c3		 ret	 0
?Down@CButton@UI@@QAEXXZ ENDP				; UI::CButton::Down
_TEXT	ENDS
; Function compile flags: /Ogtp
; File C:\Marty 5.5\Src-Client\Client\eterPythonLib\PythonWindow.cpp
;	COMDAT ?Over@CButton@UI@@QAEXXZ
_TEXT	SEGMENT
?Over@CButton@UI@@QAEXXZ PROC				; UI::CButton::Over, COMDAT
; _this$ = ecx

; 1754 : 		SetCurrentVisual(&m_overVisual);

  00000	8d 81 ac 00 00
	00		 lea	 eax, DWORD PTR [ecx+172]
  00006	50		 push	 eax
  00007	e8 00 00 00 00	 call	 ?SetCurrentVisual@CButton@UI@@IAEXPAVCGraphicImageInstance@@@Z ; UI::CButton::SetCurrentVisual

; 1755 : 	}

  0000c	c3		 ret	 0
?Over@CButton@UI@@QAEXXZ ENDP				; UI::CButton::Over
_TEXT	ENDS
; Function compile flags: /Ogtp
; File C:\Marty 5.5\Src-Client\Client\eterPythonLib\PythonWindow.cpp
;	COMDAT ?Up@CButton@UI@@QAEXXZ
_TEXT	SEGMENT
?Up@CButton@UI@@QAEXXZ PROC				; UI::CButton::Up, COMDAT
; _this$ = ecx

; 1744 : 	{

  00000	56		 push	 esi
  00001	8b f1		 mov	 esi, ecx

; 1745 : 		if (IsIn())

  00003	e8 00 00 00 00	 call	 ?IsIn@CWindow@UI@@QAE_NXZ ; UI::CWindow::IsIn

; 1746 : 			SetCurrentVisual(&m_overVisual);
; 1747 : 		else
; 1748 : 			SetCurrentVisual(&m_upVisual);
; 1749 : 
; 1750 : 		PyCallClassMemberFunc(m_poHandler, "CallEvent", BuildEmptyTuple());

  00008	0f b6 c0	 movzx	 eax, al
  0000b	8b ce		 mov	 ecx, esi
  0000d	c1 e0 05	 shl	 eax, 5
  00010	05 8c 00 00 00	 add	 eax, 140		; 0000008cH
  00015	03 c6		 add	 eax, esi
  00017	50		 push	 eax
  00018	e8 00 00 00 00	 call	 ?SetCurrentVisual@CButton@UI@@IAEXPAVCGraphicImageInstance@@@Z ; UI::CButton::SetCurrentVisual
  0001d	e8 00 00 00 00	 call	 ?BuildEmptyTuple@UI@@YAPAU_object@@XZ ; UI::BuildEmptyTuple
  00022	50		 push	 eax
  00023	68 00 00 00 00	 push	 OFFSET ??_C@_09MFFHPOPB@CallEvent@
  00028	ff 76 5c	 push	 DWORD PTR [esi+92]
  0002b	e8 00 00 00 00	 call	 ?PyCallClassMemberFunc@@YA_NPAU_object@@PBD0@Z ; PyCallClassMemberFunc
  00030	83 c4 0c	 add	 esp, 12			; 0000000cH
  00033	5e		 pop	 esi

; 1751 : 	}

  00034	c3		 ret	 0
?Up@CButton@UI@@QAEXXZ ENDP				; UI::CButton::Up
_TEXT	ENDS
; Function compile flags: /Ogtp
; File C:\Marty 5.5\Src-Client\Client\eterPythonLib\PythonWindow.cpp
;	COMDAT ?SetUp@CButton@UI@@QAEXXZ
_TEXT	SEGMENT
?SetUp@CButton@UI@@QAEXXZ PROC				; UI::CButton::SetUp, COMDAT
; _this$ = ecx

; 1739 : 	{

  00000	56		 push	 esi
  00001	8b f1		 mov	 esi, ecx

; 1740 : 		SetCurrentVisual(&m_upVisual);

  00003	8d 86 8c 00 00
	00		 lea	 eax, DWORD PTR [esi+140]
  00009	50		 push	 eax
  0000a	e8 00 00 00 00	 call	 ?SetCurrentVisual@CButton@UI@@IAEXPAVCGraphicImageInstance@@@Z ; UI::CButton::SetCurrentVisual

; 1741 : 		m_isPressed = FALSE;

  0000f	c7 86 80 00 00
	00 00 00 00 00	 mov	 DWORD PTR [esi+128], 0
  00019	5e		 pop	 esi

; 1742 : 	}

  0001a	c3		 ret	 0
?SetUp@CButton@UI@@QAEXXZ ENDP				; UI::CButton::SetUp
_TEXT	ENDS
; Function compile flags: /Ogtp
; File C:\Marty 5.5\Src-Client\Client\eterPythonLib\PythonWindow.cpp
;	COMDAT ?Disable@CButton@UI@@QAEXXZ
_TEXT	SEGMENT
?Disable@CButton@UI@@QAEXXZ PROC			; UI::CButton::Disable, COMDAT
; _this$ = ecx

; 1727 : 	{

  00000	56		 push	 esi
  00001	8b f1		 mov	 esi, ecx
  00003	57		 push	 edi

; 1728 : 		m_bEnable = FALSE;
; 1729 : 		if (!m_disableVisual.IsEmpty())

  00004	8d be ec 00 00
	00		 lea	 edi, DWORD PTR [esi+236]
  0000a	c7 46 7c 00 00
	00 00		 mov	 DWORD PTR [esi+124], 0
  00011	8b cf		 mov	 ecx, edi
  00013	e8 00 00 00 00	 call	 ?IsEmpty@CGraphicImageInstance@@QBE_NXZ ; CGraphicImageInstance::IsEmpty
  00018	84 c0		 test	 al, al
  0001a	75 08		 jne	 SHORT $LN2@Disable

; 1730 : 			SetCurrentVisual(&m_disableVisual);

  0001c	57		 push	 edi
  0001d	8b ce		 mov	 ecx, esi
  0001f	e8 00 00 00 00	 call	 ?SetCurrentVisual@CButton@UI@@IAEXPAVCGraphicImageInstance@@@Z ; UI::CButton::SetCurrentVisual
$LN2@Disable:

; 1731 : 	}

  00024	5f		 pop	 edi
  00025	5e		 pop	 esi
  00026	c3		 ret	 0
?Disable@CButton@UI@@QAEXXZ ENDP			; UI::CButton::Disable
_TEXT	ENDS
; Function compile flags: /Ogtp
; File C:\Marty 5.5\Src-Client\Client\eterPythonLib\PythonWindow.cpp
;	COMDAT ?Enable@CButton@UI@@QAEXXZ
_TEXT	SEGMENT
?Enable@CButton@UI@@QAEXXZ PROC				; UI::CButton::Enable, COMDAT
; _this$ = ecx

; 1721 : 	{

  00000	56		 push	 esi
  00001	8b f1		 mov	 esi, ecx

; 1722 : 		SetUp();

  00003	e8 00 00 00 00	 call	 ?SetUp@CButton@UI@@QAEXXZ ; UI::CButton::SetUp

; 1723 : 		m_bEnable = TRUE;

  00008	c7 46 7c 01 00
	00 00		 mov	 DWORD PTR [esi+124], 1
  0000f	5e		 pop	 esi

; 1724 : 	}

  00010	c3		 ret	 0
?Enable@CButton@UI@@QAEXXZ ENDP				; UI::CButton::Enable
_TEXT	ENDS
; Function compile flags: /Ogtp
; File C:\Marty 5.5\Src-Client\Client\eterPythonLib\PythonWindow.cpp
;	COMDAT ?Flash@CButton@UI@@QAEXXZ
_TEXT	SEGMENT
?Flash@CButton@UI@@QAEXXZ PROC				; UI::CButton::Flash, COMDAT
; _this$ = ecx

; 1717 : 		m_isFlash = TRUE;

  00000	c7 81 84 00 00
	00 01 00 00 00	 mov	 DWORD PTR [ecx+132], 1

; 1718 : 	}

  0000a	c3		 ret	 0
?Flash@CButton@UI@@QAEXXZ ENDP				; UI::CButton::Flash
_TEXT	ENDS
; Function compile flags: /Ogtp
; File C:\Marty 5.5\Src-Client\Client\eterPythonLib\PythonWindow.cpp
; File C:\Program Files\Microsoft Visual Studio\2022\Community\VC\Tools\MSVC\14.37.32822\include\xstring
; File C:\Marty 5.5\Src-Client\Client\eterPythonLib\PythonWindow.cpp
;	COMDAT ?GetDownVisualFileName@CButton@UI@@QAEPBDXZ
_TEXT	SEGMENT
?GetDownVisualFileName@CButton@UI@@QAEPBDXZ PROC	; UI::CButton::GetDownVisualFileName, COMDAT
; _this$ = ecx

; 1712 : 		return m_downVisual.GetGraphicImagePointer()->GetFileName();

  00000	81 c1 cc 00 00
	00		 add	 ecx, 204		; 000000ccH
  00006	e8 00 00 00 00	 call	 ?GetGraphicImagePointer@CGraphicImageInstance@@QAEPAVCGraphicImage@@XZ ; CGraphicImageInstance::GetGraphicImagePointer
; File C:\Program Files\Microsoft Visual Studio\2022\Community\VC\Tools\MSVC\14.37.32822\include\xstring

; 4107 :         return _Mypair._Myval2._Myptr();

  0000b	83 c0 0c	 add	 eax, 12			; 0000000cH

; 2244 :         return _BUF_SIZE <= _Myres;

  0000e	83 78 14 10	 cmp	 DWORD PTR [eax+20], 16	; 00000010H

; 2236 :         if (_Large_string_engaged()) {

  00012	72 02		 jb	 SHORT $LN8@GetDownVis
; File C:\Marty 5.5\Src-Client\Client\eterPythonLib\PythonWindow.cpp

; 1712 : 		return m_downVisual.GetGraphicImagePointer()->GetFileName();

  00014	8b 00		 mov	 eax, DWORD PTR [eax]
$LN8@GetDownVis:

; 1713 : 	}

  00016	c3		 ret	 0
?GetDownVisualFileName@CButton@UI@@QAEPBDXZ ENDP	; UI::CButton::GetDownVisualFileName
_TEXT	ENDS
; Function compile flags: /Ogtp
; File C:\Marty 5.5\Src-Client\Client\eterPythonLib\PythonWindow.cpp
; File C:\Program Files\Microsoft Visual Studio\2022\Community\VC\Tools\MSVC\14.37.32822\include\xstring
; File C:\Marty 5.5\Src-Client\Client\eterPythonLib\PythonWindow.cpp
;	COMDAT ?GetOverVisualFileName@CButton@UI@@QAEPBDXZ
_TEXT	SEGMENT
?GetOverVisualFileName@CButton@UI@@QAEPBDXZ PROC	; UI::CButton::GetOverVisualFileName, COMDAT
; _this$ = ecx

; 1708 : 		return m_overVisual.GetGraphicImagePointer()->GetFileName();

  00000	81 c1 ac 00 00
	00		 add	 ecx, 172		; 000000acH
  00006	e8 00 00 00 00	 call	 ?GetGraphicImagePointer@CGraphicImageInstance@@QAEPAVCGraphicImage@@XZ ; CGraphicImageInstance::GetGraphicImagePointer
; File C:\Program Files\Microsoft Visual Studio\2022\Community\VC\Tools\MSVC\14.37.32822\include\xstring

; 4107 :         return _Mypair._Myval2._Myptr();

  0000b	83 c0 0c	 add	 eax, 12			; 0000000cH

; 2244 :         return _BUF_SIZE <= _Myres;

  0000e	83 78 14 10	 cmp	 DWORD PTR [eax+20], 16	; 00000010H

; 2236 :         if (_Large_string_engaged()) {

  00012	72 02		 jb	 SHORT $LN8@GetOverVis
; File C:\Marty 5.5\Src-Client\Client\eterPythonLib\PythonWindow.cpp

; 1708 : 		return m_overVisual.GetGraphicImagePointer()->GetFileName();

  00014	8b 00		 mov	 eax, DWORD PTR [eax]
$LN8@GetOverVis:

; 1709 : 	}

  00016	c3		 ret	 0
?GetOverVisualFileName@CButton@UI@@QAEPBDXZ ENDP	; UI::CButton::GetOverVisualFileName
_TEXT	ENDS
; Function compile flags: /Ogtp
; File C:\Marty 5.5\Src-Client\Client\eterPythonLib\PythonWindow.cpp
; File C:\Program Files\Microsoft Visual Studio\2022\Community\VC\Tools\MSVC\14.37.32822\include\xstring
; File C:\Marty 5.5\Src-Client\Client\eterPythonLib\PythonWindow.cpp
;	COMDAT ?GetUpVisualFileName@CButton@UI@@QAEPBDXZ
_TEXT	SEGMENT
?GetUpVisualFileName@CButton@UI@@QAEPBDXZ PROC		; UI::CButton::GetUpVisualFileName, COMDAT
; _this$ = ecx

; 1704 : 		return m_upVisual.GetGraphicImagePointer()->GetFileName();

  00000	81 c1 8c 00 00
	00		 add	 ecx, 140		; 0000008cH
  00006	e8 00 00 00 00	 call	 ?GetGraphicImagePointer@CGraphicImageInstance@@QAEPAVCGraphicImage@@XZ ; CGraphicImageInstance::GetGraphicImagePointer
; File C:\Program Files\Microsoft Visual Studio\2022\Community\VC\Tools\MSVC\14.37.32822\include\xstring

; 4107 :         return _Mypair._Myval2._Myptr();

  0000b	83 c0 0c	 add	 eax, 12			; 0000000cH

; 2244 :         return _BUF_SIZE <= _Myres;

  0000e	83 78 14 10	 cmp	 DWORD PTR [eax+20], 16	; 00000010H

; 2236 :         if (_Large_string_engaged()) {

  00012	72 02		 jb	 SHORT $LN8@GetUpVisua
; File C:\Marty 5.5\Src-Client\Client\eterPythonLib\PythonWindow.cpp

; 1704 : 		return m_upVisual.GetGraphicImagePointer()->GetFileName();

  00014	8b 00		 mov	 eax, DWORD PTR [eax]
$LN8@GetUpVisua:

; 1705 : 	}

  00016	c3		 ret	 0
?GetUpVisualFileName@CButton@UI@@QAEPBDXZ ENDP		; UI::CButton::GetUpVisualFileName
_TEXT	ENDS
; Function compile flags: /Ogtp
; File C:\Marty 5.5\Src-Client\Client\eterPythonLib\PythonWindow.cpp
;	COMDAT ?SetDisableVisual@CButton@UI@@QAEHPBD@Z
_TEXT	SEGMENT
_c_szFileName$ = 8					; size = 4
?SetDisableVisual@CButton@UI@@QAEHPBD@Z PROC		; UI::CButton::SetDisableVisual, COMDAT
; _this$ = ecx

; 1688 : 	{

  00000	55		 push	 ebp
  00001	8b ec		 mov	 ebp, esp
  00003	53		 push	 ebx
  00004	56		 push	 esi
  00005	57		 push	 edi

; 1689 : 		CResource * pResource = CResourceManager::Instance().GetResourcePointer(c_szFileName);

  00006	ff 75 08	 push	 DWORD PTR _c_szFileName$[ebp]
  00009	8b f9		 mov	 edi, ecx
  0000b	8b 0d 00 00 00
	00		 mov	 ecx, DWORD PTR ?ms_singleton@?$CSingleton@VCResourceManager@@@@0PAVCResourceManager@@A ; CSingleton<CResourceManager>::ms_singleton
  00011	e8 00 00 00 00	 call	 ?GetResourcePointer@CResourceManager@@QAEPAVCResource@@PBD@Z ; CResourceManager::GetResourcePointer
  00016	8b d8		 mov	 ebx, eax

; 1690 : 		if (!pResource->IsType(CGraphicImage::Type()))

  00018	e8 00 00 00 00	 call	 ?Type@CGraphicImage@@SAKXZ ; CGraphicImage::Type
  0001d	50		 push	 eax
  0001e	8b cb		 mov	 ecx, ebx
  00020	e8 00 00 00 00	 call	 ?IsType@CResource@@QAE_NK@Z ; CResource::IsType
  00025	84 c0		 test	 al, al
  00027	74 46		 je	 SHORT $LN5@SetDisable

; 1691 : 			return FALSE;
; 1692 : 
; 1693 : 		m_disableVisual.SetImagePointer(static_cast<CGraphicImage*>(pResource));

  00029	53		 push	 ebx
  0002a	8d 8f ec 00 00
	00		 lea	 ecx, DWORD PTR [edi+236]
  00030	e8 00 00 00 00	 call	 ?SetImagePointer@CGraphicImageInstance@@QAEXPAVCGraphicImage@@@Z ; CGraphicImageInstance::SetImagePointer

; 1694 : 		if (m_downVisual.IsEmpty())

  00035	8d 8f cc 00 00
	00		 lea	 ecx, DWORD PTR [edi+204]
  0003b	e8 00 00 00 00	 call	 ?IsEmpty@CGraphicImageInstance@@QBE_NXZ ; CGraphicImageInstance::IsEmpty
  00040	84 c0		 test	 al, al
  00042	75 2b		 jne	 SHORT $LN5@SetDisable

; 1695 : 			return FALSE;
; 1696 : 
; 1697 : 		SetSize(m_disableVisual.GetWidth(), m_disableVisual.GetHeight());

  00044	8d 8f ec 00 00
	00		 lea	 ecx, DWORD PTR [edi+236]
  0004a	e8 00 00 00 00	 call	 ?GetHeight@CGraphicImageInstance@@QAEHXZ ; CGraphicImageInstance::GetHeight
  0004f	50		 push	 eax
  00050	8d 8f ec 00 00
	00		 lea	 ecx, DWORD PTR [edi+236]
  00056	e8 00 00 00 00	 call	 ?GetWidth@CGraphicImageInstance@@QAEHXZ ; CGraphicImageInstance::GetWidth
  0005b	50		 push	 eax
  0005c	8b cf		 mov	 ecx, edi
  0005e	e8 00 00 00 00	 call	 ?SetSize@CWindow@UI@@QAEXJJ@Z ; UI::CWindow::SetSize
  00063	5f		 pop	 edi

; 1698 : 
; 1699 : 		return TRUE;
; 1700 : 	}

  00064	5e		 pop	 esi
  00065	b8 01 00 00 00	 mov	 eax, 1
  0006a	5b		 pop	 ebx
  0006b	5d		 pop	 ebp
  0006c	c2 04 00	 ret	 4
$LN5@SetDisable:
  0006f	5f		 pop	 edi
  00070	5e		 pop	 esi
  00071	33 c0		 xor	 eax, eax
  00073	5b		 pop	 ebx
  00074	5d		 pop	 ebp
  00075	c2 04 00	 ret	 4
?SetDisableVisual@CButton@UI@@QAEHPBD@Z ENDP		; UI::CButton::SetDisableVisual
_TEXT	ENDS
; Function compile flags: /Ogtp
; File C:\Marty 5.5\Src-Client\Client\eterPythonLib\PythonWindow.cpp
;	COMDAT ?SetDownVisual@CButton@UI@@QAEHPBD@Z
_TEXT	SEGMENT
_c_szFileName$ = 8					; size = 4
?SetDownVisual@CButton@UI@@QAEHPBD@Z PROC		; UI::CButton::SetDownVisual, COMDAT
; _this$ = ecx

; 1674 : 	{

  00000	55		 push	 ebp
  00001	8b ec		 mov	 ebp, esp
  00003	53		 push	 ebx
  00004	56		 push	 esi
  00005	57		 push	 edi

; 1675 : 		CResource * pResource = CResourceManager::Instance().GetResourcePointer(c_szFileName);

  00006	ff 75 08	 push	 DWORD PTR _c_szFileName$[ebp]
  00009	8b f9		 mov	 edi, ecx
  0000b	8b 0d 00 00 00
	00		 mov	 ecx, DWORD PTR ?ms_singleton@?$CSingleton@VCResourceManager@@@@0PAVCResourceManager@@A ; CSingleton<CResourceManager>::ms_singleton
  00011	e8 00 00 00 00	 call	 ?GetResourcePointer@CResourceManager@@QAEPAVCResource@@PBD@Z ; CResourceManager::GetResourcePointer
  00016	8b d8		 mov	 ebx, eax

; 1676 : 		if (!pResource->IsType(CGraphicImage::Type()))

  00018	e8 00 00 00 00	 call	 ?Type@CGraphicImage@@SAKXZ ; CGraphicImage::Type
  0001d	50		 push	 eax
  0001e	8b cb		 mov	 ecx, ebx
  00020	e8 00 00 00 00	 call	 ?IsType@CResource@@QAE_NK@Z ; CResource::IsType
  00025	84 c0		 test	 al, al
  00027	74 46		 je	 SHORT $LN5@SetDownVis

; 1677 : 			return FALSE;
; 1678 : 
; 1679 : 		m_downVisual.SetImagePointer(static_cast<CGraphicImage*>(pResource));

  00029	53		 push	 ebx
  0002a	8d 8f cc 00 00
	00		 lea	 ecx, DWORD PTR [edi+204]
  00030	e8 00 00 00 00	 call	 ?SetImagePointer@CGraphicImageInstance@@QAEXPAVCGraphicImage@@@Z ; CGraphicImageInstance::SetImagePointer

; 1680 : 		if (m_downVisual.IsEmpty())

  00035	8d 8f cc 00 00
	00		 lea	 ecx, DWORD PTR [edi+204]
  0003b	e8 00 00 00 00	 call	 ?IsEmpty@CGraphicImageInstance@@QBE_NXZ ; CGraphicImageInstance::IsEmpty
  00040	84 c0		 test	 al, al
  00042	75 2b		 jne	 SHORT $LN5@SetDownVis

; 1681 : 			return FALSE;
; 1682 : 
; 1683 : 		SetSize(m_downVisual.GetWidth(), m_downVisual.GetHeight());

  00044	8d 8f cc 00 00
	00		 lea	 ecx, DWORD PTR [edi+204]
  0004a	e8 00 00 00 00	 call	 ?GetHeight@CGraphicImageInstance@@QAEHXZ ; CGraphicImageInstance::GetHeight
  0004f	50		 push	 eax
  00050	8d 8f cc 00 00
	00		 lea	 ecx, DWORD PTR [edi+204]
  00056	e8 00 00 00 00	 call	 ?GetWidth@CGraphicImageInstance@@QAEHXZ ; CGraphicImageInstance::GetWidth
  0005b	50		 push	 eax
  0005c	8b cf		 mov	 ecx, edi
  0005e	e8 00 00 00 00	 call	 ?SetSize@CWindow@UI@@QAEXJJ@Z ; UI::CWindow::SetSize
  00063	5f		 pop	 edi

; 1684 : 
; 1685 : 		return TRUE;
; 1686 : 	}

  00064	5e		 pop	 esi
  00065	b8 01 00 00 00	 mov	 eax, 1
  0006a	5b		 pop	 ebx
  0006b	5d		 pop	 ebp
  0006c	c2 04 00	 ret	 4
$LN5@SetDownVis:
  0006f	5f		 pop	 edi
  00070	5e		 pop	 esi
  00071	33 c0		 xor	 eax, eax
  00073	5b		 pop	 ebx
  00074	5d		 pop	 ebp
  00075	c2 04 00	 ret	 4
?SetDownVisual@CButton@UI@@QAEHPBD@Z ENDP		; UI::CButton::SetDownVisual
_TEXT	ENDS
; Function compile flags: /Ogtp
; File C:\Marty 5.5\Src-Client\Client\eterPythonLib\PythonWindow.cpp
;	COMDAT ?SetOverVisual@CButton@UI@@QAEHPBD@Z
_TEXT	SEGMENT
_c_szFileName$ = 8					; size = 4
?SetOverVisual@CButton@UI@@QAEHPBD@Z PROC		; UI::CButton::SetOverVisual, COMDAT
; _this$ = ecx

; 1660 : 	{

  00000	55		 push	 ebp
  00001	8b ec		 mov	 ebp, esp
  00003	53		 push	 ebx
  00004	56		 push	 esi
  00005	57		 push	 edi

; 1661 : 		CResource * pResource = CResourceManager::Instance().GetResourcePointer(c_szFileName);

  00006	ff 75 08	 push	 DWORD PTR _c_szFileName$[ebp]
  00009	8b f9		 mov	 edi, ecx
  0000b	8b 0d 00 00 00
	00		 mov	 ecx, DWORD PTR ?ms_singleton@?$CSingleton@VCResourceManager@@@@0PAVCResourceManager@@A ; CSingleton<CResourceManager>::ms_singleton
  00011	e8 00 00 00 00	 call	 ?GetResourcePointer@CResourceManager@@QAEPAVCResource@@PBD@Z ; CResourceManager::GetResourcePointer
  00016	8b d8		 mov	 ebx, eax

; 1662 : 		if (!pResource->IsType(CGraphicImage::Type()))

  00018	e8 00 00 00 00	 call	 ?Type@CGraphicImage@@SAKXZ ; CGraphicImage::Type
  0001d	50		 push	 eax
  0001e	8b cb		 mov	 ecx, ebx
  00020	e8 00 00 00 00	 call	 ?IsType@CResource@@QAE_NK@Z ; CResource::IsType
  00025	84 c0		 test	 al, al
  00027	74 46		 je	 SHORT $LN5@SetOverVis

; 1663 : 			return FALSE;
; 1664 : 
; 1665 : 		m_overVisual.SetImagePointer(static_cast<CGraphicImage*>(pResource));

  00029	53		 push	 ebx
  0002a	8d 8f ac 00 00
	00		 lea	 ecx, DWORD PTR [edi+172]
  00030	e8 00 00 00 00	 call	 ?SetImagePointer@CGraphicImageInstance@@QAEXPAVCGraphicImage@@@Z ; CGraphicImageInstance::SetImagePointer

; 1666 : 		if (m_overVisual.IsEmpty())

  00035	8d 8f ac 00 00
	00		 lea	 ecx, DWORD PTR [edi+172]
  0003b	e8 00 00 00 00	 call	 ?IsEmpty@CGraphicImageInstance@@QBE_NXZ ; CGraphicImageInstance::IsEmpty
  00040	84 c0		 test	 al, al
  00042	75 2b		 jne	 SHORT $LN5@SetOverVis

; 1667 : 			return FALSE;
; 1668 : 
; 1669 : 		SetSize(m_overVisual.GetWidth(), m_overVisual.GetHeight());

  00044	8d 8f ac 00 00
	00		 lea	 ecx, DWORD PTR [edi+172]
  0004a	e8 00 00 00 00	 call	 ?GetHeight@CGraphicImageInstance@@QAEHXZ ; CGraphicImageInstance::GetHeight
  0004f	50		 push	 eax
  00050	8d 8f ac 00 00
	00		 lea	 ecx, DWORD PTR [edi+172]
  00056	e8 00 00 00 00	 call	 ?GetWidth@CGraphicImageInstance@@QAEHXZ ; CGraphicImageInstance::GetWidth
  0005b	50		 push	 eax
  0005c	8b cf		 mov	 ecx, edi
  0005e	e8 00 00 00 00	 call	 ?SetSize@CWindow@UI@@QAEXJJ@Z ; UI::CWindow::SetSize
  00063	5f		 pop	 edi

; 1670 : 
; 1671 : 		return TRUE;
; 1672 : 	}

  00064	5e		 pop	 esi
  00065	b8 01 00 00 00	 mov	 eax, 1
  0006a	5b		 pop	 ebx
  0006b	5d		 pop	 ebp
  0006c	c2 04 00	 ret	 4
$LN5@SetOverVis:
  0006f	5f		 pop	 edi
  00070	5e		 pop	 esi
  00071	33 c0		 xor	 eax, eax
  00073	5b		 pop	 ebx
  00074	5d		 pop	 ebp
  00075	c2 04 00	 ret	 4
?SetOverVisual@CButton@UI@@QAEHPBD@Z ENDP		; UI::CButton::SetOverVisual
_TEXT	ENDS
; Function compile flags: /Ogtp
; File C:\Marty 5.5\Src-Client\Client\eterPythonLib\PythonWindow.cpp
;	COMDAT ?SetUpVisual@CButton@UI@@QAEHPBD@Z
_TEXT	SEGMENT
_c_szFileName$ = 8					; size = 4
?SetUpVisual@CButton@UI@@QAEHPBD@Z PROC			; UI::CButton::SetUpVisual, COMDAT
; _this$ = ecx

; 1643 : 	{

  00000	55		 push	 ebp
  00001	8b ec		 mov	 ebp, esp
  00003	53		 push	 ebx
  00004	56		 push	 esi
  00005	57		 push	 edi

; 1644 : 		CResource * pResource = CResourceManager::Instance().GetResourcePointer(c_szFileName);

  00006	ff 75 08	 push	 DWORD PTR _c_szFileName$[ebp]
  00009	8b f9		 mov	 edi, ecx
  0000b	8b 0d 00 00 00
	00		 mov	 ecx, DWORD PTR ?ms_singleton@?$CSingleton@VCResourceManager@@@@0PAVCResourceManager@@A ; CSingleton<CResourceManager>::ms_singleton
  00011	e8 00 00 00 00	 call	 ?GetResourcePointer@CResourceManager@@QAEPAVCResource@@PBD@Z ; CResourceManager::GetResourcePointer
  00016	8b d8		 mov	 ebx, eax

; 1645 : 		if (!pResource->IsType(CGraphicImage::Type()))

  00018	e8 00 00 00 00	 call	 ?Type@CGraphicImage@@SAKXZ ; CGraphicImage::Type
  0001d	50		 push	 eax
  0001e	8b cb		 mov	 ecx, ebx
  00020	e8 00 00 00 00	 call	 ?IsType@CResource@@QAE_NK@Z ; CResource::IsType
  00025	84 c0		 test	 al, al
  00027	74 44		 je	 SHORT $LN5@SetUpVisua

; 1646 : 			return FALSE;
; 1647 : 
; 1648 : 		m_upVisual.SetImagePointer(static_cast<CGraphicImage*>(pResource));

  00029	8d b7 8c 00 00
	00		 lea	 esi, DWORD PTR [edi+140]
  0002f	53		 push	 ebx
  00030	8b ce		 mov	 ecx, esi
  00032	e8 00 00 00 00	 call	 ?SetImagePointer@CGraphicImageInstance@@QAEXPAVCGraphicImage@@@Z ; CGraphicImageInstance::SetImagePointer

; 1649 : 		if (m_upVisual.IsEmpty())

  00037	8b ce		 mov	 ecx, esi
  00039	e8 00 00 00 00	 call	 ?IsEmpty@CGraphicImageInstance@@QBE_NXZ ; CGraphicImageInstance::IsEmpty
  0003e	84 c0		 test	 al, al
  00040	75 2b		 jne	 SHORT $LN5@SetUpVisua

; 1650 : 			return FALSE;
; 1651 : 
; 1652 : 		SetSize(m_upVisual.GetWidth(), m_upVisual.GetHeight());

  00042	8b ce		 mov	 ecx, esi
  00044	e8 00 00 00 00	 call	 ?GetHeight@CGraphicImageInstance@@QAEHXZ ; CGraphicImageInstance::GetHeight
  00049	50		 push	 eax
  0004a	8b ce		 mov	 ecx, esi
  0004c	e8 00 00 00 00	 call	 ?GetWidth@CGraphicImageInstance@@QAEHXZ ; CGraphicImageInstance::GetWidth
  00051	50		 push	 eax
  00052	8b cf		 mov	 ecx, edi
  00054	e8 00 00 00 00	 call	 ?SetSize@CWindow@UI@@QAEXJJ@Z ; UI::CWindow::SetSize

; 1653 : 		//
; 1654 : 		SetCurrentVisual(&m_upVisual);

  00059	56		 push	 esi
  0005a	8b cf		 mov	 ecx, edi
  0005c	e8 00 00 00 00	 call	 ?SetCurrentVisual@CButton@UI@@IAEXPAVCGraphicImageInstance@@@Z ; UI::CButton::SetCurrentVisual
  00061	5f		 pop	 edi

; 1655 : 		//
; 1656 : 
; 1657 : 		return TRUE;
; 1658 : 	}

  00062	5e		 pop	 esi
  00063	b8 01 00 00 00	 mov	 eax, 1
  00068	5b		 pop	 ebx
  00069	5d		 pop	 ebp
  0006a	c2 04 00	 ret	 4
$LN5@SetUpVisua:
  0006d	5f		 pop	 edi
  0006e	5e		 pop	 esi
  0006f	33 c0		 xor	 eax, eax
  00071	5b		 pop	 ebx
  00072	5d		 pop	 ebp
  00073	c2 04 00	 ret	 4
?SetUpVisual@CButton@UI@@QAEHPBD@Z ENDP			; UI::CButton::SetUpVisual
_TEXT	ENDS
; Function compile flags: /Ogtp
; File C:\Marty 5.5\Src-Client\Client\eterPythonLib\PythonWindow.cpp
;	COMDAT ??1CButton@UI@@UAE@XZ
_TEXT	SEGMENT
??1CButton@UI@@UAE@XZ PROC				; UI::CButton::~CButton, COMDAT
; _this$ = ecx

; 1639 : 	{

  00000	56		 push	 esi
  00001	8b f1		 mov	 esi, ecx

; 1640 : 	}

  00003	8d 8e ec 00 00
	00		 lea	 ecx, DWORD PTR [esi+236]
  00009	c7 06 00 00 00
	00		 mov	 DWORD PTR [esi], OFFSET ??_7CButton@UI@@6B@
  0000f	e8 00 00 00 00	 call	 ??1CGraphicImageInstance@@UAE@XZ ; CGraphicImageInstance::~CGraphicImageInstance
  00014	8d 8e cc 00 00
	00		 lea	 ecx, DWORD PTR [esi+204]
  0001a	e8 00 00 00 00	 call	 ??1CGraphicImageInstance@@UAE@XZ ; CGraphicImageInstance::~CGraphicImageInstance
  0001f	8d 8e ac 00 00
	00		 lea	 ecx, DWORD PTR [esi+172]
  00025	e8 00 00 00 00	 call	 ??1CGraphicImageInstance@@UAE@XZ ; CGraphicImageInstance::~CGraphicImageInstance
  0002a	8d 8e 8c 00 00
	00		 lea	 ecx, DWORD PTR [esi+140]
  00030	e8 00 00 00 00	 call	 ??1CGraphicImageInstance@@UAE@XZ ; CGraphicImageInstance::~CGraphicImageInstance
  00035	8b ce		 mov	 ecx, esi
  00037	5e		 pop	 esi
  00038	e9 00 00 00 00	 jmp	 ??1CWindow@UI@@UAE@XZ	; UI::CWindow::~CWindow
??1CButton@UI@@UAE@XZ ENDP				; UI::CButton::~CButton
_TEXT	ENDS
; Function compile flags: /Ogtp
; File C:\Marty 5.5\Src-Client\Client\eterPythonLib\PythonWindow.cpp
; File C:\Marty 5.5\Src-Client\Client\eterPythonLib\PythonWindow.h
; File C:\Marty 5.5\Src-Client\Client\eterPythonLib\PythonWindow.cpp
;	COMDAT ??0CButton@UI@@QAE@PAU_object@@@Z
_TEXT	SEGMENT
_this$ = -16						; size = 4
__$EHRec$ = -12						; size = 12
_ppyObject$ = 8						; size = 4
??0CButton@UI@@QAE@PAU_object@@@Z PROC			; UI::CButton::CButton, COMDAT
; _this$ = ecx

; 1635 : 	{

  00000	55		 push	 ebp
  00001	8b ec		 mov	 ebp, esp
  00003	6a ff		 push	 -1
  00005	68 00 00 00 00	 push	 __ehhandler$??0CButton@UI@@QAE@PAU_object@@@Z
  0000a	64 a1 00 00 00
	00		 mov	 eax, DWORD PTR fs:0
  00010	50		 push	 eax
  00011	51		 push	 ecx
  00012	56		 push	 esi
  00013	a1 00 00 00 00	 mov	 eax, DWORD PTR ___security_cookie
  00018	33 c5		 xor	 eax, ebp
  0001a	50		 push	 eax
  0001b	8d 45 f4	 lea	 eax, DWORD PTR __$EHRec$[ebp]
  0001e	64 a3 00 00 00
	00		 mov	 DWORD PTR fs:0, eax
  00024	8b f1		 mov	 esi, ecx
  00026	89 75 f0	 mov	 DWORD PTR _this$[ebp], esi

; 1630 : 		:	CWindow(ppyObject),

  00029	ff 75 08	 push	 DWORD PTR _ppyObject$[ebp]
  0002c	e8 00 00 00 00	 call	 ??0CWindow@UI@@QAE@PAU_object@@@Z ; UI::CWindow::CWindow

; 1635 : 	{

  00031	8d 8e 8c 00 00
	00		 lea	 ecx, DWORD PTR [esi+140]
  00037	c7 45 fc 00 00
	00 00		 mov	 DWORD PTR __$EHRec$[ebp+8], 0
  0003e	c7 06 00 00 00
	00		 mov	 DWORD PTR [esi], OFFSET ??_7CButton@UI@@6B@
  00044	c7 46 7c 01 00
	00 00		 mov	 DWORD PTR [esi+124], 1
  0004b	c7 86 80 00 00
	00 00 00 00 00	 mov	 DWORD PTR [esi+128], 0
  00055	c7 86 84 00 00
	00 00 00 00 00	 mov	 DWORD PTR [esi+132], 0
  0005f	c7 86 88 00 00
	00 00 00 00 00	 mov	 DWORD PTR [esi+136], 0
  00069	e8 00 00 00 00	 call	 ??0CGraphicImageInstance@@QAE@XZ ; CGraphicImageInstance::CGraphicImageInstance
  0006e	8d 8e ac 00 00
	00		 lea	 ecx, DWORD PTR [esi+172]
  00074	c6 45 fc 01	 mov	 BYTE PTR __$EHRec$[ebp+8], 1
  00078	e8 00 00 00 00	 call	 ??0CGraphicImageInstance@@QAE@XZ ; CGraphicImageInstance::CGraphicImageInstance
  0007d	8d 8e cc 00 00
	00		 lea	 ecx, DWORD PTR [esi+204]
  00083	c6 45 fc 02	 mov	 BYTE PTR __$EHRec$[ebp+8], 2
  00087	e8 00 00 00 00	 call	 ??0CGraphicImageInstance@@QAE@XZ ; CGraphicImageInstance::CGraphicImageInstance
  0008c	8d 8e ec 00 00
	00		 lea	 ecx, DWORD PTR [esi+236]
  00092	c6 45 fc 03	 mov	 BYTE PTR __$EHRec$[ebp+8], 3
  00096	e8 00 00 00 00	 call	 ??0CGraphicImageInstance@@QAE@XZ ; CGraphicImageInstance::CGraphicImageInstance
; File C:\Marty 5.5\Src-Client\Client\eterPythonLib\PythonWindow.h

; 98   : 			void			AddFlag(DWORD flag)		{ SET_BIT(m_dwFlag, flag);		}

  0009b	81 4e 58 80 00
	00 00		 or	 DWORD PTR [esi+88], 128	; 00000080H
; File C:\Marty 5.5\Src-Client\Client\eterPythonLib\PythonWindow.cpp

; 1637 : 	}

  000a2	8b c6		 mov	 eax, esi
  000a4	8b 4d f4	 mov	 ecx, DWORD PTR __$EHRec$[ebp]
  000a7	64 89 0d 00 00
	00 00		 mov	 DWORD PTR fs:0, ecx
  000ae	59		 pop	 ecx
  000af	5e		 pop	 esi
  000b0	8b e5		 mov	 esp, ebp
  000b2	5d		 pop	 ebp
  000b3	c2 04 00	 ret	 4
_TEXT	ENDS
;	COMDAT text$x
text$x	SEGMENT
__unwindfunclet$??0CButton@UI@@QAE@PAU_object@@@Z$0:
  00000	8b 4d f0	 mov	 ecx, DWORD PTR _this$[ebp]
  00003	e9 00 00 00 00	 jmp	 ??1CWindow@UI@@UAE@XZ	; UI::CWindow::~CWindow
__unwindfunclet$??0CButton@UI@@QAE@PAU_object@@@Z$1:
  00008	8b 4d f0	 mov	 ecx, DWORD PTR _this$[ebp]
  0000b	81 c1 8c 00 00
	00		 add	 ecx, 140		; 0000008cH
  00011	e9 00 00 00 00	 jmp	 ??1CGraphicImageInstance@@UAE@XZ ; CGraphicImageInstance::~CGraphicImageInstance
__unwindfunclet$??0CButton@UI@@QAE@PAU_object@@@Z$2:
  00016	8b 4d f0	 mov	 ecx, DWORD PTR _this$[ebp]
  00019	81 c1 ac 00 00
	00		 add	 ecx, 172		; 000000acH
  0001f	e9 00 00 00 00	 jmp	 ??1CGraphicImageInstance@@UAE@XZ ; CGraphicImageInstance::~CGraphicImageInstance
__unwindfunclet$??0CButton@UI@@QAE@PAU_object@@@Z$3:
  00024	8b 4d f0	 mov	 ecx, DWORD PTR _this$[ebp]
  00027	81 c1 cc 00 00
	00		 add	 ecx, 204		; 000000ccH
  0002d	e9 00 00 00 00	 jmp	 ??1CGraphicImageInstance@@UAE@XZ ; CGraphicImageInstance::~CGraphicImageInstance
  00032	cc		 int	 3
  00033	cc		 int	 3
  00034	cc		 int	 3
  00035	cc		 int	 3
  00036	cc		 int	 3
__ehhandler$??0CButton@UI@@QAE@PAU_object@@@Z:
  00037	90		 npad	 1
  00038	90		 npad	 1
  00039	8b 54 24 08	 mov	 edx, DWORD PTR [esp+8]
  0003d	8d 42 0c	 lea	 eax, DWORD PTR [edx+12]
  00040	8b 4a f4	 mov	 ecx, DWORD PTR [edx-12]
  00043	33 c8		 xor	 ecx, eax
  00045	e8 00 00 00 00	 call	 @__security_check_cookie@4
  0004a	b8 00 00 00 00	 mov	 eax, OFFSET __ehfuncinfo$??0CButton@UI@@QAE@PAU_object@@@Z
  0004f	e9 00 00 00 00	 jmp	 ___CxxFrameHandler3
text$x	ENDS
??0CButton@UI@@QAE@PAU_object@@@Z ENDP			; UI::CButton::CButton
; Function compile flags: /Ogtp
;	COMDAT ??_GCAniImageBox@UI@@UAEPAXI@Z
_TEXT	SEGMENT
___flags$ = 8						; size = 4
??_GCAniImageBox@UI@@UAEPAXI@Z PROC			; UI::CAniImageBox::`scalar deleting destructor', COMDAT
; _this$ = ecx
  00000	55		 push	 ebp
  00001	8b ec		 mov	 ebp, esp
  00003	56		 push	 esi
  00004	8b f1		 mov	 esi, ecx
  00006	e8 00 00 00 00	 call	 ??1CAniImageBox@UI@@UAE@XZ ; UI::CAniImageBox::~CAniImageBox
  0000b	f6 45 08 01	 test	 BYTE PTR ___flags$[ebp], 1
  0000f	74 0e		 je	 SHORT $LN4@scalar
  00011	68 8c 00 00 00	 push	 140			; 0000008cH
  00016	56		 push	 esi
  00017	e8 00 00 00 00	 call	 ??3@YAXPAXI@Z		; operator delete
  0001c	83 c4 08	 add	 esp, 8
$LN4@scalar:
  0001f	8b c6		 mov	 eax, esi
  00021	5e		 pop	 esi
  00022	5d		 pop	 ebp
  00023	c2 04 00	 ret	 4
??_GCAniImageBox@UI@@UAEPAXI@Z ENDP			; UI::CAniImageBox::`scalar deleting destructor'
_TEXT	ENDS
; Function compile flags: /Ogtp
; File C:\Marty 5.5\Src-Client\Client\eterPythonLib\PythonWindow.cpp
;	COMDAT ?OnIsType@CAniImageBox@UI@@MAEHK@Z
_TEXT	SEGMENT
_dwType$ = 8						; size = 4
?OnIsType@CAniImageBox@UI@@MAEHK@Z PROC			; UI::CAniImageBox::OnIsType, COMDAT
; _this$ = ecx

; 1488 : 	{

  00000	55		 push	 ebp
  00001	8b ec		 mov	 ebp, esp

; 1489 : 		if (CAniImageBox::Type() == dwType)

  00003	e8 00 00 00 00	 call	 ?Type@CAniImageBox@UI@@SAKXZ ; UI::CAniImageBox::Type
  00008	33 c9		 xor	 ecx, ecx
  0000a	3b 45 08	 cmp	 eax, DWORD PTR _dwType$[ebp]
  0000d	0f 94 c1	 sete	 cl
  00010	8b c1		 mov	 eax, ecx

; 1490 : 			return TRUE;
; 1491 : 
; 1492 : 		return FALSE;
; 1493 : 	}

  00012	5d		 pop	 ebp
  00013	c2 04 00	 ret	 4
?OnIsType@CAniImageBox@UI@@MAEHK@Z ENDP			; UI::CAniImageBox::OnIsType
_TEXT	ENDS
; Function compile flags: /Ogtp
; File C:\Marty 5.5\Src-Client\Client\eterPythonLib\PythonWindow.cpp
;	COMDAT ?OnEndFrame@CAniImageBox@UI@@MAEXXZ
_TEXT	SEGMENT
?OnEndFrame@CAniImageBox@UI@@MAEXXZ PROC		; UI::CAniImageBox::OnEndFrame, COMDAT
; _this$ = ecx

; 1621 : 	{

  00000	56		 push	 esi
  00001	8b f1		 mov	 esi, ecx

; 1622 : 		PyCallClassMemberFunc(m_poHandler, "OnEndFrame", BuildEmptyTuple());

  00003	e8 00 00 00 00	 call	 ?BuildEmptyTuple@UI@@YAPAU_object@@XZ ; UI::BuildEmptyTuple
  00008	50		 push	 eax
  00009	68 00 00 00 00	 push	 OFFSET ??_C@_0L@LBHHAGOH@OnEndFrame@
  0000e	ff 76 5c	 push	 DWORD PTR [esi+92]
  00011	e8 00 00 00 00	 call	 ?PyCallClassMemberFunc@@YA_NPAU_object@@PBD0@Z ; PyCallClassMemberFunc
  00016	83 c4 0c	 add	 esp, 12			; 0000000cH
  00019	5e		 pop	 esi

; 1623 : 	}

  0001a	c3		 ret	 0
?OnEndFrame@CAniImageBox@UI@@MAEXXZ ENDP		; UI::CAniImageBox::OnEndFrame
_TEXT	ENDS
; Function compile flags: /Ogtp
; File C:\Marty 5.5\Src-Client\Client\eterPythonLib\PythonWindow.cpp
; File C:\Program Files\Microsoft Visual Studio\2022\Community\VC\Tools\MSVC\14.37.32822\include\vector
; File C:\Marty 5.5\Src-Client\Client\eterPythonLib\PythonWindow.cpp
; File C:\Program Files\Microsoft Visual Studio\2022\Community\VC\Tools\MSVC\14.37.32822\include\vector
; File C:\Marty 5.5\Src-Client\Client\eterPythonLib\PythonWindow.cpp
; File C:\Program Files\Microsoft Visual Studio\2022\Community\VC\Tools\MSVC\14.37.32822\include\algorithm
; File C:\Marty 5.5\Src-Client\Client\eterPythonLib\PythonWindow.cpp
; File C:\Program Files\Microsoft Visual Studio\2022\Community\VC\Tools\MSVC\14.37.32822\include\algorithm
; File C:\Marty 5.5\Src-Client\Client\eterPythonLib\PythonWindow.cpp
;	COMDAT ?OnChangePosition@CAniImageBox@UI@@MAEXXZ
_TEXT	SEGMENT
_changePosition$$sroa$147$1$ = -8			; size = 4
_changePosition$$sroa$148$1$ = -4			; size = 4
?OnChangePosition@CAniImageBox@UI@@MAEXXZ PROC		; UI::CAniImageBox::OnChangePosition, COMDAT
; _this$ = ecx

; 1613 : 	{

  00000	55		 push	 ebp
  00001	8b ec		 mov	 ebp, esp
  00003	83 ec 08	 sub	 esp, 8
  00006	66 0f 6e 41 34	 movd	 xmm0, DWORD PTR [ecx+52]
  0000b	66 0f 6e 49 38	 movd	 xmm1, DWORD PTR [ecx+56]

; 1614 : 		FChangePosition changePosition;
; 1615 : 		changePosition.fx = m_rect.left;

  00010	0f 5b c0	 cvtdq2ps xmm0, xmm0
  00013	56		 push	 esi
; File C:\Program Files\Microsoft Visual Studio\2022\Community\VC\Tools\MSVC\14.37.32822\include\vector

; 43   :     _CONSTEXPR20 _Vector_const_iterator(_Tptr _Parg, const _Container_base* _Pvector) noexcept : _Ptr(_Parg) {

  00014	8b b1 80 00 00
	00		 mov	 esi, DWORD PTR [ecx+128]
; File C:\Marty 5.5\Src-Client\Client\eterPythonLib\PythonWindow.cpp

; 1613 : 	{

  0001a	57		 push	 edi
; File C:\Program Files\Microsoft Visual Studio\2022\Community\VC\Tools\MSVC\14.37.32822\include\vector

; 43   :     _CONSTEXPR20 _Vector_const_iterator(_Tptr _Parg, const _Container_base* _Pvector) noexcept : _Ptr(_Parg) {

  0001b	8b b9 84 00 00
	00		 mov	 edi, DWORD PTR [ecx+132]
; File C:\Marty 5.5\Src-Client\Client\eterPythonLib\PythonWindow.cpp

; 1616 : 		changePosition.fy = m_rect.top;

  00021	0f 5b c9	 cvtdq2ps xmm1, xmm1
  00024	f3 0f 11 45 fc	 movss	 DWORD PTR _changePosition$$sroa$148$1$[ebp], xmm0
  00029	f3 0f 11 4d f8	 movss	 DWORD PTR _changePosition$$sroa$147$1$[ebp], xmm1
; File C:\Program Files\Microsoft Visual Studio\2022\Community\VC\Tools\MSVC\14.37.32822\include\algorithm

; 245  :     for (; _UFirst != _ULast; ++_UFirst) {

  0002e	3b f7		 cmp	 esi, edi
  00030	74 26		 je	 SHORT $LN17@OnChangePo
$LL26@OnChangePo:
; File C:\Marty 5.5\Src-Client\Client\eterPythonLib\PythonWindow.cpp

; 1608 : 			pInstance->SetPosition(fx, fy);

  00032	8b 0e		 mov	 ecx, DWORD PTR [esi]
  00034	83 ec 08	 sub	 esp, 8
  00037	f3 0f 11 4c 24
