; Listing generated by Microsoft (R) Optimizing Compiler Version 19.37.32822.0 

	TITLE	C:\Marty 5.5\Src-Client\Client\GameLib\Distribute\ActorInstanceMotionEvent.obj
	.686P
	.XMM
	include listing.inc
	.model	flat

INCLUDELIB LIBCMT
INCLUDELIB OLDNAMES

PUBLIC	??_7?$CDynamicPoolEx@VCAirResistanceDecorator@NEffectUpdateDecorator@@@@6B@ ; CDynamicPoolEx<NEffectUpdateDecorator::CAirResistanceDecorator>::`vftable'
PUBLIC	??_G?$CDynamicPoolEx@VCAirResistanceDecorator@NEffectUpdateDecorator@@@@UAEPAXI@Z ; CDynamicPoolEx<NEffectUpdateDecorator::CAirResistanceDecorator>::`scalar deleting destructor'
PUBLIC	??_7?$CDynamicPoolEx@VCTextureAnimationRandomDecorator@NEffectUpdateDecorator@@@@6B@ ; CDynamicPoolEx<NEffectUpdateDecorator::CTextureAnimationRandomDecorator>::`vftable'
PUBLIC	??_G?$CDynamicPoolEx@VCTextureAnimationRandomDecorator@NEffectUpdateDecorator@@@@UAEPAXI@Z ; CDynamicPoolEx<NEffectUpdateDecorator::CTextureAnimationRandomDecorator>::`scalar deleting destructor'
PUBLIC	??_7?$CDynamicPoolEx@VCTextureAnimationCCWDecorator@NEffectUpdateDecorator@@@@6B@ ; CDynamicPoolEx<NEffectUpdateDecorator::CTextureAnimationCCWDecorator>::`vftable'
PUBLIC	??_G?$CDynamicPoolEx@VCTextureAnimationCCWDecorator@NEffectUpdateDecorator@@@@UAEPAXI@Z ; CDynamicPoolEx<NEffectUpdateDecorator::CTextureAnimationCCWDecorator>::`scalar deleting destructor'
PUBLIC	??_7?$CDynamicPoolEx@VCTextureAnimationCWDecorator@NEffectUpdateDecorator@@@@6B@ ; CDynamicPoolEx<NEffectUpdateDecorator::CTextureAnimationCWDecorator>::`vftable'
PUBLIC	??_G?$CDynamicPoolEx@VCTextureAnimationCWDecorator@NEffectUpdateDecorator@@@@UAEPAXI@Z ; CDynamicPoolEx<NEffectUpdateDecorator::CTextureAnimationCWDecorator>::`scalar deleting destructor'
PUBLIC	??_7?$CDynamicPoolEx@VCNullDecorator@NEffectUpdateDecorator@@@@6B@ ; CDynamicPoolEx<NEffectUpdateDecorator::CNullDecorator>::`vftable'
PUBLIC	??_G?$CDynamicPoolEx@VCNullDecorator@NEffectUpdateDecorator@@@@UAEPAXI@Z ; CDynamicPoolEx<NEffectUpdateDecorator::CNullDecorator>::`scalar deleting destructor'
PUBLIC	??_7?$CDynamicPoolEx@VCHeaderDecorator@NEffectUpdateDecorator@@@@6B@ ; CDynamicPoolEx<NEffectUpdateDecorator::CHeaderDecorator>::`vftable'
PUBLIC	??_G?$CDynamicPoolEx@VCHeaderDecorator@NEffectUpdateDecorator@@@@UAEPAXI@Z ; CDynamicPoolEx<NEffectUpdateDecorator::CHeaderDecorator>::`scalar deleting destructor'
PUBLIC	??_R4?$CDynamicPoolEx@VCHeaderDecorator@NEffectUpdateDecorator@@@@6B@ ; CDynamicPoolEx<NEffectUpdateDecorator::CHeaderDecorator>::`RTTI Complete Object Locator'
PUBLIC	??_R0?AV?$CDynamicPoolEx@VCHeaderDecorator@NEffectUpdateDecorator@@@@@8 ; CDynamicPoolEx<NEffectUpdateDecorator::CHeaderDecorator> `RTTI Type Descriptor'
PUBLIC	??_R3?$CDynamicPoolEx@VCHeaderDecorator@NEffectUpdateDecorator@@@@8 ; CDynamicPoolEx<NEffectUpdateDecorator::CHeaderDecorator>::`RTTI Class Hierarchy Descriptor'
PUBLIC	??_R2?$CDynamicPoolEx@VCHeaderDecorator@NEffectUpdateDecorator@@@@8 ; CDynamicPoolEx<NEffectUpdateDecorator::CHeaderDecorator>::`RTTI Base Class Array'
PUBLIC	??_R1A@?0A@EA@?$CDynamicPoolEx@VCHeaderDecorator@NEffectUpdateDecorator@@@@8 ; CDynamicPoolEx<NEffectUpdateDecorator::CHeaderDecorator>::`RTTI Base Class Descriptor at (0,-1,0,64)'
PUBLIC	??_R4?$CDynamicPoolEx@VCNullDecorator@NEffectUpdateDecorator@@@@6B@ ; CDynamicPoolEx<NEffectUpdateDecorator::CNullDecorator>::`RTTI Complete Object Locator'
PUBLIC	??_R0?AV?$CDynamicPoolEx@VCNullDecorator@NEffectUpdateDecorator@@@@@8 ; CDynamicPoolEx<NEffectUpdateDecorator::CNullDecorator> `RTTI Type Descriptor'
PUBLIC	??_R3?$CDynamicPoolEx@VCNullDecorator@NEffectUpdateDecorator@@@@8 ; CDynamicPoolEx<NEffectUpdateDecorator::CNullDecorator>::`RTTI Class Hierarchy Descriptor'
PUBLIC	??_R2?$CDynamicPoolEx@VCNullDecorator@NEffectUpdateDecorator@@@@8 ; CDynamicPoolEx<NEffectUpdateDecorator::CNullDecorator>::`RTTI Base Class Array'
PUBLIC	??_R1A@?0A@EA@?$CDynamicPoolEx@VCNullDecorator@NEffectUpdateDecorator@@@@8 ; CDynamicPoolEx<NEffectUpdateDecorator::CNullDecorator>::`RTTI Base Class Descriptor at (0,-1,0,64)'
PUBLIC	??_R4?$CDynamicPoolEx@VCTextureAnimationCWDecorator@NEffectUpdateDecorator@@@@6B@ ; CDynamicPoolEx<NEffectUpdateDecorator::CTextureAnimationCWDecorator>::`RTTI Complete Object Locator'
PUBLIC	??_R0?AV?$CDynamicPoolEx@VCTextureAnimationCWDecorator@NEffectUpdateDecorator@@@@@8 ; CDynamicPoolEx<NEffectUpdateDecorator::CTextureAnimationCWDecorator> `RTTI Type Descriptor'
PUBLIC	??_R3?$CDynamicPoolEx@VCTextureAnimationCWDecorator@NEffectUpdateDecorator@@@@8 ; CDynamicPoolEx<NEffectUpdateDecorator::CTextureAnimationCWDecorator>::`RTTI Class Hierarchy Descriptor'
PUBLIC	??_R2?$CDynamicPoolEx@VCTextureAnimationCWDecorator@NEffectUpdateDecorator@@@@8 ; CDynamicPoolEx<NEffectUpdateDecorator::CTextureAnimationCWDecorator>::`RTTI Base Class Array'
PUBLIC	??_R1A@?0A@EA@?$CDynamicPoolEx@VCTextureAnimationCWDecorator@NEffectUpdateDecorator@@@@8 ; CDynamicPoolEx<NEffectUpdateDecorator::CTextureAnimationCWDecorator>::`RTTI Base Class Descriptor at (0,-1,0,64)'
PUBLIC	??_R4?$CDynamicPoolEx@VCTextureAnimationCCWDecorator@NEffectUpdateDecorator@@@@6B@ ; CDynamicPoolEx<NEffectUpdateDecorator::CTextureAnimationCCWDecorator>::`RTTI Complete Object Locator'
PUBLIC	??_R0?AV?$CDynamicPoolEx@VCTextureAnimationCCWDecorator@NEffectUpdateDecorator@@@@@8 ; CDynamicPoolEx<NEffectUpdateDecorator::CTextureAnimationCCWDecorator> `RTTI Type Descriptor'
PUBLIC	??_R3?$CDynamicPoolEx@VCTextureAnimationCCWDecorator@NEffectUpdateDecorator@@@@8 ; CDynamicPoolEx<NEffectUpdateDecorator::CTextureAnimationCCWDecorator>::`RTTI Class Hierarchy Descriptor'
PUBLIC	??_R2?$CDynamicPoolEx@VCTextureAnimationCCWDecorator@NEffectUpdateDecorator@@@@8 ; CDynamicPoolEx<NEffectUpdateDecorator::CTextureAnimationCCWDecorator>::`RTTI Base Class Array'
PUBLIC	??_R1A@?0A@EA@?$CDynamicPoolEx@VCTextureAnimationCCWDecorator@NEffectUpdateDecorator@@@@8 ; CDynamicPoolEx<NEffectUpdateDecorator::CTextureAnimationCCWDecorator>::`RTTI Base Class Descriptor at (0,-1,0,64)'
PUBLIC	??_R4?$CDynamicPoolEx@VCTextureAnimationRandomDecorator@NEffectUpdateDecorator@@@@6B@ ; CDynamicPoolEx<NEffectUpdateDecorator::CTextureAnimationRandomDecorator>::`RTTI Complete Object Locator'
PUBLIC	??_R0?AV?$CDynamicPoolEx@VCTextureAnimationRandomDecorator@NEffectUpdateDecorator@@@@@8 ; CDynamicPoolEx<NEffectUpdateDecorator::CTextureAnimationRandomDecorator> `RTTI Type Descriptor'
PUBLIC	??_R3?$CDynamicPoolEx@VCTextureAnimationRandomDecorator@NEffectUpdateDecorator@@@@8 ; CDynamicPoolEx<NEffectUpdateDecorator::CTextureAnimationRandomDecorator>::`RTTI Class Hierarchy Descriptor'
PUBLIC	??_R2?$CDynamicPoolEx@VCTextureAnimationRandomDecorator@NEffectUpdateDecorator@@@@8 ; CDynamicPoolEx<NEffectUpdateDecorator::CTextureAnimationRandomDecorator>::`RTTI Base Class Array'
PUBLIC	??_R1A@?0A@EA@?$CDynamicPoolEx@VCTextureAnimationRandomDecorator@NEffectUpdateDecorator@@@@8 ; CDynamicPoolEx<NEffectUpdateDecorator::CTextureAnimationRandomDecorator>::`RTTI Base Class Descriptor at (0,-1,0,64)'
PUBLIC	??_R4?$CDynamicPoolEx@VCAirResistanceDecorator@NEffectUpdateDecorator@@@@6B@ ; CDynamicPoolEx<NEffectUpdateDecorator::CAirResistanceDecorator>::`RTTI Complete Object Locator'
PUBLIC	??_R0?AV?$CDynamicPoolEx@VCAirResistanceDecorator@NEffectUpdateDecorator@@@@@8 ; CDynamicPoolEx<NEffectUpdateDecorator::CAirResistanceDecorator> `RTTI Type Descriptor'
PUBLIC	??_R3?$CDynamicPoolEx@VCAirResistanceDecorator@NEffectUpdateDecorator@@@@8 ; CDynamicPoolEx<NEffectUpdateDecorator::CAirResistanceDecorator>::`RTTI Class Hierarchy Descriptor'
PUBLIC	??_R2?$CDynamicPoolEx@VCAirResistanceDecorator@NEffectUpdateDecorator@@@@8 ; CDynamicPoolEx<NEffectUpdateDecorator::CAirResistanceDecorator>::`RTTI Base Class Array'
PUBLIC	??_R1A@?0A@EA@?$CDynamicPoolEx@VCAirResistanceDecorator@NEffectUpdateDecorator@@@@8 ; CDynamicPoolEx<NEffectUpdateDecorator::CAirResistanceDecorator>::`RTTI Base Class Descriptor at (0,-1,0,64)'
PUBLIC	??_R4?$CDynamicPoolEx@VCGravityDecorator@NEffectUpdateDecorator@@@@6B@ ; CDynamicPoolEx<NEffectUpdateDecorator::CGravityDecorator>::`RTTI Complete Object Locator'
PUBLIC	??_R0?AV?$CDynamicPoolEx@VCGravityDecorator@NEffectUpdateDecorator@@@@@8 ; CDynamicPoolEx<NEffectUpdateDecorator::CGravityDecorator> `RTTI Type Descriptor'
PUBLIC	??_R3?$CDynamicPoolEx@VCGravityDecorator@NEffectUpdateDecorator@@@@8 ; CDynamicPoolEx<NEffectUpdateDecorator::CGravityDecorator>::`RTTI Class Hierarchy Descriptor'
PUBLIC	??_R2?$CDynamicPoolEx@VCGravityDecorator@NEffectUpdateDecorator@@@@8 ; CDynamicPoolEx<NEffectUpdateDecorator::CGravityDecorator>::`RTTI Base Class Array'
PUBLIC	??_R1A@?0A@EA@?$CDynamicPoolEx@VCGravityDecorator@NEffectUpdateDecorator@@@@8 ; CDynamicPoolEx<NEffectUpdateDecorator::CGravityDecorator>::`RTTI Base Class Descriptor at (0,-1,0,64)'
PUBLIC	??_R4?$CDynamicPoolEx@VCRotationDecorator@NEffectUpdateDecorator@@@@6B@ ; CDynamicPoolEx<NEffectUpdateDecorator::CRotationDecorator>::`RTTI Complete Object Locator'
PUBLIC	??_R0?AV?$CDynamicPoolEx@VCRotationDecorator@NEffectUpdateDecorator@@@@@8 ; CDynamicPoolEx<NEffectUpdateDecorator::CRotationDecorator> `RTTI Type Descriptor'
PUBLIC	??_R3?$CDynamicPoolEx@VCRotationDecorator@NEffectUpdateDecorator@@@@8 ; CDynamicPoolEx<NEffectUpdateDecorator::CRotationDecorator>::`RTTI Class Hierarchy Descriptor'
PUBLIC	??_R2?$CDynamicPoolEx@VCRotationDecorator@NEffectUpdateDecorator@@@@8 ; CDynamicPoolEx<NEffectUpdateDecorator::CRotationDecorator>::`RTTI Base Class Array'
PUBLIC	??_R1A@?0A@EA@?$CDynamicPoolEx@VCRotationDecorator@NEffectUpdateDecorator@@@@8 ; CDynamicPoolEx<NEffectUpdateDecorator::CRotationDecorator>::`RTTI Base Class Descriptor at (0,-1,0,64)'
PUBLIC	??_7?$CDynamicPoolEx@VCRotationDecorator@NEffectUpdateDecorator@@@@6B@ ; CDynamicPoolEx<NEffectUpdateDecorator::CRotationDecorator>::`vftable'
PUBLIC	??_G?$CDynamicPoolEx@VCRotationDecorator@NEffectUpdateDecorator@@@@UAEPAXI@Z ; CDynamicPoolEx<NEffectUpdateDecorator::CRotationDecorator>::`scalar deleting destructor'
PUBLIC	??_7?$CDynamicPoolEx@VCGravityDecorator@NEffectUpdateDecorator@@@@6B@ ; CDynamicPoolEx<NEffectUpdateDecorator::CGravityDecorator>::`vftable'
PUBLIC	??_G?$CDynamicPoolEx@VCGravityDecorator@NEffectUpdateDecorator@@@@UAEPAXI@Z ; CDynamicPoolEx<NEffectUpdateDecorator::CGravityDecorator>::`scalar deleting destructor'
EXTRN	??_E?$CDynamicPoolEx@VCAirResistanceDecorator@NEffectUpdateDecorator@@@@UAEPAXI@Z:PROC ; CDynamicPoolEx<NEffectUpdateDecorator::CAirResistanceDecorator>::`vector deleting destructor'
EXTRN	??_E?$CDynamicPoolEx@VCTextureAnimationRandomDecorator@NEffectUpdateDecorator@@@@UAEPAXI@Z:PROC ; CDynamicPoolEx<NEffectUpdateDecorator::CTextureAnimationRandomDecorator>::`vector deleting destructor'
EXTRN	??_E?$CDynamicPoolEx@VCTextureAnimationCCWDecorator@NEffectUpdateDecorator@@@@UAEPAXI@Z:PROC ; CDynamicPoolEx<NEffectUpdateDecorator::CTextureAnimationCCWDecorator>::`vector deleting destructor'
EXTRN	??_E?$CDynamicPoolEx@VCTextureAnimationCWDecorator@NEffectUpdateDecorator@@@@UAEPAXI@Z:PROC ; CDynamicPoolEx<NEffectUpdateDecorator::CTextureAnimationCWDecorator>::`vector deleting destructor'
EXTRN	??_E?$CDynamicPoolEx@VCNullDecorator@NEffectUpdateDecorator@@@@UAEPAXI@Z:PROC ; CDynamicPoolEx<NEffectUpdateDecorator::CNullDecorator>::`vector deleting destructor'
EXTRN	??_E?$CDynamicPoolEx@VCHeaderDecorator@NEffectUpdateDecorator@@@@UAEPAXI@Z:PROC ; CDynamicPoolEx<NEffectUpdateDecorator::CHeaderDecorator>::`vector deleting destructor'
EXTRN	??_7type_info@@6B@:QWORD			; type_info::`vftable'
EXTRN	??_E?$CDynamicPoolEx@VCRotationDecorator@NEffectUpdateDecorator@@@@UAEPAXI@Z:PROC ; CDynamicPoolEx<NEffectUpdateDecorator::CRotationDecorator>::`vector deleting destructor'
EXTRN	??_E?$CDynamicPoolEx@VCGravityDecorator@NEffectUpdateDecorator@@@@UAEPAXI@Z:PROC ; CDynamicPoolEx<NEffectUpdateDecorator::CGravityDecorator>::`vector deleting destructor'
;	COMDAT ??_7?$CDynamicPoolEx@VCGravityDecorator@NEffectUpdateDecorator@@@@6B@
CONST	SEGMENT
??_7?$CDynamicPoolEx@VCGravityDecorator@NEffectUpdateDecorator@@@@6B@ DD FLAT:??_R4?$CDynamicPoolEx@VCGravityDecorator@NEffectUpdateDecorator@@@@6B@ ; CDynamicPoolEx<NEffectUpdateDecorator::CGravityDecorator>::`vftable'
	DD	FLAT:??_E?$CDynamicPoolEx@VCGravityDecorator@NEffectUpdateDecorator@@@@UAEPAXI@Z
CONST	ENDS
;	COMDAT ??_7?$CDynamicPoolEx@VCRotationDecorator@NEffectUpdateDecorator@@@@6B@
CONST	SEGMENT
??_7?$CDynamicPoolEx@VCRotationDecorator@NEffectUpdateDecorator@@@@6B@ DD FLAT:??_R4?$CDynamicPoolEx@VCRotationDecorator@NEffectUpdateDecorator@@@@6B@ ; CDynamicPoolEx<NEffectUpdateDecorator::CRotationDecorator>::`vftable'
	DD	FLAT:??_E?$CDynamicPoolEx@VCRotationDecorator@NEffectUpdateDecorator@@@@UAEPAXI@Z
CONST	ENDS
;	COMDAT ??_R1A@?0A@EA@?$CDynamicPoolEx@VCRotationDecorator@NEffectUpdateDecorator@@@@8
rdata$r	SEGMENT
??_R1A@?0A@EA@?$CDynamicPoolEx@VCRotationDecorator@NEffectUpdateDecorator@@@@8 DD FLAT:??_R0?AV?$CDynamicPoolEx@VCRotationDecorator@NEffectUpdateDecorator@@@@@8 ; CDynamicPoolEx<NEffectUpdateDecorator::CRotationDecorator>::`RTTI Base Class Descriptor at (0,-1,0,64)'
	DD	00H
	DD	00H
	DD	0ffffffffH
	DD	00H
	DD	040H
	DD	FLAT:??_R3?$CDynamicPoolEx@VCRotationDecorator@NEffectUpdateDecorator@@@@8
rdata$r	ENDS
;	COMDAT ??_R2?$CDynamicPoolEx@VCRotationDecorator@NEffectUpdateDecorator@@@@8
rdata$r	SEGMENT
??_R2?$CDynamicPoolEx@VCRotationDecorator@NEffectUpdateDecorator@@@@8 DD FLAT:??_R1A@?0A@EA@?$CDynamicPoolEx@VCRotationDecorator@NEffectUpdateDecorator@@@@8 ; CDynamicPoolEx<NEffectUpdateDecorator::CRotationDecorator>::`RTTI Base Class Array'
rdata$r	ENDS
;	COMDAT ??_R3?$CDynamicPoolEx@VCRotationDecorator@NEffectUpdateDecorator@@@@8
rdata$r	SEGMENT
??_R3?$CDynamicPoolEx@VCRotationDecorator@NEffectUpdateDecorator@@@@8 DD 00H ; CDynamicPoolEx<NEffectUpdateDecorator::CRotationDecorator>::`RTTI Class Hierarchy Descriptor'
	DD	00H
	DD	01H
	DD	FLAT:??_R2?$CDynamicPoolEx@VCRotationDecorator@NEffectUpdateDecorator@@@@8
rdata$r	ENDS
;	COMDAT ??_R0?AV?$CDynamicPoolEx@VCRotationDecorator@NEffectUpdateDecorator@@@@@8
data$rs	SEGMENT
??_R0?AV?$CDynamicPoolEx@VCRotationDecorator@NEffectUpdateDecorator@@@@@8 DD FLAT:??_7type_info@@6B@ ; CDynamicPoolEx<NEffectUpdateDecorator::CRotationDecorator> `RTTI Type Descriptor'
	DD	00H
	DB	'.?AV?$CDynamicPoolEx@VCRotationDecorator@NEffectUpdateDe'
	DB	'corator@@@@', 00H
data$rs	ENDS
;	COMDAT ??_R4?$CDynamicPoolEx@VCRotationDecorator@NEffectUpdateDecorator@@@@6B@
rdata$r	SEGMENT
??_R4?$CDynamicPoolEx@VCRotationDecorator@NEffectUpdateDecorator@@@@6B@ DD 00H ; CDynamicPoolEx<NEffectUpdateDecorator::CRotationDecorator>::`RTTI Complete Object Locator'
	DD	00H
	DD	00H
	DD	FLAT:??_R0?AV?$CDynamicPoolEx@VCRotationDecorator@NEffectUpdateDecorator@@@@@8
	DD	FLAT:??_R3?$CDynamicPoolEx@VCRotationDecorator@NEffectUpdateDecorator@@@@8
rdata$r	ENDS
;	COMDAT ??_R1A@?0A@EA@?$CDynamicPoolEx@VCGravityDecorator@NEffectUpdateDecorator@@@@8
rdata$r	SEGMENT
??_R1A@?0A@EA@?$CDynamicPoolEx@VCGravityDecorator@NEffectUpdateDecorator@@@@8 DD FLAT:??_R0?AV?$CDynamicPoolEx@VCGravityDecorator@NEffectUpdateDecorator@@@@@8 ; CDynamicPoolEx<NEffectUpdateDecorator::CGravityDecorator>::`RTTI Base Class Descriptor at (0,-1,0,64)'
	DD	00H
	DD	00H
	DD	0ffffffffH
	DD	00H
	DD	040H
	DD	FLAT:??_R3?$CDynamicPoolEx@VCGravityDecorator@NEffectUpdateDecorator@@@@8
rdata$r	ENDS
;	COMDAT ??_R2?$CDynamicPoolEx@VCGravityDecorator@NEffectUpdateDecorator@@@@8
rdata$r	SEGMENT
??_R2?$CDynamicPoolEx@VCGravityDecorator@NEffectUpdateDecorator@@@@8 DD FLAT:??_R1A@?0A@EA@?$CDynamicPoolEx@VCGravityDecorator@NEffectUpdateDecorator@@@@8 ; CDynamicPoolEx<NEffectUpdateDecorator::CGravityDecorator>::`RTTI Base Class Array'
rdata$r	ENDS
;	COMDAT ??_R3?$CDynamicPoolEx@VCGravityDecorator@NEffectUpdateDecorator@@@@8
rdata$r	SEGMENT
??_R3?$CDynamicPoolEx@VCGravityDecorator@NEffectUpdateDecorator@@@@8 DD 00H ; CDynamicPoolEx<NEffectUpdateDecorator::CGravityDecorator>::`RTTI Class Hierarchy Descriptor'
	DD	00H
	DD	01H
	DD	FLAT:??_R2?$CDynamicPoolEx@VCGravityDecorator@NEffectUpdateDecorator@@@@8
rdata$r	ENDS
;	COMDAT ??_R0?AV?$CDynamicPoolEx@VCGravityDecorator@NEffectUpdateDecorator@@@@@8
data$rs	SEGMENT
??_R0?AV?$CDynamicPoolEx@VCGravityDecorator@NEffectUpdateDecorator@@@@@8 DD FLAT:??_7type_info@@6B@ ; CDynamicPoolEx<NEffectUpdateDecorator::CGravityDecorator> `RTTI Type Descriptor'
	DD	00H
	DB	'.?AV?$CDynamicPoolEx@VCGravityDecorator@NEffectUpdateDec'
	DB	'orator@@@@', 00H
data$rs	ENDS
;	COMDAT ??_R4?$CDynamicPoolEx@VCGravityDecorator@NEffectUpdateDecorator@@@@6B@
rdata$r	SEGMENT
??_R4?$CDynamicPoolEx@VCGravityDecorator@NEffectUpdateDecorator@@@@6B@ DD 00H ; CDynamicPoolEx<NEffectUpdateDecorator::CGravityDecorator>::`RTTI Complete Object Locator'
	DD	00H
	DD	00H
	DD	FLAT:??_R0?AV?$CDynamicPoolEx@VCGravityDecorator@NEffectUpdateDecorator@@@@@8
	DD	FLAT:??_R3?$CDynamicPoolEx@VCGravityDecorator@NEffectUpdateDecorator@@@@8
rdata$r	ENDS
;	COMDAT ??_R1A@?0A@EA@?$CDynamicPoolEx@VCAirResistanceDecorator@NEffectUpdateDecorator@@@@8
rdata$r	SEGMENT
??_R1A@?0A@EA@?$CDynamicPoolEx@VCAirResistanceDecorator@NEffectUpdateDecorator@@@@8 DD FLAT:??_R0?AV?$CDynamicPoolEx@VCAirResistanceDecorator@NEffectUpdateDecorator@@@@@8 ; CDynamicPoolEx<NEffectUpdateDecorator::CAirResistanceDecorator>::`RTTI Base Class Descriptor at (0,-1,0,64)'
	DD	00H
	DD	00H
	DD	0ffffffffH
	DD	00H
	DD	040H
	DD	FLAT:??_R3?$CDynamicPoolEx@VCAirResistanceDecorator@NEffectUpdateDecorator@@@@8
rdata$r	ENDS
;	COMDAT ??_R2?$CDynamicPoolEx@VCAirResistanceDecorator@NEffectUpdateDecorator@@@@8
rdata$r	SEGMENT
??_R2?$CDynamicPoolEx@VCAirResistanceDecorator@NEffectUpdateDecorator@@@@8 DD FLAT:??_R1A@?0A@EA@?$CDynamicPoolEx@VCAirResistanceDecorator@NEffectUpdateDecorator@@@@8 ; CDynamicPoolEx<NEffectUpdateDecorator::CAirResistanceDecorator>::`RTTI Base Class Array'
rdata$r	ENDS
;	COMDAT ??_R3?$CDynamicPoolEx@VCAirResistanceDecorator@NEffectUpdateDecorator@@@@8
rdata$r	SEGMENT
??_R3?$CDynamicPoolEx@VCAirResistanceDecorator@NEffectUpdateDecorator@@@@8 DD 00H ; CDynamicPoolEx<NEffectUpdateDecorator::CAirResistanceDecorator>::`RTTI Class Hierarchy Descriptor'
	DD	00H
	DD	01H
	DD	FLAT:??_R2?$CDynamicPoolEx@VCAirResistanceDecorator@NEffectUpdateDecorator@@@@8
rdata$r	ENDS
;	COMDAT ??_R0?AV?$CDynamicPoolEx@VCAirResistanceDecorator@NEffectUpdateDecorator@@@@@8
data$rs	SEGMENT
??_R0?AV?$CDynamicPoolEx@VCAirResistanceDecorator@NEffectUpdateDecorator@@@@@8 DD FLAT:??_7type_info@@6B@ ; CDynamicPoolEx<NEffectUpdateDecorator::CAirResistanceDecorator> `RTTI Type Descriptor'
	DD	00H
	DB	'.?AV?$CDynamicPoolEx@VCAirResistanceDecorator@NEffectUpd'
	DB	'ateDecorator@@@@', 00H
data$rs	ENDS
;	COMDAT ??_R4?$CDynamicPoolEx@VCAirResistanceDecorator@NEffectUpdateDecorator@@@@6B@
rdata$r	SEGMENT
??_R4?$CDynamicPoolEx@VCAirResistanceDecorator@NEffectUpdateDecorator@@@@6B@ DD 00H ; CDynamicPoolEx<NEffectUpdateDecorator::CAirResistanceDecorator>::`RTTI Complete Object Locator'
	DD	00H
	DD	00H
	DD	FLAT:??_R0?AV?$CDynamicPoolEx@VCAirResistanceDecorator@NEffectUpdateDecorator@@@@@8
	DD	FLAT:??_R3?$CDynamicPoolEx@VCAirResistanceDecorator@NEffectUpdateDecorator@@@@8
rdata$r	ENDS
;	COMDAT ??_R1A@?0A@EA@?$CDynamicPoolEx@VCTextureAnimationRandomDecorator@NEffectUpdateDecorator@@@@8
rdata$r	SEGMENT
??_R1A@?0A@EA@?$CDynamicPoolEx@VCTextureAnimationRandomDecorator@NEffectUpdateDecorator@@@@8 DD FLAT:??_R0?AV?$CDynamicPoolEx@VCTextureAnimationRandomDecorator@NEffectUpdateDecorator@@@@@8 ; CDynamicPoolEx<NEffectUpdateDecorator::CTextureAnimationRandomDecorator>::`RTTI Base Class Descriptor at (0,-1,0,64)'
	DD	00H
	DD	00H
	DD	0ffffffffH
	DD	00H
	DD	040H
	DD	FLAT:??_R3?$CDynamicPoolEx@VCTextureAnimationRandomDecorator@NEffectUpdateDecorator@@@@8
rdata$r	ENDS
;	COMDAT ??_R2?$CDynamicPoolEx@VCTextureAnimationRandomDecorator@NEffectUpdateDecorator@@@@8
rdata$r	SEGMENT
??_R2?$CDynamicPoolEx@VCTextureAnimationRandomDecorator@NEffectUpdateDecorator@@@@8 DD FLAT:??_R1A@?0A@EA@?$CDynamicPoolEx@VCTextureAnimationRandomDecorator@NEffectUpdateDecorator@@@@8 ; CDynamicPoolEx<NEffectUpdateDecorator::CTextureAnimationRandomDecorator>::`RTTI Base Class Array'
rdata$r	ENDS
;	COMDAT ??_R3?$CDynamicPoolEx@VCTextureAnimationRandomDecorator@NEffectUpdateDecorator@@@@8
rdata$r	SEGMENT
??_R3?$CDynamicPoolEx@VCTextureAnimationRandomDecorator@NEffectUpdateDecorator@@@@8 DD 00H ; CDynamicPoolEx<NEffectUpdateDecorator::CTextureAnimationRandomDecorator>::`RTTI Class Hierarchy Descriptor'
	DD	00H
	DD	01H
	DD	FLAT:??_R2?$CDynamicPoolEx@VCTextureAnimationRandomDecorator@NEffectUpdateDecorator@@@@8
rdata$r	ENDS
;	COMDAT ??_R0?AV?$CDynamicPoolEx@VCTextureAnimationRandomDecorator@NEffectUpdateDecorator@@@@@8
data$rs	SEGMENT
??_R0?AV?$CDynamicPoolEx@VCTextureAnimationRandomDecorator@NEffectUpdateDecorator@@@@@8 DD FLAT:??_7type_info@@6B@ ; CDynamicPoolEx<NEffectUpdateDecorator::CTextureAnimationRandomDecorator> `RTTI Type Descriptor'
	DD	00H
	DB	'.?AV?$CDynamicPoolEx@VCTextureAnimationRandomDecorator@N'
	DB	'EffectUpdateDecorator@@@@', 00H
data$rs	ENDS
;	COMDAT ??_R4?$CDynamicPoolEx@VCTextureAnimationRandomDecorator@NEffectUpdateDecorator@@@@6B@
rdata$r	SEGMENT
??_R4?$CDynamicPoolEx@VCTextureAnimationRandomDecorator@NEffectUpdateDecorator@@@@6B@ DD 00H ; CDynamicPoolEx<NEffectUpdateDecorator::CTextureAnimationRandomDecorator>::`RTTI Complete Object Locator'
	DD	00H
	DD	00H
	DD	FLAT:??_R0?AV?$CDynamicPoolEx@VCTextureAnimationRandomDecorator@NEffectUpdateDecorator@@@@@8
	DD	FLAT:??_R3?$CDynamicPoolEx@VCTextureAnimationRandomDecorator@NEffectUpdateDecorator@@@@8
rdata$r	ENDS
;	COMDAT ??_R1A@?0A@EA@?$CDynamicPoolEx@VCTextureAnimationCCWDecorator@NEffectUpdateDecorator@@@@8
rdata$r	SEGMENT
??_R1A@?0A@EA@?$CDynamicPoolEx@VCTextureAnimationCCWDecorator@NEffectUpdateDecorator@@@@8 DD FLAT:??_R0?AV?$CDynamicPoolEx@VCTextureAnimationCCWDecorator@NEffectUpdateDecorator@@@@@8 ; CDynamicPoolEx<NEffectUpdateDecorator::CTextureAnimationCCWDecorator>::`RTTI Base Class Descriptor at (0,-1,0,64)'
	DD	00H
	DD	00H
	DD	0ffffffffH
	DD	00H
	DD	040H
	DD	FLAT:??_R3?$CDynamicPoolEx@VCTextureAnimationCCWDecorator@NEffectUpdateDecorator@@@@8
rdata$r	ENDS
;	COMDAT ??_R2?$CDynamicPoolEx@VCTextureAnimationCCWDecorator@NEffectUpdateDecorator@@@@8
rdata$r	SEGMENT
??_R2?$CDynamicPoolEx@VCTextureAnimationCCWDecorator@NEffectUpdateDecorator@@@@8 DD FLAT:??_R1A@?0A@EA@?$CDynamicPoolEx@VCTextureAnimationCCWDecorator@NEffectUpdateDecorator@@@@8 ; CDynamicPoolEx<NEffectUpdateDecorator::CTextureAnimationCCWDecorator>::`RTTI Base Class Array'
rdata$r	ENDS
;	COMDAT ??_R3?$CDynamicPoolEx@VCTextureAnimationCCWDecorator@NEffectUpdateDecorator@@@@8
rdata$r	SEGMENT
??_R3?$CDynamicPoolEx@VCTextureAnimationCCWDecorator@NEffectUpdateDecorator@@@@8 DD 00H ; CDynamicPoolEx<NEffectUpdateDecorator::CTextureAnimationCCWDecorator>::`RTTI Class Hierarchy Descriptor'
	DD	00H
	DD	01H
	DD	FLAT:??_R2?$CDynamicPoolEx@VCTextureAnimationCCWDecorator@NEffectUpdateDecorator@@@@8
rdata$r	ENDS
;	COMDAT ??_R0?AV?$CDynamicPoolEx@VCTextureAnimationCCWDecorator@NEffectUpdateDecorator@@@@@8
data$rs	SEGMENT
??_R0?AV?$CDynamicPoolEx@VCTextureAnimationCCWDecorator@NEffectUpdateDecorator@@@@@8 DD FLAT:??_7type_info@@6B@ ; CDynamicPoolEx<NEffectUpdateDecorator::CTextureAnimationCCWDecorator> `RTTI Type Descriptor'
	DD	00H
	DB	'.?AV?$CDynamicPoolEx@VCTextureAnimationCCWDecorator@NEff'
	DB	'ectUpdateDecorator@@@@', 00H
data$rs	ENDS
;	COMDAT ??_R4?$CDynamicPoolEx@VCTextureAnimationCCWDecorator@NEffectUpdateDecorator@@@@6B@
rdata$r	SEGMENT
??_R4?$CDynamicPoolEx@VCTextureAnimationCCWDecorator@NEffectUpdateDecorator@@@@6B@ DD 00H ; CDynamicPoolEx<NEffectUpdateDecorator::CTextureAnimationCCWDecorator>::`RTTI Complete Object Locator'
	DD	00H
	DD	00H
	DD	FLAT:??_R0?AV?$CDynamicPoolEx@VCTextureAnimationCCWDecorator@NEffectUpdateDecorator@@@@@8
	DD	FLAT:??_R3?$CDynamicPoolEx@VCTextureAnimationCCWDecorator@NEffectUpdateDecorator@@@@8
rdata$r	ENDS
;	COMDAT ??_R1A@?0A@EA@?$CDynamicPoolEx@VCTextureAnimationCWDecorator@NEffectUpdateDecorator@@@@8
rdata$r	SEGMENT
??_R1A@?0A@EA@?$CDynamicPoolEx@VCTextureAnimationCWDecorator@NEffectUpdateDecorator@@@@8 DD FLAT:??_R0?AV?$CDynamicPoolEx@VCTextureAnimationCWDecorator@NEffectUpdateDecorator@@@@@8 ; CDynamicPoolEx<NEffectUpdateDecorator::CTextureAnimationCWDecorator>::`RTTI Base Class Descriptor at (0,-1,0,64)'
	DD	00H
	DD	00H
	DD	0ffffffffH
	DD	00H
	DD	040H
	DD	FLAT:??_R3?$CDynamicPoolEx@VCTextureAnimationCWDecorator@NEffectUpdateDecorator@@@@8
rdata$r	ENDS
;	COMDAT ??_R2?$CDynamicPoolEx@VCTextureAnimationCWDecorator@NEffectUpdateDecorator@@@@8
rdata$r	SEGMENT
??_R2?$CDynamicPoolEx@VCTextureAnimationCWDecorator@NEffectUpdateDecorator@@@@8 DD FLAT:??_R1A@?0A@EA@?$CDynamicPoolEx@VCTextureAnimationCWDecorator@NEffectUpdateDecorator@@@@8 ; CDynamicPoolEx<NEffectUpdateDecorator::CTextureAnimationCWDecorator>::`RTTI Base Class Array'
rdata$r	ENDS
;	COMDAT ??_R3?$CDynamicPoolEx@VCTextureAnimationCWDecorator@NEffectUpdateDecorator@@@@8
rdata$r	SEGMENT
??_R3?$CDynamicPoolEx@VCTextureAnimationCWDecorator@NEffectUpdateDecorator@@@@8 DD 00H ; CDynamicPoolEx<NEffectUpdateDecorator::CTextureAnimationCWDecorator>::`RTTI Class Hierarchy Descriptor'
	DD	00H
	DD	01H
	DD	FLAT:??_R2?$CDynamicPoolEx@VCTextureAnimationCWDecorator@NEffectUpdateDecorator@@@@8
rdata$r	ENDS
;	COMDAT ??_R0?AV?$CDynamicPoolEx@VCTextureAnimationCWDecorator@NEffectUpdateDecorator@@@@@8
data$rs	SEGMENT
??_R0?AV?$CDynamicPoolEx@VCTextureAnimationCWDecorator@NEffectUpdateDecorator@@@@@8 DD FLAT:??_7type_info@@6B@ ; CDynamicPoolEx<NEffectUpdateDecorator::CTextureAnimationCWDecorator> `RTTI Type Descriptor'
	DD	00H
	DB	'.?AV?$CDynamicPoolEx@VCTextureAnimationCWDecorator@NEffe'
	DB	'ctUpdateDecorator@@@@', 00H
data$rs	ENDS
;	COMDAT ??_R4?$CDynamicPoolEx@VCTextureAnimationCWDecorator@NEffectUpdateDecorator@@@@6B@
rdata$r	SEGMENT
??_R4?$CDynamicPoolEx@VCTextureAnimationCWDecorator@NEffectUpdateDecorator@@@@6B@ DD 00H ; CDynamicPoolEx<NEffectUpdateDecorator::CTextureAnimationCWDecorator>::`RTTI Complete Object Locator'
	DD	00H
	DD	00H
	DD	FLAT:??_R0?AV?$CDynamicPoolEx@VCTextureAnimationCWDecorator@NEffectUpdateDecorator@@@@@8
	DD	FLAT:??_R3?$CDynamicPoolEx@VCTextureAnimationCWDecorator@NEffectUpdateDecorator@@@@8
rdata$r	ENDS
;	COMDAT ??_R1A@?0A@EA@?$CDynamicPoolEx@VCNullDecorator@NEffectUpdateDecorator@@@@8
rdata$r	SEGMENT
??_R1A@?0A@EA@?$CDynamicPoolEx@VCNullDecorator@NEffectUpdateDecorator@@@@8 DD FLAT:??_R0?AV?$CDynamicPoolEx@VCNullDecorator@NEffectUpdateDecorator@@@@@8 ; CDynamicPoolEx<NEffectUpdateDecorator::CNullDecorator>::`RTTI Base Class Descriptor at (0,-1,0,64)'
	DD	00H
	DD	00H
	DD	0ffffffffH
	DD	00H
	DD	040H
	DD	FLAT:??_R3?$CDynamicPoolEx@VCNullDecorator@NEffectUpdateDecorator@@@@8
rdata$r	ENDS
;	COMDAT ??_R2?$CDynamicPoolEx@VCNullDecorator@NEffectUpdateDecorator@@@@8
rdata$r	SEGMENT
??_R2?$CDynamicPoolEx@VCNullDecorator@NEffectUpdateDecorator@@@@8 DD FLAT:??_R1A@?0A@EA@?$CDynamicPoolEx@VCNullDecorator@NEffectUpdateDecorator@@@@8 ; CDynamicPoolEx<NEffectUpdateDecorator::CNullDecorator>::`RTTI Base Class Array'
rdata$r	ENDS
;	COMDAT ??_R3?$CDynamicPoolEx@VCNullDecorator@NEffectUpdateDecorator@@@@8
rdata$r	SEGMENT
??_R3?$CDynamicPoolEx@VCNullDecorator@NEffectUpdateDecorator@@@@8 DD 00H ; CDynamicPoolEx<NEffectUpdateDecorator::CNullDecorator>::`RTTI Class Hierarchy Descriptor'
	DD	00H
	DD	01H
	DD	FLAT:??_R2?$CDynamicPoolEx@VCNullDecorator@NEffectUpdateDecorator@@@@8
rdata$r	ENDS
;	COMDAT ??_R0?AV?$CDynamicPoolEx@VCNullDecorator@NEffectUpdateDecorator@@@@@8
data$rs	SEGMENT
??_R0?AV?$CDynamicPoolEx@VCNullDecorator@NEffectUpdateDecorator@@@@@8 DD FLAT:??_7type_info@@6B@ ; CDynamicPoolEx<NEffectUpdateDecorator::CNullDecorator> `RTTI Type Descriptor'
	DD	00H
	DB	'.?AV?$CDynamicPoolEx@VCNullDecorator@NEffectUpdateDecora'
	DB	'tor@@@@', 00H
data$rs	ENDS
;	COMDAT ??_R4?$CDynamicPoolEx@VCNullDecorator@NEffectUpdateDecorator@@@@6B@
rdata$r	SEGMENT
??_R4?$CDynamicPoolEx@VCNullDecorator@NEffectUpdateDecorator@@@@6B@ DD 00H ; CDynamicPoolEx<NEffectUpdateDecorator::CNullDecorator>::`RTTI Complete Object Locator'
	DD	00H
	DD	00H
	DD	FLAT:??_R0?AV?$CDynamicPoolEx@VCNullDecorator@NEffectUpdateDecorator@@@@@8
	DD	FLAT:??_R3?$CDynamicPoolEx@VCNullDecorator@NEffectUpdateDecorator@@@@8
rdata$r	ENDS
;	COMDAT ??_R1A@?0A@EA@?$CDynamicPoolEx@VCHeaderDecorator@NEffectUpdateDecorator@@@@8
rdata$r	SEGMENT
??_R1A@?0A@EA@?$CDynamicPoolEx@VCHeaderDecorator@NEffectUpdateDecorator@@@@8 DD FLAT:??_R0?AV?$CDynamicPoolEx@VCHeaderDecorator@NEffectUpdateDecorator@@@@@8 ; CDynamicPoolEx<NEffectUpdateDecorator::CHeaderDecorator>::`RTTI Base Class Descriptor at (0,-1,0,64)'
	DD	00H
	DD	00H
	DD	0ffffffffH
	DD	00H
	DD	040H
	DD	FLAT:??_R3?$CDynamicPoolEx@VCHeaderDecorator@NEffectUpdateDecorator@@@@8
rdata$r	ENDS
;	COMDAT ??_R2?$CDynamicPoolEx@VCHeaderDecorator@NEffectUpdateDecorator@@@@8
rdata$r	SEGMENT
??_R2?$CDynamicPoolEx@VCHeaderDecorator@NEffectUpdateDecorator@@@@8 DD FLAT:??_R1A@?0A@EA@?$CDynamicPoolEx@VCHeaderDecorator@NEffectUpdateDecorator@@@@8 ; CDynamicPoolEx<NEffectUpdateDecorator::CHeaderDecorator>::`RTTI Base Class Array'
rdata$r	ENDS
;	COMDAT ??_R3?$CDynamicPoolEx@VCHeaderDecorator@NEffectUpdateDecorator@@@@8
rdata$r	SEGMENT
??_R3?$CDynamicPoolEx@VCHeaderDecorator@NEffectUpdateDecorator@@@@8 DD 00H ; CDynamicPoolEx<NEffectUpdateDecorator::CHeaderDecorator>::`RTTI Class Hierarchy Descriptor'
	DD	00H
	DD	01H
	DD	FLAT:??_R2?$CDynamicPoolEx@VCHeaderDecorator@NEffectUpdateDecorator@@@@8
rdata$r	ENDS
;	COMDAT ??_R0?AV?$CDynamicPoolEx@VCHeaderDecorator@NEffectUpdateDecorator@@@@@8
data$rs	SEGMENT
??_R0?AV?$CDynamicPoolEx@VCHeaderDecorator@NEffectUpdateDecorator@@@@@8 DD FLAT:??_7type_info@@6B@ ; CDynamicPoolEx<NEffectUpdateDecorator::CHeaderDecorator> `RTTI Type Descriptor'
	DD	00H
	DB	'.?AV?$CDynamicPoolEx@VCHeaderDecorator@NEffectUpdateDeco'
	DB	'rator@@@@', 00H
data$rs	ENDS
;	COMDAT ??_R4?$CDynamicPoolEx@VCHeaderDecorator@NEffectUpdateDecorator@@@@6B@
rdata$r	SEGMENT
??_R4?$CDynamicPoolEx@VCHeaderDecorator@NEffectUpdateDecorator@@@@6B@ DD 00H ; CDynamicPoolEx<NEffectUpdateDecorator::CHeaderDecorator>::`RTTI Complete Object Locator'
	DD	00H
	DD	00H
	DD	FLAT:??_R0?AV?$CDynamicPoolEx@VCHeaderDecorator@NEffectUpdateDecorator@@@@@8
	DD	FLAT:??_R3?$CDynamicPoolEx@VCHeaderDecorator@NEffectUpdateDecorator@@@@8
rdata$r	ENDS
;	COMDAT ??_7?$CDynamicPoolEx@VCHeaderDecorator@NEffectUpdateDecorator@@@@6B@
CONST	SEGMENT
??_7?$CDynamicPoolEx@VCHeaderDecorator@NEffectUpdateDecorator@@@@6B@ DD FLAT:??_R4?$CDynamicPoolEx@VCHeaderDecorator@NEffectUpdateDecorator@@@@6B@ ; CDynamicPoolEx<NEffectUpdateDecorator::CHeaderDecorator>::`vftable'
	DD	FLAT:??_E?$CDynamicPoolEx@VCHeaderDecorator@NEffectUpdateDecorator@@@@UAEPAXI@Z
CONST	ENDS
;	COMDAT ??_7?$CDynamicPoolEx@VCNullDecorator@NEffectUpdateDecorator@@@@6B@
CONST	SEGMENT
??_7?$CDynamicPoolEx@VCNullDecorator@NEffectUpdateDecorator@@@@6B@ DD FLAT:??_R4?$CDynamicPoolEx@VCNullDecorator@NEffectUpdateDecorator@@@@6B@ ; CDynamicPoolEx<NEffectUpdateDecorator::CNullDecorator>::`vftable'
	DD	FLAT:??_E?$CDynamicPoolEx@VCNullDecorator@NEffectUpdateDecorator@@@@UAEPAXI@Z
CONST	ENDS
;	COMDAT ??_7?$CDynamicPoolEx@VCTextureAnimationCWDecorator@NEffectUpdateDecorator@@@@6B@
CONST	SEGMENT
??_7?$CDynamicPoolEx@VCTextureAnimationCWDecorator@NEffectUpdateDecorator@@@@6B@ DD FLAT:??_R4?$CDynamicPoolEx@VCTextureAnimationCWDecorator@NEffectUpdateDecorator@@@@6B@ ; CDynamicPoolEx<NEffectUpdateDecorator::CTextureAnimationCWDecorator>::`vftable'
	DD	FLAT:??_E?$CDynamicPoolEx@VCTextureAnimationCWDecorator@NEffectUpdateDecorator@@@@UAEPAXI@Z
CONST	ENDS
CONST	SEGMENT
?_Fake_alloc@std@@3U_Fake_allocator@1@B	ORG $+1		; std::_Fake_alloc
CONST	ENDS
;	COMDAT ??_7?$CDynamicPoolEx@VCTextureAnimationCCWDecorator@NEffectUpdateDecorator@@@@6B@
CONST	SEGMENT
??_7?$CDynamicPoolEx@VCTextureAnimationCCWDecorator@NEffectUpdateDecorator@@@@6B@ DD FLAT:??_R4?$CDynamicPoolEx@VCTextureAnimationCCWDecorator@NEffectUpdateDecorator@@@@6B@ ; CDynamicPoolEx<NEffectUpdateDecorator::CTextureAnimationCCWDecorator>::`vftable'
	DD	FLAT:??_E?$CDynamicPoolEx@VCTextureAnimationCCWDecorator@NEffectUpdateDecorator@@@@UAEPAXI@Z
CONST	ENDS
;	COMDAT ??_7?$CDynamicPoolEx@VCTextureAnimationRandomDecorator@NEffectUpdateDecorator@@@@6B@
CONST	SEGMENT
??_7?$CDynamicPoolEx@VCTextureAnimationRandomDecorator@NEffectUpdateDecorator@@@@6B@ DD FLAT:??_R4?$CDynamicPoolEx@VCTextureAnimationRandomDecorator@NEffectUpdateDecorator@@@@6B@ ; CDynamicPoolEx<NEffectUpdateDecorator::CTextureAnimationRandomDecorator>::`vftable'
	DD	FLAT:??_E?$CDynamicPoolEx@VCTextureAnimationRandomDecorator@NEffectUpdateDecorator@@@@UAEPAXI@Z
CONST	ENDS
;	COMDAT ??_7?$CDynamicPoolEx@VCAirResistanceDecorator@NEffectUpdateDecorator@@@@6B@
CONST	SEGMENT
??_7?$CDynamicPoolEx@VCAirResistanceDecorator@NEffectUpdateDecorator@@@@6B@ DD FLAT:??_R4?$CDynamicPoolEx@VCAirResistanceDecorator@NEffectUpdateDecorator@@@@6B@ ; CDynamicPoolEx<NEffectUpdateDecorator::CAirResistanceDecorator>::`vftable'
	DD	FLAT:??_E?$CDynamicPoolEx@VCAirResistanceDecorator@NEffectUpdateDecorator@@@@UAEPAXI@Z
CONST	ENDS
PUBLIC	??_H@YGXPAXIIP6EPAX0@Z@Z			; `vector constructor iterator'
PUBLIC	?__empty_global_delete@@YAXPAX@Z		; __empty_global_delete
PUBLIC	?__empty_global_delete@@YAXPAXI@Z		; __empty_global_delete
PUBLIC	??0D3DXMATRIX@@QAE@XZ				; D3DXMATRIX::D3DXMATRIX
PUBLIC	??0exception@std@@QAE@ABV01@@Z			; std::exception::exception
PUBLIC	??1exception@std@@UAE@XZ			; std::exception::~exception
PUBLIC	?what@exception@std@@UBEPBDXZ			; std::exception::what
PUBLIC	??_Gexception@std@@UAEPAXI@Z			; std::exception::`scalar deleting destructor'
PUBLIC	??0bad_alloc@std@@QAE@ABV01@@Z			; std::bad_alloc::bad_alloc
PUBLIC	??_Gbad_alloc@std@@UAEPAXI@Z			; std::bad_alloc::`scalar deleting destructor'
PUBLIC	??0bad_array_new_length@std@@QAE@XZ		; std::bad_array_new_length::bad_array_new_length
PUBLIC	??1bad_array_new_length@std@@UAE@XZ		; std::bad_array_new_length::~bad_array_new_length
PUBLIC	??0bad_array_new_length@std@@QAE@ABV01@@Z	; std::bad_array_new_length::bad_array_new_length
PUBLIC	??_Gbad_array_new_length@std@@UAEPAXI@Z		; std::bad_array_new_length::`scalar deleting destructor'
PUBLIC	?_Throw_bad_array_new_length@std@@YAXXZ		; std::_Throw_bad_array_new_length
PUBLIC	??$_Allocate_manually_vector_aligned@U_Default_allocate_traits@std@@@std@@YAPAXI@Z ; std::_Allocate_manually_vector_aligned<std::_Default_allocate_traits>
PUBLIC	?_Xlength@?$vector@UCDynamicSphereInstance@@V?$allocator@UCDynamicSphereInstance@@@std@@@std@@CAXXZ ; std::vector<CDynamicSphereInstance,std::allocator<CDynamicSphereInstance> >::_Xlength
PUBLIC	?MotionEventProcess@CActorInstance@@QAEXXZ	; CActorInstance::MotionEventProcess
PUBLIC	?MotionEventProcess@CActorInstance@@QAEXKHPBUSMotionEventData@NMotionEvent@@@Z ; CActorInstance::MotionEventProcess
PUBLIC	?SoundEventProcess@CActorInstance@@QAEXH@Z	; CActorInstance::SoundEventProcess
PUBLIC	?ProcessMotionEventEffectEvent@CActorInstance@@IAEXPBUSMotionEventData@NMotionEvent@@@Z ; CActorInstance::ProcessMotionEventEffectEvent
PUBLIC	?ProcessMotionEventEffectToTargetEvent@CActorInstance@@IAEXPBUSMotionEventData@NMotionEvent@@@Z ; CActorInstance::ProcessMotionEventEffectToTargetEvent
PUBLIC	?ProcessMotionEventSpecialAttacking@CActorInstance@@IAEXHPBUSMotionEventData@NMotionEvent@@@Z ; CActorInstance::ProcessMotionEventSpecialAttacking
PUBLIC	?ProcessMotionEventSound@CActorInstance@@IAEXPBUSMotionEventData@NMotionEvent@@@Z ; CActorInstance::ProcessMotionEventSound
PUBLIC	?ProcessMotionEventFly@CActorInstance@@IAEXPBUSMotionEventData@NMotionEvent@@@Z ; CActorInstance::ProcessMotionEventFly
PUBLIC	?ProcessMotionEventWarp@CActorInstance@@IAEXPBUSMotionEventData@NMotionEvent@@@Z ; CActorInstance::ProcessMotionEventWarp
PUBLIC	?__ShowEvent@CActorInstance@@IAEXXZ		; CActorInstance::__ShowEvent
PUBLIC	?__HideEvent@CActorInstance@@IAEXXZ		; CActorInstance::__HideEvent
PUBLIC	?__IsHiding@CActorInstance@@IAEHXZ		; CActorInstance::__IsHiding
PUBLIC	??$_Erase_tree@V?$allocator@U?$_Tree_node@U?$pair@QAVCActorInstance@@M@std@@PAX@std@@@std@@@?$_Tree_val@U?$_Tree_simple_types@U?$pair@QAVCActorInstance@@M@std@@@std@@@std@@QAEXAAV?$allocator@U?$_Tree_node@U?$pair@QAVCActorInstance@@M@std@@PAX@std@@@1@PAU?$_Tree_node@U?$pair@QAVCActorInstance@@M@std@@PAX@1@@Z ; std::_Tree_val<std::_Tree_simple_types<std::pair<CActorInstance * const,float> > >::_Erase_tree<std::allocator<std::_Tree_node<std::pair<CActorInstance * const,float>,void *> > >
PUBLIC	??1?$CDynamicPoolEx@VCRotationDecorator@NEffectUpdateDecorator@@@@UAE@XZ ; CDynamicPoolEx<NEffectUpdateDecorator::CRotationDecorator>::~CDynamicPoolEx<NEffectUpdateDecorator::CRotationDecorator>
PUBLIC	?Delete@?$CDynamicPoolEx@VCRotationDecorator@NEffectUpdateDecorator@@@@KAXPAVCRotationDecorator@NEffectUpdateDecorator@@@Z ; CDynamicPoolEx<NEffectUpdateDecorator::CRotationDecorator>::Delete
PUBLIC	??1?$CDynamicPoolEx@VCGravityDecorator@NEffectUpdateDecorator@@@@UAE@XZ ; CDynamicPoolEx<NEffectUpdateDecorator::CGravityDecorator>::~CDynamicPoolEx<NEffectUpdateDecorator::CGravityDecorator>
PUBLIC	?Delete@?$CDynamicPoolEx@VCGravityDecorator@NEffectUpdateDecorator@@@@KAXPAVCGravityDecorator@NEffectUpdateDecorator@@@Z ; CDynamicPoolEx<NEffectUpdateDecorator::CGravityDecorator>::Delete
PUBLIC	??1?$CDynamicPoolEx@VCAirResistanceDecorator@NEffectUpdateDecorator@@@@UAE@XZ ; CDynamicPoolEx<NEffectUpdateDecorator::CAirResistanceDecorator>::~CDynamicPoolEx<NEffectUpdateDecorator::CAirResistanceDecorator>
PUBLIC	?Delete@?$CDynamicPoolEx@VCAirResistanceDecorator@NEffectUpdateDecorator@@@@KAXPAVCAirResistanceDecorator@NEffectUpdateDecorator@@@Z ; CDynamicPoolEx<NEffectUpdateDecorator::CAirResistanceDecorator>::Delete
PUBLIC	??1?$CDynamicPoolEx@VCTextureAnimationRandomDecorator@NEffectUpdateDecorator@@@@UAE@XZ ; CDynamicPoolEx<NEffectUpdateDecorator::CTextureAnimationRandomDecorator>::~CDynamicPoolEx<NEffectUpdateDecorator::CTextureAnimationRandomDecorator>
PUBLIC	?Delete@?$CDynamicPoolEx@VCTextureAnimationRandomDecorator@NEffectUpdateDecorator@@@@KAXPAVCTextureAnimationRandomDecorator@NEffectUpdateDecorator@@@Z ; CDynamicPoolEx<NEffectUpdateDecorator::CTextureAnimationRandomDecorator>::Delete
PUBLIC	??1?$CDynamicPoolEx@VCTextureAnimationCCWDecorator@NEffectUpdateDecorator@@@@UAE@XZ ; CDynamicPoolEx<NEffectUpdateDecorator::CTextureAnimationCCWDecorator>::~CDynamicPoolEx<NEffectUpdateDecorator::CTextureAnimationCCWDecorator>
PUBLIC	?Delete@?$CDynamicPoolEx@VCTextureAnimationCCWDecorator@NEffectUpdateDecorator@@@@KAXPAVCTextureAnimationCCWDecorator@NEffectUpdateDecorator@@@Z ; CDynamicPoolEx<NEffectUpdateDecorator::CTextureAnimationCCWDecorator>::Delete
PUBLIC	??1?$CDynamicPoolEx@VCTextureAnimationCWDecorator@NEffectUpdateDecorator@@@@UAE@XZ ; CDynamicPoolEx<NEffectUpdateDecorator::CTextureAnimationCWDecorator>::~CDynamicPoolEx<NEffectUpdateDecorator::CTextureAnimationCWDecorator>
PUBLIC	?Delete@?$CDynamicPoolEx@VCTextureAnimationCWDecorator@NEffectUpdateDecorator@@@@KAXPAVCTextureAnimationCWDecorator@NEffectUpdateDecorator@@@Z ; CDynamicPoolEx<NEffectUpdateDecorator::CTextureAnimationCWDecorator>::Delete
PUBLIC	??1?$CDynamicPoolEx@VCNullDecorator@NEffectUpdateDecorator@@@@UAE@XZ ; CDynamicPoolEx<NEffectUpdateDecorator::CNullDecorator>::~CDynamicPoolEx<NEffectUpdateDecorator::CNullDecorator>
PUBLIC	?Delete@?$CDynamicPoolEx@VCNullDecorator@NEffectUpdateDecorator@@@@KAXPAVCNullDecorator@NEffectUpdateDecorator@@@Z ; CDynamicPoolEx<NEffectUpdateDecorator::CNullDecorator>::Delete
PUBLIC	??1?$CDynamicPoolEx@VCHeaderDecorator@NEffectUpdateDecorator@@@@UAE@XZ ; CDynamicPoolEx<NEffectUpdateDecorator::CHeaderDecorator>::~CDynamicPoolEx<NEffectUpdateDecorator::CHeaderDecorator>
PUBLIC	?Delete@?$CDynamicPoolEx@VCHeaderDecorator@NEffectUpdateDecorator@@@@KAXPAVCHeaderDecorator@NEffectUpdateDecorator@@@Z ; CDynamicPoolEx<NEffectUpdateDecorator::CHeaderDecorator>::Delete
PUBLIC	??$_Resize_reallocate@U_Value_init_tag@std@@@?$vector@UCDynamicSphereInstance@@V?$allocator@UCDynamicSphereInstance@@@std@@@std@@AAEXIABU_Value_init_tag@1@@Z ; std::vector<CDynamicSphereInstance,std::allocator<CDynamicSphereInstance> >::_Resize_reallocate<std::_Value_init_tag>
PUBLIC	??$_Copy_memmove@PAUCDynamicSphereInstance@@PAU1@@std@@YAPAUCDynamicSphereInstance@@PAU1@00@Z ; std::_Copy_memmove<CDynamicSphereInstance *,CDynamicSphereInstance *>
PUBLIC	??_7exception@std@@6B@				; std::exception::`vftable'
PUBLIC	??_C@_0BC@EOODALEL@Unknown?5exception@		; `string'
PUBLIC	??_7bad_alloc@std@@6B@				; std::bad_alloc::`vftable'
PUBLIC	??_7bad_array_new_length@std@@6B@		; std::bad_array_new_length::`vftable'
PUBLIC	??_C@_0BF@KINCDENJ@bad?5array?5new?5length@	; `string'
PUBLIC	__TI3?AVbad_array_new_length@std@@
PUBLIC	__CTA3?AVbad_array_new_length@std@@
PUBLIC	??_R0?AVbad_array_new_length@std@@@8		; std::bad_array_new_length `RTTI Type Descriptor'
PUBLIC	__CT??_R0?AVbad_array_new_length@std@@@8??0bad_array_new_length@std@@QAE@ABV01@@Z12
PUBLIC	??_R0?AVbad_alloc@std@@@8			; std::bad_alloc `RTTI Type Descriptor'
PUBLIC	__CT??_R0?AVbad_alloc@std@@@8??0bad_alloc@std@@QAE@ABV01@@Z12
PUBLIC	??_R0?AVexception@std@@@8			; std::exception `RTTI Type Descriptor'
PUBLIC	__CT??_R0?AVexception@std@@@8??0exception@std@@QAE@ABV01@@Z12
PUBLIC	?ms_singleton@?$CSingleton@VCSoundManager@@@@0PAVCSoundManager@@A ; CSingleton<CSoundManager>::ms_singleton
PUBLIC	??_R4exception@std@@6B@				; std::exception::`RTTI Complete Object Locator'
PUBLIC	??_R3exception@std@@8				; std::exception::`RTTI Class Hierarchy Descriptor'
PUBLIC	??_R2exception@std@@8				; std::exception::`RTTI Base Class Array'
PUBLIC	??_R1A@?0A@EA@exception@std@@8			; std::exception::`RTTI Base Class Descriptor at (0,-1,0,64)'
PUBLIC	??_R4bad_alloc@std@@6B@				; std::bad_alloc::`RTTI Complete Object Locator'
PUBLIC	??_R3bad_alloc@std@@8				; std::bad_alloc::`RTTI Class Hierarchy Descriptor'
PUBLIC	??_R2bad_alloc@std@@8				; std::bad_alloc::`RTTI Base Class Array'
PUBLIC	??_R1A@?0A@EA@bad_alloc@std@@8			; std::bad_alloc::`RTTI Base Class Descriptor at (0,-1,0,64)'
PUBLIC	??_R4bad_array_new_length@std@@6B@		; std::bad_array_new_length::`RTTI Complete Object Locator'
PUBLIC	??_R3bad_array_new_length@std@@8		; std::bad_array_new_length::`RTTI Class Hierarchy Descriptor'
PUBLIC	??_R2bad_array_new_length@std@@8		; std::bad_array_new_length::`RTTI Base Class Array'
PUBLIC	??_R1A@?0A@EA@bad_array_new_length@std@@8	; std::bad_array_new_length::`RTTI Base Class Descriptor at (0,-1,0,64)'
PUBLIC	?ms_kPool@?$CPooledObject@VCHeaderDecorator@NEffectUpdateDecorator@@@@1V?$CDynamicPoolEx@VCHeaderDecorator@NEffectUpdateDecorator@@@@A ; CPooledObject<NEffectUpdateDecorator::CHeaderDecorator>::ms_kPool
PUBLIC	?ms_kPool@?$CPooledObject@VCNullDecorator@NEffectUpdateDecorator@@@@1V?$CDynamicPoolEx@VCNullDecorator@NEffectUpdateDecorator@@@@A ; CPooledObject<NEffectUpdateDecorator::CNullDecorator>::ms_kPool
PUBLIC	?ms_kPool@?$CPooledObject@VCTextureAnimationCWDecorator@NEffectUpdateDecorator@@@@1V?$CDynamicPoolEx@VCTextureAnimationCWDecorator@NEffectUpdateDecorator@@@@A ; CPooledObject<NEffectUpdateDecorator::CTextureAnimationCWDecorator>::ms_kPool
PUBLIC	?ms_kPool@?$CPooledObject@VCTextureAnimationCCWDecorator@NEffectUpdateDecorator@@@@1V?$CDynamicPoolEx@VCTextureAnimationCCWDecorator@NEffectUpdateDecorator@@@@A ; CPooledObject<NEffectUpdateDecorator::CTextureAnimationCCWDecorator>::ms_kPool
PUBLIC	?ms_kPool@?$CPooledObject@VCTextureAnimationRandomDecorator@NEffectUpdateDecorator@@@@1V?$CDynamicPoolEx@VCTextureAnimationRandomDecorator@NEffectUpdateDecorator@@@@A ; CPooledObject<NEffectUpdateDecorator::CTextureAnimationRandomDecorator>::ms_kPool
PUBLIC	?ms_kPool@?$CPooledObject@VCAirResistanceDecorator@NEffectUpdateDecorator@@@@1V?$CDynamicPoolEx@VCAirResistanceDecorator@NEffectUpdateDecorator@@@@A ; CPooledObject<NEffectUpdateDecorator::CAirResistanceDecorator>::ms_kPool
PUBLIC	?ms_kPool@?$CPooledObject@VCGravityDecorator@NEffectUpdateDecorator@@@@1V?$CDynamicPoolEx@VCGravityDecorator@NEffectUpdateDecorator@@@@A ; CPooledObject<NEffectUpdateDecorator::CGravityDecorator>::ms_kPool
PUBLIC	?ms_kPool@?$CPooledObject@VCRotationDecorator@NEffectUpdateDecorator@@@@1V?$CDynamicPoolEx@VCRotationDecorator@NEffectUpdateDecorator@@@@A ; CPooledObject<NEffectUpdateDecorator::CRotationDecorator>::ms_kPool
PUBLIC	?ms_singleton@?$CSingleton@VCEffectManager@@@@0PAVCEffectManager@@A ; CSingleton<CEffectManager>::ms_singleton
PUBLIC	?ms_singleton@?$CSingleton@VCFlyingManager@@@@0PAVCFlyingManager@@A ; CSingleton<CFlyingManager>::ms_singleton
PUBLIC	?ms_singleton@?$CSingleton@VCGameEventManager@@@@0PAVCGameEventManager@@A ; CSingleton<CGameEventManager>::ms_singleton
PUBLIC	??_C@_0P@DFKIDCNE@PLAY?5SOUND?3?5?$CFs@		; `string'
PUBLIC	??_C@_0BA@FOIKENOD@vector?5too?5long@		; `string'
PUBLIC	__real@3c8efa35
PUBLIC	__real@43870000
PUBLIC	__real@441d8000
PUBLIC	__xmm@80000000800000008000000080000000
EXTRN	??2@YAPAXI@Z:PROC				; operator new
EXTRN	??3@YAXPAX@Z:PROC				; operator delete
EXTRN	??3@YAXPAXI@Z:PROC				; operator delete
EXTRN	_atexit:PROC
EXTRN	__invalid_parameter_noinfo_noreturn:PROC
EXTRN	_D3DXVec3Normalize@8:PROC
EXTRN	_D3DXMatrixMultiply@12:PROC
EXTRN	_D3DXMatrixTranslation@16:PROC
EXTRN	___std_exception_copy:PROC
EXTRN	___std_exception_destroy:PROC
EXTRN	??_Eexception@std@@UAEPAXI@Z:PROC		; std::exception::`vector deleting destructor'
EXTRN	??_Ebad_alloc@std@@UAEPAXI@Z:PROC		; std::bad_alloc::`vector deleting destructor'
EXTRN	??_Ebad_array_new_length@std@@UAEPAXI@Z:PROC	; std::bad_array_new_length::`vector deleting destructor'
EXTRN	?_Xlength_error@std@@YAXPBD@Z:PROC		; std::_Xlength_error
EXTRN	?Tracenf@@YAXPBDZZ:PROC				; Tracenf
EXTRN	?GetAttribute@CSphereCollisionInstance@@QBEABUSSphereData@@XZ:PROC ; CSphereCollisionInstance::GetAttribute
EXTRN	?PlaySound3D@CSoundManager@@QAEXMMMPBDH@Z:PROC	; CSoundManager::PlaySound3D
EXTRN	?UpdateSoundInstance@CSoundManager@@QAEXMMMKPBV?$vector@USSoundInstance@NSound@@V?$allocator@USSoundInstance@NSound@@@std@@@std@@H@Z:PROC ; CSoundManager::UpdateSoundInstance
EXTRN	?CreateEffect@CEffectManager@@QAEHKABUD3DXVECTOR3@@0@Z:PROC ; CEffectManager::CreateEffect
EXTRN	?SelectEffectInstance@CEffectManager@@QAEHK@Z:PROC ; CEffectManager::SelectEffectInstance
EXTRN	?DeactiveEffectInstance@CEffectManager@@QAEXK@Z:PROC ; CEffectManager::DeactiveEffectInstance
EXTRN	?SetEffectInstanceGlobalMatrix@CEffectManager@@QAEXABUD3DXMATRIX@@@Z:PROC ; CEffectManager::SetEffectInstanceGlobalMatrix
EXTRN	?IsValidTarget@CFlyTarget@@QAE_NXZ:PROC		; CFlyTarget::IsValidTarget
EXTRN	?GetFlyTargetPosition@CFlyTarget@@QBEABUD3DXVECTOR3@@XZ:PROC ; CFlyTarget::GetFlyTargetPosition
EXTRN	?GetFlyTarget@CFlyTarget@@QAEPAVIFlyTargetableObject@@XZ:PROC ; CFlyTarget::GetFlyTarget
EXTRN	?CreateFlyingInstanceFlyTarget@CFlyingManager@@QAEPAVCFlyingInstance@@KABUD3DXVECTOR3@@ABVCFlyTarget@@_N@Z:PROC ; CFlyingManager::CreateFlyingInstanceFlyTarget
EXTRN	?GetMotionEventDataCount@CRaceMotionData@@QBEKXZ:PROC ; CRaceMotionData::GetMotionEventDataCount
EXTRN	?GetMotionEventDataPointer@CRaceMotionData@@QBEHEPAPBUSMotionEventData@NMotionEvent@@@Z:PROC ; CRaceMotionData::GetMotionEventDataPointer
EXTRN	?GetSoundInstanceVectorPointer@CRaceMotionData@@QBEPBV?$vector@USSoundInstance@NSound@@V?$allocator@USSoundInstance@NSound@@@std@@@std@@XZ:PROC ; CRaceMotionData::GetSoundInstanceVectorPointer
EXTRN	?FindBoneIndex@CGraphicThingInstance@@QAE_NHPBDPAH@Z:PROC ; CGraphicThingInstance::FindBoneIndex
EXTRN	?GetLocalTime@CGraphicThingInstance@@QAEMXZ:PROC ; CGraphicThingInstance::GetLocalTime
EXTRN	?GetBoneMatrix@CGraphicThingInstance@@QAEHKKPAPAUD3DXMATRIX@@@Z:PROC ; CGraphicThingInstance::GetBoneMatrix
EXTRN	?GetBackground@CActorInstance@@CAAAVIBackground@@XZ:PROC ; CActorInstance::GetBackground
EXTRN	?AttachEffectByID@CActorInstance@@QAEKKPBDKPBUD3DXVECTOR3@@@Z:PROC ; CActorInstance::AttachEffectByID
EXTRN	?SetPixelPosition@CActorInstance@@QAEXABUD3DXVECTOR3@@@Z:PROC ; CActorInstance::SetPixelPosition
EXTRN	?LookAt@CActorInstance@@QAEXMM@Z:PROC		; CActorInstance::LookAt
EXTRN	?GetRotation@CActorInstance@@QAEMXZ:PROC	; CActorInstance::GetRotation
EXTRN	?RestoreRenderMode@CActorInstance@@QAEXXZ:PROC	; CActorInstance::RestoreRenderMode
EXTRN	?SetBlendRenderMode@CActorInstance@@QAEXXZ:PROC	; CActorInstance::SetBlendRenderMode
EXTRN	?SetAlphaValue@CActorInstance@@QAEXM@Z:PROC	; CActorInstance::SetAlphaValue
EXTRN	?IsFlyTargetObject@CActorInstance@@QAE_NXZ:PROC	; CActorInstance::IsFlyTargetObject
EXTRN	?__GetFlyTargetPosition@CActorInstance@@IAE?AUD3DXVECTOR3@@XZ:PROC ; CActorInstance::__GetFlyTargetPosition
EXTRN	?__OnWarp@CActorInstance@@QAEXXZ:PROC		; CActorInstance::__OnWarp
EXTRN	?ProcessEventScreenWaving@CGameEventManager@@QAEXPAVCActorInstance@@PBUSMotionEventDataScreenWaving@NMotionEvent@@@Z:PROC ; CGameEventManager::ProcessEventScreenWaving
EXTRN	@__security_check_cookie@4:PROC
EXTRN	__CxxThrowException@8:PROC
EXTRN	__libm_sse2_cos_precise:PROC
EXTRN	__libm_sse2_sin_precise:PROC
EXTRN	_memmove:PROC
EXTRN	_memset:PROC
EXTRN	___security_cookie:DWORD
EXTRN	__fltused:DWORD
;	COMDAT ?ms_singleton@?$CSingleton@VCSoundManager@@@@0PAVCSoundManager@@A
_BSS	SEGMENT
?ms_singleton@?$CSingleton@VCSoundManager@@@@0PAVCSoundManager@@A DD 01H DUP (?) ; CSingleton<CSoundManager>::ms_singleton
_BSS	ENDS
;	COMDAT ?ms_singleton@?$CSingleton@VCEffectManager@@@@0PAVCEffectManager@@A
_BSS	SEGMENT
?ms_singleton@?$CSingleton@VCEffectManager@@@@0PAVCEffectManager@@A DD 01H DUP (?) ; CSingleton<CEffectManager>::ms_singleton
_BSS	ENDS
;	COMDAT ?ms_singleton@?$CSingleton@VCFlyingManager@@@@0PAVCFlyingManager@@A
_BSS	SEGMENT
?ms_singleton@?$CSingleton@VCFlyingManager@@@@0PAVCFlyingManager@@A DD 01H DUP (?) ; CSingleton<CFlyingManager>::ms_singleton
_BSS	ENDS
;	COMDAT ?ms_singleton@?$CSingleton@VCGameEventManager@@@@0PAVCGameEventManager@@A
_BSS	SEGMENT
?ms_singleton@?$CSingleton@VCGameEventManager@@@@0PAVCGameEventManager@@A DD 01H DUP (?) ; CSingleton<CGameEventManager>::ms_singleton
_BSS	ENDS
;	COMDAT CRT$XCU
CRT$XCU	SEGMENT
??ms_kPool$initializer$@?$CPooledObject@VCHeaderDecorator@NEffectUpdateDecorator@@@@1P6AXXZA@@3P6AXXZA DD FLAT:??__E?ms_kPool@?$CPooledObject@VCHeaderDecorator@NEffectUpdateDecorator@@@@1V?$CDynamicPoolEx@VCHeaderDecorator@NEffectUpdateDecorator@@@@A@@YAXXZ ; ??ms_kPool$initializer$@?$CPooledObject@VCHeaderDecorator@NEffectUpdateDecorator@@@@1P6AXXZA@@3P6AXXZA
CRT$XCU	ENDS
;	COMDAT __xmm@80000000800000008000000080000000
CONST	SEGMENT
__xmm@80000000800000008000000080000000 DB 00H, 00H, 00H, 080H, 00H, 00H, 00H
	DB	080H, 00H, 00H, 00H, 080H, 00H, 00H, 00H, 080H
CONST	ENDS
;	COMDAT __real@441d8000
CONST	SEGMENT
__real@441d8000 DD 0441d8000r			; 630
CONST	ENDS
;	COMDAT __real@43870000
CONST	SEGMENT
__real@43870000 DD 043870000r			; 270
CONST	ENDS
;	COMDAT __real@3c8efa35
CONST	SEGMENT
__real@3c8efa35 DD 03c8efa35r			; 0.0174533
CONST	ENDS
;	COMDAT ??_C@_0BA@FOIKENOD@vector?5too?5long@
CONST	SEGMENT
??_C@_0BA@FOIKENOD@vector?5too?5long@ DB 'vector too long', 00H ; `string'
CONST	ENDS
;	COMDAT ??_C@_0P@DFKIDCNE@PLAY?5SOUND?3?5?$CFs@
CONST	SEGMENT
??_C@_0P@DFKIDCNE@PLAY?5SOUND?3?5?$CFs@ DB 'PLAY SOUND: %s', 00H ; `string'
CONST	ENDS
;	COMDAT ?ms_kPool@?$CPooledObject@VCRotationDecorator@NEffectUpdateDecorator@@@@1V?$CDynamicPoolEx@VCRotationDecorator@NEffectUpdateDecorator@@@@A
_DATA	SEGMENT
?ms_kPool@?$CPooledObject@VCRotationDecorator@NEffectUpdateDecorator@@@@1V?$CDynamicPoolEx@VCRotationDecorator@NEffectUpdateDecorator@@@@A DD FLAT:??_7?$CDynamicPoolEx@VCRotationDecorator@NEffectUpdateDecorator@@@@6B@ ; CPooledObject<NEffectUpdateDecorator::CRotationDecorator>::ms_kPool
	DD	00H
	DD	00H
	DD	00H
	DD	00H
	DD	00H
	DD	00H
	DD	00H
	DD	00H
_DATA	ENDS
;	COMDAT ?ms_kPool@?$CPooledObject@VCGravityDecorator@NEffectUpdateDecorator@@@@1V?$CDynamicPoolEx@VCGravityDecorator@NEffectUpdateDecorator@@@@A
_DATA	SEGMENT
?ms_kPool@?$CPooledObject@VCGravityDecorator@NEffectUpdateDecorator@@@@1V?$CDynamicPoolEx@VCGravityDecorator@NEffectUpdateDecorator@@@@A DD FLAT:??_7?$CDynamicPoolEx@VCGravityDecorator@NEffectUpdateDecorator@@@@6B@ ; CPooledObject<NEffectUpdateDecorator::CGravityDecorator>::ms_kPool
	DD	00H
	DD	00H
	DD	00H
	DD	00H
	DD	00H
	DD	00H
	DD	00H
	DD	00H
_DATA	ENDS
;	COMDAT ?ms_kPool@?$CPooledObject@VCAirResistanceDecorator@NEffectUpdateDecorator@@@@1V?$CDynamicPoolEx@VCAirResistanceDecorator@NEffectUpdateDecorator@@@@A
_DATA	SEGMENT
?ms_kPool@?$CPooledObject@VCAirResistanceDecorator@NEffectUpdateDecorator@@@@1V?$CDynamicPoolEx@VCAirResistanceDecorator@NEffectUpdateDecorator@@@@A DD FLAT:??_7?$CDynamicPoolEx@VCAirResistanceDecorator@NEffectUpdateDecorator@@@@6B@ ; CPooledObject<NEffectUpdateDecorator::CAirResistanceDecorator>::ms_kPool
	DD	00H
	DD	00H
	DD	00H
	DD	00H
	DD	00H
	DD	00H
	DD	00H
	DD	00H
_DATA	ENDS
;	COMDAT ?ms_kPool@?$CPooledObject@VCTextureAnimationRandomDecorator@NEffectUpdateDecorator@@@@1V?$CDynamicPoolEx@VCTextureAnimationRandomDecorator@NEffectUpdateDecorator@@@@A
_DATA	SEGMENT
?ms_kPool@?$CPooledObject@VCTextureAnimationRandomDecorator@NEffectUpdateDecorator@@@@1V?$CDynamicPoolEx@VCTextureAnimationRandomDecorator@NEffectUpdateDecorator@@@@A DD FLAT:??_7?$CDynamicPoolEx@VCTextureAnimationRandomDecorator@NEffectUpdateDecorator@@@@6B@ ; CPooledObject<NEffectUpdateDecorator::CTextureAnimationRandomDecorator>::ms_kPool
	DD	00H
	DD	00H
	DD	00H
	DD	00H
	DD	00H
	DD	00H
	DD	00H
	DD	00H
_DATA	ENDS
;	COMDAT ?ms_kPool@?$CPooledObject@VCTextureAnimationCCWDecorator@NEffectUpdateDecorator@@@@1V?$CDynamicPoolEx@VCTextureAnimationCCWDecorator@NEffectUpdateDecorator@@@@A
_DATA	SEGMENT
?ms_kPool@?$CPooledObject@VCTextureAnimationCCWDecorator@NEffectUpdateDecorator@@@@1V?$CDynamicPoolEx@VCTextureAnimationCCWDecorator@NEffectUpdateDecorator@@@@A DD FLAT:??_7?$CDynamicPoolEx@VCTextureAnimationCCWDecorator@NEffectUpdateDecorator@@@@6B@ ; CPooledObject<NEffectUpdateDecorator::CTextureAnimationCCWDecorator>::ms_kPool
	DD	00H
	DD	00H
	DD	00H
	DD	00H
	DD	00H
	DD	00H
	DD	00H
	DD	00H
_DATA	ENDS
;	COMDAT ?ms_kPool@?$CPooledObject@VCTextureAnimationCWDecorator@NEffectUpdateDecorator@@@@1V?$CDynamicPoolEx@VCTextureAnimationCWDecorator@NEffectUpdateDecorator@@@@A
_DATA	SEGMENT
?ms_kPool@?$CPooledObject@VCTextureAnimationCWDecorator@NEffectUpdateDecorator@@@@1V?$CDynamicPoolEx@VCTextureAnimationCWDecorator@NEffectUpdateDecorator@@@@A DD FLAT:??_7?$CDynamicPoolEx@VCTextureAnimationCWDecorator@NEffectUpdateDecorator@@@@6B@ ; CPooledObject<NEffectUpdateDecorator::CTextureAnimationCWDecorator>::ms_kPool
	DD	00H
	DD	00H
	DD	00H
	DD	00H
	DD	00H
	DD	00H
	DD	00H
	DD	00H
_DATA	ENDS
;	COMDAT ?ms_kPool@?$CPooledObject@VCNullDecorator@NEffectUpdateDecorator@@@@1V?$CDynamicPoolEx@VCNullDecorator@NEffectUpdateDecorator@@@@A
_DATA	SEGMENT
?ms_kPool@?$CPooledObject@VCNullDecorator@NEffectUpdateDecorator@@@@1V?$CDynamicPoolEx@VCNullDecorator@NEffectUpdateDecorator@@@@A DD FLAT:??_7?$CDynamicPoolEx@VCNullDecorator@NEffectUpdateDecorator@@@@6B@ ; CPooledObject<NEffectUpdateDecorator::CNullDecorator>::ms_kPool
	DD	00H
	DD	00H
	DD	00H
	DD	00H
	DD	00H
	DD	00H
	DD	00H
	DD	00H
_DATA	ENDS
;	COMDAT ?ms_kPool@?$CPooledObject@VCHeaderDecorator@NEffectUpdateDecorator@@@@1V?$CDynamicPoolEx@VCHeaderDecorator@NEffectUpdateDecorator@@@@A
_DATA	SEGMENT
?ms_kPool@?$CPooledObject@VCHeaderDecorator@NEffectUpdateDecorator@@@@1V?$CDynamicPoolEx@VCHeaderDecorator@NEffectUpdateDecorator@@@@A DD FLAT:??_7?$CDynamicPoolEx@VCHeaderDecorator@NEffectUpdateDecorator@@@@6B@ ; CPooledObject<NEffectUpdateDecorator::CHeaderDecorator>::ms_kPool
	DD	00H
	DD	00H
	DD	00H
	DD	00H
	DD	00H
	DD	00H
	DD	00H
	DD	00H
_DATA	ENDS
;	COMDAT ??_R1A@?0A@EA@bad_array_new_length@std@@8
rdata$r	SEGMENT
??_R1A@?0A@EA@bad_array_new_length@std@@8 DD FLAT:??_R0?AVbad_array_new_length@std@@@8 ; std::bad_array_new_length::`RTTI Base Class Descriptor at (0,-1,0,64)'
	DD	02H
	DD	00H
	DD	0ffffffffH
	DD	00H
	DD	040H
	DD	FLAT:??_R3bad_array_new_length@std@@8
rdata$r	ENDS
;	COMDAT ??_R2bad_array_new_length@std@@8
rdata$r	SEGMENT
??_R2bad_array_new_length@std@@8 DD FLAT:??_R1A@?0A@EA@bad_array_new_length@std@@8 ; std::bad_array_new_length::`RTTI Base Class Array'
	DD	FLAT:??_R1A@?0A@EA@bad_alloc@std@@8
	DD	FLAT:??_R1A@?0A@EA@exception@std@@8
rdata$r	ENDS
;	COMDAT ??_R3bad_array_new_length@std@@8
rdata$r	SEGMENT
??_R3bad_array_new_length@std@@8 DD 00H			; std::bad_array_new_length::`RTTI Class Hierarchy Descriptor'
	DD	00H
	DD	03H
	DD	FLAT:??_R2bad_array_new_length@std@@8
rdata$r	ENDS
;	COMDAT ??_R4bad_array_new_length@std@@6B@
rdata$r	SEGMENT
??_R4bad_array_new_length@std@@6B@ DD 00H		; std::bad_array_new_length::`RTTI Complete Object Locator'
	DD	00H
	DD	00H
	DD	FLAT:??_R0?AVbad_array_new_length@std@@@8
	DD	FLAT:??_R3bad_array_new_length@std@@8
rdata$r	ENDS
;	COMDAT ??_R1A@?0A@EA@bad_alloc@std@@8
rdata$r	SEGMENT
??_R1A@?0A@EA@bad_alloc@std@@8 DD FLAT:??_R0?AVbad_alloc@std@@@8 ; std::bad_alloc::`RTTI Base Class Descriptor at (0,-1,0,64)'
	DD	01H
	DD	00H
	DD	0ffffffffH
	DD	00H
	DD	040H
	DD	FLAT:??_R3bad_alloc@std@@8
rdata$r	ENDS
;	COMDAT ??_R2bad_alloc@std@@8
rdata$r	SEGMENT
??_R2bad_alloc@std@@8 DD FLAT:??_R1A@?0A@EA@bad_alloc@std@@8 ; std::bad_alloc::`RTTI Base Class Array'
	DD	FLAT:??_R1A@?0A@EA@exception@std@@8
rdata$r	ENDS
;	COMDAT ??_R3bad_alloc@std@@8
rdata$r	SEGMENT
??_R3bad_alloc@std@@8 DD 00H				; std::bad_alloc::`RTTI Class Hierarchy Descriptor'
	DD	00H
	DD	02H
	DD	FLAT:??_R2bad_alloc@std@@8
rdata$r	ENDS
;	COMDAT ??_R4bad_alloc@std@@6B@
rdata$r	SEGMENT
??_R4bad_alloc@std@@6B@ DD 00H				; std::bad_alloc::`RTTI Complete Object Locator'
	DD	00H
	DD	00H
	DD	FLAT:??_R0?AVbad_alloc@std@@@8
	DD	FLAT:??_R3bad_alloc@std@@8
rdata$r	ENDS
;	COMDAT ??_R1A@?0A@EA@exception@std@@8
rdata$r	SEGMENT
??_R1A@?0A@EA@exception@std@@8 DD FLAT:??_R0?AVexception@std@@@8 ; std::exception::`RTTI Base Class Descriptor at (0,-1,0,64)'
	DD	00H
	DD	00H
	DD	0ffffffffH
	DD	00H
	DD	040H
	DD	FLAT:??_R3exception@std@@8
rdata$r	ENDS
;	COMDAT ??_R2exception@std@@8
rdata$r	SEGMENT
??_R2exception@std@@8 DD FLAT:??_R1A@?0A@EA@exception@std@@8 ; std::exception::`RTTI Base Class Array'
rdata$r	ENDS
;	COMDAT ??_R3exception@std@@8
rdata$r	SEGMENT
??_R3exception@std@@8 DD 00H				; std::exception::`RTTI Class Hierarchy Descriptor'
	DD	00H
	DD	01H
	DD	FLAT:??_R2exception@std@@8
rdata$r	ENDS
;	COMDAT ??_R4exception@std@@6B@
rdata$r	SEGMENT
??_R4exception@std@@6B@ DD 00H				; std::exception::`RTTI Complete Object Locator'
	DD	00H
	DD	00H
	DD	FLAT:??_R0?AVexception@std@@@8
	DD	FLAT:??_R3exception@std@@8
rdata$r	ENDS
;	COMDAT __CT??_R0?AVexception@std@@@8??0exception@std@@QAE@ABV01@@Z12
xdata$x	SEGMENT
__CT??_R0?AVexception@std@@@8??0exception@std@@QAE@ABV01@@Z12 DD 00H
	DD	FLAT:??_R0?AVexception@std@@@8
	DD	00H
	DD	0ffffffffH
	ORG $+4
	DD	0cH
	DD	FLAT:??0exception@std@@QAE@ABV01@@Z
xdata$x	ENDS
;	COMDAT ??_R0?AVexception@std@@@8
data$r	SEGMENT
??_R0?AVexception@std@@@8 DD FLAT:??_7type_info@@6B@	; std::exception `RTTI Type Descriptor'
	DD	00H
	DB	'.?AVexception@std@@', 00H
data$r	ENDS
;	COMDAT __CT??_R0?AVbad_alloc@std@@@8??0bad_alloc@std@@QAE@ABV01@@Z12
xdata$x	SEGMENT
__CT??_R0?AVbad_alloc@std@@@8??0bad_alloc@std@@QAE@ABV01@@Z12 DD 010H
	DD	FLAT:??_R0?AVbad_alloc@std@@@8
	DD	00H
	DD	0ffffffffH
	ORG $+4
	DD	0cH
	DD	FLAT:??0bad_alloc@std@@QAE@ABV01@@Z
xdata$x	ENDS
;	COMDAT ??_R0?AVbad_alloc@std@@@8
data$r	SEGMENT
??_R0?AVbad_alloc@std@@@8 DD FLAT:??_7type_info@@6B@	; std::bad_alloc `RTTI Type Descriptor'
	DD	00H
	DB	'.?AVbad_alloc@std@@', 00H
data$r	ENDS
;	COMDAT __CT??_R0?AVbad_array_new_length@std@@@8??0bad_array_new_length@std@@QAE@ABV01@@Z12
xdata$x	SEGMENT
__CT??_R0?AVbad_array_new_length@std@@@8??0bad_array_new_length@std@@QAE@ABV01@@Z12 DD 00H
	DD	FLAT:??_R0?AVbad_array_new_length@std@@@8
	DD	00H
	DD	0ffffffffH
	ORG $+4
	DD	0cH
	DD	FLAT:??0bad_array_new_length@std@@QAE@ABV01@@Z
xdata$x	ENDS
;	COMDAT ??_R0?AVbad_array_new_length@std@@@8
data$r	SEGMENT
??_R0?AVbad_array_new_length@std@@@8 DD FLAT:??_7type_info@@6B@ ; std::bad_array_new_length `RTTI Type Descriptor'
	DD	00H
	DB	'.?AVbad_array_new_length@std@@', 00H
data$r	ENDS
;	COMDAT __CTA3?AVbad_array_new_length@std@@
xdata$x	SEGMENT
__CTA3?AVbad_array_new_length@std@@ DD 03H
	DD	FLAT:__CT??_R0?AVbad_array_new_length@std@@@8??0bad_array_new_length@std@@QAE@ABV01@@Z12
	DD	FLAT:__CT??_R0?AVbad_alloc@std@@@8??0bad_alloc@std@@QAE@ABV01@@Z12
	DD	FLAT:__CT??_R0?AVexception@std@@@8??0exception@std@@QAE@ABV01@@Z12
xdata$x	ENDS
;	COMDAT __TI3?AVbad_array_new_length@std@@
xdata$x	SEGMENT
__TI3?AVbad_array_new_length@std@@ DD 00H
	DD	FLAT:??1bad_array_new_length@std@@UAE@XZ
	DD	00H
	DD	FLAT:__CTA3?AVbad_array_new_length@std@@
xdata$x	ENDS
;	COMDAT ??_C@_0BF@KINCDENJ@bad?5array?5new?5length@
CONST	SEGMENT
??_C@_0BF@KINCDENJ@bad?5array?5new?5length@ DB 'bad array new length', 00H ; `string'
CONST	ENDS
;	COMDAT ??_7bad_array_new_length@std@@6B@
CONST	SEGMENT
??_7bad_array_new_length@std@@6B@ DD FLAT:??_R4bad_array_new_length@std@@6B@ ; std::bad_array_new_length::`vftable'
	DD	FLAT:??_Ebad_array_new_length@std@@UAEPAXI@Z
	DD	FLAT:?what@exception@std@@UBEPBDXZ
CONST	ENDS
;	COMDAT ??_7bad_alloc@std@@6B@
CONST	SEGMENT
??_7bad_alloc@std@@6B@ DD FLAT:??_R4bad_alloc@std@@6B@	; std::bad_alloc::`vftable'
	DD	FLAT:??_Ebad_alloc@std@@UAEPAXI@Z
	DD	FLAT:?what@exception@std@@UBEPBDXZ
CONST	ENDS
;	COMDAT ??_C@_0BC@EOODALEL@Unknown?5exception@
CONST	SEGMENT
??_C@_0BC@EOODALEL@Unknown?5exception@ DB 'Unknown exception', 00H ; `string'
CONST	ENDS
;	COMDAT ??_7exception@std@@6B@
CONST	SEGMENT
??_7exception@std@@6B@ DD FLAT:??_R4exception@std@@6B@	; std::exception::`vftable'
	DD	FLAT:??_Eexception@std@@UAEPAXI@Z
	DD	FLAT:?what@exception@std@@UBEPBDXZ
CONST	ENDS
;	COMDAT CRT$XCU
CRT$XCU	SEGMENT
??ms_kPool$initializer$@?$CPooledObject@VCNullDecorator@NEffectUpdateDecorator@@@@1P6AXXZA@@3P6AXXZA DD FLAT:??__E?ms_kPool@?$CPooledObject@VCNullDecorator@NEffectUpdateDecorator@@@@1V?$CDynamicPoolEx@VCNullDecorator@NEffectUpdateDecorator@@@@A@@YAXXZ ; ??ms_kPool$initializer$@?$CPooledObject@VCNullDecorator@NEffectUpdateDecorator@@@@1P6AXXZA@@3P6AXXZA
CRT$XCU	ENDS
;	COMDAT CRT$XCU
CRT$XCU	SEGMENT
??ms_kPool$initializer$@?$CPooledObject@VCTextureAnimationCWDecorator@NEffectUpdateDecorator@@@@1P6AXXZA@@3P6AXXZA DD FLAT:??__E?ms_kPool@?$CPooledObject@VCTextureAnimationCWDecorator@NEffectUpdateDecorator@@@@1V?$CDynamicPoolEx@VCTextureAnimationCWDecorator@NEffectUpdateDecorator@@@@A@@YAXXZ ; ??ms_kPool$initializer$@?$CPooledObject@VCTextureAnimationCWDecorator@NEffectUpdateDecorator@@@@1P6AXXZA@@3P6AXXZA
CRT$XCU	ENDS
;	COMDAT CRT$XCU
CRT$XCU	SEGMENT
??ms_kPool$initializer$@?$CPooledObject@VCTextureAnimationCCWDecorator@NEffectUpdateDecorator@@@@1P6AXXZA@@3P6AXXZA DD FLAT:??__E?ms_kPool@?$CPooledObject@VCTextureAnimationCCWDecorator@NEffectUpdateDecorator@@@@1V?$CDynamicPoolEx@VCTextureAnimationCCWDecorator@NEffectUpdateDecorator@@@@A@@YAXXZ ; ??ms_kPool$initializer$@?$CPooledObject@VCTextureAnimationCCWDecorator@NEffectUpdateDecorator@@@@1P6AXXZA@@3P6AXXZA
CRT$XCU	ENDS
;	COMDAT CRT$XCU
CRT$XCU	SEGMENT
??ms_kPool$initializer$@?$CPooledObject@VCTextureAnimationRandomDecorator@NEffectUpdateDecorator@@@@1P6AXXZA@@3P6AXXZA DD FLAT:??__E?ms_kPool@?$CPooledObject@VCTextureAnimationRandomDecorator@NEffectUpdateDecorator@@@@1V?$CDynamicPoolEx@VCTextureAnimationRandomDecorator@NEffectUpdateDecorator@@@@A@@YAXXZ ; ??ms_kPool$initializer$@?$CPooledObject@VCTextureAnimationRandomDecorator@NEffectUpdateDecorator@@@@1P6AXXZA@@3P6AXXZA
CRT$XCU	ENDS
;	COMDAT CRT$XCU
CRT$XCU	SEGMENT
??ms_kPool$initializer$@?$CPooledObject@VCAirResistanceDecorator@NEffectUpdateDecorator@@@@1P6AXXZA@@3P6AXXZA DD FLAT:??__E?ms_kPool@?$CPooledObject@VCAirResistanceDecorator@NEffectUpdateDecorator@@@@1V?$CDynamicPoolEx@VCAirResistanceDecorator@NEffectUpdateDecorator@@@@A@@YAXXZ ; ??ms_kPool$initializer$@?$CPooledObject@VCAirResistanceDecorator@NEffectUpdateDecorator@@@@1P6AXXZA@@3P6AXXZA
CRT$XCU	ENDS
;	COMDAT CRT$XCU
CRT$XCU	SEGMENT
??ms_kPool$initializer$@?$CPooledObject@VCGravityDecorator@NEffectUpdateDecorator@@@@1P6AXXZA@@3P6AXXZA DD FLAT:??__E?ms_kPool@?$CPooledObject@VCGravityDecorator@NEffectUpdateDecorator@@@@1V?$CDynamicPoolEx@VCGravityDecorator@NEffectUpdateDecorator@@@@A@@YAXXZ ; ??ms_kPool$initializer$@?$CPooledObject@VCGravityDecorator@NEffectUpdateDecorator@@@@1P6AXXZA@@3P6AXXZA
CRT$XCU	ENDS
;	COMDAT CRT$XCU
CRT$XCU	SEGMENT
??ms_kPool$initializer$@?$CPooledObject@VCRotationDecorator@NEffectUpdateDecorator@@@@1P6AXXZA@@3P6AXXZA DD FLAT:??__E?ms_kPool@?$CPooledObject@VCRotationDecorator@NEffectUpdateDecorator@@@@1V?$CDynamicPoolEx@VCRotationDecorator@NEffectUpdateDecorator@@@@A@@YAXXZ ; ??ms_kPool$initializer$@?$CPooledObject@VCRotationDecorator@NEffectUpdateDecorator@@@@1P6AXXZA@@3P6AXXZA
CRT$XCU	ENDS
; Function compile flags: /Ogtp
; File C:\Program Files\Microsoft Visual Studio\2022\Community\VC\Tools\MSVC\14.37.32822\include\xutility
;	COMDAT ??$_Copy_memmove@PAUCDynamicSphereInstance@@PAU1@@std@@YAPAUCDynamicSphereInstance@@PAU1@00@Z
_TEXT	SEGMENT
__First$ = 8						; size = 4
__Last$ = 12						; size = 4
__Dest$ = 16						; size = 4
??$_Copy_memmove@PAUCDynamicSphereInstance@@PAU1@@std@@YAPAUCDynamicSphereInstance@@PAU1@00@Z PROC ; std::_Copy_memmove<CDynamicSphereInstance *,CDynamicSphereInstance *>, COMDAT

; 4526 : _OutCtgIt _Copy_memmove(_CtgIt _First, _CtgIt _Last, _OutCtgIt _Dest) {

  00000	55		 push	 ebp
  00001	8b ec		 mov	 ebp, esp

; 4527 :     auto _FirstPtr              = _To_address(_First);
; 4528 :     auto _LastPtr               = _To_address(_Last);
; 4529 :     auto _DestPtr               = _To_address(_Dest);
; 4530 :     const char* const _First_ch = const_cast<const char*>(reinterpret_cast<const volatile char*>(_FirstPtr));
; 4531 :     const char* const _Last_ch  = const_cast<const char*>(reinterpret_cast<const volatile char*>(_LastPtr));
; 4532 :     char* const _Dest_ch        = const_cast<char*>(reinterpret_cast<const volatile char*>(_DestPtr));
; 4533 :     const auto _Count           = static_cast<size_t>(_Last_ch - _First_ch);

  00003	8b 45 08	 mov	 eax, DWORD PTR __First$[ebp]
  00006	56		 push	 esi

; 4534 :     _CSTD memmove(_Dest_ch, _First_ch, _Count);

  00007	8b 75 10	 mov	 esi, DWORD PTR __Dest$[ebp]
  0000a	57		 push	 edi
  0000b	8b 7d 0c	 mov	 edi, DWORD PTR __Last$[ebp]
  0000e	2b f8		 sub	 edi, eax
  00010	57		 push	 edi
  00011	50		 push	 eax
  00012	56		 push	 esi
  00013	e8 00 00 00 00	 call	 _memmove
  00018	83 c4 0c	 add	 esp, 12			; 0000000cH

; 4535 :     if constexpr (is_pointer_v<_OutCtgIt>) {
; 4536 :         return reinterpret_cast<_OutCtgIt>(_Dest_ch + _Count);

  0001b	8d 04 37	 lea	 eax, DWORD PTR [edi+esi]
  0001e	5f		 pop	 edi
  0001f	5e		 pop	 esi

; 4537 :     } else {
; 4538 :         return _Dest + (_LastPtr - _FirstPtr);
; 4539 :     }
; 4540 : }

  00020	5d		 pop	 ebp
  00021	c3		 ret	 0
??$_Copy_memmove@PAUCDynamicSphereInstance@@PAU1@@std@@YAPAUCDynamicSphereInstance@@PAU1@00@Z ENDP ; std::_Copy_memmove<CDynamicSphereInstance *,CDynamicSphereInstance *>
_TEXT	ENDS
; Function compile flags: /Ogtp
; File C:\Program Files\Microsoft Visual Studio\2022\Community\VC\Tools\MSVC\14.37.32822\include\vector
; File C:\Program Files\Microsoft Visual Studio\2022\Community\VC\Tools\MSVC\14.37.32822\include\xmemory
; File C:\Program Files\Microsoft Visual Studio\2022\Community\VC\Tools\MSVC\14.37.32822\include\vector
; File C:\Program Files\Microsoft Visual Studio\2022\Community\VC\Tools\MSVC\14.37.32822\include\xmemory
; File C:\Program Files\Microsoft Visual Studio\2022\Community\VC\Tools\MSVC\14.37.32822\include\vector
; File C:\Program Files\Microsoft Visual Studio\2022\Community\VC\Tools\MSVC\14.37.32822\include\xmemory
; File C:\Program Files\Microsoft Visual Studio\2022\Community\VC\Tools\MSVC\14.37.32822\include\vector
; File C:\Program Files\Microsoft Visual Studio\2022\Community\VC\Tools\MSVC\14.37.32822\include\xmemory
; File C:\Program Files\Microsoft Visual Studio\2022\Community\VC\Tools\MSVC\14.37.32822\include\vector
; File C:\Program Files\Microsoft Visual Studio\2022\Community\VC\Tools\MSVC\14.37.32822\include\xmemory
; File C:\Program Files\Microsoft Visual Studio\2022\Community\VC\Tools\MSVC\14.37.32822\include\vector
; File C:\Program Files\Microsoft Visual Studio\2022\Community\VC\Tools\MSVC\14.37.32822\include\xmemory
; File C:\Program Files\Microsoft Visual Studio\2022\Community\VC\Tools\MSVC\14.37.32822\include\vector
; File C:\Program Files\Microsoft Visual Studio\2022\Community\VC\Tools\MSVC\14.37.32822\include\xmemory
; File C:\Program Files\Microsoft Visual Studio\2022\Community\VC\Tools\MSVC\14.37.32822\include\vector
; File C:\Program Files\Microsoft Visual Studio\2022\Community\VC\Tools\MSVC\14.37.32822\include\xmemory
; File C:\Program Files\Microsoft Visual Studio\2022\Community\VC\Tools\MSVC\14.37.32822\include\vector
; File C:\Program Files\Microsoft Visual Studio\2022\Community\VC\Tools\MSVC\14.37.32822\include\xmemory
; File C:\Program Files\Microsoft Visual Studio\2022\Community\VC\Tools\MSVC\14.37.32822\include\vector
;	COMDAT ??$_Resize_reallocate@U_Value_init_tag@std@@@?$vector@UCDynamicSphereInstance@@V?$allocator@UCDynamicSphereInstance@@@std@@@std@@AAEXIABU_Value_init_tag@1@@Z
_TEXT	SEGMENT
__Oldsize$1$ = -8					; size = 4
tv405 = -4						; size = 4
__Newsize$ = 8						; size = 4
__Val$ = 12						; size = 4
??$_Resize_reallocate@U_Value_init_tag@std@@@?$vector@UCDynamicSphereInstance@@V?$allocator@UCDynamicSphereInstance@@@std@@@std@@AAEXIABU_Value_init_tag@1@@Z PROC ; std::vector<CDynamicSphereInstance,std::allocator<CDynamicSphereInstance> >::_Resize_reallocate<std::_Value_init_tag>, COMDAT
; _this$ = ecx

; 1511 :     _CONSTEXPR20 void _Resize_reallocate(const size_type _Newsize, const _Ty2& _Val) {

  00000	55		 push	 ebp
  00001	8b ec		 mov	 ebp, esp
  00003	83 ec 08	 sub	 esp, 8

; 1512 :         if (_Newsize > max_size()) {

  00006	81 7d 08 49 92
	24 09		 cmp	 DWORD PTR __Newsize$[ebp], 153391689 ; 09249249H
  0000d	53		 push	 ebx
  0000e	57		 push	 edi
  0000f	8b d9		 mov	 ebx, ecx
  00011	0f 87 58 01 00
	00		 ja	 $LN92@Resize_rea

; 1514 :         }
; 1515 : 
; 1516 :         auto& _Al         = _Getal();
; 1517 :         auto& _My_data    = _Mypair._Myval2;
; 1518 :         pointer& _Myfirst = _My_data._Myfirst;
; 1519 :         pointer& _Mylast  = _My_data._Mylast;
; 1520 : 
; 1521 :         const auto _Oldsize          = static_cast<size_type>(_Mylast - _Myfirst);

  00017	8b 4b 04	 mov	 ecx, DWORD PTR [ebx+4]
  0001a	b8 93 24 49 92	 mov	 eax, -1840700269	; 92492493H
  0001f	2b 0b		 sub	 ecx, DWORD PTR [ebx]
  00021	f7 e9		 imul	 ecx
  00023	56		 push	 esi
  00024	03 d1		 add	 edx, ecx

; 1966 :         if (_Oldcapacity > _Max - _Oldcapacity / 2) {

  00026	8b 75 08	 mov	 esi, DWORD PTR __Newsize$[ebp]

; 1879 :         return static_cast<size_type>(_My_data._Myend - _My_data._Myfirst);

  00029	8b 4b 08	 mov	 ecx, DWORD PTR [ebx+8]
  0002c	2b 0b		 sub	 ecx, DWORD PTR [ebx]

; 1514 :         }
; 1515 : 
; 1516 :         auto& _Al         = _Getal();
; 1517 :         auto& _My_data    = _Mypair._Myval2;
; 1518 :         pointer& _Myfirst = _My_data._Myfirst;
; 1519 :         pointer& _Mylast  = _My_data._Mylast;
; 1520 : 
; 1521 :         const auto _Oldsize          = static_cast<size_type>(_Mylast - _Myfirst);

  0002e	c1 fa 04	 sar	 edx, 4
  00031	8b c2		 mov	 eax, edx
  00033	c1 e8 1f	 shr	 eax, 31			; 0000001fH
  00036	03 c2		 add	 eax, edx
  00038	89 45 f8	 mov	 DWORD PTR __Oldsize$1$[ebp], eax

; 1879 :         return static_cast<size_type>(_My_data._Myend - _My_data._Myfirst);

  0003b	b8 93 24 49 92	 mov	 eax, -1840700269	; 92492493H
  00040	f7 e9		 imul	 ecx

; 1966 :         if (_Oldcapacity > _Max - _Oldcapacity / 2) {

  00042	b8 49 92 24 09	 mov	 eax, 153391689		; 09249249H

; 1879 :         return static_cast<size_type>(_My_data._Myend - _My_data._Myfirst);

  00047	03 d1		 add	 edx, ecx
  00049	c1 fa 04	 sar	 edx, 4
  0004c	8b ca		 mov	 ecx, edx
  0004e	c1 e9 1f	 shr	 ecx, 31			; 0000001fH
  00051	03 ca		 add	 ecx, edx

; 1966 :         if (_Oldcapacity > _Max - _Oldcapacity / 2) {

  00053	8b d1		 mov	 edx, ecx
  00055	d1 ea		 shr	 edx, 1
  00057	2b c2		 sub	 eax, edx
  00059	3b c8		 cmp	 ecx, eax
  0005b	76 15		 jbe	 SHORT $LN10@Resize_rea

; 1967 :             return _Max; // geometric growth would overflow

  0005d	b8 fc ff ff ff	 mov	 eax, -4			; fffffffcH
; File C:\Program Files\Microsoft Visual Studio\2022\Community\VC\Tools\MSVC\14.37.32822\include\xmemory

; 239  :             return _Allocate_manually_vector_aligned<_Traits>(_Bytes);

  00062	50		 push	 eax
; File C:\Program Files\Microsoft Visual Studio\2022\Community\VC\Tools\MSVC\14.37.32822\include\vector

; 1967 :             return _Max; // geometric growth would overflow

  00063	89 45 fc	 mov	 DWORD PTR tv405[ebp], eax
; File C:\Program Files\Microsoft Visual Studio\2022\Community\VC\Tools\MSVC\14.37.32822\include\xmemory

; 239  :             return _Allocate_manually_vector_aligned<_Traits>(_Bytes);

  00066	e8 00 00 00 00	 call	 ??$_Allocate_manually_vector_aligned@U_Default_allocate_traits@std@@@std@@YAPAXI@Z ; std::_Allocate_manually_vector_aligned<std::_Default_allocate_traits>
  0006b	83 c4 04	 add	 esp, 4
  0006e	8b f8		 mov	 edi, eax
  00070	eb 4c		 jmp	 SHORT $LN21@Resize_rea
$LN10@Resize_rea:
; File C:\Program Files\Microsoft Visual Studio\2022\Community\VC\Tools\MSVC\14.37.32822\include\vector

; 1970 :         const size_type _Geometric = _Oldcapacity + _Oldcapacity / 2;

  00072	03 ca		 add	 ecx, edx

; 1971 : 
; 1972 :         if (_Geometric < _Newsize) {

  00074	3b ce		 cmp	 ecx, esi
  00076	73 25		 jae	 SHORT $LN11@Resize_rea

; 1973 :             return _Newsize; // geometric growth would be insufficient

  00078	8b ce		 mov	 ecx, esi
$LN79@Resize_rea:
; File C:\Program Files\Microsoft Visual Studio\2022\Community\VC\Tools\MSVC\14.37.32822\include\xmemory

; 75   :     return _Count * _Ty_size;

  0007a	8d 04 cd 00 00
	00 00		 lea	 eax, DWORD PTR [ecx*8]
  00081	2b c1		 sub	 eax, ecx
  00083	c1 e0 02	 shl	 eax, 2
  00086	89 45 fc	 mov	 DWORD PTR tv405[ebp], eax

; 238  :         if (_Bytes >= _Big_allocation_threshold) { // boost the alignment of big allocations to help autovectorization

  00089	3d 00 10 00 00	 cmp	 eax, 4096		; 00001000H
  0008e	72 1b		 jb	 SHORT $LN22@Resize_rea

; 239  :             return _Allocate_manually_vector_aligned<_Traits>(_Bytes);

  00090	50		 push	 eax
  00091	e8 00 00 00 00	 call	 ??$_Allocate_manually_vector_aligned@U_Default_allocate_traits@std@@@std@@YAPAXI@Z ; std::_Allocate_manually_vector_aligned<std::_Default_allocate_traits>
  00096	83 c4 04	 add	 esp, 4
  00099	8b f8		 mov	 edi, eax
  0009b	eb 21		 jmp	 SHORT $LN21@Resize_rea
$LN11@Resize_rea:

; 70   :         if (_Count > _Max_possible) {

  0009d	81 f9 49 92 24
	09		 cmp	 ecx, 153391689		; 09249249H
  000a3	0f 87 cb 00 00
	00		 ja	 $LN93@Resize_rea
  000a9	eb cf		 jmp	 SHORT $LN79@Resize_rea
$LN22@Resize_rea:

; 244  :     if (_Bytes != 0) {

  000ab	85 c0		 test	 eax, eax
  000ad	74 0d		 je	 SHORT $LN23@Resize_rea

; 87   :         return ::operator new(_Bytes);

  000af	50		 push	 eax
  000b0	e8 00 00 00 00	 call	 ??2@YAPAXI@Z		; operator new
  000b5	83 c4 04	 add	 esp, 4

; 245  :         return _Traits::_Allocate(_Bytes);

  000b8	8b f8		 mov	 edi, eax
  000ba	eb 02		 jmp	 SHORT $LN21@Resize_rea
$LN23@Resize_rea:

; 246  :     }
; 247  : 
; 248  :     return nullptr;

  000bc	33 ff		 xor	 edi, edi
$LN21@Resize_rea:
; File C:\Program Files\Microsoft Visual Studio\2022\Community\VC\Tools\MSVC\14.37.32822\include\vector

; 1525 :         const pointer _Appended_first = _Newvec + _Oldsize;

  000be	8b 4d f8	 mov	 ecx, DWORD PTR __Oldsize$1$[ebp]
  000c1	8d 04 cd 00 00
	00 00		 lea	 eax, DWORD PTR [ecx*8]
  000c8	2b c1		 sub	 eax, ecx
  000ca	8d 14 87	 lea	 edx, DWORD PTR [edi+eax*4]

; 1533 :             _Appended_last = _Uninitialized_value_construct_n(_Appended_first, _Newsize - _Oldsize, _Al);

  000cd	2b f1		 sub	 esi, ecx
; File C:\Program Files\Microsoft Visual Studio\2022\Community\VC\Tools\MSVC\14.37.32822\include\xmemory

; 2041 :     for (; 0 < _Count; --_Count) {

  000cf	74 18		 je	 SHORT $LN31@Resize_rea
; File C:\Program Files\Microsoft Visual Studio\2022\Community\VC\Tools\MSVC\14.37.32822\include\vector

; 1533 :             _Appended_last = _Uninitialized_value_construct_n(_Appended_first, _Newsize - _Oldsize, _Al);

  000d1	8d 04 f5 00 00
	00 00		 lea	 eax, DWORD PTR [esi*8]
  000d8	2b c6		 sub	 eax, esi
  000da	c1 e0 02	 shl	 eax, 2
  000dd	50		 push	 eax
  000de	6a 00		 push	 0
  000e0	52		 push	 edx
  000e1	e8 00 00 00 00	 call	 _memset
  000e6	83 c4 0c	 add	 esp, 12			; 0000000cH
$LN31@Resize_rea:
; File C:\Program Files\Microsoft Visual Studio\2022\Community\VC\Tools\MSVC\14.37.32822\include\xmemory

; 1939 :             _Copy_memmove(_UFirst, _ULast, _Unfancy(_Dest));

  000e9	57		 push	 edi
  000ea	ff 73 04	 push	 DWORD PTR [ebx+4]
  000ed	ff 33		 push	 DWORD PTR [ebx]
  000ef	e8 00 00 00 00	 call	 ??$_Copy_memmove@PAUCDynamicSphereInstance@@PAU1@@std@@YAPAUCDynamicSphereInstance@@PAU1@00@Z ; std::_Copy_memmove<CDynamicSphereInstance *,CDynamicSphereInstance *>
; File C:\Program Files\Microsoft Visual Studio\2022\Community\VC\Tools\MSVC\14.37.32822\include\vector

; 2023 :         if (_Myfirst) { // destroy and deallocate old array

  000f4	8b 33		 mov	 esi, DWORD PTR [ebx]
; File C:\Program Files\Microsoft Visual Studio\2022\Community\VC\Tools\MSVC\14.37.32822\include\xmemory

; 1939 :             _Copy_memmove(_UFirst, _ULast, _Unfancy(_Dest));

  000f6	83 c4 0c	 add	 esp, 12			; 0000000cH
; File C:\Program Files\Microsoft Visual Studio\2022\Community\VC\Tools\MSVC\14.37.32822\include\vector

; 2023 :         if (_Myfirst) { // destroy and deallocate old array

  000f9	85 f6		 test	 esi, esi
  000fb	74 48		 je	 SHORT $LN61@Resize_rea

; 2024 :             _Destroy_range(_Myfirst, _Mylast, _Al);
; 2025 :             _ASAN_VECTOR_REMOVE;
; 2026 :             _Al.deallocate(_Myfirst, static_cast<size_type>(_Myend - _Myfirst));

  000fd	8b 4b 08	 mov	 ecx, DWORD PTR [ebx+8]
  00100	b8 93 24 49 92	 mov	 eax, -1840700269	; 92492493H
  00105	2b ce		 sub	 ecx, esi
  00107	f7 e9		 imul	 ecx
  00109	03 d1		 add	 edx, ecx
  0010b	c1 fa 04	 sar	 edx, 4
  0010e	8b c2		 mov	 eax, edx
  00110	c1 e8 1f	 shr	 eax, 31			; 0000001fH
  00113	03 c2		 add	 eax, edx
; File C:\Program Files\Microsoft Visual Studio\2022\Community\VC\Tools\MSVC\14.37.32822\include\xmemory

; 969  :         _Deallocate<_New_alignof<_Ty>>(_Ptr, sizeof(_Ty) * _Count);

  00115	8d 0c c5 00 00
	00 00		 lea	 ecx, DWORD PTR [eax*8]
  0011c	2b c8		 sub	 ecx, eax
  0011e	c1 e1 02	 shl	 ecx, 2

; 261  :         if (_Bytes >= _Big_allocation_threshold) { // boost the alignment of big allocations to help autovectorization

  00121	81 f9 00 10 00
	00		 cmp	 ecx, 4096		; 00001000H
  00127	72 12		 jb	 SHORT $LN71@Resize_rea

; 160  :     const uintptr_t _Ptr_container   = _Ptr_user[-1];

  00129	8b 56 fc	 mov	 edx, DWORD PTR [esi-4]
  0012c	83 c1 23	 add	 ecx, 35			; 00000023H

; 161  : 
; 162  :     // If the following asserts, it likely means that we are performing
; 163  :     // an aligned delete on memory coming from an unaligned allocation.
; 164  :     _STL_ASSERT(_Ptr_user[-2] == _Big_allocation_sentinel, "invalid argument");
; 165  : 
; 166  :     // Extra paranoia on aligned allocation/deallocation; ensure _Ptr_container is
; 167  :     // in range [_Min_back_shift, _Non_user_size]
; 168  : #ifdef _DEBUG
; 169  :     constexpr uintptr_t _Min_back_shift = 2 * sizeof(void*);
; 170  : #else // ^^^ _DEBUG / !_DEBUG vvv
; 171  :     constexpr uintptr_t _Min_back_shift = sizeof(void*);
; 172  : #endif // _DEBUG
; 173  :     const uintptr_t _Back_shift = reinterpret_cast<uintptr_t>(_Ptr) - _Ptr_container;

  0012f	2b f2		 sub	 esi, edx

; 174  :     _STL_VERIFY(_Back_shift >= _Min_back_shift && _Back_shift <= _Non_user_size, "invalid argument");

  00131	8d 46 fc	 lea	 eax, DWORD PTR [esi-4]
  00134	83 f8 1f	 cmp	 eax, 31			; 0000001fH
  00137	77 31		 ja	 SHORT $LN68@Resize_rea

; 175  :     _Ptr = reinterpret_cast<void*>(_Ptr_container);

  00139	8b f2		 mov	 esi, edx
$LN71@Resize_rea:

; 265  :         ::operator delete(_Ptr, _Bytes);

  0013b	51		 push	 ecx
  0013c	56		 push	 esi
  0013d	e8 00 00 00 00	 call	 ??3@YAXPAXI@Z		; operator delete
  00142	83 c4 08	 add	 esp, 8
$LN61@Resize_rea:
; File C:\Program Files\Microsoft Visual Studio\2022\Community\VC\Tools\MSVC\14.37.32822\include\vector

; 2030 :         _Mylast  = _Newvec + _Newsize;

  00145	8b 4d 08	 mov	 ecx, DWORD PTR __Newsize$[ebp]
  00148	89 3b		 mov	 DWORD PTR [ebx], edi

; 2031 :         _Myend   = _Newvec + _Newcapacity;

  0014a	5e		 pop	 esi
  0014b	8d 04 cd 00 00
	00 00		 lea	 eax, DWORD PTR [ecx*8]
  00152	2b c1		 sub	 eax, ecx
  00154	8d 04 87	 lea	 eax, DWORD PTR [edi+eax*4]
  00157	89 43 04	 mov	 DWORD PTR [ebx+4], eax
  0015a	8b 45 fc	 mov	 eax, DWORD PTR tv405[ebp]
  0015d	03 c7		 add	 eax, edi

; 1548 :     }

  0015f	5f		 pop	 edi

; 2031 :         _Myend   = _Newvec + _Newcapacity;

  00160	89 43 08	 mov	 DWORD PTR [ebx+8], eax

; 1548 :     }

  00163	5b		 pop	 ebx
  00164	8b e5		 mov	 esp, ebp
  00166	5d		 pop	 ebp
  00167	c2 08 00	 ret	 8
$LN68@Resize_rea:
; File C:\Program Files\Microsoft Visual Studio\2022\Community\VC\Tools\MSVC\14.37.32822\include\xmemory

; 174  :     _STL_VERIFY(_Back_shift >= _Min_back_shift && _Back_shift <= _Non_user_size, "invalid argument");

  0016a	e8 00 00 00 00	 call	 __invalid_parameter_noinfo_noreturn
$LN92@Resize_rea:
; File C:\Program Files\Microsoft Visual Studio\2022\Community\VC\Tools\MSVC\14.37.32822\include\vector

; 1513 :             _Xlength();

  0016f	e8 00 00 00 00	 call	 ?_Xlength@?$vector@UCDynamicSphereInstance@@V?$allocator@UCDynamicSphereInstance@@@std@@@std@@CAXXZ ; std::vector<CDynamicSphereInstance,std::allocator<CDynamicSphereInstance> >::_Xlength
$LN93@Resize_rea:
; File C:\Program Files\Microsoft Visual Studio\2022\Community\VC\Tools\MSVC\14.37.32822\include\xmemory

; 71   :             _Throw_bad_array_new_length(); // multiply overflow

  00174	e8 00 00 00 00	 call	 ?_Throw_bad_array_new_length@std@@YAXXZ ; std::_Throw_bad_array_new_length
$LN90@Resize_rea:
  00179	cc		 int	 3
??$_Resize_reallocate@U_Value_init_tag@std@@@?$vector@UCDynamicSphereInstance@@V?$allocator@UCDynamicSphereInstance@@@std@@@std@@AAEXIABU_Value_init_tag@1@@Z ENDP ; std::vector<CDynamicSphereInstance,std::allocator<CDynamicSphereInstance> >::_Resize_reallocate<std::_Value_init_tag>
_TEXT	ENDS
; Function compile flags: /Ogtp
;	COMDAT ??__F?ms_kPool@?$CPooledObject@VCRotationDecorator@NEffectUpdateDecorator@@@@1V?$CDynamicPoolEx@VCRotationDecorator@NEffectUpdateDecorator@@@@A@@YAXXZ
text$yd	SEGMENT
??__F?ms_kPool@?$CPooledObject@VCRotationDecorator@NEffectUpdateDecorator@@@@1V?$CDynamicPoolEx@VCRotationDecorator@NEffectUpdateDecorator@@@@A@@YAXXZ PROC ; `dynamic atexit destructor for 'CPooledObject<NEffectUpdateDecorator::CRotationDecorator>::ms_kPool'', COMDAT
  00000	b9 00 00 00 00	 mov	 ecx, OFFSET ?ms_kPool@?$CPooledObject@VCRotationDecorator@NEffectUpdateDecorator@@@@1V?$CDynamicPoolEx@VCRotationDecorator@NEffectUpdateDecorator@@@@A ; CPooledObject<NEffectUpdateDecorator::CRotationDecorator>::ms_kPool
  00005	e9 00 00 00 00	 jmp	 ??1?$CDynamicPoolEx@VCRotationDecorator@NEffectUpdateDecorator@@@@UAE@XZ ; CDynamicPoolEx<NEffectUpdateDecorator::CRotationDecorator>::~CDynamicPoolEx<NEffectUpdateDecorator::CRotationDecorator>
??__F?ms_kPool@?$CPooledObject@VCRotationDecorator@NEffectUpdateDecorator@@@@1V?$CDynamicPoolEx@VCRotationDecorator@NEffectUpdateDecorator@@@@A@@YAXXZ ENDP ; `dynamic atexit destructor for 'CPooledObject<NEffectUpdateDecorator::CRotationDecorator>::ms_kPool''
text$yd	ENDS
; Function compile flags: /Ogtp
; File C:\Marty 5.5\Src-Client\Client\eterLib\Pool.h
;	COMDAT ??__E?ms_kPool@?$CPooledObject@VCRotationDecorator@NEffectUpdateDecorator@@@@1V?$CDynamicPoolEx@VCRotationDecorator@NEffectUpdateDecorator@@@@A@@YAXXZ
text$di	SEGMENT
??__E?ms_kPool@?$CPooledObject@VCRotationDecorator@NEffectUpdateDecorator@@@@1V?$CDynamicPoolEx@VCRotationDecorator@NEffectUpdateDecorator@@@@A@@YAXXZ PROC ; `dynamic initializer for 'CPooledObject<NEffectUpdateDecorator::CRotationDecorator>::ms_kPool'', COMDAT

; 272  : template <class T> CDynamicPoolEx<T> CPooledObject<T>::ms_kPool;

  00000	68 00 00 00 00	 push	 OFFSET ??__F?ms_kPool@?$CPooledObject@VCRotationDecorator@NEffectUpdateDecorator@@@@1V?$CDynamicPoolEx@VCRotationDecorator@NEffectUpdateDecorator@@@@A@@YAXXZ ; `dynamic atexit destructor for 'CPooledObject<NEffectUpdateDecorator::CRotationDecorator>::ms_kPool''
  00005	e8 00 00 00 00	 call	 _atexit
  0000a	59		 pop	 ecx
  0000b	c3		 ret	 0
??__E?ms_kPool@?$CPooledObject@VCRotationDecorator@NEffectUpdateDecorator@@@@1V?$CDynamicPoolEx@VCRotationDecorator@NEffectUpdateDecorator@@@@A@@YAXXZ ENDP ; `dynamic initializer for 'CPooledObject<NEffectUpdateDecorator::CRotationDecorator>::ms_kPool''
text$di	ENDS
; Function compile flags: /Ogtp
;	COMDAT ??__F?ms_kPool@?$CPooledObject@VCGravityDecorator@NEffectUpdateDecorator@@@@1V?$CDynamicPoolEx@VCGravityDecorator@NEffectUpdateDecorator@@@@A@@YAXXZ
text$yd	SEGMENT
??__F?ms_kPool@?$CPooledObject@VCGravityDecorator@NEffectUpdateDecorator@@@@1V?$CDynamicPoolEx@VCGravityDecorator@NEffectUpdateDecorator@@@@A@@YAXXZ PROC ; `dynamic atexit destructor for 'CPooledObject<NEffectUpdateDecorator::CGravityDecorator>::ms_kPool'', COMDAT
  00000	b9 00 00 00 00	 mov	 ecx, OFFSET ?ms_kPool@?$CPooledObject@VCGravityDecorator@NEffectUpdateDecorator@@@@1V?$CDynamicPoolEx@VCGravityDecorator@NEffectUpdateDecorator@@@@A ; CPooledObject<NEffectUpdateDecorator::CGravityDecorator>::ms_kPool
  00005	e9 00 00 00 00	 jmp	 ??1?$CDynamicPoolEx@VCGravityDecorator@NEffectUpdateDecorator@@@@UAE@XZ ; CDynamicPoolEx<NEffectUpdateDecorator::CGravityDecorator>::~CDynamicPoolEx<NEffectUpdateDecorator::CGravityDecorator>
??__F?ms_kPool@?$CPooledObject@VCGravityDecorator@NEffectUpdateDecorator@@@@1V?$CDynamicPoolEx@VCGravityDecorator@NEffectUpdateDecorator@@@@A@@YAXXZ ENDP ; `dynamic atexit destructor for 'CPooledObject<NEffectUpdateDecorator::CGravityDecorator>::ms_kPool''
text$yd	ENDS
; Function compile flags: /Ogtp
; File C:\Marty 5.5\Src-Client\Client\eterLib\Pool.h
;	COMDAT ??__E?ms_kPool@?$CPooledObject@VCGravityDecorator@NEffectUpdateDecorator@@@@1V?$CDynamicPoolEx@VCGravityDecorator@NEffectUpdateDecorator@@@@A@@YAXXZ
text$di	SEGMENT
??__E?ms_kPool@?$CPooledObject@VCGravityDecorator@NEffectUpdateDecorator@@@@1V?$CDynamicPoolEx@VCGravityDecorator@NEffectUpdateDecorator@@@@A@@YAXXZ PROC ; `dynamic initializer for 'CPooledObject<NEffectUpdateDecorator::CGravityDecorator>::ms_kPool'', COMDAT

; 272  : template <class T> CDynamicPoolEx<T> CPooledObject<T>::ms_kPool;

  00000	68 00 00 00 00	 push	 OFFSET ??__F?ms_kPool@?$CPooledObject@VCGravityDecorator@NEffectUpdateDecorator@@@@1V?$CDynamicPoolEx@VCGravityDecorator@NEffectUpdateDecorator@@@@A@@YAXXZ ; `dynamic atexit destructor for 'CPooledObject<NEffectUpdateDecorator::CGravityDecorator>::ms_kPool''
  00005	e8 00 00 00 00	 call	 _atexit
  0000a	59		 pop	 ecx
  0000b	c3		 ret	 0
??__E?ms_kPool@?$CPooledObject@VCGravityDecorator@NEffectUpdateDecorator@@@@1V?$CDynamicPoolEx@VCGravityDecorator@NEffectUpdateDecorator@@@@A@@YAXXZ ENDP ; `dynamic initializer for 'CPooledObject<NEffectUpdateDecorator::CGravityDecorator>::ms_kPool''
text$di	ENDS
; Function compile flags: /Ogtp
;	COMDAT ??__F?ms_kPool@?$CPooledObject@VCAirResistanceDecorator@NEffectUpdateDecorator@@@@1V?$CDynamicPoolEx@VCAirResistanceDecorator@NEffectUpdateDecorator@@@@A@@YAXXZ
text$yd	SEGMENT
??__F?ms_kPool@?$CPooledObject@VCAirResistanceDecorator@NEffectUpdateDecorator@@@@1V?$CDynamicPoolEx@VCAirResistanceDecorator@NEffectUpdateDecorator@@@@A@@YAXXZ PROC ; `dynamic atexit destructor for 'CPooledObject<NEffectUpdateDecorator::CAirResistanceDecorator>::ms_kPool'', COMDAT
  00000	b9 00 00 00 00	 mov	 ecx, OFFSET ?ms_kPool@?$CPooledObject@VCAirResistanceDecorator@NEffectUpdateDecorator@@@@1V?$CDynamicPoolEx@VCAirResistanceDecorator@NEffectUpdateDecorator@@@@A ; CPooledObject<NEffectUpdateDecorator::CAirResistanceDecorator>::ms_kPool
  00005	e9 00 00 00 00	 jmp	 ??1?$CDynamicPoolEx@VCAirResistanceDecorator@NEffectUpdateDecorator@@@@UAE@XZ ; CDynamicPoolEx<NEffectUpdateDecorator::CAirResistanceDecorator>::~CDynamicPoolEx<NEffectUpdateDecorator::CAirResistanceDecorator>
??__F?ms_kPool@?$CPooledObject@VCAirResistanceDecorator@NEffectUpdateDecorator@@@@1V?$CDynamicPoolEx@VCAirResistanceDecorator@NEffectUpdateDecorator@@@@A@@YAXXZ ENDP ; `dynamic atexit destructor for 'CPooledObject<NEffectUpdateDecorator::CAirResistanceDecorator>::ms_kPool''
text$yd	ENDS
; Function compile flags: /Ogtp
; File C:\Marty 5.5\Src-Client\Client\eterLib\Pool.h
;	COMDAT ??__E?ms_kPool@?$CPooledObject@VCAirResistanceDecorator@NEffectUpdateDecorator@@@@1V?$CDynamicPoolEx@VCAirResistanceDecorator@NEffectUpdateDecorator@@@@A@@YAXXZ
text$di	SEGMENT
??__E?ms_kPool@?$CPooledObject@VCAirResistanceDecorator@NEffectUpdateDecorator@@@@1V?$CDynamicPoolEx@VCAirResistanceDecorator@NEffectUpdateDecorator@@@@A@@YAXXZ PROC ; `dynamic initializer for 'CPooledObject<NEffectUpdateDecorator::CAirResistanceDecorator>::ms_kPool'', COMDAT

; 272  : template <class T> CDynamicPoolEx<T> CPooledObject<T>::ms_kPool;

  00000	68 00 00 00 00	 push	 OFFSET ??__F?ms_kPool@?$CPooledObject@VCAirResistanceDecorator@NEffectUpdateDecorator@@@@1V?$CDynamicPoolEx@VCAirResistanceDecorator@NEffectUpdateDecorator@@@@A@@YAXXZ ; `dynamic atexit destructor for 'CPooledObject<NEffectUpdateDecorator::CAirResistanceDecorator>::ms_kPool''
  00005	e8 00 00 00 00	 call	 _atexit
  0000a	59		 pop	 ecx
  0000b	c3		 ret	 0
??__E?ms_kPool@?$CPooledObject@VCAirResistanceDecorator@NEffectUpdateDecorator@@@@1V?$CDynamicPoolEx@VCAirResistanceDecorator@NEffectUpdateDecorator@@@@A@@YAXXZ ENDP ; `dynamic initializer for 'CPooledObject<NEffectUpdateDecorator::CAirResistanceDecorator>::ms_kPool''
text$di	ENDS
; Function compile flags: /Ogtp
;	COMDAT ??__F?ms_kPool@?$CPooledObject@VCTextureAnimationRandomDecorator@NEffectUpdateDecorator@@@@1V?$CDynamicPoolEx@VCTextureAnimationRandomDecorator@NEffectUpdateDecorator@@@@A@@YAXXZ
text$yd	SEGMENT
??__F?ms_kPool@?$CPooledObject@VCTextureAnimationRandomDecorator@NEffectUpdateDecorator@@@@1V?$CDynamicPoolEx@VCTextureAnimationRandomDecorator@NEffectUpdateDecorator@@@@A@@YAXXZ PROC ; `dynamic atexit destructor for 'CPooledObject<NEffectUpdateDecorator::CTextureAnimationRandomDecorator>::ms_kPool'', COMDAT
  00000	b9 00 00 00 00	 mov	 ecx, OFFSET ?ms_kPool@?$CPooledObject@VCTextureAnimationRandomDecorator@NEffectUpdateDecorator@@@@1V?$CDynamicPoolEx@VCTextureAnimationRandomDecorator@NEffectUpdateDecorator@@@@A ; CPooledObject<NEffectUpdateDecorator::CTextureAnimationRandomDecorator>::ms_kPool
  00005	e9 00 00 00 00	 jmp	 ??1?$CDynamicPoolEx@VCTextureAnimationRandomDecorator@NEffectUpdateDecorator@@@@UAE@XZ ; CDynamicPoolEx<NEffectUpdateDecorator::CTextureAnimationRandomDecorator>::~CDynamicPoolEx<NEffectUpdateDecorator::CTextureAnimationRandomDecorator>
??__F?ms_kPool@?$CPooledObject@VCTextureAnimationRandomDecorator@NEffectUpdateDecorator@@@@1V?$CDynamicPoolEx@VCTextureAnimationRandomDecorator@NEffectUpdateDecorator@@@@A@@YAXXZ ENDP ; `dynamic atexit destructor for 'CPooledObject<NEffectUpdateDecorator::CTextureAnimationRandomDecorator>::ms_kPool''
text$yd	ENDS
; Function compile flags: /Ogtp
; File C:\Marty 5.5\Src-Client\Client\eterLib\Pool.h
;	COMDAT ??__E?ms_kPool@?$CPooledObject@VCTextureAnimationRandomDecorator@NEffectUpdateDecorator@@@@1V?$CDynamicPoolEx@VCTextureAnimationRandomDecorator@NEffectUpdateDecorator@@@@A@@YAXXZ
text$di	SEGMENT
??__E?ms_kPool@?$CPooledObject@VCTextureAnimationRandomDecorator@NEffectUpdateDecorator@@@@1V?$CDynamicPoolEx@VCTextureAnimationRandomDecorator@NEffectUpdateDecorator@@@@A@@YAXXZ PROC ; `dynamic initializer for 'CPooledObject<NEffectUpdateDecorator::CTextureAnimationRandomDecorator>::ms_kPool'', COMDAT

; 272  : template <class T> CDynamicPoolEx<T> CPooledObject<T>::ms_kPool;

  00000	68 00 00 00 00	 push	 OFFSET ??__F?ms_kPool@?$CPooledObject@VCTextureAnimationRandomDecorator@NEffectUpdateDecorator@@@@1V?$CDynamicPoolEx@VCTextureAnimationRandomDecorator@NEffectUpdateDecorator@@@@A@@YAXXZ ; `dynamic atexit destructor for 'CPooledObject<NEffectUpdateDecorator::CTextureAnimationRandomDecorator>::ms_kPool''
  00005	e8 00 00 00 00	 call	 _atexit
  0000a	59		 pop	 ecx
  0000b	c3		 ret	 0
??__E?ms_kPool@?$CPooledObject@VCTextureAnimationRandomDecorator@NEffectUpdateDecorator@@@@1V?$CDynamicPoolEx@VCTextureAnimationRandomDecorator@NEffectUpdateDecorator@@@@A@@YAXXZ ENDP ; `dynamic initializer for 'CPooledObject<NEffectUpdateDecorator::CTextureAnimationRandomDecorator>::ms_kPool''
text$di	ENDS
; Function compile flags: /Ogtp
;	COMDAT ??__F?ms_kPool@?$CPooledObject@VCTextureAnimationCCWDecorator@NEffectUpdateDecorator@@@@1V?$CDynamicPoolEx@VCTextureAnimationCCWDecorator@NEffectUpdateDecorator@@@@A@@YAXXZ
text$yd	SEGMENT
??__F?ms_kPool@?$CPooledObject@VCTextureAnimationCCWDecorator@NEffectUpdateDecorator@@@@1V?$CDynamicPoolEx@VCTextureAnimationCCWDecorator@NEffectUpdateDecorator@@@@A@@YAXXZ PROC ; `dynamic atexit destructor for 'CPooledObject<NEffectUpdateDecorator::CTextureAnimationCCWDecorator>::ms_kPool'', COMDAT
  00000	b9 00 00 00 00	 mov	 ecx, OFFSET ?ms_kPool@?$CPooledObject@VCTextureAnimationCCWDecorator@NEffectUpdateDecorator@@@@1V?$CDynamicPoolEx@VCTextureAnimationCCWDecorator@NEffectUpdateDecorator@@@@A ; CPooledObject<NEffectUpdateDecorator::CTextureAnimationCCWDecorator>::ms_kPool
  00005	e9 00 00 00 00	 jmp	 ??1?$CDynamicPoolEx@VCTextureAnimationCCWDecorator@NEffectUpdateDecorator@@@@UAE@XZ ; CDynamicPoolEx<NEffectUpdateDecorator::CTextureAnimationCCWDecorator>::~CDynamicPoolEx<NEffectUpdateDecorator::CTextureAnimationCCWDecorator>
??__F?ms_kPool@?$CPooledObject@VCTextureAnimationCCWDecorator@NEffectUpdateDecorator@@@@1V?$CDynamicPoolEx@VCTextureAnimationCCWDecorator@NEffectUpdateDecorator@@@@A@@YAXXZ ENDP ; `dynamic atexit destructor for 'CPooledObject<NEffectUpdateDecorator::CTextureAnimationCCWDecorator>::ms_kPool''
text$yd	ENDS
; Function compile flags: /Ogtp
; File C:\Marty 5.5\Src-Client\Client\eterLib\Pool.h
;	COMDAT ??__E?ms_kPool@?$CPooledObject@VCTextureAnimationCCWDecorator@NEffectUpdateDecorator@@@@1V?$CDynamicPoolEx@VCTextureAnimationCCWDecorator@NEffectUpdateDecorator@@@@A@@YAXXZ
text$di	SEGMENT
??__E?ms_kPool@?$CPooledObject@VCTextureAnimationCCWDecorator@NEffectUpdateDecorator@@@@1V?$CDynamicPoolEx@VCTextureAnimationCCWDecorator@NEffectUpdateDecorator@@@@A@@YAXXZ PROC ; `dynamic initializer for 'CPooledObject<NEffectUpdateDecorator::CTextureAnimationCCWDecorator>::ms_kPool'', COMDAT

; 272  : template <class T> CDynamicPoolEx<T> CPooledObject<T>::ms_kPool;

  00000	68 00 00 00 00	 push	 OFFSET ??__F?ms_kPool@?$CPooledObject@VCTextureAnimationCCWDecorator@NEffectUpdateDecorator@@@@1V?$CDynamicPoolEx@VCTextureAnimationCCWDecorator@NEffectUpdateDecorator@@@@A@@YAXXZ ; `dynamic atexit destructor for 'CPooledObject<NEffectUpdateDecorator::CTextureAnimationCCWDecorator>::ms_kPool''
  00005	e8 00 00 00 00	 call	 _atexit
  0000a	59		 pop	 ecx
  0000b	c3		 ret	 0
??__E?ms_kPool@?$CPooledObject@VCTextureAnimationCCWDecorator@NEffectUpdateDecorator@@@@1V?$CDynamicPoolEx@VCTextureAnimationCCWDecorator@NEffectUpdateDecorator@@@@A@@YAXXZ ENDP ; `dynamic initializer for 'CPooledObject<NEffectUpdateDecorator::CTextureAnimationCCWDecorator>::ms_kPool''
text$di	ENDS
; Function compile flags: /Ogtp
;	COMDAT ??__F?ms_kPool@?$CPooledObject@VCTextureAnimationCWDecorator@NEffectUpdateDecorator@@@@1V?$CDynamicPoolEx@VCTextureAnimationCWDecorator@NEffectUpdateDecorator@@@@A@@YAXXZ
text$yd	SEGMENT
??__F?ms_kPool@?$CPooledObject@VCTextureAnimationCWDecorator@NEffectUpdateDecorator@@@@1V?$CDynamicPoolEx@VCTextureAnimationCWDecorator@NEffectUpdateDecorator@@@@A@@YAXXZ PROC ; `dynamic atexit destructor for 'CPooledObject<NEffectUpdateDecorator::CTextureAnimationCWDecorator>::ms_kPool'', COMDAT
  00000	b9 00 00 00 00	 mov	 ecx, OFFSET ?ms_kPool@?$CPooledObject@VCTextureAnimationCWDecorator@NEffectUpdateDecorator@@@@1V?$CDynamicPoolEx@VCTextureAnimationCWDecorator@NEffectUpdateDecorator@@@@A ; CPooledObject<NEffectUpdateDecorator::CTextureAnimationCWDecorator>::ms_kPool
  00005	e9 00 00 00 00	 jmp	 ??1?$CDynamicPoolEx@VCTextureAnimationCWDecorator@NEffectUpdateDecorator@@@@UAE@XZ ; CDynamicPoolEx<NEffectUpdateDecorator::CTextureAnimationCWDecorator>::~CDynamicPoolEx<NEffectUpdateDecorator::CTextureAnimationCWDecorator>
??__F?ms_kPool@?$CPooledObject@VCTextureAnimationCWDecorator@NEffectUpdateDecorator@@@@1V?$CDynamicPoolEx@VCTextureAnimationCWDecorator@NEffectUpdateDecorator@@@@A@@YAXXZ ENDP ; `dynamic atexit destructor for 'CPooledObject<NEffectUpdateDecorator::CTextureAnimationCWDecorator>::ms_kPool''
text$yd	ENDS
; Function compile flags: /Ogtp
; File C:\Marty 5.5\Src-Client\Client\eterLib\Pool.h
;	COMDAT ??__E?ms_kPool@?$CPooledObject@VCTextureAnimationCWDecorator@NEffectUpdateDecorator@@@@1V?$CDynamicPoolEx@VCTextureAnimationCWDecorator@NEffectUpdateDecorator@@@@A@@YAXXZ
text$di	SEGMENT
??__E?ms_kPool@?$CPooledObject@VCTextureAnimationCWDecorator@NEffectUpdateDecorator@@@@1V?$CDynamicPoolEx@VCTextureAnimationCWDecorator@NEffectUpdateDecorator@@@@A@@YAXXZ PROC ; `dynamic initializer for 'CPooledObject<NEffectUpdateDecorator::CTextureAnimationCWDecorator>::ms_kPool'', COMDAT

; 272  : template <class T> CDynamicPoolEx<T> CPooledObject<T>::ms_kPool;

  00000	68 00 00 00 00	 push	 OFFSET ??__F?ms_kPool@?$CPooledObject@VCTextureAnimationCWDecorator@NEffectUpdateDecorator@@@@1V?$CDynamicPoolEx@VCTextureAnimationCWDecorator@NEffectUpdateDecorator@@@@A@@YAXXZ ; `dynamic atexit destructor for 'CPooledObject<NEffectUpdateDecorator::CTextureAnimationCWDecorator>::ms_kPool''
  00005	e8 00 00 00 00	 call	 _atexit
  0000a	59		 pop	 ecx
  0000b	c3		 ret	 0
??__E?ms_kPool@?$CPooledObject@VCTextureAnimationCWDecorator@NEffectUpdateDecorator@@@@1V?$CDynamicPoolEx@VCTextureAnimationCWDecorator@NEffectUpdateDecorator@@@@A@@YAXXZ ENDP ; `dynamic initializer for 'CPooledObject<NEffectUpdateDecorator::CTextureAnimationCWDecorator>::ms_kPool''
text$di	ENDS
; Function compile flags: /Ogtp
;	COMDAT ??__F?ms_kPool@?$CPooledObject@VCNullDecorator@NEffectUpdateDecorator@@@@1V?$CDynamicPoolEx@VCNullDecorator@NEffectUpdateDecorator@@@@A@@YAXXZ
text$yd	SEGMENT
??__F?ms_kPool@?$CPooledObject@VCNullDecorator@NEffectUpdateDecorator@@@@1V?$CDynamicPoolEx@VCNullDecorator@NEffectUpdateDecorator@@@@A@@YAXXZ PROC ; `dynamic atexit destructor for 'CPooledObject<NEffectUpdateDecorator::CNullDecorator>::ms_kPool'', COMDAT
  00000	b9 00 00 00 00	 mov	 ecx, OFFSET ?ms_kPool@?$CPooledObject@VCNullDecorator@NEffectUpdateDecorator@@@@1V?$CDynamicPoolEx@VCNullDecorator@NEffectUpdateDecorator@@@@A ; CPooledObject<NEffectUpdateDecorator::CNullDecorator>::ms_kPool
  00005	e9 00 00 00 00	 jmp	 ??1?$CDynamicPoolEx@VCNullDecorator@NEffectUpdateDecorator@@@@UAE@XZ ; CDynamicPoolEx<NEffectUpdateDecorator::CNullDecorator>::~CDynamicPoolEx<NEffectUpdateDecorator::CNullDecorator>
??__F?ms_kPool@?$CPooledObject@VCNullDecorator@NEffectUpdateDecorator@@@@1V?$CDynamicPoolEx@VCNullDecorator@NEffectUpdateDecorator@@@@A@@YAXXZ ENDP ; `dynamic atexit destructor for 'CPooledObject<NEffectUpdateDecorator::CNullDecorator>::ms_kPool''
text$yd	ENDS
; Function compile flags: /Ogtp
; File C:\Marty 5.5\Src-Client\Client\eterLib\Pool.h
;	COMDAT ??__E?ms_kPool@?$CPooledObject@VCNullDecorator@NEffectUpdateDecorator@@@@1V?$CDynamicPoolEx@VCNullDecorator@NEffectUpdateDecorator@@@@A@@YAXXZ
text$di	SEGMENT
??__E?ms_kPool@?$CPooledObject@VCNullDecorator@NEffectUpdateDecorator@@@@1V?$CDynamicPoolEx@VCNullDecorator@NEffectUpdateDecorator@@@@A@@YAXXZ PROC ; `dynamic initializer for 'CPooledObject<NEffectUpdateDecorator::CNullDecorator>::ms_kPool'', COMDAT

; 272  : template <class T> CDynamicPoolEx<T> CPooledObject<T>::ms_kPool;

  00000	68 00 00 00 00	 push	 OFFSET ??__F?ms_kPool@?$CPooledObject@VCNullDecorator@NEffectUpdateDecorator@@@@1V?$CDynamicPoolEx@VCNullDecorator@NEffectUpdateDecorator@@@@A@@YAXXZ ; `dynamic atexit destructor for 'CPooledObject<NEffectUpdateDecorator::CNullDecorator>::ms_kPool''
  00005	e8 00 00 00 00	 call	 _atexit
  0000a	59		 pop	 ecx
  0000b	c3		 ret	 0
??__E?ms_kPool@?$CPooledObject@VCNullDecorator@NEffectUpdateDecorator@@@@1V?$CDynamicPoolEx@VCNullDecorator@NEffectUpdateDecorator@@@@A@@YAXXZ ENDP ; `dynamic initializer for 'CPooledObject<NEffectUpdateDecorator::CNullDecorator>::ms_kPool''
text$di	ENDS
; Function compile flags: /Ogtp
;	COMDAT ??__F?ms_kPool@?$CPooledObject@VCHeaderDecorator@NEffectUpdateDecorator@@@@1V?$CDynamicPoolEx@VCHeaderDecorator@NEffectUpdateDecorator@@@@A@@YAXXZ
text$yd	SEGMENT
??__F?ms_kPool@?$CPooledObject@VCHeaderDecorator@NEffectUpdateDecorator@@@@1V?$CDynamicPoolEx@VCHeaderDecorator@NEffectUpdateDecorator@@@@A@@YAXXZ PROC ; `dynamic atexit destructor for 'CPooledObject<NEffectUpdateDecorator::CHeaderDecorator>::ms_kPool'', COMDAT
  00000	b9 00 00 00 00	 mov	 ecx, OFFSET ?ms_kPool@?$CPooledObject@VCHeaderDecorator@NEffectUpdateDecorator@@@@1V?$CDynamicPoolEx@VCHeaderDecorator@NEffectUpdateDecorator@@@@A ; CPooledObject<NEffectUpdateDecorator::CHeaderDecorator>::ms_kPool
  00005	e9 00 00 00 00	 jmp	 ??1?$CDynamicPoolEx@VCHeaderDecorator@NEffectUpdateDecorator@@@@UAE@XZ ; CDynamicPoolEx<NEffectUpdateDecorator::CHeaderDecorator>::~CDynamicPoolEx<NEffectUpdateDecorator::CHeaderDecorator>
??__F?ms_kPool@?$CPooledObject@VCHeaderDecorator@NEffectUpdateDecorator@@@@1V?$CDynamicPoolEx@VCHeaderDecorator@NEffectUpdateDecorator@@@@A@@YAXXZ ENDP ; `dynamic atexit destructor for 'CPooledObject<NEffectUpdateDecorator::CHeaderDecorator>::ms_kPool''
text$yd	ENDS
; Function compile flags: /Ogtp
; File C:\Marty 5.5\Src-Client\Client\eterLib\Pool.h
;	COMDAT ??__E?ms_kPool@?$CPooledObject@VCHeaderDecorator@NEffectUpdateDecorator@@@@1V?$CDynamicPoolEx@VCHeaderDecorator@NEffectUpdateDecorator@@@@A@@YAXXZ
text$di	SEGMENT
??__E?ms_kPool@?$CPooledObject@VCHeaderDecorator@NEffectUpdateDecorator@@@@1V?$CDynamicPoolEx@VCHeaderDecorator@NEffectUpdateDecorator@@@@A@@YAXXZ PROC ; `dynamic initializer for 'CPooledObject<NEffectUpdateDecorator::CHeaderDecorator>::ms_kPool'', COMDAT

; 272  : template <class T> CDynamicPoolEx<T> CPooledObject<T>::ms_kPool;

  00000	68 00 00 00 00	 push	 OFFSET ??__F?ms_kPool@?$CPooledObject@VCHeaderDecorator@NEffectUpdateDecorator@@@@1V?$CDynamicPoolEx@VCHeaderDecorator@NEffectUpdateDecorator@@@@A@@YAXXZ ; `dynamic atexit destructor for 'CPooledObject<NEffectUpdateDecorator::CHeaderDecorator>::ms_kPool''
  00005	e8 00 00 00 00	 call	 _atexit
  0000a	59		 pop	 ecx
  0000b	c3		 ret	 0
??__E?ms_kPool@?$CPooledObject@VCHeaderDecorator@NEffectUpdateDecorator@@@@1V?$CDynamicPoolEx@VCHeaderDecorator@NEffectUpdateDecorator@@@@A@@YAXXZ ENDP ; `dynamic initializer for 'CPooledObject<NEffectUpdateDecorator::CHeaderDecorator>::ms_kPool''
text$di	ENDS
; Function compile flags: /Ogtp
;	COMDAT ??_G?$CDynamicPoolEx@VCHeaderDecorator@NEffectUpdateDecorator@@@@UAEPAXI@Z
_TEXT	SEGMENT
___flags$ = 8						; size = 4
??_G?$CDynamicPoolEx@VCHeaderDecorator@NEffectUpdateDecorator@@@@UAEPAXI@Z PROC ; CDynamicPoolEx<NEffectUpdateDecorator::CHeaderDecorator>::`scalar deleting destructor', COMDAT
; _this$ = ecx
  00000	55		 push	 ebp
  00001	8b ec		 mov	 ebp, esp
  00003	56		 push	 esi
  00004	8b f1		 mov	 esi, ecx
  00006	e8 00 00 00 00	 call	 ??1?$CDynamicPoolEx@VCHeaderDecorator@NEffectUpdateDecorator@@@@UAE@XZ ; CDynamicPoolEx<NEffectUpdateDecorator::CHeaderDecorator>::~CDynamicPoolEx<NEffectUpdateDecorator::CHeaderDecorator>
  0000b	f6 45 08 01	 test	 BYTE PTR ___flags$[ebp], 1
  0000f	74 0b		 je	 SHORT $LN4@scalar
  00011	6a 24		 push	 36			; 00000024H
  00013	56		 push	 esi
  00014	e8 00 00 00 00	 call	 ??3@YAXPAXI@Z		; operator delete
  00019	83 c4 08	 add	 esp, 8
$LN4@scalar:
  0001c	8b c6		 mov	 eax, esi
  0001e	5e		 pop	 esi
  0001f	5d		 pop	 ebp
  00020	c2 04 00	 ret	 4
??_G?$CDynamicPoolEx@VCHeaderDecorator@NEffectUpdateDecorator@@@@UAEPAXI@Z ENDP ; CDynamicPoolEx<NEffectUpdateDecorator::CHeaderDecorator>::`scalar deleting destructor'
_TEXT	ENDS
; Function compile flags: /Ogtp
; File C:\Marty 5.5\Src-Client\Client\eterLib\Pool.h
;	COMDAT ?Delete@?$CDynamicPoolEx@VCHeaderDecorator@NEffectUpdateDecorator@@@@KAXPAVCHeaderDecorator@NEffectUpdateDecorator@@@Z
_TEXT	SEGMENT
_pkData$ = 8						; size = 4
?Delete@?$CDynamicPoolEx@VCHeaderDecorator@NEffectUpdateDecorator@@@@KAXPAVCHeaderDecorator@NEffectUpdateDecorator@@@Z PROC ; CDynamicPoolEx<NEffectUpdateDecorator::CHeaderDecorator>::Delete, COMDAT

; 224  : 			::operator delete(pkData);

  00000	e9 00 00 00 00	 jmp	 ??3@YAXPAX@Z		; operator delete
?Delete@?$CDynamicPoolEx@VCHeaderDecorator@NEffectUpdateDecorator@@@@KAXPAVCHeaderDecorator@NEffectUpdateDecorator@@@Z ENDP ; CDynamicPoolEx<NEffectUpdateDecorator::CHeaderDecorator>::Delete
_TEXT	ENDS
; Function compile flags: /Ogtp
; File C:\Marty 5.5\Src-Client\Client\eterLib\Pool.h
; File C:\Program Files\Microsoft Visual Studio\2022\Community\VC\Tools\MSVC\14.37.32822\include\vector
; File C:\Program Files\Microsoft Visual Studio\2022\Community\VC\Tools\MSVC\14.37.32822\include\algorithm
; File C:\Marty 5.5\Src-Client\Client\eterLib\Pool.h
; File C:\Program Files\Microsoft Visual Studio\2022\Community\VC\Tools\MSVC\14.37.32822\include\algorithm
; File C:\Marty 5.5\Src-Client\Client\eterLib\Pool.h
; File C:\Program Files\Microsoft Visual Studio\2022\Community\VC\Tools\MSVC\14.37.32822\include\algorithm
; File C:\Program Files\Microsoft Visual Studio\2022\Community\VC\Tools\MSVC\14.37.32822\include\vector
; File C:\Program Files\Microsoft Visual Studio\2022\Community\VC\Tools\MSVC\14.37.32822\include\xmemory
; File C:\Program Files\Microsoft Visual Studio\2022\Community\VC\Tools\MSVC\14.37.32822\include\vector
; File C:\Program Files\Microsoft Visual Studio\2022\Community\VC\Tools\MSVC\14.37.32822\include\xmemory
; File C:\Program Files\Microsoft Visual Studio\2022\Community\VC\Tools\MSVC\14.37.32822\include\vector
; File C:\Program Files\Microsoft Visual Studio\2022\Community\VC\Tools\MSVC\14.37.32822\include\xmemory
; File C:\Program Files\Microsoft Visual Studio\2022\Community\VC\Tools\MSVC\14.37.32822\include\vector
; File C:\Program Files\Microsoft Visual Studio\2022\Community\VC\Tools\MSVC\14.37.32822\include\xmemory
; File C:\Program Files\Microsoft Visual Studio\2022\Community\VC\Tools\MSVC\14.37.32822\include\vector
; File C:\Marty 5.5\Src-Client\Client\eterLib\Pool.h
; File C:\Program Files\Microsoft Visual Studio\2022\Community\VC\Tools\MSVC\14.37.32822\include\xmemory
; File C:\Marty 5.5\Src-Client\Client\eterLib\Pool.h
;	COMDAT ??1?$CDynamicPoolEx@VCHeaderDecorator@NEffectUpdateDecorator@@@@UAE@XZ
_TEXT	SEGMENT
??1?$CDynamicPoolEx@VCHeaderDecorator@NEffectUpdateDecorator@@@@UAE@XZ PROC ; CDynamicPoolEx<NEffectUpdateDecorator::CHeaderDecorator>::~CDynamicPoolEx<NEffectUpdateDecorator::CHeaderDecorator>, COMDAT
; _this$ = ecx

; 132  : 		{

  00000	53		 push	 ebx
  00001	56		 push	 esi
  00002	57		 push	 edi
  00003	8b f9		 mov	 edi, ecx
  00005	c7 07 00 00 00
	00		 mov	 DWORD PTR [edi], OFFSET ??_7?$CDynamicPoolEx@VCHeaderDecorator@NEffectUpdateDecorator@@@@6B@
; File C:\Program Files\Microsoft Visual Studio\2022\Community\VC\Tools\MSVC\14.37.32822\include\vector

; 43   :     _CONSTEXPR20 _Vector_const_iterator(_Tptr _Parg, const _Container_base* _Pvector) noexcept : _Ptr(_Parg) {

  0000b	8b 5f 08	 mov	 ebx, DWORD PTR [edi+8]
  0000e	8b 77 04	 mov	 esi, DWORD PTR [edi+4]
; File C:\Program Files\Microsoft Visual Studio\2022\Community\VC\Tools\MSVC\14.37.32822\include\algorithm

; 245  :     for (; _UFirst != _ULast; ++_UFirst) {

  00011	3b f3		 cmp	 esi, ebx
  00013	74 11		 je	 SHORT $LN19@CDynamicPo
$LL20@CDynamicPo:
; File C:\Marty 5.5\Src-Client\Client\eterLib\Pool.h

; 224  : 			::operator delete(pkData);

  00015	ff 36		 push	 DWORD PTR [esi]
  00017	e8 00 00 00 00	 call	 ??3@YAXPAX@Z		; operator delete
; File C:\Program Files\Microsoft Visual Studio\2022\Community\VC\Tools\MSVC\14.37.32822\include\algorithm

; 245  :     for (; _UFirst != _ULast; ++_UFirst) {

  0001c	83 c6 04	 add	 esi, 4
; File C:\Marty 5.5\Src-Client\Client\eterLib\Pool.h

; 224  : 			::operator delete(pkData);

  0001f	83 c4 04	 add	 esp, 4
; File C:\Program Files\Microsoft Visual Studio\2022\Community\VC\Tools\MSVC\14.37.32822\include\algorithm

; 245  :     for (; _UFirst != _ULast; ++_UFirst) {

  00022	3b f3		 cmp	 esi, ebx
  00024	75 ef		 jne	 SHORT $LL20@CDynamicPo
$LN19@CDynamicPo:
; File C:\Program Files\Microsoft Visual Studio\2022\Community\VC\Tools\MSVC\14.37.32822\include\vector

; 1766 :         if (_Myfirst == _Mylast) { // already empty, nothing to do

  00026	8b 47 04	 mov	 eax, DWORD PTR [edi+4]
  00029	3b 47 08	 cmp	 eax, DWORD PTR [edi+8]
  0002c	74 03		 je	 SHORT $LN24@CDynamicPo

; 1767 :             // This is an optimization for debug mode: we can avoid taking the debug lock to invalidate iterators.
; 1768 :             // Note that when clearing an empty vector, this will preserve past-the-end iterators, which is allowed by
; 1769 :             // N4950 [sequence.reqmts]/54 "a.clear() [...] may invalidate the past-the-end iterator".
; 1770 :             return;
; 1771 :         }
; 1772 : 
; 1773 :         _My_data._Orphan_all();
; 1774 :         _Destroy_range(_Myfirst, _Mylast, _Getal());
; 1775 :         _ASAN_VECTOR_MODIFY(static_cast<difference_type>(_Myfirst - _Mylast)); // negative when destroying elements
; 1776 :         _Mylast = _Myfirst;

  0002e	89 47 08	 mov	 DWORD PTR [edi+8], eax
$LN24@CDynamicPo:

; 1766 :         if (_Myfirst == _Mylast) { // already empty, nothing to do

  00031	8b 47 10	 mov	 eax, DWORD PTR [edi+16]
  00034	3b 47 14	 cmp	 eax, DWORD PTR [edi+20]
  00037	74 03		 je	 SHORT $LN27@CDynamicPo

; 1767 :             // This is an optimization for debug mode: we can avoid taking the debug lock to invalidate iterators.
; 1768 :             // Note that when clearing an empty vector, this will preserve past-the-end iterators, which is allowed by
; 1769 :             // N4950 [sequence.reqmts]/54 "a.clear() [...] may invalidate the past-the-end iterator".
; 1770 :             return;
; 1771 :         }
; 1772 : 
; 1773 :         _My_data._Orphan_all();
; 1774 :         _Destroy_range(_Myfirst, _Mylast, _Getal());
; 1775 :         _ASAN_VECTOR_MODIFY(static_cast<difference_type>(_Myfirst - _Mylast)); // negative when destroying elements
; 1776 :         _Mylast = _Myfirst;

  00039	89 47 14	 mov	 DWORD PTR [edi+20], eax
$LN27@CDynamicPo:

; 2044 :         if (_Myfirst) { // destroy and deallocate old array

  0003c	85 c0		 test	 eax, eax
  0003e	74 41		 je	 SHORT $LN33@CDynamicPo

; 2045 :             _Destroy_range(_Myfirst, _Mylast, _Al);
; 2046 :             _ASAN_VECTOR_REMOVE;
; 2047 :             _Al.deallocate(_Myfirst, static_cast<size_type>(_Myend - _Myfirst));

  00040	8b 4f 18	 mov	 ecx, DWORD PTR [edi+24]
  00043	2b c8		 sub	 ecx, eax
; File C:\Program Files\Microsoft Visual Studio\2022\Community\VC\Tools\MSVC\14.37.32822\include\xmemory

; 969  :         _Deallocate<_New_alignof<_Ty>>(_Ptr, sizeof(_Ty) * _Count);

  00045	83 e1 fc	 and	 ecx, -4			; fffffffcH

; 261  :         if (_Bytes >= _Big_allocation_threshold) { // boost the alignment of big allocations to help autovectorization

  00048	81 f9 00 10 00
	00		 cmp	 ecx, 4096		; 00001000H
  0004e	72 12		 jb	 SHORT $LN49@CDynamicPo

; 160  :     const uintptr_t _Ptr_container   = _Ptr_user[-1];

  00050	8b 50 fc	 mov	 edx, DWORD PTR [eax-4]
  00053	83 c1 23	 add	 ecx, 35			; 00000023H

; 161  : 
; 162  :     // If the following asserts, it likely means that we are performing
; 163  :     // an aligned delete on memory coming from an unaligned allocation.
; 164  :     _STL_ASSERT(_Ptr_user[-2] == _Big_allocation_sentinel, "invalid argument");
; 165  : 
; 166  :     // Extra paranoia on aligned allocation/deallocation; ensure _Ptr_container is
; 167  :     // in range [_Min_back_shift, _Non_user_size]
; 168  : #ifdef _DEBUG
; 169  :     constexpr uintptr_t _Min_back_shift = 2 * sizeof(void*);
; 170  : #else // ^^^ _DEBUG / !_DEBUG vvv
; 171  :     constexpr uintptr_t _Min_back_shift = sizeof(void*);
; 172  : #endif // _DEBUG
; 173  :     const uintptr_t _Back_shift = reinterpret_cast<uintptr_t>(_Ptr) - _Ptr_container;

  00056	2b c2		 sub	 eax, edx

; 174  :     _STL_VERIFY(_Back_shift >= _Min_back_shift && _Back_shift <= _Non_user_size, "invalid argument");

  00058	83 c0 fc	 add	 eax, -4			; fffffffcH
  0005b	83 f8 1f	 cmp	 eax, 31			; 0000001fH
  0005e	77 6d		 ja	 SHORT $LN71@CDynamicPo

; 175  :     _Ptr = reinterpret_cast<void*>(_Ptr_container);

  00060	8b c2		 mov	 eax, edx
$LN49@CDynamicPo:

; 265  :         ::operator delete(_Ptr, _Bytes);

  00062	51		 push	 ecx
  00063	50		 push	 eax
  00064	e8 00 00 00 00	 call	 ??3@YAXPAXI@Z		; operator delete
; File C:\Program Files\Microsoft Visual Studio\2022\Community\VC\Tools\MSVC\14.37.32822\include\vector

; 2049 :             _Myfirst = nullptr;

  00069	c7 47 10 00 00
	00 00		 mov	 DWORD PTR [edi+16], 0
; File C:\Program Files\Microsoft Visual Studio\2022\Community\VC\Tools\MSVC\14.37.32822\include\xmemory

; 265  :         ::operator delete(_Ptr, _Bytes);

  00070	83 c4 08	 add	 esp, 8
; File C:\Program Files\Microsoft Visual Studio\2022\Community\VC\Tools\MSVC\14.37.32822\include\vector

; 2050 :             _Mylast  = nullptr;

  00073	c7 47 14 00 00
	00 00		 mov	 DWORD PTR [edi+20], 0

; 2051 :             _Myend   = nullptr;

  0007a	c7 47 18 00 00
	00 00		 mov	 DWORD PTR [edi+24], 0
$LN33@CDynamicPo:

; 2044 :         if (_Myfirst) { // destroy and deallocate old array

  00081	8b 47 04	 mov	 eax, DWORD PTR [edi+4]
  00084	85 c0		 test	 eax, eax
  00086	74 41		 je	 SHORT $LN58@CDynamicPo

; 2045 :             _Destroy_range(_Myfirst, _Mylast, _Al);
; 2046 :             _ASAN_VECTOR_REMOVE;
; 2047 :             _Al.deallocate(_Myfirst, static_cast<size_type>(_Myend - _Myfirst));

  00088	8b 4f 0c	 mov	 ecx, DWORD PTR [edi+12]
  0008b	2b c8		 sub	 ecx, eax
; File C:\Program Files\Microsoft Visual Studio\2022\Community\VC\Tools\MSVC\14.37.32822\include\xmemory

; 969  :         _Deallocate<_New_alignof<_Ty>>(_Ptr, sizeof(_Ty) * _Count);

  0008d	83 e1 fc	 and	 ecx, -4			; fffffffcH

; 261  :         if (_Bytes >= _Big_allocation_threshold) { // boost the alignment of big allocations to help autovectorization

  00090	81 f9 00 10 00
	00		 cmp	 ecx, 4096		; 00001000H
  00096	72 12		 jb	 SHORT $LN74@CDynamicPo

; 160  :     const uintptr_t _Ptr_container   = _Ptr_user[-1];

  00098	8b 50 fc	 mov	 edx, DWORD PTR [eax-4]
  0009b	83 c1 23	 add	 ecx, 35			; 00000023H

; 161  : 
; 162  :     // If the following asserts, it likely means that we are performing
; 163  :     // an aligned delete on memory coming from an unaligned allocation.
; 164  :     _STL_ASSERT(_Ptr_user[-2] == _Big_allocation_sentinel, "invalid argument");
; 165  : 
; 166  :     // Extra paranoia on aligned allocation/deallocation; ensure _Ptr_container is
; 167  :     // in range [_Min_back_shift, _Non_user_size]
; 168  : #ifdef _DEBUG
; 169  :     constexpr uintptr_t _Min_back_shift = 2 * sizeof(void*);
; 170  : #else // ^^^ _DEBUG / !_DEBUG vvv
; 171  :     constexpr uintptr_t _Min_back_shift = sizeof(void*);
; 172  : #endif // _DEBUG
; 173  :     const uintptr_t _Back_shift = reinterpret_cast<uintptr_t>(_Ptr) - _Ptr_container;

  0009e	2b c2		 sub	 eax, edx

; 174  :     _STL_VERIFY(_Back_shift >= _Min_back_shift && _Back_shift <= _Non_user_size, "invalid argument");

  000a0	83 c0 fc	 add	 eax, -4			; fffffffcH
  000a3	83 f8 1f	 cmp	 eax, 31			; 0000001fH
  000a6	77 25		 ja	 SHORT $LN71@CDynamicPo

; 175  :     _Ptr = reinterpret_cast<void*>(_Ptr_container);

  000a8	8b c2		 mov	 eax, edx
$LN74@CDynamicPo:

; 265  :         ::operator delete(_Ptr, _Bytes);

  000aa	51		 push	 ecx
  000ab	50		 push	 eax
  000ac	e8 00 00 00 00	 call	 ??3@YAXPAXI@Z		; operator delete
; File C:\Program Files\Microsoft Visual Studio\2022\Community\VC\Tools\MSVC\14.37.32822\include\vector

; 2049 :             _Myfirst = nullptr;

  000b1	c7 47 04 00 00
	00 00		 mov	 DWORD PTR [edi+4], 0
; File C:\Program Files\Microsoft Visual Studio\2022\Community\VC\Tools\MSVC\14.37.32822\include\xmemory

; 265  :         ::operator delete(_Ptr, _Bytes);

  000b8	83 c4 08	 add	 esp, 8
; File C:\Program Files\Microsoft Visual Studio\2022\Community\VC\Tools\MSVC\14.37.32822\include\vector

; 2050 :             _Mylast  = nullptr;

  000bb	c7 47 08 00 00
	00 00		 mov	 DWORD PTR [edi+8], 0

; 2051 :             _Myend   = nullptr;

  000c2	c7 47 0c 00 00
	00 00		 mov	 DWORD PTR [edi+12], 0
$LN58@CDynamicPo:
  000c9	5f		 pop	 edi
; File C:\Marty 5.5\Src-Client\Client\eterLib\Pool.h

; 142  : 		}

  000ca	5e		 pop	 esi
  000cb	5b		 pop	 ebx
  000cc	c3		 ret	 0
$LN71@CDynamicPo:
; File C:\Program Files\Microsoft Visual Studio\2022\Community\VC\Tools\MSVC\14.37.32822\include\xmemory

; 174  :     _STL_VERIFY(_Back_shift >= _Min_back_shift && _Back_shift <= _Non_user_size, "invalid argument");

  000cd	e8 00 00 00 00	 call	 __invalid_parameter_noinfo_noreturn
$LN92@CDynamicPo:
  000d2	cc		 int	 3
??1?$CDynamicPoolEx@VCHeaderDecorator@NEffectUpdateDecorator@@@@UAE@XZ ENDP ; CDynamicPoolEx<NEffectUpdateDecorator::CHeaderDecorator>::~CDynamicPoolEx<NEffectUpdateDecorator::CHeaderDecorator>
_TEXT	ENDS
; Function compile flags: /Ogtp
;	COMDAT ??_G?$CDynamicPoolEx@VCNullDecorator@NEffectUpdateDecorator@@@@UAEPAXI@Z
_TEXT	SEGMENT
___flags$ = 8						; size = 4
??_G?$CDynamicPoolEx@VCNullDecorator@NEffectUpdateDecorator@@@@UAEPAXI@Z PROC ; CDynamicPoolEx<NEffectUpdateDecorator::CNullDecorator>::`scalar deleting destructor', COMDAT
; _this$ = ecx
  00000	55		 push	 ebp
  00001	8b ec		 mov	 ebp, esp
  00003	56		 push	 esi
  00004	8b f1		 mov	 esi, ecx
  00006	e8 00 00 00 00	 call	 ??1?$CDynamicPoolEx@VCNullDecorator@NEffectUpdateDecorator@@@@UAE@XZ ; CDynamicPoolEx<NEffectUpdateDecorator::CNullDecorator>::~CDynamicPoolEx<NEffectUpdateDecorator::CNullDecorator>
  0000b	f6 45 08 01	 test	 BYTE PTR ___flags$[ebp], 1
  0000f	74 0b		 je	 SHORT $LN4@scalar
  00011	6a 24		 push	 36			; 00000024H
  00013	56		 push	 esi
  00014	e8 00 00 00 00	 call	 ??3@YAXPAXI@Z		; operator delete
  00019	83 c4 08	 add	 esp, 8
$LN4@scalar:
  0001c	8b c6		 mov	 eax, esi
  0001e	5e		 pop	 esi
  0001f	5d		 pop	 ebp
  00020	c2 04 00	 ret	 4
??_G?$CDynamicPoolEx@VCNullDecorator@NEffectUpdateDecorator@@@@UAEPAXI@Z ENDP ; CDynamicPoolEx<NEffectUpdateDecorator::CNullDecorator>::`scalar deleting destructor'
_TEXT	ENDS
; Function compile flags: /Ogtp
; File C:\Marty 5.5\Src-Client\Client\eterLib\Pool.h
;	COMDAT ?Delete@?$CDynamicPoolEx@VCNullDecorator@NEffectUpdateDecorator@@@@KAXPAVCNullDecorator@NEffectUpdateDecorator@@@Z
_TEXT	SEGMENT
_pkData$ = 8						; size = 4
?Delete@?$CDynamicPoolEx@VCNullDecorator@NEffectUpdateDecorator@@@@KAXPAVCNullDecorator@NEffectUpdateDecorator@@@Z PROC ; CDynamicPoolEx<NEffectUpdateDecorator::CNullDecorator>::Delete, COMDAT

; 224  : 			::operator delete(pkData);

  00000	e9 00 00 00 00	 jmp	 ??3@YAXPAX@Z		; operator delete
?Delete@?$CDynamicPoolEx@VCNullDecorator@NEffectUpdateDecorator@@@@KAXPAVCNullDecorator@NEffectUpdateDecorator@@@Z ENDP ; CDynamicPoolEx<NEffectUpdateDecorator::CNullDecorator>::Delete
_TEXT	ENDS
; Function compile flags: /Ogtp
; File C:\Marty 5.5\Src-Client\Client\eterLib\Pool.h
; File C:\Program Files\Microsoft Visual Studio\2022\Community\VC\Tools\MSVC\14.37.32822\include\vector
; File C:\Program Files\Microsoft Visual Studio\2022\Community\VC\Tools\MSVC\14.37.32822\include\algorithm
; File C:\Marty 5.5\Src-Client\Client\eterLib\Pool.h
; File C:\Program Files\Microsoft Visual Studio\2022\Community\VC\Tools\MSVC\14.37.32822\include\algorithm
; File C:\Marty 5.5\Src-Client\Client\eterLib\Pool.h
; File C:\Program Files\Microsoft Visual Studio\2022\Community\VC\Tools\MSVC\14.37.32822\include\algorithm
; File C:\Program Files\Microsoft Visual Studio\2022\Community\VC\Tools\MSVC\14.37.32822\include\vector
; File C:\Program Files\Microsoft Visual Studio\2022\Community\VC\Tools\MSVC\14.37.32822\include\xmemory
; File C:\Program Files\Microsoft Visual Studio\2022\Community\VC\Tools\MSVC\14.37.32822\include\vector
; File C:\Program Files\Microsoft Visual Studio\2022\Community\VC\Tools\MSVC\14.37.32822\include\xmemory
; File C:\Program Files\Microsoft Visual Studio\2022\Community\VC\Tools\MSVC\14.37.32822\include\vector
; File C:\Program Files\Microsoft Visual Studio\2022\Community\VC\Tools\MSVC\14.37.32822\include\xmemory
; File C:\Program Files\Microsoft Visual Studio\2022\Community\VC\Tools\MSVC\14.37.32822\include\vector
; File C:\Program Files\Microsoft Visual Studio\2022\Community\VC\Tools\MSVC\14.37.32822\include\xmemory
; File C:\Program Files\Microsoft Visual Studio\2022\Community\VC\Tools\MSVC\14.37.32822\include\vector
; File C:\Marty 5.5\Src-Client\Client\eterLib\Pool.h
; File C:\Program Files\Microsoft Visual Studio\2022\Community\VC\Tools\MSVC\14.37.32822\include\xmemory
; File C:\Marty 5.5\Src-Client\Client\eterLib\Pool.h
;	COMDAT ??1?$CDynamicPoolEx@VCNullDecorator@NEffectUpdateDecorator@@@@UAE@XZ
_TEXT	SEGMENT
??1?$CDynamicPoolEx@VCNullDecorator@NEffectUpdateDecorator@@@@UAE@XZ PROC ; CDynamicPoolEx<NEffectUpdateDecorator::CNullDecorator>::~CDynamicPoolEx<NEffectUpdateDecorator::CNullDecorator>, COMDAT
; _this$ = ecx

; 132  : 		{

  00000	53		 push	 ebx
  00001	56		 push	 esi
  00002	57		 push	 edi
  00003	8b f9		 mov	 edi, ecx
  00005	c7 07 00 00 00
	00		 mov	 DWORD PTR [edi], OFFSET ??_7?$CDynamicPoolEx@VCNullDecorator@NEffectUpdateDecorator@@@@6B@
; File C:\Program Files\Microsoft Visual Studio\2022\Community\VC\Tools\MSVC\14.37.32822\include\vector

; 43   :     _CONSTEXPR20 _Vector_const_iterator(_Tptr _Parg, const _Container_base* _Pvector) noexcept : _Ptr(_Parg) {

  0000b	8b 5f 08	 mov	 ebx, DWORD PTR [edi+8]
  0000e	8b 77 04	 mov	 esi, DWORD PTR [edi+4]
; File C:\Program Files\Microsoft Visual Studio\2022\Community\VC\Tools\MSVC\14.37.32822\include\algorithm

; 245  :     for (; _UFirst != _ULast; ++_UFirst) {

  00011	3b f3		 cmp	 esi, ebx
  00013	74 11		 je	 SHORT $LN19@CDynamicPo
$LL20@CDynamicPo:
; File C:\Marty 5.5\Src-Client\Client\eterLib\Pool.h

; 224  : 			::operator delete(pkData);

  00015	ff 36		 push	 DWORD PTR [esi]
  00017	e8 00 00 00 00	 call	 ??3@YAXPAX@Z		; operator delete
; File C:\Program Files\Microsoft Visual Studio\2022\Community\VC\Tools\MSVC\14.37.32822\include\algorithm

; 245  :     for (; _UFirst != _ULast; ++_UFirst) {

  0001c	83 c6 04	 add	 esi, 4
; File C:\Marty 5.5\Src-Client\Client\eterLib\Pool.h

; 224  : 			::operator delete(pkData);

  0001f	83 c4 04	 add	 esp, 4
; File C:\Program Files\Microsoft Visual Studio\2022\Community\VC\Tools\MSVC\14.37.32822\include\algorithm

; 245  :     for (; _UFirst != _ULast; ++_UFirst) {

  00022	3b f3		 cmp	 esi, ebx
  00024	75 ef		 jne	 SHORT $LL20@CDynamicPo
$LN19@CDynamicPo:
; File C:\Program Files\Microsoft Visual Studio\2022\Community\VC\Tools\MSVC\14.37.32822\include\vector

; 1766 :         if (_Myfirst == _Mylast) { // already empty, nothing to do

  00026	8b 47 04	 mov	 eax, DWORD PTR [edi+4]
  00029	3b 47 08	 cmp	 eax, DWORD PTR [edi+8]
  0002c	74 03		 je	 SHORT $LN24@CDynamicPo

; 1767 :             // This is an optimization for debug mode: we can avoid taking the debug lock to invalidate iterators.
; 1768 :             // Note that when clearing an empty vector, this will preserve past-the-end iterators, which is allowed by
; 1769 :             // N4950 [sequence.reqmts]/54 "a.clear() [...] may invalidate the past-the-end iterator".
; 1770 :             return;
; 1771 :         }
; 1772 : 
; 1773 :         _My_data._Orphan_all();
; 1774 :         _Destroy_range(_Myfirst, _Mylast, _Getal());
; 1775 :         _ASAN_VECTOR_MODIFY(static_cast<difference_type>(_Myfirst - _Mylast)); // negative when destroying elements
; 1776 :         _Mylast = _Myfirst;

  0002e	89 47 08	 mov	 DWORD PTR [edi+8], eax
$LN24@CDynamicPo:

; 1766 :         if (_Myfirst == _Mylast) { // already empty, nothing to do

  00031	8b 47 10	 mov	 eax, DWORD PTR [edi+16]
  00034	3b 47 14	 cmp	 eax, DWORD PTR [edi+20]
  00037	74 03		 je	 SHORT $LN27@CDynamicPo

; 1767 :             // This is an optimization for debug mode: we can avoid taking the debug lock to invalidate iterators.
; 1768 :             // Note that when clearing an empty vector, this will preserve past-the-end iterators, which is allowed by
; 1769 :             // N4950 [sequence.reqmts]/54 "a.clear() [...] may invalidate the past-the-end iterator".
; 1770 :             return;
; 1771 :         }
; 1772 : 
; 1773 :         _My_data._Orphan_all();
; 1774 :         _Destroy_range(_Myfirst, _Mylast, _Getal());
; 1775 :         _ASAN_VECTOR_MODIFY(static_cast<difference_type>(_Myfirst - _Mylast)); // negative when destroying elements
; 1776 :         _Mylast = _Myfirst;

  00039	89 47 14	 mov	 DWORD PTR [edi+20], eax
$LN27@CDynamicPo:

; 2044 :         if (_Myfirst) { // destroy and deallocate old array

  0003c	85 c0		 test	 eax, eax
  0003e	74 41		 je	 SHORT $LN33@CDynamicPo

; 2045 :             _Destroy_range(_Myfirst, _Mylast, _Al);
; 2046 :             _ASAN_VECTOR_REMOVE;
; 2047 :             _Al.deallocate(_Myfirst, static_cast<size_type>(_Myend - _Myfirst));

  00040	8b 4f 18	 mov	 ecx, DWORD PTR [edi+24]
  00043	2b c8		 sub	 ecx, eax
; File C:\Program Files\Microsoft Visual Studio\2022\Community\VC\Tools\MSVC\14.37.32822\include\xmemory

; 969  :         _Deallocate<_New_alignof<_Ty>>(_Ptr, sizeof(_Ty) * _Count);

  00045	83 e1 fc	 and	 ecx, -4			; fffffffcH

; 261  :         if (_Bytes >= _Big_allocation_threshold) { // boost the alignment of big allocations to help autovectorization

  00048	81 f9 00 10 00
	00		 cmp	 ecx, 4096		; 00001000H
  0004e	72 12		 jb	 SHORT $LN49@CDynamicPo

; 160  :     const uintptr_t _Ptr_container   = _Ptr_user[-1];

  00050	8b 50 fc	 mov	 edx, DWORD PTR [eax-4]
  00053	83 c1 23	 add	 ecx, 35			; 00000023H

; 161  : 
; 162  :     // If the following asserts, it likely means that we are performing
; 163  :     // an aligned delete on memory coming from an unaligned allocation.
; 164  :     _STL_ASSERT(_Ptr_user[-2] == _Big_allocation_sentinel, "invalid argument");
; 165  : 
; 166  :     // Extra paranoia on aligned allocation/deallocation; ensure _Ptr_container is
; 167  :     // in range [_Min_back_shift, _Non_user_size]
; 168  : #ifdef _DEBUG
; 169  :     constexpr uintptr_t _Min_back_shift = 2 * sizeof(void*);
; 170  : #else // ^^^ _DEBUG / !_DEBUG vvv
; 171  :     constexpr uintptr_t _Min_back_shift = sizeof(void*);
; 172  : #endif // _DEBUG
; 173  :     const uintptr_t _Back_shift = reinterpret_cast<uintptr_t>(_Ptr) - _Ptr_container;

  00056	2b c2		 sub	 eax, edx

; 174  :     _STL_VERIFY(_Back_shift >= _Min_back_shift && _Back_shift <= _Non_user_size, "invalid argument");

  00058	83 c0 fc	 add	 eax, -4			; fffffffcH
  0005b	83 f8 1f	 cmp	 eax, 31			; 0000001fH
  0005e	77 6d		 ja	 SHORT $LN71@CDynamicPo

; 175  :     _Ptr = reinterpret_cast<void*>(_Ptr_container);

  00060	8b c2		 mov	 eax, edx
$LN49@CDynamicPo:

; 265  :         ::operator delete(_Ptr, _Bytes);

  00062	51		 push	 ecx
  00063	50		 push	 eax
  00064	e8 00 00 00 00	 call	 ??3@YAXPAXI@Z		; operator delete
; File C:\Program Files\Microsoft Visual Studio\2022\Community\VC\Tools\MSVC\14.37.32822\include\vector

; 2049 :             _Myfirst = nullptr;

  00069	c7 47 10 00 00
	00 00		 mov	 DWORD PTR [edi+16], 0
; File C:\Program Files\Microsoft Visual Studio\2022\Community\VC\Tools\MSVC\14.37.32822\include\xmemory

; 265  :         ::operator delete(_Ptr, _Bytes);

  00070	83 c4 08	 add	 esp, 8
; File C:\Program Files\Microsoft Visual Studio\2022\Community\VC\Tools\MSVC\14.37.32822\include\vector

; 2050 :             _Mylast  = nullptr;

  00073	c7 47 14 00 00
	00 00		 mov	 DWORD PTR [edi+20], 0

; 2051 :             _Myend   = nullptr;

  0007a	c7 47 18 00 00
	00 00		 mov	 DWORD PTR [edi+24], 0
$LN33@CDynamicPo:

; 2044 :         if (_Myfirst) { // destroy and deallocate old array

  00081	8b 47 04	 mov	 eax, DWORD PTR [edi+4]
  00084	85 c0		 test	 eax, eax
  00086	74 41		 je	 SHORT $LN58@CDynamicPo

; 2045 :             _Destroy_range(_Myfirst, _Mylast, _Al);
; 2046 :             _ASAN_VECTOR_REMOVE;
; 2047 :             _Al.deallocate(_Myfirst, static_cast<size_type>(_Myend - _Myfirst));

  00088	8b 4f 0c	 mov	 ecx, DWORD PTR [edi+12]
  0008b	2b c8		 sub	 ecx, eax
; File C:\Program Files\Microsoft Visual Studio\2022\Community\VC\Tools\MSVC\14.37.32822\include\xmemory

; 969  :         _Deallocate<_New_alignof<_Ty>>(_Ptr, sizeof(_Ty) * _Count);

  0008d	83 e1 fc	 and	 ecx, -4			; fffffffcH

; 261  :         if (_Bytes >= _Big_allocation_threshold) { // boost the alignment of big allocations to help autovectorization

  00090	81 f9 00 10 00
	00		 cmp	 ecx, 4096		; 00001000H
  00096	72 12		 jb	 SHORT $LN74@CDynamicPo

; 160  :     const uintptr_t _Ptr_container   = _Ptr_user[-1];

  00098	8b 50 fc	 mov	 edx, DWORD PTR [eax-4]
  0009b	83 c1 23	 add	 ecx, 35			; 00000023H

; 161  : 
; 162  :     // If the following asserts, it likely means that we are performing
; 163  :     // an aligned delete on memory coming from an unaligned allocation.
; 164  :     _STL_ASSERT(_Ptr_user[-2] == _Big_allocation_sentinel, "invalid argument");
; 165  : 
; 166  :     // Extra paranoia on aligned allocation/deallocation; ensure _Ptr_container is
; 167  :     // in range [_Min_back_shift, _Non_user_size]
; 168  : #ifdef _DEBUG
; 169  :     constexpr uintptr_t _Min_back_shift = 2 * sizeof(void*);
; 170  : #else // ^^^ _DEBUG / !_DEBUG vvv
; 171  :     constexpr uintptr_t _Min_back_shift = sizeof(void*);
; 172  : #endif // _DEBUG
; 173  :     const uintptr_t _Back_shift = reinterpret_cast<uintptr_t>(_Ptr) - _Ptr_container;

  0009e	2b c2		 sub	 eax, edx

; 174  :     _STL_VERIFY(_Back_shift >= _Min_back_shift && _Back_shift <= _Non_user_size, "invalid argument");

  000a0	83 c0 fc	 add	 eax, -4			; fffffffcH
  000a3	83 f8 1f	 cmp	 eax, 31			; 0000001fH
  000a6	77 25		 ja	 SHORT $LN71@CDynamicPo

; 175  :     _Ptr = reinterpret_cast<void*>(_Ptr_container);

  000a8	8b c2		 mov	 eax, edx
$LN74@CDynamicPo:

; 265  :         ::operator delete(_Ptr, _Bytes);

  000aa	51		 push	 ecx
  000ab	50		 push	 eax
  000ac	e8 00 00 00 00	 call	 ??3@YAXPAXI@Z		; operator delete
; File C:\Program Files\Microsoft Visual Studio\2022\Community\VC\Tools\MSVC\14.37.32822\include\vector

; 2049 :             _Myfirst = nullptr;

  000b1	c7 47 04 00 00
	00 00		 mov	 DWORD PTR [edi+4], 0
; File C:\Program Files\Microsoft Visual Studio\2022\Community\VC\Tools\MSVC\14.37.32822\include\xmemory

; 265  :         ::operator delete(_Ptr, _Bytes);

  000b8	83 c4 08	 add	 esp, 8
; File C:\Program Files\Microsoft Visual Studio\2022\Community\VC\Tools\MSVC\14.37.32822\include\vector

; 2050 :             _Mylast  = nullptr;

  000bb	c7 47 08 00 00
	00 00		 mov	 DWORD PTR [edi+8], 0

; 2051 :             _Myend   = nullptr;

  000c2	c7 47 0c 00 00
	00 00		 mov	 DWORD PTR [edi+12], 0
$LN58@CDynamicPo:
  000c9	5f		 pop	 edi
; File C:\Marty 5.5\Src-Client\Client\eterLib\Pool.h

; 142  : 		}

  000ca	5e		 pop	 esi
  000cb	5b		 pop	 ebx
  000cc	c3		 ret	 0
$LN71@CDynamicPo:
; File C:\Program Files\Microsoft Visual Studio\2022\Community\VC\Tools\MSVC\14.37.32822\include\xmemory

; 174  :     _STL_VERIFY(_Back_shift >= _Min_back_shift && _Back_shift <= _Non_user_size, "invalid argument");

  000cd	e8 00 00 00 00	 call	 __invalid_parameter_noinfo_noreturn
$LN92@CDynamicPo:
  000d2	cc		 int	 3
??1?$CDynamicPoolEx@VCNullDecorator@NEffectUpdateDecorator@@@@UAE@XZ ENDP ; CDynamicPoolEx<NEffectUpdateDecorator::CNullDecorator>::~CDynamicPoolEx<NEffectUpdateDecorator::CNullDecorator>
_TEXT	ENDS
; Function compile flags: /Ogtp
;	COMDAT ??_G?$CDynamicPoolEx@VCTextureAnimationCWDecorator@NEffectUpdateDecorator@@@@UAEPAXI@Z
_TEXT	SEGMENT
___flags$ = 8						; size = 4
??_G?$CDynamicPoolEx@VCTextureAnimationCWDecorator@NEffectUpdateDecorator@@@@UAEPAXI@Z PROC ; CDynamicPoolEx<NEffectUpdateDecorator::CTextureAnimationCWDecorator>::`scalar deleting destructor', COMDAT
; _this$ = ecx
  00000	55		 push	 ebp
  00001	8b ec		 mov	 ebp, esp
  00003	56		 push	 esi
  00004	8b f1		 mov	 esi, ecx
  00006	e8 00 00 00 00	 call	 ??1?$CDynamicPoolEx@VCTextureAnimationCWDecorator@NEffectUpdateDecorator@@@@UAE@XZ ; CDynamicPoolEx<NEffectUpdateDecorator::CTextureAnimationCWDecorator>::~CDynamicPoolEx<NEffectUpdateDecorator::CTextureAnimationCWDecorator>
  0000b	f6 45 08 01	 test	 BYTE PTR ___flags$[ebp], 1
  0000f	74 0b		 je	 SHORT $LN4@scalar
  00011	6a 24		 push	 36			; 00000024H
  00013	56		 push	 esi
  00014	e8 00 00 00 00	 call	 ??3@YAXPAXI@Z		; operator delete
  00019	83 c4 08	 add	 esp, 8
$LN4@scalar:
  0001c	8b c6		 mov	 eax, esi
  0001e	5e		 pop	 esi
  0001f	5d		 pop	 ebp
  00020	c2 04 00	 ret	 4
??_G?$CDynamicPoolEx@VCTextureAnimationCWDecorator@NEffectUpdateDecorator@@@@UAEPAXI@Z ENDP ; CDynamicPoolEx<NEffectUpdateDecorator::CTextureAnimationCWDecorator>::`scalar deleting destructor'
_TEXT	ENDS
; Function compile flags: /Ogtp
; File C:\Marty 5.5\Src-Client\Client\eterLib\Pool.h
;	COMDAT ?Delete@?$CDynamicPoolEx@VCTextureAnimationCWDecorator@NEffectUpdateDecorator@@@@KAXPAVCTextureAnimationCWDecorator@NEffectUpdateDecorator@@@Z
_TEXT	SEGMENT
_pkData$ = 8						; size = 4
?Delete@?$CDynamicPoolEx@VCTextureAnimationCWDecorator@NEffectUpdateDecorator@@@@KAXPAVCTextureAnimationCWDecorator@NEffectUpdateDecorator@@@Z PROC ; CDynamicPoolEx<NEffectUpdateDecorator::CTextureAnimationCWDecorator>::Delete, COMDAT

; 224  : 			::operator delete(pkData);

  00000	e9 00 00 00 00	 jmp	 ??3@YAXPAX@Z		; operator delete
?Delete@?$CDynamicPoolEx@VCTextureAnimationCWDecorator@NEffectUpdateDecorator@@@@KAXPAVCTextureAnimationCWDecorator@NEffectUpdateDecorator@@@Z ENDP ; CDynamicPoolEx<NEffectUpdateDecorator::CTextureAnimationCWDecorator>::Delete
_TEXT	ENDS
; Function compile flags: /Ogtp
; File C:\Marty 5.5\Src-Client\Client\eterLib\Pool.h
; File C:\Program Files\Microsoft Visual Studio\2022\Community\VC\Tools\MSVC\14.37.32822\include\vector
; File C:\Program Files\Microsoft Visual Studio\2022\Community\VC\Tools\MSVC\14.37.32822\include\algorithm
; File C:\Marty 5.5\Src-Client\Client\eterLib\Pool.h
; File C:\Program Files\Microsoft Visual Studio\2022\Community\VC\Tools\MSVC\14.37.32822\include\algorithm
; File C:\Marty 5.5\Src-Client\Client\eterLib\Pool.h
; File C:\Program Files\Microsoft Visual Studio\2022\Community\VC\Tools\MSVC\14.37.32822\include\algorithm
; File C:\Program Files\Microsoft Visual Studio\2022\Community\VC\Tools\MSVC\14.37.32822\include\vector
; File C:\Program Files\Microsoft Visual Studio\2022\Community\VC\Tools\MSVC\14.37.32822\include\xmemory
; File C:\Program Files\Microsoft Visual Studio\2022\Community\VC\Tools\MSVC\14.37.32822\include\vector
; File C:\Program Files\Microsoft Visual Studio\2022\Community\VC\Tools\MSVC\14.37.32822\include\xmemory
; File C:\Program Files\Microsoft Visual Studio\2022\Community\VC\Tools\MSVC\14.37.32822\include\vector
; File C:\Program Files\Microsoft Visual Studio\2022\Community\VC\Tools\MSVC\14.37.32822\include\xmemory
; File C:\Program Files\Microsoft Visual Studio\2022\Community\VC\Tools\MSVC\14.37.32822\include\vector
; File C:\Program Files\Microsoft Visual Studio\2022\Community\VC\Tools\MSVC\14.37.32822\include\xmemory
; File C:\Program Files\Microsoft Visual Studio\2022\Community\VC\Tools\MSVC\14.37.32822\include\vector
; File C:\Marty 5.5\Src-Client\Client\eterLib\Pool.h
; File C:\Program Files\Microsoft Visual Studio\2022\Community\VC\Tools\MSVC\14.37.32822\include\xmemory
; File C:\Marty 5.5\Src-Client\Client\eterLib\Pool.h
;	COMDAT ??1?$CDynamicPoolEx@VCTextureAnimationCWDecorator@NEffectUpdateDecorator@@@@UAE@XZ
_TEXT	SEGMENT
??1?$CDynamicPoolEx@VCTextureAnimationCWDecorator@NEffectUpdateDecorator@@@@UAE@XZ PROC ; CDynamicPoolEx<NEffectUpdateDecorator::CTextureAnimationCWDecorator>::~CDynamicPoolEx<NEffectUpdateDecorator::CTextureAnimationCWDecorator>, COMDAT
; _this$ = ecx

; 132  : 		{

  00000	53		 push	 ebx
  00001	56		 push	 esi
  00002	57		 push	 edi
  00003	8b f9		 mov	 edi, ecx
  00005	c7 07 00 00 00
	00		 mov	 DWORD PTR [edi], OFFSET ??_7?$CDynamicPoolEx@VCTextureAnimationCWDecorator@NEffectUpdateDecorator@@@@6B@
; File C:\Program Files\Microsoft Visual Studio\2022\Community\VC\Tools\MSVC\14.37.32822\include\vector

; 43   :     _CONSTEXPR20 _Vector_const_iterator(_Tptr _Parg, const _Container_base* _Pvector) noexcept : _Ptr(_Parg) {

  0000b	8b 5f 08	 mov	 ebx, DWORD PTR [edi+8]
  0000e	8b 77 04	 mov	 esi, DWORD PTR [edi+4]
; File C:\Program Files\Microsoft Visual Studio\2022\Community\VC\Tools\MSVC\14.37.32822\include\algorithm

; 245  :     for (; _UFirst != _ULast; ++_UFirst) {

  00011	3b f3		 cmp	 esi, ebx
  00013	74 11		 je	 SHORT $LN19@CDynamicPo
$LL20@CDynamicPo:
; File C:\Marty 5.5\Src-Client\Client\eterLib\Pool.h

; 224  : 			::operator delete(pkData);

  00015	ff 36		 push	 DWORD PTR [esi]
  00017	e8 00 00 00 00	 call	 ??3@YAXPAX@Z		; operator delete
; File C:\Program Files\Microsoft Visual Studio\2022\Community\VC\Tools\MSVC\14.37.32822\include\algorithm

; 245  :     for (; _UFirst != _ULast; ++_UFirst) {

  0001c	83 c6 04	 add	 esi, 4
; File C:\Marty 5.5\Src-Client\Client\eterLib\Pool.h

; 224  : 			::operator delete(pkData);

  0001f	83 c4 04	 add	 esp, 4
; File C:\Program Files\Microsoft Visual Studio\2022\Community\VC\Tools\MSVC\14.37.32822\include\algorithm

; 245  :     for (; _UFirst != _ULast; ++_UFirst) {

  00022	3b f3		 cmp	 esi, ebx
  00024	75 ef		 jne	 SHORT $LL20@CDynamicPo
$LN19@CDynamicPo:
; File C:\Program Files\Microsoft Visual Studio\2022\Community\VC\Tools\MSVC\14.37.32822\include\vector

; 1766 :         if (_Myfirst == _Mylast) { // already empty, nothing to do

  00026	8b 47 04	 mov	 eax, DWORD PTR [edi+4]
  00029	3b 47 08	 cmp	 eax, DWORD PTR [edi+8]
  0002c	74 03		 je	 SHORT $LN24@CDynamicPo

; 1767 :             // This is an optimization for debug mode: we can avoid taking the debug lock to invalidate iterators.
; 1768 :             // Note that when clearing an empty vector, this will preserve past-the-end iterators, which is allowed by
; 1769 :             // N4950 [sequence.reqmts]/54 "a.clear() [...] may invalidate the past-the-end iterator".
; 1770 :             return;
; 1771 :         }
; 1772 : 
; 1773 :         _My_data._Orphan_all();
; 1774 :         _Destroy_range(_Myfirst, _Mylast, _Getal());
; 1775 :         _ASAN_VECTOR_MODIFY(static_cast<difference_type>(_Myfirst - _Mylast)); // negative when destroying elements
; 1776 :         _Mylast = _Myfirst;

  0002e	89 47 08	 mov	 DWORD PTR [edi+8], eax
$LN24@CDynamicPo:

; 1766 :         if (_Myfirst == _Mylast) { // already empty, nothing to do

  00031	8b 47 10	 mov	 eax, DWORD PTR [edi+16]
  00034	3b 47 14	 cmp	 eax, DWORD PTR [edi+20]
  00037	74 03		 je	 SHORT $LN27@CDynamicPo

; 1767 :             // This is an optimization for debug mode: we can avoid taking the debug lock to invalidate iterators.
; 1768 :             // Note that when clearing an empty vector, this will preserve past-the-end iterators, which is allowed by
; 1769 :             // N4950 [sequence.reqmts]/54 "a.clear() [...] may invalidate the past-the-end iterator".
; 1770 :             return;
; 1771 :         }
; 1772 : 
; 1773 :         _My_data._Orphan_all();
; 1774 :         _Destroy_range(_Myfirst, _Mylast, _Getal());
; 1775 :         _ASAN_VECTOR_MODIFY(static_cast<difference_type>(_Myfirst - _Mylast)); // negative when destroying elements
; 1776 :         _Mylast = _Myfirst;

  00039	89 47 14	 mov	 DWORD PTR [edi+20], eax
$LN27@CDynamicPo:

; 2044 :         if (_Myfirst) { // destroy and deallocate old array

  0003c	85 c0		 test	 eax, eax
  0003e	74 41		 je	 SHORT $LN33@CDynamicPo

; 2045 :             _Destroy_range(_Myfirst, _Mylast, _Al);
; 2046 :             _ASAN_VECTOR_REMOVE;
; 2047 :             _Al.deallocate(_Myfirst, static_cast<size_type>(_Myend - _Myfirst));

  00040	8b 4f 18	 mov	 ecx, DWORD PTR [edi+24]
  00043	2b c8		 sub	 ecx, eax
; File C:\Program Files\Microsoft Visual Studio\2022\Community\VC\Tools\MSVC\14.37.32822\include\xmemory

; 969  :         _Deallocate<_New_alignof<_Ty>>(_Ptr, sizeof(_Ty) * _Count);

  00045	83 e1 fc	 and	 ecx, -4			; fffffffcH

; 261  :         if (_Bytes >= _Big_allocation_threshold) { // boost the alignment of big allocations to help autovectorization

  00048	81 f9 00 10 00
	00		 cmp	 ecx, 4096		; 00001000H
  0004e	72 12		 jb	 SHORT $LN49@CDynamicPo

; 160  :     const uintptr_t _Ptr_container   = _Ptr_user[-1];

  00050	8b 50 fc	 mov	 edx, DWORD PTR [eax-4]
  00053	83 c1 23	 add	 ecx, 35			; 00000023H

; 161  : 
; 162  :     // If the following asserts, it likely means that we are performing
; 163  :     // an aligned delete on memory coming from an unaligned allocation.
; 164  :     _STL_ASSERT(_Ptr_user[-2] == _Big_allocation_sentinel, "invalid argument");
; 165  : 
; 166  :     // Extra paranoia on aligned allocation/deallocation; ensure _Ptr_container is
; 167  :     // in range [_Min_back_shift, _Non_user_size]
; 168  : #ifdef _DEBUG
; 169  :     constexpr uintptr_t _Min_back_shift = 2 * sizeof(void*);
; 170  : #else // ^^^ _DEBUG / !_DEBUG vvv
; 171  :     constexpr uintptr_t _Min_back_shift = sizeof(void*);
; 172  : #endif // _DEBUG
; 173  :     const uintptr_t _Back_shift = reinterpret_cast<uintptr_t>(_Ptr) - _Ptr_container;

  00056	2b c2		 sub	 eax, edx

; 174  :     _STL_VERIFY(_Back_shift >= _Min_back_shift && _Back_shift <= _Non_user_size, "invalid argument");

  00058	83 c0 fc	 add	 eax, -4			; fffffffcH
  0005b	83 f8 1f	 cmp	 eax, 31			; 0000001fH
  0005e	77 6d		 ja	 SHORT $LN71@CDynamicPo

; 175  :     _Ptr = reinterpret_cast<void*>(_Ptr_container);

  00060	8b c2		 mov	 eax, edx
$LN49@CDynamicPo:

; 265  :         ::operator delete(_Ptr, _Bytes);

  00062	51		 push	 ecx
  00063	50		 push	 eax
  00064	e8 00 00 00 00	 call	 ??3@YAXPAXI@Z		; operator delete
; File C:\Program Files\Microsoft Visual Studio\2022\Community\VC\Tools\MSVC\14.37.32822\include\vector

; 2049 :             _Myfirst = nullptr;

  00069	c7 47 10 00 00
	00 00		 mov	 DWORD PTR [edi+16], 0
; File C:\Program Files\Microsoft Visual Studio\2022\Community\VC\Tools\MSVC\14.37.32822\include\xmemory

; 265  :         ::operator delete(_Ptr, _Bytes);

  00070	83 c4 08	 add	 esp, 8
; File C:\Program Files\Microsoft Visual Studio\2022\Community\VC\Tools\MSVC\14.37.32822\include\vector

; 2050 :             _Mylast  = nullptr;

  00073	c7 47 14 00 00
	00 00		 mov	 DWORD PTR [edi+20], 0

; 2051 :             _Myend   = nullptr;

  0007a	c7 47 18 00 00
	00 00		 mov	 DWORD PTR [edi+24], 0
$LN33@CDynamicPo:

; 2044 :         if (_Myfirst) { // destroy and deallocate old array

  00081	8b 47 04	 mov	 eax, DWORD PTR [edi+4]
  00084	85 c0		 test	 eax, eax
  00086	74 41		 je	 SHORT $LN58@CDynamicPo

; 2045 :             _Destroy_range(_Myfirst, _Mylast, _Al);
; 2046 :             _ASAN_VECTOR_REMOVE;
; 2047 :             _Al.deallocate(_Myfirst, static_cast<size_type>(_Myend - _Myfirst));

  00088	8b 4f 0c	 mov	 ecx, DWORD PTR [edi+12]
  0008b	2b c8		 sub	 ecx, eax
; File C:\Program Files\Microsoft Visual Studio\2022\Community\VC\Tools\MSVC\14.37.32822\include\xmemory

; 969  :         _Deallocate<_New_alignof<_Ty>>(_Ptr, sizeof(_Ty) * _Count);

  0008d	83 e1 fc	 and	 ecx, -4			; fffffffcH

; 261  :         if (_Bytes >= _Big_allocation_threshold) { // boost the alignment of big allocations to help autovectorization

  00090	81 f9 00 10 00
	00		 cmp	 ecx, 4096		; 00001000H
  00096	72 12		 jb	 SHORT $LN74@CDynamicPo

; 160  :     const uintptr_t _Ptr_container   = _Ptr_user[-1];

  00098	8b 50 fc	 mov	 edx, DWORD PTR [eax-4]
  0009b	83 c1 23	 add	 ecx, 35			; 00000023H

; 161  : 
; 162  :     // If the following asserts, it likely means that we are performing
; 163  :     // an aligned delete on memory coming from an unaligned allocation.
; 164  :     _STL_ASSERT(_Ptr_user[-2] == _Big_allocation_sentinel, "invalid argument");
; 165  : 
; 166  :     // Extra paranoia on aligned allocation/deallocation; ensure _Ptr_container is
; 167  :     // in range [_Min_back_shift, _Non_user_size]
; 168  : #ifdef _DEBUG
; 169  :     constexpr uintptr_t _Min_back_shift = 2 * sizeof(void*);
; 170  : #else // ^^^ _DEBUG / !_DEBUG vvv
; 171  :     constexpr uintptr_t _Min_back_shift = sizeof(void*);
; 172  : #endif // _DEBUG
; 173  :     const uintptr_t _Back_shift = reinterpret_cast<uintptr_t>(_Ptr) - _Ptr_container;

  0009e	2b c2		 sub	 eax, edx

; 174  :     _STL_VERIFY(_Back_shift >= _Min_back_shift && _Back_shift <= _Non_user_size, "invalid argument");

  000a0	83 c0 fc	 add	 eax, -4			; fffffffcH
  000a3	83 f8 1f	 cmp	 eax, 31			; 0000001fH
  000a6	77 25		 ja	 SHORT $LN71@CDynamicPo

; 175  :     _Ptr = reinterpret_cast<void*>(_Ptr_container);

  000a8	8b c2		 mov	 eax, edx
$LN74@CDynamicPo:

; 265  :         ::operator delete(_Ptr, _Bytes);

  000aa	51		 push	 ecx
  000ab	50		 push	 eax
  000ac	e8 00 00 00 00	 call	 ??3@YAXPAXI@Z		; operator delete
; File C:\Program Files\Microsoft Visual Studio\2022\Community\VC\Tools\MSVC\14.37.32822\include\vector

; 2049 :             _Myfirst = nullptr;

  000b1	c7 47 04 00 00
	00 00		 mov	 DWORD PTR [edi+4], 0
; File C:\Program Files\Microsoft Visual Studio\2022\Community\VC\Tools\MSVC\14.37.32822\include\xmemory

; 265  :         ::operator delete(_Ptr, _Bytes);

  000b8	83 c4 08	 add	 esp, 8
; File C:\Program Files\Microsoft Visual Studio\2022\Community\VC\Tools\MSVC\14.37.32822\include\vector

; 2050 :             _Mylast  = nullptr;

  000bb	c7 47 08 00 00
	00 00		 mov	 DWORD PTR [edi+8], 0

; 2051 :             _Myend   = nullptr;

  000c2	c7 47 0c 00 00
	00 00		 mov	 DWORD PTR [edi+12], 0
$LN58@CDynamicPo:
  000c9	5f		 pop	 edi
; File C:\Marty 5.5\Src-Client\Client\eterLib\Pool.h

; 142  : 		}

  000ca	5e		 pop	 esi
  000cb	5b		 pop	 ebx
  000cc	c3		 ret	 0
$LN71@CDynamicPo:
; File C:\Program Files\Microsoft Visual Studio\2022\Community\VC\Tools\MSVC\14.37.32822\include\xmemory

; 174  :     _STL_VERIFY(_Back_shift >= _Min_back_shift && _Back_shift <= _Non_user_size, "invalid argument");

  000cd	e8 00 00 00 00	 call	 __invalid_parameter_noinfo_noreturn
$LN92@CDynamicPo:
  000d2	cc		 int	 3
??1?$CDynamicPoolEx@VCTextureAnimationCWDecorator@NEffectUpdateDecorator@@@@UAE@XZ ENDP ; CDynamicPoolEx<NEffectUpdateDecorator::CTextureAnimationCWDecorator>::~CDynamicPoolEx<NEffectUpdateDecorator::CTextureAnimationCWDecorator>
_TEXT	ENDS
; Function compile flags: /Ogtp
;	COMDAT ??_G?$CDynamicPoolEx@VCTextureAnimationCCWDecorator@NEffectUpdateDecorator@@@@UAEPAXI@Z
_TEXT	SEGMENT
___flags$ = 8						; size = 4
??_G?$CDynamicPoolEx@VCTextureAnimationCCWDecorator@NEffectUpdateDecorator@@@@UAEPAXI@Z PROC ; CDynamicPoolEx<NEffectUpdateDecorator::CTextureAnimationCCWDecorator>::`scalar deleting destructor', COMDAT
; _this$ = ecx
  00000	55		 push	 ebp
  00001	8b ec		 mov	 ebp, esp
  00003	56		 push	 esi
  00004	8b f1		 mov	 esi, ecx
  00006	e8 00 00 00 00	 call	 ??1?$CDynamicPoolEx@VCTextureAnimationCCWDecorator@NEffectUpdateDecorator@@@@UAE@XZ ; CDynamicPoolEx<NEffectUpdateDecorator::CTextureAnimationCCWDecorator>::~CDynamicPoolEx<NEffectUpdateDecorator::CTextureAnimationCCWDecorator>
  0000b	f6 45 08 01	 test	 BYTE PTR ___flags$[ebp], 1
  0000f	74 0b		 je	 SHORT $LN4@scalar
  00011	6a 24		 push	 36			; 00000024H
  00013	56		 push	 esi
  00014	e8 00 00 00 00	 call	 ??3@YAXPAXI@Z		; operator delete
  00019	83 c4 08	 add	 esp, 8
$LN4@scalar:
  0001c	8b c6		 mov	 eax, esi
  0001e	5e		 pop	 esi
  0001f	5d		 pop	 ebp
  00020	c2 04 00	 ret	 4
??_G?$CDynamicPoolEx@VCTextureAnimationCCWDecorator@NEffectUpdateDecorator@@@@UAEPAXI@Z ENDP ; CDynamicPoolEx<NEffectUpdateDecorator::CTextureAnimationCCWDecorator>::`scalar deleting destructor'
_TEXT	ENDS
; Function compile flags: /Ogtp
; File C:\Marty 5.5\Src-Client\Client\eterLib\Pool.h
;	COMDAT ?Delete@?$CDynamicPoolEx@VCTextureAnimationCCWDecorator@NEffectUpdateDecorator@@@@KAXPAVCTextureAnimationCCWDecorator@NEffectUpdateDecorator@@@Z
_TEXT	SEGMENT
_pkData$ = 8						; size = 4
?Delete@?$CDynamicPoolEx@VCTextureAnimationCCWDecorator@NEffectUpdateDecorator@@@@KAXPAVCTextureAnimationCCWDecorator@NEffectUpdateDecorator@@@Z PROC ; CDynamicPoolEx<NEffectUpdateDecorator::CTextureAnimationCCWDecorator>::Delete, COMDAT

; 224  : 			::operator delete(pkData);

  00000	e9 00 00 00 00	 jmp	 ??3@YAXPAX@Z		; operator delete
?Delete@?$CDynamicPoolEx@VCTextureAnimationCCWDecorator@NEffectUpdateDecorator@@@@KAXPAVCTextureAnimationCCWDecorator@NEffectUpdateDecorator@@@Z ENDP ; CDynamicPoolEx<NEffectUpdateDecorator::CTextureAnimationCCWDecorator>::Delete
_TEXT	ENDS
; Function compile flags: /Ogtp
; File C:\Marty 5.5\Src-Client\Client\eterLib\Pool.h
; File C:\Program Files\Microsoft Visual Studio\2022\Community\VC\Tools\MSVC\14.37.32822\include\vector
; File C:\Program Files\Microsoft Visual Studio\2022\Community\VC\Tools\MSVC\14.37.32822\include\algorithm
; File C:\Marty 5.5\Src-Client\Client\eterLib\Pool.h
; File C:\Program Files\Microsoft Visual Studio\2022\Community\VC\Tools\MSVC\14.37.32822\include\algorithm
; File C:\Marty 5.5\Src-Client\Client\eterLib\Pool.h
; File C:\Program Files\Microsoft Visual Studio\2022\Community\VC\Tools\MSVC\14.37.32822\include\algorithm
; File C:\Program Files\Microsoft Visual Studio\2022\Community\VC\Tools\MSVC\14.37.32822\include\vector
; File C:\Program Files\Microsoft Visual Studio\2022\Community\VC\Tools\MSVC\14.37.32822\include\xmemory
; File C:\Program Files\Microsoft Visual Studio\2022\Community\VC\Tools\MSVC\14.37.32822\include\vector
; File C:\Program Files\Microsoft Visual Studio\2022\Community\VC\Tools\MSVC\14.37.32822\include\xmemory
; File C:\Program Files\Microsoft Visual Studio\2022\Community\VC\Tools\MSVC\14.37.32822\include\vector
; File C:\Program Files\Microsoft Visual Studio\2022\Community\VC\Tools\MSVC\14.37.32822\include\xmemory
; File C:\Program Files\Microsoft Visual Studio\2022\Community\VC\Tools\MSVC\14.37.32822\include\vector
; File C:\Program Files\Microsoft Visual Studio\2022\Community\VC\Tools\MSVC\14.37.32822\include\xmemory
; File C:\Program Files\Microsoft Visual Studio\2022\Community\VC\Tools\MSVC\14.37.32822\include\vector
; File C:\Marty 5.5\Src-Client\Client\eterLib\Pool.h
; File C:\Program Files\Microsoft Visual Studio\2022\Community\VC\Tools\MSVC\14.37.32822\include\xmemory
; File C:\Marty 5.5\Src-Client\Client\eterLib\Pool.h
;	COMDAT ??1?$CDynamicPoolEx@VCTextureAnimationCCWDecorator@NEffectUpdateDecorator@@@@UAE@XZ
_TEXT	SEGMENT
??1?$CDynamicPoolEx@VCTextureAnimationCCWDecorator@NEffectUpdateDecorator@@@@UAE@XZ PROC ; CDynamicPoolEx<NEffectUpdateDecorator::CTextureAnimationCCWDecorator>::~CDynamicPoolEx<NEffectUpdateDecorator::CTextureAnimationCCWDecorator>, COMDAT
; _this$ = ecx

; 132  : 		{

  00000	53		 push	 ebx
  00001	56		 push	 esi
  00002	57		 push	 edi
  00003	8b f9		 mov	 edi, ecx
  00005	c7 07 00 00 00
	00		 mov	 DWORD PTR [edi], OFFSET ??_7?$CDynamicPoolEx@VCTextureAnimationCCWDecorator@NEffectUpdateDecorator@@@@6B@
; File C:\Program Files\Microsoft Visual Studio\2022\Community\VC\Tools\MSVC\14.37.32822\include\vector

; 43   :     _CONSTEXPR20 _Vector_const_iterator(_Tptr _Parg, const _Container_base* _Pvector) noexcept : _Ptr(_Parg) {

  0000b	8b 5f 08	 mov	 ebx, DWORD PTR [edi+8]
  0000e	8b 77 04	 mov	 esi, DWORD PTR [edi+4]
; File C:\Program Files\Microsoft Visual Studio\2022\Community\VC\Tools\MSVC\14.37.32822\include\algorithm

; 245  :     for (; _UFirst != _ULast; ++_UFirst) {

  00011	3b f3		 cmp	 esi, ebx
  00013	74 11		 je	 SHORT $LN19@CDynamicPo
$LL20@CDynamicPo:
; File C:\Marty 5.5\Src-Client\Client\eterLib\Pool.h

; 224  : 			::operator delete(pkData);

  00015	ff 36		 push	 DWORD PTR [esi]
  00017	e8 00 00 00 00	 call	 ??3@YAXPAX@Z		; operator delete
; File C:\Program Files\Microsoft Visual Studio\2022\Community\VC\Tools\MSVC\14.37.32822\include\algorithm

; 245  :     for (; _UFirst != _ULast; ++_UFirst) {

  0001c	83 c6 04	 add	 esi, 4
; File C:\Marty 5.5\Src-Client\Client\eterLib\Pool.h

; 224  : 			::operator delete(pkData);

  0001f	83 c4 04	 add	 esp, 4
; File C:\Program Files\Microsoft Visual Studio\2022\Community\VC\Tools\MSVC\14.37.32822\include\algorithm

; 245  :     for (; _UFirst != _ULast; ++_UFirst) {

  00022	3b f3		 cmp	 esi, ebx
  00024	75 ef		 jne	 SHORT $LL20@CDynamicPo
$LN19@CDynamicPo:
; File C:\Program Files\Microsoft Visual Studio\2022\Community\VC\Tools\MSVC\14.37.32822\include\vector

; 1766 :         if (_Myfirst == _Mylast) { // already empty, nothing to do

  00026	8b 47 04	 mov	 eax, DWORD PTR [edi+4]
  00029	3b 47 08	 cmp	 eax, DWORD PTR [edi+8]
  0002c	74 03		 je	 SHORT $LN24@CDynamicPo

; 1767 :             // This is an optimization for debug mode: we can avoid taking the debug lock to invalidate iterators.
; 1768 :             // Note that when clearing an empty vector, this will preserve past-the-end iterators, which is allowed by
; 1769 :             // N4950 [sequence.reqmts]/54 "a.clear() [...] may invalidate the past-the-end iterator".
; 1770 :             return;
; 1771 :         }
; 1772 : 
; 1773 :         _My_data._Orphan_all();
; 1774 :         _Destroy_range(_Myfirst, _Mylast, _Getal());
; 1775 :         _ASAN_VECTOR_MODIFY(static_cast<difference_type>(_Myfirst - _Mylast)); // negative when destroying elements
; 1776 :         _Mylast = _Myfirst;

  0002e	89 47 08	 mov	 DWORD PTR [edi+8], eax
$LN24@CDynamicPo:

; 1766 :         if (_Myfirst == _Mylast) { // already empty, nothing to do

  00031	8b 47 10	 mov	 eax, DWORD PTR [edi+16]
  00034	3b 47 14	 cmp	 eax, DWORD PTR [edi+20]
  00037	74 03		 je	 SHORT $LN27@CDynamicPo

; 1767 :             // This is an optimization for debug mode: we can avoid taking the debug lock to invalidate iterators.
; 1768 :             // Note that when clearing an empty vector, this will preserve past-the-end iterators, which is allowed by
; 1769 :             // N4950 [sequence.reqmts]/54 "a.clear() [...] may invalidate the past-the-end iterator".
; 1770 :             return;
; 1771 :         }
; 1772 : 
; 1773 :         _My_data._Orphan_all();
; 1774 :         _Destroy_range(_Myfirst, _Mylast, _Getal());
; 1775 :         _ASAN_VECTOR_MODIFY(static_cast<difference_type>(_Myfirst - _Mylast)); // negative when destroying elements
; 1776 :         _Mylast = _Myfirst;

  00039	89 47 14	 mov	 DWORD PTR [edi+20], eax
$LN27@CDynamicPo:

; 2044 :         if (_Myfirst) { // destroy and deallocate old array

  0003c	85 c0		 test	 eax, eax
  0003e	74 41		 je	 SHORT $LN33@CDynamicPo

; 2045 :             _Destroy_range(_Myfirst, _Mylast, _Al);
; 2046 :             _ASAN_VECTOR_REMOVE;
; 2047 :             _Al.deallocate(_Myfirst, static_cast<size_type>(_Myend - _Myfirst));

  00040	8b 4f 18	 mov	 ecx, DWORD PTR [edi+24]
  00043	2b c8		 sub	 ecx, eax
; File C:\Program Files\Microsoft Visual Studio\2022\Community\VC\Tools\MSVC\14.37.32822\include\xmemory

; 969  :         _Deallocate<_New_alignof<_Ty>>(_Ptr, sizeof(_Ty) * _Count);

  00045	83 e1 fc	 and	 ecx, -4			; fffffffcH

; 261  :         if (_Bytes >= _Big_allocation_threshold) { // boost the alignment of big allocations to help autovectorization

  00048	81 f9 00 10 00
	00		 cmp	 ecx, 4096		; 00001000H
  0004e	72 12		 jb	 SHORT $LN49@CDynamicPo

; 160  :     const uintptr_t _Ptr_container   = _Ptr_user[-1];

  00050	8b 50 fc	 mov	 edx, DWORD PTR [eax-4]
  00053	83 c1 23	 add	 ecx, 35			; 00000023H

; 161  : 
; 162  :     // If the following asserts, it likely means that we are performing
; 163  :     // an aligned delete on memory coming from an unaligned allocation.
; 164  :     _STL_ASSERT(_Ptr_user[-2] == _Big_allocation_sentinel, "invalid argument");
; 165  : 
; 166  :     // Extra paranoia on aligned allocation/deallocation; ensure _Ptr_container is
; 167  :     // in range [_Min_back_shift, _Non_user_size]
; 168  : #ifdef _DEBUG
; 169  :     constexpr uintptr_t _Min_back_shift = 2 * sizeof(void*);
; 170  : #else // ^^^ _DEBUG / !_DEBUG vvv
; 171  :     constexpr uintptr_t _Min_back_shift = sizeof(void*);
; 172  : #endif // _DEBUG
; 173  :     const uintptr_t _Back_shift = reinterpret_cast<uintptr_t>(_Ptr) - _Ptr_container;

  00056	2b c2		 sub	 eax, edx

; 174  :     _STL_VERIFY(_Back_shift >= _Min_back_shift && _Back_shift <= _Non_user_size, "invalid argument");

  00058	83 c0 fc	 add	 eax, -4			; fffffffcH
  0005b	83 f8 1f	 cmp	 eax, 31			; 0000001fH
  0005e	77 6d		 ja	 SHORT $LN71@CDynamicPo

; 175  :     _Ptr = reinterpret_cast<void*>(_Ptr_container);

  00060	8b c2		 mov	 eax, edx
$LN49@CDynamicPo:

; 265  :         ::operator delete(_Ptr, _Bytes);

  00062	51		 push	 ecx
  00063	50		 push	 eax
  00064	e8 00 00 00 00	 call	 ??3@YAXPAXI@Z		; operator delete
; File C:\Program Files\Microsoft Visual Studio\2022\Community\VC\Tools\MSVC\14.37.32822\include\vector

; 2049 :             _Myfirst = nullptr;

  00069	c7 47 10 00 00
	00 00		 mov	 DWORD PTR [edi+16], 0
; File C:\Program Files\Microsoft Visual Studio\2022\Community\VC\Tools\MSVC\14.37.32822\include\xmemory

; 265  :         ::operator delete(_Ptr, _Bytes);

  00070	83 c4 08	 add	 esp, 8
; File C:\Program Files\Microsoft Visual Studio\2022\Community\VC\Tools\MSVC\14.37.32822\include\vector

; 2050 :             _Mylast  = nullptr;

  00073	c7 47 14 00 00
	00 00		 mov	 DWORD PTR [edi+20], 0

; 2051 :             _Myend   = nullptr;

  0007a	c7 47 18 00 00
	00 00		 mov	 DWORD PTR [edi+24], 0
$LN33@CDynamicPo:

; 2044 :         if (_Myfirst) { // destroy and deallocate old array

  00081	8b 47 04	 mov	 eax, DWORD PTR [edi+4]
  00084	85 c0		 test	 eax, eax
  00086	74 41		 je	 SHORT $LN58@CDynamicPo

; 2045 :             _Destroy_range(_Myfirst, _Mylast, _Al);
; 2046 :             _ASAN_VECTOR_REMOVE;
; 2047 :             _Al.deallocate(_Myfirst, static_cast<size_type>(_Myend - _Myfirst));

  00088	8b 4f 0c	 mov	 ecx, DWORD PTR [edi+12]
  0008b	2b c8		 sub	 ecx, eax
; File C:\Program Files\Microsoft Visual Studio\2022\Community\VC\Tools\MSVC\14.37.32822\include\xmemory

; 969  :         _Deallocate<_New_alignof<_Ty>>(_Ptr, sizeof(_Ty) * _Count);

  0008d	83 e1 fc	 and	 ecx, -4			; fffffffcH

; 261  :         if (_Bytes >= _Big_allocation_threshold) { // boost the alignment of big allocations to help autovectorization

  00090	81 f9 00 10 00
	00		 cmp	 ecx, 4096		; 00001000H
  00096	72 12		 jb	 SHORT $LN74@CDynamicPo

; 160  :     const uintptr_t _Ptr_container   = _Ptr_user[-1];

  00098	8b 50 fc	 mov	 edx, DWORD PTR [eax-4]
  0009b	83 c1 23	 add	 ecx, 35			; 00000023H

; 161  : 
; 162  :     // If the following asserts, it likely means that we are performing
; 163  :     // an aligned delete on memory coming from an unaligned allocation.
; 164  :     _STL_ASSERT(_Ptr_user[-2] == _Big_allocation_sentinel, "invalid argument");
; 165  : 
; 166  :     // Extra paranoia on aligned allocation/deallocation; ensure _Ptr_container is
; 167  :     // in range [_Min_back_shift, _Non_user_size]
; 168  : #ifdef _DEBUG
; 169  :     constexpr uintptr_t _Min_back_shift = 2 * sizeof(void*);
; 170  : #else // ^^^ _DEBUG / !_DEBUG vvv
; 171  :     constexpr uintptr_t _Min_back_shift = sizeof(void*);
; 172  : #endif // _DEBUG
; 173  :     const uintptr_t _Back_shift = reinterpret_cast<uintptr_t>(_Ptr) - _Ptr_container;

  0009e	2b c2		 sub	 eax, edx

; 174  :     _STL_VERIFY(_Back_shift >= _Min_back_shift && _Back_shift <= _Non_user_size, "invalid argument");

  000a0	83 c0 fc	 add	 eax, -4			; fffffffcH
  000a3	83 f8 1f	 cmp	 eax, 31			; 0000001fH
  000a6	77 25		 ja	 SHORT $LN71@CDynamicPo

; 175  :     _Ptr = reinterpret_cast<void*>(_Ptr_container);

  000a8	8b c2		 mov	 eax, edx
$LN74@CDynamicPo:

; 265  :         ::operator delete(_Ptr, _Bytes);

  000aa	51		 push	 ecx
  000ab	50		 push	 eax
  000ac	e8 00 00 00 00	 call	 ??3@YAXPAXI@Z		; operator delete
; File C:\Program Files\Microsoft Visual Studio\2022\Community\VC\Tools\MSVC\14.37.32822\include\vector

; 2049 :             _Myfirst = nullptr;

  000b1	c7 47 04 00 00
	00 00		 mov	 DWORD PTR [edi+4], 0
; File C:\Program Files\Microsoft Visual Studio\2022\Community\VC\Tools\MSVC\14.37.32822\include\xmemory

; 265  :         ::operator delete(_Ptr, _Bytes);

  000b8	83 c4 08	 add	 esp, 8
; File C:\Program Files\Microsoft Visual Studio\2022\Community\VC\Tools\MSVC\14.37.32822\include\vector

; 2050 :             _Mylast  = nullptr;

  000bb	c7 47 08 00 00
	00 00		 mov	 DWORD PTR [edi+8], 0

; 2051 :             _Myend   = nullptr;

  000c2	c7 47 0c 00 00
	00 00		 mov	 DWORD PTR [edi+12], 0
$LN58@CDynamicPo:
  000c9	5f		 pop	 edi
; File C:\Marty 5.5\Src-Client\Client\eterLib\Pool.h

; 142  : 		}

  000ca	5e		 pop	 esi
  000cb	5b		 pop	 ebx
  000cc	c3		 ret	 0
$LN71@CDynamicPo:
; File C:\Program Files\Microsoft Visual Studio\2022\Community\VC\Tools\MSVC\14.37.32822\include\xmemory

; 174  :     _STL_VERIFY(_Back_shift >= _Min_back_shift && _Back_shift <= _Non_user_size, "invalid argument");

  000cd	e8 00 00 00 00	 call	 __invalid_parameter_noinfo_noreturn
$LN92@CDynamicPo:
  000d2	cc		 int	 3
??1?$CDynamicPoolEx@VCTextureAnimationCCWDecorator@NEffectUpdateDecorator@@@@UAE@XZ ENDP ; CDynamicPoolEx<NEffectUpdateDecorator::CTextureAnimationCCWDecorator>::~CDynamicPoolEx<NEffectUpdateDecorator::CTextureAnimationCCWDecorator>
_TEXT	ENDS
; Function compile flags: /Ogtp
;	COMDAT ??_G?$CDynamicPoolEx@VCTextureAnimationRandomDecorator@NEffectUpdateDecorator@@@@UAEPAXI@Z
_TEXT	SEGMENT
___flags$ = 8						; size = 4
??_G?$CDynamicPoolEx@VCTextureAnimationRandomDecorator@NEffectUpdateDecorator@@@@UAEPAXI@Z PROC ; CDynamicPoolEx<NEffectUpdateDecorator::CTextureAnimationRandomDecorator>::`scalar deleting destructor', COMDAT
; _this$ = ecx
  00000	55		 push	 ebp
  00001	8b ec		 mov	 ebp, esp
  00003	56		 push	 esi
  00004	8b f1		 mov	 esi, ecx
  00006	e8 00 00 00 00	 call	 ??1?$CDynamicPoolEx@VCTextureAnimationRandomDecorator@NEffectUpdateDecorator@@@@UAE@XZ ; CDynamicPoolEx<NEffectUpdateDecorator::CTextureAnimationRandomDecorator>::~CDynamicPoolEx<NEffectUpdateDecorator::CTextureAnimationRandomDecorator>
  0000b	f6 45 08 01	 test	 BYTE PTR ___flags$[ebp], 1
  0000f	74 0b		 je	 SHORT $LN4@scalar
  00011	6a 24		 push	 36			; 00000024H
  00013	56		 push	 esi
  00014	e8 00 00 00 00	 call	 ??3@YAXPAXI@Z		; operator delete
  00019	83 c4 08	 add	 esp, 8
$LN4@scalar:
  0001c	8b c6		 mov	 eax, esi
  0001e	5e		 pop	 esi
  0001f	5d		 pop	 ebp
  00020	c2 04 00	 ret	 4
??_G?$CDynamicPoolEx@VCTextureAnimationRandomDecorator@NEffectUpdateDecorator@@@@UAEPAXI@Z ENDP ; CDynamicPoolEx<NEffectUpdateDecorator::CTextureAnimationRandomDecorator>::`scalar deleting destructor'
_TEXT	ENDS
; Function compile flags: /Ogtp
; File C:\Marty 5.5\Src-Client\Client\eterLib\Pool.h
;	COMDAT ?Delete@?$CDynamicPoolEx@VCTextureAnimationRandomDecorator@NEffectUpdateDecorator@@@@KAXPAVCTextureAnimationRandomDecorator@NEffectUpdateDecorator@@@Z
_TEXT	SEGMENT
_pkData$ = 8						; size = 4
?Delete@?$CDynamicPoolEx@VCTextureAnimationRandomDecorator@NEffectUpdateDecorator@@@@KAXPAVCTextureAnimationRandomDecorator@NEffectUpdateDecorator@@@Z PROC ; CDynamicPoolEx<NEffectUpdateDecorator::CTextureAnimationRandomDecorator>::Delete, COMDAT

; 224  : 			::operator delete(pkData);

  00000	e9 00 00 00 00	 jmp	 ??3@YAXPAX@Z		; operator delete
?Delete@?$CDynamicPoolEx@VCTextureAnimationRandomDecorator@NEffectUpdateDecorator@@@@KAXPAVCTextureAnimationRandomDecorator@NEffectUpdateDecorator@@@Z ENDP ; CDynamicPoolEx<NEffectUpdateDecorator::CTextureAnimationRandomDecorator>::Delete
_TEXT	ENDS
; Function compile flags: /Ogtp
; File C:\Marty 5.5\Src-Client\Client\eterLib\Pool.h
; File C:\Program Files\Microsoft Visual Studio\2022\Community\VC\Tools\MSVC\14.37.32822\include\vector
; File C:\Program Files\Microsoft Visual Studio\2022\Community\VC\Tools\MSVC\14.37.32822\include\algorithm
; File C:\Marty 5.5\Src-Client\Client\eterLib\Pool.h
; File C:\Program Files\Microsoft Visual Studio\2022\Community\VC\Tools\MSVC\14.37.32822\include\algorithm
; File C:\Marty 5.5\Src-Client\Client\eterLib\Pool.h
; File C:\Program Files\Microsoft Visual Studio\2022\Community\VC\Tools\MSVC\14.37.32822\include\algorithm
; File C:\Program Files\Microsoft Visual Studio\2022\Community\VC\Tools\MSVC\14.37.32822\include\vector
; File C:\Program Files\Microsoft Visual Studio\2022\Community\VC\Tools\MSVC\14.37.32822\include\xmemory
; File C:\Program Files\Microsoft Visual Studio\2022\Community\VC\Tools\MSVC\14.37.32822\include\vector
; File C:\Program Files\Microsoft Visual Studio\2022\Community\VC\Tools\MSVC\14.37.32822\include\xmemory
; File C:\Program Files\Microsoft Visual Studio\2022\Community\VC\Tools\MSVC\14.37.32822\include\vector
; File C:\Program Files\Microsoft Visual Studio\2022\Community\VC\Tools\MSVC\14.37.32822\include\xmemory
; File C:\Program Files\Microsoft Visual Studio\2022\Community\VC\Tools\MSVC\14.37.32822\include\vector
; File C:\Program Files\Microsoft Visual Studio\2022\Community\VC\Tools\MSVC\14.37.32822\include\xmemory
; File C:\Program Files\Microsoft Visual Studio\2022\Community\VC\Tools\MSVC\14.37.32822\include\vector
; File C:\Marty 5.5\Src-Client\Client\eterLib\Pool.h
; File C:\Program Files\Microsoft Visual Studio\2022\Community\VC\Tools\MSVC\14.37.32822\include\xmemory
; File C:\Marty 5.5\Src-Client\Client\eterLib\Pool.h
;	COMDAT ??1?$CDynamicPoolEx@VCTextureAnimationRandomDecorator@NEffectUpdateDecorator@@@@UAE@XZ
_TEXT	SEGMENT
??1?$CDynamicPoolEx@VCTextureAnimationRandomDecorator@NEffectUpdateDecorator@@@@UAE@XZ PROC ; CDynamicPoolEx<NEffectUpdateDecorator::CTextureAnimationRandomDecorator>::~CDynamicPoolEx<NEffectUpdateDecorator::CTextureAnimationRandomDecorator>, COMDAT
; _this$ = ecx

; 132  : 		{

  00000	53		 push	 ebx
  00001	56		 push	 esi
  00002	57		 push	 edi
  00003	8b f9		 mov	 edi, ecx
  00005	c7 07 00 00 00
	00		 mov	 DWORD PTR [edi], OFFSET ??_7?$CDynamicPoolEx@VCTextureAnimationRandomDecorator@NEffectUpdateDecorator@@@@6B@
; File C:\Program Files\Microsoft Visual Studio\2022\Community\VC\Tools\MSVC\14.37.32822\include\vector

; 43   :     _CONSTEXPR20 _Vector_const_iterator(_Tptr _Parg, const _Container_base* _Pvector) noexcept : _Ptr(_Parg) {

  0000b	8b 5f 08	 mov	 ebx, DWORD PTR [edi+8]
  0000e	8b 77 04	 mov	 esi, DWORD PTR [edi+4]
; File C:\Program Files\Microsoft Visual Studio\2022\Community\VC\Tools\MSVC\14.37.32822\include\algorithm

; 245  :     for (; _UFirst != _ULast; ++_UFirst) {

  00011	3b f3		 cmp	 esi, ebx
  00013	74 11		 je	 SHORT $LN19@CDynamicPo
$LL20@CDynamicPo:
; File C:\Marty 5.5\Src-Client\Client\eterLib\Pool.h

; 224  : 			::operator delete(pkData);

  00015	ff 36		 push	 DWORD PTR [esi]
  00017	e8 00 00 00 00	 call	 ??3@YAXPAX@Z		; operator delete
; File C:\Program Files\Microsoft Visual Studio\2022\Community\VC\Tools\MSVC\14.37.32822\include\algorithm

; 245  :     for (; _UFirst != _ULast; ++_UFirst) {

  0001c	83 c6 04	 add	 esi, 4
; File C:\Marty 5.5\Src-Client\Client\eterLib\Pool.h

; 224  : 			::operator delete(pkData);

  0001f	83 c4 04	 add	 esp, 4
; File C:\Program Files\Microsoft Visual Studio\2022\Community\VC\Tools\MSVC\14.37.32822\include\algorithm

; 245  :     for (; _UFirst != _ULast; ++_UFirst) {

  00022	3b f3		 cmp	 esi, ebx
  00024	75 ef		 jne	 SHORT $LL20@CDynamicPo
$LN19@CDynamicPo:
; File C:\Program Files\Microsoft Visual Studio\2022\Community\VC\Tools\MSVC\14.37.32822\include\vector

; 1766 :         if (_Myfirst == _Mylast) { // already empty, nothing to do

  00026	8b 47 04	 mov	 eax, DWORD PTR [edi+4]
  00029	3b 47 08	 cmp	 eax, DWORD PTR [edi+8]
  0002c	74 03		 je	 SHORT $LN24@CDynamicPo

; 1767 :             // This is an optimization for debug mode: we can avoid taking the debug lock to invalidate iterators.
; 1768 :             // Note that when clearing an empty vector, this will preserve past-the-end iterators, which is allowed by
; 1769 :             // N4950 [sequence.reqmts]/54 "a.clear() [...] may invalidate the past-the-end iterator".
; 1770 :             return;
; 1771 :         }
; 1772 : 
; 1773 :         _My_data._Orphan_all();
; 1774 :         _Destroy_range(_Myfirst, _Mylast, _Getal());
; 1775 :         _ASAN_VECTOR_MODIFY(static_cast<difference_type>(_Myfirst - _Mylast)); // negative when destroying elements
; 1776 :         _Mylast = _Myfirst;

  0002e	89 47 08	 mov	 DWORD PTR [edi+8], eax
$LN24@CDynamicPo:

; 1766 :         if (_Myfirst == _Mylast) { // already empty, nothing to do

  00031	8b 47 10	 mov	 eax, DWORD PTR [edi+16]
  00034	3b 47 14	 cmp	 eax, DWORD PTR [edi+20]
  00037	74 03		 je	 SHORT $LN27@CDynamicPo

; 1767 :             // This is an optimization for debug mode: we can avoid taking the debug lock to invalidate iterators.
; 1768 :             // Note that when clearing an empty vector, this will preserve past-the-end iterators, which is allowed by
; 1769 :             // N4950 [sequence.reqmts]/54 "a.clear() [...] may invalidate the past-the-end iterator".
; 1770 :             return;
; 1771 :         }
; 1772 : 
; 1773 :         _My_data._Orphan_all();
; 1774 :         _Destroy_range(_Myfirst, _Mylast, _Getal());
; 1775 :         _ASAN_VECTOR_MODIFY(static_cast<difference_type>(_Myfirst - _Mylast)); // negative when destroying elements
; 1776 :         _Mylast = _Myfirst;

  00039	89 47 14	 mov	 DWORD PTR [edi+20], eax
$LN27@CDynamicPo:

; 2044 :         if (_Myfirst) { // destroy and deallocate old array

  0003c	85 c0		 test	 eax, eax
  0003e	74 41		 je	 SHORT $LN33@CDynamicPo

; 2045 :             _Destroy_range(_Myfirst, _Mylast, _Al);
; 2046 :             _ASAN_VECTOR_REMOVE;
; 2047 :             _Al.deallocate(_Myfirst, static_cast<size_type>(_Myend - _Myfirst));

  00040	8b 4f 18	 mov	 ecx, DWORD PTR [edi+24]
  00043	2b c8		 sub	 ecx, eax
; File C:\Program Files\Microsoft Visual Studio\2022\Community\VC\Tools\MSVC\14.37.32822\include\xmemory

; 969  :         _Deallocate<_New_alignof<_Ty>>(_Ptr, sizeof(_Ty) * _Count);

  00045	83 e1 fc	 and	 ecx, -4			; fffffffcH

; 261  :         if (_Bytes >= _Big_allocation_threshold) { // boost the alignment of big allocations to help autovectorization

  00048	81 f9 00 10 00
	00		 cmp	 ecx, 4096		; 00001000H
  0004e	72 12		 jb	 SHORT $LN49@CDynamicPo

; 160  :     const uintptr_t _Ptr_container   = _Ptr_user[-1];

  00050	8b 50 fc	 mov	 edx, DWORD PTR [eax-4]
  00053	83 c1 23	 add	 ecx, 35			; 00000023H

; 161  : 
; 162  :     // If the following asserts, it likely means that we are performing
; 163  :     // an aligned delete on memory coming from an unaligned allocation.
; 164  :     _STL_ASSERT(_Ptr_user[-2] == _Big_allocation_sentinel, "invalid argument");
; 165  : 
; 166  :     // Extra paranoia on aligned allocation/deallocation; ensure _Ptr_container is
; 167  :     // in range [_Min_back_shift, _Non_user_size]
; 168  : #ifdef _DEBUG
; 169  :     constexpr uintptr_t _Min_back_shift = 2 * sizeof(void*);
; 170  : #else // ^^^ _DEBUG / !_DEBUG vvv
; 171  :     constexpr uintptr_t _Min_back_shift = sizeof(void*);
; 172  : #endif // _DEBUG
; 173  :     const uintptr_t _Back_shift = reinterpret_cast<uintptr_t>(_Ptr) - _Ptr_container;

  00056	2b c2		 sub	 eax, edx

; 174  :     _STL_VERIFY(_Back_shift >= _Min_back_shift && _Back_shift <= _Non_user_size, "invalid argument");

  00058	83 c0 fc	 add	 eax, -4			; fffffffcH
  0005b	83 f8 1f	 cmp	 eax, 31			; 0000001fH
  0005e	77 6d		 ja	 SHORT $LN71@CDynamicPo

; 175  :     _Ptr = reinterpret_cast<void*>(_Ptr_container);

  00060	8b c2		 mov	 eax, edx
$LN49@CDynamicPo:

; 265  :         ::operator delete(_Ptr, _Bytes);

  00062	51		 push	 ecx
  00063	50		 push	 eax
  00064	e8 00 00 00 00	 call	 ??3@YAXPAXI@Z		; operator delete
; File C:\Program Files\Microsoft Visual Studio\2022\Community\VC\Tools\MSVC\14.37.32822\include\vector

; 2049 :             _Myfirst = nullptr;

  00069	c7 47 10 00 00
	00 00		 mov	 DWORD PTR [edi+16], 0
; File C:\Program Files\Microsoft Visual Studio\2022\Community\VC\Tools\MSVC\14.37.32822\include\xmemory

; 265  :         ::operator delete(_Ptr, _Bytes);

  00070	83 c4 08	 add	 esp, 8
; File C:\Program Files\Microsoft Visual Studio\2022\Community\VC\Tools\MSVC\14.37.32822\include\vector

; 2050 :             _Mylast  = nullptr;

  00073	c7 47 14 00 00
	00 00		 mov	 DWORD PTR [edi+20], 0

; 2051 :             _Myend   = nullptr;

  0007a	c7 47 18 00 00
	00 00		 mov	 DWORD PTR [edi+24], 0
$LN33@CDynamicPo:

; 2044 :         if (_Myfirst) { // destroy and deallocate old array

  00081	8b 47 04	 mov	 eax, DWORD PTR [edi+4]
  00084	85 c0		 test	 eax, eax
  00086	74 41		 je	 SHORT $LN58@CDynamicPo

; 2045 :             _Destroy_range(_Myfirst, _Mylast, _Al);
; 2046 :             _ASAN_VECTOR_REMOVE;
; 2047 :             _Al.deallocate(_Myfirst, static_cast<size_type>(_Myend - _Myfirst));

  00088	8b 4f 0c	 mov	 ecx, DWORD PTR [edi+12]
  0008b	2b c8		 sub	 ecx, eax
; File C:\Program Files\Microsoft Visual Studio\2022\Community\VC\Tools\MSVC\14.37.32822\include\xmemory

; 969  :         _Deallocate<_New_alignof<_Ty>>(_Ptr, sizeof(_Ty) * _Count);

  0008d	83 e1 fc	 and	 ecx, -4			; fffffffcH

; 261  :         if (_Bytes >= _Big_allocation_threshold) { // boost the alignment of big allocations to help autovectorization

  00090	81 f9 00 10 00
	00		 cmp	 ecx, 4096		; 00001000H
  00096	72 12		 jb	 SHORT $LN74@CDynamicPo

; 160  :     const uintptr_t _Ptr_container   = _Ptr_user[-1];

  00098	8b 50 fc	 mov	 edx, DWORD PTR [eax-4]
  0009b	83 c1 23	 add	 ecx, 35			; 00000023H

; 161  : 
; 162  :     // If the following asserts, it likely means that we are performing
; 163  :     // an aligned delete on memory coming from an unaligned allocation.
; 164  :     _STL_ASSERT(_Ptr_user[-2] == _Big_allocation_sentinel, "invalid argument");
; 165  : 
; 166  :     // Extra paranoia on aligned allocation/deallocation; ensure _Ptr_container is
; 167  :     // in range [_Min_back_shift, _Non_user_size]
; 168  : #ifdef _DEBUG
; 169  :     constexpr uintptr_t _Min_back_shift = 2 * sizeof(void*);
; 170  : #else // ^^^ _DEBUG / !_DEBUG vvv
; 171  :     constexpr uintptr_t _Min_back_shift = sizeof(void*);
; 172  : #endif // _DEBUG
; 173  :     const uintptr_t _Back_shift = reinterpret_cast<uintptr_t>(_Ptr) - _Ptr_container;

  0009e	2b c2		 sub	 eax, edx

; 174  :     _STL_VERIFY(_Back_shift >= _Min_back_shift && _Back_shift <= _Non_user_size, "invalid argument");

  000a0	83 c0 fc	 add	 eax, -4			; fffffffcH
  000a3	83 f8 1f	 cmp	 eax, 31			; 0000001fH
  000a6	77 25		 ja	 SHORT $LN71@CDynamicPo

; 175  :     _Ptr = reinterpret_cast<void*>(_Ptr_container);

  000a8	8b c2		 mov	 eax, edx
$LN74@CDynamicPo:

; 265  :         ::operator delete(_Ptr, _Bytes);

  000aa	51		 push	 ecx
  000ab	50		 push	 eax
  000ac	e8 00 00 00 00	 call	 ??3@YAXPAXI@Z		; operator delete
; File C:\Program Files\Microsoft Visual Studio\2022\Community\VC\Tools\MSVC\14.37.32822\include\vector

; 2049 :             _Myfirst = nullptr;

  000b1	c7 47 04 00 00
	00 00		 mov	 DWORD PTR [edi+4], 0
; File C:\Program Files\Microsoft Visual Studio\2022\Community\VC\Tools\MSVC\14.37.32822\include\xmemory

; 265  :         ::operator delete(_Ptr, _Bytes);

  000b8	83 c4 08	 add	 esp, 8
; File C:\Program Files\Microsoft Visual Studio\2022\Community\VC\Tools\MSVC\14.37.32822\include\vector

; 2050 :             _Mylast  = nullptr;

  000bb	c7 47 08 00 00
	00 00		 mov	 DWORD PTR [edi+8], 0

; 2051 :             _Myend   = nullptr;

  000c2	c7 47 0c 00 00
	00 00		 mov	 DWORD PTR [edi+12], 0
$LN58@CDynamicPo:
  000c9	5f		 pop	 edi
; File C:\Marty 5.5\Src-Client\Client\eterLib\Pool.h

; 142  : 		}

  000ca	5e		 pop	 esi
  000cb	5b		 pop	 ebx
  000cc	c3		 ret	 0
$LN71@CDynamicPo:
; File C:\Program Files\Microsoft Visual Studio\2022\Community\VC\Tools\MSVC\14.37.32822\include\xmemory

; 174  :     _STL_VERIFY(_Back_shift >= _Min_back_shift && _Back_shift <= _Non_user_size, "invalid argument");

  000cd	e8 00 00 00 00	 call	 __invalid_parameter_noinfo_noreturn
$LN92@CDynamicPo:
  000d2	cc		 int	 3
??1?$CDynamicPoolEx@VCTextureAnimationRandomDecorator@NEffectUpdateDecorator@@@@UAE@XZ ENDP ; CDynamicPoolEx<NEffectUpdateDecorator::CTextureAnimationRandomDecorator>::~CDynamicPoolEx<NEffectUpdateDecorator::CTextureAnimationRandomDecorator>
_TEXT	ENDS
; Function compile flags: /Ogtp
;	COMDAT ??_G?$CDynamicPoolEx@VCAirResistanceDecorator@NEffectUpdateDecorator@@@@UAEPAXI@Z
_TEXT	SEGMENT
___flags$ = 8						; size = 4
??_G?$CDynamicPoolEx@VCAirResistanceDecorator@NEffectUpdateDecorator@@@@UAEPAXI@Z PROC ; CDynamicPoolEx<NEffectUpdateDecorator::CAirResistanceDecorator>::`scalar deleting destructor', COMDAT
; _this$ = ecx
  00000	55		 push	 ebp
  00001	8b ec		 mov	 ebp, esp
  00003	56		 push	 esi
  00004	8b f1		 mov	 esi, ecx
  00006	e8 00 00 00 00	 call	 ??1?$CDynamicPoolEx@VCAirResistanceDecorator@NEffectUpdateDecorator@@@@UAE@XZ ; CDynamicPoolEx<NEffectUpdateDecorator::CAirResistanceDecorator>::~CDynamicPoolEx<NEffectUpdateDecorator::CAirResistanceDecorator>
  0000b	f6 45 08 01	 test	 BYTE PTR ___flags$[ebp], 1
  0000f	74 0b		 je	 SHORT $LN4@scalar
  00011	6a 24		 push	 36			; 00000024H
  00013	56		 push	 esi
  00014	e8 00 00 00 00	 call	 ??3@YAXPAXI@Z		; operator delete
  00019	83 c4 08	 add	 esp, 8
$LN4@scalar:
  0001c	8b c6		 mov	 eax, esi
  0001e	5e		 pop	 esi
  0001f	5d		 pop	 ebp
  00020	c2 04 00	 ret	 4
??_G?$CDynamicPoolEx@VCAirResistanceDecorator@NEffectUpdateDecorator@@@@UAEPAXI@Z ENDP ; CDynamicPoolEx<NEffectUpdateDecorator::CAirResistanceDecorator>::`scalar deleting destructor'
_TEXT	ENDS
; Function compile flags: /Ogtp
; File C:\Marty 5.5\Src-Client\Client\eterLib\Pool.h
;	COMDAT ?Delete@?$CDynamicPoolEx@VCAirResistanceDecorator@NEffectUpdateDecorator@@@@KAXPAVCAirResistanceDecorator@NEffectUpdateDecorator@@@Z
_TEXT	SEGMENT
_pkData$ = 8						; size = 4
?Delete@?$CDynamicPoolEx@VCAirResistanceDecorator@NEffectUpdateDecorator@@@@KAXPAVCAirResistanceDecorator@NEffectUpdateDecorator@@@Z PROC ; CDynamicPoolEx<NEffectUpdateDecorator::CAirResistanceDecorator>::Delete, COMDAT

; 224  : 			::operator delete(pkData);

  00000	e9 00 00 00 00	 jmp	 ??3@YAXPAX@Z		; operator delete
?Delete@?$CDynamicPoolEx@VCAirResistanceDecorator@NEffectUpdateDecorator@@@@KAXPAVCAirResistanceDecorator@NEffectUpdateDecorator@@@Z ENDP ; CDynamicPoolEx<NEffectUpdateDecorator::CAirResistanceDecorator>::Delete
_TEXT	ENDS
; Function compile flags: /Ogtp
; File C:\Marty 5.5\Src-Client\Client\eterLib\Pool.h
; File C:\Program Files\Microsoft Visual Studio\2022\Community\VC\Tools\MSVC\14.37.32822\include\vector
; File C:\Program Files\Microsoft Visual Studio\2022\Community\VC\Tools\MSVC\14.37.32822\include\algorithm
; File C:\Marty 5.5\Src-Client\Client\eterLib\Pool.h
; File C:\Program Files\Microsoft Visual Studio\2022\Community\VC\Tools\MSVC\14.37.32822\include\algorithm
; File C:\Marty 5.5\Src-Client\Client\eterLib\Pool.h
; File C:\Program Files\Microsoft Visual Studio\2022\Community\VC\Tools\MSVC\14.37.32822\include\algorithm
; File C:\Program Files\Microsoft Visual Studio\2022\Community\VC\Tools\MSVC\14.37.32822\include\vector
; File C:\Program Files\Microsoft Visual Studio\2022\Community\VC\Tools\MSVC\14.37.32822\include\xmemory
; File C:\Program Files\Microsoft Visual Studio\2022\Community\VC\Tools\MSVC\14.37.32822\include\vector
; File C:\Program Files\Microsoft Visual Studio\2022\Community\VC\Tools\MSVC\14.37.32822\include\xmemory
; File C:\Program Files\Microsoft Visual Studio\2022\Community\VC\Tools\MSVC\14.37.32822\include\vector
; File C:\Program Files\Microsoft Visual Studio\2022\Community\VC\Tools\MSVC\14.37.32822\include\xmemory
; File C:\Program Files\Microsoft Visual Studio\2022\Community\VC\Tools\MSVC\14.37.32822\include\vector
; File C:\Program Files\Microsoft Visual Studio\2022\Community\VC\Tools\MSVC\14.37.32822\include\xmemory
; File C:\Program Files\Microsoft Visual Studio\2022\Community\VC\Tools\MSVC\14.37.32822\include\vector
; File C:\Marty 5.5\Src-Client\Client\eterLib\Pool.h
; File C:\Program Files\Microsoft Visual Studio\2022\Community\VC\Tools\MSVC\14.37.32822\include\xmemory
; File C:\Marty 5.5\Src-Client\Client\eterLib\Pool.h
;	COMDAT ??1?$CDynamicPoolEx@VCAirResistanceDecorator@NEffectUpdateDecorator@@@@UAE@XZ
_TEXT	SEGMENT
??1?$CDynamicPoolEx@VCAirResistanceDecorator@NEffectUpdateDecorator@@@@UAE@XZ PROC ; CDynamicPoolEx<NEffectUpdateDecorator::CAirResistanceDecorator>::~CDynamicPoolEx<NEffectUpdateDecorator::CAirResistanceDecorator>, COMDAT
; _this$ = ecx

; 132  : 		{

  00000	53		 push	 ebx
  00001	56		 push	 esi
  00002	57		 push	 edi
  00003	8b f9		 mov	 edi, ecx
  00005	c7 07 00 00 00
	00		 mov	 DWORD PTR [edi], OFFSET ??_7?$CDynamicPoolEx@VCAirResistanceDecorator@NEffectUpdateDecorator@@@@6B@
; File C:\Program Files\Microsoft Visual Studio\2022\Community\VC\Tools\MSVC\14.37.32822\include\vector

; 43   :     _CONSTEXPR20 _Vector_const_iterator(_Tptr _Parg, const _Container_base* _Pvector) noexcept : _Ptr(_Parg) {

  0000b	8b 5f 08	 mov	 ebx, DWORD PTR [edi+8]
  0000e	8b 77 04	 mov	 esi, DWORD PTR [edi+4]
; File C:\Program Files\Microsoft Visual Studio\2022\Community\VC\Tools\MSVC\14.37.32822\include\algorithm

; 245  :     for (; _UFirst != _ULast; ++_UFirst) {

  00011	3b f3		 cmp	 esi, ebx
  00013	74 11		 je	 SHORT $LN19@CDynamicPo
$LL20@CDynamicPo:
; File C:\Marty 5.5\Src-Client\Client\eterLib\Pool.h

; 224  : 			::operator delete(pkData);

  00015	ff 36		 push	 DWORD PTR [esi]
  00017	e8 00 00 00 00	 call	 ??3@YAXPAX@Z		; operator delete
; File C:\Program Files\Microsoft Visual Studio\2022\Community\VC\Tools\MSVC\14.37.32822\include\algorithm

; 245  :     for (; _UFirst != _ULast; ++_UFirst) {

  0001c	83 c6 04	 add	 esi, 4
; File C:\Marty 5.5\Src-Client\Client\eterLib\Pool.h

; 224  : 			::operator delete(pkData);

  0001f	83 c4 04	 add	 esp, 4
; File C:\Program Files\Microsoft Visual Studio\2022\Community\VC\Tools\MSVC\14.37.32822\include\algorithm

; 245  :     for (; _UFirst != _ULast; ++_UFirst) {

  00022	3b f3		 cmp	 esi, ebx
  00024	75 ef		 jne	 SHORT $LL20@CDynamicPo
$LN19@CDynamicPo:
; File C:\Program Files\Microsoft Visual Studio\2022\Community\VC\Tools\MSVC\14.37.32822\include\vector

; 1766 :         if (_Myfirst == _Mylast) { // already empty, nothing to do

  00026	8b 47 04	 mov	 eax, DWORD PTR [edi+4]
  00029	3b 47 08	 cmp	 eax, DWORD PTR [edi+8]
  0002c	74 03		 je	 SHORT $LN24@CDynamicPo

; 1767 :             // This is an optimization for debug mode: we can avoid taking the debug lock to invalidate iterators.
; 1768 :             // Note that when clearing an empty vector, this will preserve past-the-end iterators, which is allowed by
; 1769 :             // N4950 [sequence.reqmts]/54 "a.clear() [...] may invalidate the past-the-end iterator".
; 1770 :             return;
; 1771 :         }
; 1772 : 
; 1773 :         _My_data._Orphan_all();
; 1774 :         _Destroy_range(_Myfirst, _Mylast, _Getal());
; 1775 :         _ASAN_VECTOR_MODIFY(static_cast<difference_type>(_Myfirst - _Mylast)); // negative when destroying elements
; 1776 :         _Mylast = _Myfirst;

  0002e	89 47 08	 mov	 DWORD PTR [edi+8], eax
$LN24@CDynamicPo:

; 1766 :         if (_Myfirst == _Mylast) { // already empty, nothing to do

  00031	8b 47 10	 mov	 eax, DWORD PTR [edi+16]
  00034	3b 47 14	 cmp	 eax, DWORD PTR [edi+20]
  00037	74 03		 je	 SHORT $LN27@CDynamicPo

; 1767 :             // This is an optimization for debug mode: we can avoid taking the debug lock to invalidate iterators.
; 1768 :             // Note that when clearing an empty vector, this will preserve past-the-end iterators, which is allowed by
; 1769 :             // N4950 [sequence.reqmts]/54 "a.clear() [...] may invalidate the past-the-end iterator".
; 1770 :             return;
; 1771 :         }
; 1772 : 
; 1773 :         _My_data._Orphan_all();
; 1774 :         _Destroy_range(_Myfirst, _Mylast, _Getal());
; 1775 :         _ASAN_VECTOR_MODIFY(static_cast<difference_type>(_Myfirst - _Mylast)); // negative when destroying elements
; 1776 :         _Mylast = _Myfirst;

  00039	89 47 14	 mov	 DWORD PTR [edi+20], eax
$LN27@CDynamicPo:

; 2044 :         if (_Myfirst) { // destroy and deallocate old array

  0003c	85 c0		 test	 eax, eax
  0003e	74 41		 je	 SHORT $LN33@CDynamicPo

; 2045 :             _Destroy_range(_Myfirst, _Mylast, _Al);
; 2046 :             _ASAN_VECTOR_REMOVE;
; 2047 :             _Al.deallocate(_Myfirst, static_cast<size_type>(_Myend - _Myfirst));

  00040	8b 4f 18	 mov	 ecx, DWORD PTR [edi+24]
  00043	2b c8		 sub	 ecx, eax
; File C:\Program Files\Microsoft Visual Studio\2022\Community\VC\Tools\MSVC\14.37.32822\include\xmemory

; 969  :         _Deallocate<_New_alignof<_Ty>>(_Ptr, sizeof(_Ty) * _Count);

  00045	83 e1 fc	 and	 ecx, -4			; fffffffcH

; 261  :         if (_Bytes >= _Big_allocation_threshold) { // boost the alignment of big allocations to help autovectorization

  00048	81 f9 00 10 00
	00		 cmp	 ecx, 4096		; 00001000H
  0004e	72 12		 jb	 SHORT $LN49@CDynamicPo

; 160  :     const uintptr_t _Ptr_container   = _Ptr_user[-1];

  00050	8b 50 fc	 mov	 edx, DWORD PTR [eax-4]
  00053	83 c1 23	 add	 ecx, 35			; 00000023H

; 161  : 
; 162  :     // If the following asserts, it likely means that we are performing
; 163  :     // an aligned delete on memory coming from an unaligned allocation.
; 164  :     _STL_ASSERT(_Ptr_user[-2] == _Big_allocation_sentinel, "invalid argument");
; 165  : 
; 166  :     // Extra paranoia on aligned allocation/deallocation; ensure _Ptr_container is
; 167  :     // in range [_Min_back_shift, _Non_user_size]
; 168  : #ifdef _DEBUG
; 169  :     constexpr uintptr_t _Min_back_shift = 2 * sizeof(void*);
; 170  : #else // ^^^ _DEBUG / !_DEBUG vvv
; 171  :     constexpr uintptr_t _Min_back_shift = sizeof(void*);
; 172  : #endif // _DEBUG
; 173  :     const uintptr_t _Back_shift = reinterpret_cast<uintptr_t>(_Ptr) - _Ptr_container;

  00056	2b c2		 sub	 eax, edx

; 174  :     _STL_VERIFY(_Back_shift >= _Min_back_shift && _Back_shift <= _Non_user_size, "invalid argument");

  00058	83 c0 fc	 add	 eax, -4			; fffffffcH
  0005b	83 f8 1f	 cmp	 eax, 31			; 0000001fH
  0005e	77 6d		 ja	 SHORT $LN71@CDynamicPo

; 175  :     _Ptr = reinterpret_cast<void*>(_Ptr_container);

  00060	8b c2		 mov	 eax, edx
$LN49@CDynamicPo:

; 265  :         ::operator delete(_Ptr, _Bytes);

  00062	51		 push	 ecx
  00063	50		 push	 eax
  00064	e8 00 00 00 00	 call	 ??3@YAXPAXI@Z		; operator delete
; File C:\Program Files\Microsoft Visual Studio\2022\Community\VC\Tools\MSVC\14.37.32822\include\vector

; 2049 :             _Myfirst = nullptr;

  00069	c7 47 10 00 00
	00 00		 mov	 DWORD PTR [edi+16], 0
; File C:\Program Files\Microsoft Visual Studio\2022\Community\VC\Tools\MSVC\14.37.32822\include\xmemory

; 265  :         ::operator delete(_Ptr, _Bytes);

  00070	83 c4 08	 add	 esp, 8
; File C:\Program Files\Microsoft Visual Studio\2022\Community\VC\Tools\MSVC\14.37.32822\include\vector

; 2050 :             _Mylast  = nullptr;

  00073	c7 47 14 00 00
	00 00		 mov	 DWORD PTR [edi+20], 0

; 2051 :             _Myend   = nullptr;

  0007a	c7 47 18 00 00
	00 00		 mov	 DWORD PTR [edi+24], 0
$LN33@CDynamicPo:

; 2044 :         if (_Myfirst) { // destroy and deallocate old array

  00081	8b 47 04	 mov	 eax, DWORD PTR [edi+4]
  00084	85 c0		 test	 eax, eax
  00086	74 41		 je	 SHORT $LN58@CDynamicPo

; 2045 :             _Destroy_range(_Myfirst, _Mylast, _Al);
; 2046 :             _ASAN_VECTOR_REMOVE;
; 2047 :             _Al.deallocate(_Myfirst, static_cast<size_type>(_Myend - _Myfirst));

  00088	8b 4f 0c	 mov	 ecx, DWORD PTR [edi+12]
  0008b	2b c8		 sub	 ecx, eax
; File C:\Program Files\Microsoft Visual Studio\2022\Community\VC\Tools\MSVC\14.37.32822\include\xmemory

; 969  :         _Deallocate<_New_alignof<_Ty>>(_Ptr, sizeof(_Ty) * _Count);

  0008d	83 e1 fc	 and	 ecx, -4			; fffffffcH

; 261  :         if (_Bytes >= _Big_allocation_threshold) { // boost the alignment of big allocations to help autovectorization

  00090	81 f9 00 10 00
	00		 cmp	 ecx, 4096		; 00001000H
  00096	72 12		 jb	 SHORT $LN74@CDynamicPo

; 160  :     const uintptr_t _Ptr_container   = _Ptr_user[-1];

  00098	8b 50 fc	 mov	 edx, DWORD PTR [eax-4]
  0009b	83 c1 23	 add	 ecx, 35			; 00000023H

; 161  : 
; 162  :     // If the following asserts, it likely means that we are performing
; 163  :     // an aligned delete on memory coming from an unaligned allocation.
; 164  :     _STL_ASSERT(_Ptr_user[-2] == _Big_allocation_sentinel, "invalid argument");
; 165  : 
; 166  :     // Extra paranoia on aligned allocation/deallocation; ensure _Ptr_container is
; 167  :     // in range [_Min_back_shift, _Non_user_size]
; 168  : #ifdef _DEBUG
; 169  :     constexpr uintptr_t _Min_back_shift = 2 * sizeof(void*);
; 170  : #else // ^^^ _DEBUG / !_DEBUG vvv
; 171  :     constexpr uintptr_t _Min_back_shift = sizeof(void*);
; 172  : #endif // _DEBUG
; 173  :     const uintptr_t _Back_shift = reinterpret_cast<uintptr_t>(_Ptr) - _Ptr_container;

  0009e	2b c2		 sub	 eax, edx

; 174  :     _STL_VERIFY(_Back_shift >= _Min_back_shift && _Back_shift <= _Non_user_size, "invalid argument");

  000a0	83 c0 fc	 add	 eax, -4			; fffffffcH
  000a3	83 f8 1f	 cmp	 eax, 31			; 0000001fH
  000a6	77 25		 ja	 SHORT $LN71@CDynamicPo

; 175  :     _Ptr = reinterpret_cast<void*>(_Ptr_container);

  000a8	8b c2		 mov	 eax, edx
$LN74@CDynamicPo:

; 265  :         ::operator delete(_Ptr, _Bytes);

  000aa	51		 push	 ecx
  000ab	50		 push	 eax
  000ac	e8 00 00 00 00	 call	 ??3@YAXPAXI@Z		; operator delete
; File C:\Program Files\Microsoft Visual Studio\2022\Community\VC\Tools\MSVC\14.37.32822\include\vector

; 2049 :             _Myfirst = nullptr;

  000b1	c7 47 04 00 00
	00 00		 mov	 DWORD PTR [edi+4], 0
; File C:\Program Files\Microsoft Visual Studio\2022\Community\VC\Tools\MSVC\14.37.32822\include\xmemory

; 265  :         ::operator delete(_Ptr, _Bytes);

  000b8	83 c4 08	 add	 esp, 8
; File C:\Program Files\Microsoft Visual Studio\2022\Community\VC\Tools\MSVC\14.37.32822\include\vector

; 2050 :             _Mylast  = nullptr;

  000bb	c7 47 08 00 00
	00 00		 mov	 DWORD PTR [edi+8], 0

; 2051 :             _Myend   = nullptr;

  000c2	c7 47 0c 00 00
	00 00		 mov	 DWORD PTR [edi+12], 0
$LN58@CDynamicPo:
  000c9	5f		 pop	 edi
; File C:\Marty 5.5\Src-Client\Client\eterLib\Pool.h

; 142  : 		}

  000ca	5e		 pop	 esi
  000cb	5b		 pop	 ebx
  000cc	c3		 ret	 0
$LN71@CDynamicPo:
; File C:\Program Files\Microsoft Visual Studio\2022\Community\VC\Tools\MSVC\14.37.32822\include\xmemory

; 174  :     _STL_VERIFY(_Back_shift >= _Min_back_shift && _Back_shift <= _Non_user_size, "invalid argument");

  000cd	e8 00 00 00 00	 call	 __invalid_parameter_noinfo_noreturn
$LN92@CDynamicPo:
  000d2	cc		 int	 3
??1?$CDynamicPoolEx@VCAirResistanceDecorator@NEffectUpdateDecorator@@@@UAE@XZ ENDP ; CDynamicPoolEx<NEffectUpdateDecorator::CAirResistanceDecorator>::~CDynamicPoolEx<NEffectUpdateDecorator::CAirResistanceDecorator>
_TEXT	ENDS
; Function compile flags: /Ogtp
;	COMDAT ??_G?$CDynamicPoolEx@VCGravityDecorator@NEffectUpdateDecorator@@@@UAEPAXI@Z
_TEXT	SEGMENT
___flags$ = 8						; size = 4
??_G?$CDynamicPoolEx@VCGravityDecorator@NEffectUpdateDecorator@@@@UAEPAXI@Z PROC ; CDynamicPoolEx<NEffectUpdateDecorator::CGravityDecorator>::`scalar deleting destructor', COMDAT
; _this$ = ecx
  00000	55		 push	 ebp
  00001	8b ec		 mov	 ebp, esp
  00003	56		 push	 esi
  00004	8b f1		 mov	 esi, ecx
  00006	e8 00 00 00 00	 call	 ??1?$CDynamicPoolEx@VCGravityDecorator@NEffectUpdateDecorator@@@@UAE@XZ ; CDynamicPoolEx<NEffectUpdateDecorator::CGravityDecorator>::~CDynamicPoolEx<NEffectUpdateDecorator::CGravityDecorator>
  0000b	f6 45 08 01	 test	 BYTE PTR ___flags$[ebp], 1
  0000f	74 0b		 je	 SHORT $LN4@scalar
  00011	6a 24		 push	 36			; 00000024H
  00013	56		 push	 esi
  00014	e8 00 00 00 00	 call	 ??3@YAXPAXI@Z		; operator delete
  00019	83 c4 08	 add	 esp, 8
$LN4@scalar:
  0001c	8b c6		 mov	 eax, esi
  0001e	5e		 pop	 esi
  0001f	5d		 pop	 ebp
  00020	c2 04 00	 ret	 4
??_G?$CDynamicPoolEx@VCGravityDecorator@NEffectUpdateDecorator@@@@UAEPAXI@Z ENDP ; CDynamicPoolEx<NEffectUpdateDecorator::CGravityDecorator>::`scalar deleting destructor'
_TEXT	ENDS
; Function compile flags: /Ogtp
; File C:\Marty 5.5\Src-Client\Client\eterLib\Pool.h
;	COMDAT ?Delete@?$CDynamicPoolEx@VCGravityDecorator@NEffectUpdateDecorator@@@@KAXPAVCGravityDecorator@NEffectUpdateDecorator@@@Z
_TEXT	SEGMENT
_pkData$ = 8						; size = 4
?Delete@?$CDynamicPoolEx@VCGravityDecorator@NEffectUpdateDecorator@@@@KAXPAVCGravityDecorator@NEffectUpdateDecorator@@@Z PROC ; CDynamicPoolEx<NEffectUpdateDecorator::CGravityDecorator>::Delete, COMDAT

; 224  : 			::operator delete(pkData);

  00000	e9 00 00 00 00	 jmp	 ??3@YAXPAX@Z		; operator delete
?Delete@?$CDynamicPoolEx@VCGravityDecorator@NEffectUpdateDecorator@@@@KAXPAVCGravityDecorator@NEffectUpdateDecorator@@@Z ENDP ; CDynamicPoolEx<NEffectUpdateDecorator::CGravityDecorator>::Delete
_TEXT	ENDS
; Function compile flags: /Ogtp
; File C:\Marty 5.5\Src-Client\Client\eterLib\Pool.h
; File C:\Program Files\Microsoft Visual Studio\2022\Community\VC\Tools\MSVC\14.37.32822\include\vector
; File C:\Program Files\Microsoft Visual Studio\2022\Community\VC\Tools\MSVC\14.37.32822\include\algorithm
; File C:\Marty 5.5\Src-Client\Client\eterLib\Pool.h
; File C:\Program Files\Microsoft Visual Studio\2022\Community\VC\Tools\MSVC\14.37.32822\include\algorithm
; File C:\Marty 5.5\Src-Client\Client\eterLib\Pool.h
; File C:\Program Files\Microsoft Visual Studio\2022\Community\VC\Tools\MSVC\14.37.32822\include\algorithm
; File C:\Program Files\Microsoft Visual Studio\2022\Community\VC\Tools\MSVC\14.37.32822\include\vector
; File C:\Program Files\Microsoft Visual Studio\2022\Community\VC\Tools\MSVC\14.37.32822\include\xmemory
; File C:\Program Files\Microsoft Visual Studio\2022\Community\VC\Tools\MSVC\14.37.32822\include\vector
; File C:\Program Files\Microsoft Visual Studio\2022\Community\VC\Tools\MSVC\14.37.32822\include\xmemory
; File C:\Program Files\Microsoft Visual Studio\2022\Community\VC\Tools\MSVC\14.37.32822\include\vector
; File C:\Program Files\Microsoft Visual Studio\2022\Community\VC\Tools\MSVC\14.37.32822\include\xmemory
; File C:\Program Files\Microsoft Visual Studio\2022\Community\VC\Tools\MSVC\14.37.32822\include\vector
; File C:\Program Files\Microsoft Visual Studio\2022\Community\VC\Tools\MSVC\14.37.32822\include\xmemory
; File C:\Program Files\Microsoft Visual Studio\2022\Community\VC\Tools\MSVC\14.37.32822\include\vector
; File C:\Marty 5.5\Src-Client\Client\eterLib\Pool.h
; File C:\Program Files\Microsoft Visual Studio\2022\Community\VC\Tools\MSVC\14.37.32822\include\xmemory
; File C:\Marty 5.5\Src-Client\Client\eterLib\Pool.h
;	COMDAT ??1?$CDynamicPoolEx@VCGravityDecorator@NEffectUpdateDecorator@@@@UAE@XZ
_TEXT	SEGMENT
??1?$CDynamicPoolEx@VCGravityDecorator@NEffectUpdateDecorator@@@@UAE@XZ PROC ; CDynamicPoolEx<NEffectUpdateDecorator::CGravityDecorator>::~CDynamicPoolEx<NEffectUpdateDecorator::CGravityDecorator>, COMDAT
; _this$ = ecx

; 132  : 		{

  00000	53		 push	 ebx
  00001	56		 push	 esi
  00002	57		 push	 edi
  00003	8b f9		 mov	 edi, ecx
  00005	c7 07 00 00 00
	00		 mov	 DWORD PTR [edi], OFFSET ??_7?$CDynamicPoolEx@VCGravityDecorator@NEffectUpdateDecorator@@@@6B@
; File C:\Program Files\Microsoft Visual Studio\2022\Community\VC\Tools\MSVC\14.37.32822\include\vector

; 43   :     _CONSTEXPR20 _Vector_const_iterator(_Tptr _Parg, const _Container_base* _Pvector) noexcept : _Ptr(_Parg) {

  0000b	8b 5f 08	 mov	 ebx, DWORD PTR [edi+8]
  0000e	8b 77 04	 mov	 esi, DWORD PTR [edi+4]
; File C:\Program Files\Microsoft Visual Studio\2022\Community\VC\Tools\MSVC\14.37.32822\include\algorithm

; 245  :     for (; _UFirst != _ULast; ++_UFirst) {

  00011	3b f3		 cmp	 esi, ebx
  00013	74 11		 je	 SHORT $LN19@CDynamicPo
$LL20@CDynamicPo:
; File C:\Marty 5.5\Src-Client\Client\eterLib\Pool.h

; 224  : 			::operator delete(pkData);

  00015	ff 36		 push	 DWORD PTR [esi]
  00017	e8 00 00 00 00	 call	 ??3@YAXPAX@Z		; operator delete
; File C:\Program Files\Microsoft Visual Studio\2022\Community\VC\Tools\MSVC\14.37.32822\include\algorithm

; 245  :     for (; _UFirst != _ULast; ++_UFirst) {

  0001c	83 c6 04	 add	 esi, 4
; File C:\Marty 5.5\Src-Client\Client\eterLib\Pool.h

; 224  : 			::operator delete(pkData);

  0001f	83 c4 04	 add	 esp, 4
; File C:\Program Files\Microsoft Visual Studio\2022\Community\VC\Tools\MSVC\14.37.32822\include\algorithm

; 245  :     for (; _UFirst != _ULast; ++_UFirst) {

  00022	3b f3		 cmp	 esi, ebx
  00024	75 ef		 jne	 SHORT $LL20@CDynamicPo
$LN19@CDynamicPo:
; File C:\Program Files\Microsoft Visual Studio\2022\Community\VC\Tools\MSVC\14.37.32822\include\vector

; 1766 :         if (_Myfirst == _Mylast) { // already empty, nothing to do

  00026	8b 47 04	 mov	 eax, DWORD PTR [edi+4]
  00029	3b 47 08	 cmp	 eax, DWORD PTR [edi+8]
  0002c	74 03		 je	 SHORT $LN24@CDynamicPo

; 1767 :             // This is an optimization for debug mode: we can avoid taking the debug lock to invalidate iterators.
; 1768 :             // Note that when clearing an empty vector, this will preserve past-the-end iterators, which is allowed by
; 1769 :             // N4950 [sequence.reqmts]/54 "a.clear() [...] may invalidate the past-the-end iterator".
; 1770 :             return;
; 1771 :         }
; 1772 : 
; 1773 :         _My_data._Orphan_all();
; 1774 :         _Destroy_range(_Myfirst, _Mylast, _Getal());
; 1775 :         _ASAN_VECTOR_MODIFY(static_cast<difference_type>(_Myfirst - _Mylast)); // negative when destroying elements
; 1776 :         _Mylast = _Myfirst;

  0002e	89 47 08	 mov	 DWORD PTR [edi+8], eax
$LN24@CDynamicPo:

; 1766 :         if (_Myfirst == _Mylast) { // already empty, nothing to do

  00031	8b 47 10	 mov	 eax, DWORD PTR [edi+16]
  00034	3b 47 14	 cmp	 eax, DWORD PTR [edi+20]
  00037	74 03		 je	 SHORT $LN27@CDynamicPo

; 1767 :             // This is an optimization for debug mode: we can avoid taking the debug lock to invalidate iterators.
; 1768 :             // Note that when clearing an empty vector, this will preserve past-the-end iterators, which is allowed by
; 1769 :             // N4950 [sequence.reqmts]/54 "a.clear() [...] may invalidate the past-the-end iterator".
; 1770 :             return;
; 1771 :         }
; 1772 : 
; 1773 :         _My_data._Orphan_all();
; 1774 :         _Destroy_range(_Myfirst, _Mylast, _Getal());
; 1775 :         _ASAN_VECTOR_MODIFY(static_cast<difference_type>(_Myfirst - _Mylast)); // negative when destroying elements
; 1776 :         _Mylast = _Myfirst;

  00039	89 47 14	 mov	 DWORD PTR [edi+20], eax
$LN27@CDynamicPo:

; 2044 :         if (_Myfirst) { // destroy and deallocate old array

  0003c	85 c0		 test	 eax, eax
  0003e	74 41		 je	 SHORT $LN33@CDynamicPo

; 2045 :             _Destroy_range(_Myfirst, _Mylast, _Al);
; 2046 :             _ASAN_VECTOR_REMOVE;
; 2047 :             _Al.deallocate(_Myfirst, static_cast<size_type>(_Myend - _Myfirst));

  00040	8b 4f 18	 mov	 ecx, DWORD PTR [edi+24]
  00043	2b c8		 sub	 ecx, eax
; File C:\Program Files\Microsoft Visual Studio\2022\Community\VC\Tools\MSVC\14.37.32822\include\xmemory

; 969  :         _Deallocate<_New_alignof<_Ty>>(_Ptr, sizeof(_Ty) * _Count);

  00045	83 e1 fc	 and	 ecx, -4			; fffffffcH

; 261  :         if (_Bytes >= _Big_allocation_threshold) { // boost the alignment of big allocations to help autovectorization

  00048	81 f9 00 10 00
	00		 cmp	 ecx, 4096		; 00001000H
  0004e	72 12		 jb	 SHORT $LN49@CDynamicPo

; 160  :     const uintptr_t _Ptr_container   = _Ptr_user[-1];

  00050	8b 50 fc	 mov	 edx, DWORD PTR [eax-4]
  00053	83 c1 23	 add	 ecx, 35			; 00000023H

; 161  : 
; 162  :     // If the following asserts, it likely means that we are performing
; 163  :     // an aligned delete on memory coming from an unaligned allocation.
; 164  :     _STL_ASSERT(_Ptr_user[-2] == _Big_allocation_sentinel, "invalid argument");
; 165  : 
; 166  :     // Extra paranoia on aligned allocation/deallocation; ensure _Ptr_container is
; 167  :     // in range [_Min_back_shift, _Non_user_size]
; 168  : #ifdef _DEBUG
; 169  :     constexpr uintptr_t _Min_back_shift = 2 * sizeof(void*);
; 170  : #else // ^^^ _DEBUG / !_DEBUG vvv
; 171  :     constexpr uintptr_t _Min_back_shift = sizeof(void*);
; 172  : #endif // _DEBUG
; 173  :     const uintptr_t _Back_shift = reinterpret_cast<uintptr_t>(_Ptr) - _Ptr_container;

  00056	2b c2		 sub	 eax, edx

; 174  :     _STL_VERIFY(_Back_shift >= _Min_back_shift && _Back_shift <= _Non_user_size, "invalid argument");

  00058	83 c0 fc	 add	 eax, -4			; fffffffcH
  0005b	83 f8 1f	 cmp	 eax, 31			; 0000001fH
  0005e	77 6d		 ja	 SHORT $LN71@CDynamicPo

; 175  :     _Ptr = reinterpret_cast<void*>(_Ptr_container);

  00060	8b c2		 mov	 eax, edx
$LN49@CDynamicPo:

; 265  :         ::operator delete(_Ptr, _Bytes);

  00062	51		 push	 ecx
  00063	50		 push	 eax
  00064	e8 00 00 00 00	 call	 ??3@YAXPAXI@Z		; operator delete
; File C:\Program Files\Microsoft Visual Studio\2022\Community\VC\Tools\MSVC\14.37.32822\include\vector

; 2049 :             _Myfirst = nullptr;

  00069	c7 47 10 00 00
	00 00		 mov	 DWORD PTR [edi+16], 0
; File C:\Program Files\Microsoft Visual Studio\2022\Community\VC\Tools\MSVC\14.37.32822\include\xmemory

; 265  :         ::operator delete(_Ptr, _Bytes);

  00070	83 c4 08	 add	 esp, 8
; File C:\Program Files\Microsoft Visual Studio\2022\Community\VC\Tools\MSVC\14.37.32822\include\vector

; 2050 :             _Mylast  = nullptr;

  00073	c7 47 14 00 00
	00 00		 mov	 DWORD PTR [edi+20], 0

; 2051 :             _Myend   = nullptr;

  0007a	c7 47 18 00 00
	00 00		 mov	 DWORD PTR [edi+24], 0
$LN33@CDynamicPo:

; 2044 :         if (_Myfirst) { // destroy and deallocate old array

  00081	8b 47 04	 mov	 eax, DWORD PTR [edi+4]
  00084	85 c0		 test	 eax, eax
  00086	74 41		 je	 SHORT $LN58@CDynamicPo

; 2045 :             _Destroy_range(_Myfirst, _Mylast, _Al);
; 2046 :             _ASAN_VECTOR_REMOVE;
; 2047 :             _Al.deallocate(_Myfirst, static_cast<size_type>(_Myend - _Myfirst));

  00088	8b 4f 0c	 mov	 ecx, DWORD PTR [edi+12]
  0008b	2b c8		 sub	 ecx, eax
; File C:\Program Files\Microsoft Visual Studio\2022\Community\VC\Tools\MSVC\14.37.32822\include\xmemory

; 969  :         _Deallocate<_New_alignof<_Ty>>(_Ptr, sizeof(_Ty) * _Count);

  0008d	83 e1 fc	 and	 ecx, -4			; fffffffcH

; 261  :         if (_Bytes >= _Big_allocation_threshold) { // boost the alignment of big allocations to help autovectorization

  00090	81 f9 00 10 00
	00		 cmp	 ecx, 4096		; 00001000H
  00096	72 12		 jb	 SHORT $LN74@CDynamicPo

; 160  :     const uintptr_t _Ptr_container   = _Ptr_user[-1];

  00098	8b 50 fc	 mov	 edx, DWORD PTR [eax-4]
  0009b	83 c1 23	 add	 ecx, 35			; 00000023H

; 161  : 
; 162  :     // If the following asserts, it likely means that we are performing
; 163  :     // an aligned delete on memory coming from an unaligned allocation.
; 164  :     _STL_ASSERT(_Ptr_user[-2] == _Big_allocation_sentinel, "invalid argument");
; 165  : 
; 166  :     // Extra paranoia on aligned allocation/deallocation; ensure _Ptr_container is
; 167  :     // in range [_Min_back_shift, _Non_user_size]
; 168  : #ifdef _DEBUG
; 169  :     constexpr uintptr_t _Min_back_shift = 2 * sizeof(void*);
; 170  : #else // ^^^ _DEBUG / !_DEBUG vvv
; 171  :     constexpr uintptr_t _Min_back_shift = sizeof(void*);
; 172  : #endif // _DEBUG
; 173  :     const uintptr_t _Back_shift = reinterpret_cast<uintptr_t>(_Ptr) - _Ptr_container;

  0009e	2b c2		 sub	 eax, edx

; 174  :     _STL_VERIFY(_Back_shift >= _Min_back_shift && _Back_shift <= _Non_user_size, "invalid argument");

  000a0	83 c0 fc	 add	 eax, -4			; fffffffcH
  000a3	83 f8 1f	 cmp	 eax, 31			; 0000001fH
  000a6	77 25		 ja	 SHORT $LN71@CDynamicPo

; 175  :     _Ptr = reinterpret_cast<void*>(_Ptr_container);

  000a8	8b c2		 mov	 eax, edx
$LN74@CDynamicPo:

; 265  :         ::operator delete(_Ptr, _Bytes);

  000aa	51		 push	 ecx
  000ab	50		 push	 eax
  000ac	e8 00 00 00 00	 call	 ??3@YAXPAXI@Z		; operator delete
; File C:\Program Files\Microsoft Visual Studio\2022\Community\VC\Tools\MSVC\14.37.32822\include\vector

; 2049 :             _Myfirst = nullptr;

  000b1	c7 47 04 00 00
	00 00		 mov	 DWORD PTR [edi+4], 0
; File C:\Program Files\Microsoft Visual Studio\2022\Community\VC\Tools\MSVC\14.37.32822\include\xmemory

; 265  :         ::operator delete(_Ptr, _Bytes);

  000b8	83 c4 08	 add	 esp, 8
; File C:\Program Files\Microsoft Visual Studio\2022\Community\VC\Tools\MSVC\14.37.32822\include\vector

; 2050 :             _Mylast  = nullptr;

  000bb	c7 47 08 00 00
	00 00		 mov	 DWORD PTR [edi+8], 0

; 2051 :             _Myend   = nullptr;

  000c2	c7 47 0c 00 00
	00 00		 mov	 DWORD PTR [edi+12], 0
$LN58@CDynamicPo:
  000c9	5f		 pop	 edi
; File C:\Marty 5.5\Src-Client\Client\eterLib\Pool.h

; 142  : 		}

  000ca	5e		 pop	 esi
  000cb	5b		 pop	 ebx
  000cc	c3		 ret	 0
$LN71@CDynamicPo:
; File C:\Program Files\Microsoft Visual Studio\2022\Community\VC\Tools\MSVC\14.37.32822\include\xmemory

; 174  :     _STL_VERIFY(_Back_shift >= _Min_back_shift && _Back_shift <= _Non_user_size, "invalid argument");

  000cd	e8 00 00 00 00	 call	 __invalid_parameter_noinfo_noreturn
$LN92@CDynamicPo:
  000d2	cc		 int	 3
??1?$CDynamicPoolEx@VCGravityDecorator@NEffectUpdateDecorator@@@@UAE@XZ ENDP ; CDynamicPoolEx<NEffectUpdateDecorator::CGravityDecorator>::~CDynamicPoolEx<NEffectUpdateDecorator::CGravityDecorator>
_TEXT	ENDS
; Function compile flags: /Ogtp
;	COMDAT ??_G?$CDynamicPoolEx@VCRotationDecorator@NEffectUpdateDecorator@@@@UAEPAXI@Z
_TEXT	SEGMENT
___flags$ = 8						; size = 4
??_G?$CDynamicPoolEx@VCRotationDecorator@NEffectUpdateDecorator@@@@UAEPAXI@Z PROC ; CDynamicPoolEx<NEffectUpdateDecorator::CRotationDecorator>::`scalar deleting destructor', COMDAT
; _this$ = ecx
  00000	55		 push	 ebp
  00001	8b ec		 mov	 ebp, esp
  00003	56		 push	 esi
  00004	8b f1		 mov	 esi, ecx
  00006	e8 00 00 00 00	 call	 ??1?$CDynamicPoolEx@VCRotationDecorator@NEffectUpdateDecorator@@@@UAE@XZ ; CDynamicPoolEx<NEffectUpdateDecorator::CRotationDecorator>::~CDynamicPoolEx<NEffectUpdateDecorator::CRotationDecorator>
  0000b	f6 45 08 01	 test	 BYTE PTR ___flags$[ebp], 1
  0000f	74 0b		 je	 SHORT $LN4@scalar
  00011	6a 24		 push	 36			; 00000024H
  00013	56		 push	 esi
  00014	e8 00 00 00 00	 call	 ??3@YAXPAXI@Z		; operator delete
  00019	83 c4 08	 add	 esp, 8
$LN4@scalar:
  0001c	8b c6		 mov	 eax, esi
  0001e	5e		 pop	 esi
  0001f	5d		 pop	 ebp
  00020	c2 04 00	 ret	 4
??_G?$CDynamicPoolEx@VCRotationDecorator@NEffectUpdateDecorator@@@@UAEPAXI@Z ENDP ; CDynamicPoolEx<NEffectUpdateDecorator::CRotationDecorator>::`scalar deleting destructor'
_TEXT	ENDS
; Function compile flags: /Ogtp
; File C:\Marty 5.5\Src-Client\Client\eterLib\Pool.h
;	COMDAT ?Delete@?$CDynamicPoolEx@VCRotationDecorator@NEffectUpdateDecorator@@@@KAXPAVCRotationDecorator@NEffectUpdateDecorator@@@Z
_TEXT	SEGMENT
_pkData$ = 8						; size = 4
?Delete@?$CDynamicPoolEx@VCRotationDecorator@NEffectUpdateDecorator@@@@KAXPAVCRotationDecorator@NEffectUpdateDecorator@@@Z PROC ; CDynamicPoolEx<NEffectUpdateDecorator::CRotationDecorator>::Delete, COMDAT

; 224  : 			::operator delete(pkData);

  00000	e9 00 00 00 00	 jmp	 ??3@YAXPAX@Z		; operator delete
?Delete@?$CDynamicPoolEx@VCRotationDecorator@NEffectUpdateDecorator@@@@KAXPAVCRotationDecorator@NEffectUpdateDecorator@@@Z ENDP ; CDynamicPoolEx<NEffectUpdateDecorator::CRotationDecorator>::Delete
_TEXT	ENDS
; Function compile flags: /Ogtp
; File C:\Marty 5.5\Src-Client\Client\eterLib\Pool.h
; File C:\Program Files\Microsoft Visual Studio\2022\Community\VC\Tools\MSVC\14.37.32822\include\vector
; File C:\Program Files\Microsoft Visual Studio\2022\Community\VC\Tools\MSVC\14.37.32822\include\algorithm
; File C:\Marty 5.5\Src-Client\Client\eterLib\Pool.h
; File C:\Program Files\Microsoft Visual Studio\2022\Community\VC\Tools\MSVC\14.37.32822\include\algorithm
; File C:\Marty 5.5\Src-Client\Client\eterLib\Pool.h
; File C:\Program Files\Microsoft Visual Studio\2022\Community\VC\Tools\MSVC\14.37.32822\include\algorithm
; File C:\Program Files\Microsoft Visual Studio\2022\Community\VC\Tools\MSVC\14.37.32822\include\vector
; File C:\Program Files\Microsoft Visual Studio\2022\Community\VC\Tools\MSVC\14.37.32822\include\xmemory
; File C:\Program Files\Microsoft Visual Studio\2022\Community\VC\Tools\MSVC\14.37.32822\include\vector
; File C:\Program Files\Microsoft Visual Studio\2022\Community\VC\Tools\MSVC\14.37.32822\include\xmemory
; File C:\Program Files\Microsoft Visual Studio\2022\Community\VC\Tools\MSVC\14.37.32822\include\vector
; File C:\Program Files\Microsoft Visual Studio\2022\Community\VC\Tools\MSVC\14.37.32822\include\xmemory
; File C:\Program Files\Microsoft Visual Studio\2022\Community\VC\Tools\MSVC\14.37.32822\include\vector
; File C:\Program Files\Microsoft Visual Studio\2022\Community\VC\Tools\MSVC\14.37.32822\include\xmemory
; File C:\Program Files\Microsoft Visual Studio\2022\Community\VC\Tools\MSVC\14.37.32822\include\vector
; File C:\Marty 5.5\Src-Client\Client\eterLib\Pool.h
; File C:\Program Files\Microsoft Visual Studio\2022\Community\VC\Tools\MSVC\14.37.32822\include\xmemory
; File C:\Marty 5.5\Src-Client\Client\eterLib\Pool.h
;	COMDAT ??1?$CDynamicPoolEx@VCRotationDecorator@NEffectUpdateDecorator@@@@UAE@XZ
_TEXT	SEGMENT
??1?$CDynamicPoolEx@VCRotationDecorator@NEffectUpdateDecorator@@@@UAE@XZ PROC ; CDynamicPoolEx<NEffectUpdateDecorator::CRotationDecorator>::~CDynamicPoolEx<NEffectUpdateDecorator::CRotationDecorator>, COMDAT
; _this$ = ecx

; 132  : 		{

  00000	53		 push	 ebx
  00001	56		 push	 esi
  00002	57		 push	 edi
  00003	8b f9		 mov	 edi, ecx
  00005	c7 07 00 00 00
	00		 mov	 DWORD PTR [edi], OFFSET ??_7?$CDynamicPoolEx@VCRotationDecorator@NEffectUpdateDecorator@@@@6B@
; File C:\Program Files\Microsoft Visual Studio\2022\Community\VC\Tools\MSVC\14.37.32822\include\vector

; 43   :     _CONSTEXPR20 _Vector_const_iterator(_Tptr _Parg, const _Container_base* _Pvector) noexcept : _Ptr(_Parg) {

  0000b	8b 5f 08	 mov	 ebx, DWORD PTR [edi+8]
  0000e	8b 77 04	 mov	 esi, DWORD PTR [edi+4]
; File C:\Program Files\Microsoft Visual Studio\2022\Community\VC\Tools\MSVC\14.37.32822\include\algorithm

; 245  :     for (; _UFirst != _ULast; ++_UFirst) {

  00011	3b f3		 cmp	 esi, ebx
  00013	74 11		 je	 SHORT $LN19@CDynamicPo
$LL20@CDynamicPo:
; File C:\Marty 5.5\Src-Client\Client\eterLib\Pool.h

; 224  : 			::operator delete(pkData);

  00015	ff 36		 push	 DWORD PTR [esi]
  00017	e8 00 00 00 00	 call	 ??3@YAXPAX@Z		; operator delete
; File C:\Program Files\Microsoft Visual Studio\2022\Community\VC\Tools\MSVC\14.37.32822\include\algorithm

; 245  :     for (; _UFirst != _ULast; ++_UFirst) {

  0001c	83 c6 04	 add	 esi, 4
; File C:\Marty 5.5\Src-Client\Client\eterLib\Pool.h

; 224  : 			::operator delete(pkData);

  0001f	83 c4 04	 add	 esp, 4
; File C:\Program Files\Microsoft Visual Studio\2022\Community\VC\Tools\MSVC\14.37.32822\include\algorithm

; 245  :     for (; _UFirst != _ULast; ++_UFirst) {

  00022	3b f3		 cmp	 esi, ebx
  00024	75 ef		 jne	 SHORT $LL20@CDynamicPo
$LN19@CDynamicPo:
; File C:\Program Files\Microsoft Visual Studio\2022\Community\VC\Tools\MSVC\14.37.32822\include\vector

; 1766 :         if (_Myfirst == _Mylast) { // already empty, nothing to do

  00026	8b 47 04	 mov	 eax, DWORD PTR [edi+4]
  00029	3b 47 08	 cmp	 eax, DWORD PTR [edi+8]
  0002c	74 03		 je	 SHORT $LN24@CDynamicPo

; 1767 :             // This is an optimization for debug mode: we can avoid taking the debug lock to invalidate iterators.
; 1768 :             // Note that when clearing an empty vector, this will preserve past-the-end iterators, which is allowed by
; 1769 :             // N4950 [sequence.reqmts]/54 "a.clear() [...] may invalidate the past-the-end iterator".
; 1770 :             return;
; 1771 :         }
; 1772 : 
; 1773 :         _My_data._Orphan_all();
; 1774 :         _Destroy_range(_Myfirst, _Mylast, _Getal());
; 1775 :         _ASAN_VECTOR_MODIFY(static_cast<difference_type>(_Myfirst - _Mylast)); // negative when destroying elements
; 1776 :         _Mylast = _Myfirst;

  0002e	89 47 08	 mov	 DWORD PTR [edi+8], eax
$LN24@CDynamicPo:

; 1766 :         if (_Myfirst == _Mylast) { // already empty, nothing to do

  00031	8b 47 10	 mov	 eax, DWORD PTR [edi+16]
  00034	3b 47 14	 cmp	 eax, DWORD PTR [edi+20]
  00037	74 03		 je	 SHORT $LN27@CDynamicPo

; 1767 :             // This is an optimization for debug mode: we can avoid taking the debug lock to invalidate iterators.
; 1768 :             // Note that when clearing an empty vector, this will preserve past-the-end iterators, which is allowed by
; 1769 :             // N4950 [sequence.reqmts]/54 "a.clear() [...] may invalidate the past-the-end iterator".
; 1770 :             return;
; 1771 :         }
; 1772 : 
; 1773 :         _My_data._Orphan_all();
; 1774 :         _Destroy_range(_Myfirst, _Mylast, _Getal());
; 1775 :         _ASAN_VECTOR_MODIFY(static_cast<difference_type>(_Myfirst - _Mylast)); // negative when destroying elements
; 1776 :         _Mylast = _Myfirst;

  00039	89 47 14	 mov	 DWORD PTR [edi+20], eax
$LN27@CDynamicPo:

; 2044 :         if (_Myfirst) { // destroy and deallocate old array

  0003c	85 c0		 test	 eax, eax
  0003e	74 41		 je	 SHORT $LN33@CDynamicPo

; 2045 :             _Destroy_range(_Myfirst, _Mylast, _Al);
; 2046 :             _ASAN_VECTOR_REMOVE;
; 2047 :             _Al.deallocate(_Myfirst, static_cast<size_type>(_Myend - _Myfirst));

  00040	8b 4f 18	 mov	 ecx, DWORD PTR [edi+24]
  00043	2b c8		 sub	 ecx, eax
; File C:\Program Files\Microsoft Visual Studio\2022\Community\VC\Tools\MSVC\14.37.32822\include\xmemory

; 969  :         _Deallocate<_New_alignof<_Ty>>(_Ptr, sizeof(_Ty) * _Count);

  00045	83 e1 fc	 and	 ecx, -4			; fffffffcH

; 261  :         if (_Bytes >= _Big_allocation_threshold) { // boost the alignment of big allocations to help autovectorization

  00048	81 f9 00 10 00
	00		 cmp	 ecx, 4096		; 00001000H
  0004e	72 12		 jb	 SHORT $LN49@CDynamicPo

; 160  :     const uintptr_t _Ptr_container   = _Ptr_user[-1];

  00050	8b 50 fc	 mov	 edx, DWORD PTR [eax-4]
  00053	83 c1 23	 add	 ecx, 35			; 00000023H

; 161  : 
; 162  :     // If the following asserts, it likely means that we are performing
; 163  :     // an aligned delete on memory coming from an unaligned allocation.
; 164  :     _STL_ASSERT(_Ptr_user[-2] == _Big_allocation_sentinel, "invalid argument");
; 165  : 
; 166  :     // Extra paranoia on aligned allocation/deallocation; ensure _Ptr_container is
; 167  :     // in range [_Min_back_shift, _Non_user_size]
; 168  : #ifdef _DEBUG
; 169  :     constexpr uintptr_t _Min_back_shift = 2 * sizeof(void*);
; 170  : #else // ^^^ _DEBUG / !_DEBUG vvv
; 171  :     constexpr uintptr_t _Min_back_shift = sizeof(void*);
; 172  : #endif // _DEBUG
; 173  :     const uintptr_t _Back_shift = reinterpret_cast<uintptr_t>(_Ptr) - _Ptr_container;

  00056	2b c2		 sub	 eax, edx

; 174  :     _STL_VERIFY(_Back_shift >= _Min_back_shift && _Back_shift <= _Non_user_size, "invalid argument");

  00058	83 c0 fc	 add	 eax, -4			; fffffffcH
  0005b	83 f8 1f	 cmp	 eax, 31			; 0000001fH
  0005e	77 6d		 ja	 SHORT $LN71@CDynamicPo

; 175  :     _Ptr = reinterpret_cast<void*>(_Ptr_container);

  00060	8b c2		 mov	 eax, edx
$LN49@CDynamicPo:

; 265  :         ::operator delete(_Ptr, _Bytes);

  00062	51		 push	 ecx
  00063	50		 push	 eax
  00064	e8 00 00 00 00	 call	 ??3@YAXPAXI@Z		; operator delete
; File C:\Program Files\Microsoft Visual Studio\2022\Community\VC\Tools\MSVC\14.37.32822\include\vector

; 2049 :             _Myfirst = nullptr;

  00069	c7 47 10 00 00
	00 00		 mov	 DWORD PTR [edi+16], 0
; File C:\Program Files\Microsoft Visual Studio\2022\Community\VC\Tools\MSVC\14.37.32822\include\xmemory

; 265  :         ::operator delete(_Ptr, _Bytes);

  00070	83 c4 08	 add	 esp, 8
; File C:\Program Files\Microsoft Visual Studio\2022\Community\VC\Tools\MSVC\14.37.32822\include\vector

; 2050 :             _Mylast  = nullptr;

  00073	c7 47 14 00 00
	00 00		 mov	 DWORD PTR [edi+20], 0

; 2051 :             _Myend   = nullptr;

  0007a	c7 47 18 00 00
	00 00		 mov	 DWORD PTR [edi+24], 0
$LN33@CDynamicPo:

; 2044 :         if (_Myfirst) { // destroy and deallocate old array

  00081	8b 47 04	 mov	 eax, DWORD PTR [edi+4]
  00084	85 c0		 test	 eax, eax
  00086	74 41		 je	 SHORT $LN58@CDynamicPo

; 2045 :             _Destroy_range(_Myfirst, _Mylast, _Al);
; 2046 :             _ASAN_VECTOR_REMOVE;
; 2047 :             _Al.deallocate(_Myfirst, static_cast<size_type>(_Myend - _Myfirst));

  00088	8b 4f 0c	 mov	 ecx, DWORD PTR [edi+12]
  0008b	2b c8		 sub	 ecx, eax
; File C:\Program Files\Microsoft Visual Studio\2022\Community\VC\Tools\MSVC\14.37.32822\include\xmemory

; 969  :         _Deallocate<_New_alignof<_Ty>>(_Ptr, sizeof(_Ty) * _Count);

  0008d	83 e1 fc	 and	 ecx, -4			; fffffffcH

; 261  :         if (_Bytes >= _Big_allocation_threshold) { // boost the alignment of big allocations to help autovectorization

  00090	81 f9 00 10 00
	00		 cmp	 ecx, 4096		; 00001000H
  00096	72 12		 jb	 SHORT $LN74@CDynamicPo

; 160  :     const uintptr_t _Ptr_container   = _Ptr_user[-1];

  00098	8b 50 fc	 mov	 edx, DWORD PTR [eax-4]
  0009b	83 c1 23	 add	 ecx, 35			; 00000023H

; 161  : 
; 162  :     // If the following asserts, it likely means that we are performing
; 163  :     // an aligned delete on memory coming from an unaligned allocation.
; 164  :     _STL_ASSERT(_Ptr_user[-2] == _Big_allocation_sentinel, "invalid argument");
; 165  : 
; 166  :     // Extra paranoia on aligned allocation/deallocation; ensure _Ptr_container is
; 167  :     // in range [_Min_back_shift, _Non_user_size]
; 168  : #ifdef _DEBUG
; 169  :     constexpr uintptr_t _Min_back_shift = 2 * sizeof(void*);
; 170  : #else // ^^^ _DEBUG / !_DEBUG vvv
; 171  :     constexpr uintptr_t _Min_back_shift = sizeof(void*);
; 172  : #endif // _DEBUG
; 173  :     const uintptr_t _Back_shift = reinterpret_cast<uintptr_t>(_Ptr) - _Ptr_container;

  0009e	2b c2		 sub	 eax, edx

; 174  :     _STL_VERIFY(_Back_shift >= _Min_back_shift && _Back_shift <= _Non_user_size, "invalid argument");

  000a0	83 c0 fc	 add	 eax, -4			; fffffffcH
  000a3	83 f8 1f	 cmp	 eax, 31			; 0000001fH
  000a6	77 25		 ja	 SHORT $LN71@CDynamicPo

; 175  :     _Ptr = reinterpret_cast<void*>(_Ptr_container);

  000a8	8b c2		 mov	 eax, edx
$LN74@CDynamicPo:

; 265  :         ::operator delete(_Ptr, _Bytes);

  000aa	51		 push	 ecx
  000ab	50		 push	 eax
  000ac	e8 00 00 00 00	 call	 ??3@YAXPAXI@Z		; operator delete
; File C:\Program Files\Microsoft Visual Studio\2022\Community\VC\Tools\MSVC\14.37.32822\include\vector

; 2049 :             _Myfirst = nullptr;

  000b1	c7 47 04 00 00
	00 00		 mov	 DWORD PTR [edi+4], 0
; File C:\Program Files\Microsoft Visual Studio\2022\Community\VC\Tools\MSVC\14.37.32822\include\xmemory

; 265  :         ::operator delete(_Ptr, _Bytes);

  000b8	83 c4 08	 add	 esp, 8
; File C:\Program Files\Microsoft Visual Studio\2022\Community\VC\Tools\MSVC\14.37.32822\include\vector

; 2050 :             _Mylast  = nullptr;

  000bb	c7 47 08 00 00
	00 00		 mov	 DWORD PTR [edi+8], 0

; 2051 :             _Myend   = nullptr;

  000c2	c7 47 0c 00 00
	00 00		 mov	 DWORD PTR [edi+12], 0
$LN58@CDynamicPo:
  000c9	5f		 pop	 edi
; File C:\Marty 5.5\Src-Client\Client\eterLib\Pool.h

; 142  : 		}

  000ca	5e		 pop	 esi
  000cb	5b		 pop	 ebx
  000cc	c3		 ret	 0
$LN71@CDynamicPo:
; File C:\Program Files\Microsoft Visual Studio\2022\Community\VC\Tools\MSVC\14.37.32822\include\xmemory

; 174  :     _STL_VERIFY(_Back_shift >= _Min_back_shift && _Back_shift <= _Non_user_size, "invalid argument");

  000cd	e8 00 00 00 00	 call	 __invalid_parameter_noinfo_noreturn
$LN92@CDynamicPo:
  000d2	cc		 int	 3
??1?$CDynamicPoolEx@VCRotationDecorator@NEffectUpdateDecorator@@@@UAE@XZ ENDP ; CDynamicPoolEx<NEffectUpdateDecorator::CRotationDecorator>::~CDynamicPoolEx<NEffectUpdateDecorator::CRotationDecorator>
_TEXT	ENDS
; Function compile flags: /Ogtp
; File C:\Program Files\Microsoft Visual Studio\2022\Community\VC\Tools\MSVC\14.37.32822\include\xtree
; File C:\Program Files\Microsoft Visual Studio\2022\Community\VC\Tools\MSVC\14.37.32822\include\utility
; File C:\Program Files\Microsoft Visual Studio\2022\Community\VC\Tools\MSVC\14.37.32822\include\xmemory
; File C:\Program Files\Microsoft Visual Studio\2022\Community\VC\Tools\MSVC\14.37.32822\include\xtree
;	COMDAT ??$_Erase_tree@V?$allocator@U?$_Tree_node@U?$pair@QAVCActorInstance@@M@std@@PAX@std@@@std@@@?$_Tree_val@U?$_Tree_simple_types@U?$pair@QAVCActorInstance@@M@std@@@std@@@std@@QAEXAAV?$allocator@U?$_Tree_node@U?$pair@QAVCActorInstance@@M@std@@PAX@std@@@1@PAU?$_Tree_node@U?$pair@QAVCActorInstance@@M@std@@PAX@1@@Z
_TEXT	SEGMENT
__Al$ = 8						; size = 4
__Rootnode$ = 12					; size = 4
??$_Erase_tree@V?$allocator@U?$_Tree_node@U?$pair@QAVCActorInstance@@M@std@@PAX@std@@@std@@@?$_Tree_val@U?$_Tree_simple_types@U?$pair@QAVCActorInstance@@M@std@@@std@@@std@@QAEXAAV?$allocator@U?$_Tree_node@U?$pair@QAVCActorInstance@@M@std@@PAX@std@@@1@PAU?$_Tree_node@U?$pair@QAVCActorInstance@@M@std@@PAX@1@@Z PROC ; std::_Tree_val<std::_Tree_simple_types<std::pair<CActorInstance * const,float> > >::_Erase_tree<std::allocator<std::_Tree_node<std::pair<CActorInstance * const,float>,void *> > >, COMDAT
; _this$ = ecx

; 744  :     void _Erase_tree(_Alnode& _Al, _Nodeptr _Rootnode) noexcept {

  00000	55		 push	 ebp
  00001	8b ec		 mov	 ebp, esp
  00003	53		 push	 ebx
  00004	56		 push	 esi

; 745  :         while (!_Rootnode->_Isnil) { // free subtrees, then node

  00005	8b 75 0c	 mov	 esi, DWORD PTR __Rootnode$[ebp]
  00008	8b d9		 mov	 ebx, ecx
  0000a	80 7e 0d 00	 cmp	 BYTE PTR [esi+13], 0
  0000e	75 25		 jne	 SHORT $LN3@Erase_tree
  00010	57		 push	 edi
  00011	8b 7d 08	 mov	 edi, DWORD PTR __Al$[ebp]
$LL2@Erase_tree:

; 746  :             _Erase_tree(_Al, _Rootnode->_Right);

  00014	ff 76 08	 push	 DWORD PTR [esi+8]
  00017	8b cb		 mov	 ecx, ebx
  00019	57		 push	 edi
  0001a	e8 00 00 00 00	 call	 ??$_Erase_tree@V?$allocator@U?$_Tree_node@U?$pair@QAVCActorInstance@@M@std@@PAX@std@@@std@@@?$_Tree_val@U?$_Tree_simple_types@U?$pair@QAVCActorInstance@@M@std@@@std@@@std@@QAEXAAV?$allocator@U?$_Tree_node@U?$pair@QAVCActorInstance@@M@std@@PAX@std@@@1@PAU?$_Tree_node@U?$pair@QAVCActorInstance@@M@std@@PAX@1@@Z ; std::_Tree_val<std::_Tree_simple_types<std::pair<CActorInstance * const,float> > >::_Erase_tree<std::allocator<std::_Tree_node<std::pair<CActorInstance * const,float>,void *> > >
; File C:\Program Files\Microsoft Visual Studio\2022\Community\VC\Tools\MSVC\14.37.32822\include\utility

; 754  :     _Ty _Old_val = static_cast<_Ty&&>(_Val);

  0001f	8b c6		 mov	 eax, esi

; 755  :     _Val         = static_cast<_Other&&>(_New_val);

  00021	8b 36		 mov	 esi, DWORD PTR [esi]
; File C:\Program Files\Microsoft Visual Studio\2022\Community\VC\Tools\MSVC\14.37.32822\include\xmemory

; 265  :         ::operator delete(_Ptr, _Bytes);

  00023	6a 18		 push	 24			; 00000018H
  00025	50		 push	 eax
  00026	e8 00 00 00 00	 call	 ??3@YAXPAXI@Z		; operator delete
  0002b	83 c4 08	 add	 esp, 8
; File C:\Program Files\Microsoft Visual Studio\2022\Community\VC\Tools\MSVC\14.37.32822\include\xtree

; 745  :         while (!_Rootnode->_Isnil) { // free subtrees, then node

  0002e	80 7e 0d 00	 cmp	 BYTE PTR [esi+13], 0
  00032	74 e0		 je	 SHORT $LL2@Erase_tree
  00034	5f		 pop	 edi
$LN3@Erase_tree:
  00035	5e		 pop	 esi

; 747  :             _Alnode::value_type::_Freenode(_Al, _STD exchange(_Rootnode, _Rootnode->_Left));
; 748  :         }
; 749  :     }

  00036	5b		 pop	 ebx
  00037	5d		 pop	 ebp
  00038	c2 08 00	 ret	 8
??$_Erase_tree@V?$allocator@U?$_Tree_node@U?$pair@QAVCActorInstance@@M@std@@PAX@std@@@std@@@?$_Tree_val@U?$_Tree_simple_types@U?$pair@QAVCActorInstance@@M@std@@@std@@@std@@QAEXAAV?$allocator@U?$_Tree_node@U?$pair@QAVCActorInstance@@M@std@@PAX@std@@@1@PAU?$_Tree_node@U?$pair@QAVCActorInstance@@M@std@@PAX@1@@Z ENDP ; std::_Tree_val<std::_Tree_simple_types<std::pair<CActorInstance * const,float> > >::_Erase_tree<std::allocator<std::_Tree_node<std::pair<CActorInstance * const,float>,void *> > >
_TEXT	ENDS
; Function compile flags: /Ogtp
; File C:\Marty 5.5\Src-Client\Client\GameLib\ActorInstanceMotionEvent.cpp
;	COMDAT ?__IsHiding@CActorInstance@@IAEHXZ
_TEXT	SEGMENT
?__IsHiding@CActorInstance@@IAEHXZ PROC			; CActorInstance::__IsHiding, COMDAT
; _this$ = ecx

; 113  : 	return m_isHiding;

  00000	8b 81 2c 04 00
	00		 mov	 eax, DWORD PTR [ecx+1068]

; 114  : }

  00006	c3		 ret	 0
?__IsHiding@CActorInstance@@IAEHXZ ENDP			; CActorInstance::__IsHiding
_TEXT	ENDS
; Function compile flags: /Ogtp
; File C:\Marty 5.5\Src-Client\Client\GameLib\ActorInstanceMotionEvent.cpp
;	COMDAT ?__HideEvent@CActorInstance@@IAEXXZ
_TEXT	SEGMENT
?__HideEvent@CActorInstance@@IAEXXZ PROC		; CActorInstance::__HideEvent, COMDAT
; _this$ = ecx

; 105  : {

  00000	56		 push	 esi
  00001	8b f1		 mov	 esi, ecx

; 106  : 	m_isHiding = TRUE;

  00003	c7 86 2c 04 00
	00 01 00 00 00	 mov	 DWORD PTR [esi+1068], 1

; 107  : 	SetBlendRenderMode();

  0000d	e8 00 00 00 00	 call	 ?SetBlendRenderMode@CActorInstance@@QAEXXZ ; CActorInstance::SetBlendRenderMode

; 108  : 	SetAlphaValue(0.0f);

  00012	51		 push	 ecx
  00013	8b ce		 mov	 ecx, esi
  00015	c7 04 24 00 00
	00 00		 mov	 DWORD PTR [esp], 0
  0001c	e8 00 00 00 00	 call	 ?SetAlphaValue@CActorInstance@@QAEXM@Z ; CActorInstance::SetAlphaValue
  00021	5e		 pop	 esi

; 109  : }

  00022	c3		 ret	 0
?__HideEvent@CActorInstance@@IAEXXZ ENDP		; CActorInstance::__HideEvent
_TEXT	ENDS
; Function compile flags: /Ogtp
; File C:\Marty 5.5\Src-Client\Client\GameLib\ActorInstanceMotionEvent.cpp
;	COMDAT ?__ShowEvent@CActorInstance@@IAEXXZ
_TEXT	SEGMENT
?__ShowEvent@CActorInstance@@IAEXXZ PROC		; CActorInstance::__ShowEvent, COMDAT
; _this$ = ecx

; 98   : {

  00000	56		 push	 esi
  00001	8b f1		 mov	 esi, ecx

; 99   : 	m_isHiding = FALSE;

  00003	c7 86 2c 04 00
	00 00 00 00 00	 mov	 DWORD PTR [esi+1068], 0

; 100  : 	RestoreRenderMode();

  0000d	e8 00 00 00 00	 call	 ?RestoreRenderMode@CActorInstance@@QAEXXZ ; CActorInstance::RestoreRenderMode

; 101  : 	SetAlphaValue(1.0f);

  00012	51		 push	 ecx
  00013	8b ce		 mov	 ecx, esi
  00015	c7 04 24 00 00
	80 3f		 mov	 DWORD PTR [esp], 1065353216 ; 3f800000H
  0001c	e8 00 00 00 00	 call	 ?SetAlphaValue@CActorInstance@@QAEXM@Z ; CActorInstance::SetAlphaValue
  00021	5e		 pop	 esi

; 102  : }

  00022	c3		 ret	 0
?__ShowEvent@CActorInstance@@IAEXXZ ENDP		; CActorInstance::__ShowEvent
_TEXT	ENDS
; Function compile flags: /Ogtp
; File C:\Marty 5.5\Src-Client\Client\GameLib\ActorInstanceMotionEvent.cpp
; File C:\Marty 5.5\Src-Client\extern\include\d3dx8math.inl
; File C:\Marty 5.5\Src-Client\Client\GameLib\ActorInstanceMotionEvent.cpp
; File C:\Marty 5.5\Src-Client\extern\include\d3dx8math.inl
; File C:\Marty 5.5\Src-Client\Client\GameLib\ActorInstanceMotionEvent.cpp
; File C:\Marty 5.5\Src-Client\extern\include\d3dx8math.inl
; File C:\Marty 5.5\Src-Client\Client\GameLib\ActorInstanceMotionEvent.cpp
; File C:\Marty 5.5\Src-Client\extern\include\d3dx8math.inl
; File C:\Marty 5.5\Src-Client\Client\GameLib\ActorInstanceMotionEvent.cpp
; File C:\Marty 5.5\Src-Client\extern\include\d3dx8math.inl
; File C:\Marty 5.5\Src-Client\Client\GameLib\ActorInstanceMotionEvent.cpp
; File C:\Marty 5.5\Src-Client\extern\include\d3dx8math.inl
; File C:\Marty 5.5\Src-Client\Client\GameLib\ActorInstanceMotionEvent.cpp
; File C:\Marty 5.5\Src-Client\extern\include\d3dx8math.inl
; File C:\Marty 5.5\Src-Client\Client\GameLib\ActorInstanceMotionEvent.cpp
; File C:\Marty 5.5\Src-Client\extern\include\d3dx8math.inl
; File C:\Marty 5.5\Src-Client\Client\GameLib\ActorInstanceMotionEvent.cpp
;	COMDAT ?ProcessMotionEventWarp@CActorInstance@@IAEXPBUSMotionEventData@NMotionEvent@@@Z
_TEXT	SEGMENT
tv435 = -52						; size = 4
tv434 = -48						; size = 4
tv436 = -44						; size = 4
_DestPixelPosition$1 = -40				; size = 12
_v3Distance$2 = -28					; size = 12
_$S1$3 = -16						; size = 12
__$ArrayPad$ = -4					; size = 4
_c_pData$ = 8						; size = 4
?ProcessMotionEventWarp@CActorInstance@@IAEXPBUSMotionEventData@NMotionEvent@@@Z PROC ; CActorInstance::ProcessMotionEventWarp, COMDAT
; _this$ = ecx

; 315  : {

  00000	55		 push	 ebp
  00001	8b ec		 mov	 ebp, esp
  00003	83 ec 34	 sub	 esp, 52			; 00000034H
  00006	a1 00 00 00 00	 mov	 eax, DWORD PTR ___security_cookie
  0000b	33 c5		 xor	 eax, ebp
  0000d	89 45 fc	 mov	 DWORD PTR __$ArrayPad$[ebp], eax

; 316  : 	if (CRaceMotionData::MOTION_EVENT_TYPE_WARP != c_pData->iType)

  00010	8b 45 08	 mov	 eax, DWORD PTR _c_pData$[ebp]
  00013	56		 push	 esi
  00014	8b f1		 mov	 esi, ecx
  00016	83 78 04 09	 cmp	 DWORD PTR [eax+4], 9
  0001a	0f 85 23 01 00
	00		 jne	 $LN3@ProcessMot

; 317  : 		return;
; 318  : 
; 319  : 	static const float sc_fDistanceFromTarget = 270.0f;
; 320  : 
; 321  : 	if (m_kFlyTarget.IsValidTarget())

  00020	8d 8e b8 02 00
	00		 lea	 ecx, DWORD PTR [esi+696]
  00026	e8 00 00 00 00	 call	 ?IsValidTarget@CFlyTarget@@QAE_NXZ ; CFlyTarget::IsValidTarget
  0002b	84 c0		 test	 al, al
  0002d	0f 84 10 01 00
	00		 je	 $LN3@ProcessMot
; File C:\Marty 5.5\Src-Client\extern\include\d3dx8math.inl

; 180  :     x = fx;

  00033	f3 0f 10 86 68
	04 00 00	 movss	 xmm0, DWORD PTR [esi+1128]
; File C:\Marty 5.5\Src-Client\Client\GameLib\ActorInstanceMotionEvent.cpp

; 324  : 		const D3DXVECTOR3 & c_rv3TargetPosition = __GetFlyTargetPosition();

  0003b	8d 45 f0	 lea	 eax, DWORD PTR _$S1$3[ebp]
; File C:\Marty 5.5\Src-Client\extern\include\d3dx8math.inl

; 180  :     x = fx;

  0003e	f3 0f 11 45 d4	 movss	 DWORD PTR tv436[ebp], xmm0
; File C:\Marty 5.5\Src-Client\Client\GameLib\ActorInstanceMotionEvent.cpp

; 324  : 		const D3DXVECTOR3 & c_rv3TargetPosition = __GetFlyTargetPosition();

  00043	8b ce		 mov	 ecx, esi
; File C:\Marty 5.5\Src-Client\extern\include\d3dx8math.inl

; 181  :     y = fy;

  00045	f3 0f 10 86 6c
	04 00 00	 movss	 xmm0, DWORD PTR [esi+1132]
  0004d	f3 0f 11 45 d0	 movss	 DWORD PTR tv434[ebp], xmm0

; 182  :     z = fz;

  00052	f3 0f 10 86 70
	04 00 00	 movss	 xmm0, DWORD PTR [esi+1136]
; File C:\Marty 5.5\Src-Client\Client\GameLib\ActorInstanceMotionEvent.cpp

; 324  : 		const D3DXVECTOR3 & c_rv3TargetPosition = __GetFlyTargetPosition();

  0005a	50		 push	 eax
; File C:\Marty 5.5\Src-Client\extern\include\d3dx8math.inl

; 182  :     z = fz;

  0005b	f3 0f 11 45 cc	 movss	 DWORD PTR tv435[ebp], xmm0
; File C:\Marty 5.5\Src-Client\Client\GameLib\ActorInstanceMotionEvent.cpp

; 324  : 		const D3DXVECTOR3 & c_rv3TargetPosition = __GetFlyTargetPosition();

  00060	e8 00 00 00 00	 call	 ?__GetFlyTargetPosition@CActorInstance@@IAE?AUD3DXVECTOR3@@XZ ; CActorInstance::__GetFlyTargetPosition
; File C:\Marty 5.5\Src-Client\extern\include\d3dx8math.inl

; 263  :     return D3DXVECTOR3(x - v.x, y - v.y, z - v.z);

  00065	f3 0f 10 45 f0	 movss	 xmm0, DWORD PTR _$S1$3[ebp]
; File C:\Marty 5.5\Src-Client\Client\GameLib\ActorInstanceMotionEvent.cpp

; 327  : 		D3DXVec3Normalize(&v3Distance, &v3Distance);

  0006a	8d 45 e4	 lea	 eax, DWORD PTR _v3Distance$2[ebp]
; File C:\Marty 5.5\Src-Client\extern\include\d3dx8math.inl

; 263  :     return D3DXVECTOR3(x - v.x, y - v.y, z - v.z);

  0006d	f3 0f 5c 45 d4	 subss	 xmm0, DWORD PTR tv436[ebp]
; File C:\Marty 5.5\Src-Client\Client\GameLib\ActorInstanceMotionEvent.cpp

; 327  : 		D3DXVec3Normalize(&v3Distance, &v3Distance);

  00072	50		 push	 eax
  00073	50		 push	 eax
; File C:\Marty 5.5\Src-Client\extern\include\d3dx8math.inl

; 180  :     x = fx;

  00074	f3 0f 11 45 e4	 movss	 DWORD PTR _v3Distance$2[ebp], xmm0

; 263  :     return D3DXVECTOR3(x - v.x, y - v.y, z - v.z);

  00079	f3 0f 10 45 f4	 movss	 xmm0, DWORD PTR _$S1$3[ebp+4]
  0007e	f3 0f 5c 45 d0	 subss	 xmm0, DWORD PTR tv434[ebp]

; 181  :     y = fy;

  00083	f3 0f 11 45 e8	 movss	 DWORD PTR _v3Distance$2[ebp+4], xmm0

; 263  :     return D3DXVECTOR3(x - v.x, y - v.y, z - v.z);

  00088	f3 0f 10 45 f8	 movss	 xmm0, DWORD PTR _$S1$3[ebp+8]
  0008d	f3 0f 5c 45 cc	 subss	 xmm0, DWORD PTR tv435[ebp]

; 182  :     z = fz;

  00092	f3 0f 11 45 ec	 movss	 DWORD PTR _v3Distance$2[ebp+8], xmm0
; File C:\Marty 5.5\Src-Client\Client\GameLib\ActorInstanceMotionEvent.cpp

; 327  : 		D3DXVec3Normalize(&v3Distance, &v3Distance);

  00097	e8 00 00 00 00	 call	 _D3DXVec3Normalize@8
; File C:\Marty 5.5\Src-Client\extern\include\d3dx8math.inl

; 269  :     return D3DXVECTOR3(x * f, y * f, z * f);

  0009c	f3 0f 10 15 00
	00 00 00	 movss	 xmm2, DWORD PTR __real@43870000
  000a4	f3 0f 10 4d e4	 movss	 xmm1, DWORD PTR _v3Distance$2[ebp]

; 263  :     return D3DXVECTOR3(x - v.x, y - v.y, z - v.z);

  000a9	f3 0f 10 45 f0	 movss	 xmm0, DWORD PTR _$S1$3[ebp]

; 269  :     return D3DXVECTOR3(x * f, y * f, z * f);

  000ae	f3 0f 59 ca	 mulss	 xmm1, xmm2

; 263  :     return D3DXVECTOR3(x - v.x, y - v.y, z - v.z);

  000b2	f3 0f 5c c1	 subss	 xmm0, xmm1

; 269  :     return D3DXVECTOR3(x * f, y * f, z * f);

  000b6	f3 0f 10 4d e8	 movss	 xmm1, DWORD PTR _v3Distance$2[ebp+4]
  000bb	f3 0f 59 ca	 mulss	 xmm1, xmm2

; 180  :     x = fx;

  000bf	f3 0f 11 45 d8	 movss	 DWORD PTR _DestPixelPosition$1[ebp], xmm0

; 263  :     return D3DXVECTOR3(x - v.x, y - v.y, z - v.z);

  000c4	f3 0f 10 45 f4	 movss	 xmm0, DWORD PTR _$S1$3[ebp+4]
  000c9	f3 0f 5c c1	 subss	 xmm0, xmm1

; 269  :     return D3DXVECTOR3(x * f, y * f, z * f);

  000cd	f3 0f 10 4d ec	 movss	 xmm1, DWORD PTR _v3Distance$2[ebp+8]
  000d2	f3 0f 59 ca	 mulss	 xmm1, xmm2

; 181  :     y = fy;

  000d6	f3 0f 11 45 dc	 movss	 DWORD PTR _DestPixelPosition$1[ebp+4], xmm0

; 263  :     return D3DXVECTOR3(x - v.x, y - v.y, z - v.z);

  000db	f3 0f 10 45 f8	 movss	 xmm0, DWORD PTR _$S1$3[ebp+8]
  000e0	f3 0f 5c c1	 subss	 xmm0, xmm1

; 182  :     z = fz;

  000e4	f3 0f 11 45 e0	 movss	 DWORD PTR _DestPixelPosition$1[ebp+8], xmm0
; File C:\Marty 5.5\Src-Client\Client\GameLib\ActorInstanceMotionEvent.cpp

; 330  : 		IBackground& rkBG=GetBackground();

  000e9	e8 00 00 00 00	 call	 ?GetBackground@CActorInstance@@CAAAVIBackground@@XZ ; CActorInstance::GetBackground

; 331  : 		if (!rkBG.IsBlock(DestPixelPosition.x, -DestPixelPosition.y))

  000ee	f3 0f 10 45 dc	 movss	 xmm0, DWORD PTR _DestPixelPosition$1[ebp+4]
  000f3	0f 57 05 00 00
	00 00		 xorps	 xmm0, DWORD PTR __xmm@80000000800000008000000080000000
  000fa	f3 0f 2c c8	 cvttss2si ecx, xmm0
  000fe	8b 10		 mov	 edx, DWORD PTR [eax]
  00100	51		 push	 ecx
  00101	f3 0f 2c 4d d8	 cvttss2si ecx, DWORD PTR _DestPixelPosition$1[ebp]
  00106	51		 push	 ecx
  00107	8b c8		 mov	 ecx, eax
  00109	8b 42 04	 mov	 eax, DWORD PTR [edx+4]
  0010c	ff d0		 call	 eax
  0010e	84 c0		 test	 al, al
  00110	75 0b		 jne	 SHORT $LN5@ProcessMot

; 332  : 			SetPixelPosition(DestPixelPosition);

  00112	8d 45 d8	 lea	 eax, DWORD PTR _DestPixelPosition$1[ebp]
  00115	8b ce		 mov	 ecx, esi
  00117	50		 push	 eax
  00118	e8 00 00 00 00	 call	 ?SetPixelPosition@CActorInstance@@QAEXABUD3DXVECTOR3@@@Z ; CActorInstance::SetPixelPosition
$LN5@ProcessMot:

; 333  : 
; 334  : 		LookAt(c_rv3TargetPosition.x, c_rv3TargetPosition.y);

  0011d	f3 0f 10 45 f4	 movss	 xmm0, DWORD PTR _$S1$3[ebp+4]
  00122	83 ec 08	 sub	 esp, 8
  00125	8b ce		 mov	 ecx, esi
  00127	f3 0f 11 44 24
	04		 movss	 DWORD PTR [esp+4], xmm0
  0012d	f3 0f 10 45 f0	 movss	 xmm0, DWORD PTR _$S1$3[ebp]
  00132	f3 0f 11 04 24	 movss	 DWORD PTR [esp], xmm0
  00137	e8 00 00 00 00	 call	 ?LookAt@CActorInstance@@QAEXMM@Z ; CActorInstance::LookAt

; 335  : 
; 336  : 		__OnWarp();

  0013c	8b ce		 mov	 ecx, esi
  0013e	e8 00 00 00 00	 call	 ?__OnWarp@CActorInstance@@QAEXXZ ; CActorInstance::__OnWarp
$LN3@ProcessMot:

; 337  : 	}
; 338  : 	else
; 339  : 	{
; 340  : 		//TraceError("ActorInstance::ProcessMotionEventFly No Target");
; 341  : 	}
; 342  : }

  00143	8b 4d fc	 mov	 ecx, DWORD PTR __$ArrayPad$[ebp]
  00146	33 cd		 xor	 ecx, ebp
  00148	5e		 pop	 esi
  00149	e8 00 00 00 00	 call	 @__security_check_cookie@4
  0014e	8b e5		 mov	 esp, ebp
  00150	5d		 pop	 ebp
  00151	c2 04 00	 ret	 4
?ProcessMotionEventWarp@CActorInstance@@IAEXPBUSMotionEventData@NMotionEvent@@@Z ENDP ; CActorInstance::ProcessMotionEventWarp
_TEXT	ENDS
; Function compile flags: /Ogtp
; File C:\Marty 5.5\Src-Client\Client\GameLib\ActorInstanceMotionEvent.cpp
; File C:\Marty 5.5\Src-Client\extern\include\d3dx8math.inl
; File C:\Marty 5.5\Src-Client\Client\GameLib\ActorInstanceMotionEvent.cpp
; File C:\Marty 5.5\Src-Client\extern\include\d3dx8math.inl
; File C:\Marty 5.5\Src-Client\Client\GameLib\ActorInstanceMotionEvent.cpp
; File C:\Program Files\Microsoft Visual Studio\2022\Community\VC\Tools\MSVC\14.37.32822\include\xstring
; File C:\Marty 5.5\Src-Client\Client\GameLib\ActorInstanceMotionEvent.cpp
;	COMDAT ?ProcessMotionEventFly@CActorInstance@@IAEXPBUSMotionEventData@NMotionEvent@@@Z
_TEXT	SEGMENT
_rfm$1$ = -28						; size = 4
_pBoneMat$1 = -24					; size = 4
_iBoneIndex$2 = -20					; size = 4
_v3Start$3 = -16					; size = 12
__$ArrayPad$ = -4					; size = 4
_c_pData$ = 8						; size = 4
?ProcessMotionEventFly@CActorInstance@@IAEXPBUSMotionEventData@NMotionEvent@@@Z PROC ; CActorInstance::ProcessMotionEventFly, COMDAT
; _this$ = ecx

; 267  : {

  00000	55		 push	 ebp
  00001	8b ec		 mov	 ebp, esp
  00003	83 ec 1c	 sub	 esp, 28			; 0000001cH
  00006	a1 00 00 00 00	 mov	 eax, DWORD PTR ___security_cookie
  0000b	33 c5		 xor	 eax, ebp
  0000d	89 45 fc	 mov	 DWORD PTR __$ArrayPad$[ebp], eax
  00010	56		 push	 esi
  00011	57		 push	 edi
  00012	8b 7d 08	 mov	 edi, DWORD PTR _c_pData$[ebp]
  00015	8b f1		 mov	 esi, ecx

; 268  : 	if (CRaceMotionData::MOTION_EVENT_TYPE_FLY != c_pData->iType)

  00017	83 7f 04 06	 cmp	 DWORD PTR [edi+4], 6
  0001b	0f 85 09 01 00
	00		 jne	 $LN9@ProcessMot

; 269  : 		return;
; 270  : 
; 271  : 	const CRaceMotionData::TMotionFlyEventData * c_pFlyData = (const CRaceMotionData::TMotionFlyEventData *)c_pData;
; 272  : 
; 273  : 	if (m_kFlyTarget.IsValidTarget())

  00021	53		 push	 ebx
  00022	8d 9e b8 02 00
	00		 lea	 ebx, DWORD PTR [esi+696]
  00028	8b cb		 mov	 ecx, ebx
  0002a	e8 00 00 00 00	 call	 ?IsValidTarget@CFlyTarget@@QAE_NXZ ; CFlyTarget::IsValidTarget
  0002f	84 c0		 test	 al, al
  00031	0f 84 f2 00 00
	00		 je	 $LN29@ProcessMot

; 280  : 		if (c_pFlyData->isAttaching)

  00037	83 7f 14 00	 cmp	 DWORD PTR [edi+20], 0
  0003b	f3 0f 7e 47 30	 movq	 xmm0, QWORD PTR [edi+48]
  00040	a1 00 00 00 00	 mov	 eax, DWORD PTR ?ms_singleton@?$CSingleton@VCFlyingManager@@@@0PAVCFlyingManager@@A ; CSingleton<CFlyingManager>::ms_singleton
  00045	66 0f d6 45 f0	 movq	 QWORD PTR _v3Start$3[ebp], xmm0
; File C:\Marty 5.5\Src-Client\extern\include\d3dx8math.inl

; 204  :     x += v.x;

  0004a	f3 0f 10 45 f0	 movss	 xmm0, DWORD PTR _v3Start$3[ebp]
  0004f	f3 0f 58 46 04	 addss	 xmm0, DWORD PTR [esi+4]
; File C:\Marty 5.5\Src-Client\Client\GameLib\ActorInstanceMotionEvent.cpp

; 275  : 		CFlyingManager & rfm = CFlyingManager::Instance();

  00054	89 45 e4	 mov	 DWORD PTR _rfm$1$[ebp], eax

; 276  : 
; 277  : 		D3DXVECTOR3 v3Start(c_pFlyData->v3FlyPosition);

  00057	8b 47 38	 mov	 eax, DWORD PTR [edi+56]
  0005a	89 45 f8	 mov	 DWORD PTR _v3Start$3[ebp+8], eax
; File C:\Marty 5.5\Src-Client\extern\include\d3dx8math.inl

; 204  :     x += v.x;

  0005d	f3 0f 11 45 f0	 movss	 DWORD PTR _v3Start$3[ebp], xmm0

; 205  :     y += v.y;

  00062	f3 0f 10 45 f4	 movss	 xmm0, DWORD PTR _v3Start$3[ebp+4]
  00067	f3 0f 58 46 08	 addss	 xmm0, DWORD PTR [esi+8]
  0006c	f3 0f 11 45 f4	 movss	 DWORD PTR _v3Start$3[ebp+4], xmm0

; 206  :     z += v.z;

  00071	f3 0f 10 45 f8	 movss	 xmm0, DWORD PTR _v3Start$3[ebp+8]
  00076	f3 0f 58 46 0c	 addss	 xmm0, DWORD PTR [esi+12]
  0007b	f3 0f 11 45 f8	 movss	 DWORD PTR _v3Start$3[ebp+8], xmm0
; File C:\Marty 5.5\Src-Client\Client\GameLib\ActorInstanceMotionEvent.cpp

; 280  : 		if (c_pFlyData->isAttaching)

  00080	74 61		 je	 SHORT $LN7@ProcessMot
; File C:\Program Files\Microsoft Visual Studio\2022\Community\VC\Tools\MSVC\14.37.32822\include\xstring

; 2244 :         return _BUF_SIZE <= _Myres;

  00082	83 7f 2c 10	 cmp	 DWORD PTR [edi+44], 16	; 00000010H

; 4107 :         return _Mypair._Myval2._Myptr();

  00086	8d 47 18	 lea	 eax, DWORD PTR [edi+24]

; 2236 :         if (_Large_string_engaged()) {

  00089	72 02		 jb	 SHORT $LN16@ProcessMot

; 2237 :             _Result = _Unfancy(_Bx._Ptr);

  0008b	8b 00		 mov	 eax, DWORD PTR [eax]
$LN16@ProcessMot:
; File C:\Marty 5.5\Src-Client\Client\GameLib\ActorInstanceMotionEvent.cpp

; 286  : 			if (FindBoneIndex(dwPartIndex, c_pFlyData->strAttachingBoneName.c_str(), &iBoneIndex))

  0008d	8d 4d ec	 lea	 ecx, DWORD PTR _iBoneIndex$2[ebp]
  00090	51		 push	 ecx
  00091	50		 push	 eax
  00092	6a 00		 push	 0
  00094	8b ce		 mov	 ecx, esi
  00096	e8 00 00 00 00	 call	 ?FindBoneIndex@CGraphicThingInstance@@QAE_NHPBDPAH@Z ; CGraphicThingInstance::FindBoneIndex
  0009b	84 c0		 test	 al, al
  0009d	74 44		 je	 SHORT $LN7@ProcessMot

; 287  : 			if (GetBoneMatrix(dwPartIndex,iBoneIndex,&pBoneMat))

  0009f	8d 45 e8	 lea	 eax, DWORD PTR _pBoneMat$1[ebp]
  000a2	8b ce		 mov	 ecx, esi
  000a4	50		 push	 eax
  000a5	ff 75 ec	 push	 DWORD PTR _iBoneIndex$2[ebp]
  000a8	6a 00		 push	 0
  000aa	e8 00 00 00 00	 call	 ?GetBoneMatrix@CGraphicThingInstance@@QAEHKKPAPAUD3DXMATRIX@@@Z ; CGraphicThingInstance::GetBoneMatrix
  000af	85 c0		 test	 eax, eax
  000b1	74 30		 je	 SHORT $LN7@ProcessMot

; 288  : 			{
; 289  : 				v3Start.x += pBoneMat->_41;

  000b3	8b 45 e8	 mov	 eax, DWORD PTR _pBoneMat$1[ebp]
  000b6	f3 0f 10 45 f0	 movss	 xmm0, DWORD PTR _v3Start$3[ebp]
  000bb	f3 0f 58 40 30	 addss	 xmm0, DWORD PTR [eax+48]
  000c0	f3 0f 11 45 f0	 movss	 DWORD PTR _v3Start$3[ebp], xmm0

; 290  : 				v3Start.y += pBoneMat->_42;

  000c5	f3 0f 10 45 f4	 movss	 xmm0, DWORD PTR _v3Start$3[ebp+4]
  000ca	f3 0f 58 40 34	 addss	 xmm0, DWORD PTR [eax+52]
  000cf	f3 0f 11 45 f4	 movss	 DWORD PTR _v3Start$3[ebp+4], xmm0

; 291  : 				v3Start.z += pBoneMat->_43;

  000d4	f3 0f 10 45 f8	 movss	 xmm0, DWORD PTR _v3Start$3[ebp+8]
  000d9	f3 0f 58 40 38	 addss	 xmm0, DWORD PTR [eax+56]
  000de	f3 0f 11 45 f8	 movss	 DWORD PTR _v3Start$3[ebp+8], xmm0
$LN7@ProcessMot:

; 292  : 			}
; 293  : 		}
; 294  : 
; 295  : 		CFlyingInstance * pInstance = rfm.CreateFlyingInstanceFlyTarget(c_pFlyData->dwFlyIndex,v3Start,m_kFlyTarget,true);

  000e3	8b 4d e4	 mov	 ecx, DWORD PTR _rfm$1$[ebp]
  000e6	8d 45 f0	 lea	 eax, DWORD PTR _v3Start$3[ebp]
  000e9	6a 01		 push	 1
  000eb	53		 push	 ebx
  000ec	50		 push	 eax
  000ed	ff 77 3c	 push	 DWORD PTR [edi+60]
  000f0	e8 00 00 00 00	 call	 ?CreateFlyingInstanceFlyTarget@CFlyingManager@@QAEPAVCFlyingInstance@@KABUD3DXVECTOR3@@ABVCFlyTarget@@_N@Z ; CFlyingManager::CreateFlyingInstanceFlyTarget

; 296  : 		if (pInstance)

  000f5	85 c0		 test	 eax, eax
  000f7	74 1b		 je	 SHORT $LN20@ProcessMot

; 297  : 		{
; 298  : 			pInstance->SetEventHandler(m_pFlyEventHandler);

  000f9	8b 8e b4 02 00
	00		 mov	 ecx, DWORD PTR [esi+692]
  000ff	89 88 94 00 00
	00		 mov	 DWORD PTR [eax+148], ecx

; 299  : 			pInstance->SetOwner(this);

  00105	89 b0 98 00 00
	00		 mov	 DWORD PTR [eax+152], esi

; 300  : 			pInstance->SetSkillIndex(m_kCurMotNode.uSkill);

  0010b	8b 8e 30 03 00
	00		 mov	 ecx, DWORD PTR [esi+816]
  00111	89 48 28	 mov	 DWORD PTR [eax+40], ecx
$LN20@ProcessMot:

; 301  : 		}
; 302  : 
; 303  : 		if (m_pFlyEventHandler)

  00114	8b 8e b4 02 00
	00		 mov	 ecx, DWORD PTR [esi+692]
  0011a	85 c9		 test	 ecx, ecx
  0011c	74 0b		 je	 SHORT $LN29@ProcessMot

; 304  : 		{
; 305  : 			m_pFlyEventHandler->OnShoot(m_kCurMotNode.uSkill);

  0011e	8b 01		 mov	 eax, DWORD PTR [ecx]
  00120	ff b6 30 03 00
	00		 push	 DWORD PTR [esi+816]
  00126	ff 50 08	 call	 DWORD PTR [eax+8]
$LN29@ProcessMot:
  00129	5b		 pop	 ebx
$LN9@ProcessMot:

; 306  : 		}
; 307  : 	}
; 308  : 	else
; 309  : 	{
; 310  : 		//TraceError("ActorInstance::ProcessMotionEventFly No Target");
; 311  : 	}
; 312  : }

  0012a	8b 4d fc	 mov	 ecx, DWORD PTR __$ArrayPad$[ebp]
  0012d	5f		 pop	 edi
  0012e	33 cd		 xor	 ecx, ebp
  00130	5e		 pop	 esi
  00131	e8 00 00 00 00	 call	 @__security_check_cookie@4
  00136	8b e5		 mov	 esp, ebp
  00138	5d		 pop	 ebp
  00139	c2 04 00	 ret	 4
?ProcessMotionEventFly@CActorInstance@@IAEXPBUSMotionEventData@NMotionEvent@@@Z ENDP ; CActorInstance::ProcessMotionEventFly
_TEXT	ENDS
; Function compile flags: /Ogtp
; File C:\Marty 5.5\Src-Client\Client\GameLib\ActorInstanceMotionEvent.cpp
; File C:\Program Files\Microsoft Visual Studio\2022\Community\VC\Tools\MSVC\14.37.32822\include\xstring
; File C:\Marty 5.5\Src-Client\Client\GameLib\ActorInstanceMotionEvent.cpp
; File C:\Program Files\Microsoft Visual Studio\2022\Community\VC\Tools\MSVC\14.37.32822\include\xstring
; File C:\Marty 5.5\Src-Client\Client\GameLib\ActorInstanceMotionEvent.cpp
;	COMDAT ?ProcessMotionEventSound@CActorInstance@@IAEXPBUSMotionEventData@NMotionEvent@@@Z
_TEXT	SEGMENT
_c_pData$ = 8						; size = 4
?ProcessMotionEventSound@CActorInstance@@IAEXPBUSMotionEventData@NMotionEvent@@@Z PROC ; CActorInstance::ProcessMotionEventSound, COMDAT
; _this$ = ecx

; 256  : {

  00000	55		 push	 ebp
  00001	8b ec		 mov	 ebp, esp
  00003	56		 push	 esi

; 257  : 	if (CRaceMotionData::MOTION_EVENT_TYPE_SOUND != c_pData->iType)

  00004	8b 75 08	 mov	 esi, DWORD PTR _c_pData$[ebp]
  00007	57		 push	 edi
  00008	8b f9		 mov	 edi, ecx
  0000a	83 7e 04 05	 cmp	 DWORD PTR [esi+4], 5
  0000e	75 5d		 jne	 SHORT $LN1@ProcessMot
; File C:\Program Files\Microsoft Visual Studio\2022\Community\VC\Tools\MSVC\14.37.32822\include\xstring

; 4107 :         return _Mypair._Myval2._Myptr();

  00010	83 c6 14	 add	 esi, 20			; 00000014H

; 2235 :         const value_type* _Result = _Bx._Buf;

  00013	8b c6		 mov	 eax, esi

; 2244 :         return _BUF_SIZE <= _Myres;

  00015	83 7e 14 10	 cmp	 DWORD PTR [esi+20], 16	; 00000010H

; 2236 :         if (_Large_string_engaged()) {

  00019	72 02		 jb	 SHORT $LN19@ProcessMot

; 2237 :             _Result = _Unfancy(_Bx._Ptr);

  0001b	8b 06		 mov	 eax, DWORD PTR [esi]
$LN19@ProcessMot:
; File C:\Marty 5.5\Src-Client\Client\GameLib\ActorInstanceMotionEvent.cpp

; 262  : 	Tracenf("PLAY SOUND: %s", c_pSoundData->strSoundFileName.c_str());

  0001d	50		 push	 eax
  0001e	68 00 00 00 00	 push	 OFFSET ??_C@_0P@DFKIDCNE@PLAY?5SOUND?3?5?$CFs@
  00023	e8 00 00 00 00	 call	 ?Tracenf@@YAXPBDZZ	; Tracenf
  00028	83 c4 08	 add	 esp, 8
; File C:\Program Files\Microsoft Visual Studio\2022\Community\VC\Tools\MSVC\14.37.32822\include\xstring

; 2244 :         return _BUF_SIZE <= _Myres;

  0002b	83 7e 14 10	 cmp	 DWORD PTR [esi+20], 16	; 00000010H

; 2236 :         if (_Large_string_engaged()) {

  0002f	72 02		 jb	 SHORT $LN14@ProcessMot

; 2237 :             _Result = _Unfancy(_Bx._Ptr);

  00031	8b 36		 mov	 esi, DWORD PTR [esi]
$LN14@ProcessMot:
; File C:\Marty 5.5\Src-Client\Client\GameLib\ActorInstanceMotionEvent.cpp

; 263  : 	CSoundManager::Instance().PlaySound3D(m_x, m_y, m_z, c_pSoundData->strSoundFileName.c_str());

  00033	f3 0f 10 87 70
	04 00 00	 movss	 xmm0, DWORD PTR [edi+1136]
  0003b	8b 0d 00 00 00
	00		 mov	 ecx, DWORD PTR ?ms_singleton@?$CSingleton@VCSoundManager@@@@0PAVCSoundManager@@A ; CSingleton<CSoundManager>::ms_singleton
  00041	6a 01		 push	 1
  00043	56		 push	 esi
  00044	83 ec 0c	 sub	 esp, 12			; 0000000cH
  00047	f3 0f 11 44 24
	08		 movss	 DWORD PTR [esp+8], xmm0
  0004d	f3 0f 10 87 6c
	04 00 00	 movss	 xmm0, DWORD PTR [edi+1132]
  00055	f3 0f 11 44 24
	04		 movss	 DWORD PTR [esp+4], xmm0
  0005b	f3 0f 10 87 68
	04 00 00	 movss	 xmm0, DWORD PTR [edi+1128]
  00063	f3 0f 11 04 24	 movss	 DWORD PTR [esp], xmm0
  00068	e8 00 00 00 00	 call	 ?PlaySound3D@CSoundManager@@QAEXMMMPBDH@Z ; CSoundManager::PlaySound3D
$LN1@ProcessMot:

; 264  : }

  0006d	5f		 pop	 edi
  0006e	5e		 pop	 esi
  0006f	5d		 pop	 ebp
  00070	c2 04 00	 ret	 4
?ProcessMotionEventSound@CActorInstance@@IAEXPBUSMotionEventData@NMotionEvent@@@Z ENDP ; CActorInstance::ProcessMotionEventSound
_TEXT	ENDS
; Function compile flags: /Ogtp
; File C:\Marty 5.5\Src-Client\Client\GameLib\ActorInstanceMotionEvent.cpp
; File C:\Program Files\Microsoft Visual Studio\2022\Community\VC\Tools\MSVC\14.37.32822\include\xtree
; File C:\Program Files\Microsoft Visual Studio\2022\Community\VC\Tools\MSVC\14.37.32822\include\utility
; File C:\Program Files\Microsoft Visual Studio\2022\Community\VC\Tools\MSVC\14.37.32822\include\xmemory
; File C:\Program Files\Microsoft Visual Studio\2022\Community\VC\Tools\MSVC\14.37.32822\include\xtree
; File C:\Program Files\Microsoft Visual Studio\2022\Community\VC\Tools\MSVC\14.37.32822\include\vector
; File C:\Program Files\Microsoft Visual Studio\2022\Community\VC\Tools\MSVC\14.37.32822\include\xtree
; File C:\Program Files\Microsoft Visual Studio\2022\Community\VC\Tools\MSVC\14.37.32822\include\vector
; File C:\Program Files\Microsoft Visual Studio\2022\Community\VC\Tools\MSVC\14.37.32822\include\xmemory
; File C:\Program Files\Microsoft Visual Studio\2022\Community\VC\Tools\MSVC\14.37.32822\include\vector
; File C:\Program Files\Microsoft Visual Studio\2022\Community\VC\Tools\MSVC\14.37.32822\include\xmemory
; File C:\Program Files\Microsoft Visual Studio\2022\Community\VC\Tools\MSVC\14.37.32822\include\vector
; File C:\Marty 5.5\Src-Client\Client\GameLib\ActorInstanceMotionEvent.cpp
; File C:\Program Files\Microsoft Visual Studio\2022\Community\VC\Tools\MSVC\14.37.32822\include\vector
; File C:\Marty 5.5\Src-Client\Client\GameLib\ActorInstanceMotionEvent.cpp
; File C:\Program Files (x86)\Windows Kits\10\Include\10.0.22621.0\ucrt\corecrt_math.h
; File C:\Program Files\Microsoft Visual Studio\2022\Community\VC\Tools\MSVC\14.37.32822\include\vector
; File C:\Marty 5.5\Src-Client\Client\GameLib\ActorInstanceMotionEvent.cpp
; File C:\Program Files\Microsoft Visual Studio\2022\Community\VC\Tools\MSVC\14.37.32822\include\vector
; File C:\Marty 5.5\Src-Client\Client\GameLib\ActorInstanceMotionEvent.cpp
; File C:\Program Files\Microsoft Visual Studio\2022\Community\VC\Tools\MSVC\14.37.32822\include\vector
; File C:\Marty 5.5\Src-Client\Client\GameLib\ActorInstanceMotionEvent.cpp
; File C:\Program Files\Microsoft Visual Studio\2022\Community\VC\Tools\MSVC\14.37.32822\include\vector
; File C:\Marty 5.5\Src-Client\Client\GameLib\ActorInstanceMotionEvent.cpp
;	COMDAT ?ProcessMotionEventSpecialAttacking@CActorInstance@@IAEXHPBUSMotionEventData@NMotionEvent@@@Z
_TEXT	SEGMENT
tv732 = -20						; size = 4
__Oldsize$1$ = -16					; size = 4
tv731 = -16						; size = 4
tv719 = -12						; size = 4
_fRadian$ = -12						; size = 4
__Backout$1$sroa$435$1$ = -8				; size = 4
__Head$1$ = -8						; size = 4
_i$1$ = -8						; size = 4
$T2 = -1						; size = 1
_iMotionEventIndex$ = 8					; size = 4
tv720 = 12						; size = 4
_c_pData$ = 12						; size = 4
?ProcessMotionEventSpecialAttacking@CActorInstance@@IAEXHPBUSMotionEventData@NMotionEvent@@@Z PROC ; CActorInstance::ProcessMotionEventSpecialAttacking, COMDAT
; _this$ = ecx

; 224  : {

  00000	55		 push	 ebp
  00001	8b ec		 mov	 ebp, esp
  00003	83 ec 14	 sub	 esp, 20			; 00000014H
  00006	53		 push	 ebx
  00007	56		 push	 esi

; 225  : 	if (CRaceMotionData::MOTION_EVENT_TYPE_SPECIAL_ATTACKING != c_pData->iType)

  00008	8b 75 0c	 mov	 esi, DWORD PTR _c_pData$[ebp]
  0000b	8b d9		 mov	 ebx, ecx
  0000d	83 7e 04 04	 cmp	 DWORD PTR [esi+4], 4
  00011	0f 85 63 02 00
	00		 jne	 $LN3@ProcessMot

; 226  : 		return;
; 227  : 
; 228  : 	const CRaceMotionData::TMotionAttackingEventData * c_pAttackingData = (const CRaceMotionData::TMotionAttackingEventData *)c_pData;
; 229  : 
; 230  : 	float fRadian = D3DXToRadian(270.0f + 360.0f - GetRotation());

  00017	57		 push	 edi
  00018	e8 00 00 00 00	 call	 ?GetRotation@CActorInstance@@QAEMXZ ; CActorInstance::GetRotation
  0001d	d8 2d 00 00 00
	00		 fsubr	 DWORD PTR __real@441d8000

; 231  : 	m_kSplashArea.isEnableHitProcess=c_pAttackingData->isEnableHitProcess;

  00023	8b 46 40	 mov	 eax, DWORD PTR [esi+64]

; 232  : 	m_kSplashArea.uSkill=m_kCurMotNode.uSkill;
; 233  : 	m_kSplashArea.MotionKey = m_kCurMotNode.dwMotionKey;
; 234  : 	m_kSplashArea.fDisappearingTime = GetLocalTime() + c_pAttackingData->fDurationTime;

  00026	8b cb		 mov	 ecx, ebx
  00028	89 83 48 03 00
	00		 mov	 DWORD PTR [ebx+840], eax
  0002e	8b 83 30 03 00
	00		 mov	 eax, DWORD PTR [ebx+816]
  00034	89 83 4c 03 00
	00		 mov	 DWORD PTR [ebx+844], eax
  0003a	d8 0d 00 00 00
	00		 fmul	 DWORD PTR __real@3c8efa35
  00040	8b 83 14 03 00
	00		 mov	 eax, DWORD PTR [ebx+788]
  00046	89 83 50 03 00
	00		 mov	 DWORD PTR [ebx+848], eax
  0004c	d9 5d f4	 fstp	 DWORD PTR _fRadian$[ebp]
  0004f	e8 00 00 00 00	 call	 ?GetLocalTime@CGraphicThingInstance@@QAEMXZ ; CGraphicThingInstance::GetLocalTime
  00054	8b c6		 mov	 eax, esi

; 235  : 	m_kSplashArea.c_pAttackingEvent = c_pAttackingData;
; 236  : 	m_kSplashArea.HittedInstanceMap.clear();

  00056	8d bb 68 03 00
	00		 lea	 edi, DWORD PTR [ebx+872]
  0005c	d8 40 10	 fadd	 DWORD PTR [eax+16]
  0005f	89 83 58 03 00
	00		 mov	 DWORD PTR [ebx+856], eax
  00065	d9 9b 54 03 00
	00		 fstp	 DWORD PTR [ebx+852]
; File C:\Program Files\Microsoft Visual Studio\2022\Community\VC\Tools\MSVC\14.37.32822\include\xtree

; 1357 :         auto _Head = _Scary->_Myhead;

  0006b	8b 0f		 mov	 ecx, DWORD PTR [edi]
  0006d	89 4d f8	 mov	 DWORD PTR __Head$1$[ebp], ecx

; 1358 :         _Scary->_Erase_tree(_Getal(), _Head->_Parent);

  00070	8b 71 04	 mov	 esi, DWORD PTR [ecx+4]

; 745  :         while (!_Rootnode->_Isnil) { // free subtrees, then node

  00073	80 7e 0d 00	 cmp	 BYTE PTR [esi+13], 0
  00077	75 2d		 jne	 SHORT $LN11@ProcessMot
  00079	0f 1f 80 00 00
	00 00		 npad	 7
$LL10@ProcessMot:

; 746  :             _Erase_tree(_Al, _Rootnode->_Right);

  00080	ff 76 08	 push	 DWORD PTR [esi+8]
  00083	8b cf		 mov	 ecx, edi
  00085	57		 push	 edi
  00086	e8 00 00 00 00	 call	 ??$_Erase_tree@V?$allocator@U?$_Tree_node@U?$pair@QAVCActorInstance@@M@std@@PAX@std@@@std@@@?$_Tree_val@U?$_Tree_simple_types@U?$pair@QAVCActorInstance@@M@std@@@std@@@std@@QAEXAAV?$allocator@U?$_Tree_node@U?$pair@QAVCActorInstance@@M@std@@PAX@std@@@1@PAU?$_Tree_node@U?$pair@QAVCActorInstance@@M@std@@PAX@1@@Z ; std::_Tree_val<std::_Tree_simple_types<std::pair<CActorInstance * const,float> > >::_Erase_tree<std::allocator<std::_Tree_node<std::pair<CActorInstance * const,float>,void *> > >
; File C:\Program Files\Microsoft Visual Studio\2022\Community\VC\Tools\MSVC\14.37.32822\include\utility

; 754  :     _Ty _Old_val = static_cast<_Ty&&>(_Val);

  0008b	8b c6		 mov	 eax, esi

; 755  :     _Val         = static_cast<_Other&&>(_New_val);

  0008d	8b 36		 mov	 esi, DWORD PTR [esi]
; File C:\Program Files\Microsoft Visual Studio\2022\Community\VC\Tools\MSVC\14.37.32822\include\xmemory

; 265  :         ::operator delete(_Ptr, _Bytes);

  0008f	6a 18		 push	 24			; 00000018H
  00091	50		 push	 eax
  00092	e8 00 00 00 00	 call	 ??3@YAXPAXI@Z		; operator delete
  00097	83 c4 08	 add	 esp, 8
; File C:\Program Files\Microsoft Visual Studio\2022\Community\VC\Tools\MSVC\14.37.32822\include\xtree

; 745  :         while (!_Rootnode->_Isnil) { // free subtrees, then node

  0009a	80 7e 0d 00	 cmp	 BYTE PTR [esi+13], 0
  0009e	74 e0		 je	 SHORT $LL10@ProcessMot
  000a0	8b 45 0c	 mov	 eax, DWORD PTR _c_pData$[ebp]
  000a3	8b 4d f8	 mov	 ecx, DWORD PTR __Head$1$[ebp]
$LN11@ProcessMot:

; 1359 :         _Head->_Parent  = _Head;

  000a6	89 49 04	 mov	 DWORD PTR [ecx+4], ecx
; File C:\Program Files\Microsoft Visual Studio\2022\Community\VC\Tools\MSVC\14.37.32822\include\vector

; 1762 :         auto& _My_data    = _Mypair._Myval2;

  000a9	8d b3 5c 03 00
	00		 lea	 esi, DWORD PTR [ebx+860]
; File C:\Program Files\Microsoft Visual Studio\2022\Community\VC\Tools\MSVC\14.37.32822\include\xtree

; 1360 :         _Head->_Left    = _Head;

  000af	89 09		 mov	 DWORD PTR [ecx], ecx

; 1361 :         _Head->_Right   = _Head;

  000b1	89 49 08	 mov	 DWORD PTR [ecx+8], ecx

; 1362 :         _Scary->_Mysize = 0;

  000b4	c7 47 04 00 00
	00 00		 mov	 DWORD PTR [edi+4], 0
; File C:\Program Files\Microsoft Visual Studio\2022\Community\VC\Tools\MSVC\14.37.32822\include\vector

; 1766 :         if (_Myfirst == _Mylast) { // already empty, nothing to do

  000bb	8b 4e 04	 mov	 ecx, DWORD PTR [esi+4]
  000be	8b 16		 mov	 edx, DWORD PTR [esi]
  000c0	89 4d f8	 mov	 DWORD PTR __Backout$1$sroa$435$1$[ebp], ecx
  000c3	3b d1		 cmp	 edx, ecx
  000c5	74 06		 je	 SHORT $LN41@ProcessMot

; 1767 :             // This is an optimization for debug mode: we can avoid taking the debug lock to invalidate iterators.
; 1768 :             // Note that when clearing an empty vector, this will preserve past-the-end iterators, which is allowed by
; 1769 :             // N4950 [sequence.reqmts]/54 "a.clear() [...] may invalidate the past-the-end iterator".
; 1770 :             return;
; 1771 :         }
; 1772 : 
; 1773 :         _My_data._Orphan_all();
; 1774 :         _Destroy_range(_Myfirst, _Mylast, _Getal());
; 1775 :         _ASAN_VECTOR_MODIFY(static_cast<difference_type>(_Myfirst - _Mylast)); // negative when destroying elements
; 1776 :         _Mylast = _Myfirst;

  000c7	89 56 04	 mov	 DWORD PTR [esi+4], edx
  000ca	89 55 f8	 mov	 DWORD PTR __Backout$1$sroa$435$1$[ebp], edx
$LN41@ProcessMot:

; 1869 :         return static_cast<size_type>(_My_data._Mylast - _My_data._Myfirst);

  000cd	8b 48 20	 mov	 ecx, DWORD PTR [eax+32]
  000d0	2b 48 1c	 sub	 ecx, DWORD PTR [eax+28]
  000d3	b8 67 66 66 66	 mov	 eax, 1717986919		; 66666667H
  000d8	f7 e9		 imul	 ecx

; 1557 :         const auto _Oldsize = static_cast<size_type>(_Mylast - _Myfirst);

  000da	8b 4d f8	 mov	 ecx, DWORD PTR __Backout$1$sroa$435$1$[ebp]
  000dd	b8 93 24 49 92	 mov	 eax, -1840700269	; 92492493H
  000e2	2b 0e		 sub	 ecx, DWORD PTR [esi]

; 1869 :         return static_cast<size_type>(_My_data._Mylast - _My_data._Myfirst);

  000e4	c1 fa 03	 sar	 edx, 3
  000e7	8b fa		 mov	 edi, edx
  000e9	c1 ef 1f	 shr	 edi, 31			; 0000001fH
  000ec	03 fa		 add	 edi, edx

; 1557 :         const auto _Oldsize = static_cast<size_type>(_Mylast - _Myfirst);

  000ee	f7 e9		 imul	 ecx
  000f0	03 d1		 add	 edx, ecx
  000f2	c1 fa 04	 sar	 edx, 4
  000f5	8b c2		 mov	 eax, edx
  000f7	c1 e8 1f	 shr	 eax, 31			; 0000001fH
  000fa	03 c2		 add	 eax, edx
  000fc	89 45 f0	 mov	 DWORD PTR __Oldsize$1$[ebp], eax

; 1558 :         if (_Newsize < _Oldsize) { // trim

  000ff	3b f8		 cmp	 edi, eax
  00101	73 13		 jae	 SHORT $LN49@ProcessMot

; 1559 :             const pointer _Newlast = _Myfirst + _Newsize;

  00103	8b 16		 mov	 edx, DWORD PTR [esi]
  00105	8d 04 fd 00 00
	00 00		 lea	 eax, DWORD PTR [edi*8]
  0010c	2b c7		 sub	 eax, edi
  0010e	8d 04 82	 lea	 eax, DWORD PTR [edx+eax*4]

; 1560 :             _Orphan_range(_Newlast, _Mylast);
; 1561 :             _Destroy_range(_Newlast, _Mylast, _Al);
; 1562 :             _ASAN_VECTOR_MODIFY(static_cast<difference_type>(_Newsize - _Oldsize));
; 1563 :             _Mylast = _Newlast;

  00111	89 46 04	 mov	 DWORD PTR [esi+4], eax

; 1564 :             return;

  00114	eb 5c		 jmp	 SHORT $LN50@ProcessMot
$LN49@ProcessMot:

; 1565 :         }
; 1566 : 
; 1567 :         if (_Newsize > _Oldsize) { // append

  00116	76 5a		 jbe	 SHORT $LN50@ProcessMot

; 1568 :             const auto _Oldcapacity = static_cast<size_type>(_My_data._Myend - _Myfirst);

  00118	8b 4e 08	 mov	 ecx, DWORD PTR [esi+8]
  0011b	b8 93 24 49 92	 mov	 eax, -1840700269	; 92492493H
  00120	2b 0e		 sub	 ecx, DWORD PTR [esi]
  00122	f7 e9		 imul	 ecx
  00124	03 d1		 add	 edx, ecx
  00126	c1 fa 04	 sar	 edx, 4
  00129	8b c2		 mov	 eax, edx
  0012b	c1 e8 1f	 shr	 eax, 31			; 0000001fH
  0012e	03 c2		 add	 eax, edx

; 1569 :             if (_Newsize > _Oldcapacity) { // reallocate

  00130	3b f8		 cmp	 edi, eax
  00132	76 0e		 jbe	 SHORT $LN51@ProcessMot

; 1570 :                 _Resize_reallocate(_Newsize, _Val);

  00134	8d 45 ff	 lea	 eax, DWORD PTR $T2[ebp]
  00137	8b ce		 mov	 ecx, esi
  00139	50		 push	 eax
  0013a	57		 push	 edi
  0013b	e8 00 00 00 00	 call	 ??$_Resize_reallocate@U_Value_init_tag@std@@@?$vector@UCDynamicSphereInstance@@V?$allocator@UCDynamicSphereInstance@@@std@@@std@@AAEXIABU_Value_init_tag@1@@Z ; std::vector<CDynamicSphereInstance,std::allocator<CDynamicSphereInstance> >::_Resize_reallocate<std::_Value_init_tag>

; 1571 :                 return;

  00140	eb 30		 jmp	 SHORT $LN50@ProcessMot
$LN51@ProcessMot:

; 1580 :                 _Mylast = _Uninitialized_value_construct_n(_Oldlast, _Newsize - _Oldsize, _Al);

  00142	2b 7d f0	 sub	 edi, DWORD PTR __Oldsize$1$[ebp]
; File C:\Program Files\Microsoft Visual Studio\2022\Community\VC\Tools\MSVC\14.37.32822\include\xmemory

; 2041 :     for (; 0 < _Count; --_Count) {

  00145	74 25		 je	 SHORT $LN92@ProcessMot
; File C:\Program Files\Microsoft Visual Studio\2022\Community\VC\Tools\MSVC\14.37.32822\include\vector

; 1580 :                 _Mylast = _Uninitialized_value_construct_n(_Oldlast, _Newsize - _Oldsize, _Al);

  00147	8d 34 fd 00 00
	00 00		 lea	 esi, DWORD PTR [edi*8]
  0014e	2b f7		 sub	 esi, edi
  00150	8b 7d f8	 mov	 edi, DWORD PTR __Backout$1$sroa$435$1$[ebp]
  00153	c1 e6 02	 shl	 esi, 2
  00156	56		 push	 esi
  00157	6a 00		 push	 0
  00159	57		 push	 edi
  0015a	e8 00 00 00 00	 call	 _memset
  0015f	83 c4 0c	 add	 esp, 12			; 0000000cH
  00162	03 fe		 add	 edi, esi
  00164	8d b3 5c 03 00
	00		 lea	 esi, DWORD PTR [ebx+860]
; File C:\Program Files\Microsoft Visual Studio\2022\Community\VC\Tools\MSVC\14.37.32822\include\xmemory

; 2041 :     for (; 0 < _Count; --_Count) {

  0016a	eb 03		 jmp	 SHORT $LN56@ProcessMot
$LN92@ProcessMot:
  0016c	8b 7d f8	 mov	 edi, DWORD PTR __Backout$1$sroa$435$1$[ebp]
$LN56@ProcessMot:
; File C:\Program Files\Microsoft Visual Studio\2022\Community\VC\Tools\MSVC\14.37.32822\include\vector

; 1580 :                 _Mylast = _Uninitialized_value_construct_n(_Oldlast, _Newsize - _Oldsize, _Al);

  0016f	89 7e 04	 mov	 DWORD PTR [esi+4], edi
$LN50@ProcessMot:

; 1869 :         return static_cast<size_type>(_My_data._Mylast - _My_data._Myfirst);

  00172	8b 7d 0c	 mov	 edi, DWORD PTR _c_pData$[ebp]
; File C:\Marty 5.5\Src-Client\Client\GameLib\ActorInstanceMotionEvent.cpp

; 240  : 	for (DWORD i = 0; i < c_pAttackingData->CollisionData.SphereDataVector.size(); ++i)

  00175	33 c9		 xor	 ecx, ecx
  00177	89 4d f8	 mov	 DWORD PTR _i$1$[ebp], ecx
; File C:\Program Files\Microsoft Visual Studio\2022\Community\VC\Tools\MSVC\14.37.32822\include\vector

; 1869 :         return static_cast<size_type>(_My_data._Mylast - _My_data._Myfirst);

  0017a	b8 67 66 66 66	 mov	 eax, 1717986919		; 66666667H
  0017f	8b 4f 20	 mov	 ecx, DWORD PTR [edi+32]
  00182	2b 4f 1c	 sub	 ecx, DWORD PTR [edi+28]
  00185	f7 e9		 imul	 ecx
  00187	c1 fa 03	 sar	 edx, 3
  0018a	8b c2		 mov	 eax, edx
  0018c	c1 e8 1f	 shr	 eax, 31			; 0000001fH
  0018f	03 c2		 add	 eax, edx
; File C:\Marty 5.5\Src-Client\Client\GameLib\ActorInstanceMotionEvent.cpp

; 240  : 	for (DWORD i = 0; i < c_pAttackingData->CollisionData.SphereDataVector.size(); ++i)

  00191	0f 84 e2 00 00
	00		 je	 $LN103@ProcessMot
  00197	f3 0f 10 45 f4	 movss	 xmm0, DWORD PTR _fRadian$[ebp]
; File C:\Program Files (x86)\Windows Kits\10\Include\10.0.22621.0\ucrt\corecrt_math.h

; 653  :             return (float)cos(_X);

  0019c	0f 5a c0	 cvtps2pd xmm0, xmm0
  0019f	e8 00 00 00 00	 call	 __libm_sse2_sin_precise
  001a4	f2 0f 5a c0	 cvtsd2ss xmm0, xmm0
  001a8	f3 0f 11 45 f0	 movss	 DWORD PTR tv731[ebp], xmm0
  001ad	f3 0f 10 45 f4	 movss	 xmm0, DWORD PTR _fRadian$[ebp]
  001b2	0f 5a c0	 cvtps2pd xmm0, xmm0
  001b5	e8 00 00 00 00	 call	 __libm_sse2_cos_precise
  001ba	f2 0f 5a c0	 cvtsd2ss xmm0, xmm0
  001be	33 c9		 xor	 ecx, ecx
  001c0	c7 45 0c 00 00
	00 00		 mov	 DWORD PTR tv720[ebp], 0
  001c7	89 4d f4	 mov	 DWORD PTR tv719[ebp], ecx
  001ca	f3 0f 11 45 ec	 movss	 DWORD PTR tv732[ebp], xmm0
  001cf	90		 npad	 1
$LL102@ProcessMot:
; File C:\Program Files\Microsoft Visual Studio\2022\Community\VC\Tools\MSVC\14.37.32822\include\vector

; 1899 :         return _My_data._Myfirst[_Pos];

  001d0	03 4f 1c	 add	 ecx, DWORD PTR [edi+28]
; File C:\Marty 5.5\Src-Client\Client\GameLib\ActorInstanceMotionEvent.cpp

; 242  : 		const TSphereData & c_rSphereData = c_pAttackingData->CollisionData.SphereDataVector[i].GetAttribute();

  001d3	e8 00 00 00 00	 call	 ?GetAttribute@CSphereCollisionInstance@@QBEABUSSphereData@@XZ ; CSphereCollisionInstance::GetAttribute
; File C:\Program Files\Microsoft Visual Studio\2022\Community\VC\Tools\MSVC\14.37.32822\include\vector

; 1889 :         return _My_data._Myfirst[_Pos];

  001d8	8b 16		 mov	 edx, DWORD PTR [esi]
  001da	03 55 0c	 add	 edx, DWORD PTR tv720[ebp]
; File C:\Marty 5.5\Src-Client\Client\GameLib\ActorInstanceMotionEvent.cpp

; 248  : 		rSphereInstance.v3Position.x = m_x + c_rSphereData.v3Position.x*sinf(fRadian) + c_rSphereData.v3Position.y*cosf(fRadian);

  001dd	f3 0f 10 4d f0	 movss	 xmm1, DWORD PTR tv731[ebp]
  001e2	8b 48 0c	 mov	 ecx, DWORD PTR [eax+12]
  001e5	f3 0f 10 45 ec	 movss	 xmm0, DWORD PTR tv732[ebp]
  001ea	89 4a 18	 mov	 DWORD PTR [edx+24], ecx
  001ed	f3 0f 59 08	 mulss	 xmm1, DWORD PTR [eax]
  001f1	ff 45 f8	 inc	 DWORD PTR _i$1$[ebp]
  001f4	f3 0f 59 40 04	 mulss	 xmm0, DWORD PTR [eax+4]
  001f9	83 45 f4 14	 add	 DWORD PTR tv719[ebp], 20 ; 00000014H
  001fd	f3 0f 58 8b 68
	04 00 00	 addss	 xmm1, DWORD PTR [ebx+1128]
  00205	83 45 0c 1c	 add	 DWORD PTR tv720[ebp], 28 ; 0000001cH
  00209	f3 0f 58 c8	 addss	 xmm1, xmm0

; 249  : 		rSphereInstance.v3Position.y = m_y + c_rSphereData.v3Position.x*cosf(fRadian) - c_rSphereData.v3Position.y*sinf(fRadian);

  0020d	f3 0f 10 45 f0	 movss	 xmm0, DWORD PTR tv731[ebp]
  00212	f3 0f 11 0a	 movss	 DWORD PTR [edx], xmm1
  00216	f3 0f 59 40 04	 mulss	 xmm0, DWORD PTR [eax+4]
  0021b	f3 0f 10 4d ec	 movss	 xmm1, DWORD PTR tv732[ebp]
  00220	f3 0f 59 08	 mulss	 xmm1, DWORD PTR [eax]
  00224	f3 0f 58 8b 6c
	04 00 00	 addss	 xmm1, DWORD PTR [ebx+1132]
  0022c	f3 0f 5c c8	 subss	 xmm1, xmm0
  00230	f3 0f 11 4a 04	 movss	 DWORD PTR [edx+4], xmm1

; 250  : 		rSphereInstance.v3Position.z = m_z + c_rSphereData.v3Position.z;

  00235	f3 0f 10 40 08	 movss	 xmm0, DWORD PTR [eax+8]
  0023a	f3 0f 58 83 70
	04 00 00	 addss	 xmm0, DWORD PTR [ebx+1136]
  00242	f3 0f 11 42 08	 movss	 DWORD PTR [edx+8], xmm0

; 251  : 		rSphereInstance.v3LastPosition = rSphereInstance.v3Position;

  00247	f3 0f 7e 02	 movq	 xmm0, QWORD PTR [edx]
  0024b	8b 42 08	 mov	 eax, DWORD PTR [edx+8]
  0024e	66 0f d6 42 0c	 movq	 QWORD PTR [edx+12], xmm0
  00253	89 42 14	 mov	 DWORD PTR [edx+20], eax
; File C:\Program Files\Microsoft Visual Studio\2022\Community\VC\Tools\MSVC\14.37.32822\include\vector

; 1869 :         return static_cast<size_type>(_My_data._Mylast - _My_data._Myfirst);

  00256	b8 67 66 66 66	 mov	 eax, 1717986919		; 66666667H
  0025b	8b 4f 20	 mov	 ecx, DWORD PTR [edi+32]
  0025e	2b 4f 1c	 sub	 ecx, DWORD PTR [edi+28]
  00261	f7 e9		 imul	 ecx
; File C:\Marty 5.5\Src-Client\Client\GameLib\ActorInstanceMotionEvent.cpp

; 240  : 	for (DWORD i = 0; i < c_pAttackingData->CollisionData.SphereDataVector.size(); ++i)

  00263	8b 4d f4	 mov	 ecx, DWORD PTR tv719[ebp]
; File C:\Program Files\Microsoft Visual Studio\2022\Community\VC\Tools\MSVC\14.37.32822\include\vector

; 1869 :         return static_cast<size_type>(_My_data._Mylast - _My_data._Myfirst);

  00266	c1 fa 03	 sar	 edx, 3
  00269	8b c2		 mov	 eax, edx
  0026b	c1 e8 1f	 shr	 eax, 31			; 0000001fH
  0026e	03 c2		 add	 eax, edx
; File C:\Marty 5.5\Src-Client\Client\GameLib\ActorInstanceMotionEvent.cpp

; 240  : 	for (DWORD i = 0; i < c_pAttackingData->CollisionData.SphereDataVector.size(); ++i)

  00270	39 45 f8	 cmp	 DWORD PTR _i$1$[ebp], eax
  00273	0f 82 57 ff ff
	ff		 jb	 $LL102@ProcessMot
$LN103@ProcessMot:
  00279	5f		 pop	 edi
$LN3@ProcessMot:
  0027a	5e		 pop	 esi

; 252  : 	}
; 253  : }

  0027b	5b		 pop	 ebx
  0027c	8b e5		 mov	 esp, ebp
  0027e	5d		 pop	 ebp
  0027f	c2 08 00	 ret	 8
?ProcessMotionEventSpecialAttacking@CActorInstance@@IAEXHPBUSMotionEventData@NMotionEvent@@@Z ENDP ; CActorInstance::ProcessMotionEventSpecialAttacking
_TEXT	ENDS
; Function compile flags: /Ogtp
; File C:\Marty 5.5\Src-Client\Client\GameLib\ActorInstanceMotionEvent.cpp
; File C:\Marty 5.5\Src-Client\extern\include\d3dx8math.inl
; File C:\Marty 5.5\Src-Client\Client\GameLib\ActorInstanceMotionEvent.cpp
; File C:\Marty 5.5\Src-Client\extern\include\d3dx8math.inl
; File C:\Marty 5.5\Src-Client\Client\GameLib\ActorInstanceMotionEvent.cpp
; File C:\Marty 5.5\Src-Client\extern\include\d3dx8math.inl
; File C:\Marty 5.5\Src-Client\Client\GameLib\ActorInstanceMotionEvent.cpp
; File C:\Marty 5.5\Src-Client\extern\include\d3dx8math.inl
; File C:\Marty 5.5\Src-Client\Client\GameLib\ActorInstanceMotionEvent.cpp
; File C:\Marty 5.5\Src-Client\extern\include\d3dx8math.inl
; File C:\Marty 5.5\Src-Client\Client\GameLib\ActorInstanceMotionEvent.cpp
; File C:\Marty 5.5\Src-Client\extern\include\d3dx8math.inl
; File C:\Marty 5.5\Src-Client\Client\GameLib\ActorInstanceMotionEvent.cpp
; File C:\Marty 5.5\Src-Client\extern\include\d3dx8math.inl
; File C:\Marty 5.5\Src-Client\Client\GameLib\ActorInstanceMotionEvent.cpp
; File C:\Marty 5.5\Src-Client\extern\include\d3dx8math.inl
; File C:\Marty 5.5\Src-Client\Client\GameLib\ActorInstanceMotionEvent.cpp
; File C:\Marty 5.5\Src-Client\extern\include\d3dx8math.inl
; File C:\Marty 5.5\Src-Client\Client\GameLib\ActorInstanceMotionEvent.cpp
;	COMDAT ?ProcessMotionEventEffectToTargetEvent@CActorInstance@@IAEXPBUSMotionEventData@NMotionEvent@@@Z
_TEXT	SEGMENT
_v3Position$1 = -28					; size = 12
$T2 = -16						; size = 12
_v3Position$3 = -16					; size = 12
$T4 = -16						; size = 12
__$ArrayPad$ = -4					; size = 4
_c_pData$ = 8						; size = 4
?ProcessMotionEventEffectToTargetEvent@CActorInstance@@IAEXPBUSMotionEventData@NMotionEvent@@@Z PROC ; CActorInstance::ProcessMotionEventEffectToTargetEvent, COMDAT
; _this$ = ecx

; 182  : {

  00000	55		 push	 ebp
  00001	8b ec		 mov	 ebp, esp
  00003	83 ec 1c	 sub	 esp, 28			; 0000001cH
  00006	a1 00 00 00 00	 mov	 eax, DWORD PTR ___security_cookie
  0000b	33 c5		 xor	 eax, ebp
  0000d	89 45 fc	 mov	 DWORD PTR __$ArrayPad$[ebp], eax
  00010	56		 push	 esi
  00011	8b 75 08	 mov	 esi, DWORD PTR _c_pData$[ebp]
  00014	57		 push	 edi
  00015	8b f9		 mov	 edi, ecx

; 183  : 	if (CRaceMotionData::MOTION_EVENT_TYPE_EFFECT_TO_TARGET != c_pData->iType)

  00017	83 7e 04 0a	 cmp	 DWORD PTR [esi+4], 10	; 0000000aH
  0001b	0f 85 44 01 00
	00		 jne	 $LN8@ProcessMot

; 184  : 		return;
; 185  : 
; 186  : 	const CRaceMotionData::TMotionEffectToTargetEventData * c_pEffectToTargetData = (const CRaceMotionData::TMotionEffectToTargetEventData *)c_pData;
; 187  : 
; 188  : 	if (c_pEffectToTargetData->isFishingEffect)

  00021	83 7e 40 00	 cmp	 DWORD PTR [esi+64], 0
  00025	53		 push	 ebx
  00026	74 5c		 je	 SHORT $LN3@ProcessMot

; 189  : 	{
; 190  : 		CEffectManager& rkEftMgr=CEffectManager::Instance();
; 191  : 
; 192  : 		if (-1 != m_iFishingEffectID)

  00028	8b 87 64 04 00
	00		 mov	 eax, DWORD PTR [edi+1124]
  0002e	8b 1d 00 00 00
	00		 mov	 ebx, DWORD PTR ?ms_singleton@?$CSingleton@VCEffectManager@@@@0PAVCEffectManager@@A ; CSingleton<CEffectManager>::ms_singleton
  00034	83 f8 ff	 cmp	 eax, -1
  00037	74 08		 je	 SHORT $LN5@ProcessMot

; 193  : 		{
; 194  :  			rkEftMgr.DeactiveEffectInstance(m_iFishingEffectID);

  00039	50		 push	 eax
  0003a	8b cb		 mov	 ecx, ebx
  0003c	e8 00 00 00 00	 call	 ?DeactiveEffectInstance@CEffectManager@@QAEXK@Z ; CEffectManager::DeactiveEffectInstance
$LN5@ProcessMot:

; 197  : 		m_iFishingEffectID = rkEftMgr.CreateEffect(c_pEffectToTargetData->dwEffectIndex, m_v3FishingPosition, D3DXVECTOR3(0.0f, 0.0f, 0.0f));

  00041	8d 45 f0	 lea	 eax, DWORD PTR $T4[ebp]
; File C:\Marty 5.5\Src-Client\extern\include\d3dx8math.inl

; 180  :     x = fx;

  00044	c7 45 f0 00 00
	00 00		 mov	 DWORD PTR $T4[ebp], 0
; File C:\Marty 5.5\Src-Client\Client\GameLib\ActorInstanceMotionEvent.cpp

; 197  : 		m_iFishingEffectID = rkEftMgr.CreateEffect(c_pEffectToTargetData->dwEffectIndex, m_v3FishingPosition, D3DXVECTOR3(0.0f, 0.0f, 0.0f));

  0004b	50		 push	 eax
  0004c	8d 87 58 04 00
	00		 lea	 eax, DWORD PTR [edi+1112]
; File C:\Marty 5.5\Src-Client\extern\include\d3dx8math.inl

; 181  :     y = fy;

  00052	c7 45 f4 00 00
	00 00		 mov	 DWORD PTR $T4[ebp+4], 0
; File C:\Marty 5.5\Src-Client\Client\GameLib\ActorInstanceMotionEvent.cpp

; 197  : 		m_iFishingEffectID = rkEftMgr.CreateEffect(c_pEffectToTargetData->dwEffectIndex, m_v3FishingPosition, D3DXVECTOR3(0.0f, 0.0f, 0.0f));

  00059	50		 push	 eax
  0005a	ff 76 14	 push	 DWORD PTR [esi+20]
  0005d	8b cb		 mov	 ecx, ebx
; File C:\Marty 5.5\Src-Client\extern\include\d3dx8math.inl

; 182  :     z = fz;

  0005f	c7 45 f8 00 00
	00 00		 mov	 DWORD PTR $T4[ebp+8], 0
; File C:\Marty 5.5\Src-Client\Client\GameLib\ActorInstanceMotionEvent.cpp

; 197  : 		m_iFishingEffectID = rkEftMgr.CreateEffect(c_pEffectToTargetData->dwEffectIndex, m_v3FishingPosition, D3DXVECTOR3(0.0f, 0.0f, 0.0f));

  00066	e8 00 00 00 00	 call	 ?CreateEffect@CEffectManager@@QAEHKABUD3DXVECTOR3@@0@Z ; CEffectManager::CreateEffect
  0006b	5b		 pop	 ebx
  0006c	89 87 64 04 00
	00		 mov	 DWORD PTR [edi+1124], eax
  00072	5f		 pop	 edi

; 219  : 		}
; 220  : 	}
; 221  : }

  00073	5e		 pop	 esi
  00074	8b 4d fc	 mov	 ecx, DWORD PTR __$ArrayPad$[ebp]
  00077	33 cd		 xor	 ecx, ebp
  00079	e8 00 00 00 00	 call	 @__security_check_cookie@4
  0007e	8b e5		 mov	 esp, ebp
  00080	5d		 pop	 ebp
  00081	c2 04 00	 ret	 4
$LN3@ProcessMot:

; 198  : 	}
; 199  : 	else
; 200  : 	{
; 201  : 		if (!m_kFlyTarget.IsValidTarget())

  00084	8d 8f b8 02 00
	00		 lea	 ecx, DWORD PTR [edi+696]
  0008a	e8 00 00 00 00	 call	 ?IsValidTarget@CFlyTarget@@QAE_NXZ ; CFlyTarget::IsValidTarget
  0008f	84 c0		 test	 al, al
  00091	0f 84 cd 00 00
	00		 je	 $LN26@ProcessMot

; 202  : 			return;
; 203  : 
; 204  : 		if (c_pEffectToTargetData->isFollowing && IsFlyTargetObject())

  00097	83 7e 3c 00	 cmp	 DWORD PTR [esi+60], 0
  0009b	74 65		 je	 SHORT $LN7@ProcessMot
  0009d	8b cf		 mov	 ecx, edi
  0009f	e8 00 00 00 00	 call	 ?IsFlyTargetObject@CActorInstance@@QAE_NXZ ; CActorInstance::IsFlyTargetObject
  000a4	84 c0		 test	 al, al
  000a6	74 5a		 je	 SHORT $LN7@ProcessMot

; 206  : 			CActorInstance * pTargetInstance = (CActorInstance *)m_kFlyTarget.GetFlyTarget();

  000a8	8d 8f b8 02 00
	00		 lea	 ecx, DWORD PTR [edi+696]
  000ae	e8 00 00 00 00	 call	 ?GetFlyTarget@CFlyTarget@@QAEPAVIFlyTargetableObject@@XZ ; CFlyTarget::GetFlyTarget
; File C:\Marty 5.5\Src-Client\extern\include\d3dx8math.inl

; 180  :     x = fx;

  000b3	f3 0f 10 46 30	 movss	 xmm0, DWORD PTR [esi+48]
; File C:\Marty 5.5\Src-Client\Client\GameLib\ActorInstanceMotionEvent.cpp

; 206  : 			CActorInstance * pTargetInstance = (CActorInstance *)m_kFlyTarget.GetFlyTarget();

  000b8	8b c8		 mov	 ecx, eax

; 210  : 			pTargetInstance->AttachEffectByID(0, NULL, c_pEffectToTargetData->dwEffectIndex, &v3Position);

  000ba	8d 45 f0	 lea	 eax, DWORD PTR _v3Position$3[ebp]
; File C:\Marty 5.5\Src-Client\extern\include\d3dx8math.inl

; 180  :     x = fx;

  000bd	f3 0f 11 45 f0	 movss	 DWORD PTR _v3Position$3[ebp], xmm0

; 181  :     y = fy;

  000c2	f3 0f 10 46 34	 movss	 xmm0, DWORD PTR [esi+52]
; File C:\Marty 5.5\Src-Client\Client\GameLib\ActorInstanceMotionEvent.cpp

; 210  : 			pTargetInstance->AttachEffectByID(0, NULL, c_pEffectToTargetData->dwEffectIndex, &v3Position);

  000c7	50		 push	 eax
  000c8	ff 76 14	 push	 DWORD PTR [esi+20]
  000cb	8d 81 58 fd ff
	ff		 lea	 eax, DWORD PTR [ecx-680]
; File C:\Marty 5.5\Src-Client\extern\include\d3dx8math.inl

; 181  :     y = fy;

  000d1	f3 0f 11 45 f4	 movss	 DWORD PTR _v3Position$3[ebp+4], xmm0

; 182  :     z = fz;

  000d6	f3 0f 10 46 38	 movss	 xmm0, DWORD PTR [esi+56]
; File C:\Marty 5.5\Src-Client\Client\GameLib\ActorInstanceMotionEvent.cpp

; 207  : 			D3DXVECTOR3 v3Position(	c_pEffectToTargetData->v3EffectPosition.x,

  000db	f7 d9		 neg	 ecx

; 210  : 			pTargetInstance->AttachEffectByID(0, NULL, c_pEffectToTargetData->dwEffectIndex, &v3Position);

  000dd	6a 00		 push	 0
  000df	1b c9		 sbb	 ecx, ecx
; File C:\Marty 5.5\Src-Client\extern\include\d3dx8math.inl

; 182  :     z = fz;

  000e1	f3 0f 11 45 f8	 movss	 DWORD PTR _v3Position$3[ebp+8], xmm0
; File C:\Marty 5.5\Src-Client\Client\GameLib\ActorInstanceMotionEvent.cpp

; 210  : 			pTargetInstance->AttachEffectByID(0, NULL, c_pEffectToTargetData->dwEffectIndex, &v3Position);

  000e6	6a 00		 push	 0
  000e8	23 c8		 and	 ecx, eax
  000ea	e8 00 00 00 00	 call	 ?AttachEffectByID@CActorInstance@@QAEKKPBDKPBUD3DXVECTOR3@@@Z ; CActorInstance::AttachEffectByID
  000ef	5b		 pop	 ebx
  000f0	5f		 pop	 edi

; 219  : 		}
; 220  : 	}
; 221  : }

  000f1	5e		 pop	 esi
  000f2	8b 4d fc	 mov	 ecx, DWORD PTR __$ArrayPad$[ebp]
  000f5	33 cd		 xor	 ecx, ebp
  000f7	e8 00 00 00 00	 call	 @__security_check_cookie@4
  000fc	8b e5		 mov	 esp, ebp
  000fe	5d		 pop	 ebp
  000ff	c2 04 00	 ret	 4
$LN7@ProcessMot:

; 211  : 		}
; 212  : 		else
; 213  : 		{
; 214  : 			const D3DXVECTOR3 & c_rv3FlyTarget = m_kFlyTarget.GetFlyTargetPosition();

  00102	8d 8f b8 02 00
	00		 lea	 ecx, DWORD PTR [edi+696]
  00108	e8 00 00 00 00	 call	 ?GetFlyTargetPosition@CFlyTarget@@QBEABUD3DXVECTOR3@@XZ ; CFlyTarget::GetFlyTargetPosition

; 215  : 			D3DXVECTOR3 v3Position(	c_rv3FlyTarget.x + c_pEffectToTargetData->v3EffectPosition.x,

  0010d	f3 0f 10 56 34	 movss	 xmm2, DWORD PTR [esi+52]
  00112	f3 0f 10 4e 38	 movss	 xmm1, DWORD PTR [esi+56]
  00117	f3 0f 10 46 30	 movss	 xmm0, DWORD PTR [esi+48]
  0011c	f3 0f 58 50 04	 addss	 xmm2, DWORD PTR [eax+4]
  00121	f3 0f 58 48 08	 addss	 xmm1, DWORD PTR [eax+8]
  00126	f3 0f 58 00	 addss	 xmm0, DWORD PTR [eax]

; 218  : 			CEffectManager::Instance().CreateEffect(c_pEffectToTargetData->dwEffectIndex, v3Position, D3DXVECTOR3(0.0f, 0.0f, 0.0f));

  0012a	8b 0d 00 00 00
	00		 mov	 ecx, DWORD PTR ?ms_singleton@?$CSingleton@VCEffectManager@@@@0PAVCEffectManager@@A ; CSingleton<CEffectManager>::ms_singleton
  00130	8d 45 f0	 lea	 eax, DWORD PTR $T2[ebp]
  00133	50		 push	 eax
  00134	8d 45 e4	 lea	 eax, DWORD PTR _v3Position$1[ebp]
; File C:\Marty 5.5\Src-Client\extern\include\d3dx8math.inl

; 181  :     y = fy;

  00137	f3 0f 11 55 e8	 movss	 DWORD PTR _v3Position$1[ebp+4], xmm2
; File C:\Marty 5.5\Src-Client\Client\GameLib\ActorInstanceMotionEvent.cpp

; 218  : 			CEffectManager::Instance().CreateEffect(c_pEffectToTargetData->dwEffectIndex, v3Position, D3DXVECTOR3(0.0f, 0.0f, 0.0f));

  0013c	50		 push	 eax
  0013d	ff 76 14	 push	 DWORD PTR [esi+20]
; File C:\Marty 5.5\Src-Client\extern\include\d3dx8math.inl

; 180  :     x = fx;

  00140	f3 0f 11 45 e4	 movss	 DWORD PTR _v3Position$1[ebp], xmm0

; 182  :     z = fz;

  00145	f3 0f 11 4d ec	 movss	 DWORD PTR _v3Position$1[ebp+8], xmm1

; 180  :     x = fx;

  0014a	c7 45 f0 00 00
	00 00		 mov	 DWORD PTR $T2[ebp], 0

; 181  :     y = fy;

  00151	c7 45 f4 00 00
	00 00		 mov	 DWORD PTR $T2[ebp+4], 0

; 182  :     z = fz;

  00158	c7 45 f8 00 00
	00 00		 mov	 DWORD PTR $T2[ebp+8], 0
; File C:\Marty 5.5\Src-Client\Client\GameLib\ActorInstanceMotionEvent.cpp

; 218  : 			CEffectManager::Instance().CreateEffect(c_pEffectToTargetData->dwEffectIndex, v3Position, D3DXVECTOR3(0.0f, 0.0f, 0.0f));

  0015f	e8 00 00 00 00	 call	 ?CreateEffect@CEffectManager@@QAEHKABUD3DXVECTOR3@@0@Z ; CEffectManager::CreateEffect
$LN26@ProcessMot:
  00164	5b		 pop	 ebx
$LN8@ProcessMot:

; 219  : 		}
; 220  : 	}
; 221  : }

  00165	8b 4d fc	 mov	 ecx, DWORD PTR __$ArrayPad$[ebp]
  00168	5f		 pop	 edi
  00169	33 cd		 xor	 ecx, ebp
  0016b	5e		 pop	 esi
  0016c	e8 00 00 00 00	 call	 @__security_check_cookie@4
  00171	8b e5		 mov	 esp, ebp
  00173	5d		 pop	 ebp
  00174	c2 04 00	 ret	 4
?ProcessMotionEventEffectToTargetEvent@CActorInstance@@IAEXPBUSMotionEventData@NMotionEvent@@@Z ENDP ; CActorInstance::ProcessMotionEventEffectToTargetEvent
_TEXT	ENDS
; Function compile flags: /Ogtp
; File C:\Marty 5.5\Src-Client\Client\GameLib\ActorInstanceMotionEvent.cpp
; File C:\Marty 5.5\Src-Client\extern\include\d3dx8math.inl
; File C:\Marty 5.5\Src-Client\Client\GameLib\ActorInstanceMotionEvent.cpp
; File C:\Marty 5.5\Src-Client\extern\include\d3dx8math.inl
; File C:\Marty 5.5\Src-Client\Client\GameLib\ActorInstanceMotionEvent.cpp
; File C:\Marty 5.5\Src-Client\extern\include\d3dx8math.inl
; File C:\Marty 5.5\Src-Client\Client\GameLib\ActorInstanceMotionEvent.cpp
; File C:\Marty 5.5\Src-Client\extern\include\d3dx8math.inl
; File C:\Marty 5.5\Src-Client\Client\GameLib\ActorInstanceMotionEvent.cpp
; File C:\Marty 5.5\Src-Client\extern\include\d3dx8math.inl
; File C:\Marty 5.5\Src-Client\Client\GameLib\ActorInstanceMotionEvent.cpp
; File C:\Marty 5.5\Src-Client\extern\include\d3dx8math.inl
; File C:\Marty 5.5\Src-Client\Client\GameLib\ActorInstanceMotionEvent.cpp
; File C:\Program Files\Microsoft Visual Studio\2022\Community\VC\Tools\MSVC\14.37.32822\include\xstring
; File C:\Marty 5.5\Src-Client\Client\GameLib\ActorInstanceMotionEvent.cpp
; File C:\Program Files\Microsoft Visual Studio\2022\Community\VC\Tools\MSVC\14.37.32822\include\xstring
; File C:\Marty 5.5\Src-Client\Client\GameLib\ActorInstanceMotionEvent.cpp
; File C:\Marty 5.5\Src-Client\extern\include\d3dx8math.inl
; File C:\Marty 5.5\Src-Client\Client\GameLib\ActorInstanceMotionEvent.cpp
; File C:\Marty 5.5\Src-Client\extern\include\d3dx8math.inl
; File C:\Marty 5.5\Src-Client\Client\GameLib\ActorInstanceMotionEvent.cpp
; File C:\Marty 5.5\Src-Client\extern\include\d3dx8math.inl
; File C:\Marty 5.5\Src-Client\Client\GameLib\ActorInstanceMotionEvent.cpp
; File C:\Marty 5.5\Src-Client\extern\include\d3dx8math.inl
; File C:\Marty 5.5\Src-Client\Client\GameLib\ActorInstanceMotionEvent.cpp
;	COMDAT ?ProcessMotionEventEffectEvent@CActorInstance@@IAEXPBUSMotionEventData@NMotionEvent@@@Z
_TEXT	SEGMENT
_pBoneMat$1 = -164					; size = 4
_iBoneIndex$2 = -160					; size = 4
_matLocalPosition$3 = -156				; size = 64
_matLocalPosition$4 = -156				; size = 64
_matWorld$5 = -92					; size = 64
_matWorld$6 = -92					; size = 64
$T7 = -28						; size = 12
$T8 = -16						; size = 12
$T9 = -16						; size = 12
__$ArrayPad$ = -4					; size = 4
_c_pData$ = 8						; size = 4
?ProcessMotionEventEffectEvent@CActorInstance@@IAEXPBUSMotionEventData@NMotionEvent@@@Z PROC ; CActorInstance::ProcessMotionEventEffectEvent, COMDAT
; _this$ = ecx

; 117  : {

  00000	55		 push	 ebp
  00001	8b ec		 mov	 ebp, esp
  00003	81 ec a4 00 00
	00		 sub	 esp, 164		; 000000a4H
  00009	a1 00 00 00 00	 mov	 eax, DWORD PTR ___security_cookie
  0000e	33 c5		 xor	 eax, ebp
  00010	89 45 fc	 mov	 DWORD PTR __$ArrayPad$[ebp], eax
  00013	53		 push	 ebx
  00014	57		 push	 edi
  00015	8b 7d 08	 mov	 edi, DWORD PTR _c_pData$[ebp]
  00018	8b d9		 mov	 ebx, ecx

; 118  : 	if (CRaceMotionData::MOTION_EVENT_TYPE_EFFECT != c_pData->iType)

  0001a	83 7f 04 01	 cmp	 DWORD PTR [edi+4], 1
  0001e	0f 85 ef 01 00
	00		 jne	 $LN5@ProcessMot

; 119  : 		return;
; 120  : 
; 121  : 	const CRaceMotionData::TMotionEffectEventData * c_pEffectData = (const CRaceMotionData::TMotionEffectEventData *)c_pData;
; 122  : 
; 123  : 	if (c_pEffectData->isIndependent)

  00024	83 7f 1c 00	 cmp	 DWORD PTR [edi+28], 0
  00028	56		 push	 esi
  00029	0f 84 ab 00 00
	00		 je	 $LN3@ProcessMot

; 125  : 		int iIndex = CEffectManager::Instance().CreateEffect(c_pEffectData->dwEffectIndex, D3DXVECTOR3(0.0f, 0.0f, 0.0f), D3DXVECTOR3(0.0f, 0.0f, 0.0f));

  0002f	8b 0d 00 00 00
	00		 mov	 ecx, DWORD PTR ?ms_singleton@?$CSingleton@VCEffectManager@@@@0PAVCEffectManager@@A ; CSingleton<CEffectManager>::ms_singleton
  00035	8d 45 e4	 lea	 eax, DWORD PTR $T7[ebp]
  00038	50		 push	 eax
  00039	8d 45 f0	 lea	 eax, DWORD PTR $T9[ebp]
; File C:\Marty 5.5\Src-Client\extern\include\d3dx8math.inl

; 180  :     x = fx;

  0003c	c7 45 e4 00 00
	00 00		 mov	 DWORD PTR $T7[ebp], 0
; File C:\Marty 5.5\Src-Client\Client\GameLib\ActorInstanceMotionEvent.cpp

; 125  : 		int iIndex = CEffectManager::Instance().CreateEffect(c_pEffectData->dwEffectIndex, D3DXVECTOR3(0.0f, 0.0f, 0.0f), D3DXVECTOR3(0.0f, 0.0f, 0.0f));

  00043	50		 push	 eax
  00044	ff 77 44	 push	 DWORD PTR [edi+68]
; File C:\Marty 5.5\Src-Client\extern\include\d3dx8math.inl

; 181  :     y = fy;

  00047	c7 45 e8 00 00
	00 00		 mov	 DWORD PTR $T7[ebp+4], 0

; 182  :     z = fz;

  0004e	c7 45 ec 00 00
	00 00		 mov	 DWORD PTR $T7[ebp+8], 0

; 180  :     x = fx;

  00055	c7 45 f0 00 00
	00 00		 mov	 DWORD PTR $T9[ebp], 0

; 181  :     y = fy;

  0005c	c7 45 f4 00 00
	00 00		 mov	 DWORD PTR $T9[ebp+4], 0

; 182  :     z = fz;

  00063	c7 45 f8 00 00
	00 00		 mov	 DWORD PTR $T9[ebp+8], 0
; File C:\Marty 5.5\Src-Client\Client\GameLib\ActorInstanceMotionEvent.cpp

; 125  : 		int iIndex = CEffectManager::Instance().CreateEffect(c_pEffectData->dwEffectIndex, D3DXVECTOR3(0.0f, 0.0f, 0.0f), D3DXVECTOR3(0.0f, 0.0f, 0.0f));

  0006a	e8 00 00 00 00	 call	 ?CreateEffect@CEffectManager@@QAEHKABUD3DXVECTOR3@@0@Z ; CEffectManager::CreateEffect

; 126  : 
; 127  : 		D3DXMATRIX matLocalPosition;
; 128  : 		D3DXMatrixTranslation(&matLocalPosition, c_pEffectData->v3EffectPosition.x, c_pEffectData->v3EffectPosition.y, c_pEffectData->v3EffectPosition.z);

  0006f	f3 0f 10 47 40	 movss	 xmm0, DWORD PTR [edi+64]
  00074	83 ec 0c	 sub	 esp, 12			; 0000000cH
  00077	8b f0		 mov	 esi, eax
  00079	8d 85 64 ff ff
	ff		 lea	 eax, DWORD PTR _matLocalPosition$4[ebp]
  0007f	f3 0f 11 44 24
	08		 movss	 DWORD PTR [esp+8], xmm0
  00085	f3 0f 10 47 3c	 movss	 xmm0, DWORD PTR [edi+60]
  0008a	f3 0f 11 44 24
	04		 movss	 DWORD PTR [esp+4], xmm0
  00090	f3 0f 10 47 38	 movss	 xmm0, DWORD PTR [edi+56]
  00095	f3 0f 11 04 24	 movss	 DWORD PTR [esp], xmm0
  0009a	50		 push	 eax
  0009b	e8 00 00 00 00	 call	 _D3DXMatrixTranslation@16

; 131  : 		matWorld = matLocalPosition;

  000a0	0f 10 85 64 ff
	ff ff		 movups	 xmm0, XMMWORD PTR _matLocalPosition$4[ebp]

; 132  : 		matWorld *= m_worldMatrix;

  000a7	8d 43 6c	 lea	 eax, DWORD PTR [ebx+108]
; File C:\Marty 5.5\Src-Client\extern\include\d3dx8math.inl

; 512  :     D3DXMatrixMultiply(this, this, &mat);

  000aa	50		 push	 eax
; File C:\Marty 5.5\Src-Client\Client\GameLib\ActorInstanceMotionEvent.cpp

; 131  : 		matWorld = matLocalPosition;

  000ab	0f 11 45 a4	 movups	 XMMWORD PTR _matWorld$6[ebp], xmm0
; File C:\Marty 5.5\Src-Client\extern\include\d3dx8math.inl

; 512  :     D3DXMatrixMultiply(this, this, &mat);

  000af	8d 45 a4	 lea	 eax, DWORD PTR _matWorld$6[ebp]
; File C:\Marty 5.5\Src-Client\Client\GameLib\ActorInstanceMotionEvent.cpp

; 131  : 		matWorld = matLocalPosition;

  000b2	0f 10 85 74 ff
	ff ff		 movups	 xmm0, XMMWORD PTR _matLocalPosition$4[ebp+16]
; File C:\Marty 5.5\Src-Client\extern\include\d3dx8math.inl

; 512  :     D3DXMatrixMultiply(this, this, &mat);

  000b9	50		 push	 eax
  000ba	50		 push	 eax
; File C:\Marty 5.5\Src-Client\Client\GameLib\ActorInstanceMotionEvent.cpp

; 131  : 		matWorld = matLocalPosition;

  000bb	0f 11 45 b4	 movups	 XMMWORD PTR _matWorld$6[ebp+16], xmm0
  000bf	0f 10 45 84	 movups	 xmm0, XMMWORD PTR _matLocalPosition$4[ebp+32]
  000c3	0f 11 45 c4	 movups	 XMMWORD PTR _matWorld$6[ebp+32], xmm0
  000c7	0f 10 45 94	 movups	 xmm0, XMMWORD PTR _matLocalPosition$4[ebp+48]
  000cb	0f 11 45 d4	 movups	 XMMWORD PTR _matWorld$6[ebp+48], xmm0
; File C:\Marty 5.5\Src-Client\extern\include\d3dx8math.inl

; 512  :     D3DXMatrixMultiply(this, this, &mat);

  000cf	e8 00 00 00 00	 call	 _D3DXMatrixMultiply@12
; File C:\Marty 5.5\Src-Client\Client\GameLib\ActorInstanceMotionEvent.cpp

; 134  : 		CEffectManager::Instance().SelectEffectInstance(iIndex);

  000d4	56		 push	 esi

; 135  : 		CEffectManager::Instance().SetEffectInstanceGlobalMatrix(matWorld);
; 136  : 		return;

  000d5	e9 fb 00 00 00	 jmp	 $LN49@ProcessMot
$LN3@ProcessMot:

; 137  : 	}
; 138  : 
; 139  : 	if (c_pEffectData->isAttaching)

  000da	83 7f 14 00	 cmp	 DWORD PTR [edi+20], 0
  000de	0f 84 1e 01 00
	00		 je	 $LN4@ProcessMot

; 140  : 	{
; 141  : 		if (c_pEffectData->isFollowing)

  000e4	83 7f 18 00	 cmp	 DWORD PTR [edi+24], 0
  000e8	8d 57 20	 lea	 edx, DWORD PTR [edi+32]
  000eb	74 15		 je	 SHORT $LN6@ProcessMot
; File C:\Program Files\Microsoft Visual Studio\2022\Community\VC\Tools\MSVC\14.37.32822\include\xstring

; 2244 :         return _BUF_SIZE <= _Myres;

  000ed	83 7a 14 10	 cmp	 DWORD PTR [edx+20], 16	; 00000010H

; 2236 :         if (_Large_string_engaged()) {

  000f1	72 02		 jb	 SHORT $LN21@ProcessMot

; 2237 :             _Result = _Unfancy(_Bx._Ptr);

  000f3	8b 12		 mov	 edx, DWORD PTR [edx]
$LN21@ProcessMot:
; File C:\Marty 5.5\Src-Client\Client\GameLib\ActorInstanceMotionEvent.cpp

; 143  : 			AttachEffectByID(0,

  000f5	8d 47 38	 lea	 eax, DWORD PTR [edi+56]
  000f8	50		 push	 eax
  000f9	ff 77 44	 push	 DWORD PTR [edi+68]
  000fc	52		 push	 edx

; 144  : 						c_pEffectData->strAttachingBoneName.c_str(),
; 145  : 						c_pEffectData->dwEffectIndex,
; 146  : 						&c_pEffectData->v3EffectPosition);
; 147  : 		}

  000fd	e9 09 01 00 00	 jmp	 $LN48@ProcessMot
$LN6@ProcessMot:
; File C:\Program Files\Microsoft Visual Studio\2022\Community\VC\Tools\MSVC\14.37.32822\include\xstring

; 2244 :         return _BUF_SIZE <= _Myres;

  00102	83 7a 14 10	 cmp	 DWORD PTR [edx+20], 16	; 00000010H

; 2236 :         if (_Large_string_engaged()) {

  00106	72 02		 jb	 SHORT $LN28@ProcessMot

; 2237 :             _Result = _Unfancy(_Bx._Ptr);

  00108	8b 12		 mov	 edx, DWORD PTR [edx]
$LN28@ProcessMot:
; File C:\Marty 5.5\Src-Client\Client\GameLib\ActorInstanceMotionEvent.cpp

; 152  : 			if (FindBoneIndex(dwPartIndex, c_pEffectData->strAttachingBoneName.c_str(), &iBoneIndex))

  0010a	8d 85 60 ff ff
	ff		 lea	 eax, DWORD PTR _iBoneIndex$2[ebp]
  00110	50		 push	 eax
  00111	52		 push	 edx
  00112	6a 00		 push	 0
  00114	e8 00 00 00 00	 call	 ?FindBoneIndex@CGraphicThingInstance@@QAE_NHPBDPAH@Z ; CGraphicThingInstance::FindBoneIndex
  00119	84 c0		 test	 al, al
  0011b	0f 84 f1 00 00
	00		 je	 $LN47@ProcessMot

; 153  : 			{
; 154  : 				D3DXMATRIX * pBoneMat;
; 155  : 				GetBoneMatrix(dwPartIndex, iBoneIndex, &pBoneMat);

  00121	8d 85 5c ff ff
	ff		 lea	 eax, DWORD PTR _pBoneMat$1[ebp]
  00127	8b cb		 mov	 ecx, ebx
  00129	50		 push	 eax
  0012a	ff b5 60 ff ff
	ff		 push	 DWORD PTR _iBoneIndex$2[ebp]
  00130	6a 00		 push	 0
  00132	e8 00 00 00 00	 call	 ?GetBoneMatrix@CGraphicThingInstance@@QAEHKKPAPAUD3DXMATRIX@@@Z ; CGraphicThingInstance::GetBoneMatrix

; 156  : 
; 157  : 				D3DXMATRIX matLocalPosition;
; 158  : 				D3DXMatrixTranslation(&matLocalPosition, c_pEffectData->v3EffectPosition.x, c_pEffectData->v3EffectPosition.y, c_pEffectData->v3EffectPosition.z);

  00137	f3 0f 10 47 40	 movss	 xmm0, DWORD PTR [edi+64]
  0013c	8d 77 38	 lea	 esi, DWORD PTR [edi+56]
  0013f	83 ec 0c	 sub	 esp, 12			; 0000000cH
  00142	8d 85 64 ff ff
	ff		 lea	 eax, DWORD PTR _matLocalPosition$3[ebp]
  00148	f3 0f 11 44 24
	08		 movss	 DWORD PTR [esp+8], xmm0
  0014e	f3 0f 10 47 3c	 movss	 xmm0, DWORD PTR [edi+60]
  00153	f3 0f 11 44 24
	04		 movss	 DWORD PTR [esp+4], xmm0
  00159	f3 0f 10 06	 movss	 xmm0, DWORD PTR [esi]
  0015d	f3 0f 11 04 24	 movss	 DWORD PTR [esp], xmm0
  00162	50		 push	 eax
  00163	e8 00 00 00 00	 call	 _D3DXMatrixTranslation@16

; 162  : 				matWorld = *pBoneMat;

  00168	8b 85 5c ff ff
	ff		 mov	 eax, DWORD PTR _pBoneMat$1[ebp]
  0016e	0f 10 00	 movups	 xmm0, XMMWORD PTR [eax]
  00171	0f 11 45 a4	 movups	 XMMWORD PTR _matWorld$5[ebp], xmm0
  00175	0f 10 40 10	 movups	 xmm0, XMMWORD PTR [eax+16]
  00179	0f 11 45 b4	 movups	 XMMWORD PTR _matWorld$5[ebp+16], xmm0
  0017d	0f 10 40 20	 movups	 xmm0, XMMWORD PTR [eax+32]
  00181	0f 11 45 c4	 movups	 XMMWORD PTR _matWorld$5[ebp+32], xmm0
  00185	0f 10 40 30	 movups	 xmm0, XMMWORD PTR [eax+48]
; File C:\Marty 5.5\Src-Client\extern\include\d3dx8math.inl

; 512  :     D3DXMatrixMultiply(this, this, &mat);

  00189	8d 85 64 ff ff
	ff		 lea	 eax, DWORD PTR _matLocalPosition$3[ebp]
  0018f	50		 push	 eax
  00190	8d 45 a4	 lea	 eax, DWORD PTR _matWorld$5[ebp]
  00193	50		 push	 eax
  00194	50		 push	 eax
; File C:\Marty 5.5\Src-Client\Client\GameLib\ActorInstanceMotionEvent.cpp

; 162  : 				matWorld = *pBoneMat;

  00195	0f 11 45 d4	 movups	 XMMWORD PTR _matWorld$5[ebp+48], xmm0
; File C:\Marty 5.5\Src-Client\extern\include\d3dx8math.inl

; 512  :     D3DXMatrixMultiply(this, this, &mat);

  00199	e8 00 00 00 00	 call	 _D3DXMatrixMultiply@12
; File C:\Marty 5.5\Src-Client\Client\GameLib\ActorInstanceMotionEvent.cpp

; 164  : 				matWorld *= m_worldMatrix;

  0019e	8d 43 6c	 lea	 eax, DWORD PTR [ebx+108]
; File C:\Marty 5.5\Src-Client\extern\include\d3dx8math.inl

; 512  :     D3DXMatrixMultiply(this, this, &mat);

  001a1	50		 push	 eax
  001a2	8d 45 a4	 lea	 eax, DWORD PTR _matWorld$5[ebp]
  001a5	50		 push	 eax
  001a6	50		 push	 eax
  001a7	e8 00 00 00 00	 call	 _D3DXMatrixMultiply@12
; File C:\Marty 5.5\Src-Client\Client\GameLib\ActorInstanceMotionEvent.cpp

; 167  : 				int iIndex = CEffectManager::Instance().CreateEffect(c_pEffectData->dwEffectIndex,

  001ac	8b 0d 00 00 00
	00		 mov	 ecx, DWORD PTR ?ms_singleton@?$CSingleton@VCEffectManager@@@@0PAVCEffectManager@@A ; CSingleton<CEffectManager>::ms_singleton
  001b2	8d 45 f0	 lea	 eax, DWORD PTR $T8[ebp]
  001b5	50		 push	 eax
  001b6	56		 push	 esi
  001b7	ff 77 44	 push	 DWORD PTR [edi+68]
; File C:\Marty 5.5\Src-Client\extern\include\d3dx8math.inl

; 180  :     x = fx;

  001ba	c7 45 f0 00 00
	00 00		 mov	 DWORD PTR $T8[ebp], 0

; 181  :     y = fy;

  001c1	c7 45 f4 00 00
	00 00		 mov	 DWORD PTR $T8[ebp+4], 0

; 182  :     z = fz;

  001c8	c7 45 f8 00 00
	00 00		 mov	 DWORD PTR $T8[ebp+8], 0
; File C:\Marty 5.5\Src-Client\Client\GameLib\ActorInstanceMotionEvent.cpp

; 167  : 				int iIndex = CEffectManager::Instance().CreateEffect(c_pEffectData->dwEffectIndex,

  001cf	e8 00 00 00 00	 call	 ?CreateEffect@CEffectManager@@QAEHKABUD3DXVECTOR3@@0@Z ; CEffectManager::CreateEffect

; 168  : 														c_pEffectData->v3EffectPosition,
; 169  : 														D3DXVECTOR3(0.0f, 0.0f, 0.0f));
; 170  : 				CEffectManager::Instance().SelectEffectInstance(iIndex);

  001d4	50		 push	 eax
$LN49@ProcessMot:
  001d5	8b 0d 00 00 00
	00		 mov	 ecx, DWORD PTR ?ms_singleton@?$CSingleton@VCEffectManager@@@@0PAVCEffectManager@@A ; CSingleton<CEffectManager>::ms_singleton
  001db	e8 00 00 00 00	 call	 ?SelectEffectInstance@CEffectManager@@QAEHK@Z ; CEffectManager::SelectEffectInstance

; 171  : 				CEffectManager::Instance().SetEffectInstanceGlobalMatrix(matWorld);

  001e0	8b 0d 00 00 00
	00		 mov	 ecx, DWORD PTR ?ms_singleton@?$CSingleton@VCEffectManager@@@@0PAVCEffectManager@@A ; CSingleton<CEffectManager>::ms_singleton
  001e6	8d 45 a4	 lea	 eax, DWORD PTR _matWorld$5[ebp]
  001e9	50		 push	 eax
  001ea	e8 00 00 00 00	 call	 ?SetEffectInstanceGlobalMatrix@CEffectManager@@QAEXABUD3DXMATRIX@@@Z ; CEffectManager::SetEffectInstanceGlobalMatrix
  001ef	5e		 pop	 esi
  001f0	5f		 pop	 edi

; 178  : 	}
; 179  : }

  001f1	5b		 pop	 ebx
  001f2	8b 4d fc	 mov	 ecx, DWORD PTR __$ArrayPad$[ebp]
  001f5	33 cd		 xor	 ecx, ebp
  001f7	e8 00 00 00 00	 call	 @__security_check_cookie@4
  001fc	8b e5		 mov	 esp, ebp
  001fe	5d		 pop	 ebp
  001ff	c2 04 00	 ret	 4
$LN4@ProcessMot:

; 172  : 			}
; 173  : 		}
; 174  : 	}
; 175  : 	else
; 176  : 	{
; 177  : 		AttachEffectByID(0, NULL, c_pEffectData->dwEffectIndex, &c_pEffectData->v3EffectPosition);

  00202	8d 47 38	 lea	 eax, DWORD PTR [edi+56]
  00205	50		 push	 eax
  00206	ff 77 44	 push	 DWORD PTR [edi+68]
  00209	6a 00		 push	 0
$LN48@ProcessMot:
  0020b	6a 00		 push	 0
  0020d	e8 00 00 00 00	 call	 ?AttachEffectByID@CActorInstance@@QAEKKPBDKPBUD3DXVECTOR3@@@Z ; CActorInstance::AttachEffectByID
$LN47@ProcessMot:
  00212	5e		 pop	 esi
$LN5@ProcessMot:

; 178  : 	}
; 179  : }

  00213	8b 4d fc	 mov	 ecx, DWORD PTR __$ArrayPad$[ebp]
  00216	5f		 pop	 edi
  00217	33 cd		 xor	 ecx, ebp
  00219	5b		 pop	 ebx
  0021a	e8 00 00 00 00	 call	 @__security_check_cookie@4
  0021f	8b e5		 mov	 esp, ebp
  00221	5d		 pop	 ebp
  00222	c2 04 00	 ret	 4
?ProcessMotionEventEffectEvent@CActorInstance@@IAEXPBUSMotionEventData@NMotionEvent@@@Z ENDP ; CActorInstance::ProcessMotionEventEffectEvent
_TEXT	ENDS
; Function compile flags: /Ogtp
; File C:\Marty 5.5\Src-Client\Client\GameLib\ActorInstanceMotionEvent.cpp
;	COMDAT ?SoundEventProcess@CActorInstance@@QAEXH@Z
_TEXT	SEGMENT
_bCheckFrequency$ = 8					; size = 4
?SoundEventProcess@CActorInstance@@QAEXH@Z PROC		; CActorInstance::SoundEventProcess, COMDAT
; _this$ = ecx

; 29   : {

  00000	55		 push	 ebp
  00001	8b ec		 mov	 ebp, esp
  00003	57		 push	 edi
  00004	8b f9		 mov	 edi, ecx

; 30   : 	if (!m_pkCurRaceMotionData)

  00006	8b 8f 24 04 00
	00		 mov	 ecx, DWORD PTR [edi+1060]
  0000c	85 c9		 test	 ecx, ecx
  0000e	74 4a		 je	 SHORT $LN1@SoundEvent

; 31   : 		return;
; 32   : 
; 33   : 	CSoundManager& rkSndMgr=CSoundManager::Instance();

  00010	56		 push	 esi
  00011	8b 35 00 00 00
	00		 mov	 esi, DWORD PTR ?ms_singleton@?$CSingleton@VCSoundManager@@@@0PAVCSoundManager@@A ; CSingleton<CSoundManager>::ms_singleton

; 34   : 	const NSound::TSoundInstanceVector* c_pkVct_kSndInst=m_pkCurRaceMotionData->GetSoundInstanceVectorPointer();

  00017	e8 00 00 00 00	 call	 ?GetSoundInstanceVectorPointer@CRaceMotionData@@QBEPBV?$vector@USSoundInstance@NSound@@V?$allocator@USSoundInstance@NSound@@@std@@@std@@XZ ; CRaceMotionData::GetSoundInstanceVectorPointer

; 35   : 	rkSndMgr.UpdateSoundInstance(m_x, m_y, m_z, m_kCurMotNode.dwcurFrame, c_pkVct_kSndInst, bCheckFrequency);

  0001c	ff 75 08	 push	 DWORD PTR _bCheckFrequency$[ebp]
  0001f	f3 0f 10 87 70
	04 00 00	 movss	 xmm0, DWORD PTR [edi+1136]
  00027	8b ce		 mov	 ecx, esi
  00029	50		 push	 eax
  0002a	ff b7 18 03 00
	00		 push	 DWORD PTR [edi+792]
  00030	83 ec 0c	 sub	 esp, 12			; 0000000cH
  00033	f3 0f 11 44 24
	08		 movss	 DWORD PTR [esp+8], xmm0
  00039	f3 0f 10 87 6c
	04 00 00	 movss	 xmm0, DWORD PTR [edi+1132]
  00041	f3 0f 11 44 24
	04		 movss	 DWORD PTR [esp+4], xmm0
  00047	f3 0f 10 87 68
	04 00 00	 movss	 xmm0, DWORD PTR [edi+1128]
  0004f	f3 0f 11 04 24	 movss	 DWORD PTR [esp], xmm0
  00054	e8 00 00 00 00	 call	 ?UpdateSoundInstance@CSoundManager@@QAEXMMMKPBV?$vector@USSoundInstance@NSound@@V?$allocator@USSoundInstance@NSound@@@std@@@std@@H@Z ; CSoundManager::UpdateSoundInstance
  00059	5e		 pop	 esi
$LN1@SoundEvent:
  0005a	5f		 pop	 edi

; 36   : }

  0005b	5d		 pop	 ebp
  0005c	c2 04 00	 ret	 4
?SoundEventProcess@CActorInstance@@QAEXH@Z ENDP		; CActorInstance::SoundEventProcess
_TEXT	ENDS
; Function compile flags: /Ogtp
; File C:\Marty 5.5\Src-Client\Client\GameLib\ActorInstanceMotionEvent.cpp
;	COMDAT ?MotionEventProcess@CActorInstance@@QAEXKHPBUSMotionEventData@NMotionEvent@@@Z
_TEXT	SEGMENT
_dwcurFrame$ = 8					; size = 4
_iIndex$ = 12						; size = 4
_c_pData$ = 16						; size = 4
?MotionEventProcess@CActorInstance@@QAEXKHPBUSMotionEventData@NMotionEvent@@@Z PROC ; CActorInstance::MotionEventProcess, COMDAT
; _this$ = ecx

; 39   : {

  00000	55		 push	 ebp
  00001	8b ec		 mov	 ebp, esp

; 40   : 	if (c_pData->dwFrame != dwcurFrame)

  00003	8b 55 10	 mov	 edx, DWORD PTR _c_pData$[ebp]
  00006	8b 42 08	 mov	 eax, DWORD PTR [edx+8]
  00009	3b 45 08	 cmp	 eax, DWORD PTR _dwcurFrame$[ebp]
  0000c	75 6e		 jne	 SHORT $LN2@MotionEven

; 41   : 		return;
; 42   : 
; 43   : 	switch (c_pData->iType)

  0000e	8b 42 04	 mov	 eax, DWORD PTR [edx+4]
  00011	48		 dec	 eax
  00012	83 f8 09	 cmp	 eax, 9
  00015	77 65		 ja	 SHORT $LN2@MotionEven
  00017	ff 24 85 00 00
	00 00		 jmp	 DWORD PTR $LN15@MotionEven[eax*4]
$LN5@MotionEven:

; 44   : 	{
; 45   : 		case CRaceMotionData::MOTION_EVENT_TYPE_EFFECT:
; 46   : 			ProcessMotionEventEffectEvent(c_pData);

  0001e	52		 push	 edx
  0001f	e8 00 00 00 00	 call	 ?ProcessMotionEventEffectEvent@CActorInstance@@IAEXPBUSMotionEventData@NMotionEvent@@@Z ; CActorInstance::ProcessMotionEventEffectEvent

; 80   : #endif
; 81   : 			break;
; 82   : #ifdef ENABLE_WOLFMAN_CHARACTER
; 83   : 		case CRaceMotionData::MOTION_EVENT_TYPE_UNK11:
; 84   : #ifndef WORLD_EDITOR
; 85   : 			ProcessMotionEventUnk11(dwcurFrame, iIndex, c_pData);
; 86   : #endif
; 87   : 			break;
; 88   : 		case CRaceMotionData::MOTION_EVENT_TYPE_UNK12:
; 89   : #ifndef WORLD_EDITOR
; 90   : 			ProcessMotionEventUnk12(dwcurFrame, iIndex, c_pData);
; 91   : #endif
; 92   : 			break;
; 93   : #endif
; 94   : 	}
; 95   : }

  00024	5d		 pop	 ebp
  00025	c2 0c 00	 ret	 12			; 0000000cH
$LN6@MotionEven:

; 47   : 			break;
; 48   : 
; 49   : 		case CRaceMotionData::MOTION_EVENT_TYPE_EFFECT_TO_TARGET:
; 50   : 			ProcessMotionEventEffectToTargetEvent(c_pData);

  00028	52		 push	 edx
  00029	e8 00 00 00 00	 call	 ?ProcessMotionEventEffectToTargetEvent@CActorInstance@@IAEXPBUSMotionEventData@NMotionEvent@@@Z ; CActorInstance::ProcessMotionEventEffectToTargetEvent

; 80   : #endif
; 81   : 			break;
; 82   : #ifdef ENABLE_WOLFMAN_CHARACTER
; 83   : 		case CRaceMotionData::MOTION_EVENT_TYPE_UNK11:
; 84   : #ifndef WORLD_EDITOR
; 85   : 			ProcessMotionEventUnk11(dwcurFrame, iIndex, c_pData);
; 86   : #endif
; 87   : 			break;
; 88   : 		case CRaceMotionData::MOTION_EVENT_TYPE_UNK12:
; 89   : #ifndef WORLD_EDITOR
; 90   : 			ProcessMotionEventUnk12(dwcurFrame, iIndex, c_pData);
; 91   : #endif
; 92   : 			break;
; 93   : #endif
; 94   : 	}
; 95   : }

  0002e	5d		 pop	 ebp
  0002f	c2 0c 00	 ret	 12			; 0000000cH
$LN7@MotionEven:

; 51   : 			break;
; 52   : 
; 53   : 		case CRaceMotionData::MOTION_EVENT_TYPE_SCREEN_WAVING:
; 54   : 			CGameEventManager::Instance().ProcessEventScreenWaving(this, (const CRaceMotionData::TScreenWavingEventData *)c_pData);

  00032	52		 push	 edx
  00033	51		 push	 ecx
  00034	8b 0d 00 00 00
	00		 mov	 ecx, DWORD PTR ?ms_singleton@?$CSingleton@VCGameEventManager@@@@0PAVCGameEventManager@@A ; CSingleton<CGameEventManager>::ms_singleton
  0003a	e8 00 00 00 00	 call	 ?ProcessEventScreenWaving@CGameEventManager@@QAEXPAVCActorInstance@@PBUSMotionEventDataScreenWaving@NMotionEvent@@@Z ; CGameEventManager::ProcessEventScreenWaving

; 80   : #endif
; 81   : 			break;
; 82   : #ifdef ENABLE_WOLFMAN_CHARACTER
; 83   : 		case CRaceMotionData::MOTION_EVENT_TYPE_UNK11:
; 84   : #ifndef WORLD_EDITOR
; 85   : 			ProcessMotionEventUnk11(dwcurFrame, iIndex, c_pData);
; 86   : #endif
; 87   : 			break;
; 88   : 		case CRaceMotionData::MOTION_EVENT_TYPE_UNK12:
; 89   : #ifndef WORLD_EDITOR
; 90   : 			ProcessMotionEventUnk12(dwcurFrame, iIndex, c_pData);
; 91   : #endif
; 92   : 			break;
; 93   : #endif
; 94   : 	}
; 95   : }

  0003f	5d		 pop	 ebp
  00040	c2 0c 00	 ret	 12			; 0000000cH
$LN8@MotionEven:

; 55   : 			break;
; 56   : 
; 57   : 		case CRaceMotionData::MOTION_EVENT_TYPE_SPECIAL_ATTACKING:
; 58   : 			ProcessMotionEventSpecialAttacking(iIndex, c_pData);

  00043	52		 push	 edx
  00044	ff 75 0c	 push	 DWORD PTR _iIndex$[ebp]
  00047	e8 00 00 00 00	 call	 ?ProcessMotionEventSpecialAttacking@CActorInstance@@IAEXHPBUSMotionEventData@NMotionEvent@@@Z ; CActorInstance::ProcessMotionEventSpecialAttacking

; 80   : #endif
; 81   : 			break;
; 82   : #ifdef ENABLE_WOLFMAN_CHARACTER
; 83   : 		case CRaceMotionData::MOTION_EVENT_TYPE_UNK11:
; 84   : #ifndef WORLD_EDITOR
; 85   : 			ProcessMotionEventUnk11(dwcurFrame, iIndex, c_pData);
; 86   : #endif
; 87   : 			break;
; 88   : 		case CRaceMotionData::MOTION_EVENT_TYPE_UNK12:
; 89   : #ifndef WORLD_EDITOR
; 90   : 			ProcessMotionEventUnk12(dwcurFrame, iIndex, c_pData);
; 91   : #endif
; 92   : 			break;
; 93   : #endif
; 94   : 	}
; 95   : }

  0004c	5d		 pop	 ebp
  0004d	c2 0c 00	 ret	 12			; 0000000cH
$LN9@MotionEven:

; 59   : 			break;
; 60   : 
; 61   : 		case CRaceMotionData::MOTION_EVENT_TYPE_SOUND:
; 62   : 			ProcessMotionEventSound(c_pData);

  00050	52		 push	 edx
  00051	e8 00 00 00 00	 call	 ?ProcessMotionEventSound@CActorInstance@@IAEXPBUSMotionEventData@NMotionEvent@@@Z ; CActorInstance::ProcessMotionEventSound

; 80   : #endif
; 81   : 			break;
; 82   : #ifdef ENABLE_WOLFMAN_CHARACTER
; 83   : 		case CRaceMotionData::MOTION_EVENT_TYPE_UNK11:
; 84   : #ifndef WORLD_EDITOR
; 85   : 			ProcessMotionEventUnk11(dwcurFrame, iIndex, c_pData);
; 86   : #endif
; 87   : 			break;
; 88   : 		case CRaceMotionData::MOTION_EVENT_TYPE_UNK12:
; 89   : #ifndef WORLD_EDITOR
; 90   : 			ProcessMotionEventUnk12(dwcurFrame, iIndex, c_pData);
; 91   : #endif
; 92   : 			break;
; 93   : #endif
; 94   : 	}
; 95   : }

  00056	5d		 pop	 ebp
  00057	c2 0c 00	 ret	 12			; 0000000cH
$LN10@MotionEven:

; 63   : 			break;
; 64   : 
; 65   : 		case CRaceMotionData::MOTION_EVENT_TYPE_FLY:
; 66   : 			ProcessMotionEventFly(c_pData);

  0005a	52		 push	 edx
  0005b	e8 00 00 00 00	 call	 ?ProcessMotionEventFly@CActorInstance@@IAEXPBUSMotionEventData@NMotionEvent@@@Z ; CActorInstance::ProcessMotionEventFly

; 80   : #endif
; 81   : 			break;
; 82   : #ifdef ENABLE_WOLFMAN_CHARACTER
; 83   : 		case CRaceMotionData::MOTION_EVENT_TYPE_UNK11:
; 84   : #ifndef WORLD_EDITOR
; 85   : 			ProcessMotionEventUnk11(dwcurFrame, iIndex, c_pData);
; 86   : #endif
; 87   : 			break;
; 88   : 		case CRaceMotionData::MOTION_EVENT_TYPE_UNK12:
; 89   : #ifndef WORLD_EDITOR
; 90   : 			ProcessMotionEventUnk12(dwcurFrame, iIndex, c_pData);
; 91   : #endif
; 92   : 			break;
; 93   : #endif
; 94   : 	}
; 95   : }

  00060	5d		 pop	 ebp
  00061	c2 0c 00	 ret	 12			; 0000000cH
$LN11@MotionEven:

; 67   : 			break;
; 68   : 
; 69   : 		case CRaceMotionData::MOTION_EVENT_TYPE_CHARACTER_SHOW:
; 70   : 			__ShowEvent();

  00064	e8 00 00 00 00	 call	 ?__ShowEvent@CActorInstance@@IAEXXZ ; CActorInstance::__ShowEvent

; 80   : #endif
; 81   : 			break;
; 82   : #ifdef ENABLE_WOLFMAN_CHARACTER
; 83   : 		case CRaceMotionData::MOTION_EVENT_TYPE_UNK11:
; 84   : #ifndef WORLD_EDITOR
; 85   : 			ProcessMotionEventUnk11(dwcurFrame, iIndex, c_pData);
; 86   : #endif
; 87   : 			break;
; 88   : 		case CRaceMotionData::MOTION_EVENT_TYPE_UNK12:
; 89   : #ifndef WORLD_EDITOR
; 90   : 			ProcessMotionEventUnk12(dwcurFrame, iIndex, c_pData);
; 91   : #endif
; 92   : 			break;
; 93   : #endif
; 94   : 	}
; 95   : }

  00069	5d		 pop	 ebp
  0006a	c2 0c 00	 ret	 12			; 0000000cH
$LN12@MotionEven:

; 71   : 			break;
; 72   : 
; 73   : 		case CRaceMotionData::MOTION_EVENT_TYPE_CHARACTER_HIDE:
; 74   : 			__HideEvent();

  0006d	e8 00 00 00 00	 call	 ?__HideEvent@CActorInstance@@IAEXXZ ; CActorInstance::__HideEvent

; 80   : #endif
; 81   : 			break;
; 82   : #ifdef ENABLE_WOLFMAN_CHARACTER
; 83   : 		case CRaceMotionData::MOTION_EVENT_TYPE_UNK11:
; 84   : #ifndef WORLD_EDITOR
; 85   : 			ProcessMotionEventUnk11(dwcurFrame, iIndex, c_pData);
; 86   : #endif
; 87   : 			break;
; 88   : 		case CRaceMotionData::MOTION_EVENT_TYPE_UNK12:
; 89   : #ifndef WORLD_EDITOR
; 90   : 			ProcessMotionEventUnk12(dwcurFrame, iIndex, c_pData);
; 91   : #endif
; 92   : 			break;
; 93   : #endif
; 94   : 	}
; 95   : }

  00072	5d		 pop	 ebp
  00073	c2 0c 00	 ret	 12			; 0000000cH
$LN13@MotionEven:

; 75   : 			break;
; 76   : 
; 77   : 		case CRaceMotionData::MOTION_EVENT_TYPE_WARP:
; 78   : #ifndef WORLD_EDITOR
; 79   : 			ProcessMotionEventWarp(c_pData);

  00076	52		 push	 edx
  00077	e8 00 00 00 00	 call	 ?ProcessMotionEventWarp@CActorInstance@@IAEXPBUSMotionEventData@NMotionEvent@@@Z ; CActorInstance::ProcessMotionEventWarp
$LN2@MotionEven:

; 80   : #endif
; 81   : 			break;
; 82   : #ifdef ENABLE_WOLFMAN_CHARACTER
; 83   : 		case CRaceMotionData::MOTION_EVENT_TYPE_UNK11:
; 84   : #ifndef WORLD_EDITOR
; 85   : 			ProcessMotionEventUnk11(dwcurFrame, iIndex, c_pData);
; 86   : #endif
; 87   : 			break;
; 88   : 		case CRaceMotionData::MOTION_EVENT_TYPE_UNK12:
; 89   : #ifndef WORLD_EDITOR
; 90   : 			ProcessMotionEventUnk12(dwcurFrame, iIndex, c_pData);
; 91   : #endif
; 92   : 			break;
; 93   : #endif
; 94   : 	}
; 95   : }

  0007c	5d		 pop	 ebp
  0007d	c2 0c 00	 ret	 12			; 0000000cH
$LN15@MotionEven:
  00080	00 00 00 00	 DD	 $LN5@MotionEven
  00084	00 00 00 00	 DD	 $LN7@MotionEven
  00088	00 00 00 00	 DD	 $LN2@MotionEven
  0008c	00 00 00 00	 DD	 $LN8@MotionEven
  00090	00 00 00 00	 DD	 $LN9@MotionEven
  00094	00 00 00 00	 DD	 $LN10@MotionEven
  00098	00 00 00 00	 DD	 $LN11@MotionEven
  0009c	00 00 00 00	 DD	 $LN12@MotionEven
  000a0	00 00 00 00	 DD	 $LN13@MotionEven
  000a4	00 00 00 00	 DD	 $LN6@MotionEven
?MotionEventProcess@CActorInstance@@QAEXKHPBUSMotionEventData@NMotionEvent@@@Z ENDP ; CActorInstance::MotionEventProcess
_TEXT	ENDS
; Function compile flags: /Ogtp
; File C:\Marty 5.5\Src-Client\Client\GameLib\ActorInstanceMotionEvent.cpp
;	COMDAT ?MotionEventProcess@CActorInstance@@QAEXXZ
_TEXT	SEGMENT
_c_pData$1 = -4						; size = 4
?MotionEventProcess@CActorInstance@@QAEXXZ PROC		; CActorInstance::MotionEventProcess, COMDAT
; _this$ = ecx

; 14   : {

  00000	55		 push	 ebp
  00001	8b ec		 mov	 ebp, esp
  00003	51		 push	 ecx
  00004	57		 push	 edi
  00005	8b f9		 mov	 edi, ecx

; 15   : 	if (!m_pkCurRaceMotionData)

  00007	8b 8f 24 04 00
	00		 mov	 ecx, DWORD PTR [edi+1060]
  0000d	85 c9		 test	 ecx, ecx
  0000f	74 45		 je	 SHORT $LN3@MotionEven

; 16   : 		return;
; 17   : 
; 18   : 	for (DWORD i = 0; i < m_pkCurRaceMotionData->GetMotionEventDataCount(); ++i)

  00011	56		 push	 esi
  00012	33 f6		 xor	 esi, esi
  00014	e8 00 00 00 00	 call	 ?GetMotionEventDataCount@CRaceMotionData@@QBEKXZ ; CRaceMotionData::GetMotionEventDataCount
  00019	85 c0		 test	 eax, eax
  0001b	74 38		 je	 SHORT $LN15@MotionEven
  0001d	0f 1f 00	 npad	 3
$LL4@MotionEven:

; 19   : 	{
; 20   : 		const CRaceMotionData::TMotionEventData * c_pData;
; 21   : 		if (!m_pkCurRaceMotionData->GetMotionEventDataPointer(i, &c_pData))

  00020	8b 8f 24 04 00
	00		 mov	 ecx, DWORD PTR [edi+1060]
  00026	8d 45 fc	 lea	 eax, DWORD PTR _c_pData$1[ebp]
  00029	50		 push	 eax
  0002a	56		 push	 esi
  0002b	e8 00 00 00 00	 call	 ?GetMotionEventDataPointer@CRaceMotionData@@QBEHEPAPBUSMotionEventData@NMotionEvent@@@Z ; CRaceMotionData::GetMotionEventDataPointer
  00030	85 c0		 test	 eax, eax
  00032	74 11		 je	 SHORT $LN2@MotionEven

; 22   : 			continue;
; 23   : 
; 24   : 		MotionEventProcess(m_kCurMotNode.dwcurFrame, i, c_pData);

  00034	ff 75 fc	 push	 DWORD PTR _c_pData$1[ebp]
  00037	8b cf		 mov	 ecx, edi
  00039	56		 push	 esi
  0003a	ff b7 18 03 00
	00		 push	 DWORD PTR [edi+792]
  00040	e8 00 00 00 00	 call	 ?MotionEventProcess@CActorInstance@@QAEXKHPBUSMotionEventData@NMotionEvent@@@Z ; CActorInstance::MotionEventProcess
$LN2@MotionEven:

; 16   : 		return;
; 17   : 
; 18   : 	for (DWORD i = 0; i < m_pkCurRaceMotionData->GetMotionEventDataCount(); ++i)

  00045	8b 8f 24 04 00
	00		 mov	 ecx, DWORD PTR [edi+1060]
  0004b	46		 inc	 esi
  0004c	e8 00 00 00 00	 call	 ?GetMotionEventDataCount@CRaceMotionData@@QBEKXZ ; CRaceMotionData::GetMotionEventDataCount
  00051	3b f0		 cmp	 esi, eax
  00053	72 cb		 jb	 SHORT $LL4@MotionEven
$LN15@MotionEven:
  00055	5e		 pop	 esi
$LN3@MotionEven:
  00056	5f		 pop	 edi

; 25   : 	}
; 26   : }

  00057	8b e5		 mov	 esp, ebp
  00059	5d		 pop	 ebp
  0005a	c3		 ret	 0
?MotionEventProcess@CActorInstance@@QAEXXZ ENDP		; CActorInstance::MotionEventProcess
_TEXT	ENDS
; Function compile flags: /Ogtp
; File C:\Program Files\Microsoft Visual Studio\2022\Community\VC\Tools\MSVC\14.37.32822\include\vector
;	COMDAT ?_Xlength@?$vector@UCDynamicSphereInstance@@V?$allocator@UCDynamicSphereInstance@@@std@@@std@@CAXXZ
_TEXT	SEGMENT
?_Xlength@?$vector@UCDynamicSphereInstance@@V?$allocator@UCDynamicSphereInstance@@@std@@@std@@CAXXZ PROC ; std::vector<CDynamicSphereInstance,std::allocator<CDynamicSphereInstance> >::_Xlength, COMDAT

; 2138 :         _Xlength_error("vector too long");

  00000	68 00 00 00 00	 push	 OFFSET ??_C@_0BA@FOIKENOD@vector?5too?5long@
  00005	e8 00 00 00 00	 call	 ?_Xlength_error@std@@YAXPBD@Z ; std::_Xlength_error
$LN3@Xlength:
  0000a	cc		 int	 3
?_Xlength@?$vector@UCDynamicSphereInstance@@V?$allocator@UCDynamicSphereInstance@@@std@@@std@@CAXXZ ENDP ; std::vector<CDynamicSphereInstance,std::allocator<CDynamicSphereInstance> >::_Xlength
_TEXT	ENDS
; Function compile flags: /Ogtp
; File C:\Program Files\Microsoft Visual Studio\2022\Community\VC\Tools\MSVC\14.37.32822\include\xmemory
;	COMDAT ??$_Allocate_manually_vector_aligned@U_Default_allocate_traits@std@@@std@@YAPAXI@Z
_TEXT	SEGMENT
__Bytes$ = 8						; size = 4
??$_Allocate_manually_vector_aligned@U_Default_allocate_traits@std@@@std@@YAPAXI@Z PROC ; std::_Allocate_manually_vector_aligned<std::_Default_allocate_traits>, COMDAT

; 137  : __declspec(allocator) void* _Allocate_manually_vector_aligned(const size_t _Bytes) {

  00000	55		 push	 ebp
  00001	8b ec		 mov	 ebp, esp

; 138  :     // allocate _Bytes manually aligned to at least _Big_allocation_alignment
; 139  :     const size_t _Block_size = _Non_user_size + _Bytes;

  00003	8b 45 08	 mov	 eax, DWORD PTR __Bytes$[ebp]
  00006	8d 48 23	 lea	 ecx, DWORD PTR [eax+35]

; 140  :     if (_Block_size <= _Bytes) {

  00009	3b c8		 cmp	 ecx, eax
  0000b	0f 86 00 00 00
	00		 jbe	 ?_Throw_bad_array_new_length@std@@YAXXZ ; std::_Throw_bad_array_new_length

; 87   :         return ::operator new(_Bytes);

  00011	51		 push	 ecx
  00012	e8 00 00 00 00	 call	 ??2@YAPAXI@Z		; operator new

; 141  :         _Throw_bad_array_new_length(); // add overflow
; 142  :     }
; 143  : 
; 144  :     const uintptr_t _Ptr_container = reinterpret_cast<uintptr_t>(_Traits::_Allocate(_Block_size));

  00017	8b c8		 mov	 ecx, eax

; 87   :         return ::operator new(_Bytes);

  00019	83 c4 04	 add	 esp, 4

; 145  :     _STL_VERIFY(_Ptr_container != 0, "invalid argument"); // validate even in release since we're doing p[-1]

  0001c	85 c9		 test	 ecx, ecx
  0001e	74 0b		 je	 SHORT $LN7@Allocate_m

; 146  :     void* const _Ptr = reinterpret_cast<void*>((_Ptr_container + _Non_user_size) & ~(_Big_allocation_alignment - 1));

  00020	8d 41 23	 lea	 eax, DWORD PTR [ecx+35]
  00023	83 e0 e0	 and	 eax, -32		; ffffffe0H

; 147  :     static_cast<uintptr_t*>(_Ptr)[-1] = _Ptr_container;

  00026	89 48 fc	 mov	 DWORD PTR [eax-4], ecx

; 148  : 
; 149  : #ifdef _DEBUG
; 150  :     static_cast<uintptr_t*>(_Ptr)[-2] = _Big_allocation_sentinel;
; 151  : #endif // _DEBUG
; 152  :     return _Ptr;
; 153  : }

  00029	5d		 pop	 ebp
  0002a	c3		 ret	 0
$LN7@Allocate_m:

; 145  :     _STL_VERIFY(_Ptr_container != 0, "invalid argument"); // validate even in release since we're doing p[-1]

  0002b	e9 00 00 00 00	 jmp	 __invalid_parameter_noinfo_noreturn
??$_Allocate_manually_vector_aligned@U_Default_allocate_traits@std@@@std@@YAPAXI@Z ENDP ; std::_Allocate_manually_vector_aligned<std::_Default_allocate_traits>
_TEXT	ENDS
; Function compile flags: /Ogtp
; File C:\Program Files\Microsoft Visual Studio\2022\Community\VC\Tools\MSVC\14.37.32822\include\exception
;	COMDAT ?_Throw_bad_array_new_length@std@@YAXXZ
_TEXT	SEGMENT
$T1 = -12						; size = 12
?_Throw_bad_array_new_length@std@@YAXXZ PROC		; std::_Throw_bad_array_new_length, COMDAT

; 331  : [[noreturn]] inline void _Throw_bad_array_new_length() {

  00000	55		 push	 ebp
  00001	8b ec		 mov	 ebp, esp
  00003	83 ec 0c	 sub	 esp, 12			; 0000000cH

; 332  :     _THROW(bad_array_new_length{});

  00006	8d 4d f4	 lea	 ecx, DWORD PTR $T1[ebp]
  00009	e8 00 00 00 00	 call	 ??0bad_array_new_length@std@@QAE@XZ ; std::bad_array_new_length::bad_array_new_length
  0000e	68 00 00 00 00	 push	 OFFSET __TI3?AVbad_array_new_length@std@@
  00013	8d 45 f4	 lea	 eax, DWORD PTR $T1[ebp]
  00016	50		 push	 eax
  00017	e8 00 00 00 00	 call	 __CxxThrowException@8
$LN3@Throw_bad_:
  0001c	cc		 int	 3
?_Throw_bad_array_new_length@std@@YAXXZ ENDP		; std::_Throw_bad_array_new_length
_TEXT	ENDS
; Function compile flags: /Ogtp
; File C:\Program Files\Microsoft Visual Studio\2022\Community\VC\Tools\MSVC\14.37.32822\include\vcruntime_exception.h
;	COMDAT ??_Gbad_array_new_length@std@@UAEPAXI@Z
_TEXT	SEGMENT
___flags$ = 8						; size = 4
??_Gbad_array_new_length@std@@UAEPAXI@Z PROC		; std::bad_array_new_length::`scalar deleting destructor', COMDAT
; _this$ = ecx
  00000	55		 push	 ebp
  00001	8b ec		 mov	 ebp, esp

; 89   :     {

  00003	56		 push	 esi
  00004	8b f1		 mov	 esi, ecx

; 90   :         __std_exception_destroy(&_Data);

  00006	8d 46 04	 lea	 eax, DWORD PTR [esi+4]
  00009	c7 06 00 00 00
	00		 mov	 DWORD PTR [esi], OFFSET ??_7exception@std@@6B@
  0000f	50		 push	 eax
  00010	e8 00 00 00 00	 call	 ___std_exception_destroy
  00015	83 c4 04	 add	 esp, 4
  00018	f6 45 08 01	 test	 BYTE PTR ___flags$[ebp], 1
  0001c	74 0b		 je	 SHORT $LN12@scalar
  0001e	6a 0c		 push	 12			; 0000000cH
  00020	56		 push	 esi
  00021	e8 00 00 00 00	 call	 ??3@YAXPAXI@Z		; operator delete
  00026	83 c4 08	 add	 esp, 8
$LN12@scalar:
  00029	8b c6		 mov	 eax, esi
  0002b	5e		 pop	 esi
  0002c	5d		 pop	 ebp
  0002d	c2 04 00	 ret	 4
??_Gbad_array_new_length@std@@UAEPAXI@Z ENDP		; std::bad_array_new_length::`scalar deleting destructor'
_TEXT	ENDS
; Function compile flags: /Ogtp
; File C:\Program Files\Microsoft Visual Studio\2022\Community\VC\Tools\MSVC\14.37.32822\include\vcruntime_exception.h
;	COMDAT ??0bad_array_new_length@std@@QAE@ABV01@@Z
_TEXT	SEGMENT
___that$ = 8						; size = 4
??0bad_array_new_length@std@@QAE@ABV01@@Z PROC		; std::bad_array_new_length::bad_array_new_length, COMDAT
; _this$ = ecx
  00000	55		 push	 ebp
  00001	8b ec		 mov	 ebp, esp

; 72   :     {

  00003	56		 push	 esi
  00004	8b f1		 mov	 esi, ecx
  00006	0f 57 c0	 xorps	 xmm0, xmm0

; 71   :         : _Data()

  00009	8d 46 04	 lea	 eax, DWORD PTR [esi+4]

; 73   :         __std_exception_copy(&_Other._Data, &_Data);

  0000c	50		 push	 eax
  0000d	c7 06 00 00 00
	00		 mov	 DWORD PTR [esi], OFFSET ??_7exception@std@@6B@
  00013	66 0f d6 00	 movq	 QWORD PTR [eax], xmm0
  00017	8b 45 08	 mov	 eax, DWORD PTR ___that$[ebp]
  0001a	83 c0 04	 add	 eax, 4
  0001d	50		 push	 eax
  0001e	e8 00 00 00 00	 call	 ___std_exception_copy
  00023	83 c4 08	 add	 esp, 8
  00026	c7 06 00 00 00
	00		 mov	 DWORD PTR [esi], OFFSET ??_7bad_array_new_length@std@@6B@
  0002c	8b c6		 mov	 eax, esi
  0002e	5e		 pop	 esi
  0002f	5d		 pop	 ebp
  00030	c2 04 00	 ret	 4
??0bad_array_new_length@std@@QAE@ABV01@@Z ENDP		; std::bad_array_new_length::bad_array_new_length
_TEXT	ENDS
; Function compile flags: /Ogtp
; File C:\Program Files\Microsoft Visual Studio\2022\Community\VC\Tools\MSVC\14.37.32822\include\vcruntime_exception.h
;	COMDAT ??1bad_array_new_length@std@@UAE@XZ
_TEXT	SEGMENT
??1bad_array_new_length@std@@UAE@XZ PROC		; std::bad_array_new_length::~bad_array_new_length, COMDAT
; _this$ = ecx

; 90   :         __std_exception_destroy(&_Data);

  00000	8d 41 04	 lea	 eax, DWORD PTR [ecx+4]
  00003	c7 01 00 00 00
	00		 mov	 DWORD PTR [ecx], OFFSET ??_7exception@std@@6B@
  00009	50		 push	 eax
  0000a	e8 00 00 00 00	 call	 ___std_exception_destroy
  0000f	59		 pop	 ecx
  00010	c3		 ret	 0
??1bad_array_new_length@std@@UAE@XZ ENDP		; std::bad_array_new_length::~bad_array_new_length
_TEXT	ENDS
; Function compile flags: /Ogtp
; File C:\Program Files\Microsoft Visual Studio\2022\Community\VC\Tools\MSVC\14.37.32822\include\vcruntime_exception.h
;	COMDAT ??0bad_array_new_length@std@@QAE@XZ
_TEXT	SEGMENT
??0bad_array_new_length@std@@QAE@XZ PROC		; std::bad_array_new_length::bad_array_new_length, COMDAT
; _this$ = ecx

; 141  :     {

  00000	0f 57 c0	 xorps	 xmm0, xmm0

; 142  :     }

  00003	8b c1		 mov	 eax, ecx

; 65   :         : _Data()

  00005	66 0f d6 41 04	 movq	 QWORD PTR [ecx+4], xmm0

; 66   :     {
; 67   :         _Data._What = _Message;

  0000a	c7 41 04 00 00
	00 00		 mov	 DWORD PTR [ecx+4], OFFSET ??_C@_0BF@KINCDENJ@bad?5array?5new?5length@

; 141  :     {

  00011	c7 01 00 00 00
	00		 mov	 DWORD PTR [ecx], OFFSET ??_7bad_array_new_length@std@@6B@

; 142  :     }

  00017	c3		 ret	 0
??0bad_array_new_length@std@@QAE@XZ ENDP		; std::bad_array_new_length::bad_array_new_length
_TEXT	ENDS
; Function compile flags: /Ogtp
; File C:\Program Files\Microsoft Visual Studio\2022\Community\VC\Tools\MSVC\14.37.32822\include\vcruntime_exception.h
;	COMDAT ??_Gbad_alloc@std@@UAEPAXI@Z
_TEXT	SEGMENT
___flags$ = 8						; size = 4
??_Gbad_alloc@std@@UAEPAXI@Z PROC			; std::bad_alloc::`scalar deleting destructor', COMDAT
; _this$ = ecx
  00000	55		 push	 ebp
  00001	8b ec		 mov	 ebp, esp

; 89   :     {

  00003	56		 push	 esi
  00004	8b f1		 mov	 esi, ecx

; 90   :         __std_exception_destroy(&_Data);

  00006	8d 46 04	 lea	 eax, DWORD PTR [esi+4]
  00009	c7 06 00 00 00
	00		 mov	 DWORD PTR [esi], OFFSET ??_7exception@std@@6B@
  0000f	50		 push	 eax
  00010	e8 00 00 00 00	 call	 ___std_exception_destroy
  00015	83 c4 04	 add	 esp, 4
  00018	f6 45 08 01	 test	 BYTE PTR ___flags$[ebp], 1
  0001c	74 0b		 je	 SHORT $LN9@scalar
  0001e	6a 0c		 push	 12			; 0000000cH
  00020	56		 push	 esi
  00021	e8 00 00 00 00	 call	 ??3@YAXPAXI@Z		; operator delete
  00026	83 c4 08	 add	 esp, 8
$LN9@scalar:
  00029	8b c6		 mov	 eax, esi
  0002b	5e		 pop	 esi
  0002c	5d		 pop	 ebp
  0002d	c2 04 00	 ret	 4
??_Gbad_alloc@std@@UAEPAXI@Z ENDP			; std::bad_alloc::`scalar deleting destructor'
_TEXT	ENDS
; Function compile flags: /Ogtp
; File C:\Program Files\Microsoft Visual Studio\2022\Community\VC\Tools\MSVC\14.37.32822\include\vcruntime_exception.h
;	COMDAT ??0bad_alloc@std@@QAE@ABV01@@Z
_TEXT	SEGMENT
___that$ = 8						; size = 4
??0bad_alloc@std@@QAE@ABV01@@Z PROC			; std::bad_alloc::bad_alloc, COMDAT
; _this$ = ecx
  00000	55		 push	 ebp
  00001	8b ec		 mov	 ebp, esp

; 72   :     {

  00003	56		 push	 esi
  00004	8b f1		 mov	 esi, ecx
  00006	0f 57 c0	 xorps	 xmm0, xmm0

; 71   :         : _Data()

  00009	8d 46 04	 lea	 eax, DWORD PTR [esi+4]

; 73   :         __std_exception_copy(&_Other._Data, &_Data);

  0000c	50		 push	 eax
  0000d	c7 06 00 00 00
	00		 mov	 DWORD PTR [esi], OFFSET ??_7exception@std@@6B@
  00013	66 0f d6 00	 movq	 QWORD PTR [eax], xmm0
  00017	8b 45 08	 mov	 eax, DWORD PTR ___that$[ebp]
  0001a	83 c0 04	 add	 eax, 4
  0001d	50		 push	 eax
  0001e	e8 00 00 00 00	 call	 ___std_exception_copy
  00023	83 c4 08	 add	 esp, 8
  00026	c7 06 00 00 00
	00		 mov	 DWORD PTR [esi], OFFSET ??_7bad_alloc@std@@6B@
  0002c	8b c6		 mov	 eax, esi
  0002e	5e		 pop	 esi
  0002f	5d		 pop	 ebp
  00030	c2 04 00	 ret	 4
??0bad_alloc@std@@QAE@ABV01@@Z ENDP			; std::bad_alloc::bad_alloc
_TEXT	ENDS
; Function compile flags: /Ogtp
; File C:\Program Files\Microsoft Visual Studio\2022\Community\VC\Tools\MSVC\14.37.32822\include\vcruntime_exception.h
;	COMDAT ??_Gexception@std@@UAEPAXI@Z
_TEXT	SEGMENT
___flags$ = 8						; size = 4
??_Gexception@std@@UAEPAXI@Z PROC			; std::exception::`scalar deleting destructor', COMDAT
; _this$ = ecx
  00000	55		 push	 ebp
  00001	8b ec		 mov	 ebp, esp

; 89   :     {

  00003	56		 push	 esi
  00004	8b f1		 mov	 esi, ecx

; 90   :         __std_exception_destroy(&_Data);

  00006	8d 46 04	 lea	 eax, DWORD PTR [esi+4]
  00009	c7 06 00 00 00
	00		 mov	 DWORD PTR [esi], OFFSET ??_7exception@std@@6B@
  0000f	50		 push	 eax
  00010	e8 00 00 00 00	 call	 ___std_exception_destroy
  00015	83 c4 04	 add	 esp, 4
  00018	f6 45 08 01	 test	 BYTE PTR ___flags$[ebp], 1
  0001c	74 0b		 je	 SHORT $LN6@scalar
  0001e	6a 0c		 push	 12			; 0000000cH
  00020	56		 push	 esi
  00021	e8 00 00 00 00	 call	 ??3@YAXPAXI@Z		; operator delete
  00026	83 c4 08	 add	 esp, 8
$LN6@scalar:
  00029	8b c6		 mov	 eax, esi
  0002b	5e		 pop	 esi
  0002c	5d		 pop	 ebp
  0002d	c2 04 00	 ret	 4
??_Gexception@std@@UAEPAXI@Z ENDP			; std::exception::`scalar deleting destructor'
_TEXT	ENDS
; Function compile flags: /Ogtp
; File C:\Program Files\Microsoft Visual Studio\2022\Community\VC\Tools\MSVC\14.37.32822\include\vcruntime_exception.h
;	COMDAT ?what@exception@std@@UBEPBDXZ
_TEXT	SEGMENT
?what@exception@std@@UBEPBDXZ PROC			; std::exception::what, COMDAT
; _this$ = ecx

; 95   :         return _Data._What ? _Data._What : "Unknown exception";

  00000	8b 49 04	 mov	 ecx, DWORD PTR [ecx+4]
  00003	b8 00 00 00 00	 mov	 eax, OFFSET ??_C@_0BC@EOODALEL@Unknown?5exception@
  00008	85 c9		 test	 ecx, ecx
  0000a	0f 45 c1	 cmovne	 eax, ecx

; 96   :     }

  0000d	c3		 ret	 0
?what@exception@std@@UBEPBDXZ ENDP			; std::exception::what
_TEXT	ENDS
; Function compile flags: /Ogtp
; File C:\Program Files\Microsoft Visual Studio\2022\Community\VC\Tools\MSVC\14.37.32822\include\vcruntime_exception.h
;	COMDAT ??1exception@std@@UAE@XZ
_TEXT	SEGMENT
??1exception@std@@UAE@XZ PROC				; std::exception::~exception, COMDAT
; _this$ = ecx

; 90   :         __std_exception_destroy(&_Data);

  00000	8d 41 04	 lea	 eax, DWORD PTR [ecx+4]
  00003	c7 01 00 00 00
	00		 mov	 DWORD PTR [ecx], OFFSET ??_7exception@std@@6B@
  00009	50		 push	 eax
  0000a	e8 00 00 00 00	 call	 ___std_exception_destroy
  0000f	59		 pop	 ecx

; 91   :     }

  00010	c3		 ret	 0
??1exception@std@@UAE@XZ ENDP				; std::exception::~exception
_TEXT	ENDS
; Function compile flags: /Ogtp
; File C:\Program Files\Microsoft Visual Studio\2022\Community\VC\Tools\MSVC\14.37.32822\include\vcruntime_exception.h
;	COMDAT ??0exception@std@@QAE@ABV01@@Z
_TEXT	SEGMENT
__Other$ = 8						; size = 4
??0exception@std@@QAE@ABV01@@Z PROC			; std::exception::exception, COMDAT
; _this$ = ecx

; 72   :     {

  00000	55		 push	 ebp
  00001	8b ec		 mov	 ebp, esp
  00003	56		 push	 esi
  00004	8b f1		 mov	 esi, ecx
  00006	0f 57 c0	 xorps	 xmm0, xmm0
  00009	8d 46 04	 lea	 eax, DWORD PTR [esi+4]

; 73   :         __std_exception_copy(&_Other._Data, &_Data);

  0000c	50		 push	 eax
  0000d	c7 06 00 00 00
	00		 mov	 DWORD PTR [esi], OFFSET ??_7exception@std@@6B@
  00013	66 0f d6 00	 movq	 QWORD PTR [eax], xmm0
  00017	8b 45 08	 mov	 eax, DWORD PTR __Other$[ebp]
  0001a	83 c0 04	 add	 eax, 4
  0001d	50		 push	 eax
  0001e	e8 00 00 00 00	 call	 ___std_exception_copy
  00023	83 c4 08	 add	 esp, 8

; 74   :     }

  00026	8b c6		 mov	 eax, esi
  00028	5e		 pop	 esi
  00029	5d		 pop	 ebp
  0002a	c2 04 00	 ret	 4
??0exception@std@@QAE@ABV01@@Z ENDP			; std::exception::exception
_TEXT	ENDS
; Function compile flags: /Ogtp
; File C:\Marty 5.5\Src-Client\extern\include\d3dx8math.h
;	COMDAT ??0D3DXMATRIX@@QAE@XZ
_TEXT	SEGMENT
??0D3DXMATRIX@@QAE@XZ PROC				; D3DXMATRIX::D3DXMATRIX, COMDAT
; _this$ = ecx

; 177  :     D3DXMATRIX() {};

  00000	8b c1		 mov	 eax, ecx
  00002	c3		 ret	 0
??0D3DXMATRIX@@QAE@XZ ENDP				; D3DXMATRIX::D3DXMATRIX
_TEXT	ENDS
; Function compile flags: /Ogtp
; File C:\Marty 5.5\Src-Client\Client\GameLib\ActorInstanceMotionEvent.cpp
;	COMDAT ?__empty_global_delete@@YAXPAXI@Z
_TEXT	SEGMENT
___formal$ = 8						; size = 4
___formal$ = 12						; size = 4
?__empty_global_delete@@YAXPAXI@Z PROC			; __empty_global_delete, COMDAT

  00000	c2 00 00	 ret	 0
?__empty_global_delete@@YAXPAXI@Z ENDP			; __empty_global_delete
_TEXT	ENDS
; Function compile flags: /Ogtp
; File C:\Marty 5.5\Src-Client\Client\GameLib\ActorInstanceMotionEvent.cpp
;	COMDAT ?__empty_global_delete@@YAXPAX@Z
_TEXT	SEGMENT
___formal$ = 8						; size = 4
?__empty_global_delete@@YAXPAX@Z PROC			; __empty_global_delete, COMDAT

  00000	c2 00 00	 ret	 0
?__empty_global_delete@@YAXPAX@Z ENDP			; __empty_global_delete
_TEXT	ENDS
; Function compile flags: /Ogtp
;	COMDAT ??_H@YGXPAXIIP6EPAX0@Z@Z
_TEXT	SEGMENT
___t$ = 8						; size = 4
___s$ = 12						; size = 4
___n$ = 16						; size = 4
___f$ = 20						; size = 4
??_H@YGXPAXIIP6EPAX0@Z@Z PROC				; `vector constructor iterator', COMDAT
  00000	55		 push	 ebp
  00001	8b ec		 mov	 ebp, esp
  00003	56		 push	 esi
  00004	8b 75 10	 mov	 esi, DWORD PTR ___n$[ebp]
  00007	85 f6		 test	 esi, esi
  00009	74 16		 je	 SHORT $LN6@vector
  0000b	53		 push	 ebx
  0000c	8b 5d 14	 mov	 ebx, DWORD PTR ___f$[ebp]
  0000f	57		 push	 edi
  00010	8b 7d 08	 mov	 edi, DWORD PTR ___t$[ebp]
$LL2@vector:
  00013	8b cf		 mov	 ecx, edi
  00015	ff d3		 call	 ebx
  00017	03 7d 0c	 add	 edi, DWORD PTR ___s$[ebp]
  0001a	83 ee 01	 sub	 esi, 1
  0001d	75 f4		 jne	 SHORT $LL2@vector
  0001f	5f		 pop	 edi
  00020	5b		 pop	 ebx
$LN6@vector:
  00021	5e		 pop	 esi
  00022	5d		 pop	 ebp
  00023	c2 10 00	 ret	 16			; 00000010H
??_H@YGXPAXIIP6EPAX0@Z@Z ENDP				; `vector constructor iterator'
_TEXT	ENDS
END
