; Listing generated by Microsoft (R) Optimizing Compiler Version 19.43.34808.0 

	TITLE	C:\Marty 5.5\Src-Client\Client\GameLib\Distribute\MonsterAreaInfo.obj
	.686P
	.XMM
	include listing.inc
	.model	flat

INCLUDELIB LIBCMT
INCLUDELIB OLDNAMES

CONST	SEGMENT
?_Fake_alloc@std@@3U_Fake_allocator@1@B	ORG $+1		; std::_Fake_alloc
CONST	ENDS
PUBLIC	??0exception@std@@QAE@ABV01@@Z			; std::exception::exception
PUBLIC	??1exception@std@@UAE@XZ			; std::exception::~exception
PUBLIC	?what@exception@std@@UBEPBDXZ			; std::exception::what
PUBLIC	??_Gexception@std@@UAEPAXI@Z			; std::exception::`scalar deleting destructor'
PUBLIC	??0bad_alloc@std@@QAE@ABV01@@Z			; std::bad_alloc::bad_alloc
PUBLIC	??_Gbad_alloc@std@@UAEPAXI@Z			; std::bad_alloc::`scalar deleting destructor'
PUBLIC	??0bad_array_new_length@std@@QAE@XZ		; std::bad_array_new_length::bad_array_new_length
PUBLIC	??1bad_array_new_length@std@@UAE@XZ		; std::bad_array_new_length::~bad_array_new_length
PUBLIC	??0bad_array_new_length@std@@QAE@ABV01@@Z	; std::bad_array_new_length::bad_array_new_length
PUBLIC	??_Gbad_array_new_length@std@@UAEPAXI@Z		; std::bad_array_new_length::`scalar deleting destructor'
PUBLIC	?_Throw_bad_array_new_length@std@@YAXXZ		; std::_Throw_bad_array_new_length
PUBLIC	?_Xlen_string@std@@YAXXZ			; std::_Xlen_string
PUBLIC	??1?$basic_string@DU?$char_traits@D@std@@V?$allocator@D@2@@std@@QAE@XZ ; std::basic_string<char,std::char_traits<char>,std::allocator<char> >::~basic_string<char,std::char_traits<char>,std::allocator<char> >
PUBLIC	?assign@?$basic_string@DU?$char_traits@D@std@@V?$allocator@D@2@@std@@QAEAAV12@QBDI@Z ; std::basic_string<char,std::char_traits<char>,std::allocator<char> >::assign
PUBLIC	??$_Allocate_manually_vector_aligned@U_Default_allocate_traits@std@@@std@@YAPAXI@Z ; std::_Allocate_manually_vector_aligned<std::_Default_allocate_traits>
PUBLIC	??0CMonsterAreaInfo@@QAE@XZ			; CMonsterAreaInfo::CMonsterAreaInfo
PUBLIC	??1CMonsterAreaInfo@@UAE@XZ			; CMonsterAreaInfo::~CMonsterAreaInfo
PUBLIC	?Clear@CMonsterAreaInfo@@QAEXXZ			; CMonsterAreaInfo::Clear
PUBLIC	?SetOrigin@CMonsterAreaInfo@@QAEXJJ@Z		; CMonsterAreaInfo::SetOrigin
PUBLIC	?GetOrigin@CMonsterAreaInfo@@QAEXPAJ0@Z		; CMonsterAreaInfo::GetOrigin
PUBLIC	?SetSize@CMonsterAreaInfo@@QAEXJJ@Z		; CMonsterAreaInfo::SetSize
PUBLIC	?GetSize@CMonsterAreaInfo@@QAEXPAJ0@Z		; CMonsterAreaInfo::GetSize
PUBLIC	?SetMonsterCount@CMonsterAreaInfo@@QAEXK@Z	; CMonsterAreaInfo::SetMonsterCount
PUBLIC	?SetMonsterDirection@CMonsterAreaInfo@@QAEXW4EMonsterDir@1@@Z ; CMonsterAreaInfo::SetMonsterDirection
PUBLIC	?RemoveAllMonsters@CMonsterAreaInfo@@QAEXXZ	; CMonsterAreaInfo::RemoveAllMonsters
PUBLIC	?GetTempMonsterPos@CMonsterAreaInfo@@QAE?AUD3DXVECTOR2@@K@Z ; CMonsterAreaInfo::GetTempMonsterPos
PUBLIC	?SetLRTB@CMonsterAreaInfo@@IAEXXZ		; CMonsterAreaInfo::SetLRTB
PUBLIC	??1?$vector@UD3DXVECTOR2@@V?$allocator@UD3DXVECTOR2@@@std@@@std@@QAE@XZ ; std::vector<D3DXVECTOR2,std::allocator<D3DXVECTOR2> >::~vector<D3DXVECTOR2,std::allocator<D3DXVECTOR2> >
PUBLIC	?_Xlength@?$vector@UD3DXVECTOR2@@V?$allocator@UD3DXVECTOR2@@@std@@@std@@CAXXZ ; std::vector<D3DXVECTOR2,std::allocator<D3DXVECTOR2> >::_Xlength
PUBLIC	??_GCMonsterAreaInfo@@UAEPAXI@Z			; CMonsterAreaInfo::`scalar deleting destructor'
PUBLIC	??$_Resize@U_Value_init_tag@std@@@?$vector@UD3DXVECTOR2@@V?$allocator@UD3DXVECTOR2@@@std@@@std@@AAEXIABU_Value_init_tag@1@@Z ; std::vector<D3DXVECTOR2,std::allocator<D3DXVECTOR2> >::_Resize<std::_Value_init_tag>
PUBLIC	??$_Copy_memmove@PAUD3DXVECTOR2@@PAU1@@std@@YAPAUD3DXVECTOR2@@PAU1@00@Z ; std::_Copy_memmove<D3DXVECTOR2 *,D3DXVECTOR2 *>
PUBLIC	??$_Copy_memmove_tail@PAUD3DXVECTOR2@@@std@@YAPAUD3DXVECTOR2@@QBDQAU1@II@Z ; std::_Copy_memmove_tail<D3DXVECTOR2 *>
PUBLIC	??_7exception@std@@6B@				; std::exception::`vftable'
PUBLIC	??_C@_0BC@EOODALEL@Unknown?5exception@		; `string'
PUBLIC	??_7bad_alloc@std@@6B@				; std::bad_alloc::`vftable'
PUBLIC	??_7bad_array_new_length@std@@6B@		; std::bad_array_new_length::`vftable'
PUBLIC	??_C@_0BF@KINCDENJ@bad?5array?5new?5length@	; `string'
PUBLIC	??_R0?AVexception@std@@@8			; std::exception `RTTI Type Descriptor'
PUBLIC	__CT??_R0?AVexception@std@@@8??0exception@std@@QAE@ABV01@@Z12
PUBLIC	__TI3?AVbad_array_new_length@std@@
PUBLIC	__CTA3?AVbad_array_new_length@std@@
PUBLIC	??_R0?AVbad_array_new_length@std@@@8		; std::bad_array_new_length `RTTI Type Descriptor'
PUBLIC	__CT??_R0?AVbad_array_new_length@std@@@8??0bad_array_new_length@std@@QAE@ABV01@@Z12
PUBLIC	??_R0?AVbad_alloc@std@@@8			; std::bad_alloc `RTTI Type Descriptor'
PUBLIC	__CT??_R0?AVbad_alloc@std@@@8??0bad_alloc@std@@QAE@ABV01@@Z12
PUBLIC	??_C@_0BA@JFNIOLAK@string?5too?5long@		; `string'
PUBLIC	??_R4exception@std@@6B@				; std::exception::`RTTI Complete Object Locator'
PUBLIC	??_R3exception@std@@8				; std::exception::`RTTI Class Hierarchy Descriptor'
PUBLIC	??_R2exception@std@@8				; std::exception::`RTTI Base Class Array'
PUBLIC	??_R1A@?0A@EA@exception@std@@8			; std::exception::`RTTI Base Class Descriptor at (0,-1,0,64)'
PUBLIC	??_R4bad_array_new_length@std@@6B@		; std::bad_array_new_length::`RTTI Complete Object Locator'
PUBLIC	??_R3bad_array_new_length@std@@8		; std::bad_array_new_length::`RTTI Class Hierarchy Descriptor'
PUBLIC	??_R2bad_array_new_length@std@@8		; std::bad_array_new_length::`RTTI Base Class Array'
PUBLIC	??_R1A@?0A@EA@bad_array_new_length@std@@8	; std::bad_array_new_length::`RTTI Base Class Descriptor at (0,-1,0,64)'
PUBLIC	??_R1A@?0A@EA@bad_alloc@std@@8			; std::bad_alloc::`RTTI Base Class Descriptor at (0,-1,0,64)'
PUBLIC	??_R3bad_alloc@std@@8				; std::bad_alloc::`RTTI Class Hierarchy Descriptor'
PUBLIC	??_R2bad_alloc@std@@8				; std::bad_alloc::`RTTI Base Class Array'
PUBLIC	??_R4bad_alloc@std@@6B@				; std::bad_alloc::`RTTI Complete Object Locator'
PUBLIC	??_7CMonsterAreaInfo@@6B@			; CMonsterAreaInfo::`vftable'
PUBLIC	??_C@_06HCBIANPB@Noname@			; `string'
PUBLIC	??_C@_0BA@FOIKENOD@vector?5too?5long@		; `string'
PUBLIC	??_R4CMonsterAreaInfo@@6B@			; CMonsterAreaInfo::`RTTI Complete Object Locator'
PUBLIC	??_R0?AVCMonsterAreaInfo@@@8			; CMonsterAreaInfo `RTTI Type Descriptor'
PUBLIC	??_R3CMonsterAreaInfo@@8			; CMonsterAreaInfo::`RTTI Class Hierarchy Descriptor'
PUBLIC	??_R2CMonsterAreaInfo@@8			; CMonsterAreaInfo::`RTTI Base Class Array'
PUBLIC	??_R1A@?0A@EA@CMonsterAreaInfo@@8		; CMonsterAreaInfo::`RTTI Base Class Descriptor at (0,-1,0,64)'
PUBLIC	__real@3c8efa35
PUBLIC	__real@42340000
PUBLIC	__real@42b40000
PUBLIC	__real@43070000
PUBLIC	__real@43340000
PUBLIC	__real@43610000
PUBLIC	__real@43870000
PUBLIC	__real@439d8000
PUBLIC	__xmm@80000000800000008000000080000000
EXTRN	??2@YAPAXI@Z:PROC				; operator new
EXTRN	??3@YAXPAXI@Z:PROC				; operator delete
EXTRN	__invalid_parameter_noinfo_noreturn:PROC
EXTRN	_D3DXVec2Normalize@8:PROC
EXTRN	_D3DXVec3TransformCoord@12:PROC
EXTRN	_D3DXMatrixRotationZ@8:PROC
EXTRN	?_Xlength_error@std@@YAXPBD@Z:PROC		; std::_Xlength_error
EXTRN	___std_exception_copy:PROC
EXTRN	___std_exception_destroy:PROC
EXTRN	??_Eexception@std@@UAEPAXI@Z:PROC		; std::exception::`vector deleting destructor'
EXTRN	??_Ebad_alloc@std@@UAEPAXI@Z:PROC		; std::bad_alloc::`vector deleting destructor'
EXTRN	??_Ebad_array_new_length@std@@UAEPAXI@Z:PROC	; std::bad_array_new_length::`vector deleting destructor'
EXTRN	?random_range@@YAJJJ@Z:PROC			; random_range
EXTRN	??_ECMonsterAreaInfo@@UAEPAXI@Z:PROC		; CMonsterAreaInfo::`vector deleting destructor'
EXTRN	@__security_check_cookie@4:PROC
EXTRN	__CxxThrowException@8:PROC
EXTRN	___CxxFrameHandler3:PROC
EXTRN	_memcpy:PROC
EXTRN	_memmove:PROC
EXTRN	??_7type_info@@6B@:QWORD			; type_info::`vftable'
EXTRN	___security_cookie:DWORD
EXTRN	__fltused:DWORD
;	COMDAT __xmm@80000000800000008000000080000000
CONST	SEGMENT
__xmm@80000000800000008000000080000000 DB 00H, 00H, 00H, 080H, 00H, 00H, 00H
	DB	080H, 00H, 00H, 00H, 080H, 00H, 00H, 00H, 080H
CONST	ENDS
;	COMDAT __real@439d8000
CONST	SEGMENT
__real@439d8000 DD 0439d8000r			; 315
CONST	ENDS
;	COMDAT __real@43870000
CONST	SEGMENT
__real@43870000 DD 043870000r			; 270
CONST	ENDS
;	COMDAT __real@43610000
CONST	SEGMENT
__real@43610000 DD 043610000r			; 225
CONST	ENDS
;	COMDAT __real@43340000
CONST	SEGMENT
__real@43340000 DD 043340000r			; 180
CONST	ENDS
;	COMDAT __real@43070000
CONST	SEGMENT
__real@43070000 DD 043070000r			; 135
CONST	ENDS
;	COMDAT __real@42b40000
CONST	SEGMENT
__real@42b40000 DD 042b40000r			; 90
CONST	ENDS
;	COMDAT __real@42340000
CONST	SEGMENT
__real@42340000 DD 042340000r			; 45
CONST	ENDS
;	COMDAT __real@3c8efa35
CONST	SEGMENT
__real@3c8efa35 DD 03c8efa35r			; 0.0174533
CONST	ENDS
;	COMDAT ??_R1A@?0A@EA@CMonsterAreaInfo@@8
rdata$r	SEGMENT
??_R1A@?0A@EA@CMonsterAreaInfo@@8 DD FLAT:??_R0?AVCMonsterAreaInfo@@@8 ; CMonsterAreaInfo::`RTTI Base Class Descriptor at (0,-1,0,64)'
	DD	00H
	DD	00H
	DD	0ffffffffH
	DD	00H
	DD	040H
	DD	FLAT:??_R3CMonsterAreaInfo@@8
rdata$r	ENDS
;	COMDAT ??_R2CMonsterAreaInfo@@8
rdata$r	SEGMENT
??_R2CMonsterAreaInfo@@8 DD FLAT:??_R1A@?0A@EA@CMonsterAreaInfo@@8 ; CMonsterAreaInfo::`RTTI Base Class Array'
rdata$r	ENDS
;	COMDAT ??_R3CMonsterAreaInfo@@8
rdata$r	SEGMENT
??_R3CMonsterAreaInfo@@8 DD 00H				; CMonsterAreaInfo::`RTTI Class Hierarchy Descriptor'
	DD	00H
	DD	01H
	DD	FLAT:??_R2CMonsterAreaInfo@@8
rdata$r	ENDS
;	COMDAT ??_R0?AVCMonsterAreaInfo@@@8
data$rs	SEGMENT
??_R0?AVCMonsterAreaInfo@@@8 DD FLAT:??_7type_info@@6B@	; CMonsterAreaInfo `RTTI Type Descriptor'
	DD	00H
	DB	'.?AVCMonsterAreaInfo@@', 00H
data$rs	ENDS
;	COMDAT ??_R4CMonsterAreaInfo@@6B@
rdata$r	SEGMENT
??_R4CMonsterAreaInfo@@6B@ DD 00H			; CMonsterAreaInfo::`RTTI Complete Object Locator'
	DD	00H
	DD	00H
	DD	FLAT:??_R0?AVCMonsterAreaInfo@@@8
	DD	FLAT:??_R3CMonsterAreaInfo@@8
rdata$r	ENDS
;	COMDAT ??_C@_0BA@FOIKENOD@vector?5too?5long@
CONST	SEGMENT
??_C@_0BA@FOIKENOD@vector?5too?5long@ DB 'vector too long', 00H ; `string'
CONST	ENDS
;	COMDAT ??_C@_06HCBIANPB@Noname@
CONST	SEGMENT
??_C@_06HCBIANPB@Noname@ DB 'Noname', 00H		; `string'
CONST	ENDS
;	COMDAT ??_7CMonsterAreaInfo@@6B@
CONST	SEGMENT
??_7CMonsterAreaInfo@@6B@ DD FLAT:??_R4CMonsterAreaInfo@@6B@ ; CMonsterAreaInfo::`vftable'
	DD	FLAT:??_ECMonsterAreaInfo@@UAEPAXI@Z
CONST	ENDS
;	COMDAT ??_R4bad_alloc@std@@6B@
rdata$r	SEGMENT
??_R4bad_alloc@std@@6B@ DD 00H				; std::bad_alloc::`RTTI Complete Object Locator'
	DD	00H
	DD	00H
	DD	FLAT:??_R0?AVbad_alloc@std@@@8
	DD	FLAT:??_R3bad_alloc@std@@8
rdata$r	ENDS
;	COMDAT ??_R2bad_alloc@std@@8
rdata$r	SEGMENT
??_R2bad_alloc@std@@8 DD FLAT:??_R1A@?0A@EA@bad_alloc@std@@8 ; std::bad_alloc::`RTTI Base Class Array'
	DD	FLAT:??_R1A@?0A@EA@exception@std@@8
rdata$r	ENDS
;	COMDAT ??_R3bad_alloc@std@@8
rdata$r	SEGMENT
??_R3bad_alloc@std@@8 DD 00H				; std::bad_alloc::`RTTI Class Hierarchy Descriptor'
	DD	00H
	DD	02H
	DD	FLAT:??_R2bad_alloc@std@@8
rdata$r	ENDS
;	COMDAT ??_R1A@?0A@EA@bad_alloc@std@@8
rdata$r	SEGMENT
??_R1A@?0A@EA@bad_alloc@std@@8 DD FLAT:??_R0?AVbad_alloc@std@@@8 ; std::bad_alloc::`RTTI Base Class Descriptor at (0,-1,0,64)'
	DD	01H
	DD	00H
	DD	0ffffffffH
	DD	00H
	DD	040H
	DD	FLAT:??_R3bad_alloc@std@@8
rdata$r	ENDS
;	COMDAT ??_R1A@?0A@EA@bad_array_new_length@std@@8
rdata$r	SEGMENT
??_R1A@?0A@EA@bad_array_new_length@std@@8 DD FLAT:??_R0?AVbad_array_new_length@std@@@8 ; std::bad_array_new_length::`RTTI Base Class Descriptor at (0,-1,0,64)'
	DD	02H
	DD	00H
	DD	0ffffffffH
	DD	00H
	DD	040H
	DD	FLAT:??_R3bad_array_new_length@std@@8
rdata$r	ENDS
;	COMDAT ??_R2bad_array_new_length@std@@8
rdata$r	SEGMENT
??_R2bad_array_new_length@std@@8 DD FLAT:??_R1A@?0A@EA@bad_array_new_length@std@@8 ; std::bad_array_new_length::`RTTI Base Class Array'
	DD	FLAT:??_R1A@?0A@EA@bad_alloc@std@@8
	DD	FLAT:??_R1A@?0A@EA@exception@std@@8
rdata$r	ENDS
;	COMDAT ??_R3bad_array_new_length@std@@8
rdata$r	SEGMENT
??_R3bad_array_new_length@std@@8 DD 00H			; std::bad_array_new_length::`RTTI Class Hierarchy Descriptor'
	DD	00H
	DD	03H
	DD	FLAT:??_R2bad_array_new_length@std@@8
rdata$r	ENDS
;	COMDAT ??_R4bad_array_new_length@std@@6B@
rdata$r	SEGMENT
??_R4bad_array_new_length@std@@6B@ DD 00H		; std::bad_array_new_length::`RTTI Complete Object Locator'
	DD	00H
	DD	00H
	DD	FLAT:??_R0?AVbad_array_new_length@std@@@8
	DD	FLAT:??_R3bad_array_new_length@std@@8
rdata$r	ENDS
;	COMDAT ??_R1A@?0A@EA@exception@std@@8
rdata$r	SEGMENT
??_R1A@?0A@EA@exception@std@@8 DD FLAT:??_R0?AVexception@std@@@8 ; std::exception::`RTTI Base Class Descriptor at (0,-1,0,64)'
	DD	00H
	DD	00H
	DD	0ffffffffH
	DD	00H
	DD	040H
	DD	FLAT:??_R3exception@std@@8
rdata$r	ENDS
;	COMDAT ??_R2exception@std@@8
rdata$r	SEGMENT
??_R2exception@std@@8 DD FLAT:??_R1A@?0A@EA@exception@std@@8 ; std::exception::`RTTI Base Class Array'
rdata$r	ENDS
;	COMDAT ??_R3exception@std@@8
rdata$r	SEGMENT
??_R3exception@std@@8 DD 00H				; std::exception::`RTTI Class Hierarchy Descriptor'
	DD	00H
	DD	01H
	DD	FLAT:??_R2exception@std@@8
rdata$r	ENDS
;	COMDAT ??_R4exception@std@@6B@
rdata$r	SEGMENT
??_R4exception@std@@6B@ DD 00H				; std::exception::`RTTI Complete Object Locator'
	DD	00H
	DD	00H
	DD	FLAT:??_R0?AVexception@std@@@8
	DD	FLAT:??_R3exception@std@@8
rdata$r	ENDS
;	COMDAT ??_C@_0BA@JFNIOLAK@string?5too?5long@
CONST	SEGMENT
??_C@_0BA@JFNIOLAK@string?5too?5long@ DB 'string too long', 00H ; `string'
CONST	ENDS
;	COMDAT __CT??_R0?AVbad_alloc@std@@@8??0bad_alloc@std@@QAE@ABV01@@Z12
xdata$x	SEGMENT
__CT??_R0?AVbad_alloc@std@@@8??0bad_alloc@std@@QAE@ABV01@@Z12 DD 010H
	DD	FLAT:??_R0?AVbad_alloc@std@@@8
	DD	00H
	DD	0ffffffffH
	ORG $+4
	DD	0cH
	DD	FLAT:??0bad_alloc@std@@QAE@ABV01@@Z
xdata$x	ENDS
;	COMDAT ??_R0?AVbad_alloc@std@@@8
data$r	SEGMENT
??_R0?AVbad_alloc@std@@@8 DD FLAT:??_7type_info@@6B@	; std::bad_alloc `RTTI Type Descriptor'
	DD	00H
	DB	'.?AVbad_alloc@std@@', 00H
data$r	ENDS
;	COMDAT __CT??_R0?AVbad_array_new_length@std@@@8??0bad_array_new_length@std@@QAE@ABV01@@Z12
xdata$x	SEGMENT
__CT??_R0?AVbad_array_new_length@std@@@8??0bad_array_new_length@std@@QAE@ABV01@@Z12 DD 00H
	DD	FLAT:??_R0?AVbad_array_new_length@std@@@8
	DD	00H
	DD	0ffffffffH
	ORG $+4
	DD	0cH
	DD	FLAT:??0bad_array_new_length@std@@QAE@ABV01@@Z
xdata$x	ENDS
;	COMDAT ??_R0?AVbad_array_new_length@std@@@8
data$r	SEGMENT
??_R0?AVbad_array_new_length@std@@@8 DD FLAT:??_7type_info@@6B@ ; std::bad_array_new_length `RTTI Type Descriptor'
	DD	00H
	DB	'.?AVbad_array_new_length@std@@', 00H
data$r	ENDS
;	COMDAT __CTA3?AVbad_array_new_length@std@@
xdata$x	SEGMENT
__CTA3?AVbad_array_new_length@std@@ DD 03H
	DD	FLAT:__CT??_R0?AVbad_array_new_length@std@@@8??0bad_array_new_length@std@@QAE@ABV01@@Z12
	DD	FLAT:__CT??_R0?AVbad_alloc@std@@@8??0bad_alloc@std@@QAE@ABV01@@Z12
	DD	FLAT:__CT??_R0?AVexception@std@@@8??0exception@std@@QAE@ABV01@@Z12
xdata$x	ENDS
;	COMDAT __TI3?AVbad_array_new_length@std@@
xdata$x	SEGMENT
__TI3?AVbad_array_new_length@std@@ DD 00H
	DD	FLAT:??1bad_array_new_length@std@@UAE@XZ
	DD	00H
	DD	FLAT:__CTA3?AVbad_array_new_length@std@@
xdata$x	ENDS
;	COMDAT __CT??_R0?AVexception@std@@@8??0exception@std@@QAE@ABV01@@Z12
xdata$x	SEGMENT
__CT??_R0?AVexception@std@@@8??0exception@std@@QAE@ABV01@@Z12 DD 00H
	DD	FLAT:??_R0?AVexception@std@@@8
	DD	00H
	DD	0ffffffffH
	ORG $+4
	DD	0cH
	DD	FLAT:??0exception@std@@QAE@ABV01@@Z
xdata$x	ENDS
;	COMDAT ??_R0?AVexception@std@@@8
data$r	SEGMENT
??_R0?AVexception@std@@@8 DD FLAT:??_7type_info@@6B@	; std::exception `RTTI Type Descriptor'
	DD	00H
	DB	'.?AVexception@std@@', 00H
data$r	ENDS
;	COMDAT ??_C@_0BF@KINCDENJ@bad?5array?5new?5length@
CONST	SEGMENT
??_C@_0BF@KINCDENJ@bad?5array?5new?5length@ DB 'bad array new length', 00H ; `string'
CONST	ENDS
;	COMDAT ??_7bad_array_new_length@std@@6B@
CONST	SEGMENT
??_7bad_array_new_length@std@@6B@ DD FLAT:??_R4bad_array_new_length@std@@6B@ ; std::bad_array_new_length::`vftable'
	DD	FLAT:??_Ebad_array_new_length@std@@UAEPAXI@Z
	DD	FLAT:?what@exception@std@@UBEPBDXZ
CONST	ENDS
;	COMDAT ??_7bad_alloc@std@@6B@
CONST	SEGMENT
??_7bad_alloc@std@@6B@ DD FLAT:??_R4bad_alloc@std@@6B@	; std::bad_alloc::`vftable'
	DD	FLAT:??_Ebad_alloc@std@@UAEPAXI@Z
	DD	FLAT:?what@exception@std@@UBEPBDXZ
CONST	ENDS
;	COMDAT ??_C@_0BC@EOODALEL@Unknown?5exception@
CONST	SEGMENT
??_C@_0BC@EOODALEL@Unknown?5exception@ DB 'Unknown exception', 00H ; `string'
CONST	ENDS
;	COMDAT ??_7exception@std@@6B@
CONST	SEGMENT
??_7exception@std@@6B@ DD FLAT:??_R4exception@std@@6B@	; std::exception::`vftable'
	DD	FLAT:??_Eexception@std@@UAEPAXI@Z
	DD	FLAT:?what@exception@std@@UBEPBDXZ
CONST	ENDS
;	COMDAT xdata$x
xdata$x	SEGMENT
__ehfuncinfo$??1CMonsterAreaInfo@@UAE@XZ DD 019930522H
	DD	00H
	DD	00H
	DD	2 DUP(00H)
	DD	2 DUP(00H)
	DD	00H
	DD	05H
xdata$x	ENDS
;	COMDAT xdata$x
xdata$x	SEGMENT
__unwindtable$??0CMonsterAreaInfo@@QAE@XZ DD 0ffffffffH
	DD	FLAT:__unwindfunclet$??0CMonsterAreaInfo@@QAE@XZ$0
	DD	00H
	DD	FLAT:__unwindfunclet$??0CMonsterAreaInfo@@QAE@XZ$1
	DD	01H
	DD	FLAT:__unwindfunclet$??0CMonsterAreaInfo@@QAE@XZ$2
	DD	02H
	DD	FLAT:__unwindfunclet$??0CMonsterAreaInfo@@QAE@XZ$3
__ehfuncinfo$??0CMonsterAreaInfo@@QAE@XZ DD 019930522H
	DD	04H
	DD	FLAT:__unwindtable$??0CMonsterAreaInfo@@QAE@XZ
	DD	2 DUP(00H)
	DD	2 DUP(00H)
	DD	00H
	DD	01H
xdata$x	ENDS
; Function compile flags: /Ogtp
; File D:\Program Files\Microsoft Visual Studio\2022\Community\VC\Tools\MSVC\14.43.34808\include\xutility
;	COMDAT ??$_Copy_memmove_tail@PAUD3DXVECTOR2@@@std@@YAPAUD3DXVECTOR2@@QBDQAU1@II@Z
_TEXT	SEGMENT
__First_ch$ = 8						; size = 4
__Dest$ = 12						; size = 4
__Byte_count$ = 16					; size = 4
__Object_count$ = 20					; size = 4
??$_Copy_memmove_tail@PAUD3DXVECTOR2@@@std@@YAPAUD3DXVECTOR2@@QBDQAU1@II@Z PROC ; std::_Copy_memmove_tail<D3DXVECTOR2 *>, COMDAT

; 4763 :     const char* const _First_ch, const _OutCtgIt _Dest, const size_t _Byte_count, const size_t _Object_count) {

  00000	55		 push	 ebp
  00001	8b ec		 mov	 ebp, esp
  00003	56		 push	 esi

; 4764 :     _STL_INTERNAL_CHECK(_Byte_count == _Object_count * sizeof(*_Dest));
; 4765 :     const auto _Dest_ptr = _STD _To_address(_Dest);
; 4766 :     const auto _Dest_ch  = const_cast<char*>(reinterpret_cast<const volatile char*>(_Dest_ptr));
; 4767 :     _CSTD memmove(_Dest_ch, _First_ch, _Byte_count);

  00004	8b 75 0c	 mov	 esi, DWORD PTR __Dest$[ebp]
  00007	57		 push	 edi
  00008	8b 7d 10	 mov	 edi, DWORD PTR __Byte_count$[ebp]
  0000b	57		 push	 edi
  0000c	ff 75 08	 push	 DWORD PTR __First_ch$[ebp]
  0000f	56		 push	 esi
  00010	e8 00 00 00 00	 call	 _memmove
  00015	83 c4 0c	 add	 esp, 12			; 0000000cH

; 4768 :     if constexpr (is_pointer_v<_OutCtgIt>) {
; 4769 :         (void) _Object_count;
; 4770 :         // CodeQL [SM02986] This cast is correct: we're bypassing pointer arithmetic for performance.
; 4771 :         return reinterpret_cast<_OutCtgIt>(_Dest_ch + _Byte_count);

  00018	8d 04 3e	 lea	 eax, DWORD PTR [esi+edi]
  0001b	5f		 pop	 edi
  0001c	5e		 pop	 esi

; 4772 :     } else {
; 4773 :         return _Dest + static_cast<_Iter_diff_t<_OutCtgIt>>(_Object_count);
; 4774 :     }
; 4775 : }

  0001d	5d		 pop	 ebp
  0001e	c3		 ret	 0
??$_Copy_memmove_tail@PAUD3DXVECTOR2@@@std@@YAPAUD3DXVECTOR2@@QBDQAU1@II@Z ENDP ; std::_Copy_memmove_tail<D3DXVECTOR2 *>
_TEXT	ENDS
; Function compile flags: /Ogtp
; File D:\Program Files\Microsoft Visual Studio\2022\Community\VC\Tools\MSVC\14.43.34808\include\xutility
;	COMDAT ??$_Copy_memmove@PAUD3DXVECTOR2@@PAU1@@std@@YAPAUD3DXVECTOR2@@PAU1@00@Z
_TEXT	SEGMENT
__First$ = 8						; size = 4
__Last$ = 12						; size = 4
__Dest$ = 16						; size = 4
??$_Copy_memmove@PAUD3DXVECTOR2@@PAU1@@std@@YAPAUD3DXVECTOR2@@PAU1@00@Z PROC ; std::_Copy_memmove<D3DXVECTOR2 *,D3DXVECTOR2 *>, COMDAT

; 4778 : _OutCtgIt _Copy_memmove(_CtgIt _First, _CtgIt _Last, _OutCtgIt _Dest) {

  00000	55		 push	 ebp
  00001	8b ec		 mov	 ebp, esp

; 4779 :     _STL_INTERNAL_CHECK(_First <= _Last);
; 4780 :     const auto _First_ptr    = _STD _To_address(_First);
; 4781 :     const auto _Last_ptr     = _STD _To_address(_Last);
; 4782 :     const auto _Object_count = static_cast<size_t>(_Last_ptr - _First_ptr);

  00003	8b 55 08	 mov	 edx, DWORD PTR __First$[ebp]
  00006	8b 4d 0c	 mov	 ecx, DWORD PTR __Last$[ebp]
  00009	2b ca		 sub	 ecx, edx
  0000b	8b c1		 mov	 eax, ecx
  0000d	c1 f8 03	 sar	 eax, 3

; 4783 :     const auto _First_ch     = const_cast<const char*>(reinterpret_cast<const volatile char*>(_First_ptr));
; 4784 :     const auto _Last_ch      = const_cast<const char*>(reinterpret_cast<const volatile char*>(_Last_ptr));
; 4785 :     const auto _Byte_count   = static_cast<size_t>(_Last_ch - _First_ch);
; 4786 :     return _STD _Copy_memmove_tail(_First_ch, _STD move(_Dest), _Byte_count, _Object_count);

  00010	50		 push	 eax
  00011	51		 push	 ecx
  00012	ff 75 10	 push	 DWORD PTR __Dest$[ebp]
  00015	52		 push	 edx
  00016	e8 00 00 00 00	 call	 ??$_Copy_memmove_tail@PAUD3DXVECTOR2@@@std@@YAPAUD3DXVECTOR2@@QBDQAU1@II@Z ; std::_Copy_memmove_tail<D3DXVECTOR2 *>
  0001b	83 c4 10	 add	 esp, 16			; 00000010H

; 4787 : }

  0001e	5d		 pop	 ebp
  0001f	c3		 ret	 0
??$_Copy_memmove@PAUD3DXVECTOR2@@PAU1@@std@@YAPAUD3DXVECTOR2@@PAU1@00@Z ENDP ; std::_Copy_memmove<D3DXVECTOR2 *,D3DXVECTOR2 *>
_TEXT	ENDS
; Function compile flags: /Ogtp
; File D:\Program Files\Microsoft Visual Studio\2022\Community\VC\Tools\MSVC\14.43.34808\include\vector
; File D:\Program Files\Microsoft Visual Studio\2022\Community\VC\Tools\MSVC\14.43.34808\include\xmemory
; File D:\Program Files\Microsoft Visual Studio\2022\Community\VC\Tools\MSVC\14.43.34808\include\vector
; File D:\Program Files\Microsoft Visual Studio\2022\Community\VC\Tools\MSVC\14.43.34808\include\xmemory
; File D:\Program Files\Microsoft Visual Studio\2022\Community\VC\Tools\MSVC\14.43.34808\include\vector
; File D:\Program Files\Microsoft Visual Studio\2022\Community\VC\Tools\MSVC\14.43.34808\include\xmemory
; File D:\Program Files\Microsoft Visual Studio\2022\Community\VC\Tools\MSVC\14.43.34808\include\vector
; File D:\Program Files\Microsoft Visual Studio\2022\Community\VC\Tools\MSVC\14.43.34808\include\xmemory
; File D:\Program Files\Microsoft Visual Studio\2022\Community\VC\Tools\MSVC\14.43.34808\include\vector
; File D:\Program Files\Microsoft Visual Studio\2022\Community\VC\Tools\MSVC\14.43.34808\include\xmemory
; File D:\Program Files\Microsoft Visual Studio\2022\Community\VC\Tools\MSVC\14.43.34808\include\vector
; File D:\Program Files\Microsoft Visual Studio\2022\Community\VC\Tools\MSVC\14.43.34808\include\xmemory
; File D:\Program Files\Microsoft Visual Studio\2022\Community\VC\Tools\MSVC\14.43.34808\include\vector
;	COMDAT ??$_Resize@U_Value_init_tag@std@@@?$vector@UD3DXVECTOR2@@V?$allocator@UD3DXVECTOR2@@@std@@@std@@AAEXIABU_Value_init_tag@1@@Z
_TEXT	SEGMENT
__Newsize$ = 8						; size = 4
tv661 = 8						; size = 4
__Val$ = 12						; size = 4
??$_Resize@U_Value_init_tag@std@@@?$vector@UD3DXVECTOR2@@V?$allocator@UD3DXVECTOR2@@@std@@@std@@AAEXIABU_Value_init_tag@1@@Z PROC ; std::vector<D3DXVECTOR2,std::allocator<D3DXVECTOR2> >::_Resize<std::_Value_init_tag>, COMDAT
; _this$ = ecx

; 1574 :     _CONSTEXPR20 void _Resize(const size_type _Newsize, const _Ty2& _Val) {

  00000	55		 push	 ebp
  00001	8b ec		 mov	 ebp, esp
  00003	53		 push	 ebx
  00004	56		 push	 esi

; 1575 :         // trim or append elements, provide strong guarantee
; 1576 :         auto& _Al           = _Getal();
; 1577 :         auto& _My_data      = _Mypair._Myval2;
; 1578 :         pointer& _Myfirst   = _My_data._Myfirst;
; 1579 :         pointer& _Mylast    = _My_data._Mylast;
; 1580 :         const auto _Oldsize = static_cast<size_type>(_Mylast - _Myfirst);
; 1581 :         if (_Newsize < _Oldsize) { // trim

  00005	8b 75 08	 mov	 esi, DWORD PTR __Newsize$[ebp]
  00008	57		 push	 edi
  00009	8b f9		 mov	 edi, ecx
  0000b	8b 57 04	 mov	 edx, DWORD PTR [edi+4]
  0000e	8b c2		 mov	 eax, edx
  00010	8b 1f		 mov	 ebx, DWORD PTR [edi]
  00012	2b c3		 sub	 eax, ebx
  00014	c1 f8 03	 sar	 eax, 3
  00017	3b f0		 cmp	 esi, eax
  00019	73 0d		 jae	 SHORT $LN2@Resize

; 1582 :             const pointer _Newlast = _Myfirst + _Newsize;

  0001b	8d 04 f3	 lea	 eax, DWORD PTR [ebx+esi*8]

; 1583 :             _Orphan_range(_Newlast, _Mylast);
; 1584 :             _Destroy_range(_Newlast, _Mylast, _Al);
; 1585 :             _ASAN_VECTOR_MODIFY(static_cast<difference_type>(_Newsize - _Oldsize));
; 1586 :             _Mylast = _Newlast;

  0001e	89 47 04	 mov	 DWORD PTR [edi+4], eax
  00021	5f		 pop	 edi

; 1610 :     }

  00022	5e		 pop	 esi
  00023	5b		 pop	 ebx
  00024	5d		 pop	 ebp
  00025	c2 08 00	 ret	 8
$LN2@Resize:

; 1587 :             return;
; 1588 :         }
; 1589 : 
; 1590 :         if (_Newsize > _Oldsize) { // append

  00028	0f 86 de 00 00
	00		 jbe	 $LN3@Resize

; 1591 :             const auto _Oldcapacity = static_cast<size_type>(_My_data._Myend - _Myfirst);

  0002e	8b 4f 08	 mov	 ecx, DWORD PTR [edi+8]
  00031	2b cb		 sub	 ecx, ebx
  00033	c1 f9 03	 sar	 ecx, 3

; 1592 :             if (_Newsize > _Oldcapacity) { // reallocate

  00036	3b f1		 cmp	 esi, ecx
  00038	0f 86 c4 00 00
	00		 jbe	 $LN4@Resize

; 1538 :         if (_Newsize > max_size()) {

  0003e	81 fe ff ff ff
	1f		 cmp	 esi, 536870911		; 1fffffffH
  00044	0f 87 c9 00 00
	00		 ja	 $LN141@Resize

; 1996 :         if (_Oldcapacity > _Max - _Oldcapacity / 2) {

  0004a	8b d1		 mov	 edx, ecx
  0004c	b8 ff ff ff 1f	 mov	 eax, 536870911		; 1fffffffH
  00051	d1 ea		 shr	 edx, 1
  00053	2b c2		 sub	 eax, edx
  00055	3b c8		 cmp	 ecx, eax
  00057	76 14		 jbe	 SHORT $LN11@Resize

; 1997 :             return _Max; // geometric growth would overflow

  00059	b8 f8 ff ff ff	 mov	 eax, -8			; fffffff8H
  0005e	c7 45 08 f8 ff
	ff ff		 mov	 DWORD PTR tv661[ebp], -8 ; fffffff8H
; File D:\Program Files\Microsoft Visual Studio\2022\Community\VC\Tools\MSVC\14.43.34808\include\xmemory

; 253  :             return _Allocate_manually_vector_aligned<_Traits>(_Bytes);

  00065	50		 push	 eax
  00066	e8 00 00 00 00	 call	 ??$_Allocate_manually_vector_aligned@U_Default_allocate_traits@std@@@std@@YAPAXI@Z ; std::_Allocate_manually_vector_aligned<std::_Default_allocate_traits>
  0006b	eb 39		 jmp	 SHORT $LN139@Resize
$LN11@Resize:
; File D:\Program Files\Microsoft Visual Studio\2022\Community\VC\Tools\MSVC\14.43.34808\include\vector

; 2000 :         const size_type _Geometric = _Oldcapacity + _Oldcapacity / 2;

  0006d	8d 04 0a	 lea	 eax, DWORD PTR [edx+ecx]

; 2001 : 
; 2002 :         if (_Geometric < _Newsize) {

  00070	3b c6		 cmp	 eax, esi
  00072	73 10		 jae	 SHORT $LN12@Resize

; 2003 :             return _Newsize; // geometric growth would be insufficient

  00074	8b c6		 mov	 eax, esi
$LN22@Resize:
; File D:\Program Files\Microsoft Visual Studio\2022\Community\VC\Tools\MSVC\14.43.34808\include\xmemory

; 122  :     return _Count * _Ty_size;

  00076	c1 e0 03	 shl	 eax, 3
  00079	89 45 08	 mov	 DWORD PTR tv661[ebp], eax

; 227  :     if (_Bytes == 0) {

  0007c	85 c0		 test	 eax, eax
  0007e	75 11		 jne	 SHORT $LN26@Resize

; 228  :         return nullptr;

  00080	33 db		 xor	 ebx, ebx
  00082	eb 27		 jmp	 SHORT $LN36@Resize
$LN12@Resize:

; 117  :         if (_Count > _Max_possible) {

  00084	3d ff ff ff 1f	 cmp	 eax, 536870911		; 1fffffffH
  00089	0f 87 89 00 00
	00		 ja	 $LN142@Resize
  0008f	eb e5		 jmp	 SHORT $LN22@Resize
$LN26@Resize:

; 251  :         if (_Bytes >= _Big_allocation_threshold) {

  00091	3d 00 10 00 00	 cmp	 eax, 4096		; 00001000H
  00096	72 08		 jb	 SHORT $LN27@Resize

; 253  :             return _Allocate_manually_vector_aligned<_Traits>(_Bytes);

  00098	50		 push	 eax
  00099	e8 00 00 00 00	 call	 ??$_Allocate_manually_vector_aligned@U_Default_allocate_traits@std@@@std@@YAPAXI@Z ; std::_Allocate_manually_vector_aligned<std::_Default_allocate_traits>
  0009e	eb 06		 jmp	 SHORT $LN139@Resize
$LN27@Resize:

; 136  :         return ::operator new(_Bytes);

  000a0	50		 push	 eax
  000a1	e8 00 00 00 00	 call	 ??2@YAPAXI@Z		; operator new
$LN139@Resize:

; 1955 :             _STD _Copy_memmove(_UFirst, _ULast, _STD _Unfancy(_Dest));

  000a6	8b d8		 mov	 ebx, eax
  000a8	83 c4 04	 add	 esp, 4
$LN36@Resize:
  000ab	53		 push	 ebx
  000ac	ff 77 04	 push	 DWORD PTR [edi+4]
  000af	ff 37		 push	 DWORD PTR [edi]
  000b1	e8 00 00 00 00	 call	 ??$_Copy_memmove@PAUD3DXVECTOR2@@PAU1@@std@@YAPAUD3DXVECTOR2@@PAU1@00@Z ; std::_Copy_memmove<D3DXVECTOR2 *,D3DXVECTOR2 *>
; File D:\Program Files\Microsoft Visual Studio\2022\Community\VC\Tools\MSVC\14.43.34808\include\vector

; 2054 :         if (_Myfirst) { // destroy and deallocate old array

  000b6	8b 07		 mov	 eax, DWORD PTR [edi]
; File D:\Program Files\Microsoft Visual Studio\2022\Community\VC\Tools\MSVC\14.43.34808\include\xmemory

; 1955 :             _STD _Copy_memmove(_UFirst, _ULast, _STD _Unfancy(_Dest));

  000b8	83 c4 0c	 add	 esp, 12			; 0000000cH
; File D:\Program Files\Microsoft Visual Studio\2022\Community\VC\Tools\MSVC\14.43.34808\include\vector

; 2054 :         if (_Myfirst) { // destroy and deallocate old array

  000bb	85 c0		 test	 eax, eax
  000bd	74 2c		 je	 SHORT $LN66@Resize

; 2055 :             _STD _Destroy_range(_Myfirst, _Mylast, _Al);
; 2056 :             _ASAN_VECTOR_REMOVE;
; 2057 :             _Al.deallocate(_Myfirst, static_cast<size_type>(_Myend - _Myfirst));

  000bf	8b 4f 08	 mov	 ecx, DWORD PTR [edi+8]
  000c2	2b c8		 sub	 ecx, eax
; File D:\Program Files\Microsoft Visual Studio\2022\Community\VC\Tools\MSVC\14.43.34808\include\xmemory

; 981  :         _STD _Deallocate<_New_alignof<_Ty>>(_Ptr, sizeof(_Ty) * _Count);

  000c4	83 e1 f8	 and	 ecx, -8			; fffffff8H

; 284  :         if (_Bytes >= _Big_allocation_threshold) {

  000c7	81 f9 00 10 00
	00		 cmp	 ecx, 4096		; 00001000H
  000cd	72 12		 jb	 SHORT $LN77@Resize

; 205  :     const uintptr_t _Ptr_container   = _Ptr_user[-1];

  000cf	8b 50 fc	 mov	 edx, DWORD PTR [eax-4]
  000d2	83 c1 23	 add	 ecx, 35			; 00000023H

; 206  : 
; 207  :     // If the following asserts, it likely means that we are performing
; 208  :     // an aligned delete on memory coming from an unaligned allocation.
; 209  :     _STL_ASSERT(_Ptr_user[-2] == _Big_allocation_sentinel, "invalid argument");
; 210  : 
; 211  :     // Extra paranoia on aligned allocation/deallocation; ensure _Ptr_container is
; 212  :     // in range [_Min_back_shift, _Non_user_size]
; 213  : #ifdef _DEBUG
; 214  :     constexpr uintptr_t _Min_back_shift = 2 * sizeof(void*);
; 215  : #else // ^^^ defined(_DEBUG) / !defined(_DEBUG) vvv
; 216  :     constexpr uintptr_t _Min_back_shift = sizeof(void*);
; 217  : #endif // ^^^ !defined(_DEBUG) ^^^
; 218  :     const uintptr_t _Back_shift = reinterpret_cast<uintptr_t>(_Ptr) - _Ptr_container;

  000d5	2b c2		 sub	 eax, edx

; 219  :     _STL_VERIFY(_Back_shift >= _Min_back_shift && _Back_shift <= _Non_user_size, "invalid argument");

  000d7	83 c0 fc	 add	 eax, -4			; fffffffcH
  000da	83 f8 1f	 cmp	 eax, 31			; 0000001fH
  000dd	77 3e		 ja	 SHORT $LN74@Resize

; 220  :     _Ptr = reinterpret_cast<void*>(_Ptr_container);

  000df	8b c2		 mov	 eax, edx
$LN77@Resize:

; 289  :         ::operator delete(_Ptr, _Bytes);

  000e1	51		 push	 ecx
  000e2	50		 push	 eax
  000e3	e8 00 00 00 00	 call	 ??3@YAXPAXI@Z		; operator delete
  000e8	83 c4 08	 add	 esp, 8
$LN66@Resize:
; File D:\Program Files\Microsoft Visual Studio\2022\Community\VC\Tools\MSVC\14.43.34808\include\vector

; 2061 :         _Mylast  = _Newvec + _Newsize;

  000eb	8d 04 f3	 lea	 eax, DWORD PTR [ebx+esi*8]
  000ee	89 1f		 mov	 DWORD PTR [edi], ebx
  000f0	89 47 04	 mov	 DWORD PTR [edi+4], eax

; 2062 :         _Myend   = _Newvec + _Newcapacity;

  000f3	8b 45 08	 mov	 eax, DWORD PTR tv661[ebp]
  000f6	03 c3		 add	 eax, ebx
  000f8	89 47 08	 mov	 DWORD PTR [edi+8], eax
  000fb	5f		 pop	 edi

; 1610 :     }

  000fc	5e		 pop	 esi
  000fd	5b		 pop	 ebx
  000fe	5d		 pop	 ebp
  000ff	c2 08 00	 ret	 8
$LN4@Resize:

; 1603 :                 _Mylast = _Uninitialized_value_construct_n(_Oldlast, _Newsize - _Oldsize, _Al);

  00102	2b f0		 sub	 esi, eax
; File D:\Program Files\Microsoft Visual Studio\2022\Community\VC\Tools\MSVC\14.43.34808\include\xmemory

; 2056 :     for (; 0 < _Count; --_Count) {

  00104	74 03		 je	 SHORT $LN109@Resize
; File D:\Program Files\Microsoft Visual Studio\2022\Community\VC\Tools\MSVC\14.43.34808\include\vector

; 1603 :                 _Mylast = _Uninitialized_value_construct_n(_Oldlast, _Newsize - _Oldsize, _Al);

  00106	8d 14 f2	 lea	 edx, DWORD PTR [edx+esi*8]
$LN109@Resize:
  00109	89 57 04	 mov	 DWORD PTR [edi+4], edx
$LN3@Resize:
  0010c	5f		 pop	 edi

; 1610 :     }

  0010d	5e		 pop	 esi
  0010e	5b		 pop	 ebx
  0010f	5d		 pop	 ebp
  00110	c2 08 00	 ret	 8
$LN141@Resize:

; 1539 :             _Xlength();

  00113	e8 00 00 00 00	 call	 ?_Xlength@?$vector@UD3DXVECTOR2@@V?$allocator@UD3DXVECTOR2@@@std@@@std@@CAXXZ ; std::vector<D3DXVECTOR2,std::allocator<D3DXVECTOR2> >::_Xlength
$LN142@Resize:
; File D:\Program Files\Microsoft Visual Studio\2022\Community\VC\Tools\MSVC\14.43.34808\include\xmemory

; 118  :             _Throw_bad_array_new_length(); // multiply overflow

  00118	e8 00 00 00 00	 call	 ?_Throw_bad_array_new_length@std@@YAXXZ ; std::_Throw_bad_array_new_length
$LN74@Resize:

; 219  :     _STL_VERIFY(_Back_shift >= _Min_back_shift && _Back_shift <= _Non_user_size, "invalid argument");

  0011d	e8 00 00 00 00	 call	 __invalid_parameter_noinfo_noreturn
$LN138@Resize:
  00122	cc		 int	 3
??$_Resize@U_Value_init_tag@std@@@?$vector@UD3DXVECTOR2@@V?$allocator@UD3DXVECTOR2@@@std@@@std@@AAEXIABU_Value_init_tag@1@@Z ENDP ; std::vector<D3DXVECTOR2,std::allocator<D3DXVECTOR2> >::_Resize<std::_Value_init_tag>
_TEXT	ENDS
; Function compile flags: /Ogtp
;	COMDAT ??_GCMonsterAreaInfo@@UAEPAXI@Z
_TEXT	SEGMENT
___flags$ = 8						; size = 4
??_GCMonsterAreaInfo@@UAEPAXI@Z PROC			; CMonsterAreaInfo::`scalar deleting destructor', COMDAT
; _this$ = ecx
  00000	55		 push	 ebp
  00001	8b ec		 mov	 ebp, esp
  00003	56		 push	 esi
  00004	8b f1		 mov	 esi, ecx
  00006	e8 00 00 00 00	 call	 ??1CMonsterAreaInfo@@UAE@XZ ; CMonsterAreaInfo::~CMonsterAreaInfo
  0000b	f6 45 08 01	 test	 BYTE PTR ___flags$[ebp], 1
  0000f	74 0e		 je	 SHORT $LN5@scalar
  00011	68 9c 00 00 00	 push	 156			; 0000009cH
  00016	56		 push	 esi
  00017	e8 00 00 00 00	 call	 ??3@YAXPAXI@Z		; operator delete
  0001c	83 c4 08	 add	 esp, 8
$LN5@scalar:
  0001f	8b c6		 mov	 eax, esi
  00021	5e		 pop	 esi
  00022	5d		 pop	 ebp
  00023	c2 04 00	 ret	 4
??_GCMonsterAreaInfo@@UAEPAXI@Z ENDP			; CMonsterAreaInfo::`scalar deleting destructor'
_TEXT	ENDS
; Function compile flags: /Ogtp
; File D:\Program Files\Microsoft Visual Studio\2022\Community\VC\Tools\MSVC\14.43.34808\include\vector
;	COMDAT ?_Xlength@?$vector@UD3DXVECTOR2@@V?$allocator@UD3DXVECTOR2@@@std@@@std@@CAXXZ
_TEXT	SEGMENT
?_Xlength@?$vector@UD3DXVECTOR2@@V?$allocator@UD3DXVECTOR2@@@std@@@std@@CAXXZ PROC ; std::vector<D3DXVECTOR2,std::allocator<D3DXVECTOR2> >::_Xlength, COMDAT

; 2169 :         _Xlength_error("vector too long");

  00000	68 00 00 00 00	 push	 OFFSET ??_C@_0BA@FOIKENOD@vector?5too?5long@
  00005	e8 00 00 00 00	 call	 ?_Xlength_error@std@@YAXPBD@Z ; std::_Xlength_error
$LN3@Xlength:
  0000a	cc		 int	 3
?_Xlength@?$vector@UD3DXVECTOR2@@V?$allocator@UD3DXVECTOR2@@@std@@@std@@CAXXZ ENDP ; std::vector<D3DXVECTOR2,std::allocator<D3DXVECTOR2> >::_Xlength
_TEXT	ENDS
; Function compile flags: /Ogtp
; File D:\Program Files\Microsoft Visual Studio\2022\Community\VC\Tools\MSVC\14.43.34808\include\vector
; File D:\Program Files\Microsoft Visual Studio\2022\Community\VC\Tools\MSVC\14.43.34808\include\xmemory
; File D:\Program Files\Microsoft Visual Studio\2022\Community\VC\Tools\MSVC\14.43.34808\include\vector
; File D:\Program Files\Microsoft Visual Studio\2022\Community\VC\Tools\MSVC\14.43.34808\include\xmemory
; File D:\Program Files\Microsoft Visual Studio\2022\Community\VC\Tools\MSVC\14.43.34808\include\vector
; File D:\Program Files\Microsoft Visual Studio\2022\Community\VC\Tools\MSVC\14.43.34808\include\xmemory
; File D:\Program Files\Microsoft Visual Studio\2022\Community\VC\Tools\MSVC\14.43.34808\include\vector
;	COMDAT ??1?$vector@UD3DXVECTOR2@@V?$allocator@UD3DXVECTOR2@@@std@@@std@@QAE@XZ
_TEXT	SEGMENT
??1?$vector@UD3DXVECTOR2@@V?$allocator@UD3DXVECTOR2@@@std@@@std@@QAE@XZ PROC ; std::vector<D3DXVECTOR2,std::allocator<D3DXVECTOR2> >::~vector<D3DXVECTOR2,std::allocator<D3DXVECTOR2> >, COMDAT
; _this$ = ecx

; 814  :     _CONSTEXPR20 ~vector() noexcept {

  00000	56		 push	 esi
  00001	8b f1		 mov	 esi, ecx

; 2075 :         if (_Myfirst) { // destroy and deallocate old array

  00003	8b 06		 mov	 eax, DWORD PTR [esi]
  00005	85 c0		 test	 eax, eax
  00007	74 40		 je	 SHORT $LN5@vector

; 2076 :             _STD _Destroy_range(_Myfirst, _Mylast, _Al);
; 2077 :             _ASAN_VECTOR_REMOVE;
; 2078 :             _Al.deallocate(_Myfirst, static_cast<size_type>(_Myend - _Myfirst));

  00009	8b 4e 08	 mov	 ecx, DWORD PTR [esi+8]
  0000c	2b c8		 sub	 ecx, eax
; File D:\Program Files\Microsoft Visual Studio\2022\Community\VC\Tools\MSVC\14.43.34808\include\xmemory

; 981  :         _STD _Deallocate<_New_alignof<_Ty>>(_Ptr, sizeof(_Ty) * _Count);

  0000e	83 e1 f8	 and	 ecx, -8			; fffffff8H

; 284  :         if (_Bytes >= _Big_allocation_threshold) {

  00011	81 f9 00 10 00
	00		 cmp	 ecx, 4096		; 00001000H
  00017	72 12		 jb	 SHORT $LN24@vector

; 205  :     const uintptr_t _Ptr_container   = _Ptr_user[-1];

  00019	8b 50 fc	 mov	 edx, DWORD PTR [eax-4]
  0001c	83 c1 23	 add	 ecx, 35			; 00000023H

; 206  : 
; 207  :     // If the following asserts, it likely means that we are performing
; 208  :     // an aligned delete on memory coming from an unaligned allocation.
; 209  :     _STL_ASSERT(_Ptr_user[-2] == _Big_allocation_sentinel, "invalid argument");
; 210  : 
; 211  :     // Extra paranoia on aligned allocation/deallocation; ensure _Ptr_container is
; 212  :     // in range [_Min_back_shift, _Non_user_size]
; 213  : #ifdef _DEBUG
; 214  :     constexpr uintptr_t _Min_back_shift = 2 * sizeof(void*);
; 215  : #else // ^^^ defined(_DEBUG) / !defined(_DEBUG) vvv
; 216  :     constexpr uintptr_t _Min_back_shift = sizeof(void*);
; 217  : #endif // ^^^ !defined(_DEBUG) ^^^
; 218  :     const uintptr_t _Back_shift = reinterpret_cast<uintptr_t>(_Ptr) - _Ptr_container;

  0001f	2b c2		 sub	 eax, edx

; 219  :     _STL_VERIFY(_Back_shift >= _Min_back_shift && _Back_shift <= _Non_user_size, "invalid argument");

  00021	83 c0 fc	 add	 eax, -4			; fffffffcH
  00024	83 f8 1f	 cmp	 eax, 31			; 0000001fH
  00027	77 22		 ja	 SHORT $LN21@vector

; 220  :     _Ptr = reinterpret_cast<void*>(_Ptr_container);

  00029	8b c2		 mov	 eax, edx
$LN24@vector:

; 289  :         ::operator delete(_Ptr, _Bytes);

  0002b	51		 push	 ecx
  0002c	50		 push	 eax
  0002d	e8 00 00 00 00	 call	 ??3@YAXPAXI@Z		; operator delete
; File D:\Program Files\Microsoft Visual Studio\2022\Community\VC\Tools\MSVC\14.43.34808\include\vector

; 2080 :             _Myfirst = nullptr;

  00032	c7 06 00 00 00
	00		 mov	 DWORD PTR [esi], 0
; File D:\Program Files\Microsoft Visual Studio\2022\Community\VC\Tools\MSVC\14.43.34808\include\xmemory

; 289  :         ::operator delete(_Ptr, _Bytes);

  00038	83 c4 08	 add	 esp, 8
; File D:\Program Files\Microsoft Visual Studio\2022\Community\VC\Tools\MSVC\14.43.34808\include\vector

; 2081 :             _Mylast  = nullptr;

  0003b	c7 46 04 00 00
	00 00		 mov	 DWORD PTR [esi+4], 0

; 2082 :             _Myend   = nullptr;

  00042	c7 46 08 00 00
	00 00		 mov	 DWORD PTR [esi+8], 0
$LN5@vector:
  00049	5e		 pop	 esi

; 820  :     }

  0004a	c3		 ret	 0
$LN21@vector:
; File D:\Program Files\Microsoft Visual Studio\2022\Community\VC\Tools\MSVC\14.43.34808\include\xmemory

; 219  :     _STL_VERIFY(_Back_shift >= _Min_back_shift && _Back_shift <= _Non_user_size, "invalid argument");

  0004b	e8 00 00 00 00	 call	 __invalid_parameter_noinfo_noreturn
$LN32@vector:
  00050	cc		 int	 3
??1?$vector@UD3DXVECTOR2@@V?$allocator@UD3DXVECTOR2@@@std@@@std@@QAE@XZ ENDP ; std::vector<D3DXVECTOR2,std::allocator<D3DXVECTOR2> >::~vector<D3DXVECTOR2,std::allocator<D3DXVECTOR2> >
_TEXT	ENDS
; Function compile flags: /Ogtp
; File C:\Marty 5.5\Src-Client\Client\GameLib\MonsterAreaInfo.cpp
;	COMDAT ?SetLRTB@CMonsterAreaInfo@@IAEXXZ
_TEXT	SEGMENT
?SetLRTB@CMonsterAreaInfo@@IAEXXZ PROC			; CMonsterAreaInfo::SetLRTB, COMDAT
; _this$ = ecx

; 56   : {

  00000	53		 push	 ebx
  00001	8b d9		 mov	 ebx, ecx
  00003	56		 push	 esi
  00004	57		 push	 edi

; 57   : 	m_lLeft = m_lOriginX - m_lSizeX;

  00005	8b 4b 70	 mov	 ecx, DWORD PTR [ebx+112]
  00008	8b c1		 mov	 eax, ecx
  0000a	8b 7b 78	 mov	 edi, DWORD PTR [ebx+120]
  0000d	2b c7		 sub	 eax, edi

; 58   : 	m_lTop = m_lOriginY - m_lSizeY;

  0000f	8b 73 74	 mov	 esi, DWORD PTR [ebx+116]
  00012	8b 53 7c	 mov	 edx, DWORD PTR [ebx+124]
  00015	89 83 80 00 00
	00		 mov	 DWORD PTR [ebx+128], eax
  0001b	8b c6		 mov	 eax, esi
  0001d	2b c2		 sub	 eax, edx
  0001f	89 83 88 00 00
	00		 mov	 DWORD PTR [ebx+136], eax

; 59   : 	m_lRight = m_lOriginX + m_lSizeX;

  00025	8d 04 0f	 lea	 eax, DWORD PTR [edi+ecx]
  00028	89 83 84 00 00
	00		 mov	 DWORD PTR [ebx+132], eax

; 60   : 	m_lBottom = m_lOriginY + m_lSizeY;

  0002e	8d 04 32	 lea	 eax, DWORD PTR [edx+esi]
  00031	5f		 pop	 edi
  00032	5e		 pop	 esi
  00033	89 83 8c 00 00
	00		 mov	 DWORD PTR [ebx+140], eax
  00039	5b		 pop	 ebx

; 61   : }

  0003a	c3		 ret	 0
?SetLRTB@CMonsterAreaInfo@@IAEXXZ ENDP			; CMonsterAreaInfo::SetLRTB
_TEXT	ENDS
; Function compile flags: /Ogtp
; File C:\Marty 5.5\Src-Client\Client\GameLib\MonsterAreaInfo.cpp
; File D:\Program Files\Microsoft Visual Studio\2022\Community\VC\Tools\MSVC\14.43.34808\include\vector
; File C:\Marty 5.5\Src-Client\Client\GameLib\MonsterAreaInfo.cpp
; File C:\Marty 5.5\Src-Client\extern\include\d3dx8math.inl
; File C:\Marty 5.5\Src-Client\Client\GameLib\MonsterAreaInfo.cpp
;	COMDAT ?GetTempMonsterPos@CMonsterAreaInfo@@QAE?AUD3DXVECTOR2@@K@Z
_TEXT	SEGMENT
___$ReturnUdt$ = 8					; size = 4
_dwIndex$ = 12						; size = 4
?GetTempMonsterPos@CMonsterAreaInfo@@QAE?AUD3DXVECTOR2@@K@Z PROC ; CMonsterAreaInfo::GetTempMonsterPos, COMDAT
; _this$ = ecx

; 143  : {

  00000	55		 push	 ebp
  00001	8b ec		 mov	 ebp, esp
; File D:\Program Files\Microsoft Visual Studio\2022\Community\VC\Tools\MSVC\14.43.34808\include\vector

; 1900 :         return static_cast<size_type>(_My_data._Mylast - _My_data._Myfirst);

  00003	8b 81 94 00 00
	00		 mov	 eax, DWORD PTR [ecx+148]
  00009	8b 91 90 00 00
	00		 mov	 edx, DWORD PTR [ecx+144]
  0000f	2b c2		 sub	 eax, edx
  00011	c1 f8 03	 sar	 eax, 3
; File C:\Marty 5.5\Src-Client\Client\GameLib\MonsterAreaInfo.cpp

; 143  : {

  00014	56		 push	 esi

; 144  : 	if (dwIndex >= m_TempMonsterPosVector.size())

  00015	8b 75 0c	 mov	 esi, DWORD PTR _dwIndex$[ebp]
  00018	3b f0		 cmp	 esi, eax
  0001a	8b 45 08	 mov	 eax, DWORD PTR ___$ReturnUdt$[ebp]
  0001d	72 12		 jb	 SHORT $LN2@GetTempMon
; File C:\Marty 5.5\Src-Client\extern\include\d3dx8math.inl

; 41   :     x = fx;

  0001f	c7 00 00 00 00
	00		 mov	 DWORD PTR [eax], 0

; 42   :     y = fy;

  00025	c7 40 04 00 00
	00 00		 mov	 DWORD PTR [eax+4], 0
  0002c	5e		 pop	 esi
; File C:\Marty 5.5\Src-Client\Client\GameLib\MonsterAreaInfo.cpp

; 147  : }

  0002d	5d		 pop	 ebp
  0002e	c2 08 00	 ret	 8
$LN2@GetTempMon:

; 145  : 		return D3DXVECTOR2(0.0f, 0.0f);
; 146  : 	return m_TempMonsterPosVector[dwIndex];

  00031	8b 0c f2	 mov	 ecx, DWORD PTR [edx+esi*8]
  00034	8b 54 f2 04	 mov	 edx, DWORD PTR [edx+esi*8+4]
  00038	89 08		 mov	 DWORD PTR [eax], ecx
  0003a	89 50 04	 mov	 DWORD PTR [eax+4], edx
  0003d	5e		 pop	 esi

; 147  : }

  0003e	5d		 pop	 ebp
  0003f	c2 08 00	 ret	 8
?GetTempMonsterPos@CMonsterAreaInfo@@QAE?AUD3DXVECTOR2@@K@Z ENDP ; CMonsterAreaInfo::GetTempMonsterPos
_TEXT	ENDS
; Function compile flags: /Ogtp
; File C:\Marty 5.5\Src-Client\Client\GameLib\MonsterAreaInfo.cpp
; File D:\Program Files\Microsoft Visual Studio\2022\Community\VC\Tools\MSVC\14.43.34808\include\xstring
; File C:\Marty 5.5\Src-Client\Client\GameLib\MonsterAreaInfo.cpp
; File D:\Program Files\Microsoft Visual Studio\2022\Community\VC\Tools\MSVC\14.43.34808\include\xstring
; File C:\Marty 5.5\Src-Client\Client\GameLib\MonsterAreaInfo.cpp
; File D:\Program Files\Microsoft Visual Studio\2022\Community\VC\Tools\MSVC\14.43.34808\include\xstring
; File C:\Marty 5.5\Src-Client\Client\GameLib\MonsterAreaInfo.cpp
; File D:\Program Files\Microsoft Visual Studio\2022\Community\VC\Tools\MSVC\14.43.34808\include\xstring
; File C:\Marty 5.5\Src-Client\Client\GameLib\MonsterAreaInfo.cpp
; File D:\Program Files\Microsoft Visual Studio\2022\Community\VC\Tools\MSVC\14.43.34808\include\vector
; File C:\Marty 5.5\Src-Client\Client\GameLib\MonsterAreaInfo.cpp
;	COMDAT ?RemoveAllMonsters@CMonsterAreaInfo@@QAEXXZ
_TEXT	SEGMENT
?RemoveAllMonsters@CMonsterAreaInfo@@QAEXXZ PROC	; CMonsterAreaInfo::RemoveAllMonsters, COMDAT
; _this$ = ecx

; 124  : {

  00000	56		 push	 esi
  00001	8b f1		 mov	 esi, ecx
; File D:\Program Files\Microsoft Visual Studio\2022\Community\VC\Tools\MSVC\14.43.34808\include\xstring

; 1614 :         return assign(_Ptr, _Convert_size<size_type>(_Traits::length(_Ptr)));

  00003	6a 06		 push	 6
  00005	68 00 00 00 00	 push	 OFFSET ??_C@_06HCBIANPB@Noname@
; File C:\Marty 5.5\Src-Client\Client\GameLib\MonsterAreaInfo.cpp

; 129  : 	m_strGroupName.assign("Noname");

  0000a	8d 4e 0c	 lea	 ecx, DWORD PTR [esi+12]
  0000d	c7 46 04 00 00
	00 00		 mov	 DWORD PTR [esi+4], 0
  00014	c7 46 08 00 00
	00 00		 mov	 DWORD PTR [esi+8], 0
; File D:\Program Files\Microsoft Visual Studio\2022\Community\VC\Tools\MSVC\14.43.34808\include\xstring

; 1614 :         return assign(_Ptr, _Convert_size<size_type>(_Traits::length(_Ptr)));

  0001b	e8 00 00 00 00	 call	 ?assign@?$basic_string@DU?$char_traits@D@std@@V?$allocator@D@2@@std@@QAEAAV12@QBDI@Z ; std::basic_string<char,std::char_traits<char>,std::allocator<char> >::assign
  00020	6a 06		 push	 6
  00022	68 00 00 00 00	 push	 OFFSET ??_C@_06HCBIANPB@Noname@
; File C:\Marty 5.5\Src-Client\Client\GameLib\MonsterAreaInfo.cpp

; 130  : 	m_strLeaderName.assign("Noname");

  00027	8d 4e 24	 lea	 ecx, DWORD PTR [esi+36]
; File D:\Program Files\Microsoft Visual Studio\2022\Community\VC\Tools\MSVC\14.43.34808\include\xstring

; 1614 :         return assign(_Ptr, _Convert_size<size_type>(_Traits::length(_Ptr)));

  0002a	e8 00 00 00 00	 call	 ?assign@?$basic_string@DU?$char_traits@D@std@@V?$allocator@D@2@@std@@QAEAAV12@QBDI@Z ; std::basic_string<char,std::char_traits<char>,std::allocator<char> >::assign
  0002f	6a 06		 push	 6
  00031	68 00 00 00 00	 push	 OFFSET ??_C@_06HCBIANPB@Noname@
; File C:\Marty 5.5\Src-Client\Client\GameLib\MonsterAreaInfo.cpp

; 134  : 	m_strMonsterName.assign("Noname");

  00036	8d 4e 44	 lea	 ecx, DWORD PTR [esi+68]
  00039	c7 46 3c 00 00
	00 00		 mov	 DWORD PTR [esi+60], 0
  00040	c7 46 40 00 00
	00 00		 mov	 DWORD PTR [esi+64], 0
; File D:\Program Files\Microsoft Visual Studio\2022\Community\VC\Tools\MSVC\14.43.34808\include\xstring

; 1614 :         return assign(_Ptr, _Convert_size<size_type>(_Traits::length(_Ptr)));

  00047	e8 00 00 00 00	 call	 ?assign@?$basic_string@DU?$char_traits@D@std@@V?$allocator@D@2@@std@@QAEAAV12@QBDI@Z ; std::basic_string<char,std::char_traits<char>,std::allocator<char> >::assign
; File C:\Marty 5.5\Src-Client\Client\GameLib\MonsterAreaInfo.cpp

; 136  : 	SetMonsterCount(0);

  0004c	6a 00		 push	 0
  0004e	8b ce		 mov	 ecx, esi
  00050	e8 00 00 00 00	 call	 ?SetMonsterCount@CMonsterAreaInfo@@QAEXK@Z ; CMonsterAreaInfo::SetMonsterCount

; 137  : 	SetMonsterDirection(DIR_NORTH);

  00055	6a 01		 push	 1
  00057	8b ce		 mov	 ecx, esi
  00059	e8 00 00 00 00	 call	 ?SetMonsterDirection@CMonsterAreaInfo@@QAEXW4EMonsterDir@1@@Z ; CMonsterAreaInfo::SetMonsterDirection
; File D:\Program Files\Microsoft Visual Studio\2022\Community\VC\Tools\MSVC\14.43.34808\include\vector

; 1797 :         if (_Myfirst == _Mylast) { // already empty, nothing to do

  0005e	8b 86 90 00 00
	00		 mov	 eax, DWORD PTR [esi+144]
  00064	3b 86 94 00 00
	00		 cmp	 eax, DWORD PTR [esi+148]
  0006a	74 06		 je	 SHORT $LN18@RemoveAllM

; 1798 :             // This is an optimization for debug mode: we can avoid taking the debug lock to invalidate iterators.
; 1799 :             // Note that when clearing an empty vector, this will preserve past-the-end iterators, which is allowed by
; 1800 :             // N4950 [sequence.reqmts]/54 "a.clear() [...] may invalidate the past-the-end iterator".
; 1801 :             return;
; 1802 :         }
; 1803 : 
; 1804 :         _My_data._Orphan_all();
; 1805 :         _Destroy_range(_Myfirst, _Mylast, _Getal());
; 1806 :         _ASAN_VECTOR_MODIFY(static_cast<difference_type>(_Myfirst - _Mylast)); // negative when destroying elements
; 1807 :         _Mylast = _Myfirst;

  0006c	89 86 94 00 00
	00		 mov	 DWORD PTR [esi+148], eax
$LN18@RemoveAllM:
  00072	5e		 pop	 esi
; File C:\Marty 5.5\Src-Client\Client\GameLib\MonsterAreaInfo.cpp

; 140  : }

  00073	c3		 ret	 0
?RemoveAllMonsters@CMonsterAreaInfo@@QAEXXZ ENDP	; CMonsterAreaInfo::RemoveAllMonsters
_TEXT	ENDS
; Function compile flags: /Ogtp
; File C:\Marty 5.5\Src-Client\Client\GameLib\MonsterAreaInfo.cpp
; File C:\Marty 5.5\Src-Client\extern\include\d3dx8math.inl
; File C:\Marty 5.5\Src-Client\Client\GameLib\MonsterAreaInfo.cpp
;	COMDAT ?SetMonsterDirection@CMonsterAreaInfo@@QAEXW4EMonsterDir@1@@Z
_TEXT	SEGMENT
_matRotation$ = -80					; size = 64
_v3Direction$ = -16					; size = 12
__$ArrayPad$ = -4					; size = 4
_eMonsterDir$ = 8					; size = 4
?SetMonsterDirection@CMonsterAreaInfo@@QAEXW4EMonsterDir@1@@Z PROC ; CMonsterAreaInfo::SetMonsterDirection, COMDAT
; _this$ = ecx

; 81   : {

  00000	55		 push	 ebp
  00001	8b ec		 mov	 ebp, esp
  00003	83 ec 50	 sub	 esp, 80			; 00000050H
  00006	a1 00 00 00 00	 mov	 eax, DWORD PTR ___security_cookie
  0000b	33 c5		 xor	 eax, ebp
  0000d	89 45 fc	 mov	 DWORD PTR __$ArrayPad$[ebp], eax

; 82   : 	m_eMonsterDir = eMonsterDir;

  00010	8b 45 08	 mov	 eax, DWORD PTR _eMonsterDir$[ebp]
  00013	0f 57 c0	 xorps	 xmm0, xmm0
; File C:\Marty 5.5\Src-Client\extern\include\d3dx8math.inl

; 180  :     x = fx;

  00016	c7 45 f0 00 00
	00 00		 mov	 DWORD PTR _v3Direction$[ebp], 0

; 181  :     y = fy;

  0001d	c7 45 f4 00 00
	80 3f		 mov	 DWORD PTR _v3Direction$[ebp+4], 1065353216 ; 3f800000H

; 182  :     z = fz;

  00024	c7 45 f8 00 00
	00 00		 mov	 DWORD PTR _v3Direction$[ebp+8], 0
; File C:\Marty 5.5\Src-Client\Client\GameLib\MonsterAreaInfo.cpp

; 81   : {

  0002b	56		 push	 esi
  0002c	8b f1		 mov	 esi, ecx

; 82   : 	m_eMonsterDir = eMonsterDir;

  0002e	89 46 60	 mov	 DWORD PTR [esi+96], eax

; 83   : 	D3DXMATRIX matRotation;
; 84   : 	D3DXVECTOR3 v3Direction(0.0f, 1.0f, 0.0f);
; 85   : 	float fDegree = 0.0f;
; 86   : 	switch(m_eMonsterDir)

  00031	83 f8 08	 cmp	 eax, 8
  00034	77 68		 ja	 SHORT $LN2@SetMonster
  00036	ff 24 85 00 00
	00 00		 jmp	 DWORD PTR $LN16@SetMonster[eax*4]
$LN4@SetMonster:

; 87   : 	{
; 88   : 	case DIR_RANDOM:
; 89   : 		fDegree = (float) random_range(0, 7) * 45.0f;

  0003d	6a 07		 push	 7
  0003f	6a 00		 push	 0
  00041	e8 00 00 00 00	 call	 ?random_range@@YAJJJ@Z	; random_range
  00046	83 c4 08	 add	 esp, 8
  00049	66 0f 6e c0	 movd	 xmm0, eax
  0004d	0f 5b c0	 cvtdq2ps xmm0, xmm0
  00050	f3 0f 59 05 00
	00 00 00	 mulss	 xmm0, DWORD PTR __real@42340000

; 90   : 		break;

  00058	eb 44		 jmp	 SHORT $LN2@SetMonster
$LN6@SetMonster:

; 91   : 	case DIR_NORTH:
; 92   : 		fDegree = 0.0f;
; 93   : 		break;
; 94   : 	case DIR_NORTHEAST:
; 95   : 		fDegree = 45.0f;

  0005a	f3 0f 10 05 00
	00 00 00	 movss	 xmm0, DWORD PTR __real@42340000

; 96   : 		break;

  00062	eb 3a		 jmp	 SHORT $LN2@SetMonster
$LN7@SetMonster:

; 97   : 	case DIR_EAST:
; 98   : 		fDegree = 90.0f;

  00064	f3 0f 10 05 00
	00 00 00	 movss	 xmm0, DWORD PTR __real@42b40000

; 99   : 		break;

  0006c	eb 30		 jmp	 SHORT $LN2@SetMonster
$LN8@SetMonster:

; 100  : 	case DIR_SOUTHEAST:
; 101  : 		fDegree = 135.0f;

  0006e	f3 0f 10 05 00
	00 00 00	 movss	 xmm0, DWORD PTR __real@43070000

; 102  : 		break;

  00076	eb 26		 jmp	 SHORT $LN2@SetMonster
$LN9@SetMonster:

; 103  : 	case DIR_SOUTH:
; 104  : 		fDegree = 180.0f;

  00078	f3 0f 10 05 00
	00 00 00	 movss	 xmm0, DWORD PTR __real@43340000

; 105  : 		break;

  00080	eb 1c		 jmp	 SHORT $LN2@SetMonster
$LN10@SetMonster:

; 106  : 	case DIR_SOUTHWEST:
; 107  : 		fDegree = 225.0f;

  00082	f3 0f 10 05 00
	00 00 00	 movss	 xmm0, DWORD PTR __real@43610000

; 108  : 		break;

  0008a	eb 12		 jmp	 SHORT $LN2@SetMonster
$LN11@SetMonster:

; 109  : 	case DIR_WEST:
; 110  : 		fDegree = 270.0f;

  0008c	f3 0f 10 05 00
	00 00 00	 movss	 xmm0, DWORD PTR __real@43870000

; 111  : 		break;

  00094	eb 08		 jmp	 SHORT $LN2@SetMonster
$LN12@SetMonster:

; 112  : 	case DIR_NORTHWEST:
; 113  : 		fDegree = 315.0f;

  00096	f3 0f 10 05 00
	00 00 00	 movss	 xmm0, DWORD PTR __real@439d8000
$LN2@SetMonster:

; 114  : 		break;
; 115  : 	}
; 116  : 	D3DXMatrixRotationZ(&matRotation, -D3DXToRadian(fDegree));

  0009e	f3 0f 59 05 00
	00 00 00	 mulss	 xmm0, DWORD PTR __real@3c8efa35
  000a6	8d 45 b0	 lea	 eax, DWORD PTR _matRotation$[ebp]
  000a9	51		 push	 ecx
  000aa	0f 57 05 00 00
	00 00		 xorps	 xmm0, DWORD PTR __xmm@80000000800000008000000080000000
  000b1	f3 0f 11 04 24	 movss	 DWORD PTR [esp], xmm0
  000b6	50		 push	 eax
  000b7	e8 00 00 00 00	 call	 _D3DXMatrixRotationZ@8

; 117  : 	D3DXVec3TransformCoord(&v3Direction, &v3Direction, &matRotation);

  000bc	8d 45 b0	 lea	 eax, DWORD PTR _matRotation$[ebp]
  000bf	50		 push	 eax
  000c0	8d 45 f0	 lea	 eax, DWORD PTR _v3Direction$[ebp]
  000c3	50		 push	 eax
  000c4	50		 push	 eax
  000c5	e8 00 00 00 00	 call	 _D3DXVec3TransformCoord@12

; 118  : 	m_v2Monsterdirection.x = v3Direction.x;

  000ca	f3 0f 10 45 f0	 movss	 xmm0, DWORD PTR _v3Direction$[ebp]
  000cf	8d 46 64	 lea	 eax, DWORD PTR [esi+100]
  000d2	f3 0f 11 00	 movss	 DWORD PTR [eax], xmm0

; 119  : 	m_v2Monsterdirection.y = v3Direction.y;

  000d6	f3 0f 10 45 f4	 movss	 xmm0, DWORD PTR _v3Direction$[ebp+4]

; 120  : 	D3DXVec2Normalize(&m_v2Monsterdirection, &m_v2Monsterdirection);

  000db	50		 push	 eax
  000dc	50		 push	 eax
  000dd	f3 0f 11 46 68	 movss	 DWORD PTR [esi+104], xmm0
  000e2	e8 00 00 00 00	 call	 _D3DXVec2Normalize@8

; 121  : }

  000e7	8b 4d fc	 mov	 ecx, DWORD PTR __$ArrayPad$[ebp]
  000ea	33 cd		 xor	 ecx, ebp
  000ec	5e		 pop	 esi
  000ed	e8 00 00 00 00	 call	 @__security_check_cookie@4
  000f2	8b e5		 mov	 esp, ebp
  000f4	5d		 pop	 ebp
  000f5	c2 04 00	 ret	 4
$LN16@SetMonster:
  000f8	00 00 00 00	 DD	 $LN4@SetMonster
  000fc	00 00 00 00	 DD	 $LN2@SetMonster
  00100	00 00 00 00	 DD	 $LN6@SetMonster
  00104	00 00 00 00	 DD	 $LN7@SetMonster
  00108	00 00 00 00	 DD	 $LN8@SetMonster
  0010c	00 00 00 00	 DD	 $LN9@SetMonster
  00110	00 00 00 00	 DD	 $LN10@SetMonster
  00114	00 00 00 00	 DD	 $LN11@SetMonster
  00118	00 00 00 00	 DD	 $LN12@SetMonster
?SetMonsterDirection@CMonsterAreaInfo@@QAEXW4EMonsterDir@1@@Z ENDP ; CMonsterAreaInfo::SetMonsterDirection
_TEXT	ENDS
; Function compile flags: /Ogtp
; File C:\Marty 5.5\Src-Client\Client\GameLib\MonsterAreaInfo.cpp
; File D:\Program Files\Microsoft Visual Studio\2022\Community\VC\Tools\MSVC\14.43.34808\include\vector
; File C:\Marty 5.5\Src-Client\Client\GameLib\MonsterAreaInfo.cpp
; File D:\Program Files\Microsoft Visual Studio\2022\Community\VC\Tools\MSVC\14.43.34808\include\vector
; File C:\Marty 5.5\Src-Client\Client\GameLib\MonsterAreaInfo.cpp
; File D:\Program Files\Microsoft Visual Studio\2022\Community\VC\Tools\MSVC\14.43.34808\include\vector
; File C:\Marty 5.5\Src-Client\Client\GameLib\MonsterAreaInfo.cpp
; File D:\Program Files\Microsoft Visual Studio\2022\Community\VC\Tools\MSVC\14.43.34808\include\vector
; File C:\Marty 5.5\Src-Client\Client\GameLib\MonsterAreaInfo.cpp
; File D:\Program Files\Microsoft Visual Studio\2022\Community\VC\Tools\MSVC\14.43.34808\include\vector
; File C:\Marty 5.5\Src-Client\Client\GameLib\MonsterAreaInfo.cpp
;	COMDAT ?SetMonsterCount@CMonsterAreaInfo@@QAEXK@Z
_TEXT	SEGMENT
_dwI$1$ = -8						; size = 4
$T1 = -1						; size = 1
_dwCount$ = 8						; size = 4
?SetMonsterCount@CMonsterAreaInfo@@QAEXK@Z PROC		; CMonsterAreaInfo::SetMonsterCount, COMDAT
; _this$ = ecx

; 64   : {

  00000	55		 push	 ebp
  00001	8b ec		 mov	 ebp, esp
  00003	83 ec 08	 sub	 esp, 8
  00006	53		 push	 ebx
  00007	8b d9		 mov	 ebx, ecx
  00009	56		 push	 esi

; 65   : 	m_dwMonsterCount = dwCount;

  0000a	8b 75 08	 mov	 esi, DWORD PTR _dwCount$[ebp]
; File D:\Program Files\Microsoft Visual Studio\2022\Community\VC\Tools\MSVC\14.43.34808\include\vector

; 1899 :         auto& _My_data = _Mypair._Myval2;

  0000d	8d 8b 90 00 00
	00		 lea	 ecx, DWORD PTR [ebx+144]
; File C:\Marty 5.5\Src-Client\Client\GameLib\MonsterAreaInfo.cpp

; 64   : {

  00013	57		 push	 edi

; 65   : 	m_dwMonsterCount = dwCount;

  00014	89 73 5c	 mov	 DWORD PTR [ebx+92], esi
; File D:\Program Files\Microsoft Visual Studio\2022\Community\VC\Tools\MSVC\14.43.34808\include\vector

; 1900 :         return static_cast<size_type>(_My_data._Mylast - _My_data._Myfirst);

  00017	8b 79 04	 mov	 edi, DWORD PTR [ecx+4]
  0001a	8b c7		 mov	 eax, edi
  0001c	8b 11		 mov	 edx, DWORD PTR [ecx]
  0001e	2b c2		 sub	 eax, edx
  00020	c1 f8 03	 sar	 eax, 3
; File C:\Marty 5.5\Src-Client\Client\GameLib\MonsterAreaInfo.cpp

; 67   : 	if (m_TempMonsterPosVector.size() == dwCount)

  00023	3b c6		 cmp	 eax, esi
  00025	74 7a		 je	 SHORT $LN3@SetMonster
; File D:\Program Files\Microsoft Visual Studio\2022\Community\VC\Tools\MSVC\14.43.34808\include\vector

; 1797 :         if (_Myfirst == _Mylast) { // already empty, nothing to do

  00027	3b d7		 cmp	 edx, edi
  00029	74 06		 je	 SHORT $LN10@SetMonster

; 1798 :             // This is an optimization for debug mode: we can avoid taking the debug lock to invalidate iterators.
; 1799 :             // Note that when clearing an empty vector, this will preserve past-the-end iterators, which is allowed by
; 1800 :             // N4950 [sequence.reqmts]/54 "a.clear() [...] may invalidate the past-the-end iterator".
; 1801 :             return;
; 1802 :         }
; 1803 : 
; 1804 :         _My_data._Orphan_all();
; 1805 :         _Destroy_range(_Myfirst, _Mylast, _Getal());
; 1806 :         _ASAN_VECTOR_MODIFY(static_cast<difference_type>(_Myfirst - _Mylast)); // negative when destroying elements
; 1807 :         _Mylast = _Myfirst;

  0002b	89 93 94 00 00
	00		 mov	 DWORD PTR [ebx+148], edx
$LN10@SetMonster:

; 1615 :         _Resize(_Newsize, _Value_init_tag{});

  00031	8d 45 ff	 lea	 eax, DWORD PTR $T1[ebp]
  00034	50		 push	 eax
  00035	56		 push	 esi
  00036	e8 00 00 00 00	 call	 ??$_Resize@U_Value_init_tag@std@@@?$vector@UD3DXVECTOR2@@V?$allocator@UD3DXVECTOR2@@@std@@@std@@AAEXIABU_Value_init_tag@1@@Z ; std::vector<D3DXVECTOR2,std::allocator<D3DXVECTOR2> >::_Resize<std::_Value_init_tag>
  0003b	33 c0		 xor	 eax, eax
  0003d	89 45 f8	 mov	 DWORD PTR _dwI$1$[ebp], eax
; File C:\Marty 5.5\Src-Client\Client\GameLib\MonsterAreaInfo.cpp

; 73   : 	for (DWORD dwI = 0; dwI < dwCount; ++dwI)

  00040	85 f6		 test	 esi, esi
  00042	74 5d		 je	 SHORT $LN3@SetMonster
$LL4@SetMonster:

; 75   : 		m_TempMonsterPosVector[dwI].x = (float)random_range(m_lLeft, m_lRight);

  00044	ff b3 84 00 00
	00		 push	 DWORD PTR [ebx+132]
; File D:\Program Files\Microsoft Visual Studio\2022\Community\VC\Tools\MSVC\14.43.34808\include\vector

; 1919 :         return _My_data._Myfirst[_Pos];

  0004a	8b b3 90 00 00
	00		 mov	 esi, DWORD PTR [ebx+144]
  00050	8d 3c c5 00 00
	00 00		 lea	 edi, DWORD PTR [eax*8]
; File C:\Marty 5.5\Src-Client\Client\GameLib\MonsterAreaInfo.cpp

; 75   : 		m_TempMonsterPosVector[dwI].x = (float)random_range(m_lLeft, m_lRight);

  00057	ff b3 80 00 00
	00		 push	 DWORD PTR [ebx+128]
  0005d	e8 00 00 00 00	 call	 ?random_range@@YAJJJ@Z	; random_range
  00062	66 0f 6e c0	 movd	 xmm0, eax
  00066	0f 5b c0	 cvtdq2ps xmm0, xmm0
  00069	f3 0f 11 04 3e	 movss	 DWORD PTR [esi+edi], xmm0

; 76   : 		m_TempMonsterPosVector[dwI].y = (float)random_range(m_lTop, m_lBottom);

  0006e	ff b3 8c 00 00
	00		 push	 DWORD PTR [ebx+140]
; File D:\Program Files\Microsoft Visual Studio\2022\Community\VC\Tools\MSVC\14.43.34808\include\vector

; 1919 :         return _My_data._Myfirst[_Pos];

  00074	8b b3 90 00 00
	00		 mov	 esi, DWORD PTR [ebx+144]
; File C:\Marty 5.5\Src-Client\Client\GameLib\MonsterAreaInfo.cpp

; 76   : 		m_TempMonsterPosVector[dwI].y = (float)random_range(m_lTop, m_lBottom);

  0007a	ff b3 88 00 00
	00		 push	 DWORD PTR [ebx+136]
  00080	e8 00 00 00 00	 call	 ?random_range@@YAJJJ@Z	; random_range
  00085	83 c4 10	 add	 esp, 16			; 00000010H
  00088	66 0f 6e c0	 movd	 xmm0, eax
  0008c	8b 45 f8	 mov	 eax, DWORD PTR _dwI$1$[ebp]
  0008f	0f 5b c0	 cvtdq2ps xmm0, xmm0
  00092	40		 inc	 eax
  00093	89 45 f8	 mov	 DWORD PTR _dwI$1$[ebp], eax
  00096	f3 0f 11 44 3e
	04		 movss	 DWORD PTR [esi+edi+4], xmm0
  0009c	3b 45 08	 cmp	 eax, DWORD PTR _dwCount$[ebp]
  0009f	72 a3		 jb	 SHORT $LL4@SetMonster
$LN3@SetMonster:
  000a1	5f		 pop	 edi

; 77   : 	}
; 78   : }

  000a2	5e		 pop	 esi
  000a3	5b		 pop	 ebx
  000a4	8b e5		 mov	 esp, ebp
  000a6	5d		 pop	 ebp
  000a7	c2 04 00	 ret	 4
?SetMonsterCount@CMonsterAreaInfo@@QAEXK@Z ENDP		; CMonsterAreaInfo::SetMonsterCount
_TEXT	ENDS
; Function compile flags: /Ogtp
; File C:\Marty 5.5\Src-Client\Client\GameLib\MonsterAreaInfo.cpp
;	COMDAT ?GetSize@CMonsterAreaInfo@@QAEXPAJ0@Z
_TEXT	SEGMENT
_plSizeX$ = 8						; size = 4
_plSizeY$ = 12						; size = 4
?GetSize@CMonsterAreaInfo@@QAEXPAJ0@Z PROC		; CMonsterAreaInfo::GetSize, COMDAT
; _this$ = ecx

; 50   : {

  00000	55		 push	 ebp
  00001	8b ec		 mov	 ebp, esp

; 51   : 	*plSizeX = m_lSizeX;

  00003	8b 45 08	 mov	 eax, DWORD PTR _plSizeX$[ebp]
  00006	8b 51 78	 mov	 edx, DWORD PTR [ecx+120]
  00009	89 10		 mov	 DWORD PTR [eax], edx

; 52   : 	*plSizeY = m_lSizeY;

  0000b	8b 45 0c	 mov	 eax, DWORD PTR _plSizeY$[ebp]
  0000e	8b 49 7c	 mov	 ecx, DWORD PTR [ecx+124]
  00011	89 08		 mov	 DWORD PTR [eax], ecx

; 53   : }

  00013	5d		 pop	 ebp
  00014	c2 08 00	 ret	 8
?GetSize@CMonsterAreaInfo@@QAEXPAJ0@Z ENDP		; CMonsterAreaInfo::GetSize
_TEXT	ENDS
; Function compile flags: /Ogtp
; File C:\Marty 5.5\Src-Client\Client\GameLib\MonsterAreaInfo.cpp
;	COMDAT ?SetSize@CMonsterAreaInfo@@QAEXJJ@Z
_TEXT	SEGMENT
_lSizeX$ = 8						; size = 4
_lSizeY$ = 12						; size = 4
?SetSize@CMonsterAreaInfo@@QAEXJJ@Z PROC		; CMonsterAreaInfo::SetSize, COMDAT
; _this$ = ecx

; 37   : {

  00000	55		 push	 ebp
  00001	8b ec		 mov	 ebp, esp

; 38   : 	m_lSizeX = lSizeX;

  00003	8b 45 08	 mov	 eax, DWORD PTR _lSizeX$[ebp]
  00006	89 41 78	 mov	 DWORD PTR [ecx+120], eax

; 39   : 	m_lSizeY = lSizeY;

  00009	8b 45 0c	 mov	 eax, DWORD PTR _lSizeY$[ebp]
  0000c	89 41 7c	 mov	 DWORD PTR [ecx+124], eax

; 40   : 	SetLRTB();

  0000f	e8 00 00 00 00	 call	 ?SetLRTB@CMonsterAreaInfo@@IAEXXZ ; CMonsterAreaInfo::SetLRTB

; 41   : }

  00014	5d		 pop	 ebp
  00015	c2 08 00	 ret	 8
?SetSize@CMonsterAreaInfo@@QAEXJJ@Z ENDP		; CMonsterAreaInfo::SetSize
_TEXT	ENDS
; Function compile flags: /Ogtp
; File C:\Marty 5.5\Src-Client\Client\GameLib\MonsterAreaInfo.cpp
;	COMDAT ?GetOrigin@CMonsterAreaInfo@@QAEXPAJ0@Z
_TEXT	SEGMENT
_plOriginX$ = 8						; size = 4
_plOriginY$ = 12					; size = 4
?GetOrigin@CMonsterAreaInfo@@QAEXPAJ0@Z PROC		; CMonsterAreaInfo::GetOrigin, COMDAT
; _this$ = ecx

; 44   : {

  00000	55		 push	 ebp
  00001	8b ec		 mov	 ebp, esp

; 45   : 	*plOriginX = m_lOriginX;

  00003	8b 45 08	 mov	 eax, DWORD PTR _plOriginX$[ebp]
  00006	8b 51 70	 mov	 edx, DWORD PTR [ecx+112]
  00009	89 10		 mov	 DWORD PTR [eax], edx

; 46   : 	*plOriginY = m_lOriginY;

  0000b	8b 45 0c	 mov	 eax, DWORD PTR _plOriginY$[ebp]
  0000e	8b 49 74	 mov	 ecx, DWORD PTR [ecx+116]
  00011	89 08		 mov	 DWORD PTR [eax], ecx

; 47   : }

  00013	5d		 pop	 ebp
  00014	c2 08 00	 ret	 8
?GetOrigin@CMonsterAreaInfo@@QAEXPAJ0@Z ENDP		; CMonsterAreaInfo::GetOrigin
_TEXT	ENDS
; Function compile flags: /Ogtp
; File C:\Marty 5.5\Src-Client\Client\GameLib\MonsterAreaInfo.cpp
;	COMDAT ?SetOrigin@CMonsterAreaInfo@@QAEXJJ@Z
_TEXT	SEGMENT
_lOriginX$ = 8						; size = 4
_lOriginY$ = 12						; size = 4
?SetOrigin@CMonsterAreaInfo@@QAEXJJ@Z PROC		; CMonsterAreaInfo::SetOrigin, COMDAT
; _this$ = ecx

; 30   : {

  00000	55		 push	 ebp
  00001	8b ec		 mov	 ebp, esp

; 31   : 	m_lOriginX = lOriginX;

  00003	8b 45 08	 mov	 eax, DWORD PTR _lOriginX$[ebp]
  00006	89 41 70	 mov	 DWORD PTR [ecx+112], eax

; 32   : 	m_lOriginY = lOriginY;

  00009	8b 45 0c	 mov	 eax, DWORD PTR _lOriginY$[ebp]
  0000c	89 41 74	 mov	 DWORD PTR [ecx+116], eax

; 33   : 	SetLRTB();

  0000f	e8 00 00 00 00	 call	 ?SetLRTB@CMonsterAreaInfo@@IAEXXZ ; CMonsterAreaInfo::SetLRTB

; 34   : }

  00014	5d		 pop	 ebp
  00015	c2 08 00	 ret	 8
?SetOrigin@CMonsterAreaInfo@@QAEXJJ@Z ENDP		; CMonsterAreaInfo::SetOrigin
_TEXT	ENDS
; Function compile flags: /Ogtp
; File C:\Marty 5.5\Src-Client\Client\GameLib\MonsterAreaInfo.cpp
;	COMDAT ?Clear@CMonsterAreaInfo@@QAEXXZ
_TEXT	SEGMENT
?Clear@CMonsterAreaInfo@@QAEXXZ PROC			; CMonsterAreaInfo::Clear, COMDAT
; _this$ = ecx

; 23   : {

  00000	56		 push	 esi

; 24   : 	SetOrigin(-1, -1);

  00001	6a ff		 push	 -1
  00003	6a ff		 push	 -1
  00005	8b f1		 mov	 esi, ecx
  00007	e8 00 00 00 00	 call	 ?SetOrigin@CMonsterAreaInfo@@QAEXJJ@Z ; CMonsterAreaInfo::SetOrigin

; 25   : 	SetSize(-1, -1);

  0000c	6a ff		 push	 -1
  0000e	6a ff		 push	 -1
  00010	8b ce		 mov	 ecx, esi
  00012	e8 00 00 00 00	 call	 ?SetSize@CMonsterAreaInfo@@QAEXJJ@Z ; CMonsterAreaInfo::SetSize

; 26   : 	RemoveAllMonsters();

  00017	8b ce		 mov	 ecx, esi
  00019	5e		 pop	 esi
  0001a	e9 00 00 00 00	 jmp	 ?RemoveAllMonsters@CMonsterAreaInfo@@QAEXXZ ; CMonsterAreaInfo::RemoveAllMonsters
?Clear@CMonsterAreaInfo@@QAEXXZ ENDP			; CMonsterAreaInfo::Clear
_TEXT	ENDS
; Function compile flags: /Ogtp
; File C:\Marty 5.5\Src-Client\Client\GameLib\MonsterAreaInfo.cpp
; File D:\Program Files\Microsoft Visual Studio\2022\Community\VC\Tools\MSVC\14.43.34808\include\vector
; File D:\Program Files\Microsoft Visual Studio\2022\Community\VC\Tools\MSVC\14.43.34808\include\xmemory
; File D:\Program Files\Microsoft Visual Studio\2022\Community\VC\Tools\MSVC\14.43.34808\include\vector
; File D:\Program Files\Microsoft Visual Studio\2022\Community\VC\Tools\MSVC\14.43.34808\include\xmemory
; File D:\Program Files\Microsoft Visual Studio\2022\Community\VC\Tools\MSVC\14.43.34808\include\vector
; File D:\Program Files\Microsoft Visual Studio\2022\Community\VC\Tools\MSVC\14.43.34808\include\xstring
; File D:\Program Files\Microsoft Visual Studio\2022\Community\VC\Tools\MSVC\14.43.34808\include\xmemory
; File D:\Program Files\Microsoft Visual Studio\2022\Community\VC\Tools\MSVC\14.43.34808\include\xstring
; File D:\Program Files\Microsoft Visual Studio\2022\Community\VC\Tools\MSVC\14.43.34808\include\xmemory
; File D:\Program Files\Microsoft Visual Studio\2022\Community\VC\Tools\MSVC\14.43.34808\include\xstring
; File D:\Program Files\Microsoft Visual Studio\2022\Community\VC\Tools\MSVC\14.43.34808\include\xmemory
; File D:\Program Files\Microsoft Visual Studio\2022\Community\VC\Tools\MSVC\14.43.34808\include\xstring
; File D:\Program Files\Microsoft Visual Studio\2022\Community\VC\Tools\MSVC\14.43.34808\include\xmemory
; File D:\Program Files\Microsoft Visual Studio\2022\Community\VC\Tools\MSVC\14.43.34808\include\xstring
; File D:\Program Files\Microsoft Visual Studio\2022\Community\VC\Tools\MSVC\14.43.34808\include\xmemory
; File D:\Program Files\Microsoft Visual Studio\2022\Community\VC\Tools\MSVC\14.43.34808\include\xstring
; File D:\Program Files\Microsoft Visual Studio\2022\Community\VC\Tools\MSVC\14.43.34808\include\xmemory
; File D:\Program Files\Microsoft Visual Studio\2022\Community\VC\Tools\MSVC\14.43.34808\include\xstring
; File C:\Marty 5.5\Src-Client\Client\GameLib\MonsterAreaInfo.cpp
; File D:\Program Files\Microsoft Visual Studio\2022\Community\VC\Tools\MSVC\14.43.34808\include\xmemory
; File C:\Marty 5.5\Src-Client\Client\GameLib\MonsterAreaInfo.cpp
;	COMDAT ??1CMonsterAreaInfo@@UAE@XZ
_TEXT	SEGMENT
__$EHRec$ = -12						; size = 12
??1CMonsterAreaInfo@@UAE@XZ PROC			; CMonsterAreaInfo::~CMonsterAreaInfo, COMDAT
; _this$ = ecx

; 18   : {

  00000	55		 push	 ebp
  00001	8b ec		 mov	 ebp, esp
  00003	6a ff		 push	 -1
  00005	68 00 00 00 00	 push	 __ehhandler$??1CMonsterAreaInfo@@UAE@XZ
  0000a	64 a1 00 00 00
	00		 mov	 eax, DWORD PTR fs:0
  00010	50		 push	 eax
  00011	56		 push	 esi
  00012	a1 00 00 00 00	 mov	 eax, DWORD PTR ___security_cookie
  00017	33 c5		 xor	 eax, ebp
  00019	50		 push	 eax
  0001a	8d 45 f4	 lea	 eax, DWORD PTR __$EHRec$[ebp]
  0001d	64 a3 00 00 00
	00		 mov	 DWORD PTR fs:0, eax
  00023	8b f1		 mov	 esi, ecx
  00025	c7 06 00 00 00
	00		 mov	 DWORD PTR [esi], OFFSET ??_7CMonsterAreaInfo@@6B@

; 19   : 	Clear();

  0002b	e8 00 00 00 00	 call	 ?Clear@CMonsterAreaInfo@@QAEXXZ ; CMonsterAreaInfo::Clear
; File D:\Program Files\Microsoft Visual Studio\2022\Community\VC\Tools\MSVC\14.43.34808\include\vector

; 2075 :         if (_Myfirst) { // destroy and deallocate old array

  00030	8b 86 90 00 00
	00		 mov	 eax, DWORD PTR [esi+144]
  00036	85 c0		 test	 eax, eax
  00038	74 51		 je	 SHORT $LN8@CMonsterAr

; 2076 :             _STD _Destroy_range(_Myfirst, _Mylast, _Al);
; 2077 :             _ASAN_VECTOR_REMOVE;
; 2078 :             _Al.deallocate(_Myfirst, static_cast<size_type>(_Myend - _Myfirst));

  0003a	8b 8e 98 00 00
	00		 mov	 ecx, DWORD PTR [esi+152]
  00040	2b c8		 sub	 ecx, eax
; File D:\Program Files\Microsoft Visual Studio\2022\Community\VC\Tools\MSVC\14.43.34808\include\xmemory

; 981  :         _STD _Deallocate<_New_alignof<_Ty>>(_Ptr, sizeof(_Ty) * _Count);

  00042	83 e1 f8	 and	 ecx, -8			; fffffff8H

; 284  :         if (_Bytes >= _Big_allocation_threshold) {

  00045	81 f9 00 10 00
	00		 cmp	 ecx, 4096		; 00001000H
  0004b	72 16		 jb	 SHORT $LN27@CMonsterAr

; 205  :     const uintptr_t _Ptr_container   = _Ptr_user[-1];

  0004d	8b 50 fc	 mov	 edx, DWORD PTR [eax-4]
  00050	83 c1 23	 add	 ecx, 35			; 00000023H

; 206  : 
; 207  :     // If the following asserts, it likely means that we are performing
; 208  :     // an aligned delete on memory coming from an unaligned allocation.
; 209  :     _STL_ASSERT(_Ptr_user[-2] == _Big_allocation_sentinel, "invalid argument");
; 210  : 
; 211  :     // Extra paranoia on aligned allocation/deallocation; ensure _Ptr_container is
; 212  :     // in range [_Min_back_shift, _Non_user_size]
; 213  : #ifdef _DEBUG
; 214  :     constexpr uintptr_t _Min_back_shift = 2 * sizeof(void*);
; 215  : #else // ^^^ defined(_DEBUG) / !defined(_DEBUG) vvv
; 216  :     constexpr uintptr_t _Min_back_shift = sizeof(void*);
; 217  : #endif // ^^^ !defined(_DEBUG) ^^^
; 218  :     const uintptr_t _Back_shift = reinterpret_cast<uintptr_t>(_Ptr) - _Ptr_container;

  00053	2b c2		 sub	 eax, edx

; 219  :     _STL_VERIFY(_Back_shift >= _Min_back_shift && _Back_shift <= _Non_user_size, "invalid argument");

  00055	83 c0 fc	 add	 eax, -4			; fffffffcH
  00058	83 f8 1f	 cmp	 eax, 31			; 0000001fH
  0005b	0f 87 04 01 00
	00		 ja	 $LN135@CMonsterAr

; 220  :     _Ptr = reinterpret_cast<void*>(_Ptr_container);

  00061	8b c2		 mov	 eax, edx
$LN27@CMonsterAr:

; 289  :         ::operator delete(_Ptr, _Bytes);

  00063	51		 push	 ecx
  00064	50		 push	 eax
  00065	e8 00 00 00 00	 call	 ??3@YAXPAXI@Z		; operator delete
; File D:\Program Files\Microsoft Visual Studio\2022\Community\VC\Tools\MSVC\14.43.34808\include\vector

; 2080 :             _Myfirst = nullptr;

  0006a	c7 86 90 00 00
	00 00 00 00 00	 mov	 DWORD PTR [esi+144], 0
; File D:\Program Files\Microsoft Visual Studio\2022\Community\VC\Tools\MSVC\14.43.34808\include\xmemory

; 289  :         ::operator delete(_Ptr, _Bytes);

  00074	83 c4 08	 add	 esp, 8
; File D:\Program Files\Microsoft Visual Studio\2022\Community\VC\Tools\MSVC\14.43.34808\include\vector

; 2081 :             _Mylast  = nullptr;

  00077	c7 86 94 00 00
	00 00 00 00 00	 mov	 DWORD PTR [esi+148], 0

; 2082 :             _Myend   = nullptr;

  00081	c7 86 98 00 00
	00 00 00 00 00	 mov	 DWORD PTR [esi+152], 0
$LN8@CMonsterAr:
; File D:\Program Files\Microsoft Visual Studio\2022\Community\VC\Tools\MSVC\14.43.34808\include\xstring

; 434  :         return _Myres > _Small_string_capacity;

  0008b	8b 4e 58	 mov	 ecx, DWORD PTR [esi+88]
  0008e	83 f9 0f	 cmp	 ecx, 15			; 0000000fH

; 3047 :         if (_My_data._Large_mode_engaged()) {

  00091	76 2c		 jbe	 SHORT $LN53@CMonsterAr
; File D:\Program Files\Microsoft Visual Studio\2022\Community\VC\Tools\MSVC\14.43.34808\include\xmemory

; 981  :         _STD _Deallocate<_New_alignof<_Ty>>(_Ptr, sizeof(_Ty) * _Count);

  00093	8b 46 44	 mov	 eax, DWORD PTR [esi+68]
; File D:\Program Files\Microsoft Visual Studio\2022\Community\VC\Tools\MSVC\14.43.34808\include\xstring

; 828  :         _Al.deallocate(_Old_ptr, _Capacity + 1); // +1 for null terminator

  00096	41		 inc	 ecx
; File D:\Program Files\Microsoft Visual Studio\2022\Community\VC\Tools\MSVC\14.43.34808\include\xmemory

; 284  :         if (_Bytes >= _Big_allocation_threshold) {

  00097	81 f9 00 10 00
	00		 cmp	 ecx, 4096		; 00001000H
  0009d	72 16		 jb	 SHORT $LN64@CMonsterAr

; 205  :     const uintptr_t _Ptr_container   = _Ptr_user[-1];

  0009f	8b 50 fc	 mov	 edx, DWORD PTR [eax-4]
  000a2	83 c1 23	 add	 ecx, 35			; 00000023H

; 206  : 
; 207  :     // If the following asserts, it likely means that we are performing
; 208  :     // an aligned delete on memory coming from an unaligned allocation.
; 209  :     _STL_ASSERT(_Ptr_user[-2] == _Big_allocation_sentinel, "invalid argument");
; 210  : 
; 211  :     // Extra paranoia on aligned allocation/deallocation; ensure _Ptr_container is
; 212  :     // in range [_Min_back_shift, _Non_user_size]
; 213  : #ifdef _DEBUG
; 214  :     constexpr uintptr_t _Min_back_shift = 2 * sizeof(void*);
; 215  : #else // ^^^ defined(_DEBUG) / !defined(_DEBUG) vvv
; 216  :     constexpr uintptr_t _Min_back_shift = sizeof(void*);
; 217  : #endif // ^^^ !defined(_DEBUG) ^^^
; 218  :     const uintptr_t _Back_shift = reinterpret_cast<uintptr_t>(_Ptr) - _Ptr_container;

  000a5	2b c2		 sub	 eax, edx

; 219  :     _STL_VERIFY(_Back_shift >= _Min_back_shift && _Back_shift <= _Non_user_size, "invalid argument");

  000a7	83 c0 fc	 add	 eax, -4			; fffffffcH
  000aa	83 f8 1f	 cmp	 eax, 31			; 0000001fH
  000ad	0f 87 b2 00 00
	00		 ja	 $LN135@CMonsterAr

; 220  :     _Ptr = reinterpret_cast<void*>(_Ptr_container);

  000b3	8b c2		 mov	 eax, edx
$LN64@CMonsterAr:

; 289  :         ::operator delete(_Ptr, _Bytes);

  000b5	51		 push	 ecx
  000b6	50		 push	 eax
  000b7	e8 00 00 00 00	 call	 ??3@YAXPAXI@Z		; operator delete
  000bc	83 c4 08	 add	 esp, 8
$LN53@CMonsterAr:
; File D:\Program Files\Microsoft Visual Studio\2022\Community\VC\Tools\MSVC\14.43.34808\include\xstring

; 3054 :         _My_data._Mysize = 0;

  000bf	c7 46 54 00 00
	00 00		 mov	 DWORD PTR [esi+84], 0

; 3055 :         _My_data._Myres  = _Small_string_capacity;

  000c6	c7 46 58 0f 00
	00 00		 mov	 DWORD PTR [esi+88], 15	; 0000000fH

; 3056 :         // the _Traits::assign is last so the codegen doesn't think the char write can alias this
; 3057 :         _Traits::assign(_My_data._Bx._Buf[0], _Elem());

  000cd	c6 46 44 00	 mov	 BYTE PTR [esi+68], 0

; 434  :         return _Myres > _Small_string_capacity;

  000d1	8b 4e 38	 mov	 ecx, DWORD PTR [esi+56]
  000d4	83 f9 0f	 cmp	 ecx, 15			; 0000000fH

; 3047 :         if (_My_data._Large_mode_engaged()) {

  000d7	76 28		 jbe	 SHORT $LN90@CMonsterAr
; File D:\Program Files\Microsoft Visual Studio\2022\Community\VC\Tools\MSVC\14.43.34808\include\xmemory

; 981  :         _STD _Deallocate<_New_alignof<_Ty>>(_Ptr, sizeof(_Ty) * _Count);

  000d9	8b 46 24	 mov	 eax, DWORD PTR [esi+36]
; File D:\Program Files\Microsoft Visual Studio\2022\Community\VC\Tools\MSVC\14.43.34808\include\xstring

; 828  :         _Al.deallocate(_Old_ptr, _Capacity + 1); // +1 for null terminator

  000dc	41		 inc	 ecx
; File D:\Program Files\Microsoft Visual Studio\2022\Community\VC\Tools\MSVC\14.43.34808\include\xmemory

; 284  :         if (_Bytes >= _Big_allocation_threshold) {

  000dd	81 f9 00 10 00
	00		 cmp	 ecx, 4096		; 00001000H
  000e3	72 12		 jb	 SHORT $LN101@CMonsterAr

; 205  :     const uintptr_t _Ptr_container   = _Ptr_user[-1];

  000e5	8b 50 fc	 mov	 edx, DWORD PTR [eax-4]
  000e8	83 c1 23	 add	 ecx, 35			; 00000023H

; 206  : 
; 207  :     // If the following asserts, it likely means that we are performing
; 208  :     // an aligned delete on memory coming from an unaligned allocation.
; 209  :     _STL_ASSERT(_Ptr_user[-2] == _Big_allocation_sentinel, "invalid argument");
; 210  : 
; 211  :     // Extra paranoia on aligned allocation/deallocation; ensure _Ptr_container is
; 212  :     // in range [_Min_back_shift, _Non_user_size]
; 213  : #ifdef _DEBUG
; 214  :     constexpr uintptr_t _Min_back_shift = 2 * sizeof(void*);
; 215  : #else // ^^^ defined(_DEBUG) / !defined(_DEBUG) vvv
; 216  :     constexpr uintptr_t _Min_back_shift = sizeof(void*);
; 217  : #endif // ^^^ !defined(_DEBUG) ^^^
; 218  :     const uintptr_t _Back_shift = reinterpret_cast<uintptr_t>(_Ptr) - _Ptr_container;

  000eb	2b c2		 sub	 eax, edx

; 219  :     _STL_VERIFY(_Back_shift >= _Min_back_shift && _Back_shift <= _Non_user_size, "invalid argument");

  000ed	83 c0 fc	 add	 eax, -4			; fffffffcH
  000f0	83 f8 1f	 cmp	 eax, 31			; 0000001fH
  000f3	77 70		 ja	 SHORT $LN135@CMonsterAr

; 220  :     _Ptr = reinterpret_cast<void*>(_Ptr_container);

  000f5	8b c2		 mov	 eax, edx
$LN101@CMonsterAr:

; 289  :         ::operator delete(_Ptr, _Bytes);

  000f7	51		 push	 ecx
  000f8	50		 push	 eax
  000f9	e8 00 00 00 00	 call	 ??3@YAXPAXI@Z		; operator delete
  000fe	83 c4 08	 add	 esp, 8
$LN90@CMonsterAr:
; File D:\Program Files\Microsoft Visual Studio\2022\Community\VC\Tools\MSVC\14.43.34808\include\xstring

; 3054 :         _My_data._Mysize = 0;

  00101	c7 46 34 00 00
	00 00		 mov	 DWORD PTR [esi+52], 0

; 3055 :         _My_data._Myres  = _Small_string_capacity;

  00108	c7 46 38 0f 00
	00 00		 mov	 DWORD PTR [esi+56], 15	; 0000000fH

; 3056 :         // the _Traits::assign is last so the codegen doesn't think the char write can alias this
; 3057 :         _Traits::assign(_My_data._Bx._Buf[0], _Elem());

  0010f	c6 46 24 00	 mov	 BYTE PTR [esi+36], 0

; 434  :         return _Myres > _Small_string_capacity;

  00113	8b 4e 20	 mov	 ecx, DWORD PTR [esi+32]
  00116	83 f9 0f	 cmp	 ecx, 15			; 0000000fH

; 3047 :         if (_My_data._Large_mode_engaged()) {

  00119	76 28		 jbe	 SHORT $LN127@CMonsterAr
; File D:\Program Files\Microsoft Visual Studio\2022\Community\VC\Tools\MSVC\14.43.34808\include\xmemory

; 981  :         _STD _Deallocate<_New_alignof<_Ty>>(_Ptr, sizeof(_Ty) * _Count);

  0011b	8b 46 0c	 mov	 eax, DWORD PTR [esi+12]
; File D:\Program Files\Microsoft Visual Studio\2022\Community\VC\Tools\MSVC\14.43.34808\include\xstring

; 828  :         _Al.deallocate(_Old_ptr, _Capacity + 1); // +1 for null terminator

  0011e	41		 inc	 ecx
; File D:\Program Files\Microsoft Visual Studio\2022\Community\VC\Tools\MSVC\14.43.34808\include\xmemory

; 284  :         if (_Bytes >= _Big_allocation_threshold) {

  0011f	81 f9 00 10 00
	00		 cmp	 ecx, 4096		; 00001000H
  00125	72 12		 jb	 SHORT $LN138@CMonsterAr

; 205  :     const uintptr_t _Ptr_container   = _Ptr_user[-1];

  00127	8b 50 fc	 mov	 edx, DWORD PTR [eax-4]
  0012a	83 c1 23	 add	 ecx, 35			; 00000023H

; 206  : 
; 207  :     // If the following asserts, it likely means that we are performing
; 208  :     // an aligned delete on memory coming from an unaligned allocation.
; 209  :     _STL_ASSERT(_Ptr_user[-2] == _Big_allocation_sentinel, "invalid argument");
; 210  : 
; 211  :     // Extra paranoia on aligned allocation/deallocation; ensure _Ptr_container is
; 212  :     // in range [_Min_back_shift, _Non_user_size]
; 213  : #ifdef _DEBUG
; 214  :     constexpr uintptr_t _Min_back_shift = 2 * sizeof(void*);
; 215  : #else // ^^^ defined(_DEBUG) / !defined(_DEBUG) vvv
; 216  :     constexpr uintptr_t _Min_back_shift = sizeof(void*);
; 217  : #endif // ^^^ !defined(_DEBUG) ^^^
; 218  :     const uintptr_t _Back_shift = reinterpret_cast<uintptr_t>(_Ptr) - _Ptr_container;

  0012d	2b c2		 sub	 eax, edx

; 219  :     _STL_VERIFY(_Back_shift >= _Min_back_shift && _Back_shift <= _Non_user_size, "invalid argument");

  0012f	83 c0 fc	 add	 eax, -4			; fffffffcH
  00132	83 f8 1f	 cmp	 eax, 31			; 0000001fH
  00135	77 2e		 ja	 SHORT $LN135@CMonsterAr

; 220  :     _Ptr = reinterpret_cast<void*>(_Ptr_container);

  00137	8b c2		 mov	 eax, edx
$LN138@CMonsterAr:

; 289  :         ::operator delete(_Ptr, _Bytes);

  00139	51		 push	 ecx
  0013a	50		 push	 eax
  0013b	e8 00 00 00 00	 call	 ??3@YAXPAXI@Z		; operator delete
  00140	83 c4 08	 add	 esp, 8
$LN127@CMonsterAr:
; File D:\Program Files\Microsoft Visual Studio\2022\Community\VC\Tools\MSVC\14.43.34808\include\xstring

; 3054 :         _My_data._Mysize = 0;

  00143	c7 46 1c 00 00
	00 00		 mov	 DWORD PTR [esi+28], 0

; 3055 :         _My_data._Myres  = _Small_string_capacity;

  0014a	c7 46 20 0f 00
	00 00		 mov	 DWORD PTR [esi+32], 15	; 0000000fH

; 3056 :         // the _Traits::assign is last so the codegen doesn't think the char write can alias this
; 3057 :         _Traits::assign(_My_data._Bx._Buf[0], _Elem());

  00151	c6 46 0c 00	 mov	 BYTE PTR [esi+12], 0
; File C:\Marty 5.5\Src-Client\Client\GameLib\MonsterAreaInfo.cpp

; 20   : }

  00155	8b 4d f4	 mov	 ecx, DWORD PTR __$EHRec$[ebp]
  00158	64 89 0d 00 00
	00 00		 mov	 DWORD PTR fs:0, ecx
  0015f	59		 pop	 ecx
  00160	5e		 pop	 esi
  00161	8b e5		 mov	 esp, ebp
  00163	5d		 pop	 ebp
  00164	c3		 ret	 0
$LN135@CMonsterAr:
; File D:\Program Files\Microsoft Visual Studio\2022\Community\VC\Tools\MSVC\14.43.34808\include\xmemory

; 219  :     _STL_VERIFY(_Back_shift >= _Min_back_shift && _Back_shift <= _Non_user_size, "invalid argument");

  00165	e8 00 00 00 00	 call	 __invalid_parameter_noinfo_noreturn
$LN145@CMonsterAr:
  0016a	cc		 int	 3
  0016b	cc		 int	 3
  0016c	cc		 int	 3
  0016d	cc		 int	 3
  0016e	cc		 int	 3
  0016f	cc		 int	 3
_TEXT	ENDS
;	COMDAT text$x
text$x	SEGMENT
__ehhandler$??1CMonsterAreaInfo@@UAE@XZ:
  00000	90		 npad	 1
  00001	90		 npad	 1
  00002	8b 54 24 08	 mov	 edx, DWORD PTR [esp+8]
  00006	8d 42 0c	 lea	 eax, DWORD PTR [edx+12]
  00009	8b 4a f8	 mov	 ecx, DWORD PTR [edx-8]
  0000c	33 c8		 xor	 ecx, eax
  0000e	e8 00 00 00 00	 call	 @__security_check_cookie@4
  00013	b8 00 00 00 00	 mov	 eax, OFFSET __ehfuncinfo$??1CMonsterAreaInfo@@UAE@XZ
  00018	e9 00 00 00 00	 jmp	 ___CxxFrameHandler3
text$x	ENDS
??1CMonsterAreaInfo@@UAE@XZ ENDP			; CMonsterAreaInfo::~CMonsterAreaInfo
; Function compile flags: /Ogtp
; File C:\Marty 5.5\Src-Client\Client\GameLib\MonsterAreaInfo.cpp
; File D:\Program Files\Microsoft Visual Studio\2022\Community\VC\Tools\MSVC\14.43.34808\include\xstring
; File C:\Marty 5.5\Src-Client\Client\GameLib\MonsterAreaInfo.cpp
; File D:\Program Files\Microsoft Visual Studio\2022\Community\VC\Tools\MSVC\14.43.34808\include\xstring
; File D:\Program Files\Microsoft Visual Studio\2022\Community\VC\Tools\MSVC\14.43.34808\include\vector
; File C:\Marty 5.5\Src-Client\Client\GameLib\MonsterAreaInfo.cpp
;	COMDAT ??0CMonsterAreaInfo@@QAE@XZ
_TEXT	SEGMENT
_this$ = -16						; size = 4
__$EHRec$ = -12						; size = 12
??0CMonsterAreaInfo@@QAE@XZ PROC			; CMonsterAreaInfo::CMonsterAreaInfo, COMDAT
; _this$ = ecx

; 13   : {

  00000	55		 push	 ebp
  00001	8b ec		 mov	 ebp, esp
  00003	6a ff		 push	 -1
  00005	68 00 00 00 00	 push	 __ehhandler$??0CMonsterAreaInfo@@QAE@XZ
  0000a	64 a1 00 00 00
	00		 mov	 eax, DWORD PTR fs:0
  00010	50		 push	 eax
  00011	51		 push	 ecx
  00012	56		 push	 esi
  00013	a1 00 00 00 00	 mov	 eax, DWORD PTR ___security_cookie
  00018	33 c5		 xor	 eax, ebp
  0001a	50		 push	 eax
  0001b	8d 45 f4	 lea	 eax, DWORD PTR __$EHRec$[ebp]
  0001e	64 a3 00 00 00
	00		 mov	 DWORD PTR fs:0, eax
  00024	8b f1		 mov	 esi, ecx
  00026	89 75 f0	 mov	 DWORD PTR _this$[ebp], esi
  00029	c7 06 00 00 00
	00		 mov	 DWORD PTR [esi], OFFSET ??_7CMonsterAreaInfo@@6B@
  0002f	0f 57 c0	 xorps	 xmm0, xmm0
; File D:\Program Files\Microsoft Visual Studio\2022\Community\VC\Tools\MSVC\14.43.34808\include\xstring

; 474  :         _CONSTEXPR20 _Bxty() noexcept : _Buf() {} // user-provided, for fancy pointers

  00032	0f 11 46 0c	 movups	 XMMWORD PTR [esi+12], xmm0

; 836  :         _My_data._Mysize = 0;

  00036	c7 46 1c 00 00
	00 00		 mov	 DWORD PTR [esi+28], 0

; 837  :         _My_data._Myres  = _Small_string_capacity;

  0003d	c7 46 20 0f 00
	00 00		 mov	 DWORD PTR [esi+32], 15	; 0000000fH

; 841  :         _Traits::assign(_My_data._Bx._Buf[0], _Elem());

  00044	c6 46 0c 00	 mov	 BYTE PTR [esi+12], 0

; 474  :         _CONSTEXPR20 _Bxty() noexcept : _Buf() {} // user-provided, for fancy pointers

  00048	0f 11 46 24	 movups	 XMMWORD PTR [esi+36], xmm0

; 836  :         _My_data._Mysize = 0;

  0004c	c7 46 34 00 00
	00 00		 mov	 DWORD PTR [esi+52], 0

; 837  :         _My_data._Myres  = _Small_string_capacity;

  00053	c7 46 38 0f 00
	00 00		 mov	 DWORD PTR [esi+56], 15	; 0000000fH
; File C:\Marty 5.5\Src-Client\Client\GameLib\MonsterAreaInfo.cpp

; 13   : {

  0005a	c7 45 fc 00 00
	00 00		 mov	 DWORD PTR __$EHRec$[ebp+8], 0
; File D:\Program Files\Microsoft Visual Studio\2022\Community\VC\Tools\MSVC\14.43.34808\include\xstring

; 841  :         _Traits::assign(_My_data._Bx._Buf[0], _Elem());

  00061	c6 46 24 00	 mov	 BYTE PTR [esi+36], 0

; 474  :         _CONSTEXPR20 _Bxty() noexcept : _Buf() {} // user-provided, for fancy pointers

  00065	0f 11 46 44	 movups	 XMMWORD PTR [esi+68], xmm0

; 836  :         _My_data._Mysize = 0;

  00069	c7 46 54 00 00
	00 00		 mov	 DWORD PTR [esi+84], 0

; 837  :         _My_data._Myres  = _Small_string_capacity;

  00070	c7 46 58 0f 00
	00 00		 mov	 DWORD PTR [esi+88], 15	; 0000000fH

; 841  :         _Traits::assign(_My_data._Bx._Buf[0], _Elem());

  00077	c6 46 44 00	 mov	 BYTE PTR [esi+68], 0
; File D:\Program Files\Microsoft Visual Studio\2022\Community\VC\Tools\MSVC\14.43.34808\include\vector

; 400  :     _CONSTEXPR20 _Vector_val() noexcept : _Myfirst(), _Mylast(), _Myend() {}

  0007b	c7 86 90 00 00
	00 00 00 00 00	 mov	 DWORD PTR [esi+144], 0
  00085	c7 86 94 00 00
	00 00 00 00 00	 mov	 DWORD PTR [esi+148], 0
  0008f	c7 86 98 00 00
	00 00 00 00 00	 mov	 DWORD PTR [esi+152], 0
; File C:\Marty 5.5\Src-Client\Client\GameLib\MonsterAreaInfo.cpp

; 13   : {

  00099	c6 45 fc 03	 mov	 BYTE PTR __$EHRec$[ebp+8], 3

; 14   : 	Clear();

  0009d	e8 00 00 00 00	 call	 ?Clear@CMonsterAreaInfo@@QAEXXZ ; CMonsterAreaInfo::Clear

; 15   : }

  000a2	8b c6		 mov	 eax, esi
  000a4	8b 4d f4	 mov	 ecx, DWORD PTR __$EHRec$[ebp]
  000a7	64 89 0d 00 00
	00 00		 mov	 DWORD PTR fs:0, ecx
  000ae	59		 pop	 ecx
  000af	5e		 pop	 esi
  000b0	8b e5		 mov	 esp, ebp
  000b2	5d		 pop	 ebp
  000b3	c3		 ret	 0
_TEXT	ENDS
;	COMDAT text$x
text$x	SEGMENT
__unwindfunclet$??0CMonsterAreaInfo@@QAE@XZ$0:
  00000	8b 4d f0	 mov	 ecx, DWORD PTR _this$[ebp]
  00003	83 c1 0c	 add	 ecx, 12			; 0000000cH
  00006	e9 00 00 00 00	 jmp	 ??1?$basic_string@DU?$char_traits@D@std@@V?$allocator@D@2@@std@@QAE@XZ ; std::basic_string<char,std::char_traits<char>,std::allocator<char> >::~basic_string<char,std::char_traits<char>,std::allocator<char> >
__unwindfunclet$??0CMonsterAreaInfo@@QAE@XZ$1:
  0000b	8b 4d f0	 mov	 ecx, DWORD PTR _this$[ebp]
  0000e	83 c1 24	 add	 ecx, 36			; 00000024H
  00011	e9 00 00 00 00	 jmp	 ??1?$basic_string@DU?$char_traits@D@std@@V?$allocator@D@2@@std@@QAE@XZ ; std::basic_string<char,std::char_traits<char>,std::allocator<char> >::~basic_string<char,std::char_traits<char>,std::allocator<char> >
__unwindfunclet$??0CMonsterAreaInfo@@QAE@XZ$2:
  00016	8b 4d f0	 mov	 ecx, DWORD PTR _this$[ebp]
  00019	83 c1 44	 add	 ecx, 68			; 00000044H
  0001c	e9 00 00 00 00	 jmp	 ??1?$basic_string@DU?$char_traits@D@std@@V?$allocator@D@2@@std@@QAE@XZ ; std::basic_string<char,std::char_traits<char>,std::allocator<char> >::~basic_string<char,std::char_traits<char>,std::allocator<char> >
__unwindfunclet$??0CMonsterAreaInfo@@QAE@XZ$3:
  00021	8b 4d f0	 mov	 ecx, DWORD PTR _this$[ebp]
  00024	81 c1 90 00 00
	00		 add	 ecx, 144		; 00000090H
  0002a	e9 00 00 00 00	 jmp	 ??1?$vector@UD3DXVECTOR2@@V?$allocator@UD3DXVECTOR2@@@std@@@std@@QAE@XZ ; std::vector<D3DXVECTOR2,std::allocator<D3DXVECTOR2> >::~vector<D3DXVECTOR2,std::allocator<D3DXVECTOR2> >
  0002f	cc		 int	 3
  00030	cc		 int	 3
  00031	cc		 int	 3
  00032	cc		 int	 3
  00033	cc		 int	 3
__ehhandler$??0CMonsterAreaInfo@@QAE@XZ:
  00034	90		 npad	 1
  00035	90		 npad	 1
  00036	8b 54 24 08	 mov	 edx, DWORD PTR [esp+8]
  0003a	8d 42 0c	 lea	 eax, DWORD PTR [edx+12]
  0003d	8b 4a f4	 mov	 ecx, DWORD PTR [edx-12]
  00040	33 c8		 xor	 ecx, eax
  00042	e8 00 00 00 00	 call	 @__security_check_cookie@4
  00047	b8 00 00 00 00	 mov	 eax, OFFSET __ehfuncinfo$??0CMonsterAreaInfo@@QAE@XZ
  0004c	e9 00 00 00 00	 jmp	 ___CxxFrameHandler3
text$x	ENDS
??0CMonsterAreaInfo@@QAE@XZ ENDP			; CMonsterAreaInfo::CMonsterAreaInfo
; Function compile flags: /Ogtp
; File D:\Program Files\Microsoft Visual Studio\2022\Community\VC\Tools\MSVC\14.43.34808\include\xmemory
;	COMDAT ??$_Allocate_manually_vector_aligned@U_Default_allocate_traits@std@@@std@@YAPAXI@Z
_TEXT	SEGMENT
__Bytes$ = 8						; size = 4
??$_Allocate_manually_vector_aligned@U_Default_allocate_traits@std@@@std@@YAPAXI@Z PROC ; std::_Allocate_manually_vector_aligned<std::_Default_allocate_traits>, COMDAT

; 182  : __declspec(allocator) void* _Allocate_manually_vector_aligned(const size_t _Bytes) {

  00000	55		 push	 ebp
  00001	8b ec		 mov	 ebp, esp

; 183  :     // allocate _Bytes manually aligned to at least _Big_allocation_alignment
; 184  :     const size_t _Block_size = _Non_user_size + _Bytes;

  00003	8b 45 08	 mov	 eax, DWORD PTR __Bytes$[ebp]
  00006	8d 48 23	 lea	 ecx, DWORD PTR [eax+35]

; 185  :     if (_Block_size <= _Bytes) {

  00009	3b c8		 cmp	 ecx, eax
  0000b	0f 86 00 00 00
	00		 jbe	 ?_Throw_bad_array_new_length@std@@YAXXZ ; std::_Throw_bad_array_new_length

; 136  :         return ::operator new(_Bytes);

  00011	51		 push	 ecx
  00012	e8 00 00 00 00	 call	 ??2@YAPAXI@Z		; operator new

; 186  :         _Throw_bad_array_new_length(); // add overflow
; 187  :     }
; 188  : 
; 189  :     const uintptr_t _Ptr_container = reinterpret_cast<uintptr_t>(_Traits::_Allocate(_Block_size));

  00017	8b c8		 mov	 ecx, eax

; 136  :         return ::operator new(_Bytes);

  00019	83 c4 04	 add	 esp, 4

; 190  :     _STL_VERIFY(_Ptr_container != 0, "invalid argument"); // validate even in release since we're doing p[-1]

  0001c	85 c9		 test	 ecx, ecx
  0001e	74 0b		 je	 SHORT $LN7@Allocate_m

; 191  :     void* const _Ptr = reinterpret_cast<void*>((_Ptr_container + _Non_user_size) & ~(_Big_allocation_alignment - 1));

  00020	8d 41 23	 lea	 eax, DWORD PTR [ecx+35]
  00023	83 e0 e0	 and	 eax, -32		; ffffffe0H

; 192  :     static_cast<uintptr_t*>(_Ptr)[-1] = _Ptr_container;

  00026	89 48 fc	 mov	 DWORD PTR [eax-4], ecx

; 193  : 
; 194  : #ifdef _DEBUG
; 195  :     static_cast<uintptr_t*>(_Ptr)[-2] = _Big_allocation_sentinel;
; 196  : #endif // defined(_DEBUG)
; 197  :     return _Ptr;
; 198  : }

  00029	5d		 pop	 ebp
  0002a	c3		 ret	 0
$LN7@Allocate_m:

; 190  :     _STL_VERIFY(_Ptr_container != 0, "invalid argument"); // validate even in release since we're doing p[-1]

  0002b	e9 00 00 00 00	 jmp	 __invalid_parameter_noinfo_noreturn
??$_Allocate_manually_vector_aligned@U_Default_allocate_traits@std@@@std@@YAPAXI@Z ENDP ; std::_Allocate_manually_vector_aligned<std::_Default_allocate_traits>
_TEXT	ENDS
; Function compile flags: /Ogtp
; File D:\Program Files\Microsoft Visual Studio\2022\Community\VC\Tools\MSVC\14.43.34808\include\xstring
; File D:\Program Files\Microsoft Visual Studio\2022\Community\VC\Tools\MSVC\14.43.34808\include\__msvc_string_view.hpp
; File D:\Program Files\Microsoft Visual Studio\2022\Community\VC\Tools\MSVC\14.43.34808\include\xstring
; File D:\Program Files\Microsoft Visual Studio\2022\Community\VC\Tools\MSVC\14.43.34808\include\__msvc_string_view.hpp
; File D:\Program Files\Microsoft Visual Studio\2022\Community\VC\Tools\MSVC\14.43.34808\include\xstring
; File D:\Program Files\Microsoft Visual Studio\2022\Community\VC\Tools\MSVC\14.43.34808\include\xmemory
; File D:\Program Files\Microsoft Visual Studio\2022\Community\VC\Tools\MSVC\14.43.34808\include\xstring
; File D:\Program Files\Microsoft Visual Studio\2022\Community\VC\Tools\MSVC\14.43.34808\include\xmemory
; File D:\Program Files\Microsoft Visual Studio\2022\Community\VC\Tools\MSVC\14.43.34808\include\xstring
; File D:\Program Files\Microsoft Visual Studio\2022\Community\VC\Tools\MSVC\14.43.34808\include\xmemory
; File D:\Program Files\Microsoft Visual Studio\2022\Community\VC\Tools\MSVC\14.43.34808\include\xstring
; File D:\Program Files\Microsoft Visual Studio\2022\Community\VC\Tools\MSVC\14.43.34808\include\__msvc_string_view.hpp
; File D:\Program Files\Microsoft Visual Studio\2022\Community\VC\Tools\MSVC\14.43.34808\include\xstring
; File D:\Program Files\Microsoft Visual Studio\2022\Community\VC\Tools\MSVC\14.43.34808\include\__msvc_string_view.hpp
; File D:\Program Files\Microsoft Visual Studio\2022\Community\VC\Tools\MSVC\14.43.34808\include\xstring
; File D:\Program Files\Microsoft Visual Studio\2022\Community\VC\Tools\MSVC\14.43.34808\include\__msvc_string_view.hpp
; File D:\Program Files\Microsoft Visual Studio\2022\Community\VC\Tools\MSVC\14.43.34808\include\xstring
; File D:\Program Files\Microsoft Visual Studio\2022\Community\VC\Tools\MSVC\14.43.34808\include\__msvc_string_view.hpp
; File D:\Program Files\Microsoft Visual Studio\2022\Community\VC\Tools\MSVC\14.43.34808\include\xstring
; File D:\Program Files\Microsoft Visual Studio\2022\Community\VC\Tools\MSVC\14.43.34808\include\xmemory
; File D:\Program Files\Microsoft Visual Studio\2022\Community\VC\Tools\MSVC\14.43.34808\include\xstring
; File D:\Program Files\Microsoft Visual Studio\2022\Community\VC\Tools\MSVC\14.43.34808\include\xmemory
; File D:\Program Files\Microsoft Visual Studio\2022\Community\VC\Tools\MSVC\14.43.34808\include\xstring
;	COMDAT ?assign@?$basic_string@DU?$char_traits@D@std@@V?$allocator@D@2@@std@@QAEAAV12@QBDI@Z
_TEXT	SEGMENT
__Old$1$ = -4						; size = 4
__Ptr$ = 8						; size = 4
__Count$ = 12						; size = 4
$T1 = 12						; size = 4
?assign@?$basic_string@DU?$char_traits@D@std@@V?$allocator@D@2@@std@@QAEAAV12@QBDI@Z PROC ; std::basic_string<char,std::char_traits<char>,std::allocator<char> >::assign, COMDAT
; _this$ = ecx

; 1592 :         _In_reads_(_Count) const _Elem* const _Ptr, _CRT_GUARDOVERFLOW const size_type _Count) {

  00000	55		 push	 ebp
  00001	8b ec		 mov	 ebp, esp
  00003	51		 push	 ecx
  00004	53		 push	 ebx

; 1593 :         // assign [_Ptr, _Ptr + _Count)
; 1594 :         if (_Count <= _Mypair._Myval2._Myres) {

  00005	8b 5d 0c	 mov	 ebx, DWORD PTR __Count$[ebp]
  00008	56		 push	 esi
  00009	8b f1		 mov	 esi, ecx
  0000b	57		 push	 edi
  0000c	8b 4e 14	 mov	 ecx, DWORD PTR [esi+20]
  0000f	89 4d fc	 mov	 DWORD PTR __Old$1$[ebp], ecx
  00012	3b d9		 cmp	 ebx, ecx
  00014	77 28		 ja	 SHORT $LN2@assign

; 416  :         value_type* _Result = _Bx._Buf;

  00016	8b fe		 mov	 edi, esi

; 434  :         return _Myres > _Small_string_capacity;

  00018	83 f9 0f	 cmp	 ecx, 15			; 0000000fH

; 417  :         if (_Large_mode_engaged()) {

  0001b	76 02		 jbe	 SHORT $LN5@assign

; 418  :             _Result = _Unfancy(_Bx._Ptr);

  0001d	8b 3e		 mov	 edi, DWORD PTR [esi]
$LN5@assign:
; File D:\Program Files\Microsoft Visual Studio\2022\Community\VC\Tools\MSVC\14.43.34808\include\__msvc_string_view.hpp

; 148  :         _CSTD memmove(_First1, _First2, _Count * sizeof(_Elem));

  0001f	53		 push	 ebx
  00020	ff 75 08	 push	 DWORD PTR __Ptr$[ebp]
; File D:\Program Files\Microsoft Visual Studio\2022\Community\VC\Tools\MSVC\14.43.34808\include\xstring

; 1597 :             _Mypair._Myval2._Mysize = _Count;

  00023	89 5e 10	 mov	 DWORD PTR [esi+16], ebx
; File D:\Program Files\Microsoft Visual Studio\2022\Community\VC\Tools\MSVC\14.43.34808\include\__msvc_string_view.hpp

; 148  :         _CSTD memmove(_First1, _First2, _Count * sizeof(_Elem));

  00026	57		 push	 edi
  00027	e8 00 00 00 00	 call	 _memmove
  0002c	83 c4 0c	 add	 esp, 12			; 0000000cH
; File D:\Program Files\Microsoft Visual Studio\2022\Community\VC\Tools\MSVC\14.43.34808\include\xstring

; 1599 :             _Traits::assign(_Old_ptr[_Count], _Elem());

  0002f	c6 04 1f 00	 mov	 BYTE PTR [edi+ebx], 0

; 1609 :             },
; 1610 :             _Ptr);
; 1611 :     }

  00033	8b c6		 mov	 eax, esi
  00035	5f		 pop	 edi
  00036	5e		 pop	 esi
  00037	5b		 pop	 ebx
  00038	8b e5		 mov	 esp, ebp
  0003a	5d		 pop	 ebp
  0003b	c2 08 00	 ret	 8
$LN2@assign:

; 2962 :         if (_New_size > max_size()) {

  0003e	81 fb ff ff ff
	7f		 cmp	 ebx, 2147483647		; 7fffffffH
  00044	0f 87 c7 00 00
	00		 ja	 $LN87@assign

; 2942 :         const size_type _Masked = _Requested | _Alloc_mask;

  0004a	8b fb		 mov	 edi, ebx
  0004c	83 cf 0f	 or	 edi, 15			; 0000000fH
  0004f	81 ff ff ff ff
	7f		 cmp	 edi, 2147483647		; 7fffffffH

; 2943 :         if (_Masked > _Max) { // the mask overflows, settle for max_size()

  00055	76 12		 jbe	 SHORT $LN23@assign

; 2944 :             return _Max;

  00057	b8 00 00 00 80	 mov	 eax, -2147483648	; 80000000H
  0005c	bf ff ff ff 7f	 mov	 edi, 2147483647		; 7fffffffH
; File D:\Program Files\Microsoft Visual Studio\2022\Community\VC\Tools\MSVC\14.43.34808\include\xmemory

; 253  :             return _Allocate_manually_vector_aligned<_Traits>(_Bytes);

  00061	50		 push	 eax
  00062	e8 00 00 00 00	 call	 ??$_Allocate_manually_vector_aligned@U_Default_allocate_traits@std@@@std@@YAPAXI@Z ; std::_Allocate_manually_vector_aligned<std::_Default_allocate_traits>
  00067	eb 45		 jmp	 SHORT $LN85@assign
$LN23@assign:
; File D:\Program Files\Microsoft Visual Studio\2022\Community\VC\Tools\MSVC\14.43.34808\include\xstring

; 2947 :         if (_Old > _Max - _Old / 2) { // similarly, geometric overflows

  00069	8b d1		 mov	 edx, ecx
  0006b	b8 ff ff ff 7f	 mov	 eax, 2147483647		; 7fffffffH
  00070	d1 ea		 shr	 edx, 1
  00072	2b c2		 sub	 eax, edx
  00074	3b c8		 cmp	 ecx, eax
  00076	76 12		 jbe	 SHORT $LN24@assign

; 2948 :             return _Max;

  00078	b8 00 00 00 80	 mov	 eax, -2147483648	; 80000000H
  0007d	bf ff ff ff 7f	 mov	 edi, 2147483647		; 7fffffffH
; File D:\Program Files\Microsoft Visual Studio\2022\Community\VC\Tools\MSVC\14.43.34808\include\xmemory

; 253  :             return _Allocate_manually_vector_aligned<_Traits>(_Bytes);

  00082	50		 push	 eax
  00083	e8 00 00 00 00	 call	 ??$_Allocate_manually_vector_aligned@U_Default_allocate_traits@std@@@std@@YAPAXI@Z ; std::_Allocate_manually_vector_aligned<std::_Default_allocate_traits>
  00088	eb 24		 jmp	 SHORT $LN85@assign
$LN24@assign:
; File D:\Program Files\Microsoft Visual Studio\2022\Community\VC\Tools\MSVC\14.43.34808\include\xstring

; 2951 :         return (_STD max)(_Masked, _Old + _Old / 2);

  0008a	8d 04 0a	 lea	 eax, DWORD PTR [edx+ecx]
  0008d	3b f8		 cmp	 edi, eax
  0008f	0f 42 f8	 cmovb	 edi, eax

; 801  :         ++_Capacity; // Take null terminator into consideration

  00092	8d 47 01	 lea	 eax, DWORD PTR [edi+1]
; File D:\Program Files\Microsoft Visual Studio\2022\Community\VC\Tools\MSVC\14.43.34808\include\xmemory

; 227  :     if (_Bytes == 0) {

  00095	85 c0		 test	 eax, eax
  00097	74 18		 je	 SHORT $LN84@assign
$LN37@assign:

; 228  :         return nullptr;
; 229  :     }
; 230  : 
; 231  : #if _HAS_CXX20 // TRANSITION, GH-1532
; 232  :     if (_STD is_constant_evaluated()) {
; 233  :         return _Traits::_Allocate(_Bytes);
; 234  :     }
; 235  : #endif // _HAS_CXX20
; 236  : 
; 237  : #ifdef __cpp_aligned_new
; 238  :     if constexpr (_Align > __STDCPP_DEFAULT_NEW_ALIGNMENT__) {
; 239  :         size_t _Passed_align = _Align;
; 240  : #if defined(_M_IX86) || defined(_M_X64)
; 241  :         if (_Bytes >= _Big_allocation_threshold) {
; 242  :             // boost the alignment of big allocations to help autovectorization
; 243  :             _Passed_align = (_STD max)(_Align, _Big_allocation_alignment);
; 244  :         }
; 245  : #endif // defined(_M_IX86) || defined(_M_X64)
; 246  :         return _Traits::_Allocate_aligned(_Bytes, _Passed_align);
; 247  :     } else
; 248  : #endif // defined(__cpp_aligned_new)
; 249  :     {
; 250  : #if defined(_M_IX86) || defined(_M_X64)
; 251  :         if (_Bytes >= _Big_allocation_threshold) {

  00099	3d 00 10 00 00	 cmp	 eax, 4096		; 00001000H
  0009e	72 08		 jb	 SHORT $LN38@assign

; 253  :             return _Allocate_manually_vector_aligned<_Traits>(_Bytes);

  000a0	50		 push	 eax
  000a1	e8 00 00 00 00	 call	 ??$_Allocate_manually_vector_aligned@U_Default_allocate_traits@std@@@std@@YAPAXI@Z ; std::_Allocate_manually_vector_aligned<std::_Default_allocate_traits>
  000a6	eb 06		 jmp	 SHORT $LN85@assign
$LN38@assign:

; 136  :         return ::operator new(_Bytes);

  000a8	50		 push	 eax
  000a9	e8 00 00 00 00	 call	 ??2@YAPAXI@Z		; operator new
$LN85@assign:
; File D:\Program Files\Microsoft Visual Studio\2022\Community\VC\Tools\MSVC\14.43.34808\include\xstring

; 2973 :         _Mypair._Myval2._Mysize = _New_size;

  000ae	83 c4 04	 add	 esp, 4
$LN84@assign:
; File D:\Program Files\Microsoft Visual Studio\2022\Community\VC\Tools\MSVC\14.43.34808\include\__msvc_string_view.hpp

; 95   :         _CSTD memcpy(_First1, _First2, _Count * sizeof(_Elem));

  000b1	53		 push	 ebx
  000b2	ff 75 08	 push	 DWORD PTR __Ptr$[ebp]
; File D:\Program Files\Microsoft Visual Studio\2022\Community\VC\Tools\MSVC\14.43.34808\include\xstring

; 2973 :         _Mypair._Myval2._Mysize = _New_size;

  000b5	89 45 0c	 mov	 DWORD PTR $T1[ebp], eax
; File D:\Program Files\Microsoft Visual Studio\2022\Community\VC\Tools\MSVC\14.43.34808\include\__msvc_string_view.hpp

; 95   :         _CSTD memcpy(_First1, _First2, _Count * sizeof(_Elem));

  000b8	50		 push	 eax
; File D:\Program Files\Microsoft Visual Studio\2022\Community\VC\Tools\MSVC\14.43.34808\include\xstring

; 2973 :         _Mypair._Myval2._Mysize = _New_size;

  000b9	89 5e 10	 mov	 DWORD PTR [esi+16], ebx

; 2974 :         _Mypair._Myval2._Myres  = _New_capacity;

  000bc	89 7e 14	 mov	 DWORD PTR [esi+20], edi
; File D:\Program Files\Microsoft Visual Studio\2022\Community\VC\Tools\MSVC\14.43.34808\include\__msvc_string_view.hpp

; 95   :         _CSTD memcpy(_First1, _First2, _Count * sizeof(_Elem));

  000bf	e8 00 00 00 00	 call	 _memcpy
; File D:\Program Files\Microsoft Visual Studio\2022\Community\VC\Tools\MSVC\14.43.34808\include\xstring

; 1608 :                 _Traits::assign(_New_ptr[_Count], _Elem());

  000c4	8b 7d 0c	 mov	 edi, DWORD PTR $T1[ebp]
; File D:\Program Files\Microsoft Visual Studio\2022\Community\VC\Tools\MSVC\14.43.34808\include\__msvc_string_view.hpp

; 95   :         _CSTD memcpy(_First1, _First2, _Count * sizeof(_Elem));

  000c7	83 c4 0c	 add	 esp, 12			; 0000000cH
; File D:\Program Files\Microsoft Visual Studio\2022\Community\VC\Tools\MSVC\14.43.34808\include\xstring

; 2976 :         if (_Old_capacity > _Small_string_capacity) {

  000ca	8b 45 fc	 mov	 eax, DWORD PTR __Old$1$[ebp]

; 1608 :                 _Traits::assign(_New_ptr[_Count], _Elem());

  000cd	c6 04 1f 00	 mov	 BYTE PTR [edi+ebx], 0

; 2976 :         if (_Old_capacity > _Small_string_capacity) {

  000d1	83 f8 0f	 cmp	 eax, 15			; 0000000fH
  000d4	76 29		 jbe	 SHORT $LN16@assign

; 828  :         _Al.deallocate(_Old_ptr, _Capacity + 1); // +1 for null terminator

  000d6	8d 48 01	 lea	 ecx, DWORD PTR [eax+1]
; File D:\Program Files\Microsoft Visual Studio\2022\Community\VC\Tools\MSVC\14.43.34808\include\xmemory

; 981  :         _STD _Deallocate<_New_alignof<_Ty>>(_Ptr, sizeof(_Ty) * _Count);

  000d9	8b 06		 mov	 eax, DWORD PTR [esi]

; 284  :         if (_Bytes >= _Big_allocation_threshold) {

  000db	81 f9 00 10 00
	00		 cmp	 ecx, 4096		; 00001000H
  000e1	72 12		 jb	 SHORT $LN66@assign

; 205  :     const uintptr_t _Ptr_container   = _Ptr_user[-1];

  000e3	8b 50 fc	 mov	 edx, DWORD PTR [eax-4]
  000e6	83 c1 23	 add	 ecx, 35			; 00000023H

; 206  : 
; 207  :     // If the following asserts, it likely means that we are performing
; 208  :     // an aligned delete on memory coming from an unaligned allocation.
; 209  :     _STL_ASSERT(_Ptr_user[-2] == _Big_allocation_sentinel, "invalid argument");
; 210  : 
; 211  :     // Extra paranoia on aligned allocation/deallocation; ensure _Ptr_container is
; 212  :     // in range [_Min_back_shift, _Non_user_size]
; 213  : #ifdef _DEBUG
; 214  :     constexpr uintptr_t _Min_back_shift = 2 * sizeof(void*);
; 215  : #else // ^^^ defined(_DEBUG) / !defined(_DEBUG) vvv
; 216  :     constexpr uintptr_t _Min_back_shift = sizeof(void*);
; 217  : #endif // ^^^ !defined(_DEBUG) ^^^
; 218  :     const uintptr_t _Back_shift = reinterpret_cast<uintptr_t>(_Ptr) - _Ptr_container;

  000e9	2b c2		 sub	 eax, edx

; 219  :     _STL_VERIFY(_Back_shift >= _Min_back_shift && _Back_shift <= _Non_user_size, "invalid argument");

  000eb	83 c0 fc	 add	 eax, -4			; fffffffcH
  000ee	83 f8 1f	 cmp	 eax, 31			; 0000001fH
  000f1	77 19		 ja	 SHORT $LN63@assign

; 220  :     _Ptr = reinterpret_cast<void*>(_Ptr_container);

  000f3	8b c2		 mov	 eax, edx
$LN66@assign:

; 289  :         ::operator delete(_Ptr, _Bytes);

  000f5	51		 push	 ecx
  000f6	50		 push	 eax
  000f7	e8 00 00 00 00	 call	 ??3@YAXPAXI@Z		; operator delete
  000fc	83 c4 08	 add	 esp, 8
$LN16@assign:
; File D:\Program Files\Microsoft Visual Studio\2022\Community\VC\Tools\MSVC\14.43.34808\include\xstring

; 1604 :         return _Reallocate_for(

  000ff	89 3e		 mov	 DWORD PTR [esi], edi

; 1609 :             },
; 1610 :             _Ptr);
; 1611 :     }

  00101	8b c6		 mov	 eax, esi
  00103	5f		 pop	 edi
  00104	5e		 pop	 esi
  00105	5b		 pop	 ebx
  00106	8b e5		 mov	 esp, ebp
  00108	5d		 pop	 ebp
  00109	c2 08 00	 ret	 8
$LN63@assign:
; File D:\Program Files\Microsoft Visual Studio\2022\Community\VC\Tools\MSVC\14.43.34808\include\xmemory

; 219  :     _STL_VERIFY(_Back_shift >= _Min_back_shift && _Back_shift <= _Non_user_size, "invalid argument");

  0010c	e8 00 00 00 00	 call	 __invalid_parameter_noinfo_noreturn
$LN87@assign:
; File D:\Program Files\Microsoft Visual Studio\2022\Community\VC\Tools\MSVC\14.43.34808\include\xstring

; 2963 :             _Xlen_string(); // result too long

  00111	e8 00 00 00 00	 call	 ?_Xlen_string@std@@YAXXZ ; std::_Xlen_string
$LN82@assign:
  00116	cc		 int	 3
?assign@?$basic_string@DU?$char_traits@D@std@@V?$allocator@D@2@@std@@QAEAAV12@QBDI@Z ENDP ; std::basic_string<char,std::char_traits<char>,std::allocator<char> >::assign
_TEXT	ENDS
; Function compile flags: /Ogtp
; File D:\Program Files\Microsoft Visual Studio\2022\Community\VC\Tools\MSVC\14.43.34808\include\xstring
; File D:\Program Files\Microsoft Visual Studio\2022\Community\VC\Tools\MSVC\14.43.34808\include\xmemory
; File D:\Program Files\Microsoft Visual Studio\2022\Community\VC\Tools\MSVC\14.43.34808\include\xstring
; File D:\Program Files\Microsoft Visual Studio\2022\Community\VC\Tools\MSVC\14.43.34808\include\xmemory
; File D:\Program Files\Microsoft Visual Studio\2022\Community\VC\Tools\MSVC\14.43.34808\include\xstring
; File D:\Program Files\Microsoft Visual Studio\2022\Community\VC\Tools\MSVC\14.43.34808\include\xmemory
; File D:\Program Files\Microsoft Visual Studio\2022\Community\VC\Tools\MSVC\14.43.34808\include\xstring
;	COMDAT ??1?$basic_string@DU?$char_traits@D@std@@V?$allocator@D@2@@std@@QAE@XZ
_TEXT	SEGMENT
??1?$basic_string@DU?$char_traits@D@std@@V?$allocator@D@2@@std@@QAE@XZ PROC ; std::basic_string<char,std::char_traits<char>,std::allocator<char> >::~basic_string<char,std::char_traits<char>,std::allocator<char> >, COMDAT
; _this$ = ecx

; 1358 :     _CONSTEXPR20 ~basic_string() noexcept {

  00000	56		 push	 esi
  00001	8b f1		 mov	 esi, ecx

; 434  :         return _Myres > _Small_string_capacity;

  00003	8b 4e 14	 mov	 ecx, DWORD PTR [esi+20]
  00006	83 f9 0f	 cmp	 ecx, 15			; 0000000fH

; 3047 :         if (_My_data._Large_mode_engaged()) {

  00009	76 27		 jbe	 SHORT $LN19@basic_stri
; File D:\Program Files\Microsoft Visual Studio\2022\Community\VC\Tools\MSVC\14.43.34808\include\xmemory

; 981  :         _STD _Deallocate<_New_alignof<_Ty>>(_Ptr, sizeof(_Ty) * _Count);

  0000b	8b 06		 mov	 eax, DWORD PTR [esi]
; File D:\Program Files\Microsoft Visual Studio\2022\Community\VC\Tools\MSVC\14.43.34808\include\xstring

; 828  :         _Al.deallocate(_Old_ptr, _Capacity + 1); // +1 for null terminator

  0000d	41		 inc	 ecx
; File D:\Program Files\Microsoft Visual Studio\2022\Community\VC\Tools\MSVC\14.43.34808\include\xmemory

; 284  :         if (_Bytes >= _Big_allocation_threshold) {

  0000e	81 f9 00 10 00
	00		 cmp	 ecx, 4096		; 00001000H
  00014	72 12		 jb	 SHORT $LN30@basic_stri

; 205  :     const uintptr_t _Ptr_container   = _Ptr_user[-1];

  00016	8b 50 fc	 mov	 edx, DWORD PTR [eax-4]
  00019	83 c1 23	 add	 ecx, 35			; 00000023H

; 206  : 
; 207  :     // If the following asserts, it likely means that we are performing
; 208  :     // an aligned delete on memory coming from an unaligned allocation.
; 209  :     _STL_ASSERT(_Ptr_user[-2] == _Big_allocation_sentinel, "invalid argument");
; 210  : 
; 211  :     // Extra paranoia on aligned allocation/deallocation; ensure _Ptr_container is
; 212  :     // in range [_Min_back_shift, _Non_user_size]
; 213  : #ifdef _DEBUG
; 214  :     constexpr uintptr_t _Min_back_shift = 2 * sizeof(void*);
; 215  : #else // ^^^ defined(_DEBUG) / !defined(_DEBUG) vvv
; 216  :     constexpr uintptr_t _Min_back_shift = sizeof(void*);
; 217  : #endif // ^^^ !defined(_DEBUG) ^^^
; 218  :     const uintptr_t _Back_shift = reinterpret_cast<uintptr_t>(_Ptr) - _Ptr_container;

  0001c	2b c2		 sub	 eax, edx

; 219  :     _STL_VERIFY(_Back_shift >= _Min_back_shift && _Back_shift <= _Non_user_size, "invalid argument");

  0001e	83 c0 fc	 add	 eax, -4			; fffffffcH
  00021	83 f8 1f	 cmp	 eax, 31			; 0000001fH
  00024	77 1f		 ja	 SHORT $LN27@basic_stri

; 220  :     _Ptr = reinterpret_cast<void*>(_Ptr_container);

  00026	8b c2		 mov	 eax, edx
$LN30@basic_stri:

; 289  :         ::operator delete(_Ptr, _Bytes);

  00028	51		 push	 ecx
  00029	50		 push	 eax
  0002a	e8 00 00 00 00	 call	 ??3@YAXPAXI@Z		; operator delete
  0002f	83 c4 08	 add	 esp, 8
$LN19@basic_stri:
; File D:\Program Files\Microsoft Visual Studio\2022\Community\VC\Tools\MSVC\14.43.34808\include\xstring

; 3054 :         _My_data._Mysize = 0;

  00032	c7 46 10 00 00
	00 00		 mov	 DWORD PTR [esi+16], 0

; 3055 :         _My_data._Myres  = _Small_string_capacity;

  00039	c7 46 14 0f 00
	00 00		 mov	 DWORD PTR [esi+20], 15	; 0000000fH

; 3056 :         // the _Traits::assign is last so the codegen doesn't think the char write can alias this
; 3057 :         _Traits::assign(_My_data._Bx._Buf[0], _Elem());

  00040	c6 06 00	 mov	 BYTE PTR [esi], 0
  00043	5e		 pop	 esi

; 1366 :     }

  00044	c3		 ret	 0
$LN27@basic_stri:
; File D:\Program Files\Microsoft Visual Studio\2022\Community\VC\Tools\MSVC\14.43.34808\include\xmemory

; 219  :     _STL_VERIFY(_Back_shift >= _Min_back_shift && _Back_shift <= _Non_user_size, "invalid argument");

  00045	e8 00 00 00 00	 call	 __invalid_parameter_noinfo_noreturn
$LN39@basic_stri:
  0004a	cc		 int	 3
??1?$basic_string@DU?$char_traits@D@std@@V?$allocator@D@2@@std@@QAE@XZ ENDP ; std::basic_string<char,std::char_traits<char>,std::allocator<char> >::~basic_string<char,std::char_traits<char>,std::allocator<char> >
_TEXT	ENDS
; Function compile flags: /Ogtp
; File D:\Program Files\Microsoft Visual Studio\2022\Community\VC\Tools\MSVC\14.43.34808\include\xstring
;	COMDAT ?_Xlen_string@std@@YAXXZ
_TEXT	SEGMENT
?_Xlen_string@std@@YAXXZ PROC				; std::_Xlen_string, COMDAT

; 512  :     _Xlength_error("string too long");

  00000	68 00 00 00 00	 push	 OFFSET ??_C@_0BA@JFNIOLAK@string?5too?5long@
  00005	e8 00 00 00 00	 call	 ?_Xlength_error@std@@YAXPBD@Z ; std::_Xlength_error
$LN3@Xlen_strin:
  0000a	cc		 int	 3
?_Xlen_string@std@@YAXXZ ENDP				; std::_Xlen_string
_TEXT	ENDS
; Function compile flags: /Ogtp
; File D:\Program Files\Microsoft Visual Studio\2022\Community\VC\Tools\MSVC\14.43.34808\include\xmemory
;	COMDAT ?_Throw_bad_array_new_length@std@@YAXXZ
_TEXT	SEGMENT
$T1 = -12						; size = 12
?_Throw_bad_array_new_length@std@@YAXXZ PROC		; std::_Throw_bad_array_new_length, COMDAT

; 107  : [[noreturn]] inline void _Throw_bad_array_new_length() {

  00000	55		 push	 ebp
  00001	8b ec		 mov	 ebp, esp
  00003	83 ec 0c	 sub	 esp, 12			; 0000000cH

; 108  :     _THROW(bad_array_new_length{});

  00006	8d 4d f4	 lea	 ecx, DWORD PTR $T1[ebp]
  00009	e8 00 00 00 00	 call	 ??0bad_array_new_length@std@@QAE@XZ ; std::bad_array_new_length::bad_array_new_length
  0000e	68 00 00 00 00	 push	 OFFSET __TI3?AVbad_array_new_length@std@@
  00013	8d 45 f4	 lea	 eax, DWORD PTR $T1[ebp]
  00016	50		 push	 eax
  00017	e8 00 00 00 00	 call	 __CxxThrowException@8
$LN3@Throw_bad_:
  0001c	cc		 int	 3
?_Throw_bad_array_new_length@std@@YAXXZ ENDP		; std::_Throw_bad_array_new_length
_TEXT	ENDS
; Function compile flags: /Ogtp
; File D:\Program Files\Microsoft Visual Studio\2022\Community\VC\Tools\MSVC\14.43.34808\include\vcruntime_exception.h
;	COMDAT ??_Gbad_array_new_length@std@@UAEPAXI@Z
_TEXT	SEGMENT
___flags$ = 8						; size = 4
??_Gbad_array_new_length@std@@UAEPAXI@Z PROC		; std::bad_array_new_length::`scalar deleting destructor', COMDAT
; _this$ = ecx
  00000	55		 push	 ebp
  00001	8b ec		 mov	 ebp, esp

; 90   :     {

  00003	56		 push	 esi
  00004	8b f1		 mov	 esi, ecx

; 91   :         __std_exception_destroy(&_Data);

  00006	8d 46 04	 lea	 eax, DWORD PTR [esi+4]
  00009	c7 06 00 00 00
	00		 mov	 DWORD PTR [esi], OFFSET ??_7exception@std@@6B@
  0000f	50		 push	 eax
  00010	e8 00 00 00 00	 call	 ___std_exception_destroy
  00015	83 c4 04	 add	 esp, 4
  00018	f6 45 08 01	 test	 BYTE PTR ___flags$[ebp], 1
  0001c	74 0b		 je	 SHORT $LN18@scalar
  0001e	6a 0c		 push	 12			; 0000000cH
  00020	56		 push	 esi
  00021	e8 00 00 00 00	 call	 ??3@YAXPAXI@Z		; operator delete
  00026	83 c4 08	 add	 esp, 8
$LN18@scalar:
  00029	8b c6		 mov	 eax, esi
  0002b	5e		 pop	 esi
  0002c	5d		 pop	 ebp
  0002d	c2 04 00	 ret	 4
??_Gbad_array_new_length@std@@UAEPAXI@Z ENDP		; std::bad_array_new_length::`scalar deleting destructor'
_TEXT	ENDS
; Function compile flags: /Ogtp
; File D:\Program Files\Microsoft Visual Studio\2022\Community\VC\Tools\MSVC\14.43.34808\include\vcruntime_exception.h
;	COMDAT ??0bad_array_new_length@std@@QAE@ABV01@@Z
_TEXT	SEGMENT
___that$ = 8						; size = 4
??0bad_array_new_length@std@@QAE@ABV01@@Z PROC		; std::bad_array_new_length::bad_array_new_length, COMDAT
; _this$ = ecx
  00000	55		 push	 ebp
  00001	8b ec		 mov	 ebp, esp

; 73   :     {

  00003	56		 push	 esi
  00004	8b f1		 mov	 esi, ecx
  00006	0f 57 c0	 xorps	 xmm0, xmm0

; 72   :         : _Data()

  00009	8d 46 04	 lea	 eax, DWORD PTR [esi+4]

; 74   :         __std_exception_copy(&_Other._Data, &_Data);

  0000c	50		 push	 eax
  0000d	c7 06 00 00 00
	00		 mov	 DWORD PTR [esi], OFFSET ??_7exception@std@@6B@
  00013	66 0f d6 00	 movq	 QWORD PTR [eax], xmm0
  00017	8b 45 08	 mov	 eax, DWORD PTR ___that$[ebp]
  0001a	83 c0 04	 add	 eax, 4
  0001d	50		 push	 eax
  0001e	e8 00 00 00 00	 call	 ___std_exception_copy
  00023	83 c4 08	 add	 esp, 8
  00026	c7 06 00 00 00
	00		 mov	 DWORD PTR [esi], OFFSET ??_7bad_array_new_length@std@@6B@
  0002c	8b c6		 mov	 eax, esi
  0002e	5e		 pop	 esi
  0002f	5d		 pop	 ebp
  00030	c2 04 00	 ret	 4
??0bad_array_new_length@std@@QAE@ABV01@@Z ENDP		; std::bad_array_new_length::bad_array_new_length
_TEXT	ENDS
; Function compile flags: /Ogtp
; File D:\Program Files\Microsoft Visual Studio\2022\Community\VC\Tools\MSVC\14.43.34808\include\vcruntime_exception.h
;	COMDAT ??1bad_array_new_length@std@@UAE@XZ
_TEXT	SEGMENT
??1bad_array_new_length@std@@UAE@XZ PROC		; std::bad_array_new_length::~bad_array_new_length, COMDAT
; _this$ = ecx

; 91   :         __std_exception_destroy(&_Data);

  00000	8d 41 04	 lea	 eax, DWORD PTR [ecx+4]
  00003	c7 01 00 00 00
	00		 mov	 DWORD PTR [ecx], OFFSET ??_7exception@std@@6B@
  00009	50		 push	 eax
  0000a	e8 00 00 00 00	 call	 ___std_exception_destroy
  0000f	59		 pop	 ecx
  00010	c3		 ret	 0
??1bad_array_new_length@std@@UAE@XZ ENDP		; std::bad_array_new_length::~bad_array_new_length
_TEXT	ENDS
; Function compile flags: /Ogtp
; File D:\Program Files\Microsoft Visual Studio\2022\Community\VC\Tools\MSVC\14.43.34808\include\vcruntime_exception.h
;	COMDAT ??0bad_array_new_length@std@@QAE@XZ
_TEXT	SEGMENT
??0bad_array_new_length@std@@QAE@XZ PROC		; std::bad_array_new_length::bad_array_new_length, COMDAT
; _this$ = ecx

; 144  :     {

  00000	0f 57 c0	 xorps	 xmm0, xmm0

; 145  :     }

  00003	8b c1		 mov	 eax, ecx

; 66   :         : _Data()

  00005	66 0f d6 41 04	 movq	 QWORD PTR [ecx+4], xmm0

; 67   :     {
; 68   :         _Data._What = _Message;

  0000a	c7 41 04 00 00
	00 00		 mov	 DWORD PTR [ecx+4], OFFSET ??_C@_0BF@KINCDENJ@bad?5array?5new?5length@

; 144  :     {

  00011	c7 01 00 00 00
	00		 mov	 DWORD PTR [ecx], OFFSET ??_7bad_array_new_length@std@@6B@

; 145  :     }

  00017	c3		 ret	 0
??0bad_array_new_length@std@@QAE@XZ ENDP		; std::bad_array_new_length::bad_array_new_length
_TEXT	ENDS
; Function compile flags: /Ogtp
; File D:\Program Files\Microsoft Visual Studio\2022\Community\VC\Tools\MSVC\14.43.34808\include\vcruntime_exception.h
;	COMDAT ??_Gbad_alloc@std@@UAEPAXI@Z
_TEXT	SEGMENT
___flags$ = 8						; size = 4
??_Gbad_alloc@std@@UAEPAXI@Z PROC			; std::bad_alloc::`scalar deleting destructor', COMDAT
; _this$ = ecx
  00000	55		 push	 ebp
  00001	8b ec		 mov	 ebp, esp

; 90   :     {

  00003	56		 push	 esi
  00004	8b f1		 mov	 esi, ecx

; 91   :         __std_exception_destroy(&_Data);

  00006	8d 46 04	 lea	 eax, DWORD PTR [esi+4]
  00009	c7 06 00 00 00
	00		 mov	 DWORD PTR [esi], OFFSET ??_7exception@std@@6B@
  0000f	50		 push	 eax
  00010	e8 00 00 00 00	 call	 ___std_exception_destroy
  00015	83 c4 04	 add	 esp, 4
  00018	f6 45 08 01	 test	 BYTE PTR ___flags$[ebp], 1
  0001c	74 0b		 je	 SHORT $LN13@scalar
  0001e	6a 0c		 push	 12			; 0000000cH
  00020	56		 push	 esi
  00021	e8 00 00 00 00	 call	 ??3@YAXPAXI@Z		; operator delete
  00026	83 c4 08	 add	 esp, 8
$LN13@scalar:
  00029	8b c6		 mov	 eax, esi
  0002b	5e		 pop	 esi
  0002c	5d		 pop	 ebp
  0002d	c2 04 00	 ret	 4
??_Gbad_alloc@std@@UAEPAXI@Z ENDP			; std::bad_alloc::`scalar deleting destructor'
_TEXT	ENDS
; Function compile flags: /Ogtp
; File D:\Program Files\Microsoft Visual Studio\2022\Community\VC\Tools\MSVC\14.43.34808\include\vcruntime_exception.h
;	COMDAT ??0bad_alloc@std@@QAE@ABV01@@Z
_TEXT	SEGMENT
___that$ = 8						; size = 4
??0bad_alloc@std@@QAE@ABV01@@Z PROC			; std::bad_alloc::bad_alloc, COMDAT
; _this$ = ecx
  00000	55		 push	 ebp
  00001	8b ec		 mov	 ebp, esp

; 73   :     {

  00003	56		 push	 esi
  00004	8b f1		 mov	 esi, ecx
  00006	0f 57 c0	 xorps	 xmm0, xmm0

; 72   :         : _Data()

  00009	8d 46 04	 lea	 eax, DWORD PTR [esi+4]

; 74   :         __std_exception_copy(&_Other._Data, &_Data);

  0000c	50		 push	 eax
  0000d	c7 06 00 00 00
	00		 mov	 DWORD PTR [esi], OFFSET ??_7exception@std@@6B@
  00013	66 0f d6 00	 movq	 QWORD PTR [eax], xmm0
  00017	8b 45 08	 mov	 eax, DWORD PTR ___that$[ebp]
  0001a	83 c0 04	 add	 eax, 4
  0001d	50		 push	 eax
  0001e	e8 00 00 00 00	 call	 ___std_exception_copy
  00023	83 c4 08	 add	 esp, 8
  00026	c7 06 00 00 00
	00		 mov	 DWORD PTR [esi], OFFSET ??_7bad_alloc@std@@6B@
  0002c	8b c6		 mov	 eax, esi
  0002e	5e		 pop	 esi
  0002f	5d		 pop	 ebp
  00030	c2 04 00	 ret	 4
??0bad_alloc@std@@QAE@ABV01@@Z ENDP			; std::bad_alloc::bad_alloc
_TEXT	ENDS
; Function compile flags: /Ogtp
; File D:\Program Files\Microsoft Visual Studio\2022\Community\VC\Tools\MSVC\14.43.34808\include\vcruntime_exception.h
;	COMDAT ??_Gexception@std@@UAEPAXI@Z
_TEXT	SEGMENT
___flags$ = 8						; size = 4
??_Gexception@std@@UAEPAXI@Z PROC			; std::exception::`scalar deleting destructor', COMDAT
; _this$ = ecx
  00000	55		 push	 ebp
  00001	8b ec		 mov	 ebp, esp

; 90   :     {

  00003	56		 push	 esi
  00004	8b f1		 mov	 esi, ecx

; 91   :         __std_exception_destroy(&_Data);

  00006	8d 46 04	 lea	 eax, DWORD PTR [esi+4]
  00009	c7 06 00 00 00
	00		 mov	 DWORD PTR [esi], OFFSET ??_7exception@std@@6B@
  0000f	50		 push	 eax
  00010	e8 00 00 00 00	 call	 ___std_exception_destroy
  00015	83 c4 04	 add	 esp, 4
  00018	f6 45 08 01	 test	 BYTE PTR ___flags$[ebp], 1
  0001c	74 0b		 je	 SHORT $LN8@scalar
  0001e	6a 0c		 push	 12			; 0000000cH
  00020	56		 push	 esi
  00021	e8 00 00 00 00	 call	 ??3@YAXPAXI@Z		; operator delete
  00026	83 c4 08	 add	 esp, 8
$LN8@scalar:
  00029	8b c6		 mov	 eax, esi
  0002b	5e		 pop	 esi
  0002c	5d		 pop	 ebp
  0002d	c2 04 00	 ret	 4
??_Gexception@std@@UAEPAXI@Z ENDP			; std::exception::`scalar deleting destructor'
_TEXT	ENDS
; Function compile flags: /Ogtp
; File D:\Program Files\Microsoft Visual Studio\2022\Community\VC\Tools\MSVC\14.43.34808\include\vcruntime_exception.h
;	COMDAT ?what@exception@std@@UBEPBDXZ
_TEXT	SEGMENT
?what@exception@std@@UBEPBDXZ PROC			; std::exception::what, COMDAT
; _this$ = ecx

; 96   :         return _Data._What ? _Data._What : "Unknown exception";

  00000	8b 49 04	 mov	 ecx, DWORD PTR [ecx+4]
  00003	b8 00 00 00 00	 mov	 eax, OFFSET ??_C@_0BC@EOODALEL@Unknown?5exception@
  00008	85 c9		 test	 ecx, ecx
  0000a	0f 45 c1	 cmovne	 eax, ecx

; 97   :     }

  0000d	c3		 ret	 0
?what@exception@std@@UBEPBDXZ ENDP			; std::exception::what
_TEXT	ENDS
; Function compile flags: /Ogtp
; File D:\Program Files\Microsoft Visual Studio\2022\Community\VC\Tools\MSVC\14.43.34808\include\vcruntime_exception.h
;	COMDAT ??1exception@std@@UAE@XZ
_TEXT	SEGMENT
??1exception@std@@UAE@XZ PROC				; std::exception::~exception, COMDAT
; _this$ = ecx

; 91   :         __std_exception_destroy(&_Data);

  00000	8d 41 04	 lea	 eax, DWORD PTR [ecx+4]
  00003	c7 01 00 00 00
	00		 mov	 DWORD PTR [ecx], OFFSET ??_7exception@std@@6B@
  00009	50		 push	 eax
  0000a	e8 00 00 00 00	 call	 ___std_exception_destroy
  0000f	59		 pop	 ecx

; 92   :     }

  00010	c3		 ret	 0
??1exception@std@@UAE@XZ ENDP				; std::exception::~exception
_TEXT	ENDS
; Function compile flags: /Ogtp
; File D:\Program Files\Microsoft Visual Studio\2022\Community\VC\Tools\MSVC\14.43.34808\include\vcruntime_exception.h
;	COMDAT ??0exception@std@@QAE@ABV01@@Z
_TEXT	SEGMENT
__Other$ = 8						; size = 4
??0exception@std@@QAE@ABV01@@Z PROC			; std::exception::exception, COMDAT
; _this$ = ecx

; 73   :     {

  00000	55		 push	 ebp
  00001	8b ec		 mov	 ebp, esp
  00003	56		 push	 esi
  00004	8b f1		 mov	 esi, ecx
  00006	0f 57 c0	 xorps	 xmm0, xmm0
  00009	8d 46 04	 lea	 eax, DWORD PTR [esi+4]

; 74   :         __std_exception_copy(&_Other._Data, &_Data);

  0000c	50		 push	 eax
  0000d	c7 06 00 00 00
	00		 mov	 DWORD PTR [esi], OFFSET ??_7exception@std@@6B@
  00013	66 0f d6 00	 movq	 QWORD PTR [eax], xmm0
  00017	8b 45 08	 mov	 eax, DWORD PTR __Other$[ebp]
  0001a	83 c0 04	 add	 eax, 4
  0001d	50		 push	 eax
  0001e	e8 00 00 00 00	 call	 ___std_exception_copy
  00023	83 c4 08	 add	 esp, 8

; 75   :     }

  00026	8b c6		 mov	 eax, esi
  00028	5e		 pop	 esi
  00029	5d		 pop	 ebp
  0002a	c2 04 00	 ret	 4
??0exception@std@@QAE@ABV01@@Z ENDP			; std::exception::exception
_TEXT	ENDS
END
