; Listing generated by Microsoft (R) Optimizing Compiler Version 19.43.34808.0 

	TITLE	C:\Marty 5.5\Src-Client\Client\GameLib\Distribute\RaceMotionData.obj
	.686P
	.XMM
	include listing.inc
	.model	flat

INCLUDELIB LIBCMT
INCLUDELIB OLDNAMES

PUBLIC	??_7?$CDynamicPool@VCRaceMotionData@@@@6B@	; CDynamicPool<CRaceMotionData>::`vftable'
PUBLIC	??_G?$CDynamicPool@VCRaceMotionData@@@@UAEPAXI@Z ; CDynamicPool<CRaceMotionData>::`scalar deleting destructor'
PUBLIC	??_7?$CDynamicPoolEx@VCRotationDecorator@NEffectUpdateDecorator@@@@6B@ ; CDynamicPoolEx<NEffectUpdateDecorator::CRotationDecorator>::`vftable'
PUBLIC	??_G?$CDynamicPoolEx@VCRotationDecorator@NEffectUpdateDecorator@@@@UAEPAXI@Z ; CDynamicPoolEx<NEffectUpdateDecorator::CRotationDecorator>::`scalar deleting destructor'
PUBLIC	??_7?$CDynamicPoolEx@VCGravityDecorator@NEffectUpdateDecorator@@@@6B@ ; CDynamicPoolEx<NEffectUpdateDecorator::CGravityDecorator>::`vftable'
PUBLIC	??_G?$CDynamicPoolEx@VCGravityDecorator@NEffectUpdateDecorator@@@@UAEPAXI@Z ; CDynamicPoolEx<NEffectUpdateDecorator::CGravityDecorator>::`scalar deleting destructor'
PUBLIC	??_7?$CDynamicPoolEx@VCAirResistanceDecorator@NEffectUpdateDecorator@@@@6B@ ; CDynamicPoolEx<NEffectUpdateDecorator::CAirResistanceDecorator>::`vftable'
PUBLIC	??_G?$CDynamicPoolEx@VCAirResistanceDecorator@NEffectUpdateDecorator@@@@UAEPAXI@Z ; CDynamicPoolEx<NEffectUpdateDecorator::CAirResistanceDecorator>::`scalar deleting destructor'
PUBLIC	??_7?$CDynamicPoolEx@VCTextureAnimationRandomDecorator@NEffectUpdateDecorator@@@@6B@ ; CDynamicPoolEx<NEffectUpdateDecorator::CTextureAnimationRandomDecorator>::`vftable'
PUBLIC	??_G?$CDynamicPoolEx@VCTextureAnimationRandomDecorator@NEffectUpdateDecorator@@@@UAEPAXI@Z ; CDynamicPoolEx<NEffectUpdateDecorator::CTextureAnimationRandomDecorator>::`scalar deleting destructor'
PUBLIC	??_7?$CDynamicPoolEx@VCTextureAnimationCCWDecorator@NEffectUpdateDecorator@@@@6B@ ; CDynamicPoolEx<NEffectUpdateDecorator::CTextureAnimationCCWDecorator>::`vftable'
PUBLIC	??_G?$CDynamicPoolEx@VCTextureAnimationCCWDecorator@NEffectUpdateDecorator@@@@UAEPAXI@Z ; CDynamicPoolEx<NEffectUpdateDecorator::CTextureAnimationCCWDecorator>::`scalar deleting destructor'
PUBLIC	??_7?$CDynamicPoolEx@VCTextureAnimationCWDecorator@NEffectUpdateDecorator@@@@6B@ ; CDynamicPoolEx<NEffectUpdateDecorator::CTextureAnimationCWDecorator>::`vftable'
PUBLIC	??_G?$CDynamicPoolEx@VCTextureAnimationCWDecorator@NEffectUpdateDecorator@@@@UAEPAXI@Z ; CDynamicPoolEx<NEffectUpdateDecorator::CTextureAnimationCWDecorator>::`scalar deleting destructor'
PUBLIC	??_7?$CDynamicPoolEx@VCNullDecorator@NEffectUpdateDecorator@@@@6B@ ; CDynamicPoolEx<NEffectUpdateDecorator::CNullDecorator>::`vftable'
PUBLIC	??_G?$CDynamicPoolEx@VCNullDecorator@NEffectUpdateDecorator@@@@UAEPAXI@Z ; CDynamicPoolEx<NEffectUpdateDecorator::CNullDecorator>::`scalar deleting destructor'
PUBLIC	??_7?$CDynamicPoolEx@VCHeaderDecorator@NEffectUpdateDecorator@@@@6B@ ; CDynamicPoolEx<NEffectUpdateDecorator::CHeaderDecorator>::`vftable'
PUBLIC	??_G?$CDynamicPoolEx@VCHeaderDecorator@NEffectUpdateDecorator@@@@UAEPAXI@Z ; CDynamicPoolEx<NEffectUpdateDecorator::CHeaderDecorator>::`scalar deleting destructor'
PUBLIC	??_R4?$CDynamicPoolEx@VCHeaderDecorator@NEffectUpdateDecorator@@@@6B@ ; CDynamicPoolEx<NEffectUpdateDecorator::CHeaderDecorator>::`RTTI Complete Object Locator'
PUBLIC	??_R0?AV?$CDynamicPoolEx@VCHeaderDecorator@NEffectUpdateDecorator@@@@@8 ; CDynamicPoolEx<NEffectUpdateDecorator::CHeaderDecorator> `RTTI Type Descriptor'
PUBLIC	??_R3?$CDynamicPoolEx@VCHeaderDecorator@NEffectUpdateDecorator@@@@8 ; CDynamicPoolEx<NEffectUpdateDecorator::CHeaderDecorator>::`RTTI Class Hierarchy Descriptor'
PUBLIC	??_R2?$CDynamicPoolEx@VCHeaderDecorator@NEffectUpdateDecorator@@@@8 ; CDynamicPoolEx<NEffectUpdateDecorator::CHeaderDecorator>::`RTTI Base Class Array'
PUBLIC	??_R1A@?0A@EA@?$CDynamicPoolEx@VCHeaderDecorator@NEffectUpdateDecorator@@@@8 ; CDynamicPoolEx<NEffectUpdateDecorator::CHeaderDecorator>::`RTTI Base Class Descriptor at (0,-1,0,64)'
PUBLIC	??_R4?$CDynamicPoolEx@VCNullDecorator@NEffectUpdateDecorator@@@@6B@ ; CDynamicPoolEx<NEffectUpdateDecorator::CNullDecorator>::`RTTI Complete Object Locator'
PUBLIC	??_R0?AV?$CDynamicPoolEx@VCNullDecorator@NEffectUpdateDecorator@@@@@8 ; CDynamicPoolEx<NEffectUpdateDecorator::CNullDecorator> `RTTI Type Descriptor'
PUBLIC	??_R3?$CDynamicPoolEx@VCNullDecorator@NEffectUpdateDecorator@@@@8 ; CDynamicPoolEx<NEffectUpdateDecorator::CNullDecorator>::`RTTI Class Hierarchy Descriptor'
PUBLIC	??_R2?$CDynamicPoolEx@VCNullDecorator@NEffectUpdateDecorator@@@@8 ; CDynamicPoolEx<NEffectUpdateDecorator::CNullDecorator>::`RTTI Base Class Array'
PUBLIC	??_R1A@?0A@EA@?$CDynamicPoolEx@VCNullDecorator@NEffectUpdateDecorator@@@@8 ; CDynamicPoolEx<NEffectUpdateDecorator::CNullDecorator>::`RTTI Base Class Descriptor at (0,-1,0,64)'
PUBLIC	??_R4?$CDynamicPoolEx@VCTextureAnimationCWDecorator@NEffectUpdateDecorator@@@@6B@ ; CDynamicPoolEx<NEffectUpdateDecorator::CTextureAnimationCWDecorator>::`RTTI Complete Object Locator'
PUBLIC	??_R0?AV?$CDynamicPoolEx@VCTextureAnimationCWDecorator@NEffectUpdateDecorator@@@@@8 ; CDynamicPoolEx<NEffectUpdateDecorator::CTextureAnimationCWDecorator> `RTTI Type Descriptor'
PUBLIC	??_R3?$CDynamicPoolEx@VCTextureAnimationCWDecorator@NEffectUpdateDecorator@@@@8 ; CDynamicPoolEx<NEffectUpdateDecorator::CTextureAnimationCWDecorator>::`RTTI Class Hierarchy Descriptor'
PUBLIC	??_R2?$CDynamicPoolEx@VCTextureAnimationCWDecorator@NEffectUpdateDecorator@@@@8 ; CDynamicPoolEx<NEffectUpdateDecorator::CTextureAnimationCWDecorator>::`RTTI Base Class Array'
PUBLIC	??_R1A@?0A@EA@?$CDynamicPoolEx@VCTextureAnimationCWDecorator@NEffectUpdateDecorator@@@@8 ; CDynamicPoolEx<NEffectUpdateDecorator::CTextureAnimationCWDecorator>::`RTTI Base Class Descriptor at (0,-1,0,64)'
PUBLIC	??_R4?$CDynamicPoolEx@VCTextureAnimationCCWDecorator@NEffectUpdateDecorator@@@@6B@ ; CDynamicPoolEx<NEffectUpdateDecorator::CTextureAnimationCCWDecorator>::`RTTI Complete Object Locator'
PUBLIC	??_R0?AV?$CDynamicPoolEx@VCTextureAnimationCCWDecorator@NEffectUpdateDecorator@@@@@8 ; CDynamicPoolEx<NEffectUpdateDecorator::CTextureAnimationCCWDecorator> `RTTI Type Descriptor'
PUBLIC	??_R3?$CDynamicPoolEx@VCTextureAnimationCCWDecorator@NEffectUpdateDecorator@@@@8 ; CDynamicPoolEx<NEffectUpdateDecorator::CTextureAnimationCCWDecorator>::`RTTI Class Hierarchy Descriptor'
PUBLIC	??_R2?$CDynamicPoolEx@VCTextureAnimationCCWDecorator@NEffectUpdateDecorator@@@@8 ; CDynamicPoolEx<NEffectUpdateDecorator::CTextureAnimationCCWDecorator>::`RTTI Base Class Array'
PUBLIC	??_R1A@?0A@EA@?$CDynamicPoolEx@VCTextureAnimationCCWDecorator@NEffectUpdateDecorator@@@@8 ; CDynamicPoolEx<NEffectUpdateDecorator::CTextureAnimationCCWDecorator>::`RTTI Base Class Descriptor at (0,-1,0,64)'
PUBLIC	??_R4?$CDynamicPoolEx@VCTextureAnimationRandomDecorator@NEffectUpdateDecorator@@@@6B@ ; CDynamicPoolEx<NEffectUpdateDecorator::CTextureAnimationRandomDecorator>::`RTTI Complete Object Locator'
PUBLIC	??_R0?AV?$CDynamicPoolEx@VCTextureAnimationRandomDecorator@NEffectUpdateDecorator@@@@@8 ; CDynamicPoolEx<NEffectUpdateDecorator::CTextureAnimationRandomDecorator> `RTTI Type Descriptor'
PUBLIC	??_R3?$CDynamicPoolEx@VCTextureAnimationRandomDecorator@NEffectUpdateDecorator@@@@8 ; CDynamicPoolEx<NEffectUpdateDecorator::CTextureAnimationRandomDecorator>::`RTTI Class Hierarchy Descriptor'
PUBLIC	??_R2?$CDynamicPoolEx@VCTextureAnimationRandomDecorator@NEffectUpdateDecorator@@@@8 ; CDynamicPoolEx<NEffectUpdateDecorator::CTextureAnimationRandomDecorator>::`RTTI Base Class Array'
PUBLIC	??_R1A@?0A@EA@?$CDynamicPoolEx@VCTextureAnimationRandomDecorator@NEffectUpdateDecorator@@@@8 ; CDynamicPoolEx<NEffectUpdateDecorator::CTextureAnimationRandomDecorator>::`RTTI Base Class Descriptor at (0,-1,0,64)'
PUBLIC	??_R4?$CDynamicPoolEx@VCAirResistanceDecorator@NEffectUpdateDecorator@@@@6B@ ; CDynamicPoolEx<NEffectUpdateDecorator::CAirResistanceDecorator>::`RTTI Complete Object Locator'
PUBLIC	??_R0?AV?$CDynamicPoolEx@VCAirResistanceDecorator@NEffectUpdateDecorator@@@@@8 ; CDynamicPoolEx<NEffectUpdateDecorator::CAirResistanceDecorator> `RTTI Type Descriptor'
PUBLIC	??_R3?$CDynamicPoolEx@VCAirResistanceDecorator@NEffectUpdateDecorator@@@@8 ; CDynamicPoolEx<NEffectUpdateDecorator::CAirResistanceDecorator>::`RTTI Class Hierarchy Descriptor'
PUBLIC	??_R2?$CDynamicPoolEx@VCAirResistanceDecorator@NEffectUpdateDecorator@@@@8 ; CDynamicPoolEx<NEffectUpdateDecorator::CAirResistanceDecorator>::`RTTI Base Class Array'
PUBLIC	??_R1A@?0A@EA@?$CDynamicPoolEx@VCAirResistanceDecorator@NEffectUpdateDecorator@@@@8 ; CDynamicPoolEx<NEffectUpdateDecorator::CAirResistanceDecorator>::`RTTI Base Class Descriptor at (0,-1,0,64)'
PUBLIC	??_R4?$CDynamicPoolEx@VCGravityDecorator@NEffectUpdateDecorator@@@@6B@ ; CDynamicPoolEx<NEffectUpdateDecorator::CGravityDecorator>::`RTTI Complete Object Locator'
PUBLIC	??_R0?AV?$CDynamicPoolEx@VCGravityDecorator@NEffectUpdateDecorator@@@@@8 ; CDynamicPoolEx<NEffectUpdateDecorator::CGravityDecorator> `RTTI Type Descriptor'
PUBLIC	??_R3?$CDynamicPoolEx@VCGravityDecorator@NEffectUpdateDecorator@@@@8 ; CDynamicPoolEx<NEffectUpdateDecorator::CGravityDecorator>::`RTTI Class Hierarchy Descriptor'
PUBLIC	??_R2?$CDynamicPoolEx@VCGravityDecorator@NEffectUpdateDecorator@@@@8 ; CDynamicPoolEx<NEffectUpdateDecorator::CGravityDecorator>::`RTTI Base Class Array'
PUBLIC	??_R1A@?0A@EA@?$CDynamicPoolEx@VCGravityDecorator@NEffectUpdateDecorator@@@@8 ; CDynamicPoolEx<NEffectUpdateDecorator::CGravityDecorator>::`RTTI Base Class Descriptor at (0,-1,0,64)'
PUBLIC	??_R4?$CDynamicPoolEx@VCRotationDecorator@NEffectUpdateDecorator@@@@6B@ ; CDynamicPoolEx<NEffectUpdateDecorator::CRotationDecorator>::`RTTI Complete Object Locator'
PUBLIC	??_R0?AV?$CDynamicPoolEx@VCRotationDecorator@NEffectUpdateDecorator@@@@@8 ; CDynamicPoolEx<NEffectUpdateDecorator::CRotationDecorator> `RTTI Type Descriptor'
PUBLIC	??_R3?$CDynamicPoolEx@VCRotationDecorator@NEffectUpdateDecorator@@@@8 ; CDynamicPoolEx<NEffectUpdateDecorator::CRotationDecorator>::`RTTI Class Hierarchy Descriptor'
PUBLIC	??_R2?$CDynamicPoolEx@VCRotationDecorator@NEffectUpdateDecorator@@@@8 ; CDynamicPoolEx<NEffectUpdateDecorator::CRotationDecorator>::`RTTI Base Class Array'
PUBLIC	??_R1A@?0A@EA@?$CDynamicPoolEx@VCRotationDecorator@NEffectUpdateDecorator@@@@8 ; CDynamicPoolEx<NEffectUpdateDecorator::CRotationDecorator>::`RTTI Base Class Descriptor at (0,-1,0,64)'
PUBLIC	??_R4?$CDynamicPool@VCRaceMotionData@@@@6B@	; CDynamicPool<CRaceMotionData>::`RTTI Complete Object Locator'
PUBLIC	??_R0?AV?$CDynamicPool@VCRaceMotionData@@@@@8	; CDynamicPool<CRaceMotionData> `RTTI Type Descriptor'
PUBLIC	??_R3?$CDynamicPool@VCRaceMotionData@@@@8	; CDynamicPool<CRaceMotionData>::`RTTI Class Hierarchy Descriptor'
PUBLIC	??_R2?$CDynamicPool@VCRaceMotionData@@@@8	; CDynamicPool<CRaceMotionData>::`RTTI Base Class Array'
PUBLIC	??_R1A@?0A@EA@?$CDynamicPool@VCRaceMotionData@@@@8 ; CDynamicPool<CRaceMotionData>::`RTTI Base Class Descriptor at (0,-1,0,64)'
EXTRN	??_E?$CDynamicPool@VCRaceMotionData@@@@UAEPAXI@Z:PROC ; CDynamicPool<CRaceMotionData>::`vector deleting destructor'
EXTRN	??_E?$CDynamicPoolEx@VCRotationDecorator@NEffectUpdateDecorator@@@@UAEPAXI@Z:PROC ; CDynamicPoolEx<NEffectUpdateDecorator::CRotationDecorator>::`vector deleting destructor'
EXTRN	??_E?$CDynamicPoolEx@VCGravityDecorator@NEffectUpdateDecorator@@@@UAEPAXI@Z:PROC ; CDynamicPoolEx<NEffectUpdateDecorator::CGravityDecorator>::`vector deleting destructor'
EXTRN	??_E?$CDynamicPoolEx@VCAirResistanceDecorator@NEffectUpdateDecorator@@@@UAEPAXI@Z:PROC ; CDynamicPoolEx<NEffectUpdateDecorator::CAirResistanceDecorator>::`vector deleting destructor'
EXTRN	??_E?$CDynamicPoolEx@VCTextureAnimationRandomDecorator@NEffectUpdateDecorator@@@@UAEPAXI@Z:PROC ; CDynamicPoolEx<NEffectUpdateDecorator::CTextureAnimationRandomDecorator>::`vector deleting destructor'
EXTRN	??_E?$CDynamicPoolEx@VCTextureAnimationCCWDecorator@NEffectUpdateDecorator@@@@UAEPAXI@Z:PROC ; CDynamicPoolEx<NEffectUpdateDecorator::CTextureAnimationCCWDecorator>::`vector deleting destructor'
EXTRN	??_E?$CDynamicPoolEx@VCTextureAnimationCWDecorator@NEffectUpdateDecorator@@@@UAEPAXI@Z:PROC ; CDynamicPoolEx<NEffectUpdateDecorator::CTextureAnimationCWDecorator>::`vector deleting destructor'
EXTRN	??_E?$CDynamicPoolEx@VCNullDecorator@NEffectUpdateDecorator@@@@UAEPAXI@Z:PROC ; CDynamicPoolEx<NEffectUpdateDecorator::CNullDecorator>::`vector deleting destructor'
EXTRN	??_E?$CDynamicPoolEx@VCHeaderDecorator@NEffectUpdateDecorator@@@@UAEPAXI@Z:PROC ; CDynamicPoolEx<NEffectUpdateDecorator::CHeaderDecorator>::`vector deleting destructor'
EXTRN	??_7type_info@@6B@:QWORD			; type_info::`vftable'
;	COMDAT ??_R1A@?0A@EA@?$CDynamicPool@VCRaceMotionData@@@@8
rdata$r	SEGMENT
??_R1A@?0A@EA@?$CDynamicPool@VCRaceMotionData@@@@8 DD FLAT:??_R0?AV?$CDynamicPool@VCRaceMotionData@@@@@8 ; CDynamicPool<CRaceMotionData>::`RTTI Base Class Descriptor at (0,-1,0,64)'
	DD	00H
	DD	00H
	DD	0ffffffffH
	DD	00H
	DD	040H
	DD	FLAT:??_R3?$CDynamicPool@VCRaceMotionData@@@@8
rdata$r	ENDS
;	COMDAT ??_R2?$CDynamicPool@VCRaceMotionData@@@@8
rdata$r	SEGMENT
??_R2?$CDynamicPool@VCRaceMotionData@@@@8 DD FLAT:??_R1A@?0A@EA@?$CDynamicPool@VCRaceMotionData@@@@8 ; CDynamicPool<CRaceMotionData>::`RTTI Base Class Array'
rdata$r	ENDS
;	COMDAT ??_R3?$CDynamicPool@VCRaceMotionData@@@@8
rdata$r	SEGMENT
??_R3?$CDynamicPool@VCRaceMotionData@@@@8 DD 00H	; CDynamicPool<CRaceMotionData>::`RTTI Class Hierarchy Descriptor'
	DD	00H
	DD	01H
	DD	FLAT:??_R2?$CDynamicPool@VCRaceMotionData@@@@8
rdata$r	ENDS
;	COMDAT ??_R0?AV?$CDynamicPool@VCRaceMotionData@@@@@8
data$rs	SEGMENT
??_R0?AV?$CDynamicPool@VCRaceMotionData@@@@@8 DD FLAT:??_7type_info@@6B@ ; CDynamicPool<CRaceMotionData> `RTTI Type Descriptor'
	DD	00H
	DB	'.?AV?$CDynamicPool@VCRaceMotionData@@@@', 00H
data$rs	ENDS
;	COMDAT ??_R4?$CDynamicPool@VCRaceMotionData@@@@6B@
rdata$r	SEGMENT
??_R4?$CDynamicPool@VCRaceMotionData@@@@6B@ DD 00H	; CDynamicPool<CRaceMotionData>::`RTTI Complete Object Locator'
	DD	00H
	DD	00H
	DD	FLAT:??_R0?AV?$CDynamicPool@VCRaceMotionData@@@@@8
	DD	FLAT:??_R3?$CDynamicPool@VCRaceMotionData@@@@8
rdata$r	ENDS
;	COMDAT ??_R1A@?0A@EA@?$CDynamicPoolEx@VCRotationDecorator@NEffectUpdateDecorator@@@@8
rdata$r	SEGMENT
??_R1A@?0A@EA@?$CDynamicPoolEx@VCRotationDecorator@NEffectUpdateDecorator@@@@8 DD FLAT:??_R0?AV?$CDynamicPoolEx@VCRotationDecorator@NEffectUpdateDecorator@@@@@8 ; CDynamicPoolEx<NEffectUpdateDecorator::CRotationDecorator>::`RTTI Base Class Descriptor at (0,-1,0,64)'
	DD	00H
	DD	00H
	DD	0ffffffffH
	DD	00H
	DD	040H
	DD	FLAT:??_R3?$CDynamicPoolEx@VCRotationDecorator@NEffectUpdateDecorator@@@@8
rdata$r	ENDS
;	COMDAT ??_R2?$CDynamicPoolEx@VCRotationDecorator@NEffectUpdateDecorator@@@@8
rdata$r	SEGMENT
??_R2?$CDynamicPoolEx@VCRotationDecorator@NEffectUpdateDecorator@@@@8 DD FLAT:??_R1A@?0A@EA@?$CDynamicPoolEx@VCRotationDecorator@NEffectUpdateDecorator@@@@8 ; CDynamicPoolEx<NEffectUpdateDecorator::CRotationDecorator>::`RTTI Base Class Array'
rdata$r	ENDS
;	COMDAT ??_R3?$CDynamicPoolEx@VCRotationDecorator@NEffectUpdateDecorator@@@@8
rdata$r	SEGMENT
??_R3?$CDynamicPoolEx@VCRotationDecorator@NEffectUpdateDecorator@@@@8 DD 00H ; CDynamicPoolEx<NEffectUpdateDecorator::CRotationDecorator>::`RTTI Class Hierarchy Descriptor'
	DD	00H
	DD	01H
	DD	FLAT:??_R2?$CDynamicPoolEx@VCRotationDecorator@NEffectUpdateDecorator@@@@8
rdata$r	ENDS
;	COMDAT ??_R0?AV?$CDynamicPoolEx@VCRotationDecorator@NEffectUpdateDecorator@@@@@8
data$rs	SEGMENT
??_R0?AV?$CDynamicPoolEx@VCRotationDecorator@NEffectUpdateDecorator@@@@@8 DD FLAT:??_7type_info@@6B@ ; CDynamicPoolEx<NEffectUpdateDecorator::CRotationDecorator> `RTTI Type Descriptor'
	DD	00H
	DB	'.?AV?$CDynamicPoolEx@VCRotationDecorator@NEffectUpdateDe'
	DB	'corator@@@@', 00H
data$rs	ENDS
;	COMDAT ??_R4?$CDynamicPoolEx@VCRotationDecorator@NEffectUpdateDecorator@@@@6B@
rdata$r	SEGMENT
??_R4?$CDynamicPoolEx@VCRotationDecorator@NEffectUpdateDecorator@@@@6B@ DD 00H ; CDynamicPoolEx<NEffectUpdateDecorator::CRotationDecorator>::`RTTI Complete Object Locator'
	DD	00H
	DD	00H
	DD	FLAT:??_R0?AV?$CDynamicPoolEx@VCRotationDecorator@NEffectUpdateDecorator@@@@@8
	DD	FLAT:??_R3?$CDynamicPoolEx@VCRotationDecorator@NEffectUpdateDecorator@@@@8
rdata$r	ENDS
;	COMDAT ??_R1A@?0A@EA@?$CDynamicPoolEx@VCGravityDecorator@NEffectUpdateDecorator@@@@8
rdata$r	SEGMENT
??_R1A@?0A@EA@?$CDynamicPoolEx@VCGravityDecorator@NEffectUpdateDecorator@@@@8 DD FLAT:??_R0?AV?$CDynamicPoolEx@VCGravityDecorator@NEffectUpdateDecorator@@@@@8 ; CDynamicPoolEx<NEffectUpdateDecorator::CGravityDecorator>::`RTTI Base Class Descriptor at (0,-1,0,64)'
	DD	00H
	DD	00H
	DD	0ffffffffH
	DD	00H
	DD	040H
	DD	FLAT:??_R3?$CDynamicPoolEx@VCGravityDecorator@NEffectUpdateDecorator@@@@8
rdata$r	ENDS
;	COMDAT ??_R2?$CDynamicPoolEx@VCGravityDecorator@NEffectUpdateDecorator@@@@8
rdata$r	SEGMENT
??_R2?$CDynamicPoolEx@VCGravityDecorator@NEffectUpdateDecorator@@@@8 DD FLAT:??_R1A@?0A@EA@?$CDynamicPoolEx@VCGravityDecorator@NEffectUpdateDecorator@@@@8 ; CDynamicPoolEx<NEffectUpdateDecorator::CGravityDecorator>::`RTTI Base Class Array'
rdata$r	ENDS
;	COMDAT ??_R3?$CDynamicPoolEx@VCGravityDecorator@NEffectUpdateDecorator@@@@8
rdata$r	SEGMENT
??_R3?$CDynamicPoolEx@VCGravityDecorator@NEffectUpdateDecorator@@@@8 DD 00H ; CDynamicPoolEx<NEffectUpdateDecorator::CGravityDecorator>::`RTTI Class Hierarchy Descriptor'
	DD	00H
	DD	01H
	DD	FLAT:??_R2?$CDynamicPoolEx@VCGravityDecorator@NEffectUpdateDecorator@@@@8
rdata$r	ENDS
;	COMDAT ??_R0?AV?$CDynamicPoolEx@VCGravityDecorator@NEffectUpdateDecorator@@@@@8
data$rs	SEGMENT
??_R0?AV?$CDynamicPoolEx@VCGravityDecorator@NEffectUpdateDecorator@@@@@8 DD FLAT:??_7type_info@@6B@ ; CDynamicPoolEx<NEffectUpdateDecorator::CGravityDecorator> `RTTI Type Descriptor'
	DD	00H
	DB	'.?AV?$CDynamicPoolEx@VCGravityDecorator@NEffectUpdateDec'
	DB	'orator@@@@', 00H
data$rs	ENDS
;	COMDAT ??_R4?$CDynamicPoolEx@VCGravityDecorator@NEffectUpdateDecorator@@@@6B@
rdata$r	SEGMENT
??_R4?$CDynamicPoolEx@VCGravityDecorator@NEffectUpdateDecorator@@@@6B@ DD 00H ; CDynamicPoolEx<NEffectUpdateDecorator::CGravityDecorator>::`RTTI Complete Object Locator'
	DD	00H
	DD	00H
	DD	FLAT:??_R0?AV?$CDynamicPoolEx@VCGravityDecorator@NEffectUpdateDecorator@@@@@8
	DD	FLAT:??_R3?$CDynamicPoolEx@VCGravityDecorator@NEffectUpdateDecorator@@@@8
rdata$r	ENDS
;	COMDAT ??_R1A@?0A@EA@?$CDynamicPoolEx@VCAirResistanceDecorator@NEffectUpdateDecorator@@@@8
rdata$r	SEGMENT
??_R1A@?0A@EA@?$CDynamicPoolEx@VCAirResistanceDecorator@NEffectUpdateDecorator@@@@8 DD FLAT:??_R0?AV?$CDynamicPoolEx@VCAirResistanceDecorator@NEffectUpdateDecorator@@@@@8 ; CDynamicPoolEx<NEffectUpdateDecorator::CAirResistanceDecorator>::`RTTI Base Class Descriptor at (0,-1,0,64)'
	DD	00H
	DD	00H
	DD	0ffffffffH
	DD	00H
	DD	040H
	DD	FLAT:??_R3?$CDynamicPoolEx@VCAirResistanceDecorator@NEffectUpdateDecorator@@@@8
rdata$r	ENDS
;	COMDAT ??_R2?$CDynamicPoolEx@VCAirResistanceDecorator@NEffectUpdateDecorator@@@@8
rdata$r	SEGMENT
??_R2?$CDynamicPoolEx@VCAirResistanceDecorator@NEffectUpdateDecorator@@@@8 DD FLAT:??_R1A@?0A@EA@?$CDynamicPoolEx@VCAirResistanceDecorator@NEffectUpdateDecorator@@@@8 ; CDynamicPoolEx<NEffectUpdateDecorator::CAirResistanceDecorator>::`RTTI Base Class Array'
rdata$r	ENDS
;	COMDAT ??_R3?$CDynamicPoolEx@VCAirResistanceDecorator@NEffectUpdateDecorator@@@@8
rdata$r	SEGMENT
??_R3?$CDynamicPoolEx@VCAirResistanceDecorator@NEffectUpdateDecorator@@@@8 DD 00H ; CDynamicPoolEx<NEffectUpdateDecorator::CAirResistanceDecorator>::`RTTI Class Hierarchy Descriptor'
	DD	00H
	DD	01H
	DD	FLAT:??_R2?$CDynamicPoolEx@VCAirResistanceDecorator@NEffectUpdateDecorator@@@@8
rdata$r	ENDS
;	COMDAT ??_R0?AV?$CDynamicPoolEx@VCAirResistanceDecorator@NEffectUpdateDecorator@@@@@8
data$rs	SEGMENT
??_R0?AV?$CDynamicPoolEx@VCAirResistanceDecorator@NEffectUpdateDecorator@@@@@8 DD FLAT:??_7type_info@@6B@ ; CDynamicPoolEx<NEffectUpdateDecorator::CAirResistanceDecorator> `RTTI Type Descriptor'
	DD	00H
	DB	'.?AV?$CDynamicPoolEx@VCAirResistanceDecorator@NEffectUpd'
	DB	'ateDecorator@@@@', 00H
data$rs	ENDS
;	COMDAT ??_R4?$CDynamicPoolEx@VCAirResistanceDecorator@NEffectUpdateDecorator@@@@6B@
rdata$r	SEGMENT
??_R4?$CDynamicPoolEx@VCAirResistanceDecorator@NEffectUpdateDecorator@@@@6B@ DD 00H ; CDynamicPoolEx<NEffectUpdateDecorator::CAirResistanceDecorator>::`RTTI Complete Object Locator'
	DD	00H
	DD	00H
	DD	FLAT:??_R0?AV?$CDynamicPoolEx@VCAirResistanceDecorator@NEffectUpdateDecorator@@@@@8
	DD	FLAT:??_R3?$CDynamicPoolEx@VCAirResistanceDecorator@NEffectUpdateDecorator@@@@8
rdata$r	ENDS
;	COMDAT ??_R1A@?0A@EA@?$CDynamicPoolEx@VCTextureAnimationRandomDecorator@NEffectUpdateDecorator@@@@8
rdata$r	SEGMENT
??_R1A@?0A@EA@?$CDynamicPoolEx@VCTextureAnimationRandomDecorator@NEffectUpdateDecorator@@@@8 DD FLAT:??_R0?AV?$CDynamicPoolEx@VCTextureAnimationRandomDecorator@NEffectUpdateDecorator@@@@@8 ; CDynamicPoolEx<NEffectUpdateDecorator::CTextureAnimationRandomDecorator>::`RTTI Base Class Descriptor at (0,-1,0,64)'
	DD	00H
	DD	00H
	DD	0ffffffffH
	DD	00H
	DD	040H
	DD	FLAT:??_R3?$CDynamicPoolEx@VCTextureAnimationRandomDecorator@NEffectUpdateDecorator@@@@8
rdata$r	ENDS
;	COMDAT ??_R2?$CDynamicPoolEx@VCTextureAnimationRandomDecorator@NEffectUpdateDecorator@@@@8
rdata$r	SEGMENT
??_R2?$CDynamicPoolEx@VCTextureAnimationRandomDecorator@NEffectUpdateDecorator@@@@8 DD FLAT:??_R1A@?0A@EA@?$CDynamicPoolEx@VCTextureAnimationRandomDecorator@NEffectUpdateDecorator@@@@8 ; CDynamicPoolEx<NEffectUpdateDecorator::CTextureAnimationRandomDecorator>::`RTTI Base Class Array'
rdata$r	ENDS
;	COMDAT ??_R3?$CDynamicPoolEx@VCTextureAnimationRandomDecorator@NEffectUpdateDecorator@@@@8
rdata$r	SEGMENT
??_R3?$CDynamicPoolEx@VCTextureAnimationRandomDecorator@NEffectUpdateDecorator@@@@8 DD 00H ; CDynamicPoolEx<NEffectUpdateDecorator::CTextureAnimationRandomDecorator>::`RTTI Class Hierarchy Descriptor'
	DD	00H
	DD	01H
	DD	FLAT:??_R2?$CDynamicPoolEx@VCTextureAnimationRandomDecorator@NEffectUpdateDecorator@@@@8
rdata$r	ENDS
;	COMDAT ??_R0?AV?$CDynamicPoolEx@VCTextureAnimationRandomDecorator@NEffectUpdateDecorator@@@@@8
data$rs	SEGMENT
??_R0?AV?$CDynamicPoolEx@VCTextureAnimationRandomDecorator@NEffectUpdateDecorator@@@@@8 DD FLAT:??_7type_info@@6B@ ; CDynamicPoolEx<NEffectUpdateDecorator::CTextureAnimationRandomDecorator> `RTTI Type Descriptor'
	DD	00H
	DB	'.?AV?$CDynamicPoolEx@VCTextureAnimationRandomDecorator@N'
	DB	'EffectUpdateDecorator@@@@', 00H
data$rs	ENDS
;	COMDAT ??_R4?$CDynamicPoolEx@VCTextureAnimationRandomDecorator@NEffectUpdateDecorator@@@@6B@
rdata$r	SEGMENT
??_R4?$CDynamicPoolEx@VCTextureAnimationRandomDecorator@NEffectUpdateDecorator@@@@6B@ DD 00H ; CDynamicPoolEx<NEffectUpdateDecorator::CTextureAnimationRandomDecorator>::`RTTI Complete Object Locator'
	DD	00H
	DD	00H
	DD	FLAT:??_R0?AV?$CDynamicPoolEx@VCTextureAnimationRandomDecorator@NEffectUpdateDecorator@@@@@8
	DD	FLAT:??_R3?$CDynamicPoolEx@VCTextureAnimationRandomDecorator@NEffectUpdateDecorator@@@@8
rdata$r	ENDS
;	COMDAT ??_R1A@?0A@EA@?$CDynamicPoolEx@VCTextureAnimationCCWDecorator@NEffectUpdateDecorator@@@@8
rdata$r	SEGMENT
??_R1A@?0A@EA@?$CDynamicPoolEx@VCTextureAnimationCCWDecorator@NEffectUpdateDecorator@@@@8 DD FLAT:??_R0?AV?$CDynamicPoolEx@VCTextureAnimationCCWDecorator@NEffectUpdateDecorator@@@@@8 ; CDynamicPoolEx<NEffectUpdateDecorator::CTextureAnimationCCWDecorator>::`RTTI Base Class Descriptor at (0,-1,0,64)'
	DD	00H
	DD	00H
	DD	0ffffffffH
	DD	00H
	DD	040H
	DD	FLAT:??_R3?$CDynamicPoolEx@VCTextureAnimationCCWDecorator@NEffectUpdateDecorator@@@@8
rdata$r	ENDS
;	COMDAT ??_R2?$CDynamicPoolEx@VCTextureAnimationCCWDecorator@NEffectUpdateDecorator@@@@8
rdata$r	SEGMENT
??_R2?$CDynamicPoolEx@VCTextureAnimationCCWDecorator@NEffectUpdateDecorator@@@@8 DD FLAT:??_R1A@?0A@EA@?$CDynamicPoolEx@VCTextureAnimationCCWDecorator@NEffectUpdateDecorator@@@@8 ; CDynamicPoolEx<NEffectUpdateDecorator::CTextureAnimationCCWDecorator>::`RTTI Base Class Array'
rdata$r	ENDS
;	COMDAT ??_R3?$CDynamicPoolEx@VCTextureAnimationCCWDecorator@NEffectUpdateDecorator@@@@8
rdata$r	SEGMENT
??_R3?$CDynamicPoolEx@VCTextureAnimationCCWDecorator@NEffectUpdateDecorator@@@@8 DD 00H ; CDynamicPoolEx<NEffectUpdateDecorator::CTextureAnimationCCWDecorator>::`RTTI Class Hierarchy Descriptor'
	DD	00H
	DD	01H
	DD	FLAT:??_R2?$CDynamicPoolEx@VCTextureAnimationCCWDecorator@NEffectUpdateDecorator@@@@8
rdata$r	ENDS
;	COMDAT ??_R0?AV?$CDynamicPoolEx@VCTextureAnimationCCWDecorator@NEffectUpdateDecorator@@@@@8
data$rs	SEGMENT
??_R0?AV?$CDynamicPoolEx@VCTextureAnimationCCWDecorator@NEffectUpdateDecorator@@@@@8 DD FLAT:??_7type_info@@6B@ ; CDynamicPoolEx<NEffectUpdateDecorator::CTextureAnimationCCWDecorator> `RTTI Type Descriptor'
	DD	00H
	DB	'.?AV?$CDynamicPoolEx@VCTextureAnimationCCWDecorator@NEff'
	DB	'ectUpdateDecorator@@@@', 00H
data$rs	ENDS
;	COMDAT ??_R4?$CDynamicPoolEx@VCTextureAnimationCCWDecorator@NEffectUpdateDecorator@@@@6B@
rdata$r	SEGMENT
??_R4?$CDynamicPoolEx@VCTextureAnimationCCWDecorator@NEffectUpdateDecorator@@@@6B@ DD 00H ; CDynamicPoolEx<NEffectUpdateDecorator::CTextureAnimationCCWDecorator>::`RTTI Complete Object Locator'
	DD	00H
	DD	00H
	DD	FLAT:??_R0?AV?$CDynamicPoolEx@VCTextureAnimationCCWDecorator@NEffectUpdateDecorator@@@@@8
	DD	FLAT:??_R3?$CDynamicPoolEx@VCTextureAnimationCCWDecorator@NEffectUpdateDecorator@@@@8
rdata$r	ENDS
;	COMDAT ??_R1A@?0A@EA@?$CDynamicPoolEx@VCTextureAnimationCWDecorator@NEffectUpdateDecorator@@@@8
rdata$r	SEGMENT
??_R1A@?0A@EA@?$CDynamicPoolEx@VCTextureAnimationCWDecorator@NEffectUpdateDecorator@@@@8 DD FLAT:??_R0?AV?$CDynamicPoolEx@VCTextureAnimationCWDecorator@NEffectUpdateDecorator@@@@@8 ; CDynamicPoolEx<NEffectUpdateDecorator::CTextureAnimationCWDecorator>::`RTTI Base Class Descriptor at (0,-1,0,64)'
	DD	00H
	DD	00H
	DD	0ffffffffH
	DD	00H
	DD	040H
	DD	FLAT:??_R3?$CDynamicPoolEx@VCTextureAnimationCWDecorator@NEffectUpdateDecorator@@@@8
rdata$r	ENDS
;	COMDAT ??_R2?$CDynamicPoolEx@VCTextureAnimationCWDecorator@NEffectUpdateDecorator@@@@8
rdata$r	SEGMENT
??_R2?$CDynamicPoolEx@VCTextureAnimationCWDecorator@NEffectUpdateDecorator@@@@8 DD FLAT:??_R1A@?0A@EA@?$CDynamicPoolEx@VCTextureAnimationCWDecorator@NEffectUpdateDecorator@@@@8 ; CDynamicPoolEx<NEffectUpdateDecorator::CTextureAnimationCWDecorator>::`RTTI Base Class Array'
rdata$r	ENDS
;	COMDAT ??_R3?$CDynamicPoolEx@VCTextureAnimationCWDecorator@NEffectUpdateDecorator@@@@8
rdata$r	SEGMENT
??_R3?$CDynamicPoolEx@VCTextureAnimationCWDecorator@NEffectUpdateDecorator@@@@8 DD 00H ; CDynamicPoolEx<NEffectUpdateDecorator::CTextureAnimationCWDecorator>::`RTTI Class Hierarchy Descriptor'
	DD	00H
	DD	01H
	DD	FLAT:??_R2?$CDynamicPoolEx@VCTextureAnimationCWDecorator@NEffectUpdateDecorator@@@@8
rdata$r	ENDS
;	COMDAT ??_R0?AV?$CDynamicPoolEx@VCTextureAnimationCWDecorator@NEffectUpdateDecorator@@@@@8
data$rs	SEGMENT
??_R0?AV?$CDynamicPoolEx@VCTextureAnimationCWDecorator@NEffectUpdateDecorator@@@@@8 DD FLAT:??_7type_info@@6B@ ; CDynamicPoolEx<NEffectUpdateDecorator::CTextureAnimationCWDecorator> `RTTI Type Descriptor'
	DD	00H
	DB	'.?AV?$CDynamicPoolEx@VCTextureAnimationCWDecorator@NEffe'
	DB	'ctUpdateDecorator@@@@', 00H
data$rs	ENDS
;	COMDAT ??_R4?$CDynamicPoolEx@VCTextureAnimationCWDecorator@NEffectUpdateDecorator@@@@6B@
rdata$r	SEGMENT
??_R4?$CDynamicPoolEx@VCTextureAnimationCWDecorator@NEffectUpdateDecorator@@@@6B@ DD 00H ; CDynamicPoolEx<NEffectUpdateDecorator::CTextureAnimationCWDecorator>::`RTTI Complete Object Locator'
	DD	00H
	DD	00H
	DD	FLAT:??_R0?AV?$CDynamicPoolEx@VCTextureAnimationCWDecorator@NEffectUpdateDecorator@@@@@8
	DD	FLAT:??_R3?$CDynamicPoolEx@VCTextureAnimationCWDecorator@NEffectUpdateDecorator@@@@8
rdata$r	ENDS
;	COMDAT ??_R1A@?0A@EA@?$CDynamicPoolEx@VCNullDecorator@NEffectUpdateDecorator@@@@8
rdata$r	SEGMENT
??_R1A@?0A@EA@?$CDynamicPoolEx@VCNullDecorator@NEffectUpdateDecorator@@@@8 DD FLAT:??_R0?AV?$CDynamicPoolEx@VCNullDecorator@NEffectUpdateDecorator@@@@@8 ; CDynamicPoolEx<NEffectUpdateDecorator::CNullDecorator>::`RTTI Base Class Descriptor at (0,-1,0,64)'
	DD	00H
	DD	00H
	DD	0ffffffffH
	DD	00H
	DD	040H
	DD	FLAT:??_R3?$CDynamicPoolEx@VCNullDecorator@NEffectUpdateDecorator@@@@8
rdata$r	ENDS
;	COMDAT ??_R2?$CDynamicPoolEx@VCNullDecorator@NEffectUpdateDecorator@@@@8
rdata$r	SEGMENT
??_R2?$CDynamicPoolEx@VCNullDecorator@NEffectUpdateDecorator@@@@8 DD FLAT:??_R1A@?0A@EA@?$CDynamicPoolEx@VCNullDecorator@NEffectUpdateDecorator@@@@8 ; CDynamicPoolEx<NEffectUpdateDecorator::CNullDecorator>::`RTTI Base Class Array'
rdata$r	ENDS
;	COMDAT ??_R3?$CDynamicPoolEx@VCNullDecorator@NEffectUpdateDecorator@@@@8
rdata$r	SEGMENT
??_R3?$CDynamicPoolEx@VCNullDecorator@NEffectUpdateDecorator@@@@8 DD 00H ; CDynamicPoolEx<NEffectUpdateDecorator::CNullDecorator>::`RTTI Class Hierarchy Descriptor'
	DD	00H
	DD	01H
	DD	FLAT:??_R2?$CDynamicPoolEx@VCNullDecorator@NEffectUpdateDecorator@@@@8
rdata$r	ENDS
;	COMDAT ??_R0?AV?$CDynamicPoolEx@VCNullDecorator@NEffectUpdateDecorator@@@@@8
data$rs	SEGMENT
??_R0?AV?$CDynamicPoolEx@VCNullDecorator@NEffectUpdateDecorator@@@@@8 DD FLAT:??_7type_info@@6B@ ; CDynamicPoolEx<NEffectUpdateDecorator::CNullDecorator> `RTTI Type Descriptor'
	DD	00H
	DB	'.?AV?$CDynamicPoolEx@VCNullDecorator@NEffectUpdateDecora'
	DB	'tor@@@@', 00H
data$rs	ENDS
;	COMDAT ??_R4?$CDynamicPoolEx@VCNullDecorator@NEffectUpdateDecorator@@@@6B@
rdata$r	SEGMENT
??_R4?$CDynamicPoolEx@VCNullDecorator@NEffectUpdateDecorator@@@@6B@ DD 00H ; CDynamicPoolEx<NEffectUpdateDecorator::CNullDecorator>::`RTTI Complete Object Locator'
	DD	00H
	DD	00H
	DD	FLAT:??_R0?AV?$CDynamicPoolEx@VCNullDecorator@NEffectUpdateDecorator@@@@@8
	DD	FLAT:??_R3?$CDynamicPoolEx@VCNullDecorator@NEffectUpdateDecorator@@@@8
rdata$r	ENDS
;	COMDAT ??_R1A@?0A@EA@?$CDynamicPoolEx@VCHeaderDecorator@NEffectUpdateDecorator@@@@8
rdata$r	SEGMENT
??_R1A@?0A@EA@?$CDynamicPoolEx@VCHeaderDecorator@NEffectUpdateDecorator@@@@8 DD FLAT:??_R0?AV?$CDynamicPoolEx@VCHeaderDecorator@NEffectUpdateDecorator@@@@@8 ; CDynamicPoolEx<NEffectUpdateDecorator::CHeaderDecorator>::`RTTI Base Class Descriptor at (0,-1,0,64)'
	DD	00H
	DD	00H
	DD	0ffffffffH
	DD	00H
	DD	040H
	DD	FLAT:??_R3?$CDynamicPoolEx@VCHeaderDecorator@NEffectUpdateDecorator@@@@8
rdata$r	ENDS
;	COMDAT ??_R2?$CDynamicPoolEx@VCHeaderDecorator@NEffectUpdateDecorator@@@@8
rdata$r	SEGMENT
??_R2?$CDynamicPoolEx@VCHeaderDecorator@NEffectUpdateDecorator@@@@8 DD FLAT:??_R1A@?0A@EA@?$CDynamicPoolEx@VCHeaderDecorator@NEffectUpdateDecorator@@@@8 ; CDynamicPoolEx<NEffectUpdateDecorator::CHeaderDecorator>::`RTTI Base Class Array'
rdata$r	ENDS
;	COMDAT ??_R3?$CDynamicPoolEx@VCHeaderDecorator@NEffectUpdateDecorator@@@@8
rdata$r	SEGMENT
??_R3?$CDynamicPoolEx@VCHeaderDecorator@NEffectUpdateDecorator@@@@8 DD 00H ; CDynamicPoolEx<NEffectUpdateDecorator::CHeaderDecorator>::`RTTI Class Hierarchy Descriptor'
	DD	00H
	DD	01H
	DD	FLAT:??_R2?$CDynamicPoolEx@VCHeaderDecorator@NEffectUpdateDecorator@@@@8
rdata$r	ENDS
;	COMDAT ??_R0?AV?$CDynamicPoolEx@VCHeaderDecorator@NEffectUpdateDecorator@@@@@8
data$rs	SEGMENT
??_R0?AV?$CDynamicPoolEx@VCHeaderDecorator@NEffectUpdateDecorator@@@@@8 DD FLAT:??_7type_info@@6B@ ; CDynamicPoolEx<NEffectUpdateDecorator::CHeaderDecorator> `RTTI Type Descriptor'
	DD	00H
	DB	'.?AV?$CDynamicPoolEx@VCHeaderDecorator@NEffectUpdateDeco'
	DB	'rator@@@@', 00H
data$rs	ENDS
;	COMDAT ??_R4?$CDynamicPoolEx@VCHeaderDecorator@NEffectUpdateDecorator@@@@6B@
rdata$r	SEGMENT
??_R4?$CDynamicPoolEx@VCHeaderDecorator@NEffectUpdateDecorator@@@@6B@ DD 00H ; CDynamicPoolEx<NEffectUpdateDecorator::CHeaderDecorator>::`RTTI Complete Object Locator'
	DD	00H
	DD	00H
	DD	FLAT:??_R0?AV?$CDynamicPoolEx@VCHeaderDecorator@NEffectUpdateDecorator@@@@@8
	DD	FLAT:??_R3?$CDynamicPoolEx@VCHeaderDecorator@NEffectUpdateDecorator@@@@8
rdata$r	ENDS
;	COMDAT ??_7?$CDynamicPoolEx@VCHeaderDecorator@NEffectUpdateDecorator@@@@6B@
CONST	SEGMENT
??_7?$CDynamicPoolEx@VCHeaderDecorator@NEffectUpdateDecorator@@@@6B@ DD FLAT:??_R4?$CDynamicPoolEx@VCHeaderDecorator@NEffectUpdateDecorator@@@@6B@ ; CDynamicPoolEx<NEffectUpdateDecorator::CHeaderDecorator>::`vftable'
	DD	FLAT:??_E?$CDynamicPoolEx@VCHeaderDecorator@NEffectUpdateDecorator@@@@UAEPAXI@Z
CONST	ENDS
;	COMDAT ??_7?$CDynamicPoolEx@VCNullDecorator@NEffectUpdateDecorator@@@@6B@
CONST	SEGMENT
??_7?$CDynamicPoolEx@VCNullDecorator@NEffectUpdateDecorator@@@@6B@ DD FLAT:??_R4?$CDynamicPoolEx@VCNullDecorator@NEffectUpdateDecorator@@@@6B@ ; CDynamicPoolEx<NEffectUpdateDecorator::CNullDecorator>::`vftable'
	DD	FLAT:??_E?$CDynamicPoolEx@VCNullDecorator@NEffectUpdateDecorator@@@@UAEPAXI@Z
CONST	ENDS
;	COMDAT ??_7?$CDynamicPoolEx@VCTextureAnimationCWDecorator@NEffectUpdateDecorator@@@@6B@
CONST	SEGMENT
??_7?$CDynamicPoolEx@VCTextureAnimationCWDecorator@NEffectUpdateDecorator@@@@6B@ DD FLAT:??_R4?$CDynamicPoolEx@VCTextureAnimationCWDecorator@NEffectUpdateDecorator@@@@6B@ ; CDynamicPoolEx<NEffectUpdateDecorator::CTextureAnimationCWDecorator>::`vftable'
	DD	FLAT:??_E?$CDynamicPoolEx@VCTextureAnimationCWDecorator@NEffectUpdateDecorator@@@@UAEPAXI@Z
CONST	ENDS
;	COMDAT ??_7?$CDynamicPoolEx@VCTextureAnimationCCWDecorator@NEffectUpdateDecorator@@@@6B@
CONST	SEGMENT
??_7?$CDynamicPoolEx@VCTextureAnimationCCWDecorator@NEffectUpdateDecorator@@@@6B@ DD FLAT:??_R4?$CDynamicPoolEx@VCTextureAnimationCCWDecorator@NEffectUpdateDecorator@@@@6B@ ; CDynamicPoolEx<NEffectUpdateDecorator::CTextureAnimationCCWDecorator>::`vftable'
	DD	FLAT:??_E?$CDynamicPoolEx@VCTextureAnimationCCWDecorator@NEffectUpdateDecorator@@@@UAEPAXI@Z
CONST	ENDS
;	COMDAT ??_7?$CDynamicPoolEx@VCTextureAnimationRandomDecorator@NEffectUpdateDecorator@@@@6B@
CONST	SEGMENT
??_7?$CDynamicPoolEx@VCTextureAnimationRandomDecorator@NEffectUpdateDecorator@@@@6B@ DD FLAT:??_R4?$CDynamicPoolEx@VCTextureAnimationRandomDecorator@NEffectUpdateDecorator@@@@6B@ ; CDynamicPoolEx<NEffectUpdateDecorator::CTextureAnimationRandomDecorator>::`vftable'
	DD	FLAT:??_E?$CDynamicPoolEx@VCTextureAnimationRandomDecorator@NEffectUpdateDecorator@@@@UAEPAXI@Z
CONST	ENDS
;	COMDAT ??_7?$CDynamicPoolEx@VCAirResistanceDecorator@NEffectUpdateDecorator@@@@6B@
CONST	SEGMENT
??_7?$CDynamicPoolEx@VCAirResistanceDecorator@NEffectUpdateDecorator@@@@6B@ DD FLAT:??_R4?$CDynamicPoolEx@VCAirResistanceDecorator@NEffectUpdateDecorator@@@@6B@ ; CDynamicPoolEx<NEffectUpdateDecorator::CAirResistanceDecorator>::`vftable'
	DD	FLAT:??_E?$CDynamicPoolEx@VCAirResistanceDecorator@NEffectUpdateDecorator@@@@UAEPAXI@Z
CONST	ENDS
;	COMDAT ??_7?$CDynamicPoolEx@VCGravityDecorator@NEffectUpdateDecorator@@@@6B@
CONST	SEGMENT
??_7?$CDynamicPoolEx@VCGravityDecorator@NEffectUpdateDecorator@@@@6B@ DD FLAT:??_R4?$CDynamicPoolEx@VCGravityDecorator@NEffectUpdateDecorator@@@@6B@ ; CDynamicPoolEx<NEffectUpdateDecorator::CGravityDecorator>::`vftable'
	DD	FLAT:??_E?$CDynamicPoolEx@VCGravityDecorator@NEffectUpdateDecorator@@@@UAEPAXI@Z
CONST	ENDS
;	COMDAT ??_7?$CDynamicPoolEx@VCRotationDecorator@NEffectUpdateDecorator@@@@6B@
CONST	SEGMENT
??_7?$CDynamicPoolEx@VCRotationDecorator@NEffectUpdateDecorator@@@@6B@ DD FLAT:??_R4?$CDynamicPoolEx@VCRotationDecorator@NEffectUpdateDecorator@@@@6B@ ; CDynamicPoolEx<NEffectUpdateDecorator::CRotationDecorator>::`vftable'
	DD	FLAT:??_E?$CDynamicPoolEx@VCRotationDecorator@NEffectUpdateDecorator@@@@UAEPAXI@Z
CONST	ENDS
;	COMDAT ??_7?$CDynamicPool@VCRaceMotionData@@@@6B@
CONST	SEGMENT
??_7?$CDynamicPool@VCRaceMotionData@@@@6B@ DD FLAT:??_R4?$CDynamicPool@VCRaceMotionData@@@@6B@ ; CDynamicPool<CRaceMotionData>::`vftable'
	DD	FLAT:??_E?$CDynamicPool@VCRaceMotionData@@@@UAEPAXI@Z
CONST	ENDS
CONST	SEGMENT
?_Fake_alloc@std@@3U_Fake_allocator@1@B	ORG $+1		; std::_Fake_alloc
CONST	ENDS
PUBLIC	??_H@YGXPAXIIP6EPAX0@Z@Z			; `vector constructor iterator'
PUBLIC	?__empty_global_delete@@YAXPAX@Z		; __empty_global_delete
PUBLIC	?__empty_global_delete@@YAXPAXI@Z		; __empty_global_delete
PUBLIC	??0exception@std@@QAE@ABV01@@Z			; std::exception::exception
PUBLIC	??1exception@std@@UAE@XZ			; std::exception::~exception
PUBLIC	?what@exception@std@@UBEPBDXZ			; std::exception::what
PUBLIC	??_Gexception@std@@UAEPAXI@Z			; std::exception::`scalar deleting destructor'
PUBLIC	??0bad_alloc@std@@QAE@ABV01@@Z			; std::bad_alloc::bad_alloc
PUBLIC	??_Gbad_alloc@std@@UAEPAXI@Z			; std::bad_alloc::`scalar deleting destructor'
PUBLIC	??0bad_array_new_length@std@@QAE@XZ		; std::bad_array_new_length::bad_array_new_length
PUBLIC	??1bad_array_new_length@std@@UAE@XZ		; std::bad_array_new_length::~bad_array_new_length
PUBLIC	??0bad_array_new_length@std@@QAE@ABV01@@Z	; std::bad_array_new_length::bad_array_new_length
PUBLIC	??_Gbad_array_new_length@std@@UAEPAXI@Z		; std::bad_array_new_length::`scalar deleting destructor'
PUBLIC	?_Throw_bad_array_new_length@std@@YAXXZ		; std::_Throw_bad_array_new_length
PUBLIC	?_Xlen_string@std@@YAXXZ			; std::_Xlen_string
PUBLIC	??1?$basic_string@DU?$char_traits@D@std@@V?$allocator@D@2@@std@@QAE@XZ ; std::basic_string<char,std::char_traits<char>,std::allocator<char> >::~basic_string<char,std::char_traits<char>,std::allocator<char> >
PUBLIC	?append@?$basic_string@DU?$char_traits@D@std@@V?$allocator@D@2@@std@@QAEAAV12@QBDI@Z ; std::basic_string<char,std::char_traits<char>,std::allocator<char> >::append
PUBLIC	?compare@?$basic_string@DU?$char_traits@D@std@@V?$allocator@D@2@@std@@QBEHQBD@Z ; std::basic_string<char,std::char_traits<char>,std::allocator<char> >::compare
PUBLIC	?NoExtension@CFileNameHelper@@SA?AV?$basic_string@DU?$char_traits@D@std@@V?$allocator@D@2@@std@@AAV23@@Z ; CFileNameHelper::NoExtension
PUBLIC	?size@?$vector@V?$basic_string@DU?$char_traits@D@std@@V?$allocator@D@2@@std@@V?$allocator@V?$basic_string@DU?$char_traits@D@std@@V?$allocator@D@2@@std@@@2@@std@@QBEIXZ ; std::vector<std::basic_string<char,std::char_traits<char>,std::allocator<char> >,std::allocator<std::basic_string<char,std::char_traits<char>,std::allocator<char> > > >::size
PUBLIC	?at@?$vector@V?$basic_string@DU?$char_traits@D@std@@V?$allocator@D@2@@std@@V?$allocator@V?$basic_string@DU?$char_traits@D@std@@V?$allocator@D@2@@std@@@2@@std@@QAEAAV?$basic_string@DU?$char_traits@D@std@@V?$allocator@D@2@@2@I@Z ; std::vector<std::basic_string<char,std::char_traits<char>,std::allocator<char> >,std::allocator<std::basic_string<char,std::char_traits<char>,std::allocator<char> > > >::at
PUBLIC	?_Xrange@?$vector@V?$basic_string@DU?$char_traits@D@std@@V?$allocator@D@2@@std@@V?$allocator@V?$basic_string@DU?$char_traits@D@std@@V?$allocator@D@2@@std@@@2@@std@@CAXXZ ; std::vector<std::basic_string<char,std::char_traits<char>,std::allocator<char> >,std::allocator<std::basic_string<char,std::char_traits<char>,std::allocator<char> > > >::_Xrange
PUBLIC	??1CGotoChild@CTextFileLoader@@QAE@XZ		; CTextFileLoader::CGotoChild::~CGotoChild
PUBLIC	??1?$vector@USHitData@NRaceData@@V?$allocator@USHitData@NRaceData@@@std@@@std@@QAE@XZ ; std::vector<NRaceData::SHitData,std::allocator<NRaceData::SHitData> >::~vector<NRaceData::SHitData,std::allocator<NRaceData::SHitData> >
PUBLIC	??1?$vector@VCSphereCollisionInstance@@V?$allocator@VCSphereCollisionInstance@@@std@@@std@@QAE@XZ ; std::vector<CSphereCollisionInstance,std::allocator<CSphereCollisionInstance> >::~vector<CSphereCollisionInstance,std::allocator<CSphereCollisionInstance> >
PUBLIC	??1SCollisionData@NRaceData@@UAE@XZ		; NRaceData::SCollisionData::~SCollisionData
PUBLIC	??_GSCollisionData@NRaceData@@UAEPAXI@Z		; NRaceData::SCollisionData::`scalar deleting destructor'
PUBLIC	??$_Construct@$00PBD@?$basic_string@DU?$char_traits@D@std@@V?$allocator@D@2@@std@@AAEXQBDI@Z ; std::basic_string<char,std::char_traits<char>,std::allocator<char> >::_Construct<1,char const *>
PUBLIC	??$_Find_last_vectorized@$$CBDD@std@@YAPBDQBD0D@Z ; std::_Find_last_vectorized<char const ,char>
PUBLIC	??$_Allocate_manually_vector_aligned@U_Default_allocate_traits@std@@@std@@YAPAXI@Z ; std::_Allocate_manually_vector_aligned<std::_Default_allocate_traits>
PUBLIC	??1?$vector@USSoundInstance@NSound@@V?$allocator@USSoundInstance@NSound@@@std@@@std@@QAE@XZ ; std::vector<NSound::SSoundInstance,std::allocator<NSound::SSoundInstance> >::~vector<NSound::SSoundInstance,std::allocator<NSound::SSoundInstance> >
PUBLIC	??1SMotionEventData@NMotionEvent@@UAE@XZ	; NMotionEvent::SMotionEventData::~SMotionEventData
PUBLIC	?Load@SMotionEventData@NMotionEvent@@UAE_NAAVCTextFileLoader@@@Z ; NMotionEvent::SMotionEventData::Load
PUBLIC	??_GSMotionEventData@NMotionEvent@@UAEPAXI@Z	; NMotionEvent::SMotionEventData::`scalar deleting destructor'
PUBLIC	??1SMotionEventDataScreenWaving@NMotionEvent@@UAE@XZ ; NMotionEvent::SMotionEventDataScreenWaving::~SMotionEventDataScreenWaving
PUBLIC	?Save@SMotionEventDataScreenWaving@NMotionEvent@@UAEXPAU_iobuf@@H@Z ; NMotionEvent::SMotionEventDataScreenWaving::Save
PUBLIC	?Load@SMotionEventDataScreenWaving@NMotionEvent@@UAE_NAAVCTextFileLoader@@@Z ; NMotionEvent::SMotionEventDataScreenWaving::Load
PUBLIC	??_GSMotionEventDataScreenWaving@NMotionEvent@@UAEPAXI@Z ; NMotionEvent::SMotionEventDataScreenWaving::`scalar deleting destructor'
PUBLIC	??1SMotionEventDataEffect@NMotionEvent@@UAE@XZ	; NMotionEvent::SMotionEventDataEffect::~SMotionEventDataEffect
PUBLIC	?Save@SMotionEventDataEffect@NMotionEvent@@UAEXPAU_iobuf@@H@Z ; NMotionEvent::SMotionEventDataEffect::Save
PUBLIC	?Load@SMotionEventDataEffect@NMotionEvent@@UAE_NAAVCTextFileLoader@@@Z ; NMotionEvent::SMotionEventDataEffect::Load
PUBLIC	??_GSMotionEventDataEffect@NMotionEvent@@UAEPAXI@Z ; NMotionEvent::SMotionEventDataEffect::`scalar deleting destructor'
PUBLIC	??1SMotionEventDataEffectToTarget@NMotionEvent@@UAE@XZ ; NMotionEvent::SMotionEventDataEffectToTarget::~SMotionEventDataEffectToTarget
PUBLIC	?Save@SMotionEventDataEffectToTarget@NMotionEvent@@UAEXPAU_iobuf@@H@Z ; NMotionEvent::SMotionEventDataEffectToTarget::Save
PUBLIC	?Load@SMotionEventDataEffectToTarget@NMotionEvent@@UAE_NAAVCTextFileLoader@@@Z ; NMotionEvent::SMotionEventDataEffectToTarget::Load
PUBLIC	??_GSMotionEventDataEffectToTarget@NMotionEvent@@UAEPAXI@Z ; NMotionEvent::SMotionEventDataEffectToTarget::`scalar deleting destructor'
PUBLIC	??1SMotionEventDataFly@NMotionEvent@@UAE@XZ	; NMotionEvent::SMotionEventDataFly::~SMotionEventDataFly
PUBLIC	?Save@SMotionEventDataFly@NMotionEvent@@UAEXPAU_iobuf@@H@Z ; NMotionEvent::SMotionEventDataFly::Save
PUBLIC	?Load@SMotionEventDataFly@NMotionEvent@@UAE_NAAVCTextFileLoader@@@Z ; NMotionEvent::SMotionEventDataFly::Load
PUBLIC	??_GSMotionEventDataFly@NMotionEvent@@UAEPAXI@Z	; NMotionEvent::SMotionEventDataFly::`scalar deleting destructor'
PUBLIC	??1SMotionEventDataAttack@NMotionEvent@@UAE@XZ	; NMotionEvent::SMotionEventDataAttack::~SMotionEventDataAttack
PUBLIC	?Save@SMotionEventDataAttack@NMotionEvent@@UAEXPAU_iobuf@@H@Z ; NMotionEvent::SMotionEventDataAttack::Save
PUBLIC	?Load@SMotionEventDataAttack@NMotionEvent@@UAE_NAAVCTextFileLoader@@@Z ; NMotionEvent::SMotionEventDataAttack::Load
PUBLIC	??_GSMotionEventDataAttack@NMotionEvent@@UAEPAXI@Z ; NMotionEvent::SMotionEventDataAttack::`scalar deleting destructor'
PUBLIC	??1SMotionEventDataSound@NMotionEvent@@UAE@XZ	; NMotionEvent::SMotionEventDataSound::~SMotionEventDataSound
PUBLIC	?Save@SMotionEventDataSound@NMotionEvent@@UAEXPAU_iobuf@@H@Z ; NMotionEvent::SMotionEventDataSound::Save
PUBLIC	?Load@SMotionEventDataSound@NMotionEvent@@UAE_NAAVCTextFileLoader@@@Z ; NMotionEvent::SMotionEventDataSound::Load
PUBLIC	??_GSMotionEventDataSound@NMotionEvent@@UAEPAXI@Z ; NMotionEvent::SMotionEventDataSound::`scalar deleting destructor'
PUBLIC	??1SMotionEventDataCharacterShow@NMotionEvent@@UAE@XZ ; NMotionEvent::SMotionEventDataCharacterShow::~SMotionEventDataCharacterShow
PUBLIC	?Save@SMotionEventDataCharacterShow@NMotionEvent@@UAEXPAU_iobuf@@H@Z ; NMotionEvent::SMotionEventDataCharacterShow::Save
PUBLIC	??_GSMotionEventDataCharacterShow@NMotionEvent@@UAEPAXI@Z ; NMotionEvent::SMotionEventDataCharacterShow::`scalar deleting destructor'
PUBLIC	??1SMotionEventDataCharacterHide@NMotionEvent@@UAE@XZ ; NMotionEvent::SMotionEventDataCharacterHide::~SMotionEventDataCharacterHide
PUBLIC	?Save@SMotionEventDataCharacterHide@NMotionEvent@@UAEXPAU_iobuf@@H@Z ; NMotionEvent::SMotionEventDataCharacterHide::Save
PUBLIC	??_GSMotionEventDataCharacterHide@NMotionEvent@@UAEPAXI@Z ; NMotionEvent::SMotionEventDataCharacterHide::`scalar deleting destructor'
PUBLIC	??1SMotionEventDataWarp@NMotionEvent@@UAE@XZ	; NMotionEvent::SMotionEventDataWarp::~SMotionEventDataWarp
PUBLIC	?Save@SMotionEventDataWarp@NMotionEvent@@UAEXPAU_iobuf@@H@Z ; NMotionEvent::SMotionEventDataWarp::Save
PUBLIC	??_GSMotionEventDataWarp@NMotionEvent@@UAEPAXI@Z ; NMotionEvent::SMotionEventDataWarp::`scalar deleting destructor'
PUBLIC	?New@CRaceMotionData@@SAPAV1@XZ			; CRaceMotionData::New
PUBLIC	?Delete@CRaceMotionData@@SAXPAV1@@Z		; CRaceMotionData::Delete
PUBLIC	?CreateSystem@CRaceMotionData@@SAXI@Z		; CRaceMotionData::CreateSystem
PUBLIC	?DestroySystem@CRaceMotionData@@SAXXZ		; CRaceMotionData::DestroySystem
PUBLIC	??0CRaceMotionData@@QAE@XZ			; CRaceMotionData::CRaceMotionData
PUBLIC	??1CRaceMotionData@@UAE@XZ			; CRaceMotionData::~CRaceMotionData
PUBLIC	?Initialize@CRaceMotionData@@QAEXXZ		; CRaceMotionData::Initialize
PUBLIC	?Destroy@CRaceMotionData@@QAEXXZ		; CRaceMotionData::Destroy
PUBLIC	?SetName@CRaceMotionData@@QAEXI@Z		; CRaceMotionData::SetName
PUBLIC	?GetType@CRaceMotionData@@QBEIXZ		; CRaceMotionData::GetType
PUBLIC	?IsLock@CRaceMotionData@@QBE_NXZ		; CRaceMotionData::IsLock
PUBLIC	?GetLoopCount@CRaceMotionData@@QBEHXZ		; CRaceMotionData::GetLoopCount
PUBLIC	?GetMotionFileName@CRaceMotionData@@QBEPBDXZ	; CRaceMotionData::GetMotionFileName
PUBLIC	?GetSoundScriptFileName@CRaceMotionData@@QBEPBDXZ ; CRaceMotionData::GetSoundScriptFileName
PUBLIC	?SetMotionDuration@CRaceMotionData@@QAEXM@Z	; CRaceMotionData::SetMotionDuration
PUBLIC	?GetMotionDuration@CRaceMotionData@@QAEMXZ	; CRaceMotionData::GetMotionDuration
PUBLIC	?SetAccumulationPosition@CRaceMotionData@@QAEXABUD3DXVECTOR3@@@Z ; CRaceMotionData::SetAccumulationPosition
PUBLIC	?IsComboInputTimeData@CRaceMotionData@@QBEHXZ	; CRaceMotionData::IsComboInputTimeData
PUBLIC	?GetComboInputStartTime@CRaceMotionData@@QBEMXZ	; CRaceMotionData::GetComboInputStartTime
PUBLIC	?GetNextComboTime@CRaceMotionData@@QBEMXZ	; CRaceMotionData::GetNextComboTime
PUBLIC	?GetComboInputEndTime@CRaceMotionData@@QBEMXZ	; CRaceMotionData::GetComboInputEndTime
PUBLIC	?isAttackingMotion@CRaceMotionData@@QBEHXZ	; CRaceMotionData::isAttackingMotion
PUBLIC	?GetMotionAttackDataPointer@CRaceMotionData@@QBEPBUSMotionAttackData@NRaceData@@XZ ; CRaceMotionData::GetMotionAttackDataPointer
PUBLIC	?GetMotionAttackDataReference@CRaceMotionData@@QBEABUSMotionAttackData@NRaceData@@XZ ; CRaceMotionData::GetMotionAttackDataReference
PUBLIC	?HasSplashMotionEvent@CRaceMotionData@@QBEHXZ	; CRaceMotionData::HasSplashMotionEvent
PUBLIC	?IsCancelEnableSkill@CRaceMotionData@@QBEHXZ	; CRaceMotionData::IsCancelEnableSkill
PUBLIC	?IsLoopMotion@CRaceMotionData@@QBEHXZ		; CRaceMotionData::IsLoopMotion
PUBLIC	?GetLoopStartTime@CRaceMotionData@@QBEMXZ	; CRaceMotionData::GetLoopStartTime
PUBLIC	?GetLoopEndTime@CRaceMotionData@@QBEMXZ		; CRaceMotionData::GetLoopEndTime
PUBLIC	?GetMotionEventDataCount@CRaceMotionData@@QBEKXZ ; CRaceMotionData::GetMotionEventDataCount
PUBLIC	?GetMotionEventDataPointer@CRaceMotionData@@QBEHEPAPBUSMotionEventData@NMotionEvent@@@Z ; CRaceMotionData::GetMotionEventDataPointer
PUBLIC	?GetMotionAttackingEventDataPointer@CRaceMotionData@@QBEHEPAPBUSMotionEventDataAttack@NMotionEvent@@@Z ; CRaceMotionData::GetMotionAttackingEventDataPointer
PUBLIC	?GetEventType@CRaceMotionData@@QBEHK@Z		; CRaceMotionData::GetEventType
PUBLIC	?GetEventStartTime@CRaceMotionData@@QBEMK@Z	; CRaceMotionData::GetEventStartTime
PUBLIC	?GetSoundInstanceVectorPointer@CRaceMotionData@@QBEPBV?$vector@USSoundInstance@NSound@@V?$allocator@USSoundInstance@NSound@@@std@@@std@@XZ ; CRaceMotionData::GetSoundInstanceVectorPointer
PUBLIC	?LoadMotionData@CRaceMotionData@@QAE_NPBD@Z	; CRaceMotionData::LoadMotionData
PUBLIC	?LoadSoundScriptData@CRaceMotionData@@QAE_NPBD@Z ; CRaceMotionData::LoadSoundScriptData
PUBLIC	?SetType@CRaceMotionData@@IAEXI@Z		; CRaceMotionData::SetType
PUBLIC	?_Xlength@?$vector@PAUSMotionEventData@NMotionEvent@@V?$allocator@PAUSMotionEventData@NMotionEvent@@@std@@@std@@CAXXZ ; std::vector<NMotionEvent::SMotionEventData *,std::allocator<NMotionEvent::SMotionEventData *> >::_Xlength
PUBLIC	??_GCRaceMotionData@@UAEPAXI@Z			; CRaceMotionData::`scalar deleting destructor'
PUBLIC	??1?$CDynamicPool@VCRaceMotionData@@@@UAE@XZ	; CDynamicPool<CRaceMotionData>::~CDynamicPool<CRaceMotionData>
PUBLIC	?push_back@?$vector@PAVCRaceMotionData@@V?$allocator@PAVCRaceMotionData@@@std@@@std@@QAEXABQAVCRaceMotionData@@@Z ; std::vector<CRaceMotionData *,std::allocator<CRaceMotionData *> >::push_back
PUBLIC	?reserve@?$vector@PAVCRaceMotionData@@V?$allocator@PAVCRaceMotionData@@@std@@@std@@QAEXI@Z ; std::vector<CRaceMotionData *,std::allocator<CRaceMotionData *> >::reserve
PUBLIC	?_Change_array@?$vector@PAVCRaceMotionData@@V?$allocator@PAVCRaceMotionData@@@std@@@std@@AAEXQAPAVCRaceMotionData@@II@Z ; std::vector<CRaceMotionData *,std::allocator<CRaceMotionData *> >::_Change_array
PUBLIC	?_Xlength@?$vector@PAVCRaceMotionData@@V?$allocator@PAVCRaceMotionData@@@std@@@std@@CAXXZ ; std::vector<CRaceMotionData *,std::allocator<CRaceMotionData *> >::_Xlength
PUBLIC	??$stl_wipe@V?$vector@PAUSMotionEventData@NMotionEvent@@V?$allocator@PAUSMotionEventData@NMotionEvent@@@std@@@std@@@@YAXAAV?$vector@PAUSMotionEventData@NMotionEvent@@V?$allocator@PAUSMotionEventData@NMotionEvent@@@std@@@std@@@Z ; stl_wipe<std::vector<NMotionEvent::SMotionEventData *,std::allocator<NMotionEvent::SMotionEventData *> > >
PUBLIC	??1?$vector@USSoundData@NSound@@V?$allocator@USSoundData@NSound@@@std@@@std@@QAE@XZ ; std::vector<NSound::SSoundData,std::allocator<NSound::SSoundData> >::~vector<NSound::SSoundData,std::allocator<NSound::SSoundData> >
PUBLIC	??$_Resize@PAUSMotionEventData@NMotionEvent@@@?$vector@PAUSMotionEventData@NMotionEvent@@V?$allocator@PAUSMotionEventData@NMotionEvent@@@std@@@std@@AAEXIABQAUSMotionEventData@NMotionEvent@@@Z ; std::vector<NMotionEvent::SMotionEventData *,std::allocator<NMotionEvent::SMotionEventData *> >::_Resize<NMotionEvent::SMotionEventData *>
PUBLIC	??1?$CDynamicPoolEx@VCRotationDecorator@NEffectUpdateDecorator@@@@UAE@XZ ; CDynamicPoolEx<NEffectUpdateDecorator::CRotationDecorator>::~CDynamicPoolEx<NEffectUpdateDecorator::CRotationDecorator>
PUBLIC	??1?$CDynamicPoolEx@VCGravityDecorator@NEffectUpdateDecorator@@@@UAE@XZ ; CDynamicPoolEx<NEffectUpdateDecorator::CGravityDecorator>::~CDynamicPoolEx<NEffectUpdateDecorator::CGravityDecorator>
PUBLIC	??1?$CDynamicPoolEx@VCAirResistanceDecorator@NEffectUpdateDecorator@@@@UAE@XZ ; CDynamicPoolEx<NEffectUpdateDecorator::CAirResistanceDecorator>::~CDynamicPoolEx<NEffectUpdateDecorator::CAirResistanceDecorator>
PUBLIC	??1?$CDynamicPoolEx@VCTextureAnimationRandomDecorator@NEffectUpdateDecorator@@@@UAE@XZ ; CDynamicPoolEx<NEffectUpdateDecorator::CTextureAnimationRandomDecorator>::~CDynamicPoolEx<NEffectUpdateDecorator::CTextureAnimationRandomDecorator>
PUBLIC	??1?$CDynamicPoolEx@VCTextureAnimationCCWDecorator@NEffectUpdateDecorator@@@@UAE@XZ ; CDynamicPoolEx<NEffectUpdateDecorator::CTextureAnimationCCWDecorator>::~CDynamicPoolEx<NEffectUpdateDecorator::CTextureAnimationCCWDecorator>
PUBLIC	??1?$CDynamicPoolEx@VCTextureAnimationCWDecorator@NEffectUpdateDecorator@@@@UAE@XZ ; CDynamicPoolEx<NEffectUpdateDecorator::CTextureAnimationCWDecorator>::~CDynamicPoolEx<NEffectUpdateDecorator::CTextureAnimationCWDecorator>
PUBLIC	??1?$CDynamicPoolEx@VCNullDecorator@NEffectUpdateDecorator@@@@UAE@XZ ; CDynamicPoolEx<NEffectUpdateDecorator::CNullDecorator>::~CDynamicPoolEx<NEffectUpdateDecorator::CNullDecorator>
PUBLIC	??1?$CDynamicPoolEx@VCHeaderDecorator@NEffectUpdateDecorator@@@@UAE@XZ ; CDynamicPoolEx<NEffectUpdateDecorator::CHeaderDecorator>::~CDynamicPoolEx<NEffectUpdateDecorator::CHeaderDecorator>
PUBLIC	??$_Destroy_range@V?$allocator@USSoundInstance@NSound@@@std@@@std@@YAXPAUSSoundInstance@NSound@@QAU12@AAV?$allocator@USSoundInstance@NSound@@@0@@Z ; std::_Destroy_range<std::allocator<NSound::SSoundInstance> >
PUBLIC	??$_Uninitialized_fill_n@V?$allocator@PAUSMotionEventData@NMotionEvent@@@std@@@std@@YAPAPAUSMotionEventData@NMotionEvent@@PAPAU12@IABQAU12@AAV?$allocator@PAUSMotionEventData@NMotionEvent@@@0@@Z ; std::_Uninitialized_fill_n<std::allocator<NMotionEvent::SMotionEventData *> >
PUBLIC	??$_Is_all_bits_zero@PAUSMotionEventData@NMotionEvent@@@std@@YA_NABQAUSMotionEventData@NMotionEvent@@@Z ; std::_Is_all_bits_zero<NMotionEvent::SMotionEventData *>
PUBLIC	??$_Fill_zero_memset@PAPAUSMotionEventData@NMotionEvent@@@std@@YAXPAPAUSMotionEventData@NMotionEvent@@I@Z ; std::_Fill_zero_memset<NMotionEvent::SMotionEventData * *>
PUBLIC	??$_Copy_memmove@PAPAVCRaceMotionData@@PAPAV1@@std@@YAPAPAVCRaceMotionData@@PAPAV1@00@Z ; std::_Copy_memmove<CRaceMotionData * *,CRaceMotionData * *>
PUBLIC	??$_Copy_memmove@PAPAUSMotionEventData@NMotionEvent@@PAPAU12@@std@@YAPAPAUSMotionEventData@NMotionEvent@@PAPAU12@00@Z ; std::_Copy_memmove<NMotionEvent::SMotionEventData * *,NMotionEvent::SMotionEventData * *>
PUBLIC	??$_Copy_memmove_tail@PAPAVCRaceMotionData@@@std@@YAPAPAVCRaceMotionData@@QBDQAPAV1@II@Z ; std::_Copy_memmove_tail<CRaceMotionData * *>
PUBLIC	??$_Erase_tree@V?$allocator@U?$_Tree_node@U?$pair@$$CBMUCDynamicSphereInstance@@@std@@PAX@std@@@std@@@?$_Tree_val@U?$_Tree_simple_types@U?$pair@$$CBMUCDynamicSphereInstance@@@std@@@std@@@std@@QAEXAAV?$allocator@U?$_Tree_node@U?$pair@$$CBMUCDynamicSphereInstance@@@std@@PAX@std@@@1@PAU?$_Tree_node@U?$pair@$$CBMUCDynamicSphereInstance@@@std@@PAX@1@@Z ; std::_Tree_val<std::_Tree_simple_types<std::pair<float const ,CDynamicSphereInstance> > >::_Erase_tree<std::allocator<std::_Tree_node<std::pair<float const ,CDynamicSphereInstance>,void *> > >
PUBLIC	??$_Copy_memmove_tail@PAPAUSMotionEventData@NMotionEvent@@@std@@YAPAPAUSMotionEventData@NMotionEvent@@QBDQAPAU12@II@Z ; std::_Copy_memmove_tail<NMotionEvent::SMotionEventData * *>
PUBLIC	??_7exception@std@@6B@				; std::exception::`vftable'
PUBLIC	??_C@_0BC@EOODALEL@Unknown?5exception@		; `string'
PUBLIC	??_7bad_alloc@std@@6B@				; std::bad_alloc::`vftable'
PUBLIC	??_7bad_array_new_length@std@@6B@		; std::bad_array_new_length::`vftable'
PUBLIC	??_C@_0BF@KINCDENJ@bad?5array?5new?5length@	; `string'
PUBLIC	??_R0?AVexception@std@@@8			; std::exception `RTTI Type Descriptor'
PUBLIC	__CT??_R0?AVexception@std@@@8??0exception@std@@QAE@ABV01@@Z12
PUBLIC	__TI3?AVbad_array_new_length@std@@
PUBLIC	__CTA3?AVbad_array_new_length@std@@
PUBLIC	??_R0?AVbad_array_new_length@std@@@8		; std::bad_array_new_length `RTTI Type Descriptor'
PUBLIC	__CT??_R0?AVbad_array_new_length@std@@@8??0bad_array_new_length@std@@QAE@ABV01@@Z12
PUBLIC	??_R0?AVbad_alloc@std@@@8			; std::bad_alloc `RTTI Type Descriptor'
PUBLIC	__CT??_R0?AVbad_alloc@std@@@8??0bad_alloc@std@@QAE@ABV01@@Z12
PUBLIC	??_C@_0BA@JFNIOLAK@string?5too?5long@		; `string'
PUBLIC	??_7SCollisionData@NRaceData@@6B@		; NRaceData::SCollisionData::`vftable'
PUBLIC	??_C@_0BI@CFPLBAOH@invalid?5string?5position@	; `string'
PUBLIC	??_R4exception@std@@6B@				; std::exception::`RTTI Complete Object Locator'
PUBLIC	??_R3exception@std@@8				; std::exception::`RTTI Class Hierarchy Descriptor'
PUBLIC	??_R2exception@std@@8				; std::exception::`RTTI Base Class Array'
PUBLIC	??_R1A@?0A@EA@exception@std@@8			; std::exception::`RTTI Base Class Descriptor at (0,-1,0,64)'
PUBLIC	??_R4bad_array_new_length@std@@6B@		; std::bad_array_new_length::`RTTI Complete Object Locator'
PUBLIC	??_R3bad_array_new_length@std@@8		; std::bad_array_new_length::`RTTI Class Hierarchy Descriptor'
PUBLIC	??_R2bad_array_new_length@std@@8		; std::bad_array_new_length::`RTTI Base Class Array'
PUBLIC	??_R1A@?0A@EA@bad_array_new_length@std@@8	; std::bad_array_new_length::`RTTI Base Class Descriptor at (0,-1,0,64)'
PUBLIC	??_R1A@?0A@EA@bad_alloc@std@@8			; std::bad_alloc::`RTTI Base Class Descriptor at (0,-1,0,64)'
PUBLIC	??_R3bad_alloc@std@@8				; std::bad_alloc::`RTTI Class Hierarchy Descriptor'
PUBLIC	??_R2bad_alloc@std@@8				; std::bad_alloc::`RTTI Base Class Array'
PUBLIC	??_R4bad_alloc@std@@6B@				; std::bad_alloc::`RTTI Complete Object Locator'
PUBLIC	??_R4SCollisionData@NRaceData@@6B@		; NRaceData::SCollisionData::`RTTI Complete Object Locator'
PUBLIC	??_R0?AUSCollisionData@NRaceData@@@8		; NRaceData::SCollisionData `RTTI Type Descriptor'
PUBLIC	??_R3SCollisionData@NRaceData@@8		; NRaceData::SCollisionData::`RTTI Class Hierarchy Descriptor'
PUBLIC	??_R2SCollisionData@NRaceData@@8		; NRaceData::SCollisionData::`RTTI Base Class Array'
PUBLIC	??_R1A@?0A@EA@SCollisionData@NRaceData@@8	; NRaceData::SCollisionData::`RTTI Base Class Descriptor at (0,-1,0,64)'
PUBLIC	?ms_kPool@?$CPooledObject@VCHeaderDecorator@NEffectUpdateDecorator@@@@1V?$CDynamicPoolEx@VCHeaderDecorator@NEffectUpdateDecorator@@@@A ; CPooledObject<NEffectUpdateDecorator::CHeaderDecorator>::ms_kPool
PUBLIC	?ms_kPool@?$CPooledObject@VCNullDecorator@NEffectUpdateDecorator@@@@1V?$CDynamicPoolEx@VCNullDecorator@NEffectUpdateDecorator@@@@A ; CPooledObject<NEffectUpdateDecorator::CNullDecorator>::ms_kPool
PUBLIC	?ms_kPool@?$CPooledObject@VCTextureAnimationCWDecorator@NEffectUpdateDecorator@@@@1V?$CDynamicPoolEx@VCTextureAnimationCWDecorator@NEffectUpdateDecorator@@@@A ; CPooledObject<NEffectUpdateDecorator::CTextureAnimationCWDecorator>::ms_kPool
PUBLIC	?ms_kPool@?$CPooledObject@VCTextureAnimationCCWDecorator@NEffectUpdateDecorator@@@@1V?$CDynamicPoolEx@VCTextureAnimationCCWDecorator@NEffectUpdateDecorator@@@@A ; CPooledObject<NEffectUpdateDecorator::CTextureAnimationCCWDecorator>::ms_kPool
PUBLIC	?ms_kPool@?$CPooledObject@VCTextureAnimationRandomDecorator@NEffectUpdateDecorator@@@@1V?$CDynamicPoolEx@VCTextureAnimationRandomDecorator@NEffectUpdateDecorator@@@@A ; CPooledObject<NEffectUpdateDecorator::CTextureAnimationRandomDecorator>::ms_kPool
PUBLIC	?ms_kPool@?$CPooledObject@VCAirResistanceDecorator@NEffectUpdateDecorator@@@@1V?$CDynamicPoolEx@VCAirResistanceDecorator@NEffectUpdateDecorator@@@@A ; CPooledObject<NEffectUpdateDecorator::CAirResistanceDecorator>::ms_kPool
PUBLIC	?ms_kPool@?$CPooledObject@VCGravityDecorator@NEffectUpdateDecorator@@@@1V?$CDynamicPoolEx@VCGravityDecorator@NEffectUpdateDecorator@@@@A ; CPooledObject<NEffectUpdateDecorator::CGravityDecorator>::ms_kPool
PUBLIC	?ms_kPool@?$CPooledObject@VCRotationDecorator@NEffectUpdateDecorator@@@@1V?$CDynamicPoolEx@VCRotationDecorator@NEffectUpdateDecorator@@@@A ; CPooledObject<NEffectUpdateDecorator::CRotationDecorator>::ms_kPool
PUBLIC	?ms_singleton@?$CSingleton@VCEffectManager@@@@0PAVCEffectManager@@A ; CSingleton<CEffectManager>::ms_singleton
PUBLIC	?ms_singleton@?$CSingleton@VCFlyingManager@@@@0PAVCFlyingManager@@A ; CSingleton<CFlyingManager>::ms_singleton
PUBLIC	??_7SMotionEventData@NMotionEvent@@6B@		; NMotionEvent::SMotionEventData::`vftable'
PUBLIC	??_7SMotionEventDataScreenWaving@NMotionEvent@@6B@ ; NMotionEvent::SMotionEventDataScreenWaving::`vftable'
PUBLIC	??_C@_01EEMJAFIK@?6@				; `string'
PUBLIC	??_C@_0BJ@JOLNCGNF@DuringTime?5?5?5?5?5?5?5?5?5?5?5?$CFf?6@ ; `string'
PUBLIC	??_C@_0BJ@FEKHNOBC@Power?5?5?5?5?5?5?5?5?5?5?5?5?5?5?5?5?$CFd?6@ ; `string'
PUBLIC	??_C@_0BJ@KLBKOEEF@AffectingRange?5?5?5?5?5?5?5?$CFd?6@ ; `string'
PUBLIC	??_C@_0L@KJGFIEPL@duringtime@			; `string'
PUBLIC	??_C@_05PLIADJJL@power@				; `string'
PUBLIC	??_C@_0P@JIGGKKJB@affectingrange@		; `string'
PUBLIC	??_7SMotionEventDataEffect@NMotionEvent@@6B@	; NMotionEvent::SMotionEventDataEffect::`vftable'
PUBLIC	??_C@_0BJ@EFAIBPHL@IndependentFlag?5?5?5?5?5?5?$CFd?6@ ; `string'
PUBLIC	??_C@_0BJ@LAKEIKLD@AttachingEnable?5?5?5?5?5?5?$CFd?6@ ; `string'
PUBLIC	??_C@_0BL@PLABIPOF@AttachingBoneName?5?5?5?5?$CC?$CFs?$CC?6@ ; `string'
PUBLIC	??_C@_0BJ@NDNPFOND@FollowingEnable?5?5?5?5?5?5?$CFd?6@ ; `string'
PUBLIC	??_C@_0BL@OHMOOLCL@EffectFileName?5?5?5?5?5?5?5?$CC?$CFs?$CC?6@ ; `string'
PUBLIC	??_C@_0BP@CFDDPJAK@EffectPosition?5?5?5?5?5?5?5?$CFf?5?$CFf?5?$CFf?6@ ; `string'
PUBLIC	??_C@_0BA@MCOMBMGO@independentflag@		; `string'
PUBLIC	??_C@_0BA@HJAHPMOG@attachingenable@		; `string'
PUBLIC	??_C@_0BC@FCIOLNPK@attachingbonename@		; `string'
PUBLIC	??_C@_0P@MBGGNLC@effectfilename@		; `string'
PUBLIC	??_C@_0P@PMGDNJPL@effectposition@		; `string'
PUBLIC	??_C@_0BA@DEKLACIK@followingenable@		; `string'
PUBLIC	??_7SMotionEventDataEffectToTarget@NMotionEvent@@6B@ ; NMotionEvent::SMotionEventDataEffectToTarget::`vftable'
PUBLIC	??_C@_0BJ@ECHDEMEM@FishingEffectFlag?5?5?5?5?$CFd?6@ ; `string'
PUBLIC	??_C@_0BC@PGIDKNAJ@fishingeffectflag@		; `string'
PUBLIC	??_7SMotionEventDataFly@NMotionEvent@@6B@	; NMotionEvent::SMotionEventDataFly::`vftable'
PUBLIC	??_C@_0BI@MFBAEGBD@FlyFileName?5?5?5?5?5?5?5?$CC?$CFs?$CC?6@ ; `string'
PUBLIC	??_C@_0BM@LNHEOAC@FlyPosition?5?5?5?5?5?5?5?$CFf?5?$CFf?5?$CFf?6@ ; `string'
PUBLIC	??_C@_0M@BKDIDPMI@flyfilename@			; `string'
PUBLIC	??_C@_0M@OKENILIB@flyposition@			; `string'
PUBLIC	??_7SMotionEventDataAttack@NMotionEvent@@6B@	; NMotionEvent::SMotionEventDataAttack::`vftable'
PUBLIC	??_C@_0BJ@DAILMIKJ@EnableHitProcess?5?5?5?5?5?$CFd?6@ ; `string'
PUBLIC	??_C@_0BB@NODGLCEN@enablehitprocess@		; `string'
PUBLIC	??_7SMotionEventDataSound@NMotionEvent@@6B@	; NMotionEvent::SMotionEventDataSound::`vftable'
PUBLIC	??_C@_0BL@OCKKLAAD@SoundFileName?5?5?5?5?5?5?5?5?$CC?$CFs?$CC?6@ ; `string'
PUBLIC	??_C@_0O@POGBJFAA@soundfilename@		; `string'
PUBLIC	??_7SMotionEventDataCharacterShow@NMotionEvent@@6B@ ; NMotionEvent::SMotionEventDataCharacterShow::`vftable'
PUBLIC	??_7SMotionEventDataCharacterHide@NMotionEvent@@6B@ ; NMotionEvent::SMotionEventDataCharacterHide::`vftable'
PUBLIC	??_7SMotionEventDataWarp@NMotionEvent@@6B@	; NMotionEvent::SMotionEventDataWarp::`vftable'
PUBLIC	?ms_kPool@CRaceMotionData@@1V?$CDynamicPool@VCRaceMotionData@@@@A ; CRaceMotionData::ms_kPool
PUBLIC	??_7CRaceMotionData@@6B@			; CRaceMotionData::`vftable'
PUBLIC	??_C@_0CL@NGIMIHAA@CRaceMotionData?3?3SetName?5?9?5UNKN@ ; `string'
PUBLIC	??_C@_0P@IGAOIDID@motionfilename@		; `string'
PUBLIC	??_C@_0P@CAAIIAIN@motionduration@		; `string'
PUBLIC	??_C@_0N@JBNPINGA@accumulation@			; `string'
PUBLIC	??_C@_0EP@FGBECHEA@CRaceMotioNData?3?3LoadMotionData@ ; `string'
PUBLIC	??_C@_0P@BEGKENNC@comboinputdata@		; `string'
PUBLIC	??_C@_0N@IKJEINLI@preinputtime@			; `string'
PUBLIC	??_C@_0BA@OKILMLFK@directinputtime@		; `string'
PUBLIC	??_C@_0P@PPFBMGLB@inputlimittime@		; `string'
PUBLIC	??_C@_0O@NGMBMFEH@attackingdata@		; `string'
PUBLIC	??_C@_08BMIAMBLK@loopdata@			; `string'
PUBLIC	??_C@_0BA@HKGDAAAM@motionloopcount@		; `string'
PUBLIC	??_C@_0BB@LFNJMKIF@loopcancelenable@		; `string'
PUBLIC	??_C@_0O@FAMGINHI@loopstarttime@		; `string'
PUBLIC	??_C@_0M@HIAPALPD@loopendtime@			; `string'
PUBLIC	??_C@_0BA@LAEICHPP@motioneventdata@		; `string'
PUBLIC	??_C@_0BF@KNDELFNF@motioneventdatacount@	; `string'
PUBLIC	??_C@_05GFHEIIDD@event@				; `string'
PUBLIC	??_C@_0BA@CGGAKCNF@motioneventtype@		; `string'
PUBLIC	??_C@_0N@NHFBHOF@startingtime@			; `string'
PUBLIC	??_C@_04NMMFEKGF@?4mss@				; `string'
PUBLIC	??_C@_06PBLIODKG@sound?1@			; `string'
PUBLIC	??_C@_0BJ@DHFDPMIM@invalid?5vector?5subscript@	; `string'
PUBLIC	??_C@_0BA@FOIKENOD@vector?5too?5long@		; `string'
PUBLIC	??_R4SMotionEventData@NMotionEvent@@6B@		; NMotionEvent::SMotionEventData::`RTTI Complete Object Locator'
PUBLIC	??_R0?AUSMotionEventData@NMotionEvent@@@8	; NMotionEvent::SMotionEventData `RTTI Type Descriptor'
PUBLIC	??_R3SMotionEventData@NMotionEvent@@8		; NMotionEvent::SMotionEventData::`RTTI Class Hierarchy Descriptor'
PUBLIC	??_R2SMotionEventData@NMotionEvent@@8		; NMotionEvent::SMotionEventData::`RTTI Base Class Array'
PUBLIC	??_R1A@?0A@EA@SMotionEventData@NMotionEvent@@8	; NMotionEvent::SMotionEventData::`RTTI Base Class Descriptor at (0,-1,0,64)'
PUBLIC	??_R4SMotionEventDataScreenWaving@NMotionEvent@@6B@ ; NMotionEvent::SMotionEventDataScreenWaving::`RTTI Complete Object Locator'
PUBLIC	??_R0?AUSMotionEventDataScreenWaving@NMotionEvent@@@8 ; NMotionEvent::SMotionEventDataScreenWaving `RTTI Type Descriptor'
PUBLIC	??_R3SMotionEventDataScreenWaving@NMotionEvent@@8 ; NMotionEvent::SMotionEventDataScreenWaving::`RTTI Class Hierarchy Descriptor'
PUBLIC	??_R2SMotionEventDataScreenWaving@NMotionEvent@@8 ; NMotionEvent::SMotionEventDataScreenWaving::`RTTI Base Class Array'
PUBLIC	??_R1A@?0A@EA@SMotionEventDataScreenWaving@NMotionEvent@@8 ; NMotionEvent::SMotionEventDataScreenWaving::`RTTI Base Class Descriptor at (0,-1,0,64)'
PUBLIC	??_R4SMotionEventDataEffect@NMotionEvent@@6B@	; NMotionEvent::SMotionEventDataEffect::`RTTI Complete Object Locator'
PUBLIC	??_R0?AUSMotionEventDataEffect@NMotionEvent@@@8	; NMotionEvent::SMotionEventDataEffect `RTTI Type Descriptor'
PUBLIC	??_R3SMotionEventDataEffect@NMotionEvent@@8	; NMotionEvent::SMotionEventDataEffect::`RTTI Class Hierarchy Descriptor'
PUBLIC	??_R2SMotionEventDataEffect@NMotionEvent@@8	; NMotionEvent::SMotionEventDataEffect::`RTTI Base Class Array'
PUBLIC	??_R1A@?0A@EA@SMotionEventDataEffect@NMotionEvent@@8 ; NMotionEvent::SMotionEventDataEffect::`RTTI Base Class Descriptor at (0,-1,0,64)'
PUBLIC	??_R4SMotionEventDataEffectToTarget@NMotionEvent@@6B@ ; NMotionEvent::SMotionEventDataEffectToTarget::`RTTI Complete Object Locator'
PUBLIC	??_R0?AUSMotionEventDataEffectToTarget@NMotionEvent@@@8 ; NMotionEvent::SMotionEventDataEffectToTarget `RTTI Type Descriptor'
PUBLIC	??_R3SMotionEventDataEffectToTarget@NMotionEvent@@8 ; NMotionEvent::SMotionEventDataEffectToTarget::`RTTI Class Hierarchy Descriptor'
PUBLIC	??_R2SMotionEventDataEffectToTarget@NMotionEvent@@8 ; NMotionEvent::SMotionEventDataEffectToTarget::`RTTI Base Class Array'
PUBLIC	??_R1A@?0A@EA@SMotionEventDataEffectToTarget@NMotionEvent@@8 ; NMotionEvent::SMotionEventDataEffectToTarget::`RTTI Base Class Descriptor at (0,-1,0,64)'
PUBLIC	??_R4SMotionEventDataFly@NMotionEvent@@6B@	; NMotionEvent::SMotionEventDataFly::`RTTI Complete Object Locator'
PUBLIC	??_R0?AUSMotionEventDataFly@NMotionEvent@@@8	; NMotionEvent::SMotionEventDataFly `RTTI Type Descriptor'
PUBLIC	??_R3SMotionEventDataFly@NMotionEvent@@8	; NMotionEvent::SMotionEventDataFly::`RTTI Class Hierarchy Descriptor'
PUBLIC	??_R2SMotionEventDataFly@NMotionEvent@@8	; NMotionEvent::SMotionEventDataFly::`RTTI Base Class Array'
PUBLIC	??_R1A@?0A@EA@SMotionEventDataFly@NMotionEvent@@8 ; NMotionEvent::SMotionEventDataFly::`RTTI Base Class Descriptor at (0,-1,0,64)'
PUBLIC	??_R4SMotionEventDataAttack@NMotionEvent@@6B@	; NMotionEvent::SMotionEventDataAttack::`RTTI Complete Object Locator'
PUBLIC	??_R0?AUSMotionEventDataAttack@NMotionEvent@@@8	; NMotionEvent::SMotionEventDataAttack `RTTI Type Descriptor'
PUBLIC	??_R3SMotionEventDataAttack@NMotionEvent@@8	; NMotionEvent::SMotionEventDataAttack::`RTTI Class Hierarchy Descriptor'
PUBLIC	??_R2SMotionEventDataAttack@NMotionEvent@@8	; NMotionEvent::SMotionEventDataAttack::`RTTI Base Class Array'
PUBLIC	??_R1A@?0A@EA@SMotionEventDataAttack@NMotionEvent@@8 ; NMotionEvent::SMotionEventDataAttack::`RTTI Base Class Descriptor at (0,-1,0,64)'
PUBLIC	??_R4SMotionEventDataSound@NMotionEvent@@6B@	; NMotionEvent::SMotionEventDataSound::`RTTI Complete Object Locator'
PUBLIC	??_R0?AUSMotionEventDataSound@NMotionEvent@@@8	; NMotionEvent::SMotionEventDataSound `RTTI Type Descriptor'
PUBLIC	??_R3SMotionEventDataSound@NMotionEvent@@8	; NMotionEvent::SMotionEventDataSound::`RTTI Class Hierarchy Descriptor'
PUBLIC	??_R2SMotionEventDataSound@NMotionEvent@@8	; NMotionEvent::SMotionEventDataSound::`RTTI Base Class Array'
PUBLIC	??_R1A@?0A@EA@SMotionEventDataSound@NMotionEvent@@8 ; NMotionEvent::SMotionEventDataSound::`RTTI Base Class Descriptor at (0,-1,0,64)'
PUBLIC	??_R4SMotionEventDataCharacterShow@NMotionEvent@@6B@ ; NMotionEvent::SMotionEventDataCharacterShow::`RTTI Complete Object Locator'
PUBLIC	??_R0?AUSMotionEventDataCharacterShow@NMotionEvent@@@8 ; NMotionEvent::SMotionEventDataCharacterShow `RTTI Type Descriptor'
PUBLIC	??_R3SMotionEventDataCharacterShow@NMotionEvent@@8 ; NMotionEvent::SMotionEventDataCharacterShow::`RTTI Class Hierarchy Descriptor'
PUBLIC	??_R2SMotionEventDataCharacterShow@NMotionEvent@@8 ; NMotionEvent::SMotionEventDataCharacterShow::`RTTI Base Class Array'
PUBLIC	??_R1A@?0A@EA@SMotionEventDataCharacterShow@NMotionEvent@@8 ; NMotionEvent::SMotionEventDataCharacterShow::`RTTI Base Class Descriptor at (0,-1,0,64)'
PUBLIC	??_R4SMotionEventDataCharacterHide@NMotionEvent@@6B@ ; NMotionEvent::SMotionEventDataCharacterHide::`RTTI Complete Object Locator'
PUBLIC	??_R0?AUSMotionEventDataCharacterHide@NMotionEvent@@@8 ; NMotionEvent::SMotionEventDataCharacterHide `RTTI Type Descriptor'
PUBLIC	??_R3SMotionEventDataCharacterHide@NMotionEvent@@8 ; NMotionEvent::SMotionEventDataCharacterHide::`RTTI Class Hierarchy Descriptor'
PUBLIC	??_R2SMotionEventDataCharacterHide@NMotionEvent@@8 ; NMotionEvent::SMotionEventDataCharacterHide::`RTTI Base Class Array'
PUBLIC	??_R1A@?0A@EA@SMotionEventDataCharacterHide@NMotionEvent@@8 ; NMotionEvent::SMotionEventDataCharacterHide::`RTTI Base Class Descriptor at (0,-1,0,64)'
PUBLIC	??_R4SMotionEventDataWarp@NMotionEvent@@6B@	; NMotionEvent::SMotionEventDataWarp::`RTTI Complete Object Locator'
PUBLIC	??_R0?AUSMotionEventDataWarp@NMotionEvent@@@8	; NMotionEvent::SMotionEventDataWarp `RTTI Type Descriptor'
PUBLIC	??_R3SMotionEventDataWarp@NMotionEvent@@8	; NMotionEvent::SMotionEventDataWarp::`RTTI Class Hierarchy Descriptor'
PUBLIC	??_R2SMotionEventDataWarp@NMotionEvent@@8	; NMotionEvent::SMotionEventDataWarp::`RTTI Base Class Array'
PUBLIC	??_R1A@?0A@EA@SMotionEventDataWarp@NMotionEvent@@8 ; NMotionEvent::SMotionEventDataWarp::`RTTI Base Class Descriptor at (0,-1,0,64)'
PUBLIC	??_R4CRaceMotionData@@6B@			; CRaceMotionData::`RTTI Complete Object Locator'
PUBLIC	??_R0?AVCRaceMotionData@@@8			; CRaceMotionData `RTTI Type Descriptor'
PUBLIC	??_R3CRaceMotionData@@8				; CRaceMotionData::`RTTI Class Hierarchy Descriptor'
PUBLIC	??_R2CRaceMotionData@@8				; CRaceMotionData::`RTTI Base Class Array'
PUBLIC	??_R1A@?0A@EA@CRaceMotionData@@8		; CRaceMotionData::`RTTI Base Class Descriptor at (0,-1,0,64)'
PUBLIC	__real@00000000
PUBLIC	__real@3f800000
EXTRN	__purecall:PROC
EXTRN	??2@YAPAXI@Z:PROC				; operator new
EXTRN	??3@YAXPAX@Z:PROC				; operator delete
EXTRN	??3@YAXPAXI@Z:PROC				; operator delete
EXTRN	_atexit:PROC
EXTRN	___std_terminate:PROC
EXTRN	__invalid_parameter_noinfo_noreturn:PROC
EXTRN	_atof:PROC
EXTRN	___std_find_last_trivial_1@12:PROC
EXTRN	?_Xlength_error@std@@YAXPBD@Z:PROC		; std::_Xlength_error
EXTRN	?_Xout_of_range@std@@YAXPBD@Z:PROC		; std::_Xout_of_range
EXTRN	___std_exception_copy:PROC
EXTRN	___std_exception_destroy:PROC
EXTRN	??_Eexception@std@@UAEPAXI@Z:PROC		; std::exception::`vector deleting destructor'
EXTRN	??_Ebad_alloc@std@@UAEPAXI@Z:PROC		; std::bad_alloc::`vector deleting destructor'
EXTRN	??_Ebad_array_new_length@std@@UAEPAXI@Z:PROC	; std::bad_array_new_length::`vector deleting destructor'
EXTRN	?TraceError@@YAXPBDZZ:PROC			; TraceError
EXTRN	?GetCaseCRC32@@YAKPBDI@Z:PROC			; GetCaseCRC32
EXTRN	?StringPath@@YAXAAV?$basic_string@DU?$char_traits@D@std@@V?$allocator@D@2@@std@@@Z:PROC ; StringPath
EXTRN	?PrintfTabs@@YAXPAU_iobuf@@HPBDZZ:PROC		; PrintfTabs
EXTRN	?Cache@CTextFileLoader@@SAPAV1@PBD@Z:PROC	; CTextFileLoader::Cache
EXTRN	?IsEmpty@CTextFileLoader@@QAE_NXZ:PROC		; CTextFileLoader::IsEmpty
EXTRN	?SetTop@CTextFileLoader@@QAEXXZ:PROC		; CTextFileLoader::SetTop
EXTRN	?GetChildNodeCount@CTextFileLoader@@QAEKXZ:PROC	; CTextFileLoader::GetChildNodeCount
EXTRN	?SetChildNode@CTextFileLoader@@QAEHABV?$basic_string@DU?$char_traits@D@std@@V?$allocator@D@2@@std@@K@Z:PROC ; CTextFileLoader::SetChildNode
EXTRN	?SetChildNode@CTextFileLoader@@QAEHK@Z:PROC	; CTextFileLoader::SetChildNode
EXTRN	?SetParentNode@CTextFileLoader@@QAEHXZ:PROC	; CTextFileLoader::SetParentNode
EXTRN	?GetCurrentNodeName@CTextFileLoader@@QAEHPAV?$basic_string@DU?$char_traits@D@std@@V?$allocator@D@2@@std@@@Z:PROC ; CTextFileLoader::GetCurrentNodeName
EXTRN	?GetTokenVector@CTextFileLoader@@QAEHABV?$basic_string@DU?$char_traits@D@std@@V?$allocator@D@2@@std@@PAPAV?$vector@V?$basic_string@DU?$char_traits@D@std@@V?$allocator@D@2@@std@@V?$allocator@V?$basic_string@DU?$char_traits@D@std@@V?$allocator@D@2@@std@@@2@@3@@Z:PROC ; CTextFileLoader::GetTokenVector
EXTRN	?GetTokenBoolean@CTextFileLoader@@QAEHABV?$basic_string@DU?$char_traits@D@std@@V?$allocator@D@2@@std@@PAH@Z:PROC ; CTextFileLoader::GetTokenBoolean
EXTRN	?GetTokenInteger@CTextFileLoader@@QAEHABV?$basic_string@DU?$char_traits@D@std@@V?$allocator@D@2@@std@@PAH@Z:PROC ; CTextFileLoader::GetTokenInteger
EXTRN	?GetTokenDoubleWord@CTextFileLoader@@QAEHABV?$basic_string@DU?$char_traits@D@std@@V?$allocator@D@2@@std@@PAK@Z:PROC ; CTextFileLoader::GetTokenDoubleWord
EXTRN	?GetTokenFloat@CTextFileLoader@@QAEHABV?$basic_string@DU?$char_traits@D@std@@V?$allocator@D@2@@std@@PAM@Z:PROC ; CTextFileLoader::GetTokenFloat
EXTRN	?GetTokenPosition@CTextFileLoader@@QAEHABV?$basic_string@DU?$char_traits@D@std@@V?$allocator@D@2@@std@@PAUD3DXVECTOR3@@@Z:PROC ; CTextFileLoader::GetTokenPosition
EXTRN	?GetTokenString@CTextFileLoader@@QAEHABV?$basic_string@DU?$char_traits@D@std@@V?$allocator@D@2@@std@@PAV23@@Z:PROC ; CTextFileLoader::GetTokenString
EXTRN	??_ESCollisionData@NRaceData@@UAEPAXI@Z:PROC	; NRaceData::SCollisionData::`vector deleting destructor'
EXTRN	?SaveAttackData@NRaceData@@YAXPAU_iobuf@@HABUSAttackData@1@@Z:PROC ; NRaceData::SaveAttackData
EXTRN	?SaveCollisionData@NRaceData@@YAXPAU_iobuf@@HABUSCollisionData@1@@Z:PROC ; NRaceData::SaveCollisionData
EXTRN	?LoadAttackData@NRaceData@@YAHAAVCTextFileLoader@@PAUSAttackData@1@@Z:PROC ; NRaceData::LoadAttackData
EXTRN	?LoadMotionAttackData@NRaceData@@YAHAAVCTextFileLoader@@PAUSMotionAttackData@1@@Z:PROC ; NRaceData::LoadMotionAttackData
EXTRN	?LoadCollisionData@NRaceData@@YAHAAVCTextFileLoader@@PAUSCollisionData@1@@Z:PROC ; NRaceData::LoadCollisionData
EXTRN	?LoadSoundInformationPiece@NSound@@YA_NPBDAAV?$vector@USSoundData@NSound@@V?$allocator@USSoundData@NSound@@@std@@@std@@0@Z:PROC ; NSound::LoadSoundInformationPiece
EXTRN	?DataToInstance@NSound@@YAXABV?$vector@USSoundData@NSound@@V?$allocator@USSoundData@NSound@@@std@@@std@@PAV?$vector@USSoundInstance@NSound@@V?$allocator@USSoundInstance@NSound@@@std@@@3@@Z:PROC ; NSound::DataToInstance
EXTRN	?RegisterEffect@CEffectManager@@QAEHPBD_N1@Z:PROC ; CEffectManager::RegisterEffect
EXTRN	?RegisterFlyingData@CFlyingManager@@QAE_NPBD@Z:PROC ; CFlyingManager::RegisterFlyingData
EXTRN	??_ESMotionEventData@NMotionEvent@@UAEPAXI@Z:PROC ; NMotionEvent::SMotionEventData::`vector deleting destructor'
EXTRN	??_ESMotionEventDataScreenWaving@NMotionEvent@@UAEPAXI@Z:PROC ; NMotionEvent::SMotionEventDataScreenWaving::`vector deleting destructor'
EXTRN	??_ESMotionEventDataEffect@NMotionEvent@@UAEPAXI@Z:PROC ; NMotionEvent::SMotionEventDataEffect::`vector deleting destructor'
EXTRN	??_ESMotionEventDataEffectToTarget@NMotionEvent@@UAEPAXI@Z:PROC ; NMotionEvent::SMotionEventDataEffectToTarget::`vector deleting destructor'
EXTRN	??_ESMotionEventDataFly@NMotionEvent@@UAEPAXI@Z:PROC ; NMotionEvent::SMotionEventDataFly::`vector deleting destructor'
EXTRN	??_ESMotionEventDataAttack@NMotionEvent@@UAEPAXI@Z:PROC ; NMotionEvent::SMotionEventDataAttack::`vector deleting destructor'
EXTRN	??_ESMotionEventDataSound@NMotionEvent@@UAEPAXI@Z:PROC ; NMotionEvent::SMotionEventDataSound::`vector deleting destructor'
EXTRN	??_ESMotionEventDataCharacterShow@NMotionEvent@@UAEPAXI@Z:PROC ; NMotionEvent::SMotionEventDataCharacterShow::`vector deleting destructor'
EXTRN	??_ESMotionEventDataCharacterHide@NMotionEvent@@UAEPAXI@Z:PROC ; NMotionEvent::SMotionEventDataCharacterHide::`vector deleting destructor'
EXTRN	??_ESMotionEventDataWarp@NMotionEvent@@UAEPAXI@Z:PROC ; NMotionEvent::SMotionEventDataWarp::`vector deleting destructor'
EXTRN	??_ECRaceMotionData@@UAEPAXI@Z:PROC		; CRaceMotionData::`vector deleting destructor'
EXTRN	@__security_check_cookie@4:PROC
EXTRN	__CxxThrowException@8:PROC
EXTRN	___CxxFrameHandler3:PROC
EXTRN	__ftol3:PROC
EXTRN	_memcpy:PROC
EXTRN	_memmove:PROC
EXTRN	_memset:PROC
EXTRN	?g_fGameFPS@@3MA:DWORD				; g_fGameFPS
EXTRN	___security_cookie:DWORD
EXTRN	__fltused:DWORD
;	COMDAT ?ms_singleton@?$CSingleton@VCEffectManager@@@@0PAVCEffectManager@@A
_BSS	SEGMENT
?ms_singleton@?$CSingleton@VCEffectManager@@@@0PAVCEffectManager@@A DD 01H DUP (?) ; CSingleton<CEffectManager>::ms_singleton
_BSS	ENDS
;	COMDAT ?ms_singleton@?$CSingleton@VCFlyingManager@@@@0PAVCFlyingManager@@A
_BSS	SEGMENT
?ms_singleton@?$CSingleton@VCFlyingManager@@@@0PAVCFlyingManager@@A DD 01H DUP (?) ; CSingleton<CFlyingManager>::ms_singleton
_BSS	ENDS
CRT$XCU	SEGMENT
??ms_kPool$initializer$@CRaceMotionData@@1P6AXXZA@@3P6AXXZA DD FLAT:??__E?ms_kPool@CRaceMotionData@@1V?$CDynamicPool@VCRaceMotionData@@@@A@@YAXXZ ; ??ms_kPool$initializer$@CRaceMotionData@@1P6AXXZA@@3P6AXXZA
CRT$XCU	ENDS
;	COMDAT __real@3f800000
CONST	SEGMENT
__real@3f800000 DD 03f800000r			; 1
CONST	ENDS
;	COMDAT __real@00000000
CONST	SEGMENT
__real@00000000 DD 000000000r			; 0
CONST	ENDS
;	COMDAT ??_R1A@?0A@EA@CRaceMotionData@@8
rdata$r	SEGMENT
??_R1A@?0A@EA@CRaceMotionData@@8 DD FLAT:??_R0?AVCRaceMotionData@@@8 ; CRaceMotionData::`RTTI Base Class Descriptor at (0,-1,0,64)'
	DD	00H
	DD	00H
	DD	0ffffffffH
	DD	00H
	DD	040H
	DD	FLAT:??_R3CRaceMotionData@@8
rdata$r	ENDS
;	COMDAT ??_R2CRaceMotionData@@8
rdata$r	SEGMENT
??_R2CRaceMotionData@@8 DD FLAT:??_R1A@?0A@EA@CRaceMotionData@@8 ; CRaceMotionData::`RTTI Base Class Array'
rdata$r	ENDS
;	COMDAT ??_R3CRaceMotionData@@8
rdata$r	SEGMENT
??_R3CRaceMotionData@@8 DD 00H				; CRaceMotionData::`RTTI Class Hierarchy Descriptor'
	DD	00H
	DD	01H
	DD	FLAT:??_R2CRaceMotionData@@8
rdata$r	ENDS
;	COMDAT ??_R0?AVCRaceMotionData@@@8
data$rs	SEGMENT
??_R0?AVCRaceMotionData@@@8 DD FLAT:??_7type_info@@6B@	; CRaceMotionData `RTTI Type Descriptor'
	DD	00H
	DB	'.?AVCRaceMotionData@@', 00H
data$rs	ENDS
;	COMDAT ??_R4CRaceMotionData@@6B@
rdata$r	SEGMENT
??_R4CRaceMotionData@@6B@ DD 00H			; CRaceMotionData::`RTTI Complete Object Locator'
	DD	00H
	DD	00H
	DD	FLAT:??_R0?AVCRaceMotionData@@@8
	DD	FLAT:??_R3CRaceMotionData@@8
rdata$r	ENDS
;	COMDAT ??_R1A@?0A@EA@SMotionEventDataWarp@NMotionEvent@@8
rdata$r	SEGMENT
??_R1A@?0A@EA@SMotionEventDataWarp@NMotionEvent@@8 DD FLAT:??_R0?AUSMotionEventDataWarp@NMotionEvent@@@8 ; NMotionEvent::SMotionEventDataWarp::`RTTI Base Class Descriptor at (0,-1,0,64)'
	DD	01H
	DD	00H
	DD	0ffffffffH
	DD	00H
	DD	040H
	DD	FLAT:??_R3SMotionEventDataWarp@NMotionEvent@@8
rdata$r	ENDS
;	COMDAT ??_R2SMotionEventDataWarp@NMotionEvent@@8
rdata$r	SEGMENT
??_R2SMotionEventDataWarp@NMotionEvent@@8 DD FLAT:??_R1A@?0A@EA@SMotionEventDataWarp@NMotionEvent@@8 ; NMotionEvent::SMotionEventDataWarp::`RTTI Base Class Array'
	DD	FLAT:??_R1A@?0A@EA@SMotionEventData@NMotionEvent@@8
rdata$r	ENDS
;	COMDAT ??_R3SMotionEventDataWarp@NMotionEvent@@8
rdata$r	SEGMENT
??_R3SMotionEventDataWarp@NMotionEvent@@8 DD 00H	; NMotionEvent::SMotionEventDataWarp::`RTTI Class Hierarchy Descriptor'
	DD	00H
	DD	02H
	DD	FLAT:??_R2SMotionEventDataWarp@NMotionEvent@@8
rdata$r	ENDS
;	COMDAT ??_R0?AUSMotionEventDataWarp@NMotionEvent@@@8
data$rs	SEGMENT
??_R0?AUSMotionEventDataWarp@NMotionEvent@@@8 DD FLAT:??_7type_info@@6B@ ; NMotionEvent::SMotionEventDataWarp `RTTI Type Descriptor'
	DD	00H
	DB	'.?AUSMotionEventDataWarp@NMotionEvent@@', 00H
data$rs	ENDS
;	COMDAT ??_R4SMotionEventDataWarp@NMotionEvent@@6B@
rdata$r	SEGMENT
??_R4SMotionEventDataWarp@NMotionEvent@@6B@ DD 00H	; NMotionEvent::SMotionEventDataWarp::`RTTI Complete Object Locator'
	DD	00H
	DD	00H
	DD	FLAT:??_R0?AUSMotionEventDataWarp@NMotionEvent@@@8
	DD	FLAT:??_R3SMotionEventDataWarp@NMotionEvent@@8
rdata$r	ENDS
;	COMDAT ??_R1A@?0A@EA@SMotionEventDataCharacterHide@NMotionEvent@@8
rdata$r	SEGMENT
??_R1A@?0A@EA@SMotionEventDataCharacterHide@NMotionEvent@@8 DD FLAT:??_R0?AUSMotionEventDataCharacterHide@NMotionEvent@@@8 ; NMotionEvent::SMotionEventDataCharacterHide::`RTTI Base Class Descriptor at (0,-1,0,64)'
	DD	01H
	DD	00H
	DD	0ffffffffH
	DD	00H
	DD	040H
	DD	FLAT:??_R3SMotionEventDataCharacterHide@NMotionEvent@@8
rdata$r	ENDS
;	COMDAT ??_R2SMotionEventDataCharacterHide@NMotionEvent@@8
rdata$r	SEGMENT
??_R2SMotionEventDataCharacterHide@NMotionEvent@@8 DD FLAT:??_R1A@?0A@EA@SMotionEventDataCharacterHide@NMotionEvent@@8 ; NMotionEvent::SMotionEventDataCharacterHide::`RTTI Base Class Array'
	DD	FLAT:??_R1A@?0A@EA@SMotionEventData@NMotionEvent@@8
rdata$r	ENDS
;	COMDAT ??_R3SMotionEventDataCharacterHide@NMotionEvent@@8
rdata$r	SEGMENT
??_R3SMotionEventDataCharacterHide@NMotionEvent@@8 DD 00H ; NMotionEvent::SMotionEventDataCharacterHide::`RTTI Class Hierarchy Descriptor'
	DD	00H
	DD	02H
	DD	FLAT:??_R2SMotionEventDataCharacterHide@NMotionEvent@@8
rdata$r	ENDS
;	COMDAT ??_R0?AUSMotionEventDataCharacterHide@NMotionEvent@@@8
data$rs	SEGMENT
??_R0?AUSMotionEventDataCharacterHide@NMotionEvent@@@8 DD FLAT:??_7type_info@@6B@ ; NMotionEvent::SMotionEventDataCharacterHide `RTTI Type Descriptor'
	DD	00H
	DB	'.?AUSMotionEventDataCharacterHide@NMotionEvent@@', 00H
data$rs	ENDS
;	COMDAT ??_R4SMotionEventDataCharacterHide@NMotionEvent@@6B@
rdata$r	SEGMENT
??_R4SMotionEventDataCharacterHide@NMotionEvent@@6B@ DD 00H ; NMotionEvent::SMotionEventDataCharacterHide::`RTTI Complete Object Locator'
	DD	00H
	DD	00H
	DD	FLAT:??_R0?AUSMotionEventDataCharacterHide@NMotionEvent@@@8
	DD	FLAT:??_R3SMotionEventDataCharacterHide@NMotionEvent@@8
rdata$r	ENDS
;	COMDAT ??_R1A@?0A@EA@SMotionEventDataCharacterShow@NMotionEvent@@8
rdata$r	SEGMENT
??_R1A@?0A@EA@SMotionEventDataCharacterShow@NMotionEvent@@8 DD FLAT:??_R0?AUSMotionEventDataCharacterShow@NMotionEvent@@@8 ; NMotionEvent::SMotionEventDataCharacterShow::`RTTI Base Class Descriptor at (0,-1,0,64)'
	DD	01H
	DD	00H
	DD	0ffffffffH
	DD	00H
	DD	040H
	DD	FLAT:??_R3SMotionEventDataCharacterShow@NMotionEvent@@8
rdata$r	ENDS
;	COMDAT ??_R2SMotionEventDataCharacterShow@NMotionEvent@@8
rdata$r	SEGMENT
??_R2SMotionEventDataCharacterShow@NMotionEvent@@8 DD FLAT:??_R1A@?0A@EA@SMotionEventDataCharacterShow@NMotionEvent@@8 ; NMotionEvent::SMotionEventDataCharacterShow::`RTTI Base Class Array'
	DD	FLAT:??_R1A@?0A@EA@SMotionEventData@NMotionEvent@@8
rdata$r	ENDS
;	COMDAT ??_R3SMotionEventDataCharacterShow@NMotionEvent@@8
rdata$r	SEGMENT
??_R3SMotionEventDataCharacterShow@NMotionEvent@@8 DD 00H ; NMotionEvent::SMotionEventDataCharacterShow::`RTTI Class Hierarchy Descriptor'
	DD	00H
	DD	02H
	DD	FLAT:??_R2SMotionEventDataCharacterShow@NMotionEvent@@8
rdata$r	ENDS
;	COMDAT ??_R0?AUSMotionEventDataCharacterShow@NMotionEvent@@@8
data$rs	SEGMENT
??_R0?AUSMotionEventDataCharacterShow@NMotionEvent@@@8 DD FLAT:??_7type_info@@6B@ ; NMotionEvent::SMotionEventDataCharacterShow `RTTI Type Descriptor'
	DD	00H
	DB	'.?AUSMotionEventDataCharacterShow@NMotionEvent@@', 00H
data$rs	ENDS
;	COMDAT ??_R4SMotionEventDataCharacterShow@NMotionEvent@@6B@
rdata$r	SEGMENT
??_R4SMotionEventDataCharacterShow@NMotionEvent@@6B@ DD 00H ; NMotionEvent::SMotionEventDataCharacterShow::`RTTI Complete Object Locator'
	DD	00H
	DD	00H
	DD	FLAT:??_R0?AUSMotionEventDataCharacterShow@NMotionEvent@@@8
	DD	FLAT:??_R3SMotionEventDataCharacterShow@NMotionEvent@@8
rdata$r	ENDS
;	COMDAT ??_R1A@?0A@EA@SMotionEventDataSound@NMotionEvent@@8
rdata$r	SEGMENT
??_R1A@?0A@EA@SMotionEventDataSound@NMotionEvent@@8 DD FLAT:??_R0?AUSMotionEventDataSound@NMotionEvent@@@8 ; NMotionEvent::SMotionEventDataSound::`RTTI Base Class Descriptor at (0,-1,0,64)'
	DD	01H
	DD	00H
	DD	0ffffffffH
	DD	00H
	DD	040H
	DD	FLAT:??_R3SMotionEventDataSound@NMotionEvent@@8
rdata$r	ENDS
;	COMDAT ??_R2SMotionEventDataSound@NMotionEvent@@8
rdata$r	SEGMENT
??_R2SMotionEventDataSound@NMotionEvent@@8 DD FLAT:??_R1A@?0A@EA@SMotionEventDataSound@NMotionEvent@@8 ; NMotionEvent::SMotionEventDataSound::`RTTI Base Class Array'
	DD	FLAT:??_R1A@?0A@EA@SMotionEventData@NMotionEvent@@8
rdata$r	ENDS
;	COMDAT ??_R3SMotionEventDataSound@NMotionEvent@@8
rdata$r	SEGMENT
??_R3SMotionEventDataSound@NMotionEvent@@8 DD 00H	; NMotionEvent::SMotionEventDataSound::`RTTI Class Hierarchy Descriptor'
	DD	00H
	DD	02H
	DD	FLAT:??_R2SMotionEventDataSound@NMotionEvent@@8
rdata$r	ENDS
;	COMDAT ??_R0?AUSMotionEventDataSound@NMotionEvent@@@8
data$rs	SEGMENT
??_R0?AUSMotionEventDataSound@NMotionEvent@@@8 DD FLAT:??_7type_info@@6B@ ; NMotionEvent::SMotionEventDataSound `RTTI Type Descriptor'
	DD	00H
	DB	'.?AUSMotionEventDataSound@NMotionEvent@@', 00H
data$rs	ENDS
;	COMDAT ??_R4SMotionEventDataSound@NMotionEvent@@6B@
rdata$r	SEGMENT
??_R4SMotionEventDataSound@NMotionEvent@@6B@ DD 00H	; NMotionEvent::SMotionEventDataSound::`RTTI Complete Object Locator'
	DD	00H
	DD	00H
	DD	FLAT:??_R0?AUSMotionEventDataSound@NMotionEvent@@@8
	DD	FLAT:??_R3SMotionEventDataSound@NMotionEvent@@8
rdata$r	ENDS
;	COMDAT ??_R1A@?0A@EA@SMotionEventDataAttack@NMotionEvent@@8
rdata$r	SEGMENT
??_R1A@?0A@EA@SMotionEventDataAttack@NMotionEvent@@8 DD FLAT:??_R0?AUSMotionEventDataAttack@NMotionEvent@@@8 ; NMotionEvent::SMotionEventDataAttack::`RTTI Base Class Descriptor at (0,-1,0,64)'
	DD	01H
	DD	00H
	DD	0ffffffffH
	DD	00H
	DD	040H
	DD	FLAT:??_R3SMotionEventDataAttack@NMotionEvent@@8
rdata$r	ENDS
;	COMDAT ??_R2SMotionEventDataAttack@NMotionEvent@@8
rdata$r	SEGMENT
??_R2SMotionEventDataAttack@NMotionEvent@@8 DD FLAT:??_R1A@?0A@EA@SMotionEventDataAttack@NMotionEvent@@8 ; NMotionEvent::SMotionEventDataAttack::`RTTI Base Class Array'
	DD	FLAT:??_R1A@?0A@EA@SMotionEventData@NMotionEvent@@8
rdata$r	ENDS
;	COMDAT ??_R3SMotionEventDataAttack@NMotionEvent@@8
rdata$r	SEGMENT
??_R3SMotionEventDataAttack@NMotionEvent@@8 DD 00H	; NMotionEvent::SMotionEventDataAttack::`RTTI Class Hierarchy Descriptor'
	DD	00H
	DD	02H
	DD	FLAT:??_R2SMotionEventDataAttack@NMotionEvent@@8
rdata$r	ENDS
;	COMDAT ??_R0?AUSMotionEventDataAttack@NMotionEvent@@@8
data$rs	SEGMENT
??_R0?AUSMotionEventDataAttack@NMotionEvent@@@8 DD FLAT:??_7type_info@@6B@ ; NMotionEvent::SMotionEventDataAttack `RTTI Type Descriptor'
	DD	00H
	DB	'.?AUSMotionEventDataAttack@NMotionEvent@@', 00H
data$rs	ENDS
;	COMDAT ??_R4SMotionEventDataAttack@NMotionEvent@@6B@
rdata$r	SEGMENT
??_R4SMotionEventDataAttack@NMotionEvent@@6B@ DD 00H	; NMotionEvent::SMotionEventDataAttack::`RTTI Complete Object Locator'
	DD	00H
	DD	00H
	DD	FLAT:??_R0?AUSMotionEventDataAttack@NMotionEvent@@@8
	DD	FLAT:??_R3SMotionEventDataAttack@NMotionEvent@@8
rdata$r	ENDS
;	COMDAT ??_R1A@?0A@EA@SMotionEventDataFly@NMotionEvent@@8
rdata$r	SEGMENT
??_R1A@?0A@EA@SMotionEventDataFly@NMotionEvent@@8 DD FLAT:??_R0?AUSMotionEventDataFly@NMotionEvent@@@8 ; NMotionEvent::SMotionEventDataFly::`RTTI Base Class Descriptor at (0,-1,0,64)'
	DD	01H
	DD	00H
	DD	0ffffffffH
	DD	00H
	DD	040H
	DD	FLAT:??_R3SMotionEventDataFly@NMotionEvent@@8
rdata$r	ENDS
;	COMDAT ??_R2SMotionEventDataFly@NMotionEvent@@8
rdata$r	SEGMENT
??_R2SMotionEventDataFly@NMotionEvent@@8 DD FLAT:??_R1A@?0A@EA@SMotionEventDataFly@NMotionEvent@@8 ; NMotionEvent::SMotionEventDataFly::`RTTI Base Class Array'
	DD	FLAT:??_R1A@?0A@EA@SMotionEventData@NMotionEvent@@8
rdata$r	ENDS
;	COMDAT ??_R3SMotionEventDataFly@NMotionEvent@@8
rdata$r	SEGMENT
??_R3SMotionEventDataFly@NMotionEvent@@8 DD 00H		; NMotionEvent::SMotionEventDataFly::`RTTI Class Hierarchy Descriptor'
	DD	00H
	DD	02H
	DD	FLAT:??_R2SMotionEventDataFly@NMotionEvent@@8
rdata$r	ENDS
;	COMDAT ??_R0?AUSMotionEventDataFly@NMotionEvent@@@8
data$rs	SEGMENT
??_R0?AUSMotionEventDataFly@NMotionEvent@@@8 DD FLAT:??_7type_info@@6B@ ; NMotionEvent::SMotionEventDataFly `RTTI Type Descriptor'
	DD	00H
	DB	'.?AUSMotionEventDataFly@NMotionEvent@@', 00H
data$rs	ENDS
;	COMDAT ??_R4SMotionEventDataFly@NMotionEvent@@6B@
rdata$r	SEGMENT
??_R4SMotionEventDataFly@NMotionEvent@@6B@ DD 00H	; NMotionEvent::SMotionEventDataFly::`RTTI Complete Object Locator'
	DD	00H
	DD	00H
	DD	FLAT:??_R0?AUSMotionEventDataFly@NMotionEvent@@@8
	DD	FLAT:??_R3SMotionEventDataFly@NMotionEvent@@8
rdata$r	ENDS
;	COMDAT ??_R1A@?0A@EA@SMotionEventDataEffectToTarget@NMotionEvent@@8
rdata$r	SEGMENT
??_R1A@?0A@EA@SMotionEventDataEffectToTarget@NMotionEvent@@8 DD FLAT:??_R0?AUSMotionEventDataEffectToTarget@NMotionEvent@@@8 ; NMotionEvent::SMotionEventDataEffectToTarget::`RTTI Base Class Descriptor at (0,-1,0,64)'
	DD	01H
	DD	00H
	DD	0ffffffffH
	DD	00H
	DD	040H
	DD	FLAT:??_R3SMotionEventDataEffectToTarget@NMotionEvent@@8
rdata$r	ENDS
;	COMDAT ??_R2SMotionEventDataEffectToTarget@NMotionEvent@@8
rdata$r	SEGMENT
??_R2SMotionEventDataEffectToTarget@NMotionEvent@@8 DD FLAT:??_R1A@?0A@EA@SMotionEventDataEffectToTarget@NMotionEvent@@8 ; NMotionEvent::SMotionEventDataEffectToTarget::`RTTI Base Class Array'
	DD	FLAT:??_R1A@?0A@EA@SMotionEventData@NMotionEvent@@8
rdata$r	ENDS
;	COMDAT ??_R3SMotionEventDataEffectToTarget@NMotionEvent@@8
rdata$r	SEGMENT
??_R3SMotionEventDataEffectToTarget@NMotionEvent@@8 DD 00H ; NMotionEvent::SMotionEventDataEffectToTarget::`RTTI Class Hierarchy Descriptor'
	DD	00H
	DD	02H
	DD	FLAT:??_R2SMotionEventDataEffectToTarget@NMotionEvent@@8
rdata$r	ENDS
;	COMDAT ??_R0?AUSMotionEventDataEffectToTarget@NMotionEvent@@@8
data$rs	SEGMENT
??_R0?AUSMotionEventDataEffectToTarget@NMotionEvent@@@8 DD FLAT:??_7type_info@@6B@ ; NMotionEvent::SMotionEventDataEffectToTarget `RTTI Type Descriptor'
	DD	00H
	DB	'.?AUSMotionEventDataEffectToTarget@NMotionEvent@@', 00H
data$rs	ENDS
;	COMDAT ??_R4SMotionEventDataEffectToTarget@NMotionEvent@@6B@
rdata$r	SEGMENT
??_R4SMotionEventDataEffectToTarget@NMotionEvent@@6B@ DD 00H ; NMotionEvent::SMotionEventDataEffectToTarget::`RTTI Complete Object Locator'
	DD	00H
	DD	00H
	DD	FLAT:??_R0?AUSMotionEventDataEffectToTarget@NMotionEvent@@@8
	DD	FLAT:??_R3SMotionEventDataEffectToTarget@NMotionEvent@@8
rdata$r	ENDS
;	COMDAT ??_R1A@?0A@EA@SMotionEventDataEffect@NMotionEvent@@8
rdata$r	SEGMENT
??_R1A@?0A@EA@SMotionEventDataEffect@NMotionEvent@@8 DD FLAT:??_R0?AUSMotionEventDataEffect@NMotionEvent@@@8 ; NMotionEvent::SMotionEventDataEffect::`RTTI Base Class Descriptor at (0,-1,0,64)'
	DD	01H
	DD	00H
	DD	0ffffffffH
	DD	00H
	DD	040H
	DD	FLAT:??_R3SMotionEventDataEffect@NMotionEvent@@8
rdata$r	ENDS
;	COMDAT ??_R2SMotionEventDataEffect@NMotionEvent@@8
rdata$r	SEGMENT
??_R2SMotionEventDataEffect@NMotionEvent@@8 DD FLAT:??_R1A@?0A@EA@SMotionEventDataEffect@NMotionEvent@@8 ; NMotionEvent::SMotionEventDataEffect::`RTTI Base Class Array'
	DD	FLAT:??_R1A@?0A@EA@SMotionEventData@NMotionEvent@@8
rdata$r	ENDS
;	COMDAT ??_R3SMotionEventDataEffect@NMotionEvent@@8
rdata$r	SEGMENT
??_R3SMotionEventDataEffect@NMotionEvent@@8 DD 00H	; NMotionEvent::SMotionEventDataEffect::`RTTI Class Hierarchy Descriptor'
	DD	00H
	DD	02H
	DD	FLAT:??_R2SMotionEventDataEffect@NMotionEvent@@8
rdata$r	ENDS
;	COMDAT ??_R0?AUSMotionEventDataEffect@NMotionEvent@@@8
data$rs	SEGMENT
??_R0?AUSMotionEventDataEffect@NMotionEvent@@@8 DD FLAT:??_7type_info@@6B@ ; NMotionEvent::SMotionEventDataEffect `RTTI Type Descriptor'
	DD	00H
	DB	'.?AUSMotionEventDataEffect@NMotionEvent@@', 00H
data$rs	ENDS
;	COMDAT ??_R4SMotionEventDataEffect@NMotionEvent@@6B@
rdata$r	SEGMENT
??_R4SMotionEventDataEffect@NMotionEvent@@6B@ DD 00H	; NMotionEvent::SMotionEventDataEffect::`RTTI Complete Object Locator'
	DD	00H
	DD	00H
	DD	FLAT:??_R0?AUSMotionEventDataEffect@NMotionEvent@@@8
	DD	FLAT:??_R3SMotionEventDataEffect@NMotionEvent@@8
rdata$r	ENDS
;	COMDAT ??_R1A@?0A@EA@SMotionEventDataScreenWaving@NMotionEvent@@8
rdata$r	SEGMENT
??_R1A@?0A@EA@SMotionEventDataScreenWaving@NMotionEvent@@8 DD FLAT:??_R0?AUSMotionEventDataScreenWaving@NMotionEvent@@@8 ; NMotionEvent::SMotionEventDataScreenWaving::`RTTI Base Class Descriptor at (0,-1,0,64)'
	DD	01H
	DD	00H
	DD	0ffffffffH
	DD	00H
	DD	040H
	DD	FLAT:??_R3SMotionEventDataScreenWaving@NMotionEvent@@8
rdata$r	ENDS
;	COMDAT ??_R2SMotionEventDataScreenWaving@NMotionEvent@@8
rdata$r	SEGMENT
??_R2SMotionEventDataScreenWaving@NMotionEvent@@8 DD FLAT:??_R1A@?0A@EA@SMotionEventDataScreenWaving@NMotionEvent@@8 ; NMotionEvent::SMotionEventDataScreenWaving::`RTTI Base Class Array'
	DD	FLAT:??_R1A@?0A@EA@SMotionEventData@NMotionEvent@@8
rdata$r	ENDS
;	COMDAT ??_R3SMotionEventDataScreenWaving@NMotionEvent@@8
rdata$r	SEGMENT
??_R3SMotionEventDataScreenWaving@NMotionEvent@@8 DD 00H ; NMotionEvent::SMotionEventDataScreenWaving::`RTTI Class Hierarchy Descriptor'
	DD	00H
	DD	02H
	DD	FLAT:??_R2SMotionEventDataScreenWaving@NMotionEvent@@8
rdata$r	ENDS
;	COMDAT ??_R0?AUSMotionEventDataScreenWaving@NMotionEvent@@@8
data$rs	SEGMENT
??_R0?AUSMotionEventDataScreenWaving@NMotionEvent@@@8 DD FLAT:??_7type_info@@6B@ ; NMotionEvent::SMotionEventDataScreenWaving `RTTI Type Descriptor'
	DD	00H
	DB	'.?AUSMotionEventDataScreenWaving@NMotionEvent@@', 00H
data$rs	ENDS
;	COMDAT ??_R4SMotionEventDataScreenWaving@NMotionEvent@@6B@
rdata$r	SEGMENT
??_R4SMotionEventDataScreenWaving@NMotionEvent@@6B@ DD 00H ; NMotionEvent::SMotionEventDataScreenWaving::`RTTI Complete Object Locator'
	DD	00H
	DD	00H
	DD	FLAT:??_R0?AUSMotionEventDataScreenWaving@NMotionEvent@@@8
	DD	FLAT:??_R3SMotionEventDataScreenWaving@NMotionEvent@@8
rdata$r	ENDS
;	COMDAT ??_R1A@?0A@EA@SMotionEventData@NMotionEvent@@8
rdata$r	SEGMENT
??_R1A@?0A@EA@SMotionEventData@NMotionEvent@@8 DD FLAT:??_R0?AUSMotionEventData@NMotionEvent@@@8 ; NMotionEvent::SMotionEventData::`RTTI Base Class Descriptor at (0,-1,0,64)'
	DD	00H
	DD	00H
	DD	0ffffffffH
	DD	00H
	DD	040H
	DD	FLAT:??_R3SMotionEventData@NMotionEvent@@8
rdata$r	ENDS
;	COMDAT ??_R2SMotionEventData@NMotionEvent@@8
rdata$r	SEGMENT
??_R2SMotionEventData@NMotionEvent@@8 DD FLAT:??_R1A@?0A@EA@SMotionEventData@NMotionEvent@@8 ; NMotionEvent::SMotionEventData::`RTTI Base Class Array'
rdata$r	ENDS
;	COMDAT ??_R3SMotionEventData@NMotionEvent@@8
rdata$r	SEGMENT
??_R3SMotionEventData@NMotionEvent@@8 DD 00H		; NMotionEvent::SMotionEventData::`RTTI Class Hierarchy Descriptor'
	DD	00H
	DD	01H
	DD	FLAT:??_R2SMotionEventData@NMotionEvent@@8
rdata$r	ENDS
;	COMDAT ??_R0?AUSMotionEventData@NMotionEvent@@@8
data$rs	SEGMENT
??_R0?AUSMotionEventData@NMotionEvent@@@8 DD FLAT:??_7type_info@@6B@ ; NMotionEvent::SMotionEventData `RTTI Type Descriptor'
	DD	00H
	DB	'.?AUSMotionEventData@NMotionEvent@@', 00H
data$rs	ENDS
;	COMDAT ??_R4SMotionEventData@NMotionEvent@@6B@
rdata$r	SEGMENT
??_R4SMotionEventData@NMotionEvent@@6B@ DD 00H		; NMotionEvent::SMotionEventData::`RTTI Complete Object Locator'
	DD	00H
	DD	00H
	DD	FLAT:??_R0?AUSMotionEventData@NMotionEvent@@@8
	DD	FLAT:??_R3SMotionEventData@NMotionEvent@@8
rdata$r	ENDS
;	COMDAT ??_C@_0BA@FOIKENOD@vector?5too?5long@
CONST	SEGMENT
??_C@_0BA@FOIKENOD@vector?5too?5long@ DB 'vector too long', 00H ; `string'
CONST	ENDS
;	COMDAT ??_C@_0BJ@DHFDPMIM@invalid?5vector?5subscript@
CONST	SEGMENT
??_C@_0BJ@DHFDPMIM@invalid?5vector?5subscript@ DB 'invalid vector subscri'
	DB	'pt', 00H					; `string'
CONST	ENDS
;	COMDAT ??_C@_06PBLIODKG@sound?1@
CONST	SEGMENT
??_C@_06PBLIODKG@sound?1@ DB 'sound/', 00H		; `string'
CONST	ENDS
;	COMDAT ??_C@_04NMMFEKGF@?4mss@
CONST	SEGMENT
??_C@_04NMMFEKGF@?4mss@ DB '.mss', 00H			; `string'
CONST	ENDS
;	COMDAT ??_C@_0N@NHFBHOF@startingtime@
CONST	SEGMENT
??_C@_0N@NHFBHOF@startingtime@ DB 'startingtime', 00H	; `string'
CONST	ENDS
;	COMDAT ??_C@_0BA@CGGAKCNF@motioneventtype@
CONST	SEGMENT
??_C@_0BA@CGGAKCNF@motioneventtype@ DB 'motioneventtype', 00H ; `string'
CONST	ENDS
;	COMDAT ??_C@_05GFHEIIDD@event@
CONST	SEGMENT
??_C@_05GFHEIIDD@event@ DB 'event', 00H			; `string'
CONST	ENDS
;	COMDAT ??_C@_0BF@KNDELFNF@motioneventdatacount@
CONST	SEGMENT
??_C@_0BF@KNDELFNF@motioneventdatacount@ DB 'motioneventdatacount', 00H ; `string'
CONST	ENDS
;	COMDAT ??_C@_0BA@LAEICHPP@motioneventdata@
CONST	SEGMENT
??_C@_0BA@LAEICHPP@motioneventdata@ DB 'motioneventdata', 00H ; `string'
CONST	ENDS
;	COMDAT ??_C@_0M@HIAPALPD@loopendtime@
CONST	SEGMENT
??_C@_0M@HIAPALPD@loopendtime@ DB 'loopendtime', 00H	; `string'
CONST	ENDS
;	COMDAT ??_C@_0O@FAMGINHI@loopstarttime@
CONST	SEGMENT
??_C@_0O@FAMGINHI@loopstarttime@ DB 'loopstarttime', 00H ; `string'
CONST	ENDS
;	COMDAT ??_C@_0BB@LFNJMKIF@loopcancelenable@
CONST	SEGMENT
??_C@_0BB@LFNJMKIF@loopcancelenable@ DB 'loopcancelenable', 00H ; `string'
CONST	ENDS
;	COMDAT ??_C@_0BA@HKGDAAAM@motionloopcount@
CONST	SEGMENT
??_C@_0BA@HKGDAAAM@motionloopcount@ DB 'motionloopcount', 00H ; `string'
CONST	ENDS
;	COMDAT ??_C@_08BMIAMBLK@loopdata@
CONST	SEGMENT
??_C@_08BMIAMBLK@loopdata@ DB 'loopdata', 00H		; `string'
CONST	ENDS
;	COMDAT ??_C@_0O@NGMBMFEH@attackingdata@
CONST	SEGMENT
??_C@_0O@NGMBMFEH@attackingdata@ DB 'attackingdata', 00H ; `string'
CONST	ENDS
;	COMDAT ??_C@_0P@PPFBMGLB@inputlimittime@
CONST	SEGMENT
??_C@_0P@PPFBMGLB@inputlimittime@ DB 'inputlimittime', 00H ; `string'
CONST	ENDS
;	COMDAT ??_C@_0BA@OKILMLFK@directinputtime@
CONST	SEGMENT
??_C@_0BA@OKILMLFK@directinputtime@ DB 'directinputtime', 00H ; `string'
CONST	ENDS
;	COMDAT ??_C@_0N@IKJEINLI@preinputtime@
CONST	SEGMENT
??_C@_0N@IKJEINLI@preinputtime@ DB 'preinputtime', 00H	; `string'
CONST	ENDS
;	COMDAT ??_C@_0P@BEGKENNC@comboinputdata@
CONST	SEGMENT
??_C@_0P@BEGKENNC@comboinputdata@ DB 'comboinputdata', 00H ; `string'
CONST	ENDS
;	COMDAT ??_C@_0EP@FGBECHEA@CRaceMotioNData?3?3LoadMotionData@
CONST	SEGMENT
??_C@_0EP@FGBECHEA@CRaceMotioNData?3?3LoadMotionData@ DB 'CRaceMotioNData'
	DB	'::LoadMotionData : syntax error on accumulation, vector size '
	DB	'%d', 00H					; `string'
CONST	ENDS
;	COMDAT ??_C@_0N@JBNPINGA@accumulation@
CONST	SEGMENT
??_C@_0N@JBNPINGA@accumulation@ DB 'accumulation', 00H	; `string'
CONST	ENDS
;	COMDAT ??_C@_0P@CAAIIAIN@motionduration@
CONST	SEGMENT
??_C@_0P@CAAIIAIN@motionduration@ DB 'motionduration', 00H ; `string'
CONST	ENDS
;	COMDAT ??_C@_0P@IGAOIDID@motionfilename@
CONST	SEGMENT
??_C@_0P@IGAOIDID@motionfilename@ DB 'motionfilename', 00H ; `string'
CONST	ENDS
;	COMDAT ??_C@_0CL@NGIMIHAA@CRaceMotionData?3?3SetName?5?9?5UNKN@
CONST	SEGMENT
??_C@_0CL@NGIMIHAA@CRaceMotionData?3?3SetName?5?9?5UNKN@ DB 'CRaceMotionD'
	DB	'ata::SetName - UNKNOWN NAME %d', 00H	; `string'
CONST	ENDS
;	COMDAT ??_7CRaceMotionData@@6B@
CONST	SEGMENT
??_7CRaceMotionData@@6B@ DD FLAT:??_R4CRaceMotionData@@6B@ ; CRaceMotionData::`vftable'
	DD	FLAT:??_ECRaceMotionData@@UAEPAXI@Z
CONST	ENDS
_DATA	SEGMENT
?ms_kPool@CRaceMotionData@@1V?$CDynamicPool@VCRaceMotionData@@@@A DD FLAT:??_7?$CDynamicPool@VCRaceMotionData@@@@6B@ ; CRaceMotionData::ms_kPool
	DD	00H
	DD	00H
	DD	00H
	DD	00H
	DD	00H
	DD	00H
	DD	00H
	DD	00H
_DATA	ENDS
;	COMDAT ??_7SMotionEventDataWarp@NMotionEvent@@6B@
CONST	SEGMENT
??_7SMotionEventDataWarp@NMotionEvent@@6B@ DD FLAT:??_R4SMotionEventDataWarp@NMotionEvent@@6B@ ; NMotionEvent::SMotionEventDataWarp::`vftable'
	DD	FLAT:??_ESMotionEventDataWarp@NMotionEvent@@UAEPAXI@Z
	DD	FLAT:?Save@SMotionEventDataWarp@NMotionEvent@@UAEXPAU_iobuf@@H@Z
	DD	FLAT:?Load@SMotionEventData@NMotionEvent@@UAE_NAAVCTextFileLoader@@@Z
CONST	ENDS
;	COMDAT ??_7SMotionEventDataCharacterHide@NMotionEvent@@6B@
CONST	SEGMENT
??_7SMotionEventDataCharacterHide@NMotionEvent@@6B@ DD FLAT:??_R4SMotionEventDataCharacterHide@NMotionEvent@@6B@ ; NMotionEvent::SMotionEventDataCharacterHide::`vftable'
	DD	FLAT:??_ESMotionEventDataCharacterHide@NMotionEvent@@UAEPAXI@Z
	DD	FLAT:?Save@SMotionEventDataCharacterHide@NMotionEvent@@UAEXPAU_iobuf@@H@Z
	DD	FLAT:?Load@SMotionEventData@NMotionEvent@@UAE_NAAVCTextFileLoader@@@Z
CONST	ENDS
;	COMDAT ??_7SMotionEventDataCharacterShow@NMotionEvent@@6B@
CONST	SEGMENT
??_7SMotionEventDataCharacterShow@NMotionEvent@@6B@ DD FLAT:??_R4SMotionEventDataCharacterShow@NMotionEvent@@6B@ ; NMotionEvent::SMotionEventDataCharacterShow::`vftable'
	DD	FLAT:??_ESMotionEventDataCharacterShow@NMotionEvent@@UAEPAXI@Z
	DD	FLAT:?Save@SMotionEventDataCharacterShow@NMotionEvent@@UAEXPAU_iobuf@@H@Z
	DD	FLAT:?Load@SMotionEventData@NMotionEvent@@UAE_NAAVCTextFileLoader@@@Z
CONST	ENDS
;	COMDAT ??_C@_0O@POGBJFAA@soundfilename@
CONST	SEGMENT
??_C@_0O@POGBJFAA@soundfilename@ DB 'soundfilename', 00H ; `string'
CONST	ENDS
;	COMDAT ??_C@_0BL@OCKKLAAD@SoundFileName?5?5?5?5?5?5?5?5?$CC?$CFs?$CC?6@
CONST	SEGMENT
??_C@_0BL@OCKKLAAD@SoundFileName?5?5?5?5?5?5?5?5?$CC?$CFs?$CC?6@ DB 'Soun'
	DB	'dFileName        "%s"', 0aH, 00H		; `string'
CONST	ENDS
;	COMDAT ??_7SMotionEventDataSound@NMotionEvent@@6B@
CONST	SEGMENT
??_7SMotionEventDataSound@NMotionEvent@@6B@ DD FLAT:??_R4SMotionEventDataSound@NMotionEvent@@6B@ ; NMotionEvent::SMotionEventDataSound::`vftable'
	DD	FLAT:??_ESMotionEventDataSound@NMotionEvent@@UAEPAXI@Z
	DD	FLAT:?Save@SMotionEventDataSound@NMotionEvent@@UAEXPAU_iobuf@@H@Z
	DD	FLAT:?Load@SMotionEventDataSound@NMotionEvent@@UAE_NAAVCTextFileLoader@@@Z
CONST	ENDS
;	COMDAT ??_C@_0BB@NODGLCEN@enablehitprocess@
CONST	SEGMENT
??_C@_0BB@NODGLCEN@enablehitprocess@ DB 'enablehitprocess', 00H ; `string'
CONST	ENDS
;	COMDAT ??_C@_0BJ@DAILMIKJ@EnableHitProcess?5?5?5?5?5?$CFd?6@
CONST	SEGMENT
??_C@_0BJ@DAILMIKJ@EnableHitProcess?5?5?5?5?5?$CFd?6@ DB 'EnableHitProces'
	DB	's     %d', 0aH, 00H				; `string'
CONST	ENDS
;	COMDAT ??_7SMotionEventDataAttack@NMotionEvent@@6B@
CONST	SEGMENT
??_7SMotionEventDataAttack@NMotionEvent@@6B@ DD FLAT:??_R4SMotionEventDataAttack@NMotionEvent@@6B@ ; NMotionEvent::SMotionEventDataAttack::`vftable'
	DD	FLAT:??_ESMotionEventDataAttack@NMotionEvent@@UAEPAXI@Z
	DD	FLAT:?Save@SMotionEventDataAttack@NMotionEvent@@UAEXPAU_iobuf@@H@Z
	DD	FLAT:?Load@SMotionEventDataAttack@NMotionEvent@@UAE_NAAVCTextFileLoader@@@Z
CONST	ENDS
;	COMDAT ??_C@_0M@OKENILIB@flyposition@
CONST	SEGMENT
??_C@_0M@OKENILIB@flyposition@ DB 'flyposition', 00H	; `string'
CONST	ENDS
;	COMDAT ??_C@_0M@BKDIDPMI@flyfilename@
CONST	SEGMENT
??_C@_0M@BKDIDPMI@flyfilename@ DB 'flyfilename', 00H	; `string'
CONST	ENDS
;	COMDAT ??_C@_0BM@LNHEOAC@FlyPosition?5?5?5?5?5?5?5?$CFf?5?$CFf?5?$CFf?6@
CONST	SEGMENT
??_C@_0BM@LNHEOAC@FlyPosition?5?5?5?5?5?5?5?$CFf?5?$CFf?5?$CFf?6@ DB 'Fly'
	DB	'Position       %f %f %f', 0aH, 00H		; `string'
CONST	ENDS
;	COMDAT ??_C@_0BI@MFBAEGBD@FlyFileName?5?5?5?5?5?5?5?$CC?$CFs?$CC?6@
CONST	SEGMENT
??_C@_0BI@MFBAEGBD@FlyFileName?5?5?5?5?5?5?5?$CC?$CFs?$CC?6@ DB 'FlyFileN'
	DB	'ame       "%s"', 0aH, 00H			; `string'
CONST	ENDS
;	COMDAT ??_7SMotionEventDataFly@NMotionEvent@@6B@
CONST	SEGMENT
??_7SMotionEventDataFly@NMotionEvent@@6B@ DD FLAT:??_R4SMotionEventDataFly@NMotionEvent@@6B@ ; NMotionEvent::SMotionEventDataFly::`vftable'
	DD	FLAT:??_ESMotionEventDataFly@NMotionEvent@@UAEPAXI@Z
	DD	FLAT:?Save@SMotionEventDataFly@NMotionEvent@@UAEXPAU_iobuf@@H@Z
	DD	FLAT:?Load@SMotionEventDataFly@NMotionEvent@@UAE_NAAVCTextFileLoader@@@Z
CONST	ENDS
;	COMDAT ??_C@_0BC@PGIDKNAJ@fishingeffectflag@
CONST	SEGMENT
??_C@_0BC@PGIDKNAJ@fishingeffectflag@ DB 'fishingeffectflag', 00H ; `string'
CONST	ENDS
;	COMDAT ??_C@_0BJ@ECHDEMEM@FishingEffectFlag?5?5?5?5?$CFd?6@
CONST	SEGMENT
??_C@_0BJ@ECHDEMEM@FishingEffectFlag?5?5?5?5?$CFd?6@ DB 'FishingEffectFla'
	DB	'g    %d', 0aH, 00H				; `string'
CONST	ENDS
;	COMDAT ??_7SMotionEventDataEffectToTarget@NMotionEvent@@6B@
CONST	SEGMENT
??_7SMotionEventDataEffectToTarget@NMotionEvent@@6B@ DD FLAT:??_R4SMotionEventDataEffectToTarget@NMotionEvent@@6B@ ; NMotionEvent::SMotionEventDataEffectToTarget::`vftable'
	DD	FLAT:??_ESMotionEventDataEffectToTarget@NMotionEvent@@UAEPAXI@Z
	DD	FLAT:?Save@SMotionEventDataEffectToTarget@NMotionEvent@@UAEXPAU_iobuf@@H@Z
	DD	FLAT:?Load@SMotionEventDataEffectToTarget@NMotionEvent@@UAE_NAAVCTextFileLoader@@@Z
CONST	ENDS
;	COMDAT ??_C@_0BA@DEKLACIK@followingenable@
CONST	SEGMENT
??_C@_0BA@DEKLACIK@followingenable@ DB 'followingenable', 00H ; `string'
CONST	ENDS
;	COMDAT ??_C@_0P@PMGDNJPL@effectposition@
CONST	SEGMENT
??_C@_0P@PMGDNJPL@effectposition@ DB 'effectposition', 00H ; `string'
CONST	ENDS
;	COMDAT ??_C@_0P@MBGGNLC@effectfilename@
CONST	SEGMENT
??_C@_0P@MBGGNLC@effectfilename@ DB 'effectfilename', 00H ; `string'
CONST	ENDS
;	COMDAT ??_C@_0BC@FCIOLNPK@attachingbonename@
CONST	SEGMENT
??_C@_0BC@FCIOLNPK@attachingbonename@ DB 'attachingbonename', 00H ; `string'
CONST	ENDS
;	COMDAT ??_C@_0BA@HJAHPMOG@attachingenable@
CONST	SEGMENT
??_C@_0BA@HJAHPMOG@attachingenable@ DB 'attachingenable', 00H ; `string'
CONST	ENDS
;	COMDAT ??_C@_0BA@MCOMBMGO@independentflag@
CONST	SEGMENT
??_C@_0BA@MCOMBMGO@independentflag@ DB 'independentflag', 00H ; `string'
CONST	ENDS
;	COMDAT ??_C@_0BP@CFDDPJAK@EffectPosition?5?5?5?5?5?5?5?$CFf?5?$CFf?5?$CFf?6@
CONST	SEGMENT
??_C@_0BP@CFDDPJAK@EffectPosition?5?5?5?5?5?5?5?$CFf?5?$CFf?5?$CFf?6@ DB 'E'
	DB	'ffectPosition       %f %f %f', 0aH, 00H	; `string'
CONST	ENDS
;	COMDAT ??_C@_0BL@OHMOOLCL@EffectFileName?5?5?5?5?5?5?5?$CC?$CFs?$CC?6@
CONST	SEGMENT
??_C@_0BL@OHMOOLCL@EffectFileName?5?5?5?5?5?5?5?$CC?$CFs?$CC?6@ DB 'Effec'
	DB	'tFileName       "%s"', 0aH, 00H		; `string'
CONST	ENDS
;	COMDAT ??_C@_0BJ@NDNPFOND@FollowingEnable?5?5?5?5?5?5?$CFd?6@
CONST	SEGMENT
??_C@_0BJ@NDNPFOND@FollowingEnable?5?5?5?5?5?5?$CFd?6@ DB 'FollowingEnabl'
	DB	'e      %d', 0aH, 00H			; `string'
CONST	ENDS
;	COMDAT ??_C@_0BL@PLABIPOF@AttachingBoneName?5?5?5?5?$CC?$CFs?$CC?6@
CONST	SEGMENT
??_C@_0BL@PLABIPOF@AttachingBoneName?5?5?5?5?$CC?$CFs?$CC?6@ DB 'Attachin'
	DB	'gBoneName    "%s"', 0aH, 00H		; `string'
CONST	ENDS
;	COMDAT ??_C@_0BJ@LAKEIKLD@AttachingEnable?5?5?5?5?5?5?$CFd?6@
CONST	SEGMENT
??_C@_0BJ@LAKEIKLD@AttachingEnable?5?5?5?5?5?5?$CFd?6@ DB 'AttachingEnabl'
	DB	'e      %d', 0aH, 00H			; `string'
CONST	ENDS
;	COMDAT ??_C@_0BJ@EFAIBPHL@IndependentFlag?5?5?5?5?5?5?$CFd?6@
CONST	SEGMENT
??_C@_0BJ@EFAIBPHL@IndependentFlag?5?5?5?5?5?5?$CFd?6@ DB 'IndependentFla'
	DB	'g      %d', 0aH, 00H			; `string'
CONST	ENDS
;	COMDAT ??_7SMotionEventDataEffect@NMotionEvent@@6B@
CONST	SEGMENT
??_7SMotionEventDataEffect@NMotionEvent@@6B@ DD FLAT:??_R4SMotionEventDataEffect@NMotionEvent@@6B@ ; NMotionEvent::SMotionEventDataEffect::`vftable'
	DD	FLAT:??_ESMotionEventDataEffect@NMotionEvent@@UAEPAXI@Z
	DD	FLAT:?Save@SMotionEventDataEffect@NMotionEvent@@UAEXPAU_iobuf@@H@Z
	DD	FLAT:?Load@SMotionEventDataEffect@NMotionEvent@@UAE_NAAVCTextFileLoader@@@Z
CONST	ENDS
;	COMDAT ??_C@_0P@JIGGKKJB@affectingrange@
CONST	SEGMENT
??_C@_0P@JIGGKKJB@affectingrange@ DB 'affectingrange', 00H ; `string'
CONST	ENDS
;	COMDAT ??_C@_05PLIADJJL@power@
CONST	SEGMENT
??_C@_05PLIADJJL@power@ DB 'power', 00H			; `string'
CONST	ENDS
;	COMDAT ??_C@_0L@KJGFIEPL@duringtime@
CONST	SEGMENT
??_C@_0L@KJGFIEPL@duringtime@ DB 'duringtime', 00H	; `string'
CONST	ENDS
;	COMDAT ??_C@_0BJ@KLBKOEEF@AffectingRange?5?5?5?5?5?5?5?$CFd?6@
CONST	SEGMENT
??_C@_0BJ@KLBKOEEF@AffectingRange?5?5?5?5?5?5?5?$CFd?6@ DB 'AffectingRang'
	DB	'e       %d', 0aH, 00H			; `string'
CONST	ENDS
;	COMDAT ??_C@_0BJ@FEKHNOBC@Power?5?5?5?5?5?5?5?5?5?5?5?5?5?5?5?5?$CFd?6@
CONST	SEGMENT
??_C@_0BJ@FEKHNOBC@Power?5?5?5?5?5?5?5?5?5?5?5?5?5?5?5?5?$CFd?6@ DB 'Powe'
	DB	'r                %d', 0aH, 00H		; `string'
CONST	ENDS
;	COMDAT ??_C@_0BJ@JOLNCGNF@DuringTime?5?5?5?5?5?5?5?5?5?5?5?$CFf?6@
CONST	SEGMENT
??_C@_0BJ@JOLNCGNF@DuringTime?5?5?5?5?5?5?5?5?5?5?5?$CFf?6@ DB 'DuringTim'
	DB	'e           %f', 0aH, 00H			; `string'
CONST	ENDS
;	COMDAT ??_C@_01EEMJAFIK@?6@
CONST	SEGMENT
??_C@_01EEMJAFIK@?6@ DB 0aH, 00H			; `string'
CONST	ENDS
;	COMDAT ??_7SMotionEventDataScreenWaving@NMotionEvent@@6B@
CONST	SEGMENT
??_7SMotionEventDataScreenWaving@NMotionEvent@@6B@ DD FLAT:??_R4SMotionEventDataScreenWaving@NMotionEvent@@6B@ ; NMotionEvent::SMotionEventDataScreenWaving::`vftable'
	DD	FLAT:??_ESMotionEventDataScreenWaving@NMotionEvent@@UAEPAXI@Z
	DD	FLAT:?Save@SMotionEventDataScreenWaving@NMotionEvent@@UAEXPAU_iobuf@@H@Z
	DD	FLAT:?Load@SMotionEventDataScreenWaving@NMotionEvent@@UAE_NAAVCTextFileLoader@@@Z
CONST	ENDS
;	COMDAT ??_7SMotionEventData@NMotionEvent@@6B@
CONST	SEGMENT
??_7SMotionEventData@NMotionEvent@@6B@ DD FLAT:??_R4SMotionEventData@NMotionEvent@@6B@ ; NMotionEvent::SMotionEventData::`vftable'
	DD	FLAT:??_ESMotionEventData@NMotionEvent@@UAEPAXI@Z
	DD	FLAT:__purecall
	DD	FLAT:?Load@SMotionEventData@NMotionEvent@@UAE_NAAVCTextFileLoader@@@Z
CONST	ENDS
;	COMDAT ?ms_kPool@?$CPooledObject@VCRotationDecorator@NEffectUpdateDecorator@@@@1V?$CDynamicPoolEx@VCRotationDecorator@NEffectUpdateDecorator@@@@A
_DATA	SEGMENT
?ms_kPool@?$CPooledObject@VCRotationDecorator@NEffectUpdateDecorator@@@@1V?$CDynamicPoolEx@VCRotationDecorator@NEffectUpdateDecorator@@@@A DD FLAT:??_7?$CDynamicPoolEx@VCRotationDecorator@NEffectUpdateDecorator@@@@6B@ ; CPooledObject<NEffectUpdateDecorator::CRotationDecorator>::ms_kPool
	DD	00H
	DD	00H
	DD	00H
	DD	00H
	DD	00H
	DD	00H
	DD	00H
	DD	00H
_DATA	ENDS
;	COMDAT ?ms_kPool@?$CPooledObject@VCGravityDecorator@NEffectUpdateDecorator@@@@1V?$CDynamicPoolEx@VCGravityDecorator@NEffectUpdateDecorator@@@@A
_DATA	SEGMENT
?ms_kPool@?$CPooledObject@VCGravityDecorator@NEffectUpdateDecorator@@@@1V?$CDynamicPoolEx@VCGravityDecorator@NEffectUpdateDecorator@@@@A DD FLAT:??_7?$CDynamicPoolEx@VCGravityDecorator@NEffectUpdateDecorator@@@@6B@ ; CPooledObject<NEffectUpdateDecorator::CGravityDecorator>::ms_kPool
	DD	00H
	DD	00H
	DD	00H
	DD	00H
	DD	00H
	DD	00H
	DD	00H
	DD	00H
_DATA	ENDS
;	COMDAT ?ms_kPool@?$CPooledObject@VCAirResistanceDecorator@NEffectUpdateDecorator@@@@1V?$CDynamicPoolEx@VCAirResistanceDecorator@NEffectUpdateDecorator@@@@A
_DATA	SEGMENT
?ms_kPool@?$CPooledObject@VCAirResistanceDecorator@NEffectUpdateDecorator@@@@1V?$CDynamicPoolEx@VCAirResistanceDecorator@NEffectUpdateDecorator@@@@A DD FLAT:??_7?$CDynamicPoolEx@VCAirResistanceDecorator@NEffectUpdateDecorator@@@@6B@ ; CPooledObject<NEffectUpdateDecorator::CAirResistanceDecorator>::ms_kPool
	DD	00H
	DD	00H
	DD	00H
	DD	00H
	DD	00H
	DD	00H
	DD	00H
	DD	00H
_DATA	ENDS
;	COMDAT ?ms_kPool@?$CPooledObject@VCTextureAnimationRandomDecorator@NEffectUpdateDecorator@@@@1V?$CDynamicPoolEx@VCTextureAnimationRandomDecorator@NEffectUpdateDecorator@@@@A
_DATA	SEGMENT
?ms_kPool@?$CPooledObject@VCTextureAnimationRandomDecorator@NEffectUpdateDecorator@@@@1V?$CDynamicPoolEx@VCTextureAnimationRandomDecorator@NEffectUpdateDecorator@@@@A DD FLAT:??_7?$CDynamicPoolEx@VCTextureAnimationRandomDecorator@NEffectUpdateDecorator@@@@6B@ ; CPooledObject<NEffectUpdateDecorator::CTextureAnimationRandomDecorator>::ms_kPool
	DD	00H
	DD	00H
	DD	00H
	DD	00H
	DD	00H
	DD	00H
	DD	00H
	DD	00H
_DATA	ENDS
;	COMDAT ?ms_kPool@?$CPooledObject@VCTextureAnimationCCWDecorator@NEffectUpdateDecorator@@@@1V?$CDynamicPoolEx@VCTextureAnimationCCWDecorator@NEffectUpdateDecorator@@@@A
_DATA	SEGMENT
?ms_kPool@?$CPooledObject@VCTextureAnimationCCWDecorator@NEffectUpdateDecorator@@@@1V?$CDynamicPoolEx@VCTextureAnimationCCWDecorator@NEffectUpdateDecorator@@@@A DD FLAT:??_7?$CDynamicPoolEx@VCTextureAnimationCCWDecorator@NEffectUpdateDecorator@@@@6B@ ; CPooledObject<NEffectUpdateDecorator::CTextureAnimationCCWDecorator>::ms_kPool
	DD	00H
	DD	00H
	DD	00H
	DD	00H
	DD	00H
	DD	00H
	DD	00H
	DD	00H
_DATA	ENDS
;	COMDAT ?ms_kPool@?$CPooledObject@VCTextureAnimationCWDecorator@NEffectUpdateDecorator@@@@1V?$CDynamicPoolEx@VCTextureAnimationCWDecorator@NEffectUpdateDecorator@@@@A
_DATA	SEGMENT
?ms_kPool@?$CPooledObject@VCTextureAnimationCWDecorator@NEffectUpdateDecorator@@@@1V?$CDynamicPoolEx@VCTextureAnimationCWDecorator@NEffectUpdateDecorator@@@@A DD FLAT:??_7?$CDynamicPoolEx@VCTextureAnimationCWDecorator@NEffectUpdateDecorator@@@@6B@ ; CPooledObject<NEffectUpdateDecorator::CTextureAnimationCWDecorator>::ms_kPool
	DD	00H
	DD	00H
	DD	00H
	DD	00H
	DD	00H
	DD	00H
	DD	00H
	DD	00H
_DATA	ENDS
;	COMDAT ?ms_kPool@?$CPooledObject@VCNullDecorator@NEffectUpdateDecorator@@@@1V?$CDynamicPoolEx@VCNullDecorator@NEffectUpdateDecorator@@@@A
_DATA	SEGMENT
?ms_kPool@?$CPooledObject@VCNullDecorator@NEffectUpdateDecorator@@@@1V?$CDynamicPoolEx@VCNullDecorator@NEffectUpdateDecorator@@@@A DD FLAT:??_7?$CDynamicPoolEx@VCNullDecorator@NEffectUpdateDecorator@@@@6B@ ; CPooledObject<NEffectUpdateDecorator::CNullDecorator>::ms_kPool
	DD	00H
	DD	00H
	DD	00H
	DD	00H
	DD	00H
	DD	00H
	DD	00H
	DD	00H
_DATA	ENDS
;	COMDAT ?ms_kPool@?$CPooledObject@VCHeaderDecorator@NEffectUpdateDecorator@@@@1V?$CDynamicPoolEx@VCHeaderDecorator@NEffectUpdateDecorator@@@@A
_DATA	SEGMENT
?ms_kPool@?$CPooledObject@VCHeaderDecorator@NEffectUpdateDecorator@@@@1V?$CDynamicPoolEx@VCHeaderDecorator@NEffectUpdateDecorator@@@@A DD FLAT:??_7?$CDynamicPoolEx@VCHeaderDecorator@NEffectUpdateDecorator@@@@6B@ ; CPooledObject<NEffectUpdateDecorator::CHeaderDecorator>::ms_kPool
	DD	00H
	DD	00H
	DD	00H
	DD	00H
	DD	00H
	DD	00H
	DD	00H
	DD	00H
_DATA	ENDS
;	COMDAT ??_R1A@?0A@EA@SCollisionData@NRaceData@@8
rdata$r	SEGMENT
??_R1A@?0A@EA@SCollisionData@NRaceData@@8 DD FLAT:??_R0?AUSCollisionData@NRaceData@@@8 ; NRaceData::SCollisionData::`RTTI Base Class Descriptor at (0,-1,0,64)'
	DD	00H
	DD	00H
	DD	0ffffffffH
	DD	00H
	DD	040H
	DD	FLAT:??_R3SCollisionData@NRaceData@@8
rdata$r	ENDS
;	COMDAT ??_R2SCollisionData@NRaceData@@8
rdata$r	SEGMENT
??_R2SCollisionData@NRaceData@@8 DD FLAT:??_R1A@?0A@EA@SCollisionData@NRaceData@@8 ; NRaceData::SCollisionData::`RTTI Base Class Array'
rdata$r	ENDS
;	COMDAT ??_R3SCollisionData@NRaceData@@8
rdata$r	SEGMENT
??_R3SCollisionData@NRaceData@@8 DD 00H			; NRaceData::SCollisionData::`RTTI Class Hierarchy Descriptor'
	DD	00H
	DD	01H
	DD	FLAT:??_R2SCollisionData@NRaceData@@8
rdata$r	ENDS
;	COMDAT ??_R0?AUSCollisionData@NRaceData@@@8
data$rs	SEGMENT
??_R0?AUSCollisionData@NRaceData@@@8 DD FLAT:??_7type_info@@6B@ ; NRaceData::SCollisionData `RTTI Type Descriptor'
	DD	00H
	DB	'.?AUSCollisionData@NRaceData@@', 00H
data$rs	ENDS
;	COMDAT ??_R4SCollisionData@NRaceData@@6B@
rdata$r	SEGMENT
??_R4SCollisionData@NRaceData@@6B@ DD 00H		; NRaceData::SCollisionData::`RTTI Complete Object Locator'
	DD	00H
	DD	00H
	DD	FLAT:??_R0?AUSCollisionData@NRaceData@@@8
	DD	FLAT:??_R3SCollisionData@NRaceData@@8
rdata$r	ENDS
;	COMDAT ??_R4bad_alloc@std@@6B@
rdata$r	SEGMENT
??_R4bad_alloc@std@@6B@ DD 00H				; std::bad_alloc::`RTTI Complete Object Locator'
	DD	00H
	DD	00H
	DD	FLAT:??_R0?AVbad_alloc@std@@@8
	DD	FLAT:??_R3bad_alloc@std@@8
rdata$r	ENDS
;	COMDAT ??_R2bad_alloc@std@@8
rdata$r	SEGMENT
??_R2bad_alloc@std@@8 DD FLAT:??_R1A@?0A@EA@bad_alloc@std@@8 ; std::bad_alloc::`RTTI Base Class Array'
	DD	FLAT:??_R1A@?0A@EA@exception@std@@8
rdata$r	ENDS
;	COMDAT ??_R3bad_alloc@std@@8
rdata$r	SEGMENT
??_R3bad_alloc@std@@8 DD 00H				; std::bad_alloc::`RTTI Class Hierarchy Descriptor'
	DD	00H
	DD	02H
	DD	FLAT:??_R2bad_alloc@std@@8
rdata$r	ENDS
;	COMDAT ??_R1A@?0A@EA@bad_alloc@std@@8
rdata$r	SEGMENT
??_R1A@?0A@EA@bad_alloc@std@@8 DD FLAT:??_R0?AVbad_alloc@std@@@8 ; std::bad_alloc::`RTTI Base Class Descriptor at (0,-1,0,64)'
	DD	01H
	DD	00H
	DD	0ffffffffH
	DD	00H
	DD	040H
	DD	FLAT:??_R3bad_alloc@std@@8
rdata$r	ENDS
;	COMDAT ??_R1A@?0A@EA@bad_array_new_length@std@@8
rdata$r	SEGMENT
??_R1A@?0A@EA@bad_array_new_length@std@@8 DD FLAT:??_R0?AVbad_array_new_length@std@@@8 ; std::bad_array_new_length::`RTTI Base Class Descriptor at (0,-1,0,64)'
	DD	02H
	DD	00H
	DD	0ffffffffH
	DD	00H
	DD	040H
	DD	FLAT:??_R3bad_array_new_length@std@@8
rdata$r	ENDS
;	COMDAT ??_R2bad_array_new_length@std@@8
rdata$r	SEGMENT
??_R2bad_array_new_length@std@@8 DD FLAT:??_R1A@?0A@EA@bad_array_new_length@std@@8 ; std::bad_array_new_length::`RTTI Base Class Array'
	DD	FLAT:??_R1A@?0A@EA@bad_alloc@std@@8
	DD	FLAT:??_R1A@?0A@EA@exception@std@@8
rdata$r	ENDS
;	COMDAT ??_R3bad_array_new_length@std@@8
rdata$r	SEGMENT
??_R3bad_array_new_length@std@@8 DD 00H			; std::bad_array_new_length::`RTTI Class Hierarchy Descriptor'
	DD	00H
	DD	03H
	DD	FLAT:??_R2bad_array_new_length@std@@8
rdata$r	ENDS
;	COMDAT ??_R4bad_array_new_length@std@@6B@
rdata$r	SEGMENT
??_R4bad_array_new_length@std@@6B@ DD 00H		; std::bad_array_new_length::`RTTI Complete Object Locator'
	DD	00H
	DD	00H
	DD	FLAT:??_R0?AVbad_array_new_length@std@@@8
	DD	FLAT:??_R3bad_array_new_length@std@@8
rdata$r	ENDS
;	COMDAT ??_R1A@?0A@EA@exception@std@@8
rdata$r	SEGMENT
??_R1A@?0A@EA@exception@std@@8 DD FLAT:??_R0?AVexception@std@@@8 ; std::exception::`RTTI Base Class Descriptor at (0,-1,0,64)'
	DD	00H
	DD	00H
	DD	0ffffffffH
	DD	00H
	DD	040H
	DD	FLAT:??_R3exception@std@@8
rdata$r	ENDS
;	COMDAT ??_R2exception@std@@8
rdata$r	SEGMENT
??_R2exception@std@@8 DD FLAT:??_R1A@?0A@EA@exception@std@@8 ; std::exception::`RTTI Base Class Array'
rdata$r	ENDS
;	COMDAT ??_R3exception@std@@8
rdata$r	SEGMENT
??_R3exception@std@@8 DD 00H				; std::exception::`RTTI Class Hierarchy Descriptor'
	DD	00H
	DD	01H
	DD	FLAT:??_R2exception@std@@8
rdata$r	ENDS
;	COMDAT ??_R4exception@std@@6B@
rdata$r	SEGMENT
??_R4exception@std@@6B@ DD 00H				; std::exception::`RTTI Complete Object Locator'
	DD	00H
	DD	00H
	DD	FLAT:??_R0?AVexception@std@@@8
	DD	FLAT:??_R3exception@std@@8
rdata$r	ENDS
;	COMDAT ??_C@_0BI@CFPLBAOH@invalid?5string?5position@
CONST	SEGMENT
??_C@_0BI@CFPLBAOH@invalid?5string?5position@ DB 'invalid string position'
	DB	00H						; `string'
CONST	ENDS
;	COMDAT ??_7SCollisionData@NRaceData@@6B@
CONST	SEGMENT
??_7SCollisionData@NRaceData@@6B@ DD FLAT:??_R4SCollisionData@NRaceData@@6B@ ; NRaceData::SCollisionData::`vftable'
	DD	FLAT:??_ESCollisionData@NRaceData@@UAEPAXI@Z
CONST	ENDS
;	COMDAT ??_C@_0BA@JFNIOLAK@string?5too?5long@
CONST	SEGMENT
??_C@_0BA@JFNIOLAK@string?5too?5long@ DB 'string too long', 00H ; `string'
CONST	ENDS
;	COMDAT __CT??_R0?AVbad_alloc@std@@@8??0bad_alloc@std@@QAE@ABV01@@Z12
xdata$x	SEGMENT
__CT??_R0?AVbad_alloc@std@@@8??0bad_alloc@std@@QAE@ABV01@@Z12 DD 010H
	DD	FLAT:??_R0?AVbad_alloc@std@@@8
	DD	00H
	DD	0ffffffffH
	ORG $+4
	DD	0cH
	DD	FLAT:??0bad_alloc@std@@QAE@ABV01@@Z
xdata$x	ENDS
;	COMDAT ??_R0?AVbad_alloc@std@@@8
data$r	SEGMENT
??_R0?AVbad_alloc@std@@@8 DD FLAT:??_7type_info@@6B@	; std::bad_alloc `RTTI Type Descriptor'
	DD	00H
	DB	'.?AVbad_alloc@std@@', 00H
data$r	ENDS
;	COMDAT __CT??_R0?AVbad_array_new_length@std@@@8??0bad_array_new_length@std@@QAE@ABV01@@Z12
xdata$x	SEGMENT
__CT??_R0?AVbad_array_new_length@std@@@8??0bad_array_new_length@std@@QAE@ABV01@@Z12 DD 00H
	DD	FLAT:??_R0?AVbad_array_new_length@std@@@8
	DD	00H
	DD	0ffffffffH
	ORG $+4
	DD	0cH
	DD	FLAT:??0bad_array_new_length@std@@QAE@ABV01@@Z
xdata$x	ENDS
;	COMDAT ??_R0?AVbad_array_new_length@std@@@8
data$r	SEGMENT
??_R0?AVbad_array_new_length@std@@@8 DD FLAT:??_7type_info@@6B@ ; std::bad_array_new_length `RTTI Type Descriptor'
	DD	00H
	DB	'.?AVbad_array_new_length@std@@', 00H
data$r	ENDS
;	COMDAT __CTA3?AVbad_array_new_length@std@@
xdata$x	SEGMENT
__CTA3?AVbad_array_new_length@std@@ DD 03H
	DD	FLAT:__CT??_R0?AVbad_array_new_length@std@@@8??0bad_array_new_length@std@@QAE@ABV01@@Z12
	DD	FLAT:__CT??_R0?AVbad_alloc@std@@@8??0bad_alloc@std@@QAE@ABV01@@Z12
	DD	FLAT:__CT??_R0?AVexception@std@@@8??0exception@std@@QAE@ABV01@@Z12
xdata$x	ENDS
;	COMDAT __TI3?AVbad_array_new_length@std@@
xdata$x	SEGMENT
__TI3?AVbad_array_new_length@std@@ DD 00H
	DD	FLAT:??1bad_array_new_length@std@@UAE@XZ
	DD	00H
	DD	FLAT:__CTA3?AVbad_array_new_length@std@@
xdata$x	ENDS
;	COMDAT __CT??_R0?AVexception@std@@@8??0exception@std@@QAE@ABV01@@Z12
xdata$x	SEGMENT
__CT??_R0?AVexception@std@@@8??0exception@std@@QAE@ABV01@@Z12 DD 00H
	DD	FLAT:??_R0?AVexception@std@@@8
	DD	00H
	DD	0ffffffffH
	ORG $+4
	DD	0cH
	DD	FLAT:??0exception@std@@QAE@ABV01@@Z
xdata$x	ENDS
;	COMDAT ??_R0?AVexception@std@@@8
data$r	SEGMENT
??_R0?AVexception@std@@@8 DD FLAT:??_7type_info@@6B@	; std::exception `RTTI Type Descriptor'
	DD	00H
	DB	'.?AVexception@std@@', 00H
data$r	ENDS
;	COMDAT ??_C@_0BF@KINCDENJ@bad?5array?5new?5length@
CONST	SEGMENT
??_C@_0BF@KINCDENJ@bad?5array?5new?5length@ DB 'bad array new length', 00H ; `string'
CONST	ENDS
;	COMDAT ??_7bad_array_new_length@std@@6B@
CONST	SEGMENT
??_7bad_array_new_length@std@@6B@ DD FLAT:??_R4bad_array_new_length@std@@6B@ ; std::bad_array_new_length::`vftable'
	DD	FLAT:??_Ebad_array_new_length@std@@UAEPAXI@Z
	DD	FLAT:?what@exception@std@@UBEPBDXZ
CONST	ENDS
;	COMDAT ??_7bad_alloc@std@@6B@
CONST	SEGMENT
??_7bad_alloc@std@@6B@ DD FLAT:??_R4bad_alloc@std@@6B@	; std::bad_alloc::`vftable'
	DD	FLAT:??_Ebad_alloc@std@@UAEPAXI@Z
	DD	FLAT:?what@exception@std@@UBEPBDXZ
CONST	ENDS
;	COMDAT ??_C@_0BC@EOODALEL@Unknown?5exception@
CONST	SEGMENT
??_C@_0BC@EOODALEL@Unknown?5exception@ DB 'Unknown exception', 00H ; `string'
CONST	ENDS
;	COMDAT ??_7exception@std@@6B@
CONST	SEGMENT
??_7exception@std@@6B@ DD FLAT:??_R4exception@std@@6B@	; std::exception::`vftable'
	DD	FLAT:??_Eexception@std@@UAEPAXI@Z
	DD	FLAT:?what@exception@std@@UBEPBDXZ
CONST	ENDS
;	COMDAT xdata$x
xdata$x	SEGMENT
__unwindtable$?LoadSoundScriptData@CRaceMotionData@@QAE_NPBD@Z DD 0ffffffffH
	DD	FLAT:__unwindfunclet$?LoadSoundScriptData@CRaceMotionData@@QAE_NPBD@Z$0
__ehfuncinfo$?LoadSoundScriptData@CRaceMotionData@@QAE_NPBD@Z DD 019930522H
	DD	01H
	DD	FLAT:__unwindtable$?LoadSoundScriptData@CRaceMotionData@@QAE_NPBD@Z
	DD	2 DUP(00H)
	DD	2 DUP(00H)
	DD	00H
	DD	01H
xdata$x	ENDS
;	COMDAT xdata$x
xdata$x	SEGMENT
__ehfuncinfo$?LoadMotionData@CRaceMotionData@@QAE_NPBD@Z DD 019930522H
	DD	01dH
	DD	FLAT:__unwindtable$?LoadMotionData@CRaceMotionData@@QAE_NPBD@Z
	DD	2 DUP(00H)
	DD	2 DUP(00H)
	DD	00H
	DD	01H
__unwindtable$?LoadMotionData@CRaceMotionData@@QAE_NPBD@Z DD 0ffffffffH
	DD	FLAT:__unwindfunclet$?LoadMotionData@CRaceMotionData@@QAE_NPBD@Z$0
	DD	0ffffffffH
	DD	FLAT:__unwindfunclet$?LoadMotionData@CRaceMotionData@@QAE_NPBD@Z$1
	DD	0ffffffffH
	DD	FLAT:__unwindfunclet$?LoadMotionData@CRaceMotionData@@QAE_NPBD@Z$2
	DD	0ffffffffH
	DD	FLAT:__unwindfunclet$?LoadMotionData@CRaceMotionData@@QAE_NPBD@Z$3
	DD	03H
	DD	FLAT:__unwindfunclet$?LoadMotionData@CRaceMotionData@@QAE_NPBD@Z$4
	DD	04H
	DD	FLAT:__unwindfunclet$?LoadMotionData@CRaceMotionData@@QAE_NPBD@Z$5
	DD	03H
	DD	00H
	DD	04H
	DD	FLAT:__unwindfunclet$?LoadMotionData@CRaceMotionData@@QAE_NPBD@Z$6
	DD	03H
	DD	00H
	DD	04H
	DD	FLAT:__unwindfunclet$?LoadMotionData@CRaceMotionData@@QAE_NPBD@Z$7
	DD	03H
	DD	00H
	DD	03H
	DD	00H
	DD	04H
	DD	FLAT:__unwindfunclet$?LoadMotionData@CRaceMotionData@@QAE_NPBD@Z$8
	DD	04H
	DD	FLAT:__unwindfunclet$?LoadMotionData@CRaceMotionData@@QAE_NPBD@Z$9
	DD	04H
	DD	FLAT:__unwindfunclet$?LoadMotionData@CRaceMotionData@@QAE_NPBD@Z$10
	DD	03H
	DD	00H
	DD	04H
	DD	FLAT:__unwindfunclet$?LoadMotionData@CRaceMotionData@@QAE_NPBD@Z$11
	DD	03H
	DD	00H
	DD	04H
	DD	FLAT:__unwindfunclet$?LoadMotionData@CRaceMotionData@@QAE_NPBD@Z$12
	DD	03H
	DD	FLAT:___std_terminate
	DD	04H
	DD	FLAT:__unwindfunclet$?LoadMotionData@CRaceMotionData@@QAE_NPBD@Z$13
	DD	03H
	DD	00H
	DD	04H
	DD	FLAT:__unwindfunclet$?LoadMotionData@CRaceMotionData@@QAE_NPBD@Z$14
	DD	03H
	DD	00H
	DD	03H
	DD	00H
	DD	04H
	DD	FLAT:__unwindfunclet$?LoadMotionData@CRaceMotionData@@QAE_NPBD@Z$24
	DD	03H
	DD	FLAT:___std_terminate
	DD	03H
	DD	FLAT:___std_terminate
	DD	03H
	DD	FLAT:__unwindfunclet$?LoadMotionData@CRaceMotionData@@QAE_NPBD@Z$25
xdata$x	ENDS
;	COMDAT xdata$x
xdata$x	SEGMENT
__unwindtable$?Load@SMotionEventDataSound@NMotionEvent@@UAE_NAAVCTextFileLoader@@@Z DD 0ffffffffH
	DD	FLAT:__unwindfunclet$?Load@SMotionEventDataSound@NMotionEvent@@UAE_NAAVCTextFileLoader@@@Z$0
__ehfuncinfo$?Load@SMotionEventDataSound@NMotionEvent@@UAE_NAAVCTextFileLoader@@@Z DD 019930522H
	DD	01H
	DD	FLAT:__unwindtable$?Load@SMotionEventDataSound@NMotionEvent@@UAE_NAAVCTextFileLoader@@@Z
	DD	2 DUP(00H)
	DD	2 DUP(00H)
	DD	00H
	DD	01H
xdata$x	ENDS
;	COMDAT xdata$x
xdata$x	SEGMENT
__unwindtable$?Load@SMotionEventDataAttack@NMotionEvent@@UAE_NAAVCTextFileLoader@@@Z DD 0ffffffffH
	DD	FLAT:__unwindfunclet$?Load@SMotionEventDataAttack@NMotionEvent@@UAE_NAAVCTextFileLoader@@@Z$0
	DD	0ffffffffH
	DD	FLAT:__unwindfunclet$?Load@SMotionEventDataAttack@NMotionEvent@@UAE_NAAVCTextFileLoader@@@Z$1
__ehfuncinfo$?Load@SMotionEventDataAttack@NMotionEvent@@UAE_NAAVCTextFileLoader@@@Z DD 019930522H
	DD	02H
	DD	FLAT:__unwindtable$?Load@SMotionEventDataAttack@NMotionEvent@@UAE_NAAVCTextFileLoader@@@Z
	DD	2 DUP(00H)
	DD	2 DUP(00H)
	DD	00H
	DD	01H
xdata$x	ENDS
;	COMDAT xdata$x
xdata$x	SEGMENT
__unwindtable$?Load@SMotionEventDataFly@NMotionEvent@@UAE_NAAVCTextFileLoader@@@Z DD 0ffffffffH
	DD	FLAT:__unwindfunclet$?Load@SMotionEventDataFly@NMotionEvent@@UAE_NAAVCTextFileLoader@@@Z$0
	DD	0ffffffffH
	DD	FLAT:__unwindfunclet$?Load@SMotionEventDataFly@NMotionEvent@@UAE_NAAVCTextFileLoader@@@Z$1
	DD	0ffffffffH
	DD	FLAT:__unwindfunclet$?Load@SMotionEventDataFly@NMotionEvent@@UAE_NAAVCTextFileLoader@@@Z$2
	DD	0ffffffffH
	DD	FLAT:__unwindfunclet$?Load@SMotionEventDataFly@NMotionEvent@@UAE_NAAVCTextFileLoader@@@Z$3
__ehfuncinfo$?Load@SMotionEventDataFly@NMotionEvent@@UAE_NAAVCTextFileLoader@@@Z DD 019930522H
	DD	04H
	DD	FLAT:__unwindtable$?Load@SMotionEventDataFly@NMotionEvent@@UAE_NAAVCTextFileLoader@@@Z
	DD	2 DUP(00H)
	DD	2 DUP(00H)
	DD	00H
	DD	01H
xdata$x	ENDS
;	COMDAT xdata$x
xdata$x	SEGMENT
__unwindtable$?Load@SMotionEventDataEffectToTarget@NMotionEvent@@UAE_NAAVCTextFileLoader@@@Z DD 0ffffffffH
	DD	FLAT:__unwindfunclet$?Load@SMotionEventDataEffectToTarget@NMotionEvent@@UAE_NAAVCTextFileLoader@@@Z$0
	DD	0ffffffffH
	DD	FLAT:__unwindfunclet$?Load@SMotionEventDataEffectToTarget@NMotionEvent@@UAE_NAAVCTextFileLoader@@@Z$1
	DD	0ffffffffH
	DD	FLAT:__unwindfunclet$?Load@SMotionEventDataEffectToTarget@NMotionEvent@@UAE_NAAVCTextFileLoader@@@Z$2
	DD	0ffffffffH
	DD	FLAT:__unwindfunclet$?Load@SMotionEventDataEffectToTarget@NMotionEvent@@UAE_NAAVCTextFileLoader@@@Z$3
__ehfuncinfo$?Load@SMotionEventDataEffectToTarget@NMotionEvent@@UAE_NAAVCTextFileLoader@@@Z DD 019930522H
	DD	04H
	DD	FLAT:__unwindtable$?Load@SMotionEventDataEffectToTarget@NMotionEvent@@UAE_NAAVCTextFileLoader@@@Z
	DD	2 DUP(00H)
	DD	2 DUP(00H)
	DD	00H
	DD	01H
xdata$x	ENDS
;	COMDAT xdata$x
xdata$x	SEGMENT
__ehfuncinfo$?Load@SMotionEventDataEffect@NMotionEvent@@UAE_NAAVCTextFileLoader@@@Z DD 019930522H
	DD	06H
	DD	FLAT:__unwindtable$?Load@SMotionEventDataEffect@NMotionEvent@@UAE_NAAVCTextFileLoader@@@Z
	DD	2 DUP(00H)
	DD	2 DUP(00H)
	DD	00H
	DD	01H
__unwindtable$?Load@SMotionEventDataEffect@NMotionEvent@@UAE_NAAVCTextFileLoader@@@Z DD 0ffffffffH
	DD	FLAT:__unwindfunclet$?Load@SMotionEventDataEffect@NMotionEvent@@UAE_NAAVCTextFileLoader@@@Z$0
	DD	0ffffffffH
	DD	FLAT:__unwindfunclet$?Load@SMotionEventDataEffect@NMotionEvent@@UAE_NAAVCTextFileLoader@@@Z$1
	DD	0ffffffffH
	DD	FLAT:__unwindfunclet$?Load@SMotionEventDataEffect@NMotionEvent@@UAE_NAAVCTextFileLoader@@@Z$2
	DD	0ffffffffH
	DD	FLAT:__unwindfunclet$?Load@SMotionEventDataEffect@NMotionEvent@@UAE_NAAVCTextFileLoader@@@Z$3
	DD	0ffffffffH
	DD	FLAT:__unwindfunclet$?Load@SMotionEventDataEffect@NMotionEvent@@UAE_NAAVCTextFileLoader@@@Z$4
	DD	0ffffffffH
	DD	FLAT:__unwindfunclet$?Load@SMotionEventDataEffect@NMotionEvent@@UAE_NAAVCTextFileLoader@@@Z$5
xdata$x	ENDS
;	COMDAT xdata$x
xdata$x	SEGMENT
__unwindtable$?Load@SMotionEventDataScreenWaving@NMotionEvent@@UAE_NAAVCTextFileLoader@@@Z DD 0ffffffffH
	DD	FLAT:__unwindfunclet$?Load@SMotionEventDataScreenWaving@NMotionEvent@@UAE_NAAVCTextFileLoader@@@Z$0
	DD	0ffffffffH
	DD	FLAT:__unwindfunclet$?Load@SMotionEventDataScreenWaving@NMotionEvent@@UAE_NAAVCTextFileLoader@@@Z$1
	DD	0ffffffffH
	DD	FLAT:__unwindfunclet$?Load@SMotionEventDataScreenWaving@NMotionEvent@@UAE_NAAVCTextFileLoader@@@Z$2
__ehfuncinfo$?Load@SMotionEventDataScreenWaving@NMotionEvent@@UAE_NAAVCTextFileLoader@@@Z DD 019930522H
	DD	03H
	DD	FLAT:__unwindtable$?Load@SMotionEventDataScreenWaving@NMotionEvent@@UAE_NAAVCTextFileLoader@@@Z
	DD	2 DUP(00H)
	DD	2 DUP(00H)
	DD	00H
	DD	01H
xdata$x	ENDS
;	COMDAT xdata$x
xdata$x	SEGMENT
__ehfuncinfo$??1CGotoChild@CTextFileLoader@@QAE@XZ DD 019930522H
	DD	00H
	DD	00H
	DD	2 DUP(00H)
	DD	2 DUP(00H)
	DD	00H
	DD	05H
xdata$x	ENDS
;	COMDAT CRT$XCU
CRT$XCU	SEGMENT
??ms_kPool$initializer$@?$CPooledObject@VCHeaderDecorator@NEffectUpdateDecorator@@@@1P6AXXZA@@3P6AXXZA DD FLAT:??__E?ms_kPool@?$CPooledObject@VCHeaderDecorator@NEffectUpdateDecorator@@@@1V?$CDynamicPoolEx@VCHeaderDecorator@NEffectUpdateDecorator@@@@A@@YAXXZ ; ??ms_kPool$initializer$@?$CPooledObject@VCHeaderDecorator@NEffectUpdateDecorator@@@@1P6AXXZA@@3P6AXXZA
CRT$XCU	ENDS
;	COMDAT CRT$XCU
CRT$XCU	SEGMENT
??ms_kPool$initializer$@?$CPooledObject@VCNullDecorator@NEffectUpdateDecorator@@@@1P6AXXZA@@3P6AXXZA DD FLAT:??__E?ms_kPool@?$CPooledObject@VCNullDecorator@NEffectUpdateDecorator@@@@1V?$CDynamicPoolEx@VCNullDecorator@NEffectUpdateDecorator@@@@A@@YAXXZ ; ??ms_kPool$initializer$@?$CPooledObject@VCNullDecorator@NEffectUpdateDecorator@@@@1P6AXXZA@@3P6AXXZA
CRT$XCU	ENDS
;	COMDAT CRT$XCU
CRT$XCU	SEGMENT
??ms_kPool$initializer$@?$CPooledObject@VCTextureAnimationCWDecorator@NEffectUpdateDecorator@@@@1P6AXXZA@@3P6AXXZA DD FLAT:??__E?ms_kPool@?$CPooledObject@VCTextureAnimationCWDecorator@NEffectUpdateDecorator@@@@1V?$CDynamicPoolEx@VCTextureAnimationCWDecorator@NEffectUpdateDecorator@@@@A@@YAXXZ ; ??ms_kPool$initializer$@?$CPooledObject@VCTextureAnimationCWDecorator@NEffectUpdateDecorator@@@@1P6AXXZA@@3P6AXXZA
CRT$XCU	ENDS
;	COMDAT CRT$XCU
CRT$XCU	SEGMENT
??ms_kPool$initializer$@?$CPooledObject@VCTextureAnimationCCWDecorator@NEffectUpdateDecorator@@@@1P6AXXZA@@3P6AXXZA DD FLAT:??__E?ms_kPool@?$CPooledObject@VCTextureAnimationCCWDecorator@NEffectUpdateDecorator@@@@1V?$CDynamicPoolEx@VCTextureAnimationCCWDecorator@NEffectUpdateDecorator@@@@A@@YAXXZ ; ??ms_kPool$initializer$@?$CPooledObject@VCTextureAnimationCCWDecorator@NEffectUpdateDecorator@@@@1P6AXXZA@@3P6AXXZA
CRT$XCU	ENDS
;	COMDAT CRT$XCU
CRT$XCU	SEGMENT
??ms_kPool$initializer$@?$CPooledObject@VCTextureAnimationRandomDecorator@NEffectUpdateDecorator@@@@1P6AXXZA@@3P6AXXZA DD FLAT:??__E?ms_kPool@?$CPooledObject@VCTextureAnimationRandomDecorator@NEffectUpdateDecorator@@@@1V?$CDynamicPoolEx@VCTextureAnimationRandomDecorator@NEffectUpdateDecorator@@@@A@@YAXXZ ; ??ms_kPool$initializer$@?$CPooledObject@VCTextureAnimationRandomDecorator@NEffectUpdateDecorator@@@@1P6AXXZA@@3P6AXXZA
CRT$XCU	ENDS
;	COMDAT CRT$XCU
CRT$XCU	SEGMENT
??ms_kPool$initializer$@?$CPooledObject@VCAirResistanceDecorator@NEffectUpdateDecorator@@@@1P6AXXZA@@3P6AXXZA DD FLAT:??__E?ms_kPool@?$CPooledObject@VCAirResistanceDecorator@NEffectUpdateDecorator@@@@1V?$CDynamicPoolEx@VCAirResistanceDecorator@NEffectUpdateDecorator@@@@A@@YAXXZ ; ??ms_kPool$initializer$@?$CPooledObject@VCAirResistanceDecorator@NEffectUpdateDecorator@@@@1P6AXXZA@@3P6AXXZA
CRT$XCU	ENDS
;	COMDAT CRT$XCU
CRT$XCU	SEGMENT
??ms_kPool$initializer$@?$CPooledObject@VCGravityDecorator@NEffectUpdateDecorator@@@@1P6AXXZA@@3P6AXXZA DD FLAT:??__E?ms_kPool@?$CPooledObject@VCGravityDecorator@NEffectUpdateDecorator@@@@1V?$CDynamicPoolEx@VCGravityDecorator@NEffectUpdateDecorator@@@@A@@YAXXZ ; ??ms_kPool$initializer$@?$CPooledObject@VCGravityDecorator@NEffectUpdateDecorator@@@@1P6AXXZA@@3P6AXXZA
CRT$XCU	ENDS
;	COMDAT CRT$XCU
CRT$XCU	SEGMENT
??ms_kPool$initializer$@?$CPooledObject@VCRotationDecorator@NEffectUpdateDecorator@@@@1P6AXXZA@@3P6AXXZA DD FLAT:??__E?ms_kPool@?$CPooledObject@VCRotationDecorator@NEffectUpdateDecorator@@@@1V?$CDynamicPoolEx@VCRotationDecorator@NEffectUpdateDecorator@@@@A@@YAXXZ ; ??ms_kPool$initializer$@?$CPooledObject@VCRotationDecorator@NEffectUpdateDecorator@@@@1P6AXXZA@@3P6AXXZA
CRT$XCU	ENDS
; Function compile flags: /Ogtp
; File D:\Program Files\Microsoft Visual Studio\2022\Community\VC\Tools\MSVC\14.43.34808\include\xutility
;	COMDAT ??$_Copy_memmove_tail@PAPAUSMotionEventData@NMotionEvent@@@std@@YAPAPAUSMotionEventData@NMotionEvent@@QBDQAPAU12@II@Z
_TEXT	SEGMENT
__First_ch$ = 8						; size = 4
__Dest$ = 12						; size = 4
__Byte_count$ = 16					; size = 4
__Object_count$ = 20					; size = 4
??$_Copy_memmove_tail@PAPAUSMotionEventData@NMotionEvent@@@std@@YAPAPAUSMotionEventData@NMotionEvent@@QBDQAPAU12@II@Z PROC ; std::_Copy_memmove_tail<NMotionEvent::SMotionEventData * *>, COMDAT

; 4763 :     const char* const _First_ch, const _OutCtgIt _Dest, const size_t _Byte_count, const size_t _Object_count) {

  00000	55		 push	 ebp
  00001	8b ec		 mov	 ebp, esp
  00003	56		 push	 esi

; 4764 :     _STL_INTERNAL_CHECK(_Byte_count == _Object_count * sizeof(*_Dest));
; 4765 :     const auto _Dest_ptr = _STD _To_address(_Dest);
; 4766 :     const auto _Dest_ch  = const_cast<char*>(reinterpret_cast<const volatile char*>(_Dest_ptr));
; 4767 :     _CSTD memmove(_Dest_ch, _First_ch, _Byte_count);

  00004	8b 75 0c	 mov	 esi, DWORD PTR __Dest$[ebp]
  00007	57		 push	 edi
  00008	8b 7d 10	 mov	 edi, DWORD PTR __Byte_count$[ebp]
  0000b	57		 push	 edi
  0000c	ff 75 08	 push	 DWORD PTR __First_ch$[ebp]
  0000f	56		 push	 esi
  00010	e8 00 00 00 00	 call	 _memmove
  00015	83 c4 0c	 add	 esp, 12			; 0000000cH

; 4768 :     if constexpr (is_pointer_v<_OutCtgIt>) {
; 4769 :         (void) _Object_count;
; 4770 :         // CodeQL [SM02986] This cast is correct: we're bypassing pointer arithmetic for performance.
; 4771 :         return reinterpret_cast<_OutCtgIt>(_Dest_ch + _Byte_count);

  00018	8d 04 3e	 lea	 eax, DWORD PTR [esi+edi]
  0001b	5f		 pop	 edi
  0001c	5e		 pop	 esi

; 4772 :     } else {
; 4773 :         return _Dest + static_cast<_Iter_diff_t<_OutCtgIt>>(_Object_count);
; 4774 :     }
; 4775 : }

  0001d	5d		 pop	 ebp
  0001e	c3		 ret	 0
??$_Copy_memmove_tail@PAPAUSMotionEventData@NMotionEvent@@@std@@YAPAPAUSMotionEventData@NMotionEvent@@QBDQAPAU12@II@Z ENDP ; std::_Copy_memmove_tail<NMotionEvent::SMotionEventData * *>
_TEXT	ENDS
; Function compile flags: /Ogtp
; File D:\Program Files\Microsoft Visual Studio\2022\Community\VC\Tools\MSVC\14.43.34808\include\xtree
; File D:\Program Files\Microsoft Visual Studio\2022\Community\VC\Tools\MSVC\14.43.34808\include\utility
; File D:\Program Files\Microsoft Visual Studio\2022\Community\VC\Tools\MSVC\14.43.34808\include\xmemory
; File D:\Program Files\Microsoft Visual Studio\2022\Community\VC\Tools\MSVC\14.43.34808\include\xtree
;	COMDAT ??$_Erase_tree@V?$allocator@U?$_Tree_node@U?$pair@$$CBMUCDynamicSphereInstance@@@std@@PAX@std@@@std@@@?$_Tree_val@U?$_Tree_simple_types@U?$pair@$$CBMUCDynamicSphereInstance@@@std@@@std@@@std@@QAEXAAV?$allocator@U?$_Tree_node@U?$pair@$$CBMUCDynamicSphereInstance@@@std@@PAX@std@@@1@PAU?$_Tree_node@U?$pair@$$CBMUCDynamicSphereInstance@@@std@@PAX@1@@Z
_TEXT	SEGMENT
__Al$ = 8						; size = 4
__Rootnode$ = 12					; size = 4
??$_Erase_tree@V?$allocator@U?$_Tree_node@U?$pair@$$CBMUCDynamicSphereInstance@@@std@@PAX@std@@@std@@@?$_Tree_val@U?$_Tree_simple_types@U?$pair@$$CBMUCDynamicSphereInstance@@@std@@@std@@@std@@QAEXAAV?$allocator@U?$_Tree_node@U?$pair@$$CBMUCDynamicSphereInstance@@@std@@PAX@std@@@1@PAU?$_Tree_node@U?$pair@$$CBMUCDynamicSphereInstance@@@std@@PAX@1@@Z PROC ; std::_Tree_val<std::_Tree_simple_types<std::pair<float const ,CDynamicSphereInstance> > >::_Erase_tree<std::allocator<std::_Tree_node<std::pair<float const ,CDynamicSphereInstance>,void *> > >, COMDAT
; _this$ = ecx

; 757  :     void _Erase_tree(_Alnode& _Al, _Nodeptr _Rootnode) noexcept {

  00000	55		 push	 ebp
  00001	8b ec		 mov	 ebp, esp
  00003	53		 push	 ebx
  00004	56		 push	 esi

; 758  :         while (!_Rootnode->_Isnil) { // free subtrees, then node

  00005	8b 75 0c	 mov	 esi, DWORD PTR __Rootnode$[ebp]
  00008	8b d9		 mov	 ebx, ecx
  0000a	80 7e 0d 00	 cmp	 BYTE PTR [esi+13], 0
  0000e	75 25		 jne	 SHORT $LN39@Erase_tree
  00010	57		 push	 edi
  00011	8b 7d 08	 mov	 edi, DWORD PTR __Al$[ebp]
$LL2@Erase_tree:

; 759  :             _Erase_tree(_Al, _Rootnode->_Right);

  00014	ff 76 08	 push	 DWORD PTR [esi+8]
  00017	8b cb		 mov	 ecx, ebx
  00019	57		 push	 edi
  0001a	e8 00 00 00 00	 call	 ??$_Erase_tree@V?$allocator@U?$_Tree_node@U?$pair@$$CBMUCDynamicSphereInstance@@@std@@PAX@std@@@std@@@?$_Tree_val@U?$_Tree_simple_types@U?$pair@$$CBMUCDynamicSphereInstance@@@std@@@std@@@std@@QAEXAAV?$allocator@U?$_Tree_node@U?$pair@$$CBMUCDynamicSphereInstance@@@std@@PAX@std@@@1@PAU?$_Tree_node@U?$pair@$$CBMUCDynamicSphereInstance@@@std@@PAX@1@@Z ; std::_Tree_val<std::_Tree_simple_types<std::pair<float const ,CDynamicSphereInstance> > >::_Erase_tree<std::allocator<std::_Tree_node<std::pair<float const ,CDynamicSphereInstance>,void *> > >
; File D:\Program Files\Microsoft Visual Studio\2022\Community\VC\Tools\MSVC\14.43.34808\include\utility

; 773  :     _Ty _Old_val = static_cast<_Ty&&>(_Val);

  0001f	8b c6		 mov	 eax, esi

; 774  :     _Val         = static_cast<_Other&&>(_New_val);

  00021	8b 36		 mov	 esi, DWORD PTR [esi]
; File D:\Program Files\Microsoft Visual Studio\2022\Community\VC\Tools\MSVC\14.43.34808\include\xmemory

; 289  :         ::operator delete(_Ptr, _Bytes);

  00023	6a 30		 push	 48			; 00000030H
  00025	50		 push	 eax
  00026	e8 00 00 00 00	 call	 ??3@YAXPAXI@Z		; operator delete
  0002b	83 c4 08	 add	 esp, 8
; File D:\Program Files\Microsoft Visual Studio\2022\Community\VC\Tools\MSVC\14.43.34808\include\xtree

; 758  :         while (!_Rootnode->_Isnil) { // free subtrees, then node

  0002e	80 7e 0d 00	 cmp	 BYTE PTR [esi+13], 0
  00032	74 e0		 je	 SHORT $LL2@Erase_tree
  00034	5f		 pop	 edi
$LN39@Erase_tree:
  00035	5e		 pop	 esi

; 760  :             _Alnode::value_type::_Freenode(_Al, _STD exchange(_Rootnode, _Rootnode->_Left));
; 761  :         }
; 762  :     }

  00036	5b		 pop	 ebx
  00037	5d		 pop	 ebp
  00038	c2 08 00	 ret	 8
??$_Erase_tree@V?$allocator@U?$_Tree_node@U?$pair@$$CBMUCDynamicSphereInstance@@@std@@PAX@std@@@std@@@?$_Tree_val@U?$_Tree_simple_types@U?$pair@$$CBMUCDynamicSphereInstance@@@std@@@std@@@std@@QAEXAAV?$allocator@U?$_Tree_node@U?$pair@$$CBMUCDynamicSphereInstance@@@std@@PAX@std@@@1@PAU?$_Tree_node@U?$pair@$$CBMUCDynamicSphereInstance@@@std@@PAX@1@@Z ENDP ; std::_Tree_val<std::_Tree_simple_types<std::pair<float const ,CDynamicSphereInstance> > >::_Erase_tree<std::allocator<std::_Tree_node<std::pair<float const ,CDynamicSphereInstance>,void *> > >
_TEXT	ENDS
; Function compile flags: /Ogtp
; File D:\Program Files\Microsoft Visual Studio\2022\Community\VC\Tools\MSVC\14.43.34808\include\xutility
;	COMDAT ??$_Copy_memmove_tail@PAPAVCRaceMotionData@@@std@@YAPAPAVCRaceMotionData@@QBDQAPAV1@II@Z
_TEXT	SEGMENT
__First_ch$ = 8						; size = 4
__Dest$ = 12						; size = 4
__Byte_count$ = 16					; size = 4
__Object_count$ = 20					; size = 4
??$_Copy_memmove_tail@PAPAVCRaceMotionData@@@std@@YAPAPAVCRaceMotionData@@QBDQAPAV1@II@Z PROC ; std::_Copy_memmove_tail<CRaceMotionData * *>, COMDAT

; 4763 :     const char* const _First_ch, const _OutCtgIt _Dest, const size_t _Byte_count, const size_t _Object_count) {

  00000	55		 push	 ebp
  00001	8b ec		 mov	 ebp, esp
  00003	56		 push	 esi

; 4764 :     _STL_INTERNAL_CHECK(_Byte_count == _Object_count * sizeof(*_Dest));
; 4765 :     const auto _Dest_ptr = _STD _To_address(_Dest);
; 4766 :     const auto _Dest_ch  = const_cast<char*>(reinterpret_cast<const volatile char*>(_Dest_ptr));
; 4767 :     _CSTD memmove(_Dest_ch, _First_ch, _Byte_count);

  00004	8b 75 0c	 mov	 esi, DWORD PTR __Dest$[ebp]
  00007	57		 push	 edi
  00008	8b 7d 10	 mov	 edi, DWORD PTR __Byte_count$[ebp]
  0000b	57		 push	 edi
  0000c	ff 75 08	 push	 DWORD PTR __First_ch$[ebp]
  0000f	56		 push	 esi
  00010	e8 00 00 00 00	 call	 _memmove
  00015	83 c4 0c	 add	 esp, 12			; 0000000cH

; 4768 :     if constexpr (is_pointer_v<_OutCtgIt>) {
; 4769 :         (void) _Object_count;
; 4770 :         // CodeQL [SM02986] This cast is correct: we're bypassing pointer arithmetic for performance.
; 4771 :         return reinterpret_cast<_OutCtgIt>(_Dest_ch + _Byte_count);

  00018	8d 04 3e	 lea	 eax, DWORD PTR [esi+edi]
  0001b	5f		 pop	 edi
  0001c	5e		 pop	 esi

; 4772 :     } else {
; 4773 :         return _Dest + static_cast<_Iter_diff_t<_OutCtgIt>>(_Object_count);
; 4774 :     }
; 4775 : }

  0001d	5d		 pop	 ebp
  0001e	c3		 ret	 0
??$_Copy_memmove_tail@PAPAVCRaceMotionData@@@std@@YAPAPAVCRaceMotionData@@QBDQAPAV1@II@Z ENDP ; std::_Copy_memmove_tail<CRaceMotionData * *>
_TEXT	ENDS
; Function compile flags: /Ogtp
; File D:\Program Files\Microsoft Visual Studio\2022\Community\VC\Tools\MSVC\14.43.34808\include\xutility
;	COMDAT ??$_Copy_memmove@PAPAUSMotionEventData@NMotionEvent@@PAPAU12@@std@@YAPAPAUSMotionEventData@NMotionEvent@@PAPAU12@00@Z
_TEXT	SEGMENT
__First$ = 8						; size = 4
__Last$ = 12						; size = 4
__Dest$ = 16						; size = 4
??$_Copy_memmove@PAPAUSMotionEventData@NMotionEvent@@PAPAU12@@std@@YAPAPAUSMotionEventData@NMotionEvent@@PAPAU12@00@Z PROC ; std::_Copy_memmove<NMotionEvent::SMotionEventData * *,NMotionEvent::SMotionEventData * *>, COMDAT

; 4778 : _OutCtgIt _Copy_memmove(_CtgIt _First, _CtgIt _Last, _OutCtgIt _Dest) {

  00000	55		 push	 ebp
  00001	8b ec		 mov	 ebp, esp

; 4779 :     _STL_INTERNAL_CHECK(_First <= _Last);
; 4780 :     const auto _First_ptr    = _STD _To_address(_First);
; 4781 :     const auto _Last_ptr     = _STD _To_address(_Last);
; 4782 :     const auto _Object_count = static_cast<size_t>(_Last_ptr - _First_ptr);

  00003	8b 55 08	 mov	 edx, DWORD PTR __First$[ebp]
  00006	8b 4d 0c	 mov	 ecx, DWORD PTR __Last$[ebp]
  00009	2b ca		 sub	 ecx, edx
  0000b	8b c1		 mov	 eax, ecx
  0000d	c1 f8 02	 sar	 eax, 2

; 4783 :     const auto _First_ch     = const_cast<const char*>(reinterpret_cast<const volatile char*>(_First_ptr));
; 4784 :     const auto _Last_ch      = const_cast<const char*>(reinterpret_cast<const volatile char*>(_Last_ptr));
; 4785 :     const auto _Byte_count   = static_cast<size_t>(_Last_ch - _First_ch);
; 4786 :     return _STD _Copy_memmove_tail(_First_ch, _STD move(_Dest), _Byte_count, _Object_count);

  00010	50		 push	 eax
  00011	51		 push	 ecx
  00012	ff 75 10	 push	 DWORD PTR __Dest$[ebp]
  00015	52		 push	 edx
  00016	e8 00 00 00 00	 call	 ??$_Copy_memmove_tail@PAPAUSMotionEventData@NMotionEvent@@@std@@YAPAPAUSMotionEventData@NMotionEvent@@QBDQAPAU12@II@Z ; std::_Copy_memmove_tail<NMotionEvent::SMotionEventData * *>
  0001b	83 c4 10	 add	 esp, 16			; 00000010H

; 4787 : }

  0001e	5d		 pop	 ebp
  0001f	c3		 ret	 0
??$_Copy_memmove@PAPAUSMotionEventData@NMotionEvent@@PAPAU12@@std@@YAPAPAUSMotionEventData@NMotionEvent@@PAPAU12@00@Z ENDP ; std::_Copy_memmove<NMotionEvent::SMotionEventData * *,NMotionEvent::SMotionEventData * *>
_TEXT	ENDS
; Function compile flags: /Ogtp
; File D:\Program Files\Microsoft Visual Studio\2022\Community\VC\Tools\MSVC\14.43.34808\include\xutility
;	COMDAT ??$_Copy_memmove@PAPAVCRaceMotionData@@PAPAV1@@std@@YAPAPAVCRaceMotionData@@PAPAV1@00@Z
_TEXT	SEGMENT
__First$ = 8						; size = 4
__Last$ = 12						; size = 4
__Dest$ = 16						; size = 4
??$_Copy_memmove@PAPAVCRaceMotionData@@PAPAV1@@std@@YAPAPAVCRaceMotionData@@PAPAV1@00@Z PROC ; std::_Copy_memmove<CRaceMotionData * *,CRaceMotionData * *>, COMDAT

; 4778 : _OutCtgIt _Copy_memmove(_CtgIt _First, _CtgIt _Last, _OutCtgIt _Dest) {

  00000	55		 push	 ebp
  00001	8b ec		 mov	 ebp, esp

; 4779 :     _STL_INTERNAL_CHECK(_First <= _Last);
; 4780 :     const auto _First_ptr    = _STD _To_address(_First);
; 4781 :     const auto _Last_ptr     = _STD _To_address(_Last);
; 4782 :     const auto _Object_count = static_cast<size_t>(_Last_ptr - _First_ptr);

  00003	8b 55 08	 mov	 edx, DWORD PTR __First$[ebp]
  00006	8b 4d 0c	 mov	 ecx, DWORD PTR __Last$[ebp]
  00009	2b ca		 sub	 ecx, edx
  0000b	8b c1		 mov	 eax, ecx
  0000d	c1 f8 02	 sar	 eax, 2

; 4783 :     const auto _First_ch     = const_cast<const char*>(reinterpret_cast<const volatile char*>(_First_ptr));
; 4784 :     const auto _Last_ch      = const_cast<const char*>(reinterpret_cast<const volatile char*>(_Last_ptr));
; 4785 :     const auto _Byte_count   = static_cast<size_t>(_Last_ch - _First_ch);
; 4786 :     return _STD _Copy_memmove_tail(_First_ch, _STD move(_Dest), _Byte_count, _Object_count);

  00010	50		 push	 eax
  00011	51		 push	 ecx
  00012	ff 75 10	 push	 DWORD PTR __Dest$[ebp]
  00015	52		 push	 edx
  00016	e8 00 00 00 00	 call	 ??$_Copy_memmove_tail@PAPAVCRaceMotionData@@@std@@YAPAPAVCRaceMotionData@@QBDQAPAV1@II@Z ; std::_Copy_memmove_tail<CRaceMotionData * *>
  0001b	83 c4 10	 add	 esp, 16			; 00000010H

; 4787 : }

  0001e	5d		 pop	 ebp
  0001f	c3		 ret	 0
??$_Copy_memmove@PAPAVCRaceMotionData@@PAPAV1@@std@@YAPAPAVCRaceMotionData@@PAPAV1@00@Z ENDP ; std::_Copy_memmove<CRaceMotionData * *,CRaceMotionData * *>
_TEXT	ENDS
; Function compile flags: /Ogtp
; File D:\Program Files\Microsoft Visual Studio\2022\Community\VC\Tools\MSVC\14.43.34808\include\xutility
;	COMDAT ??$_Fill_zero_memset@PAPAUSMotionEventData@NMotionEvent@@@std@@YAXPAPAUSMotionEventData@NMotionEvent@@I@Z
_TEXT	SEGMENT
__Dest$ = 8						; size = 4
__Count$ = 12						; size = 4
??$_Fill_zero_memset@PAPAUSMotionEventData@NMotionEvent@@@std@@YAXPAPAUSMotionEventData@NMotionEvent@@I@Z PROC ; std::_Fill_zero_memset<NMotionEvent::SMotionEventData * *>, COMDAT

; 5285 : void _Fill_zero_memset(_CtgIt _Dest, const size_t _Count) {

  00000	55		 push	 ebp
  00001	8b ec		 mov	 ebp, esp

; 5286 :     _CSTD memset(_STD _To_address(_Dest), 0, _Count * sizeof(_Iter_value_t<_CtgIt>));

  00003	8b 45 0c	 mov	 eax, DWORD PTR __Count$[ebp]
  00006	c1 e0 02	 shl	 eax, 2
  00009	50		 push	 eax
  0000a	6a 00		 push	 0
  0000c	ff 75 08	 push	 DWORD PTR __Dest$[ebp]
  0000f	e8 00 00 00 00	 call	 _memset
  00014	83 c4 0c	 add	 esp, 12			; 0000000cH

; 5287 : }

  00017	5d		 pop	 ebp
  00018	c3		 ret	 0
??$_Fill_zero_memset@PAPAUSMotionEventData@NMotionEvent@@@std@@YAXPAPAUSMotionEventData@NMotionEvent@@I@Z ENDP ; std::_Fill_zero_memset<NMotionEvent::SMotionEventData * *>
_TEXT	ENDS
; Function compile flags: /Ogtp
; File D:\Program Files\Microsoft Visual Studio\2022\Community\VC\Tools\MSVC\14.43.34808\include\xutility
;	COMDAT ??$_Is_all_bits_zero@PAUSMotionEventData@NMotionEvent@@@std@@YA_NABQAUSMotionEventData@NMotionEvent@@@Z
_TEXT	SEGMENT
__Zero$1 = -4						; size = 4
__Val$ = 8						; size = 4
??$_Is_all_bits_zero@PAUSMotionEventData@NMotionEvent@@@std@@YA_NABQAUSMotionEventData@NMotionEvent@@@Z PROC ; std::_Is_all_bits_zero<NMotionEvent::SMotionEventData *>, COMDAT

; 5290 : _NODISCARD bool _Is_all_bits_zero(const _Ty& _Val) {

  00000	55		 push	 ebp
  00001	8b ec		 mov	 ebp, esp
  00003	51		 push	 ecx

; 5291 :     // checks if scalar type has all bits set to zero
; 5292 :     _STL_INTERNAL_STATIC_ASSERT(is_scalar_v<_Ty> && !is_member_pointer_v<_Ty>);
; 5293 :     if constexpr (is_same_v<_Ty, nullptr_t>) {
; 5294 :         return true;
; 5295 :     } else {
; 5296 :         constexpr _Ty _Zero{};
; 5297 :         return _CSTD memcmp(&_Val, &_Zero, sizeof(_Ty)) == 0;

  00004	8b 45 08	 mov	 eax, DWORD PTR __Val$[ebp]
  00007	8d 4d fc	 lea	 ecx, DWORD PTR __Zero$1[ebp]
  0000a	c7 45 fc 00 00
	00 00		 mov	 DWORD PTR __Zero$1[ebp], 0
  00011	8b 00		 mov	 eax, DWORD PTR [eax]
  00013	3b 01		 cmp	 eax, DWORD PTR [ecx]
  00015	0f 94 c0	 sete	 al

; 5298 :     }
; 5299 : }

  00018	8b e5		 mov	 esp, ebp
  0001a	5d		 pop	 ebp
  0001b	c3		 ret	 0
??$_Is_all_bits_zero@PAUSMotionEventData@NMotionEvent@@@std@@YA_NABQAUSMotionEventData@NMotionEvent@@@Z ENDP ; std::_Is_all_bits_zero<NMotionEvent::SMotionEventData *>
_TEXT	ENDS
; Function compile flags: /Ogtp
; File D:\Program Files\Microsoft Visual Studio\2022\Community\VC\Tools\MSVC\14.43.34808\include\xmemory
;	COMDAT ??$_Uninitialized_fill_n@V?$allocator@PAUSMotionEventData@NMotionEvent@@@std@@@std@@YAPAPAUSMotionEventData@NMotionEvent@@PAPAU12@IABQAU12@AAV?$allocator@PAUSMotionEventData@NMotionEvent@@@0@@Z
_TEXT	SEGMENT
__First$ = 8						; size = 4
__Count$ = 12						; size = 4
__Val$ = 16						; size = 4
__Al$ = 20						; size = 4
??$_Uninitialized_fill_n@V?$allocator@PAUSMotionEventData@NMotionEvent@@@std@@@std@@YAPAPAUSMotionEventData@NMotionEvent@@PAPAU12@IABQAU12@AAV?$allocator@PAUSMotionEventData@NMotionEvent@@@0@@Z PROC ; std::_Uninitialized_fill_n<std::allocator<NMotionEvent::SMotionEventData *> >, COMDAT

; 1970 :     _Alloc_ptr_t<_Alloc> _First, _Alloc_size_t<_Alloc> _Count, const typename _Alloc::value_type& _Val, _Alloc& _Al) {

  00000	55		 push	 ebp
  00001	8b ec		 mov	 ebp, esp
  00003	56		 push	 esi

; 1971 :     // copy _Count copies of _Val to raw _First, using _Al
; 1972 :     using _Ty = typename _Alloc::value_type;
; 1973 :     if constexpr (_Fill_memset_is_safe<_Ty*, _Ty> && _Uses_default_construct<_Alloc, _Ty*, _Ty>::value) {
; 1974 : #if _HAS_CXX20
; 1975 :         if (!_STD is_constant_evaluated())
; 1976 : #endif // _HAS_CXX20
; 1977 :         {
; 1978 :             _Fill_memset(_Unfancy(_First), _Val, static_cast<size_t>(_Count));
; 1979 :             return _First + _Count;
; 1980 :         }
; 1981 :     } else if constexpr (_Fill_zero_memset_is_safe<_Ty*, _Ty> && _Uses_default_construct<_Alloc, _Ty*, _Ty>::value) {
; 1982 : #if _HAS_CXX20
; 1983 :         if (!_STD is_constant_evaluated())
; 1984 : #endif // _HAS_CXX20
; 1985 :         {
; 1986 :             if (_Is_all_bits_zero(_Val)) {

  00004	8b 75 10	 mov	 esi, DWORD PTR __Val$[ebp]
  00007	56		 push	 esi
  00008	e8 00 00 00 00	 call	 ??$_Is_all_bits_zero@PAUSMotionEventData@NMotionEvent@@@std@@YA_NABQAUSMotionEventData@NMotionEvent@@@Z ; std::_Is_all_bits_zero<NMotionEvent::SMotionEventData *>
  0000d	83 c4 04	 add	 esp, 4
  00010	84 c0		 test	 al, al
  00012	74 18		 je	 SHORT $LN5@Uninitiali

; 1987 :                 _Fill_zero_memset(_Unfancy(_First), static_cast<size_t>(_Count));

  00014	8b 75 08	 mov	 esi, DWORD PTR __First$[ebp]
  00017	57		 push	 edi
  00018	8b 7d 0c	 mov	 edi, DWORD PTR __Count$[ebp]
  0001b	57		 push	 edi
  0001c	56		 push	 esi
  0001d	e8 00 00 00 00	 call	 ??$_Fill_zero_memset@PAPAUSMotionEventData@NMotionEvent@@@std@@YAXPAPAUSMotionEventData@NMotionEvent@@I@Z ; std::_Fill_zero_memset<NMotionEvent::SMotionEventData * *>
  00022	83 c4 08	 add	 esp, 8

; 1988 :                 return _First + _Count;

  00025	8d 04 be	 lea	 eax, DWORD PTR [esi+edi*4]
  00028	5f		 pop	 edi
  00029	5e		 pop	 esi

; 1995 :         _Backout._Emplace_back(_Val);
; 1996 :     }
; 1997 : 
; 1998 :     return _Backout._Release();
; 1999 : }

  0002a	5d		 pop	 ebp
  0002b	c3		 ret	 0
$LN5@Uninitiali:

; 1989 :             }
; 1990 :         }
; 1991 :     }
; 1992 : 
; 1993 :     _Uninitialized_backout_al<_Alloc> _Backout{_First, _Al};
; 1994 :     for (; 0 < _Count; --_Count) {

  0002c	8b 55 0c	 mov	 edx, DWORD PTR __Count$[ebp]

; 1796 :     _CONSTEXPR20 _Uninitialized_backout_al(pointer _Dest, _Alloc& _Al_) : _First(_Dest), _Last(_Dest), _Al(_Al_) {}

  0002f	8b 45 08	 mov	 eax, DWORD PTR __First$[ebp]

; 1989 :             }
; 1990 :         }
; 1991 :     }
; 1992 : 
; 1993 :     _Uninitialized_backout_al<_Alloc> _Backout{_First, _Al};
; 1994 :     for (; 0 < _Count; --_Count) {

  00032	85 d2		 test	 edx, edx
  00034	74 0c		 je	 SHORT $LN1@Uninitiali
$LL4@Uninitiali:

; 1807 :         allocator_traits<_Alloc>::construct(_Al, _STD _Unfancy(_Last), _STD forward<_Types>(_Vals)...);

  00036	8b 0e		 mov	 ecx, DWORD PTR [esi]
  00038	89 08		 mov	 DWORD PTR [eax], ecx

; 1808 :         ++_Last;

  0003a	83 c0 04	 add	 eax, 4

; 1989 :             }
; 1990 :         }
; 1991 :     }
; 1992 : 
; 1993 :     _Uninitialized_backout_al<_Alloc> _Backout{_First, _Al};
; 1994 :     for (; 0 < _Count; --_Count) {

  0003d	83 ea 01	 sub	 edx, 1
  00040	75 f4		 jne	 SHORT $LL4@Uninitiali
$LN1@Uninitiali:
  00042	5e		 pop	 esi

; 1995 :         _Backout._Emplace_back(_Val);
; 1996 :     }
; 1997 : 
; 1998 :     return _Backout._Release();
; 1999 : }

  00043	5d		 pop	 ebp
  00044	c3		 ret	 0
??$_Uninitialized_fill_n@V?$allocator@PAUSMotionEventData@NMotionEvent@@@std@@@std@@YAPAPAUSMotionEventData@NMotionEvent@@PAPAU12@IABQAU12@AAV?$allocator@PAUSMotionEventData@NMotionEvent@@@0@@Z ENDP ; std::_Uninitialized_fill_n<std::allocator<NMotionEvent::SMotionEventData *> >
_TEXT	ENDS
; Function compile flags: /Ogtp
;	COMDAT ??__F?ms_kPool@?$CPooledObject@VCRotationDecorator@NEffectUpdateDecorator@@@@1V?$CDynamicPoolEx@VCRotationDecorator@NEffectUpdateDecorator@@@@A@@YAXXZ
text$yd	SEGMENT
??__F?ms_kPool@?$CPooledObject@VCRotationDecorator@NEffectUpdateDecorator@@@@1V?$CDynamicPoolEx@VCRotationDecorator@NEffectUpdateDecorator@@@@A@@YAXXZ PROC ; `dynamic atexit destructor for 'CPooledObject<NEffectUpdateDecorator::CRotationDecorator>::ms_kPool'', COMDAT
  00000	b9 00 00 00 00	 mov	 ecx, OFFSET ?ms_kPool@?$CPooledObject@VCRotationDecorator@NEffectUpdateDecorator@@@@1V?$CDynamicPoolEx@VCRotationDecorator@NEffectUpdateDecorator@@@@A ; CPooledObject<NEffectUpdateDecorator::CRotationDecorator>::ms_kPool
  00005	e9 00 00 00 00	 jmp	 ??1?$CDynamicPoolEx@VCRotationDecorator@NEffectUpdateDecorator@@@@UAE@XZ ; CDynamicPoolEx<NEffectUpdateDecorator::CRotationDecorator>::~CDynamicPoolEx<NEffectUpdateDecorator::CRotationDecorator>
??__F?ms_kPool@?$CPooledObject@VCRotationDecorator@NEffectUpdateDecorator@@@@1V?$CDynamicPoolEx@VCRotationDecorator@NEffectUpdateDecorator@@@@A@@YAXXZ ENDP ; `dynamic atexit destructor for 'CPooledObject<NEffectUpdateDecorator::CRotationDecorator>::ms_kPool''
text$yd	ENDS
; Function compile flags: /Ogtp
; File C:\Marty 5.5\Src-Client\Client\eterLib\Pool.h
;	COMDAT ??__E?ms_kPool@?$CPooledObject@VCRotationDecorator@NEffectUpdateDecorator@@@@1V?$CDynamicPoolEx@VCRotationDecorator@NEffectUpdateDecorator@@@@A@@YAXXZ
text$di	SEGMENT
??__E?ms_kPool@?$CPooledObject@VCRotationDecorator@NEffectUpdateDecorator@@@@1V?$CDynamicPoolEx@VCRotationDecorator@NEffectUpdateDecorator@@@@A@@YAXXZ PROC ; `dynamic initializer for 'CPooledObject<NEffectUpdateDecorator::CRotationDecorator>::ms_kPool'', COMDAT

; 274  : template <class T> CDynamicPoolEx<T> CPooledObject<T>::ms_kPool;

  00000	68 00 00 00 00	 push	 OFFSET ??__F?ms_kPool@?$CPooledObject@VCRotationDecorator@NEffectUpdateDecorator@@@@1V?$CDynamicPoolEx@VCRotationDecorator@NEffectUpdateDecorator@@@@A@@YAXXZ ; `dynamic atexit destructor for 'CPooledObject<NEffectUpdateDecorator::CRotationDecorator>::ms_kPool''
  00005	e8 00 00 00 00	 call	 _atexit
  0000a	59		 pop	 ecx
  0000b	c3		 ret	 0
??__E?ms_kPool@?$CPooledObject@VCRotationDecorator@NEffectUpdateDecorator@@@@1V?$CDynamicPoolEx@VCRotationDecorator@NEffectUpdateDecorator@@@@A@@YAXXZ ENDP ; `dynamic initializer for 'CPooledObject<NEffectUpdateDecorator::CRotationDecorator>::ms_kPool''
text$di	ENDS
; Function compile flags: /Ogtp
;	COMDAT ??__F?ms_kPool@?$CPooledObject@VCGravityDecorator@NEffectUpdateDecorator@@@@1V?$CDynamicPoolEx@VCGravityDecorator@NEffectUpdateDecorator@@@@A@@YAXXZ
text$yd	SEGMENT
??__F?ms_kPool@?$CPooledObject@VCGravityDecorator@NEffectUpdateDecorator@@@@1V?$CDynamicPoolEx@VCGravityDecorator@NEffectUpdateDecorator@@@@A@@YAXXZ PROC ; `dynamic atexit destructor for 'CPooledObject<NEffectUpdateDecorator::CGravityDecorator>::ms_kPool'', COMDAT
  00000	b9 00 00 00 00	 mov	 ecx, OFFSET ?ms_kPool@?$CPooledObject@VCGravityDecorator@NEffectUpdateDecorator@@@@1V?$CDynamicPoolEx@VCGravityDecorator@NEffectUpdateDecorator@@@@A ; CPooledObject<NEffectUpdateDecorator::CGravityDecorator>::ms_kPool
  00005	e9 00 00 00 00	 jmp	 ??1?$CDynamicPoolEx@VCGravityDecorator@NEffectUpdateDecorator@@@@UAE@XZ ; CDynamicPoolEx<NEffectUpdateDecorator::CGravityDecorator>::~CDynamicPoolEx<NEffectUpdateDecorator::CGravityDecorator>
??__F?ms_kPool@?$CPooledObject@VCGravityDecorator@NEffectUpdateDecorator@@@@1V?$CDynamicPoolEx@VCGravityDecorator@NEffectUpdateDecorator@@@@A@@YAXXZ ENDP ; `dynamic atexit destructor for 'CPooledObject<NEffectUpdateDecorator::CGravityDecorator>::ms_kPool''
text$yd	ENDS
; Function compile flags: /Ogtp
; File C:\Marty 5.5\Src-Client\Client\eterLib\Pool.h
;	COMDAT ??__E?ms_kPool@?$CPooledObject@VCGravityDecorator@NEffectUpdateDecorator@@@@1V?$CDynamicPoolEx@VCGravityDecorator@NEffectUpdateDecorator@@@@A@@YAXXZ
text$di	SEGMENT
??__E?ms_kPool@?$CPooledObject@VCGravityDecorator@NEffectUpdateDecorator@@@@1V?$CDynamicPoolEx@VCGravityDecorator@NEffectUpdateDecorator@@@@A@@YAXXZ PROC ; `dynamic initializer for 'CPooledObject<NEffectUpdateDecorator::CGravityDecorator>::ms_kPool'', COMDAT

; 274  : template <class T> CDynamicPoolEx<T> CPooledObject<T>::ms_kPool;

  00000	68 00 00 00 00	 push	 OFFSET ??__F?ms_kPool@?$CPooledObject@VCGravityDecorator@NEffectUpdateDecorator@@@@1V?$CDynamicPoolEx@VCGravityDecorator@NEffectUpdateDecorator@@@@A@@YAXXZ ; `dynamic atexit destructor for 'CPooledObject<NEffectUpdateDecorator::CGravityDecorator>::ms_kPool''
  00005	e8 00 00 00 00	 call	 _atexit
  0000a	59		 pop	 ecx
  0000b	c3		 ret	 0
??__E?ms_kPool@?$CPooledObject@VCGravityDecorator@NEffectUpdateDecorator@@@@1V?$CDynamicPoolEx@VCGravityDecorator@NEffectUpdateDecorator@@@@A@@YAXXZ ENDP ; `dynamic initializer for 'CPooledObject<NEffectUpdateDecorator::CGravityDecorator>::ms_kPool''
text$di	ENDS
; Function compile flags: /Ogtp
;	COMDAT ??__F?ms_kPool@?$CPooledObject@VCAirResistanceDecorator@NEffectUpdateDecorator@@@@1V?$CDynamicPoolEx@VCAirResistanceDecorator@NEffectUpdateDecorator@@@@A@@YAXXZ
text$yd	SEGMENT
??__F?ms_kPool@?$CPooledObject@VCAirResistanceDecorator@NEffectUpdateDecorator@@@@1V?$CDynamicPoolEx@VCAirResistanceDecorator@NEffectUpdateDecorator@@@@A@@YAXXZ PROC ; `dynamic atexit destructor for 'CPooledObject<NEffectUpdateDecorator::CAirResistanceDecorator>::ms_kPool'', COMDAT
  00000	b9 00 00 00 00	 mov	 ecx, OFFSET ?ms_kPool@?$CPooledObject@VCAirResistanceDecorator@NEffectUpdateDecorator@@@@1V?$CDynamicPoolEx@VCAirResistanceDecorator@NEffectUpdateDecorator@@@@A ; CPooledObject<NEffectUpdateDecorator::CAirResistanceDecorator>::ms_kPool
  00005	e9 00 00 00 00	 jmp	 ??1?$CDynamicPoolEx@VCAirResistanceDecorator@NEffectUpdateDecorator@@@@UAE@XZ ; CDynamicPoolEx<NEffectUpdateDecorator::CAirResistanceDecorator>::~CDynamicPoolEx<NEffectUpdateDecorator::CAirResistanceDecorator>
??__F?ms_kPool@?$CPooledObject@VCAirResistanceDecorator@NEffectUpdateDecorator@@@@1V?$CDynamicPoolEx@VCAirResistanceDecorator@NEffectUpdateDecorator@@@@A@@YAXXZ ENDP ; `dynamic atexit destructor for 'CPooledObject<NEffectUpdateDecorator::CAirResistanceDecorator>::ms_kPool''
text$yd	ENDS
; Function compile flags: /Ogtp
; File C:\Marty 5.5\Src-Client\Client\eterLib\Pool.h
;	COMDAT ??__E?ms_kPool@?$CPooledObject@VCAirResistanceDecorator@NEffectUpdateDecorator@@@@1V?$CDynamicPoolEx@VCAirResistanceDecorator@NEffectUpdateDecorator@@@@A@@YAXXZ
text$di	SEGMENT
??__E?ms_kPool@?$CPooledObject@VCAirResistanceDecorator@NEffectUpdateDecorator@@@@1V?$CDynamicPoolEx@VCAirResistanceDecorator@NEffectUpdateDecorator@@@@A@@YAXXZ PROC ; `dynamic initializer for 'CPooledObject<NEffectUpdateDecorator::CAirResistanceDecorator>::ms_kPool'', COMDAT

; 274  : template <class T> CDynamicPoolEx<T> CPooledObject<T>::ms_kPool;

  00000	68 00 00 00 00	 push	 OFFSET ??__F?ms_kPool@?$CPooledObject@VCAirResistanceDecorator@NEffectUpdateDecorator@@@@1V?$CDynamicPoolEx@VCAirResistanceDecorator@NEffectUpdateDecorator@@@@A@@YAXXZ ; `dynamic atexit destructor for 'CPooledObject<NEffectUpdateDecorator::CAirResistanceDecorator>::ms_kPool''
  00005	e8 00 00 00 00	 call	 _atexit
  0000a	59		 pop	 ecx
  0000b	c3		 ret	 0
??__E?ms_kPool@?$CPooledObject@VCAirResistanceDecorator@NEffectUpdateDecorator@@@@1V?$CDynamicPoolEx@VCAirResistanceDecorator@NEffectUpdateDecorator@@@@A@@YAXXZ ENDP ; `dynamic initializer for 'CPooledObject<NEffectUpdateDecorator::CAirResistanceDecorator>::ms_kPool''
text$di	ENDS
; Function compile flags: /Ogtp
;	COMDAT ??__F?ms_kPool@?$CPooledObject@VCTextureAnimationRandomDecorator@NEffectUpdateDecorator@@@@1V?$CDynamicPoolEx@VCTextureAnimationRandomDecorator@NEffectUpdateDecorator@@@@A@@YAXXZ
text$yd	SEGMENT
??__F?ms_kPool@?$CPooledObject@VCTextureAnimationRandomDecorator@NEffectUpdateDecorator@@@@1V?$CDynamicPoolEx@VCTextureAnimationRandomDecorator@NEffectUpdateDecorator@@@@A@@YAXXZ PROC ; `dynamic atexit destructor for 'CPooledObject<NEffectUpdateDecorator::CTextureAnimationRandomDecorator>::ms_kPool'', COMDAT
  00000	b9 00 00 00 00	 mov	 ecx, OFFSET ?ms_kPool@?$CPooledObject@VCTextureAnimationRandomDecorator@NEffectUpdateDecorator@@@@1V?$CDynamicPoolEx@VCTextureAnimationRandomDecorator@NEffectUpdateDecorator@@@@A ; CPooledObject<NEffectUpdateDecorator::CTextureAnimationRandomDecorator>::ms_kPool
  00005	e9 00 00 00 00	 jmp	 ??1?$CDynamicPoolEx@VCTextureAnimationRandomDecorator@NEffectUpdateDecorator@@@@UAE@XZ ; CDynamicPoolEx<NEffectUpdateDecorator::CTextureAnimationRandomDecorator>::~CDynamicPoolEx<NEffectUpdateDecorator::CTextureAnimationRandomDecorator>
??__F?ms_kPool@?$CPooledObject@VCTextureAnimationRandomDecorator@NEffectUpdateDecorator@@@@1V?$CDynamicPoolEx@VCTextureAnimationRandomDecorator@NEffectUpdateDecorator@@@@A@@YAXXZ ENDP ; `dynamic atexit destructor for 'CPooledObject<NEffectUpdateDecorator::CTextureAnimationRandomDecorator>::ms_kPool''
text$yd	ENDS
; Function compile flags: /Ogtp
; File C:\Marty 5.5\Src-Client\Client\eterLib\Pool.h
;	COMDAT ??__E?ms_kPool@?$CPooledObject@VCTextureAnimationRandomDecorator@NEffectUpdateDecorator@@@@1V?$CDynamicPoolEx@VCTextureAnimationRandomDecorator@NEffectUpdateDecorator@@@@A@@YAXXZ
text$di	SEGMENT
??__E?ms_kPool@?$CPooledObject@VCTextureAnimationRandomDecorator@NEffectUpdateDecorator@@@@1V?$CDynamicPoolEx@VCTextureAnimationRandomDecorator@NEffectUpdateDecorator@@@@A@@YAXXZ PROC ; `dynamic initializer for 'CPooledObject<NEffectUpdateDecorator::CTextureAnimationRandomDecorator>::ms_kPool'', COMDAT

; 274  : template <class T> CDynamicPoolEx<T> CPooledObject<T>::ms_kPool;

  00000	68 00 00 00 00	 push	 OFFSET ??__F?ms_kPool@?$CPooledObject@VCTextureAnimationRandomDecorator@NEffectUpdateDecorator@@@@1V?$CDynamicPoolEx@VCTextureAnimationRandomDecorator@NEffectUpdateDecorator@@@@A@@YAXXZ ; `dynamic atexit destructor for 'CPooledObject<NEffectUpdateDecorator::CTextureAnimationRandomDecorator>::ms_kPool''
  00005	e8 00 00 00 00	 call	 _atexit
  0000a	59		 pop	 ecx
  0000b	c3		 ret	 0
??__E?ms_kPool@?$CPooledObject@VCTextureAnimationRandomDecorator@NEffectUpdateDecorator@@@@1V?$CDynamicPoolEx@VCTextureAnimationRandomDecorator@NEffectUpdateDecorator@@@@A@@YAXXZ ENDP ; `dynamic initializer for 'CPooledObject<NEffectUpdateDecorator::CTextureAnimationRandomDecorator>::ms_kPool''
text$di	ENDS
; Function compile flags: /Ogtp
;	COMDAT ??__F?ms_kPool@?$CPooledObject@VCTextureAnimationCCWDecorator@NEffectUpdateDecorator@@@@1V?$CDynamicPoolEx@VCTextureAnimationCCWDecorator@NEffectUpdateDecorator@@@@A@@YAXXZ
text$yd	SEGMENT
??__F?ms_kPool@?$CPooledObject@VCTextureAnimationCCWDecorator@NEffectUpdateDecorator@@@@1V?$CDynamicPoolEx@VCTextureAnimationCCWDecorator@NEffectUpdateDecorator@@@@A@@YAXXZ PROC ; `dynamic atexit destructor for 'CPooledObject<NEffectUpdateDecorator::CTextureAnimationCCWDecorator>::ms_kPool'', COMDAT
  00000	b9 00 00 00 00	 mov	 ecx, OFFSET ?ms_kPool@?$CPooledObject@VCTextureAnimationCCWDecorator@NEffectUpdateDecorator@@@@1V?$CDynamicPoolEx@VCTextureAnimationCCWDecorator@NEffectUpdateDecorator@@@@A ; CPooledObject<NEffectUpdateDecorator::CTextureAnimationCCWDecorator>::ms_kPool
  00005	e9 00 00 00 00	 jmp	 ??1?$CDynamicPoolEx@VCTextureAnimationCCWDecorator@NEffectUpdateDecorator@@@@UAE@XZ ; CDynamicPoolEx<NEffectUpdateDecorator::CTextureAnimationCCWDecorator>::~CDynamicPoolEx<NEffectUpdateDecorator::CTextureAnimationCCWDecorator>
??__F?ms_kPool@?$CPooledObject@VCTextureAnimationCCWDecorator@NEffectUpdateDecorator@@@@1V?$CDynamicPoolEx@VCTextureAnimationCCWDecorator@NEffectUpdateDecorator@@@@A@@YAXXZ ENDP ; `dynamic atexit destructor for 'CPooledObject<NEffectUpdateDecorator::CTextureAnimationCCWDecorator>::ms_kPool''
text$yd	ENDS
; Function compile flags: /Ogtp
; File C:\Marty 5.5\Src-Client\Client\eterLib\Pool.h
;	COMDAT ??__E?ms_kPool@?$CPooledObject@VCTextureAnimationCCWDecorator@NEffectUpdateDecorator@@@@1V?$CDynamicPoolEx@VCTextureAnimationCCWDecorator@NEffectUpdateDecorator@@@@A@@YAXXZ
text$di	SEGMENT
??__E?ms_kPool@?$CPooledObject@VCTextureAnimationCCWDecorator@NEffectUpdateDecorator@@@@1V?$CDynamicPoolEx@VCTextureAnimationCCWDecorator@NEffectUpdateDecorator@@@@A@@YAXXZ PROC ; `dynamic initializer for 'CPooledObject<NEffectUpdateDecorator::CTextureAnimationCCWDecorator>::ms_kPool'', COMDAT

; 274  : template <class T> CDynamicPoolEx<T> CPooledObject<T>::ms_kPool;

  00000	68 00 00 00 00	 push	 OFFSET ??__F?ms_kPool@?$CPooledObject@VCTextureAnimationCCWDecorator@NEffectUpdateDecorator@@@@1V?$CDynamicPoolEx@VCTextureAnimationCCWDecorator@NEffectUpdateDecorator@@@@A@@YAXXZ ; `dynamic atexit destructor for 'CPooledObject<NEffectUpdateDecorator::CTextureAnimationCCWDecorator>::ms_kPool''
  00005	e8 00 00 00 00	 call	 _atexit
  0000a	59		 pop	 ecx
  0000b	c3		 ret	 0
??__E?ms_kPool@?$CPooledObject@VCTextureAnimationCCWDecorator@NEffectUpdateDecorator@@@@1V?$CDynamicPoolEx@VCTextureAnimationCCWDecorator@NEffectUpdateDecorator@@@@A@@YAXXZ ENDP ; `dynamic initializer for 'CPooledObject<NEffectUpdateDecorator::CTextureAnimationCCWDecorator>::ms_kPool''
text$di	ENDS
; Function compile flags: /Ogtp
;	COMDAT ??__F?ms_kPool@?$CPooledObject@VCTextureAnimationCWDecorator@NEffectUpdateDecorator@@@@1V?$CDynamicPoolEx@VCTextureAnimationCWDecorator@NEffectUpdateDecorator@@@@A@@YAXXZ
text$yd	SEGMENT
??__F?ms_kPool@?$CPooledObject@VCTextureAnimationCWDecorator@NEffectUpdateDecorator@@@@1V?$CDynamicPoolEx@VCTextureAnimationCWDecorator@NEffectUpdateDecorator@@@@A@@YAXXZ PROC ; `dynamic atexit destructor for 'CPooledObject<NEffectUpdateDecorator::CTextureAnimationCWDecorator>::ms_kPool'', COMDAT
  00000	b9 00 00 00 00	 mov	 ecx, OFFSET ?ms_kPool@?$CPooledObject@VCTextureAnimationCWDecorator@NEffectUpdateDecorator@@@@1V?$CDynamicPoolEx@VCTextureAnimationCWDecorator@NEffectUpdateDecorator@@@@A ; CPooledObject<NEffectUpdateDecorator::CTextureAnimationCWDecorator>::ms_kPool
  00005	e9 00 00 00 00	 jmp	 ??1?$CDynamicPoolEx@VCTextureAnimationCWDecorator@NEffectUpdateDecorator@@@@UAE@XZ ; CDynamicPoolEx<NEffectUpdateDecorator::CTextureAnimationCWDecorator>::~CDynamicPoolEx<NEffectUpdateDecorator::CTextureAnimationCWDecorator>
??__F?ms_kPool@?$CPooledObject@VCTextureAnimationCWDecorator@NEffectUpdateDecorator@@@@1V?$CDynamicPoolEx@VCTextureAnimationCWDecorator@NEffectUpdateDecorator@@@@A@@YAXXZ ENDP ; `dynamic atexit destructor for 'CPooledObject<NEffectUpdateDecorator::CTextureAnimationCWDecorator>::ms_kPool''
text$yd	ENDS
; Function compile flags: /Ogtp
; File C:\Marty 5.5\Src-Client\Client\eterLib\Pool.h
;	COMDAT ??__E?ms_kPool@?$CPooledObject@VCTextureAnimationCWDecorator@NEffectUpdateDecorator@@@@1V?$CDynamicPoolEx@VCTextureAnimationCWDecorator@NEffectUpdateDecorator@@@@A@@YAXXZ
text$di	SEGMENT
??__E?ms_kPool@?$CPooledObject@VCTextureAnimationCWDecorator@NEffectUpdateDecorator@@@@1V?$CDynamicPoolEx@VCTextureAnimationCWDecorator@NEffectUpdateDecorator@@@@A@@YAXXZ PROC ; `dynamic initializer for 'CPooledObject<NEffectUpdateDecorator::CTextureAnimationCWDecorator>::ms_kPool'', COMDAT

; 274  : template <class T> CDynamicPoolEx<T> CPooledObject<T>::ms_kPool;

  00000	68 00 00 00 00	 push	 OFFSET ??__F?ms_kPool@?$CPooledObject@VCTextureAnimationCWDecorator@NEffectUpdateDecorator@@@@1V?$CDynamicPoolEx@VCTextureAnimationCWDecorator@NEffectUpdateDecorator@@@@A@@YAXXZ ; `dynamic atexit destructor for 'CPooledObject<NEffectUpdateDecorator::CTextureAnimationCWDecorator>::ms_kPool''
  00005	e8 00 00 00 00	 call	 _atexit
  0000a	59		 pop	 ecx
  0000b	c3		 ret	 0
??__E?ms_kPool@?$CPooledObject@VCTextureAnimationCWDecorator@NEffectUpdateDecorator@@@@1V?$CDynamicPoolEx@VCTextureAnimationCWDecorator@NEffectUpdateDecorator@@@@A@@YAXXZ ENDP ; `dynamic initializer for 'CPooledObject<NEffectUpdateDecorator::CTextureAnimationCWDecorator>::ms_kPool''
text$di	ENDS
; Function compile flags: /Ogtp
;	COMDAT ??__F?ms_kPool@?$CPooledObject@VCNullDecorator@NEffectUpdateDecorator@@@@1V?$CDynamicPoolEx@VCNullDecorator@NEffectUpdateDecorator@@@@A@@YAXXZ
text$yd	SEGMENT
??__F?ms_kPool@?$CPooledObject@VCNullDecorator@NEffectUpdateDecorator@@@@1V?$CDynamicPoolEx@VCNullDecorator@NEffectUpdateDecorator@@@@A@@YAXXZ PROC ; `dynamic atexit destructor for 'CPooledObject<NEffectUpdateDecorator::CNullDecorator>::ms_kPool'', COMDAT
  00000	b9 00 00 00 00	 mov	 ecx, OFFSET ?ms_kPool@?$CPooledObject@VCNullDecorator@NEffectUpdateDecorator@@@@1V?$CDynamicPoolEx@VCNullDecorator@NEffectUpdateDecorator@@@@A ; CPooledObject<NEffectUpdateDecorator::CNullDecorator>::ms_kPool
  00005	e9 00 00 00 00	 jmp	 ??1?$CDynamicPoolEx@VCNullDecorator@NEffectUpdateDecorator@@@@UAE@XZ ; CDynamicPoolEx<NEffectUpdateDecorator::CNullDecorator>::~CDynamicPoolEx<NEffectUpdateDecorator::CNullDecorator>
??__F?ms_kPool@?$CPooledObject@VCNullDecorator@NEffectUpdateDecorator@@@@1V?$CDynamicPoolEx@VCNullDecorator@NEffectUpdateDecorator@@@@A@@YAXXZ ENDP ; `dynamic atexit destructor for 'CPooledObject<NEffectUpdateDecorator::CNullDecorator>::ms_kPool''
text$yd	ENDS
; Function compile flags: /Ogtp
; File C:\Marty 5.5\Src-Client\Client\eterLib\Pool.h
;	COMDAT ??__E?ms_kPool@?$CPooledObject@VCNullDecorator@NEffectUpdateDecorator@@@@1V?$CDynamicPoolEx@VCNullDecorator@NEffectUpdateDecorator@@@@A@@YAXXZ
text$di	SEGMENT
??__E?ms_kPool@?$CPooledObject@VCNullDecorator@NEffectUpdateDecorator@@@@1V?$CDynamicPoolEx@VCNullDecorator@NEffectUpdateDecorator@@@@A@@YAXXZ PROC ; `dynamic initializer for 'CPooledObject<NEffectUpdateDecorator::CNullDecorator>::ms_kPool'', COMDAT

; 274  : template <class T> CDynamicPoolEx<T> CPooledObject<T>::ms_kPool;

  00000	68 00 00 00 00	 push	 OFFSET ??__F?ms_kPool@?$CPooledObject@VCNullDecorator@NEffectUpdateDecorator@@@@1V?$CDynamicPoolEx@VCNullDecorator@NEffectUpdateDecorator@@@@A@@YAXXZ ; `dynamic atexit destructor for 'CPooledObject<NEffectUpdateDecorator::CNullDecorator>::ms_kPool''
  00005	e8 00 00 00 00	 call	 _atexit
  0000a	59		 pop	 ecx
  0000b	c3		 ret	 0
??__E?ms_kPool@?$CPooledObject@VCNullDecorator@NEffectUpdateDecorator@@@@1V?$CDynamicPoolEx@VCNullDecorator@NEffectUpdateDecorator@@@@A@@YAXXZ ENDP ; `dynamic initializer for 'CPooledObject<NEffectUpdateDecorator::CNullDecorator>::ms_kPool''
text$di	ENDS
; Function compile flags: /Ogtp
;	COMDAT ??__F?ms_kPool@?$CPooledObject@VCHeaderDecorator@NEffectUpdateDecorator@@@@1V?$CDynamicPoolEx@VCHeaderDecorator@NEffectUpdateDecorator@@@@A@@YAXXZ
text$yd	SEGMENT
??__F?ms_kPool@?$CPooledObject@VCHeaderDecorator@NEffectUpdateDecorator@@@@1V?$CDynamicPoolEx@VCHeaderDecorator@NEffectUpdateDecorator@@@@A@@YAXXZ PROC ; `dynamic atexit destructor for 'CPooledObject<NEffectUpdateDecorator::CHeaderDecorator>::ms_kPool'', COMDAT
  00000	b9 00 00 00 00	 mov	 ecx, OFFSET ?ms_kPool@?$CPooledObject@VCHeaderDecorator@NEffectUpdateDecorator@@@@1V?$CDynamicPoolEx@VCHeaderDecorator@NEffectUpdateDecorator@@@@A ; CPooledObject<NEffectUpdateDecorator::CHeaderDecorator>::ms_kPool
  00005	e9 00 00 00 00	 jmp	 ??1?$CDynamicPoolEx@VCHeaderDecorator@NEffectUpdateDecorator@@@@UAE@XZ ; CDynamicPoolEx<NEffectUpdateDecorator::CHeaderDecorator>::~CDynamicPoolEx<NEffectUpdateDecorator::CHeaderDecorator>
??__F?ms_kPool@?$CPooledObject@VCHeaderDecorator@NEffectUpdateDecorator@@@@1V?$CDynamicPoolEx@VCHeaderDecorator@NEffectUpdateDecorator@@@@A@@YAXXZ ENDP ; `dynamic atexit destructor for 'CPooledObject<NEffectUpdateDecorator::CHeaderDecorator>::ms_kPool''
text$yd	ENDS
; Function compile flags: /Ogtp
; File C:\Marty 5.5\Src-Client\Client\eterLib\Pool.h
;	COMDAT ??__E?ms_kPool@?$CPooledObject@VCHeaderDecorator@NEffectUpdateDecorator@@@@1V?$CDynamicPoolEx@VCHeaderDecorator@NEffectUpdateDecorator@@@@A@@YAXXZ
text$di	SEGMENT
??__E?ms_kPool@?$CPooledObject@VCHeaderDecorator@NEffectUpdateDecorator@@@@1V?$CDynamicPoolEx@VCHeaderDecorator@NEffectUpdateDecorator@@@@A@@YAXXZ PROC ; `dynamic initializer for 'CPooledObject<NEffectUpdateDecorator::CHeaderDecorator>::ms_kPool'', COMDAT

; 274  : template <class T> CDynamicPoolEx<T> CPooledObject<T>::ms_kPool;

  00000	68 00 00 00 00	 push	 OFFSET ??__F?ms_kPool@?$CPooledObject@VCHeaderDecorator@NEffectUpdateDecorator@@@@1V?$CDynamicPoolEx@VCHeaderDecorator@NEffectUpdateDecorator@@@@A@@YAXXZ ; `dynamic atexit destructor for 'CPooledObject<NEffectUpdateDecorator::CHeaderDecorator>::ms_kPool''
  00005	e8 00 00 00 00	 call	 _atexit
  0000a	59		 pop	 ecx
  0000b	c3		 ret	 0
??__E?ms_kPool@?$CPooledObject@VCHeaderDecorator@NEffectUpdateDecorator@@@@1V?$CDynamicPoolEx@VCHeaderDecorator@NEffectUpdateDecorator@@@@A@@YAXXZ ENDP ; `dynamic initializer for 'CPooledObject<NEffectUpdateDecorator::CHeaderDecorator>::ms_kPool''
text$di	ENDS
; Function compile flags: /Ogtp
; File D:\Program Files\Microsoft Visual Studio\2022\Community\VC\Tools\MSVC\14.43.34808\include\xmemory
; File D:\Program Files\Microsoft Visual Studio\2022\Community\VC\Tools\MSVC\14.43.34808\include\xstring
; File D:\Program Files\Microsoft Visual Studio\2022\Community\VC\Tools\MSVC\14.43.34808\include\xmemory
; File D:\Program Files\Microsoft Visual Studio\2022\Community\VC\Tools\MSVC\14.43.34808\include\xstring
; File D:\Program Files\Microsoft Visual Studio\2022\Community\VC\Tools\MSVC\14.43.34808\include\xmemory
; File D:\Program Files\Microsoft Visual Studio\2022\Community\VC\Tools\MSVC\14.43.34808\include\xstring
; File D:\Program Files\Microsoft Visual Studio\2022\Community\VC\Tools\MSVC\14.43.34808\include\xmemory
;	COMDAT ??$_Destroy_range@V?$allocator@USSoundInstance@NSound@@@std@@@std@@YAXPAUSSoundInstance@NSound@@QAU12@AAV?$allocator@USSoundInstance@NSound@@@0@@Z
_TEXT	SEGMENT
__First$ = 8						; size = 4
__Last$ = 12						; size = 4
__Al$ = 16						; size = 4
??$_Destroy_range@V?$allocator@USSoundInstance@NSound@@@std@@@std@@YAXPAUSSoundInstance@NSound@@QAU12@AAV?$allocator@USSoundInstance@NSound@@@0@@Z PROC ; std::_Destroy_range<std::allocator<NSound::SSoundInstance> >, COMDAT

; 1094 : _CONSTEXPR20 void _Destroy_range(_Alloc_ptr_t<_Alloc> _First, const _Alloc_ptr_t<_Alloc> _Last, _Alloc& _Al) noexcept {

  00000	55		 push	 ebp
  00001	8b ec		 mov	 ebp, esp
  00003	53		 push	 ebx

; 1098 :         for (; _First != _Last; ++_First) {

  00004	8b 5d 0c	 mov	 ebx, DWORD PTR __Last$[ebp]
  00007	56		 push	 esi
  00008	8b 75 08	 mov	 esi, DWORD PTR __First$[ebp]
  0000b	3b f3		 cmp	 esi, ebx
  0000d	74 4f		 je	 SHORT $LN61@Destroy_ra
  0000f	83 c6 18	 add	 esi, 24			; 00000018H
  00012	57		 push	 edi
$LL4@Destroy_ra:
; File D:\Program Files\Microsoft Visual Studio\2022\Community\VC\Tools\MSVC\14.43.34808\include\xstring

; 434  :         return _Myres > _Small_string_capacity;

  00013	8b 0e		 mov	 ecx, DWORD PTR [esi]
  00015	83 f9 0f	 cmp	 ecx, 15			; 0000000fH

; 3047 :         if (_My_data._Large_mode_engaged()) {

  00018	76 28		 jbe	 SHORT $LN64@Destroy_ra
; File D:\Program Files\Microsoft Visual Studio\2022\Community\VC\Tools\MSVC\14.43.34808\include\xmemory

; 981  :         _STD _Deallocate<_New_alignof<_Ty>>(_Ptr, sizeof(_Ty) * _Count);

  0001a	8b 46 ec	 mov	 eax, DWORD PTR [esi-20]
; File D:\Program Files\Microsoft Visual Studio\2022\Community\VC\Tools\MSVC\14.43.34808\include\xstring

; 828  :         _Al.deallocate(_Old_ptr, _Capacity + 1); // +1 for null terminator

  0001d	41		 inc	 ecx
; File D:\Program Files\Microsoft Visual Studio\2022\Community\VC\Tools\MSVC\14.43.34808\include\xmemory

; 284  :         if (_Bytes >= _Big_allocation_threshold) {

  0001e	81 f9 00 10 00
	00		 cmp	 ecx, 4096		; 00001000H
  00024	72 12		 jb	 SHORT $LN49@Destroy_ra

; 205  :     const uintptr_t _Ptr_container   = _Ptr_user[-1];

  00026	8b 50 fc	 mov	 edx, DWORD PTR [eax-4]
  00029	83 c1 23	 add	 ecx, 35			; 00000023H

; 206  : 
; 207  :     // If the following asserts, it likely means that we are performing
; 208  :     // an aligned delete on memory coming from an unaligned allocation.
; 209  :     _STL_ASSERT(_Ptr_user[-2] == _Big_allocation_sentinel, "invalid argument");
; 210  : 
; 211  :     // Extra paranoia on aligned allocation/deallocation; ensure _Ptr_container is
; 212  :     // in range [_Min_back_shift, _Non_user_size]
; 213  : #ifdef _DEBUG
; 214  :     constexpr uintptr_t _Min_back_shift = 2 * sizeof(void*);
; 215  : #else // ^^^ defined(_DEBUG) / !defined(_DEBUG) vvv
; 216  :     constexpr uintptr_t _Min_back_shift = sizeof(void*);
; 217  : #endif // ^^^ !defined(_DEBUG) ^^^
; 218  :     const uintptr_t _Back_shift = reinterpret_cast<uintptr_t>(_Ptr) - _Ptr_container;

  0002c	2b c2		 sub	 eax, edx

; 219  :     _STL_VERIFY(_Back_shift >= _Min_back_shift && _Back_shift <= _Non_user_size, "invalid argument");

  0002e	83 c0 fc	 add	 eax, -4			; fffffffcH
  00031	83 f8 1f	 cmp	 eax, 31			; 0000001fH
  00034	77 2c		 ja	 SHORT $LN46@Destroy_ra

; 220  :     _Ptr = reinterpret_cast<void*>(_Ptr_container);

  00036	8b c2		 mov	 eax, edx
$LN49@Destroy_ra:

; 289  :         ::operator delete(_Ptr, _Bytes);

  00038	51		 push	 ecx
  00039	50		 push	 eax
  0003a	e8 00 00 00 00	 call	 ??3@YAXPAXI@Z		; operator delete
  0003f	83 c4 08	 add	 esp, 8
$LN64@Destroy_ra:
; File D:\Program Files\Microsoft Visual Studio\2022\Community\VC\Tools\MSVC\14.43.34808\include\xstring

; 3054 :         _My_data._Mysize = 0;

  00042	c7 46 fc 00 00
	00 00		 mov	 DWORD PTR [esi-4], 0

; 3055 :         _My_data._Myres  = _Small_string_capacity;

  00049	c7 06 0f 00 00
	00		 mov	 DWORD PTR [esi], 15	; 0000000fH

; 3056 :         // the _Traits::assign is last so the codegen doesn't think the char write can alias this
; 3057 :         _Traits::assign(_My_data._Bx._Buf[0], _Elem());

  0004f	c6 46 ec 00	 mov	 BYTE PTR [esi-20], 0
; File D:\Program Files\Microsoft Visual Studio\2022\Community\VC\Tools\MSVC\14.43.34808\include\xmemory

; 1098 :         for (; _First != _Last; ++_First) {

  00053	83 c6 1c	 add	 esi, 28			; 0000001cH
  00056	8d 46 e8	 lea	 eax, DWORD PTR [esi-24]
  00059	3b c3		 cmp	 eax, ebx
  0005b	75 b6		 jne	 SHORT $LL4@Destroy_ra
  0005d	5f		 pop	 edi
$LN61@Destroy_ra:
  0005e	5e		 pop	 esi

; 1099 :             allocator_traits<_Alloc>::destroy(_Al, _STD _Unfancy(_First));
; 1100 :         }
; 1101 :     }
; 1102 : }

  0005f	5b		 pop	 ebx
  00060	5d		 pop	 ebp
  00061	c3		 ret	 0
$LN46@Destroy_ra:

; 219  :     _STL_VERIFY(_Back_shift >= _Min_back_shift && _Back_shift <= _Non_user_size, "invalid argument");

  00062	e8 00 00 00 00	 call	 __invalid_parameter_noinfo_noreturn
$LN70@Destroy_ra:
  00067	cc		 int	 3
??$_Destroy_range@V?$allocator@USSoundInstance@NSound@@@std@@@std@@YAXPAUSSoundInstance@NSound@@QAU12@AAV?$allocator@USSoundInstance@NSound@@@0@@Z ENDP ; std::_Destroy_range<std::allocator<NSound::SSoundInstance> >
_TEXT	ENDS
; Function compile flags: /Ogtp
;	COMDAT ??_G?$CDynamicPoolEx@VCHeaderDecorator@NEffectUpdateDecorator@@@@UAEPAXI@Z
_TEXT	SEGMENT
___flags$ = 8						; size = 4
??_G?$CDynamicPoolEx@VCHeaderDecorator@NEffectUpdateDecorator@@@@UAEPAXI@Z PROC ; CDynamicPoolEx<NEffectUpdateDecorator::CHeaderDecorator>::`scalar deleting destructor', COMDAT
; _this$ = ecx
  00000	55		 push	 ebp
  00001	8b ec		 mov	 ebp, esp
  00003	56		 push	 esi
  00004	8b f1		 mov	 esi, ecx
  00006	e8 00 00 00 00	 call	 ??1?$CDynamicPoolEx@VCHeaderDecorator@NEffectUpdateDecorator@@@@UAE@XZ ; CDynamicPoolEx<NEffectUpdateDecorator::CHeaderDecorator>::~CDynamicPoolEx<NEffectUpdateDecorator::CHeaderDecorator>
  0000b	f6 45 08 01	 test	 BYTE PTR ___flags$[ebp], 1
  0000f	74 0b		 je	 SHORT $LN5@scalar
  00011	6a 24		 push	 36			; 00000024H
  00013	56		 push	 esi
  00014	e8 00 00 00 00	 call	 ??3@YAXPAXI@Z		; operator delete
  00019	83 c4 08	 add	 esp, 8
$LN5@scalar:
  0001c	8b c6		 mov	 eax, esi
  0001e	5e		 pop	 esi
  0001f	5d		 pop	 ebp
  00020	c2 04 00	 ret	 4
??_G?$CDynamicPoolEx@VCHeaderDecorator@NEffectUpdateDecorator@@@@UAEPAXI@Z ENDP ; CDynamicPoolEx<NEffectUpdateDecorator::CHeaderDecorator>::`scalar deleting destructor'
_TEXT	ENDS
; Function compile flags: /Ogtp
; File C:\Marty 5.5\Src-Client\Client\eterLib\Pool.h
; File D:\Program Files\Microsoft Visual Studio\2022\Community\VC\Tools\MSVC\14.43.34808\include\vector
; File D:\Program Files\Microsoft Visual Studio\2022\Community\VC\Tools\MSVC\14.43.34808\include\xmemory
; File D:\Program Files\Microsoft Visual Studio\2022\Community\VC\Tools\MSVC\14.43.34808\include\vector
; File D:\Program Files\Microsoft Visual Studio\2022\Community\VC\Tools\MSVC\14.43.34808\include\xmemory
; File D:\Program Files\Microsoft Visual Studio\2022\Community\VC\Tools\MSVC\14.43.34808\include\vector
; File D:\Program Files\Microsoft Visual Studio\2022\Community\VC\Tools\MSVC\14.43.34808\include\xmemory
; File D:\Program Files\Microsoft Visual Studio\2022\Community\VC\Tools\MSVC\14.43.34808\include\vector
; File D:\Program Files\Microsoft Visual Studio\2022\Community\VC\Tools\MSVC\14.43.34808\include\xmemory
; File D:\Program Files\Microsoft Visual Studio\2022\Community\VC\Tools\MSVC\14.43.34808\include\vector
; File C:\Marty 5.5\Src-Client\Client\eterLib\Pool.h
; File D:\Program Files\Microsoft Visual Studio\2022\Community\VC\Tools\MSVC\14.43.34808\include\xmemory
; File C:\Marty 5.5\Src-Client\Client\eterLib\Pool.h
;	COMDAT ??1?$CDynamicPoolEx@VCHeaderDecorator@NEffectUpdateDecorator@@@@UAE@XZ
_TEXT	SEGMENT
??1?$CDynamicPoolEx@VCHeaderDecorator@NEffectUpdateDecorator@@@@UAE@XZ PROC ; CDynamicPoolEx<NEffectUpdateDecorator::CHeaderDecorator>::~CDynamicPoolEx<NEffectUpdateDecorator::CHeaderDecorator>, COMDAT
; _this$ = ecx

; 133  : 		{

  00000	53		 push	 ebx
  00001	56		 push	 esi
  00002	57		 push	 edi
  00003	8b f9		 mov	 edi, ecx
  00005	c7 07 00 00 00
	00		 mov	 DWORD PTR [edi], OFFSET ??_7?$CDynamicPoolEx@VCHeaderDecorator@NEffectUpdateDecorator@@@@6B@

; 161  : 			for (auto v : m_kVct_pkData)

  0000b	8b 5f 08	 mov	 ebx, DWORD PTR [edi+8]
  0000e	8b 77 04	 mov	 esi, DWORD PTR [edi+4]
  00011	3b f3		 cmp	 esi, ebx
  00013	74 11		 je	 SHORT $LN6@CDynamicPo
$LL7@CDynamicPo:

; 226  : 			::operator delete(pkData);

  00015	ff 36		 push	 DWORD PTR [esi]
  00017	e8 00 00 00 00	 call	 ??3@YAXPAX@Z		; operator delete

; 161  : 			for (auto v : m_kVct_pkData)

  0001c	83 c6 04	 add	 esi, 4

; 226  : 			::operator delete(pkData);

  0001f	83 c4 04	 add	 esp, 4

; 161  : 			for (auto v : m_kVct_pkData)

  00022	3b f3		 cmp	 esi, ebx
  00024	75 ef		 jne	 SHORT $LL7@CDynamicPo
$LN6@CDynamicPo:
; File D:\Program Files\Microsoft Visual Studio\2022\Community\VC\Tools\MSVC\14.43.34808\include\vector

; 1797 :         if (_Myfirst == _Mylast) { // already empty, nothing to do

  00026	8b 47 04	 mov	 eax, DWORD PTR [edi+4]
  00029	3b 47 08	 cmp	 eax, DWORD PTR [edi+8]
  0002c	74 03		 je	 SHORT $LN11@CDynamicPo

; 1798 :             // This is an optimization for debug mode: we can avoid taking the debug lock to invalidate iterators.
; 1799 :             // Note that when clearing an empty vector, this will preserve past-the-end iterators, which is allowed by
; 1800 :             // N4950 [sequence.reqmts]/54 "a.clear() [...] may invalidate the past-the-end iterator".
; 1801 :             return;
; 1802 :         }
; 1803 : 
; 1804 :         _My_data._Orphan_all();
; 1805 :         _Destroy_range(_Myfirst, _Mylast, _Getal());
; 1806 :         _ASAN_VECTOR_MODIFY(static_cast<difference_type>(_Myfirst - _Mylast)); // negative when destroying elements
; 1807 :         _Mylast = _Myfirst;

  0002e	89 47 08	 mov	 DWORD PTR [edi+8], eax
$LN11@CDynamicPo:

; 1797 :         if (_Myfirst == _Mylast) { // already empty, nothing to do

  00031	8b 47 10	 mov	 eax, DWORD PTR [edi+16]
  00034	3b 47 14	 cmp	 eax, DWORD PTR [edi+20]
  00037	74 03		 je	 SHORT $LN15@CDynamicPo

; 1798 :             // This is an optimization for debug mode: we can avoid taking the debug lock to invalidate iterators.
; 1799 :             // Note that when clearing an empty vector, this will preserve past-the-end iterators, which is allowed by
; 1800 :             // N4950 [sequence.reqmts]/54 "a.clear() [...] may invalidate the past-the-end iterator".
; 1801 :             return;
; 1802 :         }
; 1803 : 
; 1804 :         _My_data._Orphan_all();
; 1805 :         _Destroy_range(_Myfirst, _Mylast, _Getal());
; 1806 :         _ASAN_VECTOR_MODIFY(static_cast<difference_type>(_Myfirst - _Mylast)); // negative when destroying elements
; 1807 :         _Mylast = _Myfirst;

  00039	89 47 14	 mov	 DWORD PTR [edi+20], eax
$LN15@CDynamicPo:

; 2075 :         if (_Myfirst) { // destroy and deallocate old array

  0003c	85 c0		 test	 eax, eax
  0003e	74 41		 je	 SHORT $LN23@CDynamicPo

; 2076 :             _STD _Destroy_range(_Myfirst, _Mylast, _Al);
; 2077 :             _ASAN_VECTOR_REMOVE;
; 2078 :             _Al.deallocate(_Myfirst, static_cast<size_type>(_Myend - _Myfirst));

  00040	8b 4f 18	 mov	 ecx, DWORD PTR [edi+24]
  00043	2b c8		 sub	 ecx, eax
; File D:\Program Files\Microsoft Visual Studio\2022\Community\VC\Tools\MSVC\14.43.34808\include\xmemory

; 981  :         _STD _Deallocate<_New_alignof<_Ty>>(_Ptr, sizeof(_Ty) * _Count);

  00045	83 e1 fc	 and	 ecx, -4			; fffffffcH

; 284  :         if (_Bytes >= _Big_allocation_threshold) {

  00048	81 f9 00 10 00
	00		 cmp	 ecx, 4096		; 00001000H
  0004e	72 12		 jb	 SHORT $LN42@CDynamicPo

; 205  :     const uintptr_t _Ptr_container   = _Ptr_user[-1];

  00050	8b 50 fc	 mov	 edx, DWORD PTR [eax-4]
  00053	83 c1 23	 add	 ecx, 35			; 00000023H

; 206  : 
; 207  :     // If the following asserts, it likely means that we are performing
; 208  :     // an aligned delete on memory coming from an unaligned allocation.
; 209  :     _STL_ASSERT(_Ptr_user[-2] == _Big_allocation_sentinel, "invalid argument");
; 210  : 
; 211  :     // Extra paranoia on aligned allocation/deallocation; ensure _Ptr_container is
; 212  :     // in range [_Min_back_shift, _Non_user_size]
; 213  : #ifdef _DEBUG
; 214  :     constexpr uintptr_t _Min_back_shift = 2 * sizeof(void*);
; 215  : #else // ^^^ defined(_DEBUG) / !defined(_DEBUG) vvv
; 216  :     constexpr uintptr_t _Min_back_shift = sizeof(void*);
; 217  : #endif // ^^^ !defined(_DEBUG) ^^^
; 218  :     const uintptr_t _Back_shift = reinterpret_cast<uintptr_t>(_Ptr) - _Ptr_container;

  00056	2b c2		 sub	 eax, edx

; 219  :     _STL_VERIFY(_Back_shift >= _Min_back_shift && _Back_shift <= _Non_user_size, "invalid argument");

  00058	83 c0 fc	 add	 eax, -4			; fffffffcH
  0005b	83 f8 1f	 cmp	 eax, 31			; 0000001fH
  0005e	77 6d		 ja	 SHORT $LN68@CDynamicPo

; 220  :     _Ptr = reinterpret_cast<void*>(_Ptr_container);

  00060	8b c2		 mov	 eax, edx
$LN42@CDynamicPo:

; 289  :         ::operator delete(_Ptr, _Bytes);

  00062	51		 push	 ecx
  00063	50		 push	 eax
  00064	e8 00 00 00 00	 call	 ??3@YAXPAXI@Z		; operator delete
; File D:\Program Files\Microsoft Visual Studio\2022\Community\VC\Tools\MSVC\14.43.34808\include\vector

; 2080 :             _Myfirst = nullptr;

  00069	c7 47 10 00 00
	00 00		 mov	 DWORD PTR [edi+16], 0
; File D:\Program Files\Microsoft Visual Studio\2022\Community\VC\Tools\MSVC\14.43.34808\include\xmemory

; 289  :         ::operator delete(_Ptr, _Bytes);

  00070	83 c4 08	 add	 esp, 8
; File D:\Program Files\Microsoft Visual Studio\2022\Community\VC\Tools\MSVC\14.43.34808\include\vector

; 2081 :             _Mylast  = nullptr;

  00073	c7 47 14 00 00
	00 00		 mov	 DWORD PTR [edi+20], 0

; 2082 :             _Myend   = nullptr;

  0007a	c7 47 18 00 00
	00 00		 mov	 DWORD PTR [edi+24], 0
$LN23@CDynamicPo:

; 2075 :         if (_Myfirst) { // destroy and deallocate old array

  00081	8b 47 04	 mov	 eax, DWORD PTR [edi+4]
  00084	85 c0		 test	 eax, eax
  00086	74 41		 je	 SHORT $LN52@CDynamicPo

; 2076 :             _STD _Destroy_range(_Myfirst, _Mylast, _Al);
; 2077 :             _ASAN_VECTOR_REMOVE;
; 2078 :             _Al.deallocate(_Myfirst, static_cast<size_type>(_Myend - _Myfirst));

  00088	8b 4f 0c	 mov	 ecx, DWORD PTR [edi+12]
  0008b	2b c8		 sub	 ecx, eax
; File D:\Program Files\Microsoft Visual Studio\2022\Community\VC\Tools\MSVC\14.43.34808\include\xmemory

; 981  :         _STD _Deallocate<_New_alignof<_Ty>>(_Ptr, sizeof(_Ty) * _Count);

  0008d	83 e1 fc	 and	 ecx, -4			; fffffffcH

; 284  :         if (_Bytes >= _Big_allocation_threshold) {

  00090	81 f9 00 10 00
	00		 cmp	 ecx, 4096		; 00001000H
  00096	72 12		 jb	 SHORT $LN71@CDynamicPo

; 205  :     const uintptr_t _Ptr_container   = _Ptr_user[-1];

  00098	8b 50 fc	 mov	 edx, DWORD PTR [eax-4]
  0009b	83 c1 23	 add	 ecx, 35			; 00000023H

; 206  : 
; 207  :     // If the following asserts, it likely means that we are performing
; 208  :     // an aligned delete on memory coming from an unaligned allocation.
; 209  :     _STL_ASSERT(_Ptr_user[-2] == _Big_allocation_sentinel, "invalid argument");
; 210  : 
; 211  :     // Extra paranoia on aligned allocation/deallocation; ensure _Ptr_container is
; 212  :     // in range [_Min_back_shift, _Non_user_size]
; 213  : #ifdef _DEBUG
; 214  :     constexpr uintptr_t _Min_back_shift = 2 * sizeof(void*);
; 215  : #else // ^^^ defined(_DEBUG) / !defined(_DEBUG) vvv
; 216  :     constexpr uintptr_t _Min_back_shift = sizeof(void*);
; 217  : #endif // ^^^ !defined(_DEBUG) ^^^
; 218  :     const uintptr_t _Back_shift = reinterpret_cast<uintptr_t>(_Ptr) - _Ptr_container;

  0009e	2b c2		 sub	 eax, edx

; 219  :     _STL_VERIFY(_Back_shift >= _Min_back_shift && _Back_shift <= _Non_user_size, "invalid argument");

  000a0	83 c0 fc	 add	 eax, -4			; fffffffcH
  000a3	83 f8 1f	 cmp	 eax, 31			; 0000001fH
  000a6	77 25		 ja	 SHORT $LN68@CDynamicPo

; 220  :     _Ptr = reinterpret_cast<void*>(_Ptr_container);

  000a8	8b c2		 mov	 eax, edx
$LN71@CDynamicPo:

; 289  :         ::operator delete(_Ptr, _Bytes);

  000aa	51		 push	 ecx
  000ab	50		 push	 eax
  000ac	e8 00 00 00 00	 call	 ??3@YAXPAXI@Z		; operator delete
; File D:\Program Files\Microsoft Visual Studio\2022\Community\VC\Tools\MSVC\14.43.34808\include\vector

; 2080 :             _Myfirst = nullptr;

  000b1	c7 47 04 00 00
	00 00		 mov	 DWORD PTR [edi+4], 0
; File D:\Program Files\Microsoft Visual Studio\2022\Community\VC\Tools\MSVC\14.43.34808\include\xmemory

; 289  :         ::operator delete(_Ptr, _Bytes);

  000b8	83 c4 08	 add	 esp, 8
; File D:\Program Files\Microsoft Visual Studio\2022\Community\VC\Tools\MSVC\14.43.34808\include\vector

; 2081 :             _Mylast  = nullptr;

  000bb	c7 47 08 00 00
	00 00		 mov	 DWORD PTR [edi+8], 0

; 2082 :             _Myend   = nullptr;

  000c2	c7 47 0c 00 00
	00 00		 mov	 DWORD PTR [edi+12], 0
$LN52@CDynamicPo:
  000c9	5f		 pop	 edi
; File C:\Marty 5.5\Src-Client\Client\eterLib\Pool.h

; 143  : 		}

  000ca	5e		 pop	 esi
  000cb	5b		 pop	 ebx
  000cc	c3		 ret	 0
$LN68@CDynamicPo:
; File D:\Program Files\Microsoft Visual Studio\2022\Community\VC\Tools\MSVC\14.43.34808\include\xmemory

; 219  :     _STL_VERIFY(_Back_shift >= _Min_back_shift && _Back_shift <= _Non_user_size, "invalid argument");

  000cd	e8 00 00 00 00	 call	 __invalid_parameter_noinfo_noreturn
$LN89@CDynamicPo:
  000d2	cc		 int	 3
??1?$CDynamicPoolEx@VCHeaderDecorator@NEffectUpdateDecorator@@@@UAE@XZ ENDP ; CDynamicPoolEx<NEffectUpdateDecorator::CHeaderDecorator>::~CDynamicPoolEx<NEffectUpdateDecorator::CHeaderDecorator>
_TEXT	ENDS
; Function compile flags: /Ogtp
;	COMDAT ??_G?$CDynamicPoolEx@VCNullDecorator@NEffectUpdateDecorator@@@@UAEPAXI@Z
_TEXT	SEGMENT
___flags$ = 8						; size = 4
??_G?$CDynamicPoolEx@VCNullDecorator@NEffectUpdateDecorator@@@@UAEPAXI@Z PROC ; CDynamicPoolEx<NEffectUpdateDecorator::CNullDecorator>::`scalar deleting destructor', COMDAT
; _this$ = ecx
  00000	55		 push	 ebp
  00001	8b ec		 mov	 ebp, esp
  00003	56		 push	 esi
  00004	8b f1		 mov	 esi, ecx
  00006	e8 00 00 00 00	 call	 ??1?$CDynamicPoolEx@VCNullDecorator@NEffectUpdateDecorator@@@@UAE@XZ ; CDynamicPoolEx<NEffectUpdateDecorator::CNullDecorator>::~CDynamicPoolEx<NEffectUpdateDecorator::CNullDecorator>
  0000b	f6 45 08 01	 test	 BYTE PTR ___flags$[ebp], 1
  0000f	74 0b		 je	 SHORT $LN5@scalar
  00011	6a 24		 push	 36			; 00000024H
  00013	56		 push	 esi
  00014	e8 00 00 00 00	 call	 ??3@YAXPAXI@Z		; operator delete
  00019	83 c4 08	 add	 esp, 8
$LN5@scalar:
  0001c	8b c6		 mov	 eax, esi
  0001e	5e		 pop	 esi
  0001f	5d		 pop	 ebp
  00020	c2 04 00	 ret	 4
??_G?$CDynamicPoolEx@VCNullDecorator@NEffectUpdateDecorator@@@@UAEPAXI@Z ENDP ; CDynamicPoolEx<NEffectUpdateDecorator::CNullDecorator>::`scalar deleting destructor'
_TEXT	ENDS
; Function compile flags: /Ogtp
; File C:\Marty 5.5\Src-Client\Client\eterLib\Pool.h
; File D:\Program Files\Microsoft Visual Studio\2022\Community\VC\Tools\MSVC\14.43.34808\include\vector
; File D:\Program Files\Microsoft Visual Studio\2022\Community\VC\Tools\MSVC\14.43.34808\include\xmemory
; File D:\Program Files\Microsoft Visual Studio\2022\Community\VC\Tools\MSVC\14.43.34808\include\vector
; File D:\Program Files\Microsoft Visual Studio\2022\Community\VC\Tools\MSVC\14.43.34808\include\xmemory
; File D:\Program Files\Microsoft Visual Studio\2022\Community\VC\Tools\MSVC\14.43.34808\include\vector
; File D:\Program Files\Microsoft Visual Studio\2022\Community\VC\Tools\MSVC\14.43.34808\include\xmemory
; File D:\Program Files\Microsoft Visual Studio\2022\Community\VC\Tools\MSVC\14.43.34808\include\vector
; File D:\Program Files\Microsoft Visual Studio\2022\Community\VC\Tools\MSVC\14.43.34808\include\xmemory
; File D:\Program Files\Microsoft Visual Studio\2022\Community\VC\Tools\MSVC\14.43.34808\include\vector
; File C:\Marty 5.5\Src-Client\Client\eterLib\Pool.h
; File D:\Program Files\Microsoft Visual Studio\2022\Community\VC\Tools\MSVC\14.43.34808\include\xmemory
; File C:\Marty 5.5\Src-Client\Client\eterLib\Pool.h
;	COMDAT ??1?$CDynamicPoolEx@VCNullDecorator@NEffectUpdateDecorator@@@@UAE@XZ
_TEXT	SEGMENT
??1?$CDynamicPoolEx@VCNullDecorator@NEffectUpdateDecorator@@@@UAE@XZ PROC ; CDynamicPoolEx<NEffectUpdateDecorator::CNullDecorator>::~CDynamicPoolEx<NEffectUpdateDecorator::CNullDecorator>, COMDAT
; _this$ = ecx

; 133  : 		{

  00000	53		 push	 ebx
  00001	56		 push	 esi
  00002	57		 push	 edi
  00003	8b f9		 mov	 edi, ecx
  00005	c7 07 00 00 00
	00		 mov	 DWORD PTR [edi], OFFSET ??_7?$CDynamicPoolEx@VCNullDecorator@NEffectUpdateDecorator@@@@6B@

; 161  : 			for (auto v : m_kVct_pkData)

  0000b	8b 5f 08	 mov	 ebx, DWORD PTR [edi+8]
  0000e	8b 77 04	 mov	 esi, DWORD PTR [edi+4]
  00011	3b f3		 cmp	 esi, ebx
  00013	74 11		 je	 SHORT $LN6@CDynamicPo
$LL7@CDynamicPo:

; 226  : 			::operator delete(pkData);

  00015	ff 36		 push	 DWORD PTR [esi]
  00017	e8 00 00 00 00	 call	 ??3@YAXPAX@Z		; operator delete

; 161  : 			for (auto v : m_kVct_pkData)

  0001c	83 c6 04	 add	 esi, 4

; 226  : 			::operator delete(pkData);

  0001f	83 c4 04	 add	 esp, 4

; 161  : 			for (auto v : m_kVct_pkData)

  00022	3b f3		 cmp	 esi, ebx
  00024	75 ef		 jne	 SHORT $LL7@CDynamicPo
$LN6@CDynamicPo:
; File D:\Program Files\Microsoft Visual Studio\2022\Community\VC\Tools\MSVC\14.43.34808\include\vector

; 1797 :         if (_Myfirst == _Mylast) { // already empty, nothing to do

  00026	8b 47 04	 mov	 eax, DWORD PTR [edi+4]
  00029	3b 47 08	 cmp	 eax, DWORD PTR [edi+8]
  0002c	74 03		 je	 SHORT $LN11@CDynamicPo

; 1798 :             // This is an optimization for debug mode: we can avoid taking the debug lock to invalidate iterators.
; 1799 :             // Note that when clearing an empty vector, this will preserve past-the-end iterators, which is allowed by
; 1800 :             // N4950 [sequence.reqmts]/54 "a.clear() [...] may invalidate the past-the-end iterator".
; 1801 :             return;
; 1802 :         }
; 1803 : 
; 1804 :         _My_data._Orphan_all();
; 1805 :         _Destroy_range(_Myfirst, _Mylast, _Getal());
; 1806 :         _ASAN_VECTOR_MODIFY(static_cast<difference_type>(_Myfirst - _Mylast)); // negative when destroying elements
; 1807 :         _Mylast = _Myfirst;

  0002e	89 47 08	 mov	 DWORD PTR [edi+8], eax
$LN11@CDynamicPo:

; 1797 :         if (_Myfirst == _Mylast) { // already empty, nothing to do

  00031	8b 47 10	 mov	 eax, DWORD PTR [edi+16]
  00034	3b 47 14	 cmp	 eax, DWORD PTR [edi+20]
  00037	74 03		 je	 SHORT $LN15@CDynamicPo

; 1798 :             // This is an optimization for debug mode: we can avoid taking the debug lock to invalidate iterators.
; 1799 :             // Note that when clearing an empty vector, this will preserve past-the-end iterators, which is allowed by
; 1800 :             // N4950 [sequence.reqmts]/54 "a.clear() [...] may invalidate the past-the-end iterator".
; 1801 :             return;
; 1802 :         }
; 1803 : 
; 1804 :         _My_data._Orphan_all();
; 1805 :         _Destroy_range(_Myfirst, _Mylast, _Getal());
; 1806 :         _ASAN_VECTOR_MODIFY(static_cast<difference_type>(_Myfirst - _Mylast)); // negative when destroying elements
; 1807 :         _Mylast = _Myfirst;

  00039	89 47 14	 mov	 DWORD PTR [edi+20], eax
$LN15@CDynamicPo:

; 2075 :         if (_Myfirst) { // destroy and deallocate old array

  0003c	85 c0		 test	 eax, eax
  0003e	74 41		 je	 SHORT $LN23@CDynamicPo

; 2076 :             _STD _Destroy_range(_Myfirst, _Mylast, _Al);
; 2077 :             _ASAN_VECTOR_REMOVE;
; 2078 :             _Al.deallocate(_Myfirst, static_cast<size_type>(_Myend - _Myfirst));

  00040	8b 4f 18	 mov	 ecx, DWORD PTR [edi+24]
  00043	2b c8		 sub	 ecx, eax
; File D:\Program Files\Microsoft Visual Studio\2022\Community\VC\Tools\MSVC\14.43.34808\include\xmemory

; 981  :         _STD _Deallocate<_New_alignof<_Ty>>(_Ptr, sizeof(_Ty) * _Count);

  00045	83 e1 fc	 and	 ecx, -4			; fffffffcH

; 284  :         if (_Bytes >= _Big_allocation_threshold) {

  00048	81 f9 00 10 00
	00		 cmp	 ecx, 4096		; 00001000H
  0004e	72 12		 jb	 SHORT $LN42@CDynamicPo

; 205  :     const uintptr_t _Ptr_container   = _Ptr_user[-1];

  00050	8b 50 fc	 mov	 edx, DWORD PTR [eax-4]
  00053	83 c1 23	 add	 ecx, 35			; 00000023H

; 206  : 
; 207  :     // If the following asserts, it likely means that we are performing
; 208  :     // an aligned delete on memory coming from an unaligned allocation.
; 209  :     _STL_ASSERT(_Ptr_user[-2] == _Big_allocation_sentinel, "invalid argument");
; 210  : 
; 211  :     // Extra paranoia on aligned allocation/deallocation; ensure _Ptr_container is
; 212  :     // in range [_Min_back_shift, _Non_user_size]
; 213  : #ifdef _DEBUG
; 214  :     constexpr uintptr_t _Min_back_shift = 2 * sizeof(void*);
; 215  : #else // ^^^ defined(_DEBUG) / !defined(_DEBUG) vvv
; 216  :     constexpr uintptr_t _Min_back_shift = sizeof(void*);
; 217  : #endif // ^^^ !defined(_DEBUG) ^^^
; 218  :     const uintptr_t _Back_shift = reinterpret_cast<uintptr_t>(_Ptr) - _Ptr_container;

  00056	2b c2		 sub	 eax, edx

; 219  :     _STL_VERIFY(_Back_shift >= _Min_back_shift && _Back_shift <= _Non_user_size, "invalid argument");

  00058	83 c0 fc	 add	 eax, -4			; fffffffcH
  0005b	83 f8 1f	 cmp	 eax, 31			; 0000001fH
  0005e	77 6d		 ja	 SHORT $LN68@CDynamicPo

; 220  :     _Ptr = reinterpret_cast<void*>(_Ptr_container);

  00060	8b c2		 mov	 eax, edx
$LN42@CDynamicPo:

; 289  :         ::operator delete(_Ptr, _Bytes);

  00062	51		 push	 ecx
  00063	50		 push	 eax
  00064	e8 00 00 00 00	 call	 ??3@YAXPAXI@Z		; operator delete
; File D:\Program Files\Microsoft Visual Studio\2022\Community\VC\Tools\MSVC\14.43.34808\include\vector

; 2080 :             _Myfirst = nullptr;

  00069	c7 47 10 00 00
	00 00		 mov	 DWORD PTR [edi+16], 0
; File D:\Program Files\Microsoft Visual Studio\2022\Community\VC\Tools\MSVC\14.43.34808\include\xmemory

; 289  :         ::operator delete(_Ptr, _Bytes);

  00070	83 c4 08	 add	 esp, 8
; File D:\Program Files\Microsoft Visual Studio\2022\Community\VC\Tools\MSVC\14.43.34808\include\vector

; 2081 :             _Mylast  = nullptr;

  00073	c7 47 14 00 00
	00 00		 mov	 DWORD PTR [edi+20], 0

; 2082 :             _Myend   = nullptr;

  0007a	c7 47 18 00 00
	00 00		 mov	 DWORD PTR [edi+24], 0
$LN23@CDynamicPo:

; 2075 :         if (_Myfirst) { // destroy and deallocate old array

  00081	8b 47 04	 mov	 eax, DWORD PTR [edi+4]
  00084	85 c0		 test	 eax, eax
  00086	74 41		 je	 SHORT $LN52@CDynamicPo

; 2076 :             _STD _Destroy_range(_Myfirst, _Mylast, _Al);
; 2077 :             _ASAN_VECTOR_REMOVE;
; 2078 :             _Al.deallocate(_Myfirst, static_cast<size_type>(_Myend - _Myfirst));

  00088	8b 4f 0c	 mov	 ecx, DWORD PTR [edi+12]
  0008b	2b c8		 sub	 ecx, eax
; File D:\Program Files\Microsoft Visual Studio\2022\Community\VC\Tools\MSVC\14.43.34808\include\xmemory

; 981  :         _STD _Deallocate<_New_alignof<_Ty>>(_Ptr, sizeof(_Ty) * _Count);

  0008d	83 e1 fc	 and	 ecx, -4			; fffffffcH

; 284  :         if (_Bytes >= _Big_allocation_threshold) {

  00090	81 f9 00 10 00
	00		 cmp	 ecx, 4096		; 00001000H
  00096	72 12		 jb	 SHORT $LN71@CDynamicPo

; 205  :     const uintptr_t _Ptr_container   = _Ptr_user[-1];

  00098	8b 50 fc	 mov	 edx, DWORD PTR [eax-4]
  0009b	83 c1 23	 add	 ecx, 35			; 00000023H

; 206  : 
; 207  :     // If the following asserts, it likely means that we are performing
; 208  :     // an aligned delete on memory coming from an unaligned allocation.
; 209  :     _STL_ASSERT(_Ptr_user[-2] == _Big_allocation_sentinel, "invalid argument");
; 210  : 
; 211  :     // Extra paranoia on aligned allocation/deallocation; ensure _Ptr_container is
; 212  :     // in range [_Min_back_shift, _Non_user_size]
; 213  : #ifdef _DEBUG
; 214  :     constexpr uintptr_t _Min_back_shift = 2 * sizeof(void*);
; 215  : #else // ^^^ defined(_DEBUG) / !defined(_DEBUG) vvv
; 216  :     constexpr uintptr_t _Min_back_shift = sizeof(void*);
; 217  : #endif // ^^^ !defined(_DEBUG) ^^^
; 218  :     const uintptr_t _Back_shift = reinterpret_cast<uintptr_t>(_Ptr) - _Ptr_container;

  0009e	2b c2		 sub	 eax, edx

; 219  :     _STL_VERIFY(_Back_shift >= _Min_back_shift && _Back_shift <= _Non_user_size, "invalid argument");

  000a0	83 c0 fc	 add	 eax, -4			; fffffffcH
  000a3	83 f8 1f	 cmp	 eax, 31			; 0000001fH
  000a6	77 25		 ja	 SHORT $LN68@CDynamicPo

; 220  :     _Ptr = reinterpret_cast<void*>(_Ptr_container);

  000a8	8b c2		 mov	 eax, edx
$LN71@CDynamicPo:

; 289  :         ::operator delete(_Ptr, _Bytes);

  000aa	51		 push	 ecx
  000ab	50		 push	 eax
  000ac	e8 00 00 00 00	 call	 ??3@YAXPAXI@Z		; operator delete
; File D:\Program Files\Microsoft Visual Studio\2022\Community\VC\Tools\MSVC\14.43.34808\include\vector

; 2080 :             _Myfirst = nullptr;

  000b1	c7 47 04 00 00
	00 00		 mov	 DWORD PTR [edi+4], 0
; File D:\Program Files\Microsoft Visual Studio\2022\Community\VC\Tools\MSVC\14.43.34808\include\xmemory

; 289  :         ::operator delete(_Ptr, _Bytes);

  000b8	83 c4 08	 add	 esp, 8
; File D:\Program Files\Microsoft Visual Studio\2022\Community\VC\Tools\MSVC\14.43.34808\include\vector

; 2081 :             _Mylast  = nullptr;

  000bb	c7 47 08 00 00
	00 00		 mov	 DWORD PTR [edi+8], 0

; 2082 :             _Myend   = nullptr;

  000c2	c7 47 0c 00 00
	00 00		 mov	 DWORD PTR [edi+12], 0
$LN52@CDynamicPo:
  000c9	5f		 pop	 edi
; File C:\Marty 5.5\Src-Client\Client\eterLib\Pool.h

; 143  : 		}

  000ca	5e		 pop	 esi
  000cb	5b		 pop	 ebx
  000cc	c3		 ret	 0
$LN68@CDynamicPo:
; File D:\Program Files\Microsoft Visual Studio\2022\Community\VC\Tools\MSVC\14.43.34808\include\xmemory

; 219  :     _STL_VERIFY(_Back_shift >= _Min_back_shift && _Back_shift <= _Non_user_size, "invalid argument");

  000cd	e8 00 00 00 00	 call	 __invalid_parameter_noinfo_noreturn
$LN89@CDynamicPo:
  000d2	cc		 int	 3
??1?$CDynamicPoolEx@VCNullDecorator@NEffectUpdateDecorator@@@@UAE@XZ ENDP ; CDynamicPoolEx<NEffectUpdateDecorator::CNullDecorator>::~CDynamicPoolEx<NEffectUpdateDecorator::CNullDecorator>
_TEXT	ENDS
; Function compile flags: /Ogtp
;	COMDAT ??_G?$CDynamicPoolEx@VCTextureAnimationCWDecorator@NEffectUpdateDecorator@@@@UAEPAXI@Z
_TEXT	SEGMENT
___flags$ = 8						; size = 4
??_G?$CDynamicPoolEx@VCTextureAnimationCWDecorator@NEffectUpdateDecorator@@@@UAEPAXI@Z PROC ; CDynamicPoolEx<NEffectUpdateDecorator::CTextureAnimationCWDecorator>::`scalar deleting destructor', COMDAT
; _this$ = ecx
  00000	55		 push	 ebp
  00001	8b ec		 mov	 ebp, esp
  00003	56		 push	 esi
  00004	8b f1		 mov	 esi, ecx
  00006	e8 00 00 00 00	 call	 ??1?$CDynamicPoolEx@VCTextureAnimationCWDecorator@NEffectUpdateDecorator@@@@UAE@XZ ; CDynamicPoolEx<NEffectUpdateDecorator::CTextureAnimationCWDecorator>::~CDynamicPoolEx<NEffectUpdateDecorator::CTextureAnimationCWDecorator>
  0000b	f6 45 08 01	 test	 BYTE PTR ___flags$[ebp], 1
  0000f	74 0b		 je	 SHORT $LN5@scalar
  00011	6a 24		 push	 36			; 00000024H
  00013	56		 push	 esi
  00014	e8 00 00 00 00	 call	 ??3@YAXPAXI@Z		; operator delete
  00019	83 c4 08	 add	 esp, 8
$LN5@scalar:
  0001c	8b c6		 mov	 eax, esi
  0001e	5e		 pop	 esi
  0001f	5d		 pop	 ebp
  00020	c2 04 00	 ret	 4
??_G?$CDynamicPoolEx@VCTextureAnimationCWDecorator@NEffectUpdateDecorator@@@@UAEPAXI@Z ENDP ; CDynamicPoolEx<NEffectUpdateDecorator::CTextureAnimationCWDecorator>::`scalar deleting destructor'
_TEXT	ENDS
; Function compile flags: /Ogtp
; File C:\Marty 5.5\Src-Client\Client\eterLib\Pool.h
; File D:\Program Files\Microsoft Visual Studio\2022\Community\VC\Tools\MSVC\14.43.34808\include\vector
; File D:\Program Files\Microsoft Visual Studio\2022\Community\VC\Tools\MSVC\14.43.34808\include\xmemory
; File D:\Program Files\Microsoft Visual Studio\2022\Community\VC\Tools\MSVC\14.43.34808\include\vector
; File D:\Program Files\Microsoft Visual Studio\2022\Community\VC\Tools\MSVC\14.43.34808\include\xmemory
; File D:\Program Files\Microsoft Visual Studio\2022\Community\VC\Tools\MSVC\14.43.34808\include\vector
; File D:\Program Files\Microsoft Visual Studio\2022\Community\VC\Tools\MSVC\14.43.34808\include\xmemory
; File D:\Program Files\Microsoft Visual Studio\2022\Community\VC\Tools\MSVC\14.43.34808\include\vector
; File D:\Program Files\Microsoft Visual Studio\2022\Community\VC\Tools\MSVC\14.43.34808\include\xmemory
; File D:\Program Files\Microsoft Visual Studio\2022\Community\VC\Tools\MSVC\14.43.34808\include\vector
; File C:\Marty 5.5\Src-Client\Client\eterLib\Pool.h
; File D:\Program Files\Microsoft Visual Studio\2022\Community\VC\Tools\MSVC\14.43.34808\include\xmemory
; File C:\Marty 5.5\Src-Client\Client\eterLib\Pool.h
;	COMDAT ??1?$CDynamicPoolEx@VCTextureAnimationCWDecorator@NEffectUpdateDecorator@@@@UAE@XZ
_TEXT	SEGMENT
??1?$CDynamicPoolEx@VCTextureAnimationCWDecorator@NEffectUpdateDecorator@@@@UAE@XZ PROC ; CDynamicPoolEx<NEffectUpdateDecorator::CTextureAnimationCWDecorator>::~CDynamicPoolEx<NEffectUpdateDecorator::CTextureAnimationCWDecorator>, COMDAT
; _this$ = ecx

; 133  : 		{

  00000	53		 push	 ebx
  00001	56		 push	 esi
  00002	57		 push	 edi
  00003	8b f9		 mov	 edi, ecx
  00005	c7 07 00 00 00
	00		 mov	 DWORD PTR [edi], OFFSET ??_7?$CDynamicPoolEx@VCTextureAnimationCWDecorator@NEffectUpdateDecorator@@@@6B@

; 161  : 			for (auto v : m_kVct_pkData)

  0000b	8b 5f 08	 mov	 ebx, DWORD PTR [edi+8]
  0000e	8b 77 04	 mov	 esi, DWORD PTR [edi+4]
  00011	3b f3		 cmp	 esi, ebx
  00013	74 11		 je	 SHORT $LN6@CDynamicPo
$LL7@CDynamicPo:

; 226  : 			::operator delete(pkData);

  00015	ff 36		 push	 DWORD PTR [esi]
  00017	e8 00 00 00 00	 call	 ??3@YAXPAX@Z		; operator delete

; 161  : 			for (auto v : m_kVct_pkData)

  0001c	83 c6 04	 add	 esi, 4

; 226  : 			::operator delete(pkData);

  0001f	83 c4 04	 add	 esp, 4

; 161  : 			for (auto v : m_kVct_pkData)

  00022	3b f3		 cmp	 esi, ebx
  00024	75 ef		 jne	 SHORT $LL7@CDynamicPo
$LN6@CDynamicPo:
; File D:\Program Files\Microsoft Visual Studio\2022\Community\VC\Tools\MSVC\14.43.34808\include\vector

; 1797 :         if (_Myfirst == _Mylast) { // already empty, nothing to do

  00026	8b 47 04	 mov	 eax, DWORD PTR [edi+4]
  00029	3b 47 08	 cmp	 eax, DWORD PTR [edi+8]
  0002c	74 03		 je	 SHORT $LN11@CDynamicPo

; 1798 :             // This is an optimization for debug mode: we can avoid taking the debug lock to invalidate iterators.
; 1799 :             // Note that when clearing an empty vector, this will preserve past-the-end iterators, which is allowed by
; 1800 :             // N4950 [sequence.reqmts]/54 "a.clear() [...] may invalidate the past-the-end iterator".
; 1801 :             return;
; 1802 :         }
; 1803 : 
; 1804 :         _My_data._Orphan_all();
; 1805 :         _Destroy_range(_Myfirst, _Mylast, _Getal());
; 1806 :         _ASAN_VECTOR_MODIFY(static_cast<difference_type>(_Myfirst - _Mylast)); // negative when destroying elements
; 1807 :         _Mylast = _Myfirst;

  0002e	89 47 08	 mov	 DWORD PTR [edi+8], eax
$LN11@CDynamicPo:

; 1797 :         if (_Myfirst == _Mylast) { // already empty, nothing to do

  00031	8b 47 10	 mov	 eax, DWORD PTR [edi+16]
  00034	3b 47 14	 cmp	 eax, DWORD PTR [edi+20]
  00037	74 03		 je	 SHORT $LN15@CDynamicPo

; 1798 :             // This is an optimization for debug mode: we can avoid taking the debug lock to invalidate iterators.
; 1799 :             // Note that when clearing an empty vector, this will preserve past-the-end iterators, which is allowed by
; 1800 :             // N4950 [sequence.reqmts]/54 "a.clear() [...] may invalidate the past-the-end iterator".
; 1801 :             return;
; 1802 :         }
; 1803 : 
; 1804 :         _My_data._Orphan_all();
; 1805 :         _Destroy_range(_Myfirst, _Mylast, _Getal());
; 1806 :         _ASAN_VECTOR_MODIFY(static_cast<difference_type>(_Myfirst - _Mylast)); // negative when destroying elements
; 1807 :         _Mylast = _Myfirst;

  00039	89 47 14	 mov	 DWORD PTR [edi+20], eax
$LN15@CDynamicPo:

; 2075 :         if (_Myfirst) { // destroy and deallocate old array

  0003c	85 c0		 test	 eax, eax
  0003e	74 41		 je	 SHORT $LN23@CDynamicPo

; 2076 :             _STD _Destroy_range(_Myfirst, _Mylast, _Al);
; 2077 :             _ASAN_VECTOR_REMOVE;
; 2078 :             _Al.deallocate(_Myfirst, static_cast<size_type>(_Myend - _Myfirst));

  00040	8b 4f 18	 mov	 ecx, DWORD PTR [edi+24]
  00043	2b c8		 sub	 ecx, eax
; File D:\Program Files\Microsoft Visual Studio\2022\Community\VC\Tools\MSVC\14.43.34808\include\xmemory

; 981  :         _STD _Deallocate<_New_alignof<_Ty>>(_Ptr, sizeof(_Ty) * _Count);

  00045	83 e1 fc	 and	 ecx, -4			; fffffffcH

; 284  :         if (_Bytes >= _Big_allocation_threshold) {

  00048	81 f9 00 10 00
	00		 cmp	 ecx, 4096		; 00001000H
  0004e	72 12		 jb	 SHORT $LN42@CDynamicPo

; 205  :     const uintptr_t _Ptr_container   = _Ptr_user[-1];

  00050	8b 50 fc	 mov	 edx, DWORD PTR [eax-4]
  00053	83 c1 23	 add	 ecx, 35			; 00000023H

; 206  : 
; 207  :     // If the following asserts, it likely means that we are performing
; 208  :     // an aligned delete on memory coming from an unaligned allocation.
; 209  :     _STL_ASSERT(_Ptr_user[-2] == _Big_allocation_sentinel, "invalid argument");
; 210  : 
; 211  :     // Extra paranoia on aligned allocation/deallocation; ensure _Ptr_container is
; 212  :     // in range [_Min_back_shift, _Non_user_size]
; 213  : #ifdef _DEBUG
; 214  :     constexpr uintptr_t _Min_back_shift = 2 * sizeof(void*);
; 215  : #else // ^^^ defined(_DEBUG) / !defined(_DEBUG) vvv
; 216  :     constexpr uintptr_t _Min_back_shift = sizeof(void*);
; 217  : #endif // ^^^ !defined(_DEBUG) ^^^
; 218  :     const uintptr_t _Back_shift = reinterpret_cast<uintptr_t>(_Ptr) - _Ptr_container;

  00056	2b c2		 sub	 eax, edx

; 219  :     _STL_VERIFY(_Back_shift >= _Min_back_shift && _Back_shift <= _Non_user_size, "invalid argument");

  00058	83 c0 fc	 add	 eax, -4			; fffffffcH
  0005b	83 f8 1f	 cmp	 eax, 31			; 0000001fH
  0005e	77 6d		 ja	 SHORT $LN68@CDynamicPo

; 220  :     _Ptr = reinterpret_cast<void*>(_Ptr_container);

  00060	8b c2		 mov	 eax, edx
$LN42@CDynamicPo:

; 289  :         ::operator delete(_Ptr, _Bytes);

  00062	51		 push	 ecx
  00063	50		 push	 eax
  00064	e8 00 00 00 00	 call	 ??3@YAXPAXI@Z		; operator delete
; File D:\Program Files\Microsoft Visual Studio\2022\Community\VC\Tools\MSVC\14.43.34808\include\vector

; 2080 :             _Myfirst = nullptr;

  00069	c7 47 10 00 00
	00 00		 mov	 DWORD PTR [edi+16], 0
; File D:\Program Files\Microsoft Visual Studio\2022\Community\VC\Tools\MSVC\14.43.34808\include\xmemory

; 289  :         ::operator delete(_Ptr, _Bytes);

  00070	83 c4 08	 add	 esp, 8
; File D:\Program Files\Microsoft Visual Studio\2022\Community\VC\Tools\MSVC\14.43.34808\include\vector

; 2081 :             _Mylast  = nullptr;

  00073	c7 47 14 00 00
	00 00		 mov	 DWORD PTR [edi+20], 0

; 2082 :             _Myend   = nullptr;

  0007a	c7 47 18 00 00
	00 00		 mov	 DWORD PTR [edi+24], 0
$LN23@CDynamicPo:

; 2075 :         if (_Myfirst) { // destroy and deallocate old array

  00081	8b 47 04	 mov	 eax, DWORD PTR [edi+4]
  00084	85 c0		 test	 eax, eax
  00086	74 41		 je	 SHORT $LN52@CDynamicPo

; 2076 :             _STD _Destroy_range(_Myfirst, _Mylast, _Al);
; 2077 :             _ASAN_VECTOR_REMOVE;
; 2078 :             _Al.deallocate(_Myfirst, static_cast<size_type>(_Myend - _Myfirst));

  00088	8b 4f 0c	 mov	 ecx, DWORD PTR [edi+12]
  0008b	2b c8		 sub	 ecx, eax
; File D:\Program Files\Microsoft Visual Studio\2022\Community\VC\Tools\MSVC\14.43.34808\include\xmemory

; 981  :         _STD _Deallocate<_New_alignof<_Ty>>(_Ptr, sizeof(_Ty) * _Count);

  0008d	83 e1 fc	 and	 ecx, -4			; fffffffcH

; 284  :         if (_Bytes >= _Big_allocation_threshold) {

  00090	81 f9 00 10 00
	00		 cmp	 ecx, 4096		; 00001000H
  00096	72 12		 jb	 SHORT $LN71@CDynamicPo

; 205  :     const uintptr_t _Ptr_container   = _Ptr_user[-1];

  00098	8b 50 fc	 mov	 edx, DWORD PTR [eax-4]
  0009b	83 c1 23	 add	 ecx, 35			; 00000023H

; 206  : 
; 207  :     // If the following asserts, it likely means that we are performing
; 208  :     // an aligned delete on memory coming from an unaligned allocation.
; 209  :     _STL_ASSERT(_Ptr_user[-2] == _Big_allocation_sentinel, "invalid argument");
; 210  : 
; 211  :     // Extra paranoia on aligned allocation/deallocation; ensure _Ptr_container is
; 212  :     // in range [_Min_back_shift, _Non_user_size]
; 213  : #ifdef _DEBUG
; 214  :     constexpr uintptr_t _Min_back_shift = 2 * sizeof(void*);
; 215  : #else // ^^^ defined(_DEBUG) / !defined(_DEBUG) vvv
; 216  :     constexpr uintptr_t _Min_back_shift = sizeof(void*);
; 217  : #endif // ^^^ !defined(_DEBUG) ^^^
; 218  :     const uintptr_t _Back_shift = reinterpret_cast<uintptr_t>(_Ptr) - _Ptr_container;

  0009e	2b c2		 sub	 eax, edx

; 219  :     _STL_VERIFY(_Back_shift >= _Min_back_shift && _Back_shift <= _Non_user_size, "invalid argument");

  000a0	83 c0 fc	 add	 eax, -4			; fffffffcH
  000a3	83 f8 1f	 cmp	 eax, 31			; 0000001fH
  000a6	77 25		 ja	 SHORT $LN68@CDynamicPo

; 220  :     _Ptr = reinterpret_cast<void*>(_Ptr_container);

  000a8	8b c2		 mov	 eax, edx
$LN71@CDynamicPo:

; 289  :         ::operator delete(_Ptr, _Bytes);

  000aa	51		 push	 ecx
  000ab	50		 push	 eax
  000ac	e8 00 00 00 00	 call	 ??3@YAXPAXI@Z		; operator delete
; File D:\Program Files\Microsoft Visual Studio\2022\Community\VC\Tools\MSVC\14.43.34808\include\vector

; 2080 :             _Myfirst = nullptr;

  000b1	c7 47 04 00 00
	00 00		 mov	 DWORD PTR [edi+4], 0
; File D:\Program Files\Microsoft Visual Studio\2022\Community\VC\Tools\MSVC\14.43.34808\include\xmemory

; 289  :         ::operator delete(_Ptr, _Bytes);

  000b8	83 c4 08	 add	 esp, 8
; File D:\Program Files\Microsoft Visual Studio\2022\Community\VC\Tools\MSVC\14.43.34808\include\vector

; 2081 :             _Mylast  = nullptr;

  000bb	c7 47 08 00 00
	00 00		 mov	 DWORD PTR [edi+8], 0

; 2082 :             _Myend   = nullptr;

  000c2	c7 47 0c 00 00
	00 00		 mov	 DWORD PTR [edi+12], 0
$LN52@CDynamicPo:
  000c9	5f		 pop	 edi
; File C:\Marty 5.5\Src-Client\Client\eterLib\Pool.h

; 143  : 		}

  000ca	5e		 pop	 esi
  000cb	5b		 pop	 ebx
  000cc	c3		 ret	 0
$LN68@CDynamicPo:
; File D:\Program Files\Microsoft Visual Studio\2022\Community\VC\Tools\MSVC\14.43.34808\include\xmemory

; 219  :     _STL_VERIFY(_Back_shift >= _Min_back_shift && _Back_shift <= _Non_user_size, "invalid argument");

  000cd	e8 00 00 00 00	 call	 __invalid_parameter_noinfo_noreturn
$LN89@CDynamicPo:
  000d2	cc		 int	 3
??1?$CDynamicPoolEx@VCTextureAnimationCWDecorator@NEffectUpdateDecorator@@@@UAE@XZ ENDP ; CDynamicPoolEx<NEffectUpdateDecorator::CTextureAnimationCWDecorator>::~CDynamicPoolEx<NEffectUpdateDecorator::CTextureAnimationCWDecorator>
_TEXT	ENDS
; Function compile flags: /Ogtp
;	COMDAT ??_G?$CDynamicPoolEx@VCTextureAnimationCCWDecorator@NEffectUpdateDecorator@@@@UAEPAXI@Z
_TEXT	SEGMENT
___flags$ = 8						; size = 4
??_G?$CDynamicPoolEx@VCTextureAnimationCCWDecorator@NEffectUpdateDecorator@@@@UAEPAXI@Z PROC ; CDynamicPoolEx<NEffectUpdateDecorator::CTextureAnimationCCWDecorator>::`scalar deleting destructor', COMDAT
; _this$ = ecx
  00000	55		 push	 ebp
  00001	8b ec		 mov	 ebp, esp
  00003	56		 push	 esi
  00004	8b f1		 mov	 esi, ecx
  00006	e8 00 00 00 00	 call	 ??1?$CDynamicPoolEx@VCTextureAnimationCCWDecorator@NEffectUpdateDecorator@@@@UAE@XZ ; CDynamicPoolEx<NEffectUpdateDecorator::CTextureAnimationCCWDecorator>::~CDynamicPoolEx<NEffectUpdateDecorator::CTextureAnimationCCWDecorator>
  0000b	f6 45 08 01	 test	 BYTE PTR ___flags$[ebp], 1
  0000f	74 0b		 je	 SHORT $LN5@scalar
  00011	6a 24		 push	 36			; 00000024H
  00013	56		 push	 esi
  00014	e8 00 00 00 00	 call	 ??3@YAXPAXI@Z		; operator delete
  00019	83 c4 08	 add	 esp, 8
$LN5@scalar:
  0001c	8b c6		 mov	 eax, esi
  0001e	5e		 pop	 esi
  0001f	5d		 pop	 ebp
  00020	c2 04 00	 ret	 4
??_G?$CDynamicPoolEx@VCTextureAnimationCCWDecorator@NEffectUpdateDecorator@@@@UAEPAXI@Z ENDP ; CDynamicPoolEx<NEffectUpdateDecorator::CTextureAnimationCCWDecorator>::`scalar deleting destructor'
_TEXT	ENDS
; Function compile flags: /Ogtp
; File C:\Marty 5.5\Src-Client\Client\eterLib\Pool.h
; File D:\Program Files\Microsoft Visual Studio\2022\Community\VC\Tools\MSVC\14.43.34808\include\vector
; File D:\Program Files\Microsoft Visual Studio\2022\Community\VC\Tools\MSVC\14.43.34808\include\xmemory
; File D:\Program Files\Microsoft Visual Studio\2022\Community\VC\Tools\MSVC\14.43.34808\include\vector
; File D:\Program Files\Microsoft Visual Studio\2022\Community\VC\Tools\MSVC\14.43.34808\include\xmemory
; File D:\Program Files\Microsoft Visual Studio\2022\Community\VC\Tools\MSVC\14.43.34808\include\vector
; File D:\Program Files\Microsoft Visual Studio\2022\Community\VC\Tools\MSVC\14.43.34808\include\xmemory
; File D:\Program Files\Microsoft Visual Studio\2022\Community\VC\Tools\MSVC\14.43.34808\include\vector
; File D:\Program Files\Microsoft Visual Studio\2022\Community\VC\Tools\MSVC\14.43.34808\include\xmemory
; File D:\Program Files\Microsoft Visual Studio\2022\Community\VC\Tools\MSVC\14.43.34808\include\vector
; File C:\Marty 5.5\Src-Client\Client\eterLib\Pool.h
; File D:\Program Files\Microsoft Visual Studio\2022\Community\VC\Tools\MSVC\14.43.34808\include\xmemory
; File C:\Marty 5.5\Src-Client\Client\eterLib\Pool.h
;	COMDAT ??1?$CDynamicPoolEx@VCTextureAnimationCCWDecorator@NEffectUpdateDecorator@@@@UAE@XZ
_TEXT	SEGMENT
??1?$CDynamicPoolEx@VCTextureAnimationCCWDecorator@NEffectUpdateDecorator@@@@UAE@XZ PROC ; CDynamicPoolEx<NEffectUpdateDecorator::CTextureAnimationCCWDecorator>::~CDynamicPoolEx<NEffectUpdateDecorator::CTextureAnimationCCWDecorator>, COMDAT
; _this$ = ecx

; 133  : 		{

  00000	53		 push	 ebx
  00001	56		 push	 esi
  00002	57		 push	 edi
  00003	8b f9		 mov	 edi, ecx
  00005	c7 07 00 00 00
	00		 mov	 DWORD PTR [edi], OFFSET ??_7?$CDynamicPoolEx@VCTextureAnimationCCWDecorator@NEffectUpdateDecorator@@@@6B@

; 161  : 			for (auto v : m_kVct_pkData)

  0000b	8b 5f 08	 mov	 ebx, DWORD PTR [edi+8]
  0000e	8b 77 04	 mov	 esi, DWORD PTR [edi+4]
  00011	3b f3		 cmp	 esi, ebx
  00013	74 11		 je	 SHORT $LN6@CDynamicPo
$LL7@CDynamicPo:

; 226  : 			::operator delete(pkData);

  00015	ff 36		 push	 DWORD PTR [esi]
  00017	e8 00 00 00 00	 call	 ??3@YAXPAX@Z		; operator delete

; 161  : 			for (auto v : m_kVct_pkData)

  0001c	83 c6 04	 add	 esi, 4

; 226  : 			::operator delete(pkData);

  0001f	83 c4 04	 add	 esp, 4

; 161  : 			for (auto v : m_kVct_pkData)

  00022	3b f3		 cmp	 esi, ebx
  00024	75 ef		 jne	 SHORT $LL7@CDynamicPo
$LN6@CDynamicPo:
; File D:\Program Files\Microsoft Visual Studio\2022\Community\VC\Tools\MSVC\14.43.34808\include\vector

; 1797 :         if (_Myfirst == _Mylast) { // already empty, nothing to do

  00026	8b 47 04	 mov	 eax, DWORD PTR [edi+4]
  00029	3b 47 08	 cmp	 eax, DWORD PTR [edi+8]
  0002c	74 03		 je	 SHORT $LN11@CDynamicPo

; 1798 :             // This is an optimization for debug mode: we can avoid taking the debug lock to invalidate iterators.
; 1799 :             // Note that when clearing an empty vector, this will preserve past-the-end iterators, which is allowed by
; 1800 :             // N4950 [sequence.reqmts]/54 "a.clear() [...] may invalidate the past-the-end iterator".
; 1801 :             return;
; 1802 :         }
; 1803 : 
; 1804 :         _My_data._Orphan_all();
; 1805 :         _Destroy_range(_Myfirst, _Mylast, _Getal());
; 1806 :         _ASAN_VECTOR_MODIFY(static_cast<difference_type>(_Myfirst - _Mylast)); // negative when destroying elements
; 1807 :         _Mylast = _Myfirst;

  0002e	89 47 08	 mov	 DWORD PTR [edi+8], eax
$LN11@CDynamicPo:

; 1797 :         if (_Myfirst == _Mylast) { // already empty, nothing to do

  00031	8b 47 10	 mov	 eax, DWORD PTR [edi+16]
  00034	3b 47 14	 cmp	 eax, DWORD PTR [edi+20]
  00037	74 03		 je	 SHORT $LN15@CDynamicPo

; 1798 :             // This is an optimization for debug mode: we can avoid taking the debug lock to invalidate iterators.
; 1799 :             // Note that when clearing an empty vector, this will preserve past-the-end iterators, which is allowed by
; 1800 :             // N4950 [sequence.reqmts]/54 "a.clear() [...] may invalidate the past-the-end iterator".
; 1801 :             return;
; 1802 :         }
; 1803 : 
; 1804 :         _My_data._Orphan_all();
; 1805 :         _Destroy_range(_Myfirst, _Mylast, _Getal());
; 1806 :         _ASAN_VECTOR_MODIFY(static_cast<difference_type>(_Myfirst - _Mylast)); // negative when destroying elements
; 1807 :         _Mylast = _Myfirst;

  00039	89 47 14	 mov	 DWORD PTR [edi+20], eax
$LN15@CDynamicPo:

; 2075 :         if (_Myfirst) { // destroy and deallocate old array

  0003c	85 c0		 test	 eax, eax
  0003e	74 41		 je	 SHORT $LN23@CDynamicPo

; 2076 :             _STD _Destroy_range(_Myfirst, _Mylast, _Al);
; 2077 :             _ASAN_VECTOR_REMOVE;
; 2078 :             _Al.deallocate(_Myfirst, static_cast<size_type>(_Myend - _Myfirst));

  00040	8b 4f 18	 mov	 ecx, DWORD PTR [edi+24]
  00043	2b c8		 sub	 ecx, eax
; File D:\Program Files\Microsoft Visual Studio\2022\Community\VC\Tools\MSVC\14.43.34808\include\xmemory

; 981  :         _STD _Deallocate<_New_alignof<_Ty>>(_Ptr, sizeof(_Ty) * _Count);

  00045	83 e1 fc	 and	 ecx, -4			; fffffffcH

; 284  :         if (_Bytes >= _Big_allocation_threshold) {

  00048	81 f9 00 10 00
	00		 cmp	 ecx, 4096		; 00001000H
  0004e	72 12		 jb	 SHORT $LN42@CDynamicPo

; 205  :     const uintptr_t _Ptr_container   = _Ptr_user[-1];

  00050	8b 50 fc	 mov	 edx, DWORD PTR [eax-4]
  00053	83 c1 23	 add	 ecx, 35			; 00000023H

; 206  : 
; 207  :     // If the following asserts, it likely means that we are performing
; 208  :     // an aligned delete on memory coming from an unaligned allocation.
; 209  :     _STL_ASSERT(_Ptr_user[-2] == _Big_allocation_sentinel, "invalid argument");
; 210  : 
; 211  :     // Extra paranoia on aligned allocation/deallocation; ensure _Ptr_container is
; 212  :     // in range [_Min_back_shift, _Non_user_size]
; 213  : #ifdef _DEBUG
; 214  :     constexpr uintptr_t _Min_back_shift = 2 * sizeof(void*);
; 215  : #else // ^^^ defined(_DEBUG) / !defined(_DEBUG) vvv
; 216  :     constexpr uintptr_t _Min_back_shift = sizeof(void*);
; 217  : #endif // ^^^ !defined(_DEBUG) ^^^
; 218  :     const uintptr_t _Back_shift = reinterpret_cast<uintptr_t>(_Ptr) - _Ptr_container;

  00056	2b c2		 sub	 eax, edx

; 219  :     _STL_VERIFY(_Back_shift >= _Min_back_shift && _Back_shift <= _Non_user_size, "invalid argument");

  00058	83 c0 fc	 add	 eax, -4			; fffffffcH
  0005b	83 f8 1f	 cmp	 eax, 31			; 0000001fH
  0005e	77 6d		 ja	 SHORT $LN68@CDynamicPo

; 220  :     _Ptr = reinterpret_cast<void*>(_Ptr_container);

  00060	8b c2		 mov	 eax, edx
$LN42@CDynamicPo:

; 289  :         ::operator delete(_Ptr, _Bytes);

  00062	51		 push	 ecx
  00063	50		 push	 eax
  00064	e8 00 00 00 00	 call	 ??3@YAXPAXI@Z		; operator delete
; File D:\Program Files\Microsoft Visual Studio\2022\Community\VC\Tools\MSVC\14.43.34808\include\vector

; 2080 :             _Myfirst = nullptr;

  00069	c7 47 10 00 00
	00 00		 mov	 DWORD PTR [edi+16], 0
; File D:\Program Files\Microsoft Visual Studio\2022\Community\VC\Tools\MSVC\14.43.34808\include\xmemory

; 289  :         ::operator delete(_Ptr, _Bytes);

  00070	83 c4 08	 add	 esp, 8
; File D:\Program Files\Microsoft Visual Studio\2022\Community\VC\Tools\MSVC\14.43.34808\include\vector

; 2081 :             _Mylast  = nullptr;

  00073	c7 47 14 00 00
	00 00		 mov	 DWORD PTR [edi+20], 0

; 2082 :             _Myend   = nullptr;

  0007a	c7 47 18 00 00
	00 00		 mov	 DWORD PTR [edi+24], 0
$LN23@CDynamicPo:

; 2075 :         if (_Myfirst) { // destroy and deallocate old array

  00081	8b 47 04	 mov	 eax, DWORD PTR [edi+4]
  00084	85 c0		 test	 eax, eax
  00086	74 41		 je	 SHORT $LN52@CDynamicPo

; 2076 :             _STD _Destroy_range(_Myfirst, _Mylast, _Al);
; 2077 :             _ASAN_VECTOR_REMOVE;
; 2078 :             _Al.deallocate(_Myfirst, static_cast<size_type>(_Myend - _Myfirst));

  00088	8b 4f 0c	 mov	 ecx, DWORD PTR [edi+12]
  0008b	2b c8		 sub	 ecx, eax
; File D:\Program Files\Microsoft Visual Studio\2022\Community\VC\Tools\MSVC\14.43.34808\include\xmemory

; 981  :         _STD _Deallocate<_New_alignof<_Ty>>(_Ptr, sizeof(_Ty) * _Count);

  0008d	83 e1 fc	 and	 ecx, -4			; fffffffcH

; 284  :         if (_Bytes >= _Big_allocation_threshold) {

  00090	81 f9 00 10 00
	00		 cmp	 ecx, 4096		; 00001000H
  00096	72 12		 jb	 SHORT $LN71@CDynamicPo

; 205  :     const uintptr_t _Ptr_container   = _Ptr_user[-1];

  00098	8b 50 fc	 mov	 edx, DWORD PTR [eax-4]
  0009b	83 c1 23	 add	 ecx, 35			; 00000023H

; 206  : 
; 207  :     // If the following asserts, it likely means that we are performing
; 208  :     // an aligned delete on memory coming from an unaligned allocation.
; 209  :     _STL_ASSERT(_Ptr_user[-2] == _Big_allocation_sentinel, "invalid argument");
; 210  : 
; 211  :     // Extra paranoia on aligned allocation/deallocation; ensure _Ptr_container is
; 212  :     // in range [_Min_back_shift, _Non_user_size]
; 213  : #ifdef _DEBUG
; 214  :     constexpr uintptr_t _Min_back_shift = 2 * sizeof(void*);
; 215  : #else // ^^^ defined(_DEBUG) / !defined(_DEBUG) vvv
; 216  :     constexpr uintptr_t _Min_back_shift = sizeof(void*);
; 217  : #endif // ^^^ !defined(_DEBUG) ^^^
; 218  :     const uintptr_t _Back_shift = reinterpret_cast<uintptr_t>(_Ptr) - _Ptr_container;

  0009e	2b c2		 sub	 eax, edx

; 219  :     _STL_VERIFY(_Back_shift >= _Min_back_shift && _Back_shift <= _Non_user_size, "invalid argument");

  000a0	83 c0 fc	 add	 eax, -4			; fffffffcH
  000a3	83 f8 1f	 cmp	 eax, 31			; 0000001fH
  000a6	77 25		 ja	 SHORT $LN68@CDynamicPo

; 220  :     _Ptr = reinterpret_cast<void*>(_Ptr_container);

  000a8	8b c2		 mov	 eax, edx
$LN71@CDynamicPo:

; 289  :         ::operator delete(_Ptr, _Bytes);

  000aa	51		 push	 ecx
  000ab	50		 push	 eax
  000ac	e8 00 00 00 00	 call	 ??3@YAXPAXI@Z		; operator delete
; File D:\Program Files\Microsoft Visual Studio\2022\Community\VC\Tools\MSVC\14.43.34808\include\vector

; 2080 :             _Myfirst = nullptr;

  000b1	c7 47 04 00 00
	00 00		 mov	 DWORD PTR [edi+4], 0
; File D:\Program Files\Microsoft Visual Studio\2022\Community\VC\Tools\MSVC\14.43.34808\include\xmemory

; 289  :         ::operator delete(_Ptr, _Bytes);

  000b8	83 c4 08	 add	 esp, 8
; File D:\Program Files\Microsoft Visual Studio\2022\Community\VC\Tools\MSVC\14.43.34808\include\vector

; 2081 :             _Mylast  = nullptr;

  000bb	c7 47 08 00 00
	00 00		 mov	 DWORD PTR [edi+8], 0

; 2082 :             _Myend   = nullptr;

  000c2	c7 47 0c 00 00
	00 00		 mov	 DWORD PTR [edi+12], 0
$LN52@CDynamicPo:
  000c9	5f		 pop	 edi
; File C:\Marty 5.5\Src-Client\Client\eterLib\Pool.h

; 143  : 		}

  000ca	5e		 pop	 esi
  000cb	5b		 pop	 ebx
  000cc	c3		 ret	 0
$LN68@CDynamicPo:
; File D:\Program Files\Microsoft Visual Studio\2022\Community\VC\Tools\MSVC\14.43.34808\include\xmemory

; 219  :     _STL_VERIFY(_Back_shift >= _Min_back_shift && _Back_shift <= _Non_user_size, "invalid argument");

  000cd	e8 00 00 00 00	 call	 __invalid_parameter_noinfo_noreturn
$LN89@CDynamicPo:
  000d2	cc		 int	 3
??1?$CDynamicPoolEx@VCTextureAnimationCCWDecorator@NEffectUpdateDecorator@@@@UAE@XZ ENDP ; CDynamicPoolEx<NEffectUpdateDecorator::CTextureAnimationCCWDecorator>::~CDynamicPoolEx<NEffectUpdateDecorator::CTextureAnimationCCWDecorator>
_TEXT	ENDS
; Function compile flags: /Ogtp
;	COMDAT ??_G?$CDynamicPoolEx@VCTextureAnimationRandomDecorator@NEffectUpdateDecorator@@@@UAEPAXI@Z
_TEXT	SEGMENT
___flags$ = 8						; size = 4
??_G?$CDynamicPoolEx@VCTextureAnimationRandomDecorator@NEffectUpdateDecorator@@@@UAEPAXI@Z PROC ; CDynamicPoolEx<NEffectUpdateDecorator::CTextureAnimationRandomDecorator>::`scalar deleting destructor', COMDAT
; _this$ = ecx
  00000	55		 push	 ebp
  00001	8b ec		 mov	 ebp, esp
  00003	56		 push	 esi
  00004	8b f1		 mov	 esi, ecx
  00006	e8 00 00 00 00	 call	 ??1?$CDynamicPoolEx@VCTextureAnimationRandomDecorator@NEffectUpdateDecorator@@@@UAE@XZ ; CDynamicPoolEx<NEffectUpdateDecorator::CTextureAnimationRandomDecorator>::~CDynamicPoolEx<NEffectUpdateDecorator::CTextureAnimationRandomDecorator>
  0000b	f6 45 08 01	 test	 BYTE PTR ___flags$[ebp], 1
  0000f	74 0b		 je	 SHORT $LN5@scalar
  00011	6a 24		 push	 36			; 00000024H
  00013	56		 push	 esi
  00014	e8 00 00 00 00	 call	 ??3@YAXPAXI@Z		; operator delete
  00019	83 c4 08	 add	 esp, 8
$LN5@scalar:
  0001c	8b c6		 mov	 eax, esi
  0001e	5e		 pop	 esi
  0001f	5d		 pop	 ebp
  00020	c2 04 00	 ret	 4
??_G?$CDynamicPoolEx@VCTextureAnimationRandomDecorator@NEffectUpdateDecorator@@@@UAEPAXI@Z ENDP ; CDynamicPoolEx<NEffectUpdateDecorator::CTextureAnimationRandomDecorator>::`scalar deleting destructor'
_TEXT	ENDS
; Function compile flags: /Ogtp
; File C:\Marty 5.5\Src-Client\Client\eterLib\Pool.h
; File D:\Program Files\Microsoft Visual Studio\2022\Community\VC\Tools\MSVC\14.43.34808\include\vector
; File D:\Program Files\Microsoft Visual Studio\2022\Community\VC\Tools\MSVC\14.43.34808\include\xmemory
; File D:\Program Files\Microsoft Visual Studio\2022\Community\VC\Tools\MSVC\14.43.34808\include\vector
; File D:\Program Files\Microsoft Visual Studio\2022\Community\VC\Tools\MSVC\14.43.34808\include\xmemory
; File D:\Program Files\Microsoft Visual Studio\2022\Community\VC\Tools\MSVC\14.43.34808\include\vector
; File D:\Program Files\Microsoft Visual Studio\2022\Community\VC\Tools\MSVC\14.43.34808\include\xmemory
; File D:\Program Files\Microsoft Visual Studio\2022\Community\VC\Tools\MSVC\14.43.34808\include\vector
; File D:\Program Files\Microsoft Visual Studio\2022\Community\VC\Tools\MSVC\14.43.34808\include\xmemory
; File D:\Program Files\Microsoft Visual Studio\2022\Community\VC\Tools\MSVC\14.43.34808\include\vector
; File C:\Marty 5.5\Src-Client\Client\eterLib\Pool.h
; File D:\Program Files\Microsoft Visual Studio\2022\Community\VC\Tools\MSVC\14.43.34808\include\xmemory
; File C:\Marty 5.5\Src-Client\Client\eterLib\Pool.h
;	COMDAT ??1?$CDynamicPoolEx@VCTextureAnimationRandomDecorator@NEffectUpdateDecorator@@@@UAE@XZ
_TEXT	SEGMENT
??1?$CDynamicPoolEx@VCTextureAnimationRandomDecorator@NEffectUpdateDecorator@@@@UAE@XZ PROC ; CDynamicPoolEx<NEffectUpdateDecorator::CTextureAnimationRandomDecorator>::~CDynamicPoolEx<NEffectUpdateDecorator::CTextureAnimationRandomDecorator>, COMDAT
; _this$ = ecx

; 133  : 		{

  00000	53		 push	 ebx
  00001	56		 push	 esi
  00002	57		 push	 edi
  00003	8b f9		 mov	 edi, ecx
  00005	c7 07 00 00 00
	00		 mov	 DWORD PTR [edi], OFFSET ??_7?$CDynamicPoolEx@VCTextureAnimationRandomDecorator@NEffectUpdateDecorator@@@@6B@

; 161  : 			for (auto v : m_kVct_pkData)

  0000b	8b 5f 08	 mov	 ebx, DWORD PTR [edi+8]
  0000e	8b 77 04	 mov	 esi, DWORD PTR [edi+4]
  00011	3b f3		 cmp	 esi, ebx
  00013	74 11		 je	 SHORT $LN6@CDynamicPo
$LL7@CDynamicPo:

; 226  : 			::operator delete(pkData);

  00015	ff 36		 push	 DWORD PTR [esi]
  00017	e8 00 00 00 00	 call	 ??3@YAXPAX@Z		; operator delete

; 161  : 			for (auto v : m_kVct_pkData)

  0001c	83 c6 04	 add	 esi, 4

; 226  : 			::operator delete(pkData);

  0001f	83 c4 04	 add	 esp, 4

; 161  : 			for (auto v : m_kVct_pkData)

  00022	3b f3		 cmp	 esi, ebx
  00024	75 ef		 jne	 SHORT $LL7@CDynamicPo
$LN6@CDynamicPo:
; File D:\Program Files\Microsoft Visual Studio\2022\Community\VC\Tools\MSVC\14.43.34808\include\vector

; 1797 :         if (_Myfirst == _Mylast) { // already empty, nothing to do

  00026	8b 47 04	 mov	 eax, DWORD PTR [edi+4]
  00029	3b 47 08	 cmp	 eax, DWORD PTR [edi+8]
  0002c	74 03		 je	 SHORT $LN11@CDynamicPo

; 1798 :             // This is an optimization for debug mode: we can avoid taking the debug lock to invalidate iterators.
; 1799 :             // Note that when clearing an empty vector, this will preserve past-the-end iterators, which is allowed by
; 1800 :             // N4950 [sequence.reqmts]/54 "a.clear() [...] may invalidate the past-the-end iterator".
; 1801 :             return;
; 1802 :         }
; 1803 : 
; 1804 :         _My_data._Orphan_all();
; 1805 :         _Destroy_range(_Myfirst, _Mylast, _Getal());
; 1806 :         _ASAN_VECTOR_MODIFY(static_cast<difference_type>(_Myfirst - _Mylast)); // negative when destroying elements
; 1807 :         _Mylast = _Myfirst;

  0002e	89 47 08	 mov	 DWORD PTR [edi+8], eax
$LN11@CDynamicPo:

; 1797 :         if (_Myfirst == _Mylast) { // already empty, nothing to do

  00031	8b 47 10	 mov	 eax, DWORD PTR [edi+16]
  00034	3b 47 14	 cmp	 eax, DWORD PTR [edi+20]
  00037	74 03		 je	 SHORT $LN15@CDynamicPo

; 1798 :             // This is an optimization for debug mode: we can avoid taking the debug lock to invalidate iterators.
; 1799 :             // Note that when clearing an empty vector, this will preserve past-the-end iterators, which is allowed by
; 1800 :             // N4950 [sequence.reqmts]/54 "a.clear() [...] may invalidate the past-the-end iterator".
; 1801 :             return;
; 1802 :         }
; 1803 : 
; 1804 :         _My_data._Orphan_all();
; 1805 :         _Destroy_range(_Myfirst, _Mylast, _Getal());
; 1806 :         _ASAN_VECTOR_MODIFY(static_cast<difference_type>(_Myfirst - _Mylast)); // negative when destroying elements
; 1807 :         _Mylast = _Myfirst;

  00039	89 47 14	 mov	 DWORD PTR [edi+20], eax
$LN15@CDynamicPo:

; 2075 :         if (_Myfirst) { // destroy and deallocate old array

  0003c	85 c0		 test	 eax, eax
  0003e	74 41		 je	 SHORT $LN23@CDynamicPo

; 2076 :             _STD _Destroy_range(_Myfirst, _Mylast, _Al);
; 2077 :             _ASAN_VECTOR_REMOVE;
; 2078 :             _Al.deallocate(_Myfirst, static_cast<size_type>(_Myend - _Myfirst));

  00040	8b 4f 18	 mov	 ecx, DWORD PTR [edi+24]
  00043	2b c8		 sub	 ecx, eax
; File D:\Program Files\Microsoft Visual Studio\2022\Community\VC\Tools\MSVC\14.43.34808\include\xmemory

; 981  :         _STD _Deallocate<_New_alignof<_Ty>>(_Ptr, sizeof(_Ty) * _Count);

  00045	83 e1 fc	 and	 ecx, -4			; fffffffcH

; 284  :         if (_Bytes >= _Big_allocation_threshold) {

  00048	81 f9 00 10 00
	00		 cmp	 ecx, 4096		; 00001000H
  0004e	72 12		 jb	 SHORT $LN42@CDynamicPo

; 205  :     const uintptr_t _Ptr_container   = _Ptr_user[-1];

  00050	8b 50 fc	 mov	 edx, DWORD PTR [eax-4]
  00053	83 c1 23	 add	 ecx, 35			; 00000023H

; 206  : 
; 207  :     // If the following asserts, it likely means that we are performing
; 208  :     // an aligned delete on memory coming from an unaligned allocation.
; 209  :     _STL_ASSERT(_Ptr_user[-2] == _Big_allocation_sentinel, "invalid argument");
; 210  : 
; 211  :     // Extra paranoia on aligned allocation/deallocation; ensure _Ptr_container is
; 212  :     // in range [_Min_back_shift, _Non_user_size]
; 213  : #ifdef _DEBUG
; 214  :     constexpr uintptr_t _Min_back_shift = 2 * sizeof(void*);
; 215  : #else // ^^^ defined(_DEBUG) / !defined(_DEBUG) vvv
; 216  :     constexpr uintptr_t _Min_back_shift = sizeof(void*);
; 217  : #endif // ^^^ !defined(_DEBUG) ^^^
; 218  :     const uintptr_t _Back_shift = reinterpret_cast<uintptr_t>(_Ptr) - _Ptr_container;

  00056	2b c2		 sub	 eax, edx

; 219  :     _STL_VERIFY(_Back_shift >= _Min_back_shift && _Back_shift <= _Non_user_size, "invalid argument");

  00058	83 c0 fc	 add	 eax, -4			; fffffffcH
  0005b	83 f8 1f	 cmp	 eax, 31			; 0000001fH
  0005e	77 6d		 ja	 SHORT $LN68@CDynamicPo

; 220  :     _Ptr = reinterpret_cast<void*>(_Ptr_container);

  00060	8b c2		 mov	 eax, edx
$LN42@CDynamicPo:

; 289  :         ::operator delete(_Ptr, _Bytes);

  00062	51		 push	 ecx
  00063	50		 push	 eax
  00064	e8 00 00 00 00	 call	 ??3@YAXPAXI@Z		; operator delete
; File D:\Program Files\Microsoft Visual Studio\2022\Community\VC\Tools\MSVC\14.43.34808\include\vector

; 2080 :             _Myfirst = nullptr;

  00069	c7 47 10 00 00
	00 00		 mov	 DWORD PTR [edi+16], 0
; File D:\Program Files\Microsoft Visual Studio\2022\Community\VC\Tools\MSVC\14.43.34808\include\xmemory

; 289  :         ::operator delete(_Ptr, _Bytes);

  00070	83 c4 08	 add	 esp, 8
; File D:\Program Files\Microsoft Visual Studio\2022\Community\VC\Tools\MSVC\14.43.34808\include\vector

; 2081 :             _Mylast  = nullptr;

  00073	c7 47 14 00 00
	00 00		 mov	 DWORD PTR [edi+20], 0

; 2082 :             _Myend   = nullptr;

  0007a	c7 47 18 00 00
	00 00		 mov	 DWORD PTR [edi+24], 0
$LN23@CDynamicPo:

; 2075 :         if (_Myfirst) { // destroy and deallocate old array

  00081	8b 47 04	 mov	 eax, DWORD PTR [edi+4]
  00084	85 c0		 test	 eax, eax
  00086	74 41		 je	 SHORT $LN52@CDynamicPo

; 2076 :             _STD _Destroy_range(_Myfirst, _Mylast, _Al);
; 2077 :             _ASAN_VECTOR_REMOVE;
; 2078 :             _Al.deallocate(_Myfirst, static_cast<size_type>(_Myend - _Myfirst));

  00088	8b 4f 0c	 mov	 ecx, DWORD PTR [edi+12]
  0008b	2b c8		 sub	 ecx, eax
; File D:\Program Files\Microsoft Visual Studio\2022\Community\VC\Tools\MSVC\14.43.34808\include\xmemory

; 981  :         _STD _Deallocate<_New_alignof<_Ty>>(_Ptr, sizeof(_Ty) * _Count);

  0008d	83 e1 fc	 and	 ecx, -4			; fffffffcH

; 284  :         if (_Bytes >= _Big_allocation_threshold) {

  00090	81 f9 00 10 00
	00		 cmp	 ecx, 4096		; 00001000H
  00096	72 12		 jb	 SHORT $LN71@CDynamicPo

; 205  :     const uintptr_t _Ptr_container   = _Ptr_user[-1];

  00098	8b 50 fc	 mov	 edx, DWORD PTR [eax-4]
  0009b	83 c1 23	 add	 ecx, 35			; 00000023H

; 206  : 
; 207  :     // If the following asserts, it likely means that we are performing
; 208  :     // an aligned delete on memory coming from an unaligned allocation.
; 209  :     _STL_ASSERT(_Ptr_user[-2] == _Big_allocation_sentinel, "invalid argument");
; 210  : 
; 211  :     // Extra paranoia on aligned allocation/deallocation; ensure _Ptr_container is
; 212  :     // in range [_Min_back_shift, _Non_user_size]
; 213  : #ifdef _DEBUG
; 214  :     constexpr uintptr_t _Min_back_shift = 2 * sizeof(void*);
; 215  : #else // ^^^ defined(_DEBUG) / !defined(_DEBUG) vvv
; 216  :     constexpr uintptr_t _Min_back_shift = sizeof(void*);
; 217  : #endif // ^^^ !defined(_DEBUG) ^^^
; 218  :     const uintptr_t _Back_shift = reinterpret_cast<uintptr_t>(_Ptr) - _Ptr_container;

  0009e	2b c2		 sub	 eax, edx

; 219  :     _STL_VERIFY(_Back_shift >= _Min_back_shift && _Back_shift <= _Non_user_size, "invalid argument");

  000a0	83 c0 fc	 add	 eax, -4			; fffffffcH
  000a3	83 f8 1f	 cmp	 eax, 31			; 0000001fH
  000a6	77 25		 ja	 SHORT $LN68@CDynamicPo

; 220  :     _Ptr = reinterpret_cast<void*>(_Ptr_container);

  000a8	8b c2		 mov	 eax, edx
$LN71@CDynamicPo:

; 289  :         ::operator delete(_Ptr, _Bytes);

  000aa	51		 push	 ecx
  000ab	50		 push	 eax
  000ac	e8 00 00 00 00	 call	 ??3@YAXPAXI@Z		; operator delete
; File D:\Program Files\Microsoft Visual Studio\2022\Community\VC\Tools\MSVC\14.43.34808\include\vector

; 2080 :             _Myfirst = nullptr;

  000b1	c7 47 04 00 00
	00 00		 mov	 DWORD PTR [edi+4], 0
; File D:\Program Files\Microsoft Visual Studio\2022\Community\VC\Tools\MSVC\14.43.34808\include\xmemory

; 289  :         ::operator delete(_Ptr, _Bytes);

  000b8	83 c4 08	 add	 esp, 8
; File D:\Program Files\Microsoft Visual Studio\2022\Community\VC\Tools\MSVC\14.43.34808\include\vector

; 2081 :             _Mylast  = nullptr;

  000bb	c7 47 08 00 00
	00 00		 mov	 DWORD PTR [edi+8], 0

; 2082 :             _Myend   = nullptr;

  000c2	c7 47 0c 00 00
	00 00		 mov	 DWORD PTR [edi+12], 0
$LN52@CDynamicPo:
  000c9	5f		 pop	 edi
; File C:\Marty 5.5\Src-Client\Client\eterLib\Pool.h

; 143  : 		}

  000ca	5e		 pop	 esi
  000cb	5b		 pop	 ebx
  000cc	c3		 ret	 0
$LN68@CDynamicPo:
; File D:\Program Files\Microsoft Visual Studio\2022\Community\VC\Tools\MSVC\14.43.34808\include\xmemory

; 219  :     _STL_VERIFY(_Back_shift >= _Min_back_shift && _Back_shift <= _Non_user_size, "invalid argument");

  000cd	e8 00 00 00 00	 call	 __invalid_parameter_noinfo_noreturn
$LN89@CDynamicPo:
  000d2	cc		 int	 3
??1?$CDynamicPoolEx@VCTextureAnimationRandomDecorator@NEffectUpdateDecorator@@@@UAE@XZ ENDP ; CDynamicPoolEx<NEffectUpdateDecorator::CTextureAnimationRandomDecorator>::~CDynamicPoolEx<NEffectUpdateDecorator::CTextureAnimationRandomDecorator>
_TEXT	ENDS
; Function compile flags: /Ogtp
;	COMDAT ??_G?$CDynamicPoolEx@VCAirResistanceDecorator@NEffectUpdateDecorator@@@@UAEPAXI@Z
_TEXT	SEGMENT
___flags$ = 8						; size = 4
??_G?$CDynamicPoolEx@VCAirResistanceDecorator@NEffectUpdateDecorator@@@@UAEPAXI@Z PROC ; CDynamicPoolEx<NEffectUpdateDecorator::CAirResistanceDecorator>::`scalar deleting destructor', COMDAT
; _this$ = ecx
  00000	55		 push	 ebp
  00001	8b ec		 mov	 ebp, esp
  00003	56		 push	 esi
  00004	8b f1		 mov	 esi, ecx
  00006	e8 00 00 00 00	 call	 ??1?$CDynamicPoolEx@VCAirResistanceDecorator@NEffectUpdateDecorator@@@@UAE@XZ ; CDynamicPoolEx<NEffectUpdateDecorator::CAirResistanceDecorator>::~CDynamicPoolEx<NEffectUpdateDecorator::CAirResistanceDecorator>
  0000b	f6 45 08 01	 test	 BYTE PTR ___flags$[ebp], 1
  0000f	74 0b		 je	 SHORT $LN5@scalar
  00011	6a 24		 push	 36			; 00000024H
  00013	56		 push	 esi
  00014	e8 00 00 00 00	 call	 ??3@YAXPAXI@Z		; operator delete
  00019	83 c4 08	 add	 esp, 8
$LN5@scalar:
  0001c	8b c6		 mov	 eax, esi
  0001e	5e		 pop	 esi
  0001f	5d		 pop	 ebp
  00020	c2 04 00	 ret	 4
??_G?$CDynamicPoolEx@VCAirResistanceDecorator@NEffectUpdateDecorator@@@@UAEPAXI@Z ENDP ; CDynamicPoolEx<NEffectUpdateDecorator::CAirResistanceDecorator>::`scalar deleting destructor'
_TEXT	ENDS
; Function compile flags: /Ogtp
; File C:\Marty 5.5\Src-Client\Client\eterLib\Pool.h
; File D:\Program Files\Microsoft Visual Studio\2022\Community\VC\Tools\MSVC\14.43.34808\include\vector
; File D:\Program Files\Microsoft Visual Studio\2022\Community\VC\Tools\MSVC\14.43.34808\include\xmemory
; File D:\Program Files\Microsoft Visual Studio\2022\Community\VC\Tools\MSVC\14.43.34808\include\vector
; File D:\Program Files\Microsoft Visual Studio\2022\Community\VC\Tools\MSVC\14.43.34808\include\xmemory
; File D:\Program Files\Microsoft Visual Studio\2022\Community\VC\Tools\MSVC\14.43.34808\include\vector
; File D:\Program Files\Microsoft Visual Studio\2022\Community\VC\Tools\MSVC\14.43.34808\include\xmemory
; File D:\Program Files\Microsoft Visual Studio\2022\Community\VC\Tools\MSVC\14.43.34808\include\vector
; File D:\Program Files\Microsoft Visual Studio\2022\Community\VC\Tools\MSVC\14.43.34808\include\xmemory
; File D:\Program Files\Microsoft Visual Studio\2022\Community\VC\Tools\MSVC\14.43.34808\include\vector
; File C:\Marty 5.5\Src-Client\Client\eterLib\Pool.h
; File D:\Program Files\Microsoft Visual Studio\2022\Community\VC\Tools\MSVC\14.43.34808\include\xmemory
; File C:\Marty 5.5\Src-Client\Client\eterLib\Pool.h
;	COMDAT ??1?$CDynamicPoolEx@VCAirResistanceDecorator@NEffectUpdateDecorator@@@@UAE@XZ
_TEXT	SEGMENT
??1?$CDynamicPoolEx@VCAirResistanceDecorator@NEffectUpdateDecorator@@@@UAE@XZ PROC ; CDynamicPoolEx<NEffectUpdateDecorator::CAirResistanceDecorator>::~CDynamicPoolEx<NEffectUpdateDecorator::CAirResistanceDecorator>, COMDAT
; _this$ = ecx

; 133  : 		{

  00000	53		 push	 ebx
  00001	56		 push	 esi
  00002	57		 push	 edi
  00003	8b f9		 mov	 edi, ecx
  00005	c7 07 00 00 00
	00		 mov	 DWORD PTR [edi], OFFSET ??_7?$CDynamicPoolEx@VCAirResistanceDecorator@NEffectUpdateDecorator@@@@6B@

; 161  : 			for (auto v : m_kVct_pkData)

  0000b	8b 5f 08	 mov	 ebx, DWORD PTR [edi+8]
  0000e	8b 77 04	 mov	 esi, DWORD PTR [edi+4]
  00011	3b f3		 cmp	 esi, ebx
  00013	74 11		 je	 SHORT $LN6@CDynamicPo
$LL7@CDynamicPo:

; 226  : 			::operator delete(pkData);

  00015	ff 36		 push	 DWORD PTR [esi]
  00017	e8 00 00 00 00	 call	 ??3@YAXPAX@Z		; operator delete

; 161  : 			for (auto v : m_kVct_pkData)

  0001c	83 c6 04	 add	 esi, 4

; 226  : 			::operator delete(pkData);

  0001f	83 c4 04	 add	 esp, 4

; 161  : 			for (auto v : m_kVct_pkData)

  00022	3b f3		 cmp	 esi, ebx
  00024	75 ef		 jne	 SHORT $LL7@CDynamicPo
$LN6@CDynamicPo:
; File D:\Program Files\Microsoft Visual Studio\2022\Community\VC\Tools\MSVC\14.43.34808\include\vector

; 1797 :         if (_Myfirst == _Mylast) { // already empty, nothing to do

  00026	8b 47 04	 mov	 eax, DWORD PTR [edi+4]
  00029	3b 47 08	 cmp	 eax, DWORD PTR [edi+8]
  0002c	74 03		 je	 SHORT $LN11@CDynamicPo

; 1798 :             // This is an optimization for debug mode: we can avoid taking the debug lock to invalidate iterators.
; 1799 :             // Note that when clearing an empty vector, this will preserve past-the-end iterators, which is allowed by
; 1800 :             // N4950 [sequence.reqmts]/54 "a.clear() [...] may invalidate the past-the-end iterator".
; 1801 :             return;
; 1802 :         }
; 1803 : 
; 1804 :         _My_data._Orphan_all();
; 1805 :         _Destroy_range(_Myfirst, _Mylast, _Getal());
; 1806 :         _ASAN_VECTOR_MODIFY(static_cast<difference_type>(_Myfirst - _Mylast)); // negative when destroying elements
; 1807 :         _Mylast = _Myfirst;

  0002e	89 47 08	 mov	 DWORD PTR [edi+8], eax
$LN11@CDynamicPo:

; 1797 :         if (_Myfirst == _Mylast) { // already empty, nothing to do

  00031	8b 47 10	 mov	 eax, DWORD PTR [edi+16]
  00034	3b 47 14	 cmp	 eax, DWORD PTR [edi+20]
  00037	74 03		 je	 SHORT $LN15@CDynamicPo

; 1798 :             // This is an optimization for debug mode: we can avoid taking the debug lock to invalidate iterators.
; 1799 :             // Note that when clearing an empty vector, this will preserve past-the-end iterators, which is allowed by
; 1800 :             // N4950 [sequence.reqmts]/54 "a.clear() [...] may invalidate the past-the-end iterator".
; 1801 :             return;
; 1802 :         }
; 1803 : 
; 1804 :         _My_data._Orphan_all();
; 1805 :         _Destroy_range(_Myfirst, _Mylast, _Getal());
; 1806 :         _ASAN_VECTOR_MODIFY(static_cast<difference_type>(_Myfirst - _Mylast)); // negative when destroying elements
; 1807 :         _Mylast = _Myfirst;

  00039	89 47 14	 mov	 DWORD PTR [edi+20], eax
$LN15@CDynamicPo:

; 2075 :         if (_Myfirst) { // destroy and deallocate old array

  0003c	85 c0		 test	 eax, eax
  0003e	74 41		 je	 SHORT $LN23@CDynamicPo

; 2076 :             _STD _Destroy_range(_Myfirst, _Mylast, _Al);
; 2077 :             _ASAN_VECTOR_REMOVE;
; 2078 :             _Al.deallocate(_Myfirst, static_cast<size_type>(_Myend - _Myfirst));

  00040	8b 4f 18	 mov	 ecx, DWORD PTR [edi+24]
  00043	2b c8		 sub	 ecx, eax
; File D:\Program Files\Microsoft Visual Studio\2022\Community\VC\Tools\MSVC\14.43.34808\include\xmemory

; 981  :         _STD _Deallocate<_New_alignof<_Ty>>(_Ptr, sizeof(_Ty) * _Count);

  00045	83 e1 fc	 and	 ecx, -4			; fffffffcH

; 284  :         if (_Bytes >= _Big_allocation_threshold) {

  00048	81 f9 00 10 00
	00		 cmp	 ecx, 4096		; 00001000H
  0004e	72 12		 jb	 SHORT $LN42@CDynamicPo

; 205  :     const uintptr_t _Ptr_container   = _Ptr_user[-1];

  00050	8b 50 fc	 mov	 edx, DWORD PTR [eax-4]
  00053	83 c1 23	 add	 ecx, 35			; 00000023H

; 206  : 
; 207  :     // If the following asserts, it likely means that we are performing
; 208  :     // an aligned delete on memory coming from an unaligned allocation.
; 209  :     _STL_ASSERT(_Ptr_user[-2] == _Big_allocation_sentinel, "invalid argument");
; 210  : 
; 211  :     // Extra paranoia on aligned allocation/deallocation; ensure _Ptr_container is
; 212  :     // in range [_Min_back_shift, _Non_user_size]
; 213  : #ifdef _DEBUG
; 214  :     constexpr uintptr_t _Min_back_shift = 2 * sizeof(void*);
; 215  : #else // ^^^ defined(_DEBUG) / !defined(_DEBUG) vvv
; 216  :     constexpr uintptr_t _Min_back_shift = sizeof(void*);
; 217  : #endif // ^^^ !defined(_DEBUG) ^^^
; 218  :     const uintptr_t _Back_shift = reinterpret_cast<uintptr_t>(_Ptr) - _Ptr_container;

  00056	2b c2		 sub	 eax, edx

; 219  :     _STL_VERIFY(_Back_shift >= _Min_back_shift && _Back_shift <= _Non_user_size, "invalid argument");

  00058	83 c0 fc	 add	 eax, -4			; fffffffcH
  0005b	83 f8 1f	 cmp	 eax, 31			; 0000001fH
  0005e	77 6d		 ja	 SHORT $LN68@CDynamicPo

; 220  :     _Ptr = reinterpret_cast<void*>(_Ptr_container);

  00060	8b c2		 mov	 eax, edx
$LN42@CDynamicPo:

; 289  :         ::operator delete(_Ptr, _Bytes);

  00062	51		 push	 ecx
  00063	50		 push	 eax
  00064	e8 00 00 00 00	 call	 ??3@YAXPAXI@Z		; operator delete
; File D:\Program Files\Microsoft Visual Studio\2022\Community\VC\Tools\MSVC\14.43.34808\include\vector

; 2080 :             _Myfirst = nullptr;

  00069	c7 47 10 00 00
	00 00		 mov	 DWORD PTR [edi+16], 0
; File D:\Program Files\Microsoft Visual Studio\2022\Community\VC\Tools\MSVC\14.43.34808\include\xmemory

; 289  :         ::operator delete(_Ptr, _Bytes);

  00070	83 c4 08	 add	 esp, 8
; File D:\Program Files\Microsoft Visual Studio\2022\Community\VC\Tools\MSVC\14.43.34808\include\vector

; 2081 :             _Mylast  = nullptr;

  00073	c7 47 14 00 00
	00 00		 mov	 DWORD PTR [edi+20], 0

; 2082 :             _Myend   = nullptr;

  0007a	c7 47 18 00 00
	00 00		 mov	 DWORD PTR [edi+24], 0
$LN23@CDynamicPo:

; 2075 :         if (_Myfirst) { // destroy and deallocate old array

  00081	8b 47 04	 mov	 eax, DWORD PTR [edi+4]
  00084	85 c0		 test	 eax, eax
  00086	74 41		 je	 SHORT $LN52@CDynamicPo

; 2076 :             _STD _Destroy_range(_Myfirst, _Mylast, _Al);
; 2077 :             _ASAN_VECTOR_REMOVE;
; 2078 :             _Al.deallocate(_Myfirst, static_cast<size_type>(_Myend - _Myfirst));

  00088	8b 4f 0c	 mov	 ecx, DWORD PTR [edi+12]
  0008b	2b c8		 sub	 ecx, eax
; File D:\Program Files\Microsoft Visual Studio\2022\Community\VC\Tools\MSVC\14.43.34808\include\xmemory

; 981  :         _STD _Deallocate<_New_alignof<_Ty>>(_Ptr, sizeof(_Ty) * _Count);

  0008d	83 e1 fc	 and	 ecx, -4			; fffffffcH

; 284  :         if (_Bytes >= _Big_allocation_threshold) {

  00090	81 f9 00 10 00
	00		 cmp	 ecx, 4096		; 00001000H
  00096	72 12		 jb	 SHORT $LN71@CDynamicPo

; 205  :     const uintptr_t _Ptr_container   = _Ptr_user[-1];

  00098	8b 50 fc	 mov	 edx, DWORD PTR [eax-4]
  0009b	83 c1 23	 add	 ecx, 35			; 00000023H

; 206  : 
; 207  :     // If the following asserts, it likely means that we are performing
