; Listing generated by Microsoft (R) Optimizing Compiler Version 19.43.34808.0 

	TITLE	C:\Marty 5.5\Src-Client\Client\SpeedTreeLib\Distribute\SpeedTreeForest.obj
	.686P
	.XMM
	include listing.inc
	.model	flat

INCLUDELIB LIBCMT
INCLUDELIB OLDNAMES

PUBLIC	__Avx2WmemEnabledWeakValue
;	COMDAT __Avx2WmemEnabledWeakValue
_BSS	SEGMENT
__Avx2WmemEnabledWeakValue DD 01H DUP (?)
_BSS	ENDS
CONST	SEGMENT
?_Fake_alloc@std@@3U_Fake_allocator@1@B	ORG $+1		; std::_Fake_alloc
CONST	ENDS
PUBLIC	??0exception@std@@QAE@ABV01@@Z			; std::exception::exception
PUBLIC	??1exception@std@@UAE@XZ			; std::exception::~exception
PUBLIC	?what@exception@std@@UBEPBDXZ			; std::exception::what
PUBLIC	??_Gexception@std@@UAEPAXI@Z			; std::exception::`scalar deleting destructor'
PUBLIC	??0bad_alloc@std@@QAE@ABV01@@Z			; std::bad_alloc::bad_alloc
PUBLIC	??_Gbad_alloc@std@@UAEPAXI@Z			; std::bad_alloc::`scalar deleting destructor'
PUBLIC	??0bad_array_new_length@std@@QAE@XZ		; std::bad_array_new_length::bad_array_new_length
PUBLIC	??1bad_array_new_length@std@@UAE@XZ		; std::bad_array_new_length::~bad_array_new_length
PUBLIC	??0bad_array_new_length@std@@QAE@ABV01@@Z	; std::bad_array_new_length::bad_array_new_length
PUBLIC	??_Gbad_array_new_length@std@@UAEPAXI@Z		; std::bad_array_new_length::`scalar deleting destructor'
PUBLIC	?_Throw_bad_array_new_length@std@@YAXXZ		; std::_Throw_bad_array_new_length
PUBLIC	?_Throw_tree_length_error@std@@YAXXZ		; std::_Throw_tree_length_error
PUBLIC	??0CSpeedTreeForest@@QAE@XZ			; CSpeedTreeForest::CSpeedTreeForest
PUBLIC	??1CSpeedTreeForest@@UAE@XZ			; CSpeedTreeForest::~CSpeedTreeForest
PUBLIC	?GetMainTree@CSpeedTreeForest@@QAEHKPAPAVCSpeedTreeWrapper@@PBD@Z ; CSpeedTreeForest::GetMainTree
PUBLIC	?GetMainTree@CSpeedTreeForest@@QAEPAVCSpeedTreeWrapper@@K@Z ; CSpeedTreeForest::GetMainTree
PUBLIC	?CreateInstance@CSpeedTreeForest@@QAEPAVCSpeedTreeWrapper@@MMMKPBD@Z ; CSpeedTreeForest::CreateInstance
PUBLIC	?DeleteInstance@CSpeedTreeForest@@QAEXPAVCSpeedTreeWrapper@@@Z ; CSpeedTreeForest::DeleteInstance
PUBLIC	?UpdateSystem@CSpeedTreeForest@@QAEXM@Z		; CSpeedTreeForest::UpdateSystem
PUBLIC	?Clear@CSpeedTreeForest@@QAEXXZ			; CSpeedTreeForest::Clear
PUBLIC	?SetLight@CSpeedTreeForest@@QAEXPBM00@Z		; CSpeedTreeForest::SetLight
PUBLIC	?SetFog@CSpeedTreeForest@@QAEXMM@Z		; CSpeedTreeForest::SetFog
PUBLIC	?SetWindStrength@CSpeedTreeForest@@QAEXM@Z	; CSpeedTreeForest::SetWindStrength
PUBLIC	?SetupWindMatrices@CSpeedTreeForest@@QAEXM@Z	; CSpeedTreeForest::SetupWindMatrices
PUBLIC	??1?$_Tree@V?$_Tmap_traits@KPAVCSpeedTreeWrapper@@U?$less@K@std@@V?$allocator@U?$pair@$$CBKPAVCSpeedTreeWrapper@@@std@@@3@$0A@@std@@@std@@QAE@XZ ; std::_Tree<std::_Tmap_traits<unsigned long,CSpeedTreeWrapper *,std::less<unsigned long>,std::allocator<std::pair<unsigned long const ,CSpeedTreeWrapper *> >,0> >::~_Tree<std::_Tmap_traits<unsigned long,CSpeedTreeWrapper *,std::less<unsigned long>,std::allocator<std::pair<unsigned long const ,CSpeedTreeWrapper *> >,0> >
PUBLIC	?_Insert_node@?$_Tree_val@U?$_Tree_simple_types@U?$pair@$$CBKPAVCSpeedTreeWrapper@@@std@@@std@@@std@@QAEPAU?$_Tree_node@U?$pair@$$CBKPAVCSpeedTreeWrapper@@@std@@PAX@2@U?$_Tree_id@PAU?$_Tree_node@U?$pair@$$CBKPAVCSpeedTreeWrapper@@@std@@PAX@std@@@2@QAU32@@Z ; std::_Tree_val<std::_Tree_simple_types<std::pair<unsigned long const ,CSpeedTreeWrapper *> > >::_Insert_node
PUBLIC	??1?$map@KPAVCSpeedTreeWrapper@@U?$less@K@std@@V?$allocator@U?$pair@$$CBKPAVCSpeedTreeWrapper@@@std@@@3@@std@@QAE@XZ ; std::map<unsigned long,CSpeedTreeWrapper *,std::less<unsigned long>,std::allocator<std::pair<unsigned long const ,CSpeedTreeWrapper *> > >::~map<unsigned long,CSpeedTreeWrapper *,std::less<unsigned long>,std::allocator<std::pair<unsigned long const ,CSpeedTreeWrapper *> > >
PUBLIC	?AdjustExtents@CSpeedTreeForest@@AAEXMMM@Z	; CSpeedTreeForest::AdjustExtents
PUBLIC	??_GCSpeedTreeForest@@UAEPAXI@Z			; CSpeedTreeForest::`scalar deleting destructor'
PUBLIC	??$_Erase_tree@V?$allocator@U?$_Tree_node@U?$pair@$$CBKPAVCSpeedTreeWrapper@@@std@@PAX@std@@@std@@@?$_Tree_val@U?$_Tree_simple_types@U?$pair@$$CBKPAVCSpeedTreeWrapper@@@std@@@std@@@std@@QAEXAAV?$allocator@U?$_Tree_node@U?$pair@$$CBKPAVCSpeedTreeWrapper@@@std@@PAX@std@@@1@PAU?$_Tree_node@U?$pair@$$CBKPAVCSpeedTreeWrapper@@@std@@PAX@1@@Z ; std::_Tree_val<std::_Tree_simple_types<std::pair<unsigned long const ,CSpeedTreeWrapper *> > >::_Erase_tree<std::allocator<std::_Tree_node<std::pair<unsigned long const ,CSpeedTreeWrapper *>,void *> > >
PUBLIC	??$_Find_lower_bound@K@?$_Tree@V?$_Tmap_traits@KPAVCSpeedTreeWrapper@@U?$less@K@std@@V?$allocator@U?$pair@$$CBKPAVCSpeedTreeWrapper@@@std@@@3@$0A@@std@@@std@@IBE?AU?$_Tree_find_result@PAU?$_Tree_node@U?$pair@$$CBKPAVCSpeedTreeWrapper@@@std@@PAX@std@@@1@ABK@Z ; std::_Tree<std::_Tmap_traits<unsigned long,CSpeedTreeWrapper *,std::less<unsigned long>,std::allocator<std::pair<unsigned long const ,CSpeedTreeWrapper *> >,0> >::_Find_lower_bound<unsigned long>
PUBLIC	??1?$_Alloc_construct_ptr@V?$allocator@U?$_Tree_node@U?$pair@$$CBKPAVCSpeedTreeWrapper@@@std@@PAX@std@@@std@@@std@@QAE@XZ ; std::_Alloc_construct_ptr<std::allocator<std::_Tree_node<std::pair<unsigned long const ,CSpeedTreeWrapper *>,void *> > >::~_Alloc_construct_ptr<std::allocator<std::_Tree_node<std::pair<unsigned long const ,CSpeedTreeWrapper *>,void *> > >
PUBLIC	??$_Allocate_manually_vector_aligned@U_Default_allocate_traits@std@@@std@@YAPAXI@Z ; std::_Allocate_manually_vector_aligned<std::_Default_allocate_traits>
PUBLIC	??_7exception@std@@6B@				; std::exception::`vftable'
PUBLIC	??_C@_0BC@EOODALEL@Unknown?5exception@		; `string'
PUBLIC	??_7bad_alloc@std@@6B@				; std::bad_alloc::`vftable'
PUBLIC	??_7bad_array_new_length@std@@6B@		; std::bad_array_new_length::`vftable'
PUBLIC	??_C@_0BF@KINCDENJ@bad?5array?5new?5length@	; `string'
PUBLIC	??_R0?AVexception@std@@@8			; std::exception `RTTI Type Descriptor'
PUBLIC	__CT??_R0?AVexception@std@@@8??0exception@std@@QAE@ABV01@@Z12
PUBLIC	__TI3?AVbad_array_new_length@std@@
PUBLIC	__CTA3?AVbad_array_new_length@std@@
PUBLIC	??_R0?AVbad_array_new_length@std@@@8		; std::bad_array_new_length `RTTI Type Descriptor'
PUBLIC	__CT??_R0?AVbad_array_new_length@std@@@8??0bad_array_new_length@std@@QAE@ABV01@@Z12
PUBLIC	??_R0?AVbad_alloc@std@@@8			; std::bad_alloc `RTTI Type Descriptor'
PUBLIC	__CT??_R0?AVbad_alloc@std@@@8??0bad_alloc@std@@QAE@ABV01@@Z12
PUBLIC	??_C@_0BB@GCADKGJO@map?1set?5too?5long@		; `string'
PUBLIC	??_7CSpeedTreeForest@@6B@			; CSpeedTreeForest::`vftable'
PUBLIC	?ms_singleton@?$CSingleton@VCEterPackManager@@@@0PAVCEterPackManager@@A ; CSingleton<CEterPackManager>::ms_singleton
PUBLIC	??_R4exception@std@@6B@				; std::exception::`RTTI Complete Object Locator'
PUBLIC	??_R3exception@std@@8				; std::exception::`RTTI Class Hierarchy Descriptor'
PUBLIC	??_R2exception@std@@8				; std::exception::`RTTI Base Class Array'
PUBLIC	??_R1A@?0A@EA@exception@std@@8			; std::exception::`RTTI Base Class Descriptor at (0,-1,0,64)'
PUBLIC	??_R4bad_array_new_length@std@@6B@		; std::bad_array_new_length::`RTTI Complete Object Locator'
PUBLIC	??_R3bad_array_new_length@std@@8		; std::bad_array_new_length::`RTTI Class Hierarchy Descriptor'
PUBLIC	??_R2bad_array_new_length@std@@8		; std::bad_array_new_length::`RTTI Base Class Array'
PUBLIC	??_R1A@?0A@EA@bad_array_new_length@std@@8	; std::bad_array_new_length::`RTTI Base Class Descriptor at (0,-1,0,64)'
PUBLIC	??_R1A@?0A@EA@bad_alloc@std@@8			; std::bad_alloc::`RTTI Base Class Descriptor at (0,-1,0,64)'
PUBLIC	??_R3bad_alloc@std@@8				; std::bad_alloc::`RTTI Class Hierarchy Descriptor'
PUBLIC	??_R2bad_alloc@std@@8				; std::bad_alloc::`RTTI Base Class Array'
PUBLIC	??_R4bad_alloc@std@@6B@				; std::bad_alloc::`RTTI Complete Object Locator'
PUBLIC	??_R4CSpeedTreeForest@@6B@			; CSpeedTreeForest::`RTTI Complete Object Locator'
PUBLIC	??_R0?AVCSpeedTreeForest@@@8			; CSpeedTreeForest `RTTI Type Descriptor'
PUBLIC	??_R3CSpeedTreeForest@@8			; CSpeedTreeForest::`RTTI Class Hierarchy Descriptor'
PUBLIC	??_R2CSpeedTreeForest@@8			; CSpeedTreeForest::`RTTI Base Class Array'
PUBLIC	??_R1A@?0A@EA@CSpeedTreeForest@@8		; CSpeedTreeForest::`RTTI Base Class Descriptor at (0,-1,0,64)'
PUBLIC	__real@3f800000
EXTRN	__purecall:PROC
EXTRN	??2@YAPAXI@Z:PROC				; operator new
EXTRN	??3@YAXPAXI@Z:PROC				; operator delete
EXTRN	__Init_thread_header:PROC
EXTRN	__Init_thread_footer:PROC
EXTRN	__invalid_parameter_noinfo_noreturn:PROC
EXTRN	?SetTime@CSpeedTreeRT@@SAXM@Z:PROC		; CSpeedTreeRT::SetTime
EXTRN	?SetWindStrength@CSpeedTreeRT@@QAEMMMM@Z:PROC	; CSpeedTreeRT::SetWindStrength
EXTRN	?SetNumWindMatrices@CSpeedTreeRT@@SAXI@Z:PROC	; CSpeedTreeRT::SetNumWindMatrices
EXTRN	___std_exception_copy:PROC
EXTRN	___std_exception_destroy:PROC
EXTRN	??_Eexception@std@@UAEPAXI@Z:PROC		; std::exception::`vector deleting destructor'
EXTRN	??_Ebad_alloc@std@@UAEPAXI@Z:PROC		; std::bad_alloc::`vector deleting destructor'
EXTRN	??_Ebad_array_new_length@std@@UAEPAXI@Z:PROC	; std::bad_array_new_length::`vector deleting destructor'
EXTRN	?_Xlength_error@std@@YAXPBD@Z:PROC		; std::_Xlength_error
EXTRN	?RegisterBoundingSphere@CGraphicObjectInstance@@QAEXXZ:PROC ; CGraphicObjectInstance::RegisterBoundingSphere
EXTRN	??0CSpeedTreeWrapper@@QAE@XZ:PROC		; CSpeedTreeWrapper::CSpeedTreeWrapper
EXTRN	?LoadTree@CSpeedTreeWrapper@@QAE_NPBDPBEIIMM@Z:PROC ; CSpeedTreeWrapper::LoadTree
EXTRN	?GetInstances@CSpeedTreeWrapper@@QAEPAPAV1@AAI@Z:PROC ; CSpeedTreeWrapper::GetInstances
EXTRN	?MakeInstance@CSpeedTreeWrapper@@QAEPAV1@XZ:PROC ; CSpeedTreeWrapper::MakeInstance
EXTRN	?DeleteInstance@CSpeedTreeWrapper@@QAEXPAV1@@Z:PROC ; CSpeedTreeWrapper::DeleteInstance
EXTRN	??_ECSpeedTreeForest@@UAEPAXI@Z:PROC		; CSpeedTreeForest::`vector deleting destructor'
EXTRN	??0CMappedFile@@QAE@XZ:PROC			; CMappedFile::CMappedFile
EXTRN	??1CMappedFile@@UAE@XZ:PROC			; CMappedFile::~CMappedFile
EXTRN	?Destroy@CMappedFile@@QAEXXZ:PROC		; CMappedFile::Destroy
EXTRN	?Size@CMappedFile@@QAEKXZ:PROC			; CMappedFile::Size
EXTRN	?Get@CEterPackManager@@QAE_NAAVCMappedFile@@PBDPAPBX@Z:PROC ; CEterPackManager::Get
EXTRN	@__security_check_cookie@4:PROC
EXTRN	__CxxThrowException@8:PROC
EXTRN	___CxxFrameHandler3:PROC
EXTRN	__libm_sse2_cos_precise:PROC
EXTRN	__libm_sse2_sin_precise:PROC
EXTRN	__Init_thread_epoch:DWORD
EXTRN	??_7type_info@@6B@:QWORD			; type_info::`vftable'
EXTRN	___security_cookie:DWORD
EXTRN	__fltused:DWORD
EXTRN	__tls_array:DWORD
EXTRN	__tls_index:DWORD
;	COMDAT ?ms_singleton@?$CSingleton@VCEterPackManager@@@@0PAVCEterPackManager@@A
_BSS	SEGMENT
?ms_singleton@?$CSingleton@VCEterPackManager@@@@0PAVCEterPackManager@@A DD 01H DUP (?) ; CSingleton<CEterPackManager>::ms_singleton
_BSS	ENDS
;	COMDAT ?fLastTime@?1??UpdateSystem@CSpeedTreeForest@@QAEXM@Z@4MA
_BSS	SEGMENT
?fLastTime@?1??UpdateSystem@CSpeedTreeForest@@QAEXM@Z@4MA DD 01H DUP (?) ; `CSpeedTreeForest::UpdateSystem'::`2'::fLastTime
_BSS	ENDS
;	COMDAT ?$TSS0@?1??UpdateSystem@CSpeedTreeForest@@QAEXM@Z@4HA
_BSS	SEGMENT
?$TSS0@?1??UpdateSystem@CSpeedTreeForest@@QAEXM@Z@4HA DD 01H DUP (?) ; `CSpeedTreeForest::UpdateSystem'::`2'::$TSS0
_BSS	ENDS
;	COMDAT ?afMatrixTimes@?1??SetupWindMatrices@CSpeedTreeForest@@QAEXM@Z@4PAMA
_BSS	SEGMENT
?afMatrixTimes@?1??SetupWindMatrices@CSpeedTreeForest@@QAEXM@Z@4PAMA DD 04H DUP (?) ; `CSpeedTreeForest::SetupWindMatrices'::`2'::afMatrixTimes
_BSS	ENDS
;	COMDAT ?fTimeOfLastCall@?1??SetupWindMatrices@CSpeedTreeForest@@QAEXM@Z@4MA
_BSS	SEGMENT
?fTimeOfLastCall@?1??SetupWindMatrices@CSpeedTreeForest@@QAEXM@Z@4MA DD 01H DUP (?) ; `CSpeedTreeForest::SetupWindMatrices'::`2'::fTimeOfLastCall
_BSS	ENDS
;	COMDAT ?fOldStrength@?1??SetupWindMatrices@CSpeedTreeForest@@QAEXM@Z@4MA
_BSS	SEGMENT
?fOldStrength@?1??SetupWindMatrices@CSpeedTreeForest@@QAEXM@Z@4MA DD 01H DUP (?) ; `CSpeedTreeForest::SetupWindMatrices'::`2'::fOldStrength
_BSS	ENDS
;	COMDAT ?$TSS0@?1??SetupWindMatrices@CSpeedTreeForest@@QAEXM@Z@4HA
_BSS	SEGMENT
?$TSS0@?1??SetupWindMatrices@CSpeedTreeForest@@QAEXM@Z@4HA DD 01H DUP (?) ; `CSpeedTreeForest::SetupWindMatrices'::`2'::$TSS0
_BSS	ENDS
;	COMDAT __real@3f800000
CONST	SEGMENT
__real@3f800000 DD 03f800000r			; 1
CONST	ENDS
;	COMDAT ??_R1A@?0A@EA@CSpeedTreeForest@@8
rdata$r	SEGMENT
??_R1A@?0A@EA@CSpeedTreeForest@@8 DD FLAT:??_R0?AVCSpeedTreeForest@@@8 ; CSpeedTreeForest::`RTTI Base Class Descriptor at (0,-1,0,64)'
	DD	00H
	DD	00H
	DD	0ffffffffH
	DD	00H
	DD	040H
	DD	FLAT:??_R3CSpeedTreeForest@@8
rdata$r	ENDS
;	COMDAT ??_R2CSpeedTreeForest@@8
rdata$r	SEGMENT
??_R2CSpeedTreeForest@@8 DD FLAT:??_R1A@?0A@EA@CSpeedTreeForest@@8 ; CSpeedTreeForest::`RTTI Base Class Array'
rdata$r	ENDS
;	COMDAT ??_R3CSpeedTreeForest@@8
rdata$r	SEGMENT
??_R3CSpeedTreeForest@@8 DD 00H				; CSpeedTreeForest::`RTTI Class Hierarchy Descriptor'
	DD	00H
	DD	01H
	DD	FLAT:??_R2CSpeedTreeForest@@8
rdata$r	ENDS
;	COMDAT ??_R0?AVCSpeedTreeForest@@@8
data$rs	SEGMENT
??_R0?AVCSpeedTreeForest@@@8 DD FLAT:??_7type_info@@6B@	; CSpeedTreeForest `RTTI Type Descriptor'
	DD	00H
	DB	'.?AVCSpeedTreeForest@@', 00H
data$rs	ENDS
;	COMDAT ??_R4CSpeedTreeForest@@6B@
rdata$r	SEGMENT
??_R4CSpeedTreeForest@@6B@ DD 00H			; CSpeedTreeForest::`RTTI Complete Object Locator'
	DD	00H
	DD	00H
	DD	FLAT:??_R0?AVCSpeedTreeForest@@@8
	DD	FLAT:??_R3CSpeedTreeForest@@8
rdata$r	ENDS
;	COMDAT ??_R4bad_alloc@std@@6B@
rdata$r	SEGMENT
??_R4bad_alloc@std@@6B@ DD 00H				; std::bad_alloc::`RTTI Complete Object Locator'
	DD	00H
	DD	00H
	DD	FLAT:??_R0?AVbad_alloc@std@@@8
	DD	FLAT:??_R3bad_alloc@std@@8
rdata$r	ENDS
;	COMDAT ??_R2bad_alloc@std@@8
rdata$r	SEGMENT
??_R2bad_alloc@std@@8 DD FLAT:??_R1A@?0A@EA@bad_alloc@std@@8 ; std::bad_alloc::`RTTI Base Class Array'
	DD	FLAT:??_R1A@?0A@EA@exception@std@@8
rdata$r	ENDS
;	COMDAT ??_R3bad_alloc@std@@8
rdata$r	SEGMENT
??_R3bad_alloc@std@@8 DD 00H				; std::bad_alloc::`RTTI Class Hierarchy Descriptor'
	DD	00H
	DD	02H
	DD	FLAT:??_R2bad_alloc@std@@8
rdata$r	ENDS
;	COMDAT ??_R1A@?0A@EA@bad_alloc@std@@8
rdata$r	SEGMENT
??_R1A@?0A@EA@bad_alloc@std@@8 DD FLAT:??_R0?AVbad_alloc@std@@@8 ; std::bad_alloc::`RTTI Base Class Descriptor at (0,-1,0,64)'
	DD	01H
	DD	00H
	DD	0ffffffffH
	DD	00H
	DD	040H
	DD	FLAT:??_R3bad_alloc@std@@8
rdata$r	ENDS
;	COMDAT ??_R1A@?0A@EA@bad_array_new_length@std@@8
rdata$r	SEGMENT
??_R1A@?0A@EA@bad_array_new_length@std@@8 DD FLAT:??_R0?AVbad_array_new_length@std@@@8 ; std::bad_array_new_length::`RTTI Base Class Descriptor at (0,-1,0,64)'
	DD	02H
	DD	00H
	DD	0ffffffffH
	DD	00H
	DD	040H
	DD	FLAT:??_R3bad_array_new_length@std@@8
rdata$r	ENDS
;	COMDAT ??_R2bad_array_new_length@std@@8
rdata$r	SEGMENT
??_R2bad_array_new_length@std@@8 DD FLAT:??_R1A@?0A@EA@bad_array_new_length@std@@8 ; std::bad_array_new_length::`RTTI Base Class Array'
	DD	FLAT:??_R1A@?0A@EA@bad_alloc@std@@8
	DD	FLAT:??_R1A@?0A@EA@exception@std@@8
rdata$r	ENDS
;	COMDAT ??_R3bad_array_new_length@std@@8
rdata$r	SEGMENT
??_R3bad_array_new_length@std@@8 DD 00H			; std::bad_array_new_length::`RTTI Class Hierarchy Descriptor'
	DD	00H
	DD	03H
	DD	FLAT:??_R2bad_array_new_length@std@@8
rdata$r	ENDS
;	COMDAT ??_R4bad_array_new_length@std@@6B@
rdata$r	SEGMENT
??_R4bad_array_new_length@std@@6B@ DD 00H		; std::bad_array_new_length::`RTTI Complete Object Locator'
	DD	00H
	DD	00H
	DD	FLAT:??_R0?AVbad_array_new_length@std@@@8
	DD	FLAT:??_R3bad_array_new_length@std@@8
rdata$r	ENDS
;	COMDAT ??_R1A@?0A@EA@exception@std@@8
rdata$r	SEGMENT
??_R1A@?0A@EA@exception@std@@8 DD FLAT:??_R0?AVexception@std@@@8 ; std::exception::`RTTI Base Class Descriptor at (0,-1,0,64)'
	DD	00H
	DD	00H
	DD	0ffffffffH
	DD	00H
	DD	040H
	DD	FLAT:??_R3exception@std@@8
rdata$r	ENDS
;	COMDAT ??_R2exception@std@@8
rdata$r	SEGMENT
??_R2exception@std@@8 DD FLAT:??_R1A@?0A@EA@exception@std@@8 ; std::exception::`RTTI Base Class Array'
rdata$r	ENDS
;	COMDAT ??_R3exception@std@@8
rdata$r	SEGMENT
??_R3exception@std@@8 DD 00H				; std::exception::`RTTI Class Hierarchy Descriptor'
	DD	00H
	DD	01H
	DD	FLAT:??_R2exception@std@@8
rdata$r	ENDS
;	COMDAT ??_R4exception@std@@6B@
rdata$r	SEGMENT
??_R4exception@std@@6B@ DD 00H				; std::exception::`RTTI Complete Object Locator'
	DD	00H
	DD	00H
	DD	FLAT:??_R0?AVexception@std@@@8
	DD	FLAT:??_R3exception@std@@8
rdata$r	ENDS
;	COMDAT ??_7CSpeedTreeForest@@6B@
CONST	SEGMENT
??_7CSpeedTreeForest@@6B@ DD FLAT:??_R4CSpeedTreeForest@@6B@ ; CSpeedTreeForest::`vftable'
	DD	FLAT:??_ECSpeedTreeForest@@UAEPAXI@Z
	DD	FLAT:__purecall
	DD	FLAT:__purecall
CONST	ENDS
;	COMDAT ??_C@_0BB@GCADKGJO@map?1set?5too?5long@
CONST	SEGMENT
??_C@_0BB@GCADKGJO@map?1set?5too?5long@ DB 'map/set too long', 00H ; `string'
CONST	ENDS
;	COMDAT __CT??_R0?AVbad_alloc@std@@@8??0bad_alloc@std@@QAE@ABV01@@Z12
xdata$x	SEGMENT
__CT??_R0?AVbad_alloc@std@@@8??0bad_alloc@std@@QAE@ABV01@@Z12 DD 010H
	DD	FLAT:??_R0?AVbad_alloc@std@@@8
	DD	00H
	DD	0ffffffffH
	ORG $+4
	DD	0cH
	DD	FLAT:??0bad_alloc@std@@QAE@ABV01@@Z
xdata$x	ENDS
;	COMDAT ??_R0?AVbad_alloc@std@@@8
data$r	SEGMENT
??_R0?AVbad_alloc@std@@@8 DD FLAT:??_7type_info@@6B@	; std::bad_alloc `RTTI Type Descriptor'
	DD	00H
	DB	'.?AVbad_alloc@std@@', 00H
data$r	ENDS
;	COMDAT __CT??_R0?AVbad_array_new_length@std@@@8??0bad_array_new_length@std@@QAE@ABV01@@Z12
xdata$x	SEGMENT
__CT??_R0?AVbad_array_new_length@std@@@8??0bad_array_new_length@std@@QAE@ABV01@@Z12 DD 00H
	DD	FLAT:??_R0?AVbad_array_new_length@std@@@8
	DD	00H
	DD	0ffffffffH
	ORG $+4
	DD	0cH
	DD	FLAT:??0bad_array_new_length@std@@QAE@ABV01@@Z
xdata$x	ENDS
;	COMDAT ??_R0?AVbad_array_new_length@std@@@8
data$r	SEGMENT
??_R0?AVbad_array_new_length@std@@@8 DD FLAT:??_7type_info@@6B@ ; std::bad_array_new_length `RTTI Type Descriptor'
	DD	00H
	DB	'.?AVbad_array_new_length@std@@', 00H
data$r	ENDS
;	COMDAT __CTA3?AVbad_array_new_length@std@@
xdata$x	SEGMENT
__CTA3?AVbad_array_new_length@std@@ DD 03H
	DD	FLAT:__CT??_R0?AVbad_array_new_length@std@@@8??0bad_array_new_length@std@@QAE@ABV01@@Z12
	DD	FLAT:__CT??_R0?AVbad_alloc@std@@@8??0bad_alloc@std@@QAE@ABV01@@Z12
	DD	FLAT:__CT??_R0?AVexception@std@@@8??0exception@std@@QAE@ABV01@@Z12
xdata$x	ENDS
;	COMDAT __TI3?AVbad_array_new_length@std@@
xdata$x	SEGMENT
__TI3?AVbad_array_new_length@std@@ DD 00H
	DD	FLAT:??1bad_array_new_length@std@@UAE@XZ
	DD	00H
	DD	FLAT:__CTA3?AVbad_array_new_length@std@@
xdata$x	ENDS
;	COMDAT __CT??_R0?AVexception@std@@@8??0exception@std@@QAE@ABV01@@Z12
xdata$x	SEGMENT
__CT??_R0?AVexception@std@@@8??0exception@std@@QAE@ABV01@@Z12 DD 00H
	DD	FLAT:??_R0?AVexception@std@@@8
	DD	00H
	DD	0ffffffffH
	ORG $+4
	DD	0cH
	DD	FLAT:??0exception@std@@QAE@ABV01@@Z
xdata$x	ENDS
;	COMDAT ??_R0?AVexception@std@@@8
data$r	SEGMENT
??_R0?AVexception@std@@@8 DD FLAT:??_7type_info@@6B@	; std::exception `RTTI Type Descriptor'
	DD	00H
	DB	'.?AVexception@std@@', 00H
data$r	ENDS
;	COMDAT ??_C@_0BF@KINCDENJ@bad?5array?5new?5length@
CONST	SEGMENT
??_C@_0BF@KINCDENJ@bad?5array?5new?5length@ DB 'bad array new length', 00H ; `string'
CONST	ENDS
;	COMDAT ??_7bad_array_new_length@std@@6B@
CONST	SEGMENT
??_7bad_array_new_length@std@@6B@ DD FLAT:??_R4bad_array_new_length@std@@6B@ ; std::bad_array_new_length::`vftable'
	DD	FLAT:??_Ebad_array_new_length@std@@UAEPAXI@Z
	DD	FLAT:?what@exception@std@@UBEPBDXZ
CONST	ENDS
;	COMDAT ??_7bad_alloc@std@@6B@
CONST	SEGMENT
??_7bad_alloc@std@@6B@ DD FLAT:??_R4bad_alloc@std@@6B@	; std::bad_alloc::`vftable'
	DD	FLAT:??_Ebad_alloc@std@@UAEPAXI@Z
	DD	FLAT:?what@exception@std@@UBEPBDXZ
CONST	ENDS
;	COMDAT ??_C@_0BC@EOODALEL@Unknown?5exception@
CONST	SEGMENT
??_C@_0BC@EOODALEL@Unknown?5exception@ DB 'Unknown exception', 00H ; `string'
CONST	ENDS
;	COMDAT ??_7exception@std@@6B@
CONST	SEGMENT
??_7exception@std@@6B@ DD FLAT:??_R4exception@std@@6B@	; std::exception::`vftable'
	DD	FLAT:??_Eexception@std@@UAEPAXI@Z
	DD	FLAT:?what@exception@std@@UBEPBDXZ
CONST	ENDS
;	COMDAT xdata$x
xdata$x	SEGMENT
__unwindtable$??$?0U?$pair@$$CBKPAVCSpeedTreeWrapper@@@std@@@?$_Tree_temp_node@V?$allocator@U?$_Tree_node@U?$pair@$$CBKPAVCSpeedTreeWrapper@@@std@@PAX@std@@@std@@@std@@QAE@AAV?$allocator@U?$_Tree_node@U?$pair@$$CBKPAVCSpeedTreeWrapper@@@std@@PAX@std@@@1@PAU?$_Tree_node@U?$pair@$$CBKPAVCSpeedTreeWrapper@@@std@@PAX@1@$$QAU?$pair@$$CBKPAVCSpeedTreeWrapper@@@1@@Z DD 0ffffffffH
	DD	FLAT:__unwindfunclet$??$?0U?$pair@$$CBKPAVCSpeedTreeWrapper@@@std@@@?$_Tree_temp_node@V?$allocator@U?$_Tree_node@U?$pair@$$CBKPAVCSpeedTreeWrapper@@@std@@PAX@std@@@std@@@std@@QAE@AAV?$allocator@U?$_Tree_node@U?$pair@$$CBKPAVCSpeedTreeWrapper@@@std@@PAX@std@@@1@PAU?$_Tree_node@U?$pair@$$CBKPAVCSpeedTreeWrapper@@@std@@PAX@1@$$QAU?$pair@$$CBKPAVCSpeedTreeWrapper@@@1@@Z$1
__ehfuncinfo$??$?0U?$pair@$$CBKPAVCSpeedTreeWrapper@@@std@@@?$_Tree_temp_node@V?$allocator@U?$_Tree_node@U?$pair@$$CBKPAVCSpeedTreeWrapper@@@std@@PAX@std@@@std@@@std@@QAE@AAV?$allocator@U?$_Tree_node@U?$pair@$$CBKPAVCSpeedTreeWrapper@@@std@@PAX@std@@@1@PAU?$_Tree_node@U?$pair@$$CBKPAVCSpeedTreeWrapper@@@std@@PAX@1@$$QAU?$pair@$$CBKPAVCSpeedTreeWrapper@@@1@@Z DD 019930522H
	DD	01H
	DD	FLAT:__unwindtable$??$?0U?$pair@$$CBKPAVCSpeedTreeWrapper@@@std@@@?$_Tree_temp_node@V?$allocator@U?$_Tree_node@U?$pair@$$CBKPAVCSpeedTreeWrapper@@@std@@PAX@std@@@std@@@std@@QAE@AAV?$allocator@U?$_Tree_node@U?$pair@$$CBKPAVCSpeedTreeWrapper@@@std@@PAX@std@@@1@PAU?$_Tree_node@U?$pair@$$CBKPAVCSpeedTreeWrapper@@@std@@PAX@1@$$QAU?$pair@$$CBKPAVCSpeedTreeWrapper@@@1@@Z
	DD	2 DUP(00H)
	DD	2 DUP(00H)
	DD	00H
	DD	01H
xdata$x	ENDS
;	COMDAT xdata$x
xdata$x	SEGMENT
__unwindtable$??0?$_Tree_temp_node_alloc@V?$allocator@U?$_Tree_node@U?$pair@$$CBKPAVCSpeedTreeWrapper@@@std@@PAX@std@@@std@@@std@@QAE@AAV?$allocator@U?$_Tree_node@U?$pair@$$CBKPAVCSpeedTreeWrapper@@@std@@PAX@std@@@1@@Z DD 0ffffffffH
	DD	FLAT:__unwindfunclet$??0?$_Tree_temp_node_alloc@V?$allocator@U?$_Tree_node@U?$pair@$$CBKPAVCSpeedTreeWrapper@@@std@@PAX@std@@@std@@@std@@QAE@AAV?$allocator@U?$_Tree_node@U?$pair@$$CBKPAVCSpeedTreeWrapper@@@std@@PAX@std@@@1@@Z$0
__ehfuncinfo$??0?$_Tree_temp_node_alloc@V?$allocator@U?$_Tree_node@U?$pair@$$CBKPAVCSpeedTreeWrapper@@@std@@PAX@std@@@std@@@std@@QAE@AAV?$allocator@U?$_Tree_node@U?$pair@$$CBKPAVCSpeedTreeWrapper@@@std@@PAX@std@@@1@@Z DD 019930522H
	DD	01H
	DD	FLAT:__unwindtable$??0?$_Tree_temp_node_alloc@V?$allocator@U?$_Tree_node@U?$pair@$$CBKPAVCSpeedTreeWrapper@@@std@@PAX@std@@@std@@@std@@QAE@AAV?$allocator@U?$_Tree_node@U?$pair@$$CBKPAVCSpeedTreeWrapper@@@std@@PAX@std@@@1@@Z
	DD	2 DUP(00H)
	DD	2 DUP(00H)
	DD	00H
	DD	01H
xdata$x	ENDS
;	COMDAT xdata$x
xdata$x	SEGMENT
__unwindtable$??$_Emplace@U?$pair@$$CBKPAVCSpeedTreeWrapper@@@std@@@?$_Tree@V?$_Tmap_traits@KPAVCSpeedTreeWrapper@@U?$less@K@std@@V?$allocator@U?$pair@$$CBKPAVCSpeedTreeWrapper@@@std@@@3@$0A@@std@@@std@@IAE?AU?$pair@PAU?$_Tree_node@U?$pair@$$CBKPAVCSpeedTreeWrapper@@@std@@PAX@std@@_N@1@$$QAU?$pair@$$CBKPAVCSpeedTreeWrapper@@@1@@Z DD 0ffffffffH
	DD	FLAT:__unwindfunclet$??$_Emplace@U?$pair@$$CBKPAVCSpeedTreeWrapper@@@std@@@?$_Tree@V?$_Tmap_traits@KPAVCSpeedTreeWrapper@@U?$less@K@std@@V?$allocator@U?$pair@$$CBKPAVCSpeedTreeWrapper@@@std@@@3@$0A@@std@@@std@@IAE?AU?$pair@PAU?$_Tree_node@U?$pair@$$CBKPAVCSpeedTreeWrapper@@@std@@PAX@std@@_N@1@$$QAU?$pair@$$CBKPAVCSpeedTreeWrapper@@@1@@Z$2
__ehfuncinfo$??$_Emplace@U?$pair@$$CBKPAVCSpeedTreeWrapper@@@std@@@?$_Tree@V?$_Tmap_traits@KPAVCSpeedTreeWrapper@@U?$less@K@std@@V?$allocator@U?$pair@$$CBKPAVCSpeedTreeWrapper@@@std@@@3@$0A@@std@@@std@@IAE?AU?$pair@PAU?$_Tree_node@U?$pair@$$CBKPAVCSpeedTreeWrapper@@@std@@PAX@std@@_N@1@$$QAU?$pair@$$CBKPAVCSpeedTreeWrapper@@@1@@Z DD 019930522H
	DD	01H
	DD	FLAT:__unwindtable$??$_Emplace@U?$pair@$$CBKPAVCSpeedTreeWrapper@@@std@@@?$_Tree@V?$_Tmap_traits@KPAVCSpeedTreeWrapper@@U?$less@K@std@@V?$allocator@U?$pair@$$CBKPAVCSpeedTreeWrapper@@@std@@@3@$0A@@std@@@std@@IAE?AU?$pair@PAU?$_Tree_node@U?$pair@$$CBKPAVCSpeedTreeWrapper@@@std@@PAX@std@@_N@1@$$QAU?$pair@$$CBKPAVCSpeedTreeWrapper@@@1@@Z
	DD	2 DUP(00H)
	DD	2 DUP(00H)
	DD	00H
	DD	01H
xdata$x	ENDS
;	COMDAT xdata$x
xdata$x	SEGMENT
__unwindtable$??$insert@$0A@$0A@@?$_Tree@V?$_Tmap_traits@KPAVCSpeedTreeWrapper@@U?$less@K@std@@V?$allocator@U?$pair@$$CBKPAVCSpeedTreeWrapper@@@std@@@3@$0A@@std@@@std@@QAE?AU?$pair@V?$_Tree_iterator@V?$_Tree_val@U?$_Tree_simple_types@U?$pair@$$CBKPAVCSpeedTreeWrapper@@@std@@@std@@@std@@@std@@_N@1@$$QAU?$pair@$$CBKPAVCSpeedTreeWrapper@@@1@@Z DD 0ffffffffH
	DD	FLAT:__unwindfunclet$??$insert@$0A@$0A@@?$_Tree@V?$_Tmap_traits@KPAVCSpeedTreeWrapper@@U?$less@K@std@@V?$allocator@U?$pair@$$CBKPAVCSpeedTreeWrapper@@@std@@@3@$0A@@std@@@std@@QAE?AU?$pair@V?$_Tree_iterator@V?$_Tree_val@U?$_Tree_simple_types@U?$pair@$$CBKPAVCSpeedTreeWrapper@@@std@@@std@@@std@@@std@@_N@1@$$QAU?$pair@$$CBKPAVCSpeedTreeWrapper@@@1@@Z$2
__ehfuncinfo$??$insert@$0A@$0A@@?$_Tree@V?$_Tmap_traits@KPAVCSpeedTreeWrapper@@U?$less@K@std@@V?$allocator@U?$pair@$$CBKPAVCSpeedTreeWrapper@@@std@@@3@$0A@@std@@@std@@QAE?AU?$pair@V?$_Tree_iterator@V?$_Tree_val@U?$_Tree_simple_types@U?$pair@$$CBKPAVCSpeedTreeWrapper@@@std@@@std@@@std@@@std@@_N@1@$$QAU?$pair@$$CBKPAVCSpeedTreeWrapper@@@1@@Z DD 019930522H
	DD	01H
	DD	FLAT:__unwindtable$??$insert@$0A@$0A@@?$_Tree@V?$_Tmap_traits@KPAVCSpeedTreeWrapper@@U?$less@K@std@@V?$allocator@U?$pair@$$CBKPAVCSpeedTreeWrapper@@@std@@@3@$0A@@std@@@std@@QAE?AU?$pair@V?$_Tree_iterator@V?$_Tree_val@U?$_Tree_simple_types@U?$pair@$$CBKPAVCSpeedTreeWrapper@@@std@@@std@@@std@@@std@@_N@1@$$QAU?$pair@$$CBKPAVCSpeedTreeWrapper@@@1@@Z
	DD	2 DUP(00H)
	DD	2 DUP(00H)
	DD	00H
	DD	01H
xdata$x	ENDS
;	COMDAT xdata$x
xdata$x	SEGMENT
__unwindtable$?GetMainTree@CSpeedTreeForest@@QAEHKPAPAVCSpeedTreeWrapper@@PBD@Z DD 0ffffffffH
	DD	FLAT:__unwindfunclet$?GetMainTree@CSpeedTreeForest@@QAEHKPAPAVCSpeedTreeWrapper@@PBD@Z$0
	DD	00H
	DD	FLAT:__unwindfunclet$?GetMainTree@CSpeedTreeForest@@QAEHKPAPAVCSpeedTreeWrapper@@PBD@Z$1
	DD	00H
	DD	FLAT:__unwindfunclet$?GetMainTree@CSpeedTreeForest@@QAEHKPAPAVCSpeedTreeWrapper@@PBD@Z$4
__ehfuncinfo$?GetMainTree@CSpeedTreeForest@@QAEHKPAPAVCSpeedTreeWrapper@@PBD@Z DD 019930522H
	DD	03H
	DD	FLAT:__unwindtable$?GetMainTree@CSpeedTreeForest@@QAEHKPAPAVCSpeedTreeWrapper@@PBD@Z
	DD	2 DUP(00H)
	DD	2 DUP(00H)
	DD	00H
	DD	01H
xdata$x	ENDS
;	COMDAT xdata$x
xdata$x	SEGMENT
__ehfuncinfo$??1CSpeedTreeForest@@UAE@XZ DD 019930522H
	DD	00H
	DD	00H
	DD	2 DUP(00H)
	DD	2 DUP(00H)
	DD	00H
	DD	05H
xdata$x	ENDS
;	COMDAT xdata$x
xdata$x	SEGMENT
__unwindtable$??0CSpeedTreeForest@@QAE@XZ DD 0ffffffffH
	DD	FLAT:__unwindfunclet$??0CSpeedTreeForest@@QAE@XZ$0
__ehfuncinfo$??0CSpeedTreeForest@@QAE@XZ DD 019930522H
	DD	01H
	DD	FLAT:__unwindtable$??0CSpeedTreeForest@@QAE@XZ
	DD	2 DUP(00H)
	DD	2 DUP(00H)
	DD	00H
	DD	01H
xdata$x	ENDS
; Function compile flags: /Ogtp
; File D:\Program Files\Microsoft Visual Studio\2022\Community\VC\Tools\MSVC\14.43.34808\include\xmemory
;	COMDAT ??$_Allocate_manually_vector_aligned@U_Default_allocate_traits@std@@@std@@YAPAXI@Z
_TEXT	SEGMENT
__Bytes$ = 8						; size = 4
??$_Allocate_manually_vector_aligned@U_Default_allocate_traits@std@@@std@@YAPAXI@Z PROC ; std::_Allocate_manually_vector_aligned<std::_Default_allocate_traits>, COMDAT

; 182  : __declspec(allocator) void* _Allocate_manually_vector_aligned(const size_t _Bytes) {

  00000	55		 push	 ebp
  00001	8b ec		 mov	 ebp, esp

; 183  :     // allocate _Bytes manually aligned to at least _Big_allocation_alignment
; 184  :     const size_t _Block_size = _Non_user_size + _Bytes;

  00003	8b 45 08	 mov	 eax, DWORD PTR __Bytes$[ebp]
  00006	8d 48 23	 lea	 ecx, DWORD PTR [eax+35]

; 185  :     if (_Block_size <= _Bytes) {

  00009	3b c8		 cmp	 ecx, eax
  0000b	0f 86 00 00 00
	00		 jbe	 ?_Throw_bad_array_new_length@std@@YAXXZ ; std::_Throw_bad_array_new_length

; 136  :         return ::operator new(_Bytes);

  00011	51		 push	 ecx
  00012	e8 00 00 00 00	 call	 ??2@YAPAXI@Z		; operator new

; 186  :         _Throw_bad_array_new_length(); // add overflow
; 187  :     }
; 188  : 
; 189  :     const uintptr_t _Ptr_container = reinterpret_cast<uintptr_t>(_Traits::_Allocate(_Block_size));

  00017	8b c8		 mov	 ecx, eax

; 136  :         return ::operator new(_Bytes);

  00019	83 c4 04	 add	 esp, 4

; 190  :     _STL_VERIFY(_Ptr_container != 0, "invalid argument"); // validate even in release since we're doing p[-1]

  0001c	85 c9		 test	 ecx, ecx
  0001e	74 0b		 je	 SHORT $LN7@Allocate_m

; 191  :     void* const _Ptr = reinterpret_cast<void*>((_Ptr_container + _Non_user_size) & ~(_Big_allocation_alignment - 1));

  00020	8d 41 23	 lea	 eax, DWORD PTR [ecx+35]
  00023	83 e0 e0	 and	 eax, -32		; ffffffe0H

; 192  :     static_cast<uintptr_t*>(_Ptr)[-1] = _Ptr_container;

  00026	89 48 fc	 mov	 DWORD PTR [eax-4], ecx

; 193  : 
; 194  : #ifdef _DEBUG
; 195  :     static_cast<uintptr_t*>(_Ptr)[-2] = _Big_allocation_sentinel;
; 196  : #endif // defined(_DEBUG)
; 197  :     return _Ptr;
; 198  : }

  00029	5d		 pop	 ebp
  0002a	c3		 ret	 0
$LN7@Allocate_m:

; 190  :     _STL_VERIFY(_Ptr_container != 0, "invalid argument"); // validate even in release since we're doing p[-1]

  0002b	e9 00 00 00 00	 jmp	 __invalid_parameter_noinfo_noreturn
??$_Allocate_manually_vector_aligned@U_Default_allocate_traits@std@@@std@@YAPAXI@Z ENDP ; std::_Allocate_manually_vector_aligned<std::_Default_allocate_traits>
_TEXT	ENDS
; Function compile flags: /Ogtp
; File D:\Program Files\Microsoft Visual Studio\2022\Community\VC\Tools\MSVC\14.43.34808\include\xmemory
;	COMDAT ??1?$_Alloc_construct_ptr@V?$allocator@U?$_Tree_node@U?$pair@$$CBKPAVCSpeedTreeWrapper@@@std@@PAX@std@@@std@@@std@@QAE@XZ
_TEXT	SEGMENT
??1?$_Alloc_construct_ptr@V?$allocator@U?$_Tree_node@U?$pair@$$CBKPAVCSpeedTreeWrapper@@@std@@PAX@std@@@std@@@std@@QAE@XZ PROC ; std::_Alloc_construct_ptr<std::allocator<std::_Tree_node<std::pair<unsigned long const ,CSpeedTreeWrapper *>,void *> > >::~_Alloc_construct_ptr<std::allocator<std::_Tree_node<std::pair<unsigned long const ,CSpeedTreeWrapper *>,void *> > >, COMDAT
; _this$ = ecx

; 1168 :         if (_Ptr) {

  00000	8b 41 04	 mov	 eax, DWORD PTR [ecx+4]
  00003	85 c0		 test	 eax, eax
  00005	74 0b		 je	 SHORT $LN10@Alloc_cons

; 289  :         ::operator delete(_Ptr, _Bytes);

  00007	6a 18		 push	 24			; 00000018H
  00009	50		 push	 eax
  0000a	e8 00 00 00 00	 call	 ??3@YAXPAXI@Z		; operator delete
  0000f	83 c4 08	 add	 esp, 8
$LN10@Alloc_cons:

; 1169 :             _Al.deallocate(_Ptr, 1);
; 1170 :         }
; 1171 :     }

  00012	c3		 ret	 0
??1?$_Alloc_construct_ptr@V?$allocator@U?$_Tree_node@U?$pair@$$CBKPAVCSpeedTreeWrapper@@@std@@PAX@std@@@std@@@std@@QAE@XZ ENDP ; std::_Alloc_construct_ptr<std::allocator<std::_Tree_node<std::pair<unsigned long const ,CSpeedTreeWrapper *>,void *> > >::~_Alloc_construct_ptr<std::allocator<std::_Tree_node<std::pair<unsigned long const ,CSpeedTreeWrapper *>,void *> > >
_TEXT	ENDS
; Function compile flags: /Ogtp
; File D:\Program Files\Microsoft Visual Studio\2022\Community\VC\Tools\MSVC\14.43.34808\include\xtree
; File D:\Program Files\Microsoft Visual Studio\2022\Community\VC\Tools\MSVC\14.43.34808\include\type_traits
; File D:\Program Files\Microsoft Visual Studio\2022\Community\VC\Tools\MSVC\14.43.34808\include\xtree
; File D:\Program Files\Microsoft Visual Studio\2022\Community\VC\Tools\MSVC\14.43.34808\include\type_traits
; File D:\Program Files\Microsoft Visual Studio\2022\Community\VC\Tools\MSVC\14.43.34808\include\xtree
;	COMDAT ??$_Find_lower_bound@K@?$_Tree@V?$_Tmap_traits@KPAVCSpeedTreeWrapper@@U?$less@K@std@@V?$allocator@U?$pair@$$CBKPAVCSpeedTreeWrapper@@@std@@@3@$0A@@std@@@std@@IBE?AU?$_Tree_find_result@PAU?$_Tree_node@U?$pair@$$CBKPAVCSpeedTreeWrapper@@@std@@PAX@std@@@1@ABK@Z
_TEXT	SEGMENT
___$ReturnUdt$ = 8					; size = 4
__Keyval$ = 12						; size = 4
??$_Find_lower_bound@K@?$_Tree@V?$_Tmap_traits@KPAVCSpeedTreeWrapper@@U?$less@K@std@@V?$allocator@U?$pair@$$CBKPAVCSpeedTreeWrapper@@@std@@@3@$0A@@std@@@std@@IBE?AU?$_Tree_find_result@PAU?$_Tree_node@U?$pair@$$CBKPAVCSpeedTreeWrapper@@@std@@PAX@std@@@1@ABK@Z PROC ; std::_Tree<std::_Tmap_traits<unsigned long,CSpeedTreeWrapper *,std::less<unsigned long>,std::allocator<std::pair<unsigned long const ,CSpeedTreeWrapper *> >,0> >::_Find_lower_bound<unsigned long>, COMDAT
; _this$ = ecx

; 1618 :     _Tree_find_result<_Nodeptr> _Find_lower_bound(const _Keyty& _Keyval) const {

  00000	55		 push	 ebp
  00001	8b ec		 mov	 ebp, esp

; 1619 :         const auto _Scary = _Get_scary();
; 1620 :         _Tree_find_result<_Nodeptr> _Result{{_Scary->_Myhead->_Parent, _Tree_child::_Right}, _Scary->_Myhead};

  00003	8b 09		 mov	 ecx, DWORD PTR [ecx]
  00005	8b 55 08	 mov	 edx, DWORD PTR ___$ReturnUdt$[ebp]
  00008	8b 41 04	 mov	 eax, DWORD PTR [ecx+4]
  0000b	89 02		 mov	 DWORD PTR [edx], eax
  0000d	c7 42 04 00 00
	00 00		 mov	 DWORD PTR [edx+4], 0
  00014	89 4a 08	 mov	 DWORD PTR [edx+8], ecx

; 1621 :         _Nodeptr _Trynode = _Result._Location._Parent;
; 1622 :         while (!_Trynode->_Isnil) {

  00017	80 78 0d 00	 cmp	 BYTE PTR [eax+13], 0
  0001b	75 28		 jne	 SHORT $LN13@Find_lower
; File D:\Program Files\Microsoft Visual Studio\2022\Community\VC\Tools\MSVC\14.43.34808\include\type_traits

; 2412 :         return _Left < _Right;

  0001d	8b 4d 0c	 mov	 ecx, DWORD PTR __Keyval$[ebp]
  00020	56		 push	 esi
  00021	8b 31		 mov	 esi, DWORD PTR [ecx]
$LL2@Find_lower:
; File D:\Program Files\Microsoft Visual Studio\2022\Community\VC\Tools\MSVC\14.43.34808\include\xtree

; 1623 :             _Result._Location._Parent = _Trynode;

  00023	89 02		 mov	 DWORD PTR [edx], eax
; File D:\Program Files\Microsoft Visual Studio\2022\Community\VC\Tools\MSVC\14.43.34808\include\type_traits

; 2412 :         return _Left < _Right;

  00025	39 70 10	 cmp	 DWORD PTR [eax+16], esi
; File D:\Program Files\Microsoft Visual Studio\2022\Community\VC\Tools\MSVC\14.43.34808\include\xtree

; 1624 :             if (_DEBUG_LT_PRED(_Getcomp(), _Traits::_Kfn(_Trynode->_Myval), _Keyval)) {

  00028	73 07		 jae	 SHORT $LN4@Find_lower

; 1625 :                 _Result._Location._Child = _Tree_child::_Right;
; 1626 :                 _Trynode                 = _Trynode->_Right;

  0002a	8b 40 08	 mov	 eax, DWORD PTR [eax+8]
  0002d	33 c9		 xor	 ecx, ecx

; 1627 :             } else {

  0002f	eb 0a		 jmp	 SHORT $LN5@Find_lower
$LN4@Find_lower:

; 1628 :                 _Result._Location._Child = _Tree_child::_Left;
; 1629 :                 _Result._Bound           = _Trynode;

  00031	89 42 08	 mov	 DWORD PTR [edx+8], eax

; 1630 :                 _Trynode                 = _Trynode->_Left;

  00034	b9 01 00 00 00	 mov	 ecx, 1
  00039	8b 00		 mov	 eax, DWORD PTR [eax]
$LN5@Find_lower:

; 1621 :         _Nodeptr _Trynode = _Result._Location._Parent;
; 1622 :         while (!_Trynode->_Isnil) {

  0003b	89 4a 04	 mov	 DWORD PTR [edx+4], ecx
  0003e	80 78 0d 00	 cmp	 BYTE PTR [eax+13], 0
  00042	74 df		 je	 SHORT $LL2@Find_lower
  00044	5e		 pop	 esi
$LN13@Find_lower:

; 1631 :             }
; 1632 :         }
; 1633 : 
; 1634 :         return _Result;
; 1635 :     }

  00045	8b c2		 mov	 eax, edx
  00047	5d		 pop	 ebp
  00048	c2 08 00	 ret	 8
??$_Find_lower_bound@K@?$_Tree@V?$_Tmap_traits@KPAVCSpeedTreeWrapper@@U?$less@K@std@@V?$allocator@U?$pair@$$CBKPAVCSpeedTreeWrapper@@@std@@@3@$0A@@std@@@std@@IBE?AU?$_Tree_find_result@PAU?$_Tree_node@U?$pair@$$CBKPAVCSpeedTreeWrapper@@@std@@PAX@std@@@1@ABK@Z ENDP ; std::_Tree<std::_Tmap_traits<unsigned long,CSpeedTreeWrapper *,std::less<unsigned long>,std::allocator<std::pair<unsigned long const ,CSpeedTreeWrapper *> >,0> >::_Find_lower_bound<unsigned long>
_TEXT	ENDS
; Function compile flags: /Ogtp
; File D:\Program Files\Microsoft Visual Studio\2022\Community\VC\Tools\MSVC\14.43.34808\include\xtree
; File D:\Program Files\Microsoft Visual Studio\2022\Community\VC\Tools\MSVC\14.43.34808\include\utility
; File D:\Program Files\Microsoft Visual Studio\2022\Community\VC\Tools\MSVC\14.43.34808\include\xmemory
; File D:\Program Files\Microsoft Visual Studio\2022\Community\VC\Tools\MSVC\14.43.34808\include\xtree
;	COMDAT ??$_Erase_tree@V?$allocator@U?$_Tree_node@U?$pair@$$CBKPAVCSpeedTreeWrapper@@@std@@PAX@std@@@std@@@?$_Tree_val@U?$_Tree_simple_types@U?$pair@$$CBKPAVCSpeedTreeWrapper@@@std@@@std@@@std@@QAEXAAV?$allocator@U?$_Tree_node@U?$pair@$$CBKPAVCSpeedTreeWrapper@@@std@@PAX@std@@@1@PAU?$_Tree_node@U?$pair@$$CBKPAVCSpeedTreeWrapper@@@std@@PAX@1@@Z
_TEXT	SEGMENT
__Al$ = 8						; size = 4
__Rootnode$ = 12					; size = 4
??$_Erase_tree@V?$allocator@U?$_Tree_node@U?$pair@$$CBKPAVCSpeedTreeWrapper@@@std@@PAX@std@@@std@@@?$_Tree_val@U?$_Tree_simple_types@U?$pair@$$CBKPAVCSpeedTreeWrapper@@@std@@@std@@@std@@QAEXAAV?$allocator@U?$_Tree_node@U?$pair@$$CBKPAVCSpeedTreeWrapper@@@std@@PAX@std@@@1@PAU?$_Tree_node@U?$pair@$$CBKPAVCSpeedTreeWrapper@@@std@@PAX@1@@Z PROC ; std::_Tree_val<std::_Tree_simple_types<std::pair<unsigned long const ,CSpeedTreeWrapper *> > >::_Erase_tree<std::allocator<std::_Tree_node<std::pair<unsigned long const ,CSpeedTreeWrapper *>,void *> > >, COMDAT
; _this$ = ecx

; 757  :     void _Erase_tree(_Alnode& _Al, _Nodeptr _Rootnode) noexcept {

  00000	55		 push	 ebp
  00001	8b ec		 mov	 ebp, esp
  00003	53		 push	 ebx
  00004	56		 push	 esi

; 758  :         while (!_Rootnode->_Isnil) { // free subtrees, then node

  00005	8b 75 0c	 mov	 esi, DWORD PTR __Rootnode$[ebp]
  00008	8b d9		 mov	 ebx, ecx
  0000a	80 7e 0d 00	 cmp	 BYTE PTR [esi+13], 0
  0000e	75 25		 jne	 SHORT $LN39@Erase_tree
  00010	57		 push	 edi
  00011	8b 7d 08	 mov	 edi, DWORD PTR __Al$[ebp]
$LL2@Erase_tree:

; 759  :             _Erase_tree(_Al, _Rootnode->_Right);

  00014	ff 76 08	 push	 DWORD PTR [esi+8]
  00017	8b cb		 mov	 ecx, ebx
  00019	57		 push	 edi
  0001a	e8 00 00 00 00	 call	 ??$_Erase_tree@V?$allocator@U?$_Tree_node@U?$pair@$$CBKPAVCSpeedTreeWrapper@@@std@@PAX@std@@@std@@@?$_Tree_val@U?$_Tree_simple_types@U?$pair@$$CBKPAVCSpeedTreeWrapper@@@std@@@std@@@std@@QAEXAAV?$allocator@U?$_Tree_node@U?$pair@$$CBKPAVCSpeedTreeWrapper@@@std@@PAX@std@@@1@PAU?$_Tree_node@U?$pair@$$CBKPAVCSpeedTreeWrapper@@@std@@PAX@1@@Z ; std::_Tree_val<std::_Tree_simple_types<std::pair<unsigned long const ,CSpeedTreeWrapper *> > >::_Erase_tree<std::allocator<std::_Tree_node<std::pair<unsigned long const ,CSpeedTreeWrapper *>,void *> > >
; File D:\Program Files\Microsoft Visual Studio\2022\Community\VC\Tools\MSVC\14.43.34808\include\utility

; 773  :     _Ty _Old_val = static_cast<_Ty&&>(_Val);

  0001f	8b c6		 mov	 eax, esi

; 774  :     _Val         = static_cast<_Other&&>(_New_val);

  00021	8b 36		 mov	 esi, DWORD PTR [esi]
; File D:\Program Files\Microsoft Visual Studio\2022\Community\VC\Tools\MSVC\14.43.34808\include\xmemory

; 289  :         ::operator delete(_Ptr, _Bytes);

  00023	6a 18		 push	 24			; 00000018H
  00025	50		 push	 eax
  00026	e8 00 00 00 00	 call	 ??3@YAXPAXI@Z		; operator delete
  0002b	83 c4 08	 add	 esp, 8
; File D:\Program Files\Microsoft Visual Studio\2022\Community\VC\Tools\MSVC\14.43.34808\include\xtree

; 758  :         while (!_Rootnode->_Isnil) { // free subtrees, then node

  0002e	80 7e 0d 00	 cmp	 BYTE PTR [esi+13], 0
  00032	74 e0		 je	 SHORT $LL2@Erase_tree
  00034	5f		 pop	 edi
$LN39@Erase_tree:
  00035	5e		 pop	 esi

; 760  :             _Alnode::value_type::_Freenode(_Al, _STD exchange(_Rootnode, _Rootnode->_Left));
; 761  :         }
; 762  :     }

  00036	5b		 pop	 ebx
  00037	5d		 pop	 ebp
  00038	c2 08 00	 ret	 8
??$_Erase_tree@V?$allocator@U?$_Tree_node@U?$pair@$$CBKPAVCSpeedTreeWrapper@@@std@@PAX@std@@@std@@@?$_Tree_val@U?$_Tree_simple_types@U?$pair@$$CBKPAVCSpeedTreeWrapper@@@std@@@std@@@std@@QAEXAAV?$allocator@U?$_Tree_node@U?$pair@$$CBKPAVCSpeedTreeWrapper@@@std@@PAX@std@@@1@PAU?$_Tree_node@U?$pair@$$CBKPAVCSpeedTreeWrapper@@@std@@PAX@1@@Z ENDP ; std::_Tree_val<std::_Tree_simple_types<std::pair<unsigned long const ,CSpeedTreeWrapper *> > >::_Erase_tree<std::allocator<std::_Tree_node<std::pair<unsigned long const ,CSpeedTreeWrapper *>,void *> > >
_TEXT	ENDS
; Function compile flags: /Ogtp
;	COMDAT ??_GCSpeedTreeForest@@UAEPAXI@Z
_TEXT	SEGMENT
___flags$ = 8						; size = 4
??_GCSpeedTreeForest@@UAEPAXI@Z PROC			; CSpeedTreeForest::`scalar deleting destructor', COMDAT
; _this$ = ecx
  00000	55		 push	 ebp
  00001	8b ec		 mov	 ebp, esp
  00003	56		 push	 esi
  00004	8b f1		 mov	 esi, ecx
  00006	e8 00 00 00 00	 call	 ??1CSpeedTreeForest@@UAE@XZ ; CSpeedTreeForest::~CSpeedTreeForest
  0000b	f6 45 08 01	 test	 BYTE PTR ___flags$[ebp], 1
  0000f	74 0b		 je	 SHORT $LN5@scalar
  00011	6a 6c		 push	 108			; 0000006cH
  00013	56		 push	 esi
  00014	e8 00 00 00 00	 call	 ??3@YAXPAXI@Z		; operator delete
  00019	83 c4 08	 add	 esp, 8
$LN5@scalar:
  0001c	8b c6		 mov	 eax, esi
  0001e	5e		 pop	 esi
  0001f	5d		 pop	 ebp
  00020	c2 04 00	 ret	 4
??_GCSpeedTreeForest@@UAEPAXI@Z ENDP			; CSpeedTreeForest::`scalar deleting destructor'
_TEXT	ENDS
; Function compile flags: /Ogtp
; File C:\Marty 5.5\Src-Client\Client\SpeedTreeLib\SpeedTreeForest.cpp
;	COMDAT ?AdjustExtents@CSpeedTreeForest@@AAEXMMM@Z
_TEXT	SEGMENT
_x$ = 8							; size = 4
_y$ = 12						; size = 4
_z$ = 16						; size = 4
?AdjustExtents@CSpeedTreeForest@@AAEXMMM@Z PROC		; CSpeedTreeForest::AdjustExtents, COMDAT
; _this$ = ecx

; 142  : {

  00000	55		 push	 ebp
  00001	8b ec		 mov	 ebp, esp

; 143  :     // min
; 144  :     m_afForestExtents[0] = __min(m_afForestExtents[0], x);

  00003	f3 0f 10 41 4c	 movss	 xmm0, DWORD PTR [ecx+76]
  00008	f3 0f 5d 45 08	 minss	 xmm0, DWORD PTR _x$[ebp]
  0000d	f3 0f 11 41 4c	 movss	 DWORD PTR [ecx+76], xmm0

; 145  :     m_afForestExtents[1] = __min(m_afForestExtents[1], y);

  00012	f3 0f 10 41 50	 movss	 xmm0, DWORD PTR [ecx+80]
  00017	f3 0f 5d 45 0c	 minss	 xmm0, DWORD PTR _y$[ebp]
  0001c	f3 0f 11 41 50	 movss	 DWORD PTR [ecx+80], xmm0

; 146  :     m_afForestExtents[2] = __min(m_afForestExtents[2], z);

  00021	f3 0f 10 41 54	 movss	 xmm0, DWORD PTR [ecx+84]
  00026	f3 0f 5d 45 10	 minss	 xmm0, DWORD PTR _z$[ebp]
  0002b	f3 0f 11 41 54	 movss	 DWORD PTR [ecx+84], xmm0

; 147  : 
; 148  :     // max
; 149  :     m_afForestExtents[3] = __max(m_afForestExtents[3], x);

  00030	f3 0f 10 41 58	 movss	 xmm0, DWORD PTR [ecx+88]
  00035	f3 0f 5f 45 08	 maxss	 xmm0, DWORD PTR _x$[ebp]
  0003a	f3 0f 11 41 58	 movss	 DWORD PTR [ecx+88], xmm0

; 150  :     m_afForestExtents[4] = __max(m_afForestExtents[4], y);

  0003f	f3 0f 10 41 5c	 movss	 xmm0, DWORD PTR [ecx+92]
  00044	f3 0f 5f 45 0c	 maxss	 xmm0, DWORD PTR _y$[ebp]
  00049	f3 0f 11 41 5c	 movss	 DWORD PTR [ecx+92], xmm0

; 151  :     m_afForestExtents[5] = __max(m_afForestExtents[5], z);

  0004e	f3 0f 10 41 60	 movss	 xmm0, DWORD PTR [ecx+96]
  00053	f3 0f 5f 45 10	 maxss	 xmm0, DWORD PTR _z$[ebp]
  00058	f3 0f 11 41 60	 movss	 DWORD PTR [ecx+96], xmm0

; 152  : }

  0005d	5d		 pop	 ebp
  0005e	c2 0c 00	 ret	 12			; 0000000cH
?AdjustExtents@CSpeedTreeForest@@AAEXMMM@Z ENDP		; CSpeedTreeForest::AdjustExtents
_TEXT	ENDS
; Function compile flags: /Ogtp
;	COMDAT ??1?$map@KPAVCSpeedTreeWrapper@@U?$less@K@std@@V?$allocator@U?$pair@$$CBKPAVCSpeedTreeWrapper@@@std@@@3@@std@@QAE@XZ
_TEXT	SEGMENT
??1?$map@KPAVCSpeedTreeWrapper@@U?$less@K@std@@V?$allocator@U?$pair@$$CBKPAVCSpeedTreeWrapper@@@std@@@3@@std@@QAE@XZ PROC ; std::map<unsigned long,CSpeedTreeWrapper *,std::less<unsigned long>,std::allocator<std::pair<unsigned long const ,CSpeedTreeWrapper *> > >::~map<unsigned long,CSpeedTreeWrapper *,std::less<unsigned long>,std::allocator<std::pair<unsigned long const ,CSpeedTreeWrapper *> > >, COMDAT
; _this$ = ecx
  00000	e9 00 00 00 00	 jmp	 ??1?$_Tree@V?$_Tmap_traits@KPAVCSpeedTreeWrapper@@U?$less@K@std@@V?$allocator@U?$pair@$$CBKPAVCSpeedTreeWrapper@@@std@@@3@$0A@@std@@@std@@QAE@XZ ; std::_Tree<std::_Tmap_traits<unsigned long,CSpeedTreeWrapper *,std::less<unsigned long>,std::allocator<std::pair<unsigned long const ,CSpeedTreeWrapper *> >,0> >::~_Tree<std::_Tmap_traits<unsigned long,CSpeedTreeWrapper *,std::less<unsigned long>,std::allocator<std::pair<unsigned long const ,CSpeedTreeWrapper *> >,0> >
??1?$map@KPAVCSpeedTreeWrapper@@U?$less@K@std@@V?$allocator@U?$pair@$$CBKPAVCSpeedTreeWrapper@@@std@@@3@@std@@QAE@XZ ENDP ; std::map<unsigned long,CSpeedTreeWrapper *,std::less<unsigned long>,std::allocator<std::pair<unsigned long const ,CSpeedTreeWrapper *> > >::~map<unsigned long,CSpeedTreeWrapper *,std::less<unsigned long>,std::allocator<std::pair<unsigned long const ,CSpeedTreeWrapper *> > >
_TEXT	ENDS
; Function compile flags: /Ogtp
; File D:\Program Files\Microsoft Visual Studio\2022\Community\VC\Tools\MSVC\14.43.34808\include\xtree
;	COMDAT ?_Insert_node@?$_Tree_val@U?$_Tree_simple_types@U?$pair@$$CBKPAVCSpeedTreeWrapper@@@std@@@std@@@std@@QAEPAU?$_Tree_node@U?$pair@$$CBKPAVCSpeedTreeWrapper@@@std@@PAX@2@U?$_Tree_id@PAU?$_Tree_node@U?$pair@$$CBKPAVCSpeedTreeWrapper@@@std@@PAX@std@@@2@QAU32@@Z
_TEXT	SEGMENT
__Head$1$ = -4						; size = 4
__Loc$ = 8						; size = 8
__Newnode$ = 16						; size = 4
?_Insert_node@?$_Tree_val@U?$_Tree_simple_types@U?$pair@$$CBKPAVCSpeedTreeWrapper@@@std@@@std@@@std@@QAEPAU?$_Tree_node@U?$pair@$$CBKPAVCSpeedTreeWrapper@@@std@@PAX@2@U?$_Tree_id@PAU?$_Tree_node@U?$pair@$$CBKPAVCSpeedTreeWrapper@@@std@@PAX@std@@@2@QAU32@@Z PROC ; std::_Tree_val<std::_Tree_simple_types<std::pair<unsigned long const ,CSpeedTreeWrapper *> > >::_Insert_node, COMDAT
; _this$ = ecx

; 659  :     _Nodeptr _Insert_node(const _Tree_id<_Nodeptr> _Loc, const _Nodeptr _Newnode) noexcept {

  00000	55		 push	 ebp
  00001	8b ec		 mov	 ebp, esp
  00003	51		 push	 ecx

; 660  :         ++_Mysize;
; 661  :         const auto _Head  = _Myhead;
; 662  :         _Newnode->_Parent = _Loc._Parent;

  00004	8b 55 08	 mov	 edx, DWORD PTR __Loc$[ebp]
  00007	53		 push	 ebx
  00008	8b d9		 mov	 ebx, ecx
  0000a	57		 push	 edi
  0000b	8b 7d 10	 mov	 edi, DWORD PTR __Newnode$[ebp]
  0000e	8b 03		 mov	 eax, DWORD PTR [ebx]
  00010	ff 43 04	 inc	 DWORD PTR [ebx+4]
  00013	89 45 fc	 mov	 DWORD PTR __Head$1$[ebp], eax
  00016	89 57 04	 mov	 DWORD PTR [edi+4], edx

; 663  :         if (_Loc._Parent == _Head) { // first node in tree, just set head values

  00019	3b d0		 cmp	 edx, eax
  0001b	75 16		 jne	 SHORT $LN5@Insert_nod

; 664  :             _Head->_Left     = _Newnode;

  0001d	89 38		 mov	 DWORD PTR [eax], edi

; 665  :             _Head->_Parent   = _Newnode;

  0001f	89 78 04	 mov	 DWORD PTR [eax+4], edi

; 666  :             _Head->_Right    = _Newnode;

  00022	89 78 08	 mov	 DWORD PTR [eax+8], edi

; 725  :         return _Newnode;
; 726  :     }

  00025	8b c7		 mov	 eax, edi
  00027	c6 47 0c 01	 mov	 BYTE PTR [edi+12], 1
  0002b	5f		 pop	 edi
  0002c	5b		 pop	 ebx
  0002d	8b e5		 mov	 esp, ebp
  0002f	5d		 pop	 ebp
  00030	c2 0c 00	 ret	 12			; 0000000cH
$LN5@Insert_nod:

; 667  :             _Newnode->_Color = _Black; // the root is black
; 668  :             return _Newnode;
; 669  :         }
; 670  : 
; 671  :         _STL_INTERNAL_CHECK(_Loc._Child != _Tree_child::_Unused);
; 672  :         if (_Loc._Child == _Tree_child::_Right) { // add to right of _Loc._Parent

  00033	83 7d 0c 00	 cmp	 DWORD PTR __Loc$[ebp+4], 0
  00037	75 0d		 jne	 SHORT $LN6@Insert_nod

; 673  :             _STL_INTERNAL_CHECK(_Loc._Parent->_Right->_Isnil);
; 674  :             _Loc._Parent->_Right = _Newnode;

  00039	89 7a 08	 mov	 DWORD PTR [edx+8], edi

; 675  :             if (_Loc._Parent == _Head->_Right) { // remember rightmost node

  0003c	3b 50 08	 cmp	 edx, DWORD PTR [eax+8]
  0003f	75 0d		 jne	 SHORT $LN9@Insert_nod

; 676  :                 _Head->_Right = _Newnode;

  00041	89 78 08	 mov	 DWORD PTR [eax+8], edi

; 677  :             }
; 678  :         } else { // add to left of _Loc._Parent

  00044	eb 08		 jmp	 SHORT $LN9@Insert_nod
$LN6@Insert_nod:

; 679  :             _STL_INTERNAL_CHECK(_Loc._Parent->_Left->_Isnil);
; 680  :             _Loc._Parent->_Left = _Newnode;

  00046	89 3a		 mov	 DWORD PTR [edx], edi

; 681  :             if (_Loc._Parent == _Head->_Left) { // remember leftmost node

  00048	3b 10		 cmp	 edx, DWORD PTR [eax]
  0004a	75 02		 jne	 SHORT $LN9@Insert_nod

; 682  :                 _Head->_Left = _Newnode;

  0004c	89 38		 mov	 DWORD PTR [eax], edi
$LN9@Insert_nod:

; 683  :             }
; 684  :         }
; 685  : 
; 686  :         for (_Nodeptr _Pnode = _Newnode; _Pnode->_Parent->_Color == _Red;) {

  0004e	8b 4f 04	 mov	 ecx, DWORD PTR [edi+4]
  00051	8b c7		 mov	 eax, edi
  00053	80 79 0c 00	 cmp	 BYTE PTR [ecx+12], 0
  00057	0f 85 7d 01 00
	00		 jne	 $LN3@Insert_nod
  0005d	56		 push	 esi
  0005e	66 90		 npad	 2
$LL4@Insert_nod:

; 687  :             if (_Pnode->_Parent == _Pnode->_Parent->_Parent->_Left) { // fixup red-red in left subtree

  00060	8b 50 04	 mov	 edx, DWORD PTR [eax+4]
  00063	8b 72 04	 mov	 esi, DWORD PTR [edx+4]
  00066	8b 0e		 mov	 ecx, DWORD PTR [esi]
  00068	3b d1		 cmp	 edx, ecx
  0006a	0f 85 aa 00 00
	00		 jne	 $LN10@Insert_nod

; 688  :                 const auto _Parent_sibling = _Pnode->_Parent->_Parent->_Right;

  00070	8b 4e 08	 mov	 ecx, DWORD PTR [esi+8]

; 689  :                 if (_Parent_sibling->_Color == _Red) { // parent's sibling has two red children, blacken both

  00073	80 79 0c 00	 cmp	 BYTE PTR [ecx+12], 0
  00077	0f 84 a3 00 00
	00		 je	 $LN82@Insert_nod

; 690  :                     _Pnode->_Parent->_Color          = _Black;
; 691  :                     _Parent_sibling->_Color          = _Black;
; 692  :                     _Pnode->_Parent->_Parent->_Color = _Red;
; 693  :                     _Pnode                           = _Pnode->_Parent->_Parent;
; 694  :                 } else { // parent's sibling has red and black children
; 695  :                     if (_Pnode == _Pnode->_Parent->_Right) { // rotate right child to left

  0007d	8b 72 08	 mov	 esi, DWORD PTR [edx+8]
  00080	3b c6		 cmp	 eax, esi
  00082	75 37		 jne	 SHORT $LN57@Insert_nod

; 475  :         _Wherenode->_Right = _Pnode->_Left;

  00084	8b 0e		 mov	 ecx, DWORD PTR [esi]

; 696  :                         _Pnode = _Pnode->_Parent;

  00086	8b c2		 mov	 eax, edx

; 475  :         _Wherenode->_Right = _Pnode->_Left;

  00088	89 4a 08	 mov	 DWORD PTR [edx+8], ecx

; 476  : 
; 477  :         if (!_Pnode->_Left->_Isnil) {

  0008b	8b 0e		 mov	 ecx, DWORD PTR [esi]
  0008d	80 79 0d 00	 cmp	 BYTE PTR [ecx+13], 0
  00091	75 03		 jne	 SHORT $LN21@Insert_nod

; 478  :             _Pnode->_Left->_Parent = _Wherenode;

  00093	89 41 04	 mov	 DWORD PTR [ecx+4], eax
$LN21@Insert_nod:

; 479  :         }
; 480  : 
; 481  :         _Pnode->_Parent = _Wherenode->_Parent;

  00096	8b 4a 04	 mov	 ecx, DWORD PTR [edx+4]
  00099	89 4e 04	 mov	 DWORD PTR [esi+4], ecx

; 482  : 
; 483  :         if (_Wherenode == _Myhead->_Parent) {

  0009c	8b 0b		 mov	 ecx, DWORD PTR [ebx]
  0009e	3b 41 04	 cmp	 eax, DWORD PTR [ecx+4]
  000a1	75 05		 jne	 SHORT $LN22@Insert_nod

; 484  :             _Myhead->_Parent = _Pnode;

  000a3	89 71 04	 mov	 DWORD PTR [ecx+4], esi
  000a6	eb 0e		 jmp	 SHORT $LN25@Insert_nod
$LN22@Insert_nod:

; 485  :         } else if (_Wherenode == _Wherenode->_Parent->_Left) {

  000a8	8b 4a 04	 mov	 ecx, DWORD PTR [edx+4]
  000ab	3b 01		 cmp	 eax, DWORD PTR [ecx]
  000ad	75 04		 jne	 SHORT $LN24@Insert_nod

; 486  :             _Wherenode->_Parent->_Left = _Pnode;

  000af	89 31		 mov	 DWORD PTR [ecx], esi

; 487  :         } else {

  000b1	eb 03		 jmp	 SHORT $LN25@Insert_nod
$LN24@Insert_nod:

; 488  :             _Wherenode->_Parent->_Right = _Pnode;

  000b3	89 71 08	 mov	 DWORD PTR [ecx+8], esi
$LN25@Insert_nod:

; 489  :         }
; 490  : 
; 491  :         _Pnode->_Left       = _Wherenode;

  000b6	89 06		 mov	 DWORD PTR [esi], eax

; 492  :         _Wherenode->_Parent = _Pnode;

  000b8	89 70 04	 mov	 DWORD PTR [eax+4], esi
$LN57@Insert_nod:

; 697  :                         _Lrotate(_Pnode);
; 698  :                     }
; 699  : 
; 700  :                     _Pnode->_Parent->_Color          = _Black; // propagate red up

  000bb	8b 48 04	 mov	 ecx, DWORD PTR [eax+4]
  000be	c6 41 0c 01	 mov	 BYTE PTR [ecx+12], 1

; 701  :                     _Pnode->_Parent->_Parent->_Color = _Red;

  000c2	8b 48 04	 mov	 ecx, DWORD PTR [eax+4]
  000c5	8b 49 04	 mov	 ecx, DWORD PTR [ecx+4]
  000c8	c6 41 0c 00	 mov	 BYTE PTR [ecx+12], 0

; 702  :                     _Rrotate(_Pnode->_Parent->_Parent);

  000cc	8b 48 04	 mov	 ecx, DWORD PTR [eax+4]
  000cf	8b 51 04	 mov	 edx, DWORD PTR [ecx+4]

; 496  :         _Nodeptr _Pnode   = _Wherenode->_Left;

  000d2	8b 32		 mov	 esi, DWORD PTR [edx]

; 497  :         _Wherenode->_Left = _Pnode->_Right;

  000d4	8b 4e 08	 mov	 ecx, DWORD PTR [esi+8]
  000d7	89 0a		 mov	 DWORD PTR [edx], ecx

; 498  : 
; 499  :         if (!_Pnode->_Right->_Isnil) {

  000d9	8b 4e 08	 mov	 ecx, DWORD PTR [esi+8]
  000dc	80 79 0d 00	 cmp	 BYTE PTR [ecx+13], 0
  000e0	75 03		 jne	 SHORT $LN29@Insert_nod

; 500  :             _Pnode->_Right->_Parent = _Wherenode;

  000e2	89 51 04	 mov	 DWORD PTR [ecx+4], edx
$LN29@Insert_nod:

; 501  :         }
; 502  : 
; 503  :         _Pnode->_Parent = _Wherenode->_Parent;

  000e5	8b 4a 04	 mov	 ecx, DWORD PTR [edx+4]
  000e8	89 4e 04	 mov	 DWORD PTR [esi+4], ecx

; 504  : 
; 505  :         if (_Wherenode == _Myhead->_Parent) {

  000eb	8b 0b		 mov	 ecx, DWORD PTR [ebx]
  000ed	3b 51 04	 cmp	 edx, DWORD PTR [ecx+4]
  000f0	75 0b		 jne	 SHORT $LN30@Insert_nod

; 506  :             _Myhead->_Parent = _Pnode;

  000f2	89 71 04	 mov	 DWORD PTR [ecx+4], esi

; 511  :         }
; 512  : 
; 513  :         _Pnode->_Right      = _Wherenode;

  000f5	89 56 08	 mov	 DWORD PTR [esi+8], edx

; 703  :                 }
; 704  :             } else { // fixup red-red in right subtree

  000f8	e9 cc 00 00 00	 jmp	 $LN81@Insert_nod
$LN30@Insert_nod:

; 507  :         } else if (_Wherenode == _Wherenode->_Parent->_Right) {

  000fd	8b 4a 04	 mov	 ecx, DWORD PTR [edx+4]
  00100	3b 51 08	 cmp	 edx, DWORD PTR [ecx+8]
  00103	75 0b		 jne	 SHORT $LN32@Insert_nod

; 508  :             _Wherenode->_Parent->_Right = _Pnode;

  00105	89 71 08	 mov	 DWORD PTR [ecx+8], esi

; 511  :         }
; 512  : 
; 513  :         _Pnode->_Right      = _Wherenode;

  00108	89 56 08	 mov	 DWORD PTR [esi+8], edx

; 703  :                 }
; 704  :             } else { // fixup red-red in right subtree

  0010b	e9 b9 00 00 00	 jmp	 $LN81@Insert_nod
$LN32@Insert_nod:

; 510  :             _Wherenode->_Parent->_Left = _Pnode;

  00110	89 31		 mov	 DWORD PTR [ecx], esi

; 511  :         }
; 512  : 
; 513  :         _Pnode->_Right      = _Wherenode;

  00112	89 56 08	 mov	 DWORD PTR [esi+8], edx

; 703  :                 }
; 704  :             } else { // fixup red-red in right subtree

  00115	e9 af 00 00 00	 jmp	 $LN81@Insert_nod
$LN10@Insert_nod:

; 705  :                 const auto _Parent_sibling = _Pnode->_Parent->_Parent->_Left;
; 706  :                 if (_Parent_sibling->_Color == _Red) { // parent's sibling has two red children, blacken both

  0011a	80 79 0c 00	 cmp	 BYTE PTR [ecx+12], 0
  0011e	75 1d		 jne	 SHORT $LN15@Insert_nod
$LN82@Insert_nod:

; 683  :             }
; 684  :         }
; 685  : 
; 686  :         for (_Nodeptr _Pnode = _Newnode; _Pnode->_Parent->_Color == _Red;) {

  00120	c6 42 0c 01	 mov	 BYTE PTR [edx+12], 1
  00124	c6 41 0c 01	 mov	 BYTE PTR [ecx+12], 1
  00128	8b 48 04	 mov	 ecx, DWORD PTR [eax+4]
  0012b	8b 49 04	 mov	 ecx, DWORD PTR [ecx+4]
  0012e	c6 41 0c 00	 mov	 BYTE PTR [ecx+12], 0
  00132	8b 48 04	 mov	 ecx, DWORD PTR [eax+4]
  00135	8b 41 04	 mov	 eax, DWORD PTR [ecx+4]
  00138	e9 8f 00 00 00	 jmp	 $LN2@Insert_nod
$LN15@Insert_nod:

; 707  :                     _Pnode->_Parent->_Color          = _Black;
; 708  :                     _Parent_sibling->_Color          = _Black;
; 709  :                     _Pnode->_Parent->_Parent->_Color = _Red;
; 710  :                     _Pnode                           = _Pnode->_Parent->_Parent;
; 711  :                 } else { // parent's sibling has red and black children
; 712  :                     if (_Pnode == _Pnode->_Parent->_Left) { // rotate left child to right

  0013d	8b 32		 mov	 esi, DWORD PTR [edx]
  0013f	3b c6		 cmp	 eax, esi
  00141	75 3a		 jne	 SHORT $LN42@Insert_nod

; 497  :         _Wherenode->_Left = _Pnode->_Right;

  00143	8b 4e 08	 mov	 ecx, DWORD PTR [esi+8]

; 713  :                         _Pnode = _Pnode->_Parent;

  00146	8b c2		 mov	 eax, edx

; 497  :         _Wherenode->_Left = _Pnode->_Right;

  00148	89 08		 mov	 DWORD PTR [eax], ecx

; 498  : 
; 499  :         if (!_Pnode->_Right->_Isnil) {

  0014a	8b 4e 08	 mov	 ecx, DWORD PTR [esi+8]
  0014d	80 79 0d 00	 cmp	 BYTE PTR [ecx+13], 0
  00151	75 03		 jne	 SHORT $LN37@Insert_nod

; 500  :             _Pnode->_Right->_Parent = _Wherenode;

  00153	89 41 04	 mov	 DWORD PTR [ecx+4], eax
$LN37@Insert_nod:

; 501  :         }
; 502  : 
; 503  :         _Pnode->_Parent = _Wherenode->_Parent;

  00156	8b 4a 04	 mov	 ecx, DWORD PTR [edx+4]
  00159	89 4e 04	 mov	 DWORD PTR [esi+4], ecx

; 504  : 
; 505  :         if (_Wherenode == _Myhead->_Parent) {

  0015c	8b 0b		 mov	 ecx, DWORD PTR [ebx]
  0015e	3b 41 04	 cmp	 eax, DWORD PTR [ecx+4]
  00161	75 05		 jne	 SHORT $LN38@Insert_nod

; 506  :             _Myhead->_Parent = _Pnode;

  00163	89 71 04	 mov	 DWORD PTR [ecx+4], esi
  00166	eb 0f		 jmp	 SHORT $LN41@Insert_nod
$LN38@Insert_nod:

; 507  :         } else if (_Wherenode == _Wherenode->_Parent->_Right) {

  00168	8b 4a 04	 mov	 ecx, DWORD PTR [edx+4]
  0016b	3b 41 08	 cmp	 eax, DWORD PTR [ecx+8]
  0016e	75 05		 jne	 SHORT $LN40@Insert_nod

; 508  :             _Wherenode->_Parent->_Right = _Pnode;

  00170	89 71 08	 mov	 DWORD PTR [ecx+8], esi

; 509  :         } else {

  00173	eb 02		 jmp	 SHORT $LN41@Insert_nod
$LN40@Insert_nod:

; 510  :             _Wherenode->_Parent->_Left = _Pnode;

  00175	89 31		 mov	 DWORD PTR [ecx], esi
$LN41@Insert_nod:

; 511  :         }
; 512  : 
; 513  :         _Pnode->_Right      = _Wherenode;

  00177	89 46 08	 mov	 DWORD PTR [esi+8], eax

; 514  :         _Wherenode->_Parent = _Pnode;

  0017a	89 70 04	 mov	 DWORD PTR [eax+4], esi
$LN42@Insert_nod:

; 714  :                         _Rrotate(_Pnode);
; 715  :                     }
; 716  : 
; 717  :                     _Pnode->_Parent->_Color          = _Black; // propagate red up

  0017d	8b 48 04	 mov	 ecx, DWORD PTR [eax+4]
  00180	c6 41 0c 01	 mov	 BYTE PTR [ecx+12], 1

; 718  :                     _Pnode->_Parent->_Parent->_Color = _Red;

  00184	8b 48 04	 mov	 ecx, DWORD PTR [eax+4]
  00187	8b 49 04	 mov	 ecx, DWORD PTR [ecx+4]
  0018a	c6 41 0c 00	 mov	 BYTE PTR [ecx+12], 0

; 719  :                     _Lrotate(_Pnode->_Parent->_Parent);

  0018e	8b 48 04	 mov	 ecx, DWORD PTR [eax+4]
  00191	8b 51 04	 mov	 edx, DWORD PTR [ecx+4]

; 474  :         _Nodeptr _Pnode    = _Wherenode->_Right;

  00194	8b 72 08	 mov	 esi, DWORD PTR [edx+8]

; 475  :         _Wherenode->_Right = _Pnode->_Left;

  00197	8b 0e		 mov	 ecx, DWORD PTR [esi]
  00199	89 4a 08	 mov	 DWORD PTR [edx+8], ecx

; 476  : 
; 477  :         if (!_Pnode->_Left->_Isnil) {

  0019c	8b 0e		 mov	 ecx, DWORD PTR [esi]
  0019e	80 79 0d 00	 cmp	 BYTE PTR [ecx+13], 0
  001a2	75 03		 jne	 SHORT $LN45@Insert_nod

; 478  :             _Pnode->_Left->_Parent = _Wherenode;

  001a4	89 51 04	 mov	 DWORD PTR [ecx+4], edx
$LN45@Insert_nod:

; 479  :         }
; 480  : 
; 481  :         _Pnode->_Parent = _Wherenode->_Parent;

  001a7	8b 4a 04	 mov	 ecx, DWORD PTR [edx+4]
  001aa	89 4e 04	 mov	 DWORD PTR [esi+4], ecx

; 482  : 
; 483  :         if (_Wherenode == _Myhead->_Parent) {

  001ad	8b 0b		 mov	 ecx, DWORD PTR [ebx]
  001af	3b 51 04	 cmp	 edx, DWORD PTR [ecx+4]
  001b2	75 05		 jne	 SHORT $LN46@Insert_nod

; 484  :             _Myhead->_Parent = _Pnode;

  001b4	89 71 04	 mov	 DWORD PTR [ecx+4], esi
  001b7	eb 0e		 jmp	 SHORT $LN49@Insert_nod
$LN46@Insert_nod:

; 485  :         } else if (_Wherenode == _Wherenode->_Parent->_Left) {

  001b9	8b 4a 04	 mov	 ecx, DWORD PTR [edx+4]
  001bc	3b 11		 cmp	 edx, DWORD PTR [ecx]
  001be	75 04		 jne	 SHORT $LN48@Insert_nod

; 486  :             _Wherenode->_Parent->_Left = _Pnode;

  001c0	89 31		 mov	 DWORD PTR [ecx], esi

; 487  :         } else {

  001c2	eb 03		 jmp	 SHORT $LN49@Insert_nod
$LN48@Insert_nod:

; 488  :             _Wherenode->_Parent->_Right = _Pnode;

  001c4	89 71 08	 mov	 DWORD PTR [ecx+8], esi
$LN49@Insert_nod:

; 489  :         }
; 490  : 
; 491  :         _Pnode->_Left       = _Wherenode;

  001c7	89 16		 mov	 DWORD PTR [esi], edx
$LN81@Insert_nod:

; 683  :             }
; 684  :         }
; 685  : 
; 686  :         for (_Nodeptr _Pnode = _Newnode; _Pnode->_Parent->_Color == _Red;) {

  001c9	89 72 04	 mov	 DWORD PTR [edx+4], esi
$LN2@Insert_nod:
  001cc	8b 48 04	 mov	 ecx, DWORD PTR [eax+4]
  001cf	80 79 0c 00	 cmp	 BYTE PTR [ecx+12], 0
  001d3	0f 84 87 fe ff
	ff		 je	 $LL4@Insert_nod
  001d9	5e		 pop	 esi
$LN3@Insert_nod:

; 720  :                 }
; 721  :             }
; 722  :         }
; 723  : 
; 724  :         _Head->_Parent->_Color = _Black; // root is always black

  001da	8b 45 fc	 mov	 eax, DWORD PTR __Head$1$[ebp]
  001dd	8b 40 04	 mov	 eax, DWORD PTR [eax+4]
  001e0	c6 40 0c 01	 mov	 BYTE PTR [eax+12], 1

; 725  :         return _Newnode;
; 726  :     }

  001e4	8b c7		 mov	 eax, edi
  001e6	5f		 pop	 edi
  001e7	5b		 pop	 ebx
  001e8	8b e5		 mov	 esp, ebp
  001ea	5d		 pop	 ebp
  001eb	c2 0c 00	 ret	 12			; 0000000cH
?_Insert_node@?$_Tree_val@U?$_Tree_simple_types@U?$pair@$$CBKPAVCSpeedTreeWrapper@@@std@@@std@@@std@@QAEPAU?$_Tree_node@U?$pair@$$CBKPAVCSpeedTreeWrapper@@@std@@PAX@2@U?$_Tree_id@PAU?$_Tree_node@U?$pair@$$CBKPAVCSpeedTreeWrapper@@@std@@PAX@std@@@2@QAU32@@Z ENDP ; std::_Tree_val<std::_Tree_simple_types<std::pair<unsigned long const ,CSpeedTreeWrapper *> > >::_Insert_node
_TEXT	ENDS
; Function compile flags: /Ogtp
; File D:\Program Files\Microsoft Visual Studio\2022\Community\VC\Tools\MSVC\14.43.34808\include\xtree
; File D:\Program Files\Microsoft Visual Studio\2022\Community\VC\Tools\MSVC\14.43.34808\include\utility
; File D:\Program Files\Microsoft Visual Studio\2022\Community\VC\Tools\MSVC\14.43.34808\include\xmemory
; File D:\Program Files\Microsoft Visual Studio\2022\Community\VC\Tools\MSVC\14.43.34808\include\xtree
; File D:\Program Files\Microsoft Visual Studio\2022\Community\VC\Tools\MSVC\14.43.34808\include\xmemory
; File D:\Program Files\Microsoft Visual Studio\2022\Community\VC\Tools\MSVC\14.43.34808\include\xtree
;	COMDAT ??1?$_Tree@V?$_Tmap_traits@KPAVCSpeedTreeWrapper@@U?$less@K@std@@V?$allocator@U?$pair@$$CBKPAVCSpeedTreeWrapper@@@std@@@3@$0A@@std@@@std@@QAE@XZ
_TEXT	SEGMENT
??1?$_Tree@V?$_Tmap_traits@KPAVCSpeedTreeWrapper@@U?$less@K@std@@V?$allocator@U?$pair@$$CBKPAVCSpeedTreeWrapper@@@std@@@3@$0A@@std@@@std@@QAE@XZ PROC ; std::_Tree<std::_Tmap_traits<unsigned long,CSpeedTreeWrapper *,std::less<unsigned long>,std::allocator<std::pair<unsigned long const ,CSpeedTreeWrapper *> >,0> >::~_Tree<std::_Tmap_traits<unsigned long,CSpeedTreeWrapper *,std::less<unsigned long>,std::allocator<std::pair<unsigned long const ,CSpeedTreeWrapper *> >,0> >, COMDAT
; _this$ = ecx

; 1085 :     ~_Tree() noexcept {

  00000	56		 push	 esi
  00001	57		 push	 edi
  00002	8b f9		 mov	 edi, ecx

; 767  :         _Erase_tree(_Al, _Myhead->_Parent);

  00004	8b 37		 mov	 esi, DWORD PTR [edi]
  00006	8b 76 04	 mov	 esi, DWORD PTR [esi+4]

; 758  :         while (!_Rootnode->_Isnil) { // free subtrees, then node

  00009	80 7e 0d 00	 cmp	 BYTE PTR [esi+13], 0
  0000d	75 21		 jne	 SHORT $LN72@Tree
  0000f	90		 npad	 1
$LL8@Tree:

; 759  :             _Erase_tree(_Al, _Rootnode->_Right);

  00010	ff 76 08	 push	 DWORD PTR [esi+8]
  00013	8b cf		 mov	 ecx, edi
  00015	57		 push	 edi
  00016	e8 00 00 00 00	 call	 ??$_Erase_tree@V?$allocator@U?$_Tree_node@U?$pair@$$CBKPAVCSpeedTreeWrapper@@@std@@PAX@std@@@std@@@?$_Tree_val@U?$_Tree_simple_types@U?$pair@$$CBKPAVCSpeedTreeWrapper@@@std@@@std@@@std@@QAEXAAV?$allocator@U?$_Tree_node@U?$pair@$$CBKPAVCSpeedTreeWrapper@@@std@@PAX@std@@@1@PAU?$_Tree_node@U?$pair@$$CBKPAVCSpeedTreeWrapper@@@std@@PAX@1@@Z ; std::_Tree_val<std::_Tree_simple_types<std::pair<unsigned long const ,CSpeedTreeWrapper *> > >::_Erase_tree<std::allocator<std::_Tree_node<std::pair<unsigned long const ,CSpeedTreeWrapper *>,void *> > >
; File D:\Program Files\Microsoft Visual Studio\2022\Community\VC\Tools\MSVC\14.43.34808\include\utility

; 773  :     _Ty _Old_val = static_cast<_Ty&&>(_Val);

  0001b	8b c6		 mov	 eax, esi

; 774  :     _Val         = static_cast<_Other&&>(_New_val);

  0001d	8b 36		 mov	 esi, DWORD PTR [esi]
; File D:\Program Files\Microsoft Visual Studio\2022\Community\VC\Tools\MSVC\14.43.34808\include\xmemory

; 289  :         ::operator delete(_Ptr, _Bytes);

  0001f	6a 18		 push	 24			; 00000018H
  00021	50		 push	 eax
  00022	e8 00 00 00 00	 call	 ??3@YAXPAXI@Z		; operator delete
  00027	83 c4 08	 add	 esp, 8
; File D:\Program Files\Microsoft Visual Studio\2022\Community\VC\Tools\MSVC\14.43.34808\include\xtree

; 758  :         while (!_Rootnode->_Isnil) { // free subtrees, then node

  0002a	80 7e 0d 00	 cmp	 BYTE PTR [esi+13], 0
  0002e	74 e0		 je	 SHORT $LL8@Tree
$LN72@Tree:
; File D:\Program Files\Microsoft Visual Studio\2022\Community\VC\Tools\MSVC\14.43.34808\include\xmemory

; 289  :         ::operator delete(_Ptr, _Bytes);

  00030	6a 18		 push	 24			; 00000018H
  00032	ff 37		 push	 DWORD PTR [edi]
  00034	e8 00 00 00 00	 call	 ??3@YAXPAXI@Z		; operator delete
  00039	83 c4 08	 add	 esp, 8
  0003c	5f		 pop	 edi
  0003d	5e		 pop	 esi
; File D:\Program Files\Microsoft Visual Studio\2022\Community\VC\Tools\MSVC\14.43.34808\include\xtree

; 1092 :     }

  0003e	c3		 ret	 0
??1?$_Tree@V?$_Tmap_traits@KPAVCSpeedTreeWrapper@@U?$less@K@std@@V?$allocator@U?$pair@$$CBKPAVCSpeedTreeWrapper@@@std@@@3@$0A@@std@@@std@@QAE@XZ ENDP ; std::_Tree<std::_Tmap_traits<unsigned long,CSpeedTreeWrapper *,std::less<unsigned long>,std::allocator<std::pair<unsigned long const ,CSpeedTreeWrapper *> >,0> >::~_Tree<std::_Tmap_traits<unsigned long,CSpeedTreeWrapper *,std::less<unsigned long>,std::allocator<std::pair<unsigned long const ,CSpeedTreeWrapper *> >,0> >
_TEXT	ENDS
; Function compile flags: /Ogtp
; File C:\Marty 5.5\Src-Client\Client\SpeedTreeLib\SpeedTreeForest.cpp
;	COMDAT ?SetupWindMatrices@CSpeedTreeForest@@QAEXM@Z
_TEXT	SEGMENT
tv416 = -16						; size = 16
_fTimeInSecs$ = 8					; size = 4
?SetupWindMatrices@CSpeedTreeForest@@QAEXM@Z PROC	; CSpeedTreeForest::SetupWindMatrices, COMDAT
; _this$ = ecx

; 179  : {

  00000	53		 push	 ebx
  00001	8b dc		 mov	 ebx, esp
  00003	83 ec 08	 sub	 esp, 8
  00006	83 e4 f0	 and	 esp, -16		; fffffff0H
  00009	83 c4 04	 add	 esp, 4
  0000c	55		 push	 ebp
  0000d	8b 6b 04	 mov	 ebp, DWORD PTR [ebx+4]
  00010	89 6c 24 04	 mov	 DWORD PTR [esp+4], ebp
  00014	8b ec		 mov	 ebp, esp
  00016	83 ec 1c	 sub	 esp, 28			; 0000001cH

; 180  : 	// matrix computational data
; 181  : 	static float afMatrixTimes[c_nNumWindMatrices] = { 0.0f };
; 182  : 	static float afFrequencies[c_nNumWindMatrices][2] =
; 183  : 	{
; 184  : 		{ 0.15f, 0.17f },
; 185  : 		{ 0.25f, 0.15f },
; 186  : 		{ 0.19f, 0.05f },
; 187  : 		{ 0.15f, 0.22f }
; 188  : 	};
; 189  : 
; 190  : 	// compute time since last call
; 191  : 	static float fTimeOfLastCall = 0.0f;
; 192  : 	float fTimeSinceLastCall = fTimeInSecs - fTimeOfLastCall;

  00019	f3 0f 10 43 08	 movss	 xmm0, DWORD PTR _fTimeInSecs$[ebx]

; 193  : 	fTimeOfLastCall = fTimeInSecs;
; 194  : 
; 195  : 	// wind strength
; 196  : 	static float fOldStrength = m_fWindStrength;

  0001e	64 a1 00 00 00
	00		 mov	 eax, DWORD PTR fs:__tls_array
  00024	0f 28 c8	 movaps	 xmm1, xmm0
  00027	f3 0f 5c 0d 00
	00 00 00	 subss	 xmm1, DWORD PTR ?fTimeOfLastCall@?1??SetupWindMatrices@CSpeedTreeForest@@QAEXM@Z@4MA
  0002f	56		 push	 esi
  00030	8b f1		 mov	 esi, ecx
  00032	f3 0f 11 05 00
	00 00 00	 movss	 DWORD PTR ?fTimeOfLastCall@?1??SetupWindMatrices@CSpeedTreeForest@@QAEXM@Z@4MA, xmm0
  0003a	8b 0d 00 00 00
	00		 mov	 ecx, DWORD PTR __tls_index

; 197  : 
; 198  : 	// increment matrix times
; 199  : 	for (int i = 0; i < c_nNumWindMatrices; ++i)

  00040	0f c6 c9 00	 shufps	 xmm1, xmm1, 0
  00044	0f 29 4d f0	 movaps	 XMMWORD PTR tv416[ebp], xmm1
  00048	8b 0c 88	 mov	 ecx, DWORD PTR [eax+ecx*4]
  0004b	a1 00 00 00 00	 mov	 eax, DWORD PTR ?$TSS0@?1??SetupWindMatrices@CSpeedTreeForest@@QAEXM@Z@4HA
  00050	3b 81 00 00 00
	00		 cmp	 eax, DWORD PTR __Init_thread_epoch[ecx]
  00056	7f 6d		 jg	 SHORT $LN36@SetupWindM
  00058	eb 0a		 jmp	 SHORT $LN5@SetupWindM
  0005a	66 0f 1f 44 00
	00		 npad	 6
$LL34@SetupWindM:

; 200  : 		afMatrixTimes[i] += fTimeSinceLastCall;

  00060	0f 28 4d f0	 movaps	 xmm1, XMMWORD PTR tv416[ebp]
$LN5@SetupWindM:
  00064	0f 10 05 00 00
	00 00		 movups	 xmm0, XMMWORD PTR ?afMatrixTimes@?1??SetupWindMatrices@CSpeedTreeForest@@QAEXM@Z@4PAMA

; 201  : 
; 202  : 	// compute maximum branch throw
; 203  : 	float fBaseAngle = m_fWindStrength * 35.0f;

  0006b	b9 00 00 00 00	 mov	 ecx, OFFSET ?afMatrixTimes@?1??SetupWindMatrices@CSpeedTreeForest@@QAEXM@Z@4PAMA
  00070	f3 0f 10 15 00
	00 00 00	 movss	 xmm2, DWORD PTR ?fOldStrength@?1??SetupWindMatrices@CSpeedTreeForest@@QAEXM@Z@4MA
  00078	0f 57 db	 xorps	 xmm3, xmm3
  0007b	0f 58 c8	 addps	 xmm1, xmm0
  0007e	0f 11 0d 00 00
	00 00		 movups	 XMMWORD PTR ?afMatrixTimes@?1??SetupWindMatrices@CSpeedTreeForest@@QAEXM@Z@4PAMA, xmm1
  00085	f3 0f 10 4e 64	 movss	 xmm1, DWORD PTR [esi+100]
  0008a	66 0f 1f 44 00
	00		 npad	 6
$LL8@SetupWindM:

; 207  : 	{
; 208  : 		// adjust time to prevent "jumping"
; 209  : 		if (m_fWindStrength != 0.0f)

  00090	0f 2e cb	 ucomiss xmm1, xmm3
  00093	9f		 lahf
  00094	f6 c4 44	 test	 ah, 68			; 00000044H
  00097	7b 0f		 jnp	 SHORT $LN31@SetupWindM

; 210  : 			afMatrixTimes[j] = (afMatrixTimes[j] * fOldStrength) / m_fWindStrength;

  00099	0f 28 c2	 movaps	 xmm0, xmm2
  0009c	f3 0f 59 01	 mulss	 xmm0, DWORD PTR [ecx]
  000a0	f3 0f 5e c1	 divss	 xmm0, xmm1
  000a4	f3 0f 11 01	 movss	 DWORD PTR [ecx], xmm0
$LN31@SetupWindM:

; 204  : 
; 205  : 	// build rotation matrices
; 206  : 	for (int j = 0; j < c_nNumWindMatrices; ++j)

  000a8	83 c1 04	 add	 ecx, 4
  000ab	81 f9 10 00 00
	00		 cmp	 ecx, OFFSET ?afMatrixTimes@?1??SetupWindMatrices@CSpeedTreeForest@@QAEXM@Z@4PAMA+16
  000b1	7c dd		 jl	 SHORT $LL8@SetupWindM

; 211  : 
; 212  : 		// compute percentages for each axis
; 213  : 		float fBaseFreq = m_fWindStrength * 20.0f;
; 214  : 		float fXPercent = sinf(fBaseFreq * afFrequencies[j % c_nNumWindMatrices][0] * afMatrixTimes[j]);
; 215  : 		float fYPercent = cosf(fBaseFreq * afFrequencies[j % c_nNumWindMatrices][1] * afMatrixTimes[j]);
; 216  : 
; 217  : 		// build compound rotation matrix (rotate on 'x' then on 'y')
; 218  : 		const float c_fDeg2Rad = 57.2957795f;
; 219  :         float fSinX = sinf(fBaseAngle * fXPercent / c_fDeg2Rad);
; 220  :         float fSinY = sinf(fBaseAngle * fYPercent / c_fDeg2Rad);
; 221  :         float fCosX = cosf(fBaseAngle * fXPercent / c_fDeg2Rad);
; 222  :         float fCosY = cosf(fBaseAngle * fYPercent / c_fDeg2Rad);
; 223  : 
; 224  :         float afMatrix[16] = { 0.0f };
; 225  :         afMatrix[0] = fCosY;
; 226  :         afMatrix[2] = -fSinY;
; 227  :         afMatrix[4] = fSinX * fSinY;
; 228  :         afMatrix[5] = fCosX;
; 229  :         afMatrix[6] = fSinX * fCosY;
; 230  :         afMatrix[8] = fSinY * fCosX;
; 231  :         afMatrix[9] = -fSinX;
; 232  :         afMatrix[10] = fCosX * fCosY;
; 233  :         afMatrix[15] = 1.0f;
; 234  : 
; 235  : 		#ifdef WRAPPER_USE_CPU_WIND
; 236  : 			CSpeedTreeRT::SetWindMatrix(j, afMatrix);
; 237  : 		#endif
; 238  : 
; 239  : 		#ifdef WRAPPER_USE_GPU_WIND
; 240  : 			// graphics API specific
; 241  : 			UploadWindMatrix(c_nVertexShader_WindMatrices + j * 4, afMatrix);
; 242  : 		#endif
; 243  : 	}
; 244  : 
; 245  : 	// track wind strength
; 246  : 	fOldStrength = m_fWindStrength;

  000b3	f3 0f 11 0d 00
	00 00 00	 movss	 DWORD PTR ?fOldStrength@?1??SetupWindMatrices@CSpeedTreeForest@@QAEXM@Z@4MA, xmm1

; 247  : }

  000bb	5e		 pop	 esi
  000bc	8b e5		 mov	 esp, ebp
  000be	5d		 pop	 ebp
  000bf	8b e3		 mov	 esp, ebx
  000c1	5b		 pop	 ebx
  000c2	c2 04 00	 ret	 4
$LN36@SetupWindM:

; 193  : 	fTimeOfLastCall = fTimeInSecs;
; 194  : 
; 195  : 	// wind strength
; 196  : 	static float fOldStrength = m_fWindStrength;

  000c5	68 00 00 00 00	 push	 OFFSET ?$TSS0@?1??SetupWindMatrices@CSpeedTreeForest@@QAEXM@Z@4HA
  000ca	e8 00 00 00 00	 call	 __Init_thread_header
  000cf	83 c4 04	 add	 esp, 4
  000d2	83 3d 00 00 00
	00 ff		 cmp	 DWORD PTR ?$TSS0@?1??SetupWindMatrices@CSpeedTreeForest@@QAEXM@Z@4HA, -1
  000d9	75 85		 jne	 SHORT $LL34@SetupWindM
  000db	f3 0f 10 46 64	 movss	 xmm0, DWORD PTR [esi+100]
  000e0	68 00 00 00 00	 push	 OFFSET ?$TSS0@?1??SetupWindMatrices@CSpeedTreeForest@@QAEXM@Z@4HA
  000e5	f3 0f 11 05 00
	00 00 00	 movss	 DWORD PTR ?fOldStrength@?1??SetupWindMatrices@CSpeedTreeForest@@QAEXM@Z@4MA, xmm0
  000ed	e8 00 00 00 00	 call	 __Init_thread_footer
  000f2	83 c4 04	 add	 esp, 4
  000f5	e9 66 ff ff ff	 jmp	 $LL34@SetupWindM
?SetupWindMatrices@CSpeedTreeForest@@QAEXM@Z ENDP	; CSpeedTreeForest::SetupWindMatrices
_TEXT	ENDS
; Function compile flags: /Ogtp
; File C:\Marty 5.5\Src-Client\Client\SpeedTreeLib\SpeedTreeForest.cpp
; File D:\Program Files\Microsoft Visual Studio\2022\Community\VC\Tools\MSVC\14.43.34808\include\xtree
; File C:\Marty 5.5\Src-Client\Client\SpeedTreeLib\SpeedTreeForest.cpp
; File D:\Program Files\Microsoft Visual Studio\2022\Community\VC\Tools\MSVC\14.43.34808\include\xtree
; File C:\Marty 5.5\Src-Client\Client\SpeedTreeLib\SpeedTreeForest.cpp
; File D:\Program Files\Microsoft Visual Studio\2022\Community\VC\Tools\MSVC\14.43.34808\include\xtree
; File C:\Marty 5.5\Src-Client\Client\SpeedTreeLib\SpeedTreeForest.cpp
; File D:\Program Files\Microsoft Visual Studio\2022\Community\VC\Tools\MSVC\14.43.34808\include\xtree
; File C:\Marty 5.5\Src-Client\Client\SpeedTreeLib\SpeedTreeForest.cpp
;	COMDAT ?SetWindStrength@CSpeedTreeForest@@QAEXM@Z
_TEXT	SEGMENT
_this$1$ = -8						; size = 4
_uiCount$ = -4						; size = 4
_fStrength$ = 8						; size = 4
_itor$1$ = 8						; size = 4
?SetWindStrength@CSpeedTreeForest@@QAEXM@Z PROC		; CSpeedTreeForest::SetWindStrength, COMDAT
; _this$ = ecx

; 157  : {

  00000	55		 push	 ebp
  00001	8b ec		 mov	 ebp, esp
  00003	83 ec 08	 sub	 esp, 8

; 158  : 	if (m_fWindStrength == fStrength)

  00006	f3 0f 10 41 64	 movss	 xmm0, DWORD PTR [ecx+100]
  0000b	f3 0f 10 4d 08	 movss	 xmm1, DWORD PTR _fStrength$[ebp]
  00010	0f 2e c1	 ucomiss xmm0, xmm1
  00013	89 4d f8	 mov	 DWORD PTR _this$1$[ebp], ecx
  00016	9f		 lahf
  00017	f6 c4 44	 test	 ah, 68			; 00000044H
  0001a	0f 8b c5 00 00
	00		 jnp	 $LN3@SetWindStr
; File D:\Program Files\Microsoft Visual Studio\2022\Community\VC\Tools\MSVC\14.43.34808\include\xtree

; 1132 :         return iterator(_Scary->_Myhead->_Left, _Scary);

  00020	8b 41 04	 mov	 eax, DWORD PTR [ecx+4]
  00023	56		 push	 esi
; File C:\Marty 5.5\Src-Client\Client\SpeedTreeLib\SpeedTreeForest.cpp

; 161  : 	m_fWindStrength = fStrength;

  00024	f3 0f 11 49 64	 movss	 DWORD PTR [ecx+100], xmm1
; File D:\Program Files\Microsoft Visual Studio\2022\Community\VC\Tools\MSVC\14.43.34808\include\xtree

; 37   :     _Tree_unchecked_const_iterator(_Nodeptr _Pnode, const _Mytree* _Plist) noexcept : _Ptr(_Pnode) {

  00029	8b 30		 mov	 esi, DWORD PTR [eax]
  0002b	3b f0		 cmp	 esi, eax
; File C:\Marty 5.5\Src-Client\Client\SpeedTreeLib\SpeedTreeForest.cpp

; 166  : 	while (itor != m_pMainTreeMap.end())

  0002d	0f 84 b1 00 00
	00		 je	 $LN91@SetWindStr
  00033	53		 push	 ebx
  00034	57		 push	 edi
$LL2@SetWindStr:
; File D:\Program Files\Microsoft Visual Studio\2022\Community\VC\Tools\MSVC\14.43.34808\include\xtree

; 50   :         if (_Ptr->_Right->_Isnil) { // climb looking for right subtree

  00035	8b 4e 08	 mov	 ecx, DWORD PTR [esi+8]

; 287  :         _Tree_iterator _Tmp = *this;

  00038	8b c6		 mov	 eax, esi

; 50   :         if (_Ptr->_Right->_Isnil) { // climb looking for right subtree

  0003a	80 79 0d 00	 cmp	 BYTE PTR [ecx+13], 0
  0003e	74 27		 je	 SHORT $LN48@SetWindStr

; 51   :             _Nodeptr _Pnode;
; 52   :             while (!(_Pnode = _Ptr->_Parent)->_Isnil && _Ptr == _Pnode->_Right) {

  00040	8b 4e 04	 mov	 ecx, DWORD PTR [esi+4]
  00043	80 79 0d 00	 cmp	 BYTE PTR [ecx+13], 0
  00047	75 17		 jne	 SHORT $LN81@SetWindStr
  00049	0f 1f 80 00 00
	00 00		 npad	 7
$LL46@SetWindStr:
  00050	3b 71 08	 cmp	 esi, DWORD PTR [ecx+8]
  00053	75 0b		 jne	 SHORT $LN81@SetWindStr

; 53   :                 _Ptr = _Pnode; // ==> parent while right subtree

  00055	8b f1		 mov	 esi, ecx
  00057	8b 49 04	 mov	 ecx, DWORD PTR [ecx+4]
  0005a	80 79 0d 00	 cmp	 BYTE PTR [ecx+13], 0
  0005e	74 f0		 je	 SHORT $LL46@SetWindStr
$LN81@SetWindStr:

; 54   :             }
; 55   : 
; 56   :             _Ptr = _Pnode; // ==> parent (head if end())

  00060	8b f1		 mov	 esi, ecx
  00062	89 75 08	 mov	 DWORD PTR _itor$1$[ebp], esi

; 57   :         } else {

  00065	eb 1c		 jmp	 SHORT $LN54@SetWindStr
$LN48@SetWindStr:

; 58   :             _Ptr = _Mytree::_Min(_Ptr->_Right); // ==> smallest of right subtree

  00067	8b f1		 mov	 esi, ecx
  00069	89 75 08	 mov	 DWORD PTR _itor$1$[ebp], esi

; 466  :         while (!_Pnode->_Left->_Isnil) {

  0006c	8b 16		 mov	 edx, DWORD PTR [esi]
  0006e	80 7a 0d 00	 cmp	 BYTE PTR [edx+13], 0
  00072	75 0f		 jne	 SHORT $LN54@SetWindStr
$LL53@SetWindStr:
  00074	8b 0a		 mov	 ecx, DWORD PTR [edx]

; 467  :             _Pnode = _Pnode->_Left;

  00076	8b f2		 mov	 esi, edx
  00078	89 75 08	 mov	 DWORD PTR _itor$1$[ebp], esi
  0007b	8b d1		 mov	 edx, ecx
  0007d	80 79 0d 00	 cmp	 BYTE PTR [ecx+13], 0
  00081	74 f1		 je	 SHORT $LL53@SetWindStr
$LN54@SetWindStr:
; File C:\Marty 5.5\Src-Client\Client\SpeedTreeLib\SpeedTreeForest.cpp

; 169  : 		CSpeedTreeWrapper ** ppInstances = pMainTree->GetInstances(uiCount);

  00083	8d 4d fc	 lea	 ecx, DWORD PTR _uiCount$[ebp]
  00086	51		 push	 ecx
  00087	8b 48 14	 mov	 ecx, DWORD PTR [eax+20]
  0008a	e8 00 00 00 00	 call	 ?GetInstances@CSpeedTreeWrapper@@QAEPAPAV1@AAI@Z ; CSpeedTreeWrapper::GetInstances

; 170  : 
; 171  : 		for (UINT i = 0; i < uiCount; ++i)

  0008f	33 ff		 xor	 edi, edi
  00091	8b d8		 mov	 ebx, eax
  00093	39 7d fc	 cmp	 DWORD PTR _uiCount$[ebp], edi
  00096	76 3e		 jbe	 SHORT $LN5@SetWindStr
  00098	8b 75 f8	 mov	 esi, DWORD PTR _this$1$[ebp]
  0009b	0f 1f 44 00 00	 npad	 5
$LL6@SetWindStr:

; 172  : 			ppInstances[i]->GetSpeedTree()->SetWindStrength(m_fWindStrength);

  000a0	8b 0c bb	 mov	 ecx, DWORD PTR [ebx+edi*4]
  000a3	83 ec 0c	 sub	 esp, 12			; 0000000cH
  000a6	f3 0f 10 46 64	 movss	 xmm0, DWORD PTR [esi+100]
  000ab	8b 89 7c 01 00
	00		 mov	 ecx, DWORD PTR [ecx+380]
  000b1	c7 44 24 08 00
	00 80 bf	 mov	 DWORD PTR [esp+8], -1082130432 ; bf800000H
  000b9	c7 44 24 04 00
	00 80 bf	 mov	 DWORD PTR [esp+4], -1082130432 ; bf800000H
  000c1	f3 0f 11 04 24	 movss	 DWORD PTR [esp], xmm0
  000c6	e8 00 00 00 00	 call	 ?SetWindStrength@CSpeedTreeRT@@QAEMMMM@Z ; CSpeedTreeRT::SetWindStrength
  000cb	47		 inc	 edi
  000cc	dd d8		 fstp	 ST(0)
  000ce	3b 7d fc	 cmp	 edi, DWORD PTR _uiCount$[ebp]
  000d1	72 cd		 jb	 SHORT $LL6@SetWindStr
  000d3	8b 75 08	 mov	 esi, DWORD PTR _itor$1$[ebp]
$LN5@SetWindStr:
; File D:\Program Files\Microsoft Visual Studio\2022\Community\VC\Tools\MSVC\14.43.34808\include\xtree

; 232  :         return this->_Ptr == _Right._Ptr;

  000d6	8b 45 f8	 mov	 eax, DWORD PTR _this$1$[ebp]
  000d9	3b 70 04	 cmp	 esi, DWORD PTR [eax+4]
; File C:\Marty 5.5\Src-Client\Client\SpeedTreeLib\SpeedTreeForest.cpp

; 166  : 	while (itor != m_pMainTreeMap.end())

  000dc	0f 85 53 ff ff
	ff		 jne	 $LL2@SetWindStr
  000e2	5f		 pop	 edi
  000e3	5b		 pop	 ebx
$LN91@SetWindStr:
  000e4	5e		 pop	 esi
$LN3@SetWindStr:

; 173  : 	}
; 174  : }

  000e5	8b e5		 mov	 esp, ebp
  000e7	5d		 pop	 ebp
  000e8	c2 04 00	 ret	 4
?SetWindStrength@CSpeedTreeForest@@QAEXM@Z ENDP		; CSpeedTreeForest::SetWindStrength
_TEXT	ENDS
; Function compile flags: /Ogtp
; File C:\Marty 5.5\Src-Client\Client\SpeedTreeLib\SpeedTreeForest.cpp
;	COMDAT ?SetFog@CSpeedTreeForest@@QAEXMM@Z
_TEXT	SEGMENT
_fFogNear$ = 8						; size = 4
_fFogFar$ = 12						; size = 4
?SetFog@CSpeedTreeForest@@QAEXMM@Z PROC			; CSpeedTreeForest::SetFog, COMDAT
; _this$ = ecx

; 310  : {

  00000	55		 push	 ebp
  00001	8b ec		 mov	 ebp, esp

; 311  : 	const float c_fFogLinearScale = (1.0f / (fFogFar - fFogNear));
; 312  : 
; 313  : 	m_afFog[0] = fFogNear;

  00003	f3 0f 10 45 08	 movss	 xmm0, DWORD PTR _fFogNear$[ebp]

; 314  : 	m_afFog[1] = fFogFar;

  00008	f3 0f 10 4d 0c	 movss	 xmm1, DWORD PTR _fFogFar$[ebp]
  0000d	f3 0f 11 49 40	 movss	 DWORD PTR [ecx+64], xmm1
  00012	f3 0f 5c c8	 subss	 xmm1, xmm0
  00016	f3 0f 11 41 3c	 movss	 DWORD PTR [ecx+60], xmm0
  0001b	f3 0f 10 05 00
	00 00 00	 movss	 xmm0, DWORD PTR __real@3f800000

; 315  : 	m_afFog[2] = c_fFogLinearScale;
; 316  : 	m_afFog[3] = 0.0f;

  00023	c7 41 48 00 00
	00 00		 mov	 DWORD PTR [ecx+72], 0
  0002a	f3 0f 5e c1	 divss	 xmm0, xmm1
  0002e	f3 0f 11 41 44	 movss	 DWORD PTR [ecx+68], xmm0

; 317  : }

  00033	5d		 pop	 ebp
  00034	c2 08 00	 ret	 8
?SetFog@CSpeedTreeForest@@QAEXMM@Z ENDP			; CSpeedTreeForest::SetFog
_TEXT	ENDS
; Function compile flags: /Ogtp
; File C:\Marty 5.5\Src-Client\Client\SpeedTreeLib\SpeedTreeForest.cpp
;	COMDAT ?SetLight@CSpeedTreeForest@@QAEXPBM00@Z
_TEXT	SEGMENT
_afDirection$ = 8					; size = 4
_afAmbient$ = 12					; size = 4
_afDiffuse$ = 16					; size = 4
?SetLight@CSpeedTreeForest@@QAEXPBM00@Z PROC		; CSpeedTreeForest::SetLight, COMDAT
; _this$ = ecx

; 292  : {

  00000	55		 push	 ebp
  00001	8b ec		 mov	 ebp, esp

; 293  : 	m_afLighting[0] = afDirection[0];

  00003	8b 55 08	 mov	 edx, DWORD PTR _afDirection$[ebp]
  00006	56		 push	 esi
  00007	8b f1		 mov	 esi, ecx

; 294  : 	m_afLighting[1] = afDirection[1];
; 295  : 	m_afLighting[2] = afDirection[2];
; 296  : 	m_afLighting[3] = 1.0f;
; 297  : 
; 298  : 	m_afLighting[4] = afAmbient[0];

  00009	8b 4d 0c	 mov	 ecx, DWORD PTR _afAmbient$[ebp]
  0000c	8b 02		 mov	 eax, DWORD PTR [edx]
  0000e	89 46 0c	 mov	 DWORD PTR [esi+12], eax
  00011	8b 42 04	 mov	 eax, DWORD PTR [edx+4]
  00014	89 46 10	 mov	 DWORD PTR [esi+16], eax
  00017	8b 42 08	 mov	 eax, DWORD PTR [edx+8]
  0001a	89 46 14	 mov	 DWORD PTR [esi+20], eax
  0001d	c7 46 18 00 00
	80 3f		 mov	 DWORD PTR [esi+24], 1065353216 ; 3f800000H
  00024	8b 01		 mov	 eax, DWORD PTR [ecx]
  00026	89 46 1c	 mov	 DWORD PTR [esi+28], eax
  00029	8b 41 04	 mov	 eax, DWORD PTR [ecx+4]
  0002c	89 46 20	 mov	 DWORD PTR [esi+32], eax
  0002f	8b 41 08	 mov	 eax, DWORD PTR [ecx+8]
  00032	89 46 24	 mov	 DWORD PTR [esi+36], eax
  00035	8b 41 0c	 mov	 eax, DWORD PTR [ecx+12]

; 299  : 	m_afLighting[5] = afAmbient[1];
; 300  : 	m_afLighting[6] = afAmbient[2];
; 301  : 	m_afLighting[7] = afAmbient[3];
; 302  : 
; 303  : 	m_afLighting[8] = afDiffuse[0];

  00038	8b 4d 10	 mov	 ecx, DWORD PTR _afDiffuse$[ebp]
  0003b	89 46 28	 mov	 DWORD PTR [esi+40], eax
  0003e	8b 01		 mov	 eax, DWORD PTR [ecx]
  00040	89 46 2c	 mov	 DWORD PTR [esi+44], eax
  00043	8b 41 04	 mov	 eax, DWORD PTR [ecx+4]
  00046	89 46 30	 mov	 DWORD PTR [esi+48], eax
  00049	8b 41 08	 mov	 eax, DWORD PTR [ecx+8]
  0004c	89 46 34	 mov	 DWORD PTR [esi+52], eax
  0004f	8b 41 0c	 mov	 eax, DWORD PTR [ecx+12]
  00052	89 46 38	 mov	 DWORD PTR [esi+56], eax
  00055	5e		 pop	 esi

; 304  : 	m_afLighting[9] = afDiffuse[1];
; 305  : 	m_afLighting[10] = afDiffuse[2];
; 306  : 	m_afLighting[11] = afDiffuse[3];
; 307  : }

  00056	5d		 pop	 ebp
  00057	c2 0c 00	 ret	 12			; 0000000cH
?SetLight@CSpeedTreeForest@@QAEXPBM00@Z ENDP		; CSpeedTreeForest::SetLight
_TEXT	ENDS
; Function compile flags: /Ogtp
; File C:\Marty 5.5\Src-Client\Client\SpeedTreeLib\SpeedTreeForest.cpp
; File D:\Program Files\Microsoft Visual Studio\2022\Community\VC\Tools\MSVC\14.43.34808\include\xtree
; File C:\Marty 5.5\Src-Client\Client\SpeedTreeLib\SpeedTreeForest.cpp
; File D:\Program Files\Microsoft Visual Studio\2022\Community\VC\Tools\MSVC\14.43.34808\include\xtree
; File C:\Marty 5.5\Src-Client\Client\SpeedTreeLib\SpeedTreeForest.cpp
; File D:\Program Files\Microsoft Visual Studio\2022\Community\VC\Tools\MSVC\14.43.34808\include\xtree
; File C:\Marty 5.5\Src-Client\Client\SpeedTreeLib\SpeedTreeForest.cpp
; File D:\Program Files\Microsoft Visual Studio\2022\Community\VC\Tools\MSVC\14.43.34808\include\xtree
; File C:\Marty 5.5\Src-Client\Client\SpeedTreeLib\SpeedTreeForest.cpp
; File D:\Program Files\Microsoft Visual Studio\2022\Community\VC\Tools\MSVC\14.43.34808\include\xtree
; File D:\Program Files\Microsoft Visual Studio\2022\Community\VC\Tools\MSVC\14.43.34808\include\utility
; File D:\Program Files\Microsoft Visual Studio\2022\Community\VC\Tools\MSVC\14.43.34808\include\xmemory
; File D:\Program Files\Microsoft Visual Studio\2022\Community\VC\Tools\MSVC\14.43.34808\include\xtree
; File C:\Marty 5.5\Src-Client\Client\SpeedTreeLib\SpeedTreeForest.cpp
;	COMDAT ?Clear@CSpeedTreeForest@@QAEXXZ
_TEXT	SEGMENT
_this$1$ = -12						; size = 4
_pMainTree$1$ = -8					; size = 4
_uiCount$ = -4						; size = 4
?Clear@CSpeedTreeForest@@QAEXXZ PROC			; CSpeedTreeForest::Clear, COMDAT
; _this$ = ecx

; 40   : {

  00000	55		 push	 ebp
  00001	8b ec		 mov	 ebp, esp
  00003	83 ec 0c	 sub	 esp, 12			; 0000000cH
  00006	53		 push	 ebx
  00007	56		 push	 esi
; File D:\Program Files\Microsoft Visual Studio\2022\Community\VC\Tools\MSVC\14.43.34808\include\xtree

; 1132 :         return iterator(_Scary->_Myhead->_Left, _Scary);

  00008	8d 59 04	 lea	 ebx, DWORD PTR [ecx+4]
; File C:\Marty 5.5\Src-Client\Client\SpeedTreeLib\SpeedTreeForest.cpp

; 40   : {

  0000b	57		 push	 edi
; File D:\Program Files\Microsoft Visual Studio\2022\Community\VC\Tools\MSVC\14.43.34808\include\xtree

; 1132 :         return iterator(_Scary->_Myhead->_Left, _Scary);

  0000c	8b 3b		 mov	 edi, DWORD PTR [ebx]
  0000e	89 5d f4	 mov	 DWORD PTR _this$1$[ebp], ebx

; 37   :     _Tree_unchecked_const_iterator(_Nodeptr _Pnode, const _Mytree* _Plist) noexcept : _Ptr(_Pnode) {

  00011	8b 37		 mov	 esi, DWORD PTR [edi]
  00013	3b f7		 cmp	 esi, edi
; File C:\Marty 5.5\Src-Client\Client\SpeedTreeLib\SpeedTreeForest.cpp

; 44   : 	while (itor != m_pMainTreeMap.end())

  00015	0f 84 94 00 00
	00		 je	 $LN3@Clear
  0001b	0f 1f 44 00 00	 npad	 5
$LL2@Clear:
; File D:\Program Files\Microsoft Visual Studio\2022\Community\VC\Tools\MSVC\14.43.34808\include\xtree

; 50   :         if (_Ptr->_Right->_Isnil) { // climb looking for right subtree

  00020	8b 4e 08	 mov	 ecx, DWORD PTR [esi+8]

; 287  :         _Tree_iterator _Tmp = *this;

  00023	8b c6		 mov	 eax, esi

; 50   :         if (_Ptr->_Right->_Isnil) { // climb looking for right subtree

  00025	80 79 0d 00	 cmp	 BYTE PTR [ecx+13], 0
  00029	74 1d		 je	 SHORT $LN51@Clear

; 51   :             _Nodeptr _Pnode;
; 52   :             while (!(_Pnode = _Ptr->_Parent)->_Isnil && _Ptr == _Pnode->_Right) {

  0002b	8b 4e 04	 mov	 ecx, DWORD PTR [esi+4]
  0002e	80 79 0d 00	 cmp	 BYTE PTR [ecx+13], 0
  00032	75 10		 jne	 SHORT $LN130@Clear
$LL49@Clear:
  00034	3b 71 08	 cmp	 esi, DWORD PTR [ecx+8]
  00037	75 0b		 jne	 SHORT $LN130@Clear

; 53   :                 _Ptr = _Pnode; // ==> parent while right subtree

  00039	8b f1		 mov	 esi, ecx
  0003b	8b 49 04	 mov	 ecx, DWORD PTR [ecx+4]
  0003e	80 79 0d 00	 cmp	 BYTE PTR [ecx+13], 0
  00042	74 f0		 je	 SHORT $LL49@Clear
$LN130@Clear:

; 54   :             }
; 55   : 
; 56   :             _Ptr = _Pnode; // ==> parent (head if end())

  00044	8b f1		 mov	 esi, ecx

; 57   :         } else {

  00046	eb 16		 jmp	 SHORT $LN57@Clear
$LN51@Clear:

; 58   :             _Ptr = _Mytree::_Min(_Ptr->_Right); // ==> smallest of right subtree

  00048	8b f1		 mov	 esi, ecx

; 466  :         while (!_Pnode->_Left->_Isnil) {

  0004a	8b 16		 mov	 edx, DWORD PTR [esi]
  0004c	80 7a 0d 00	 cmp	 BYTE PTR [edx+13], 0
  00050	75 0c		 jne	 SHORT $LN57@Clear
$LL56@Clear:
  00052	8b 0a		 mov	 ecx, DWORD PTR [edx]

; 467  :             _Pnode = _Pnode->_Left;

  00054	8b f2		 mov	 esi, edx
  00056	8b d1		 mov	 edx, ecx
  00058	80 79 0d 00	 cmp	 BYTE PTR [ecx+13], 0
  0005c	74 f4		 je	 SHORT $LL56@Clear
$LN57@Clear:
; File C:\Marty 5.5\Src-Client\Client\SpeedTreeLib\SpeedTreeForest.cpp

; 46   : 		CSpeedTreeWrapper * pMainTree = (itor++)->second;

  0005e	8b 40 14	 mov	 eax, DWORD PTR [eax+20]

; 47   : 		CSpeedTreeWrapper ** ppInstances = pMainTree->GetInstances(uiCount);

  00061	8d 4d fc	 lea	 ecx, DWORD PTR _uiCount$[ebp]
  00064	51		 push	 ecx
  00065	8b c8		 mov	 ecx, eax
  00067	89 45 f8	 mov	 DWORD PTR _pMainTree$1$[ebp], eax
  0006a	e8 00 00 00 00	 call	 ?GetInstances@CSpeedTreeWrapper@@QAEPAPAV1@AAI@Z ; CSpeedTreeWrapper::GetInstances

; 48   : 
; 49   : 		for (UINT i = 0; i < uiCount; ++i)

  0006f	8b 55 fc	 mov	 edx, DWORD PTR _uiCount$[ebp]
  00072	33 ff		 xor	 edi, edi
  00074	8b d8		 mov	 ebx, eax
  00076	85 d2		 test	 edx, edx
  00078	74 1b		 je	 SHORT $LN5@Clear
  0007a	66 0f 1f 44 00
	00		 npad	 6
$LL6@Clear:

; 50   : 			delete ppInstances[i];

  00080	8b 0c bb	 mov	 ecx, DWORD PTR [ebx+edi*4]
  00083	85 c9		 test	 ecx, ecx
  00085	74 09		 je	 SHORT $LN4@Clear
  00087	8b 01		 mov	 eax, DWORD PTR [ecx]
  00089	6a 01		 push	 1
  0008b	ff 10		 call	 DWORD PTR [eax]
  0008d	8b 55 fc	 mov	 edx, DWORD PTR _uiCount$[ebp]
$LN4@Clear:

; 48   : 
; 49   : 		for (UINT i = 0; i < uiCount; ++i)

  00090	47		 inc	 edi
  00091	3b fa		 cmp	 edi, edx
  00093	72 eb		 jb	 SHORT $LL6@Clear
$LN5@Clear:

; 51   : 
; 52   : 		delete pMainTree;

  00095	8b 4d f8	 mov	 ecx, DWORD PTR _pMainTree$1$[ebp]
  00098	85 c9		 test	 ecx, ecx
  0009a	74 06		 je	 SHORT $LN10@Clear
  0009c	8b 01		 mov	 eax, DWORD PTR [ecx]
  0009e	6a 01		 push	 1
  000a0	ff 10		 call	 DWORD PTR [eax]
$LN10@Clear:
; File D:\Program Files\Microsoft Visual Studio\2022\Community\VC\Tools\MSVC\14.43.34808\include\xtree

; 37   :     _Tree_unchecked_const_iterator(_Nodeptr _Pnode, const _Mytree* _Plist) noexcept : _Ptr(_Pnode) {

  000a2	8b 5d f4	 mov	 ebx, DWORD PTR _this$1$[ebp]
  000a5	8b 3b		 mov	 edi, DWORD PTR [ebx]

; 232  :         return this->_Ptr == _Right._Ptr;

  000a7	3b f7		 cmp	 esi, edi
; File C:\Marty 5.5\Src-Client\Client\SpeedTreeLib\SpeedTreeForest.cpp

; 44   : 	while (itor != m_pMainTreeMap.end())

  000a9	0f 85 71 ff ff
	ff		 jne	 $LL2@Clear
$LN3@Clear:
; File D:\Program Files\Microsoft Visual Studio\2022\Community\VC\Tools\MSVC\14.43.34808\include\xtree

; 1364 :         _Scary->_Erase_tree(_Getal(), _Head->_Parent);

  000af	8b 77 04	 mov	 esi, DWORD PTR [edi+4]

; 758  :         while (!_Rootnode->_Isnil) { // free subtrees, then node

  000b2	80 7e 0d 00	 cmp	 BYTE PTR [esi+13], 0
  000b6	75 20		 jne	 SHORT $LN119@Clear
$LL73@Clear:

; 759  :             _Erase_tree(_Al, _Rootnode->_Right);

  000b8	ff 76 08	 push	 DWORD PTR [esi+8]
  000bb	8b cb		 mov	 ecx, ebx
  000bd	53		 push	 ebx
  000be	e8 00 00 00 00	 call	 ??$_Erase_tree@V?$allocator@U?$_Tree_node@U?$pair@$$CBKPAVCSpeedTreeWrapper@@@std@@PAX@std@@@std@@@?$_Tree_val@U?$_Tree_simple_types@U?$pair@$$CBKPAVCSpeedTreeWrapper@@@std@@@std@@@std@@QAEXAAV?$allocator@U?$_Tree_node@U?$pair@$$CBKPAVCSpeedTreeWrapper@@@std@@PAX@std@@@1@PAU?$_Tree_node@U?$pair@$$CBKPAVCSpeedTreeWrapper@@@std@@PAX@1@@Z ; std::_Tree_val<std::_Tree_simple_types<std::pair<unsigned long const ,CSpeedTreeWrapper *> > >::_Erase_tree<std::allocator<std::_Tree_node<std::pair<unsigned long const ,CSpeedTreeWrapper *>,void *> > >
; File D:\Program Files\Microsoft Visual Studio\2022\Community\VC\Tools\MSVC\14.43.34808\include\utility

; 773  :     _Ty _Old_val = static_cast<_Ty&&>(_Val);

  000c3	8b c6		 mov	 eax, esi

; 774  :     _Val         = static_cast<_Other&&>(_New_val);

  000c5	8b 36		 mov	 esi, DWORD PTR [esi]
; File D:\Program Files\Microsoft Visual Studio\2022\Community\VC\Tools\MSVC\14.43.34808\include\xmemory

; 289  :         ::operator delete(_Ptr, _Bytes);

  000c7	6a 18		 push	 24			; 00000018H
  000c9	50		 push	 eax
  000ca	e8 00 00 00 00	 call	 ??3@YAXPAXI@Z		; operator delete
  000cf	83 c4 08	 add	 esp, 8
; File D:\Program Files\Microsoft Visual Studio\2022\Community\VC\Tools\MSVC\14.43.34808\include\xtree

; 758  :         while (!_Rootnode->_Isnil) { // free subtrees, then node

  000d2	80 7e 0d 00	 cmp	 BYTE PTR [esi+13], 0
  000d6	74 e0		 je	 SHORT $LL73@Clear
$LN119@Clear:

; 1365 :         _Head->_Parent  = _Head;

  000d8	89 7f 04	 mov	 DWORD PTR [edi+4], edi

; 1366 :         _Head->_Left    = _Head;

  000db	89 3f		 mov	 DWORD PTR [edi], edi

; 1367 :         _Head->_Right   = _Head;

  000dd	89 7f 08	 mov	 DWORD PTR [edi+8], edi

; 1368 :         _Scary->_Mysize = 0;

  000e0	5f		 pop	 edi
  000e1	5e		 pop	 esi
  000e2	c7 43 04 00 00
	00 00		 mov	 DWORD PTR [ebx+4], 0
  000e9	5b		 pop	 ebx
; File C:\Marty 5.5\Src-Client\Client\SpeedTreeLib\SpeedTreeForest.cpp

; 56   : }

  000ea	8b e5		 mov	 esp, ebp
  000ec	5d		 pop	 ebp
  000ed	c3		 ret	 0
?Clear@CSpeedTreeForest@@QAEXXZ ENDP			; CSpeedTreeForest::Clear
_TEXT	ENDS
; Function compile flags: /Ogtp
; File C:\Marty 5.5\Src-Client\Client\SpeedTreeLib\SpeedTreeForest.cpp
;	COMDAT ?UpdateSystem@CSpeedTreeForest@@QAEXM@Z
_TEXT	SEGMENT
_fCurrentTime$ = 8					; size = 4
?UpdateSystem@CSpeedTreeForest@@QAEXM@Z PROC		; CSpeedTreeForest::UpdateSystem, COMDAT
; _this$ = ecx

; 130  : {

  00000	55		 push	 ebp
  00001	8b ec		 mov	 ebp, esp

; 131  : 	static float fLastTime = fCurrentTime;

  00003	64 a1 00 00 00
	00		 mov	 eax, DWORD PTR fs:__tls_array
  00009	8b 15 00 00 00
	00		 mov	 edx, DWORD PTR __tls_index
  0000f	56		 push	 esi
  00010	8b f1		 mov	 esi, ecx
  00012	8b 14 90	 mov	 edx, DWORD PTR [eax+edx*4]
  00015	a1 00 00 00 00	 mov	 eax, DWORD PTR ?$TSS0@?1??UpdateSystem@CSpeedTreeForest@@QAEXM@Z@4HA
  0001a	3b 82 00 00 00
	00		 cmp	 eax, DWORD PTR __Init_thread_epoch[edx]
  00020	7f 3d		 jg	 SHORT $LN7@UpdateSyst
$LN2@UpdateSyst:

; 132  : 	float fElapsedTime = fCurrentTime - fLastTime;

  00022	f3 0f 10 45 08	 movss	 xmm0, DWORD PTR _fCurrentTime$[ebp]
  00027	f3 0f 5c 05 00
	00 00 00	 subss	 xmm0, DWORD PTR ?fLastTime@?1??UpdateSystem@CSpeedTreeForest@@QAEXM@Z@4MA

; 133  : 	CSpeedTreeRT::SetTime(fElapsedTime);

  0002f	51		 push	 ecx
  00030	f3 0f 11 45 08	 movss	 DWORD PTR _fCurrentTime$[ebp], xmm0
  00035	f3 0f 11 04 24	 movss	 DWORD PTR [esp], xmm0
  0003a	e8 00 00 00 00	 call	 ?SetTime@CSpeedTreeRT@@SAXM@Z ; CSpeedTreeRT::SetTime

; 134  : 
; 135  : 	m_fAccumTime += fElapsedTime;

  0003f	f3 0f 10 45 08	 movss	 xmm0, DWORD PTR _fCurrentTime$[ebp]

; 136  : 	SetupWindMatrices(m_fAccumTime);

  00044	8b ce		 mov	 ecx, esi
  00046	f3 0f 58 46 68	 addss	 xmm0, DWORD PTR [esi+104]
  0004b	f3 0f 11 46 68	 movss	 DWORD PTR [esi+104], xmm0
  00050	f3 0f 11 04 24	 movss	 DWORD PTR [esp], xmm0
  00055	e8 00 00 00 00	 call	 ?SetupWindMatrices@CSpeedTreeForest@@QAEXM@Z ; CSpeedTreeForest::SetupWindMatrices
  0005a	5e		 pop	 esi

; 137  : }

  0005b	5d		 pop	 ebp
  0005c	c2 04 00	 ret	 4
$LN7@UpdateSyst:

; 131  : 	static float fLastTime = fCurrentTime;

  0005f	68 00 00 00 00	 push	 OFFSET ?$TSS0@?1??UpdateSystem@CSpeedTreeForest@@QAEXM@Z@4HA
  00064	e8 00 00 00 00	 call	 __Init_thread_header
  00069	83 c4 04	 add	 esp, 4
  0006c	83 3d 00 00 00
	00 ff		 cmp	 DWORD PTR ?$TSS0@?1??UpdateSystem@CSpeedTreeForest@@QAEXM@Z@4HA, -1
  00073	75 ad		 jne	 SHORT $LN2@UpdateSyst
  00075	f3 0f 10 45 08	 movss	 xmm0, DWORD PTR _fCurrentTime$[ebp]
  0007a	68 00 00 00 00	 push	 OFFSET ?$TSS0@?1??UpdateSystem@CSpeedTreeForest@@QAEXM@Z@4HA
  0007f	f3 0f 11 05 00
	00 00 00	 movss	 DWORD PTR ?fLastTime@?1??UpdateSystem@CSpeedTreeForest@@QAEXM@Z@4MA, xmm0
  00087	e8 00 00 00 00	 call	 __Init_thread_footer
  0008c	83 c4 04	 add	 esp, 4
  0008f	eb 91		 jmp	 SHORT $LN2@UpdateSyst
?UpdateSystem@CSpeedTreeForest@@QAEXM@Z ENDP		; CSpeedTreeForest::UpdateSystem
_TEXT	ENDS
; Function compile flags: /Ogtp
; File C:\Marty 5.5\Src-Client\Client\SpeedTreeLib\SpeedTreeForest.cpp
;	COMDAT ?DeleteInstance@CSpeedTreeForest@@QAEXPAVCSpeedTreeWrapper@@@Z
_TEXT	SEGMENT
_pInstance$ = 8						; size = 4
?DeleteInstance@CSpeedTreeForest@@QAEXPAVCSpeedTreeWrapper@@@Z PROC ; CSpeedTreeForest::DeleteInstance, COMDAT
; _this$ = ecx

; 117  : {

  00000	55		 push	 ebp
  00001	8b ec		 mov	 ebp, esp

; 118  : 	if (!pInstance)

  00003	8b 45 08	 mov	 eax, DWORD PTR _pInstance$[ebp]
  00006	85 c0		 test	 eax, eax
  00008	74 13		 je	 SHORT $LN1@DeleteInst

; 119  : 		return;
; 120  : 
; 121  : 	CSpeedTreeWrapper * pParentTree = pInstance->InstanceOf();

  0000a	8b 88 94 01 00
	00		 mov	 ecx, DWORD PTR [eax+404]

; 122  : 
; 123  : 	if (!pParentTree)

  00010	85 c9		 test	 ecx, ecx
  00012	74 09		 je	 SHORT $LN1@DeleteInst

; 124  : 		return;
; 125  : 
; 126  : 	pParentTree->DeleteInstance(pInstance);

  00014	89 45 08	 mov	 DWORD PTR _pInstance$[ebp], eax

; 127  : }

  00017	5d		 pop	 ebp

; 124  : 		return;
; 125  : 
; 126  : 	pParentTree->DeleteInstance(pInstance);

  00018	e9 00 00 00 00	 jmp	 ?DeleteInstance@CSpeedTreeWrapper@@QAEXPAV1@@Z ; CSpeedTreeWrapper::DeleteInstance
$LN1@DeleteInst:

; 127  : }

  0001d	5d		 pop	 ebp
  0001e	c2 04 00	 ret	 4
?DeleteInstance@CSpeedTreeForest@@QAEXPAVCSpeedTreeWrapper@@@Z ENDP ; CSpeedTreeForest::DeleteInstance
_TEXT	ENDS
; Function compile flags: /Ogtp
; File C:\Marty 5.5\Src-Client\Client\SpeedTreeLib\SpeedTreeForest.cpp
;	COMDAT ?CreateInstance@CSpeedTreeForest@@QAEPAVCSpeedTreeWrapper@@MMMKPBD@Z
_TEXT	SEGMENT
_x$ = 8							; size = 4
_y$ = 12						; size = 4
_z$ = 16						; size = 4
_dwTreeCRC$ = 20					; size = 4
_c_szTreeName$ = 24					; size = 4
_pMainTree$ = 24					; size = 4
?CreateInstance@CSpeedTreeForest@@QAEPAVCSpeedTreeWrapper@@MMMKPBD@Z PROC ; CSpeedTreeForest::CreateInstance, COMDAT
; _this$ = ecx

; 105  : {

  00000	55		 push	 ebp
  00001	8b ec		 mov	 ebp, esp

; 106  : 	CSpeedTreeWrapper * pMainTree;
; 107  : 	if (!GetMainTree(dwTreeCRC, &pMainTree, c_szTreeName))

  00003	ff 75 18	 push	 DWORD PTR _c_szTreeName$[ebp]
  00006	8d 45 18	 lea	 eax, DWORD PTR _pMainTree$[ebp]
  00009	50		 push	 eax
  0000a	ff 75 14	 push	 DWORD PTR _dwTreeCRC$[ebp]
  0000d	e8 00 00 00 00	 call	 ?GetMainTree@CSpeedTreeForest@@QAEHKPAPAVCSpeedTreeWrapper@@PBD@Z ; CSpeedTreeForest::GetMainTree
  00012	85 c0		 test	 eax, eax
  00014	75 04		 jne	 SHORT $LN2@CreateInst

; 114  : }

  00016	5d		 pop	 ebp
  00017	c2 14 00	 ret	 20			; 00000014H
$LN2@CreateInst:

; 108  : 		return NULL;
; 109  : 
; 110  : 	CSpeedTreeWrapper* pTreeInst = pMainTree->MakeInstance();

  0001a	8b 4d 18	 mov	 ecx, DWORD PTR _pMainTree$[ebp]
  0001d	56		 push	 esi
  0001e	e8 00 00 00 00	 call	 ?MakeInstance@CSpeedTreeWrapper@@QAEPAV1@XZ ; CSpeedTreeWrapper::MakeInstance

; 111  : 	pTreeInst->SetPosition(x, y, z);

  00023	f3 0f 10 45 10	 movss	 xmm0, DWORD PTR _z$[ebp]
  00028	83 ec 0c	 sub	 esp, 12			; 0000000cH
  0002b	8b f0		 mov	 esi, eax
  0002d	8b ce		 mov	 ecx, esi
  0002f	f3 0f 11 44 24
	08		 movss	 DWORD PTR [esp+8], xmm0
  00035	f3 0f 10 45 0c	 movss	 xmm0, DWORD PTR _y$[ebp]
  0003a	8b 16		 mov	 edx, DWORD PTR [esi]
  0003c	f3 0f 11 44 24
	04		 movss	 DWORD PTR [esp+4], xmm0
  00042	f3 0f 10 45 08	 movss	 xmm0, DWORD PTR _x$[ebp]
  00047	f3 0f 11 04 24	 movss	 DWORD PTR [esp], xmm0
  0004c	ff 52 3c	 call	 DWORD PTR [edx+60]

; 112  : 	pTreeInst->RegisterBoundingSphere();

  0004f	8b ce		 mov	 ecx, esi
  00051	e8 00 00 00 00	 call	 ?RegisterBoundingSphere@CGraphicObjectInstance@@QAEXXZ ; CGraphicObjectInstance::RegisterBoundingSphere

; 113  : 	return pTreeInst;

  00056	8b c6		 mov	 eax, esi
  00058	5e		 pop	 esi

; 114  : }

  00059	5d		 pop	 ebp
  0005a	c2 14 00	 ret	 20			; 00000014H
?CreateInstance@CSpeedTreeForest@@QAEPAVCSpeedTreeWrapper@@MMMKPBD@Z ENDP ; CSpeedTreeForest::CreateInstance
_TEXT	ENDS
; Function compile flags: /Ogtp
; File C:\Marty 5.5\Src-Client\Client\SpeedTreeLib\SpeedTreeForest.cpp
; File D:\Program Files\Microsoft Visual Studio\2022\Community\VC\Tools\MSVC\14.43.34808\include\xtree
; File C:\Marty 5.5\Src-Client\Client\SpeedTreeLib\SpeedTreeForest.cpp
; File D:\Program Files\Microsoft Visual Studio\2022\Community\VC\Tools\MSVC\14.43.34808\include\xtree
; File D:\Program Files\Microsoft Visual Studio\2022\Community\VC\Tools\MSVC\14.43.34808\include\type_traits
; File D:\Program Files\Microsoft Visual Studio\2022\Community\VC\Tools\MSVC\14.43.34808\include\xtree
; File C:\Marty 5.5\Src-Client\Client\SpeedTreeLib\SpeedTreeForest.cpp
;	COMDAT ?GetMainTree@CSpeedTreeForest@@QAEPAVCSpeedTreeWrapper@@K@Z
_TEXT	SEGMENT
__Loc$1 = -12						; size = 12
_dwCRC$ = 8						; size = 4
?GetMainTree@CSpeedTreeForest@@QAEPAVCSpeedTreeWrapper@@K@Z PROC ; CSpeedTreeForest::GetMainTree, COMDAT
; _this$ = ecx

; 59   : {

  00000	55		 push	 ebp
  00001	8b ec		 mov	 ebp, esp
  00003	83 ec 0c	 sub	 esp, 12			; 0000000cH
  00006	56		 push	 esi
; File D:\Program Files\Microsoft Visual Studio\2022\Community\VC\Tools\MSVC\14.43.34808\include\xtree

; 1374 :         const _Tree_find_result<_Nodeptr> _Loc = _Find_lower_bound(_Keyval);

  00007	8d 45 08	 lea	 eax, DWORD PTR _dwCRC$[ebp]
  0000a	50		 push	 eax
; File C:\Marty 5.5\Src-Client\Client\SpeedTreeLib\SpeedTreeForest.cpp

; 60   : 	TTreeMap::iterator itor = m_pMainTreeMap.find(dwCRC);

  0000b	8d 71 04	 lea	 esi, DWORD PTR [ecx+4]
; File D:\Program Files\Microsoft Visual Studio\2022\Community\VC\Tools\MSVC\14.43.34808\include\xtree

; 1374 :         const _Tree_find_result<_Nodeptr> _Loc = _Find_lower_bound(_Keyval);

  0000e	8d 45 f4	 lea	 eax, DWORD PTR __Loc$1[ebp]
  00011	8b ce		 mov	 ecx, esi
  00013	50		 push	 eax
  00014	e8 00 00 00 00	 call	 ??$_Find_lower_bound@K@?$_Tree@V?$_Tmap_traits@KPAVCSpeedTreeWrapper@@U?$less@K@std@@V?$allocator@U?$pair@$$CBKPAVCSpeedTreeWrapper@@@std@@@3@$0A@@std@@@std@@IBE?AU?$_Tree_find_result@PAU?$_Tree_node@U?$pair@$$CBKPAVCSpeedTreeWrapper@@@std@@PAX@std@@@1@ABK@Z ; std::_Tree<std::_Tmap_traits<unsigned long,CSpeedTreeWrapper *,std::less<unsigned long>,std::allocator<std::pair<unsigned long const ,CSpeedTreeWrapper *> >,0> >::_Find_lower_bound<unsigned long>

; 1614 :         return !_Bound->_Isnil && !_DEBUG_LT_PRED(_Getcomp(), _Keyval, _Traits::_Kfn(_Bound->_Myval));

  00019	8b 45 fc	 mov	 eax, DWORD PTR __Loc$1[ebp+8]
  0001c	80 78 0d 00	 cmp	 BYTE PTR [eax+13], 0
  00020	75 16		 jne	 SHORT $LN50@GetMainTre
; File D:\Program Files\Microsoft Visual Studio\2022\Community\VC\Tools\MSVC\14.43.34808\include\type_traits

; 2412 :         return _Left < _Right;

  00022	8b 4d 08	 mov	 ecx, DWORD PTR _dwCRC$[ebp]
  00025	3b 48 10	 cmp	 ecx, DWORD PTR [eax+16]
; File D:\Program Files\Microsoft Visual Studio\2022\Community\VC\Tools\MSVC\14.43.34808\include\xtree

; 1614 :         return !_Bound->_Isnil && !_DEBUG_LT_PRED(_Getcomp(), _Keyval, _Traits::_Kfn(_Bound->_Myval));

  00028	72 0e		 jb	 SHORT $LN50@GetMainTre

; 37   :     _Tree_unchecked_const_iterator(_Nodeptr _Pnode, const _Mytree* _Plist) noexcept : _Ptr(_Pnode) {

  0002a	3b 06		 cmp	 eax, DWORD PTR [esi]
; File C:\Marty 5.5\Src-Client\Client\SpeedTreeLib\SpeedTreeForest.cpp

; 62   : 	if (itor == m_pMainTreeMap.end())

  0002c	74 0a		 je	 SHORT $LN50@GetMainTre

; 64   : 
; 65   : 	return itor->second;

  0002e	8b 40 14	 mov	 eax, DWORD PTR [eax+20]
  00031	5e		 pop	 esi

; 66   : }

  00032	8b e5		 mov	 esp, ebp
  00034	5d		 pop	 ebp
  00035	c2 04 00	 ret	 4
$LN50@GetMainTre:

; 63   : 		return NULL;

  00038	33 c0		 xor	 eax, eax
  0003a	5e		 pop	 esi

; 66   : }

  0003b	8b e5		 mov	 esp, ebp
  0003d	5d		 pop	 ebp
  0003e	c2 04 00	 ret	 4
?GetMainTree@CSpeedTreeForest@@QAEPAVCSpeedTreeWrapper@@K@Z ENDP ; CSpeedTreeForest::GetMainTree
_TEXT	ENDS
; Function compile flags: /Ogtp
; File C:\Marty 5.5\Src-Client\Client\SpeedTreeLib\SpeedTreeForest.cpp
; File D:\Program Files\Microsoft Visual Studio\2022\Community\VC\Tools\MSVC\14.43.34808\include\xtree
; File C:\Marty 5.5\Src-Client\Client\SpeedTreeLib\SpeedTreeForest.cpp
; File D:\Program Files\Microsoft Visual Studio\2022\Community\VC\Tools\MSVC\14.43.34808\include\xtree
; File D:\Program Files\Microsoft Visual Studio\2022\Community\VC\Tools\MSVC\14.43.34808\include\type_traits
; File D:\Program Files\Microsoft Visual Studio\2022\Community\VC\Tools\MSVC\14.43.34808\include\xtree
; File C:\Marty 5.5\Src-Client\Client\SpeedTreeLib\SpeedTreeForest.cpp
; File D:\Program Files\Microsoft Visual Studio\2022\Community\VC\Tools\MSVC\14.43.34808\include\xtree
; File D:\Program Files\Microsoft Visual Studio\2022\Community\VC\Tools\MSVC\14.43.34808\include\utility
; File D:\Program Files\Microsoft Visual Studio\2022\Community\VC\Tools\MSVC\14.43.34808\include\xtree
; File D:\Program Files\Microsoft Visual Studio\2022\Community\VC\Tools\MSVC\14.43.34808\include\utility
; File D:\Program Files\Microsoft Visual Studio\2022\Community\VC\Tools\MSVC\14.43.34808\include\xtree
; File D:\Program Files\Microsoft Visual Studio\2022\Community\VC\Tools\MSVC\14.43.34808\include\type_traits
; File D:\Program Files\Microsoft Visual Studio\2022\Community\VC\Tools\MSVC\14.43.34808\include\xtree
; File D:\Program Files\Microsoft Visual Studio\2022\Community\VC\Tools\MSVC\14.43.34808\include\xmemory
; File D:\Program Files\Microsoft Visual Studio\2022\Community\VC\Tools\MSVC\14.43.34808\include\xtree
; File D:\Program Files\Microsoft Visual Studio\2022\Community\VC\Tools\MSVC\14.43.34808\include\xmemory
; File D:\Program Files\Microsoft Visual Studio\2022\Community\VC\Tools\MSVC\14.43.34808\include\xtree
; File D:\Program Files\Microsoft Visual Studio\2022\Community\VC\Tools\MSVC\14.43.34808\include\xmemory
; File D:\Program Files\Microsoft Visual Studio\2022\Community\VC\Tools\MSVC\14.43.34808\include\xtree
; File C:\Marty 5.5\Src-Client\Client\SpeedTreeLib\SpeedTreeForest.cpp
; File D:\Program Files\Microsoft Visual Studio\2022\Community\VC\Tools\MSVC\14.43.34808\include\xtree
; File C:\Marty 5.5\Src-Client\Client\SpeedTreeLib\SpeedTreeForest.cpp
;	COMDAT ?GetMainTree@CSpeedTreeForest@@QAEHKPAPAVCSpeedTreeWrapper@@PBD@Z
_TEXT	SEGMENT
$T2 = -384						; size = 12
__Loc$3 = -372						; size = 12
__Loc$4 = -372						; size = 12
_ppMainTree$GSCopy$1$ = -360				; size = 4
_c_pvData$5 = -356					; size = 4
$T6 = -352						; size = 8
$T7 = -352						; size = 8
$T8 = -348						; size = 4
_c_pszFileName$GSCopy$1$ = -344				; size = 4
_file$9 = -340						; size = 324
__$ArrayPad$ = -16					; size = 4
__$EHRec$ = -12						; size = 12
_dwCRC$ = 8						; size = 4
_ppMainTree$ = 12					; size = 4
_c_pszFileName$ = 16					; size = 4
?GetMainTree@CSpeedTreeForest@@QAEHKPAPAVCSpeedTreeWrapper@@PBD@Z PROC ; CSpeedTreeForest::GetMainTree, COMDAT
; _this$ = ecx

; 69   : {

  00000	55		 push	 ebp
  00001	8b ec		 mov	 ebp, esp
  00003	6a ff		 push	 -1
  00005	68 00 00 00 00	 push	 __ehhandler$?GetMainTree@CSpeedTreeForest@@QAEHKPAPAVCSpeedTreeWrapper@@PBD@Z
  0000a	64 a1 00 00 00
	00		 mov	 eax, DWORD PTR fs:0
  00010	50		 push	 eax
  00011	81 ec 74 01 00
	00		 sub	 esp, 372		; 00000174H
  00017	a1 00 00 00 00	 mov	 eax, DWORD PTR ___security_cookie
  0001c	33 c5		 xor	 eax, ebp
  0001e	89 45 f0	 mov	 DWORD PTR __$ArrayPad$[ebp], eax
  00021	53		 push	 ebx
  00022	56		 push	 esi
  00023	57		 push	 edi
  00024	50		 push	 eax
  00025	8d 45 f4	 lea	 eax, DWORD PTR __$EHRec$[ebp]
  00028	64 a3 00 00 00
	00		 mov	 DWORD PTR fs:0, eax
  0002e	8b 45 0c	 mov	 eax, DWORD PTR _ppMainTree$[ebp]

; 70   : 	TTreeMap::iterator itor = m_pMainTreeMap.find(dwCRC);

  00031	8d 59 04	 lea	 ebx, DWORD PTR [ecx+4]
  00034	89 85 98 fe ff
	ff		 mov	 DWORD PTR _ppMainTree$GSCopy$1$[ebp], eax
; File D:\Program Files\Microsoft Visual Studio\2022\Community\VC\Tools\MSVC\14.43.34808\include\xtree

; 1374 :         const _Tree_find_result<_Nodeptr> _Loc = _Find_lower_bound(_Keyval);

  0003a	8b cb		 mov	 ecx, ebx
; File C:\Marty 5.5\Src-Client\Client\SpeedTreeLib\SpeedTreeForest.cpp

; 69   : {

  0003c	8b 45 10	 mov	 eax, DWORD PTR _c_pszFileName$[ebp]
  0003f	89 85 a8 fe ff
	ff		 mov	 DWORD PTR _c_pszFileName$GSCopy$1$[ebp], eax
; File D:\Program Files\Microsoft Visual Studio\2022\Community\VC\Tools\MSVC\14.43.34808\include\xtree

; 1374 :         const _Tree_find_result<_Nodeptr> _Loc = _Find_lower_bound(_Keyval);

  00045	8d 45 08	 lea	 eax, DWORD PTR _dwCRC$[ebp]
  00048	50		 push	 eax
  00049	8d 85 8c fe ff
	ff		 lea	 eax, DWORD PTR __Loc$3[ebp]
  0004f	50		 push	 eax
  00050	e8 00 00 00 00	 call	 ??$_Find_lower_bound@K@?$_Tree@V?$_Tmap_traits@KPAVCSpeedTreeWrapper@@U?$less@K@std@@V?$allocator@U?$pair@$$CBKPAVCSpeedTreeWrapper@@@std@@@3@$0A@@std@@@std@@IBE?AU?$_Tree_find_result@PAU?$_Tree_node@U?$pair@$$CBKPAVCSpeedTreeWrapper@@@std@@PAX@std@@@1@ABK@Z ; std::_Tree<std::_Tmap_traits<unsigned long,CSpeedTreeWrapper *,std::less<unsigned long>,std::allocator<std::pair<unsigned long const ,CSpeedTreeWrapper *> >,0> >::_Find_lower_bound<unsigned long>

; 1614 :         return !_Bound->_Isnil && !_DEBUG_LT_PRED(_Getcomp(), _Keyval, _Traits::_Kfn(_Bound->_Myval));

  00055	8b bd 94 fe ff
	ff		 mov	 edi, DWORD PTR __Loc$3[ebp+8]
  0005b	8b 75 08	 mov	 esi, DWORD PTR _dwCRC$[ebp]
  0005e	80 7f 0d 00	 cmp	 BYTE PTR [edi+13], 0
  00062	75 1e		 jne	 SHORT $LN2@GetMainTre
; File D:\Program Files\Microsoft Visual Studio\2022\Community\VC\Tools\MSVC\14.43.34808\include\type_traits

; 2412 :         return _Left < _Right;

  00064	3b 77 10	 cmp	 esi, DWORD PTR [edi+16]
; File D:\Program Files\Microsoft Visual Studio\2022\Community\VC\Tools\MSVC\14.43.34808\include\xtree

; 1614 :         return !_Bound->_Isnil && !_DEBUG_LT_PRED(_Getcomp(), _Keyval, _Traits::_Kfn(_Bound->_Myval));

  00067	72 19		 jb	 SHORT $LN2@GetMainTre

; 37   :     _Tree_unchecked_const_iterator(_Nodeptr _Pnode, const _Mytree* _Plist) noexcept : _Ptr(_Pnode) {

  00069	3b 3b		 cmp	 edi, DWORD PTR [ebx]
; File C:\Marty 5.5\Src-Client\Client\SpeedTreeLib\SpeedTreeForest.cpp

; 74   : 	if (itor != m_pMainTreeMap.end())

  0006b	74 15		 je	 SHORT $LN2@GetMainTre

; 99   : 
; 100  : 	*ppMainTree = pTree;

  0006d	8b 85 98 fe ff
	ff		 mov	 eax, DWORD PTR _ppMainTree$GSCopy$1$[ebp]
  00073	8b 7f 14	 mov	 edi, DWORD PTR [edi+20]
  00076	89 38		 mov	 DWORD PTR [eax], edi

; 101  : 	return TRUE;

  00078	b8 01 00 00 00	 mov	 eax, 1
  0007d	e9 b1 00 00 00	 jmp	 $LN1@GetMainTre
$LN2@GetMainTre:

; 75   : 		pTree = itor->second;
; 76   : 	else
; 77   : 	{
; 78   : 		CMappedFile file;

  00082	8d 8d ac fe ff
	ff		 lea	 ecx, DWORD PTR _file$9[ebp]
  00088	e8 00 00 00 00	 call	 ??0CMappedFile@@QAE@XZ	; CMappedFile::CMappedFile

; 79   : 		LPCVOID c_pvData;
; 80   : 
; 81   : 		if (!CEterPackManager::Instance().Get(file, c_pszFileName, &c_pvData))

  0008d	8b 0d 00 00 00
	00		 mov	 ecx, DWORD PTR ?ms_singleton@?$CSingleton@VCEterPackManager@@@@0PAVCEterPackManager@@A ; CSingleton<CEterPackManager>::ms_singleton
  00093	8d 85 9c fe ff
	ff		 lea	 eax, DWORD PTR _c_pvData$5[ebp]
  00099	50		 push	 eax
  0009a	ff b5 a8 fe ff
	ff		 push	 DWORD PTR _c_pszFileName$GSCopy$1$[ebp]
  000a0	8d 85 ac fe ff
	ff		 lea	 eax, DWORD PTR _file$9[ebp]
  000a6	c7 45 fc 00 00
	00 00		 mov	 DWORD PTR __$EHRec$[ebp+8], 0
  000ad	50		 push	 eax
  000ae	e8 00 00 00 00	 call	 ?Get@CEterPackManager@@QAE_NAAVCMappedFile@@PBDPAPBX@Z ; CEterPackManager::Get
  000b3	84 c0		 test	 al, al
  000b5	74 6f		 je	 SHORT $LN9@GetMainTre

; 82   : 			return FALSE;
; 83   : 
; 84   : 		pTree = new CSpeedTreeWrapper;

  000b7	68 30 03 00 00	 push	 816			; 00000330H
  000bc	e8 00 00 00 00	 call	 ??2@YAPAXI@Z		; operator new
  000c1	83 c4 04	 add	 esp, 4
  000c4	89 85 a4 fe ff
	ff		 mov	 DWORD PTR $T8[ebp], eax
  000ca	c6 45 fc 01	 mov	 BYTE PTR __$EHRec$[ebp+8], 1
  000ce	85 c0		 test	 eax, eax
  000d0	74 0b		 je	 SHORT $LN7@GetMainTre
  000d2	8b c8		 mov	 ecx, eax
  000d4	e8 00 00 00 00	 call	 ??0CSpeedTreeWrapper@@QAE@XZ ; CSpeedTreeWrapper::CSpeedTreeWrapper
  000d9	8b f8		 mov	 edi, eax
  000db	eb 02		 jmp	 SHORT $LN8@GetMainTre
$LN7@GetMainTre:
  000dd	33 ff		 xor	 edi, edi
$LN8@GetMainTre:

; 85   : 
; 86   : 		if (!pTree->LoadTree(c_pszFileName, (const BYTE *) c_pvData, file.Size()))

  000df	83 ec 08	 sub	 esp, 8
  000e2	c6 45 fc 00	 mov	 BYTE PTR __$EHRec$[ebp+8], 0
  000e6	8d 8d ac fe ff
	ff		 lea	 ecx, DWORD PTR _file$9[ebp]
  000ec	c7 44 24 04 00
	00 80 bf	 mov	 DWORD PTR [esp+4], -1082130432 ; bf800000H
  000f4	c7 04 24 00 00
	80 bf		 mov	 DWORD PTR [esp], -1082130432 ; bf800000H
  000fb	6a 01		 push	 1
  000fd	e8 00 00 00 00	 call	 ?Size@CMappedFile@@QAEKXZ ; CMappedFile::Size
  00102	50		 push	 eax
  00103	ff b5 9c fe ff
	ff		 push	 DWORD PTR _c_pvData$5[ebp]
  00109	8b cf		 mov	 ecx, edi
  0010b	ff b5 a8 fe ff
	ff		 push	 DWORD PTR _c_pszFileName$GSCopy$1$[ebp]
  00111	e8 00 00 00 00	 call	 ?LoadTree@CSpeedTreeWrapper@@QAE_NPBDPBEIIMM@Z ; CSpeedTreeWrapper::LoadTree
  00116	84 c0		 test	 al, al
  00118	75 37		 jne	 SHORT $LN5@GetMainTre

; 87   : 		{
; 88   : 			delete pTree;

  0011a	85 ff		 test	 edi, edi
  0011c	74 08		 je	 SHORT $LN9@GetMainTre
  0011e	8b 07		 mov	 eax, DWORD PTR [edi]
  00120	8b cf		 mov	 ecx, edi
  00122	6a 01		 push	 1
  00124	ff 10		 call	 DWORD PTR [eax]
$LN9@GetMainTre:

; 89   : 
; 90   : 			pTree = nullptr; //@natanek144
; 91   : 
; 92   : 			return FALSE;

  00126	8d 8d ac fe ff
	ff		 lea	 ecx, DWORD PTR _file$9[ebp]
  0012c	e8 00 00 00 00	 call	 ??1CMappedFile@@UAE@XZ	; CMappedFile::~CMappedFile
  00131	33 c0		 xor	 eax, eax
$LN1@GetMainTre:

; 102  : }

  00133	8b 4d f4	 mov	 ecx, DWORD PTR __$EHRec$[ebp]
  00136	64 89 0d 00 00
	00 00		 mov	 DWORD PTR fs:0, ecx
  0013d	59		 pop	 ecx
  0013e	5f		 pop	 edi
  0013f	5e		 pop	 esi
  00140	5b		 pop	 ebx
  00141	8b 4d f0	 mov	 ecx, DWORD PTR __$ArrayPad$[ebp]
  00144	33 cd		 xor	 ecx, ebp
  00146	e8 00 00 00 00	 call	 @__security_check_cookie@4
  0014b	8b e5		 mov	 esp, ebp
  0014d	5d		 pop	 ebp
  0014e	c2 0c 00	 ret	 12			; 0000000cH
$LN5@GetMainTre:
; File D:\Program Files\Microsoft Visual Studio\2022\Community\VC\Tools\MSVC\14.43.34808\include\xtree

; 1007 :             _Loc                = _Find_lower_bound(_Keyval);

  00151	8d 85 a0 fe ff
	ff		 lea	 eax, DWORD PTR $T6[ebp]
; File D:\Program Files\Microsoft Visual Studio\2022\Community\VC\Tools\MSVC\14.43.34808\include\utility

; 274  :         : first(_STD forward<_Other1>(_Val1)), second(_STD forward<_Other2>(_Val2)) {

  00157	89 b5 a0 fe ff
	ff		 mov	 DWORD PTR $T6[ebp], esi
; File D:\Program Files\Microsoft Visual Studio\2022\Community\VC\Tools\MSVC\14.43.34808\include\xtree

; 1007 :             _Loc                = _Find_lower_bound(_Keyval);

  0015d	50		 push	 eax
  0015e	8d 85 80 fe ff
	ff		 lea	 eax, DWORD PTR $T2[ebp]
; File D:\Program Files\Microsoft Visual Studio\2022\Community\VC\Tools\MSVC\14.43.34808\include\utility

; 274  :         : first(_STD forward<_Other1>(_Val1)), second(_STD forward<_Other2>(_Val2)) {

  00164	89 bd a4 fe ff
	ff		 mov	 DWORD PTR $T6[ebp+4], edi
; File D:\Program Files\Microsoft Visual Studio\2022\Community\VC\Tools\MSVC\14.43.34808\include\xtree

; 1007 :             _Loc                = _Find_lower_bound(_Keyval);

  0016a	50		 push	 eax
  0016b	8b cb		 mov	 ecx, ebx
  0016d	e8 00 00 00 00	 call	 ??$_Find_lower_bound@K@?$_Tree@V?$_Tmap_traits@KPAVCSpeedTreeWrapper@@U?$less@K@std@@V?$allocator@U?$pair@$$CBKPAVCSpeedTreeWrapper@@@std@@@3@$0A@@std@@@std@@IBE?AU?$_Tree_find_result@PAU?$_Tree_node@U?$pair@$$CBKPAVCSpeedTreeWrapper@@@std@@PAX@std@@@1@ABK@Z ; std::_Tree<std::_Tmap_traits<unsigned long,CSpeedTreeWrapper *,std::less<unsigned long>,std::allocator<std::pair<unsigned long const ,CSpeedTreeWrapper *> >,0> >::_Find_lower_bound<unsigned long>
  00172	f3 0f 7e 00	 movq	 xmm0, QWORD PTR [eax]
  00176	8b 40 08	 mov	 eax, DWORD PTR [eax+8]
  00179	66 0f d6 85 8c
	fe ff ff	 movq	 QWORD PTR __Loc$4[ebp], xmm0

; 1614 :         return !_Bound->_Isnil && !_DEBUG_LT_PRED(_Getcomp(), _Keyval, _Traits::_Kfn(_Bound->_Myval));

  00181	80 78 0d 00	 cmp	 BYTE PTR [eax+13], 0
  00185	75 05		 jne	 SHORT $LN73@GetMainTre
; File D:\Program Files\Microsoft Visual Studio\2022\Community\VC\Tools\MSVC\14.43.34808\include\type_traits

; 2412 :         return _Left < _Right;

  00187	3b 70 10	 cmp	 esi, DWORD PTR [eax+16]
; File D:\Program Files\Microsoft Visual Studio\2022\Community\VC\Tools\MSVC\14.43.34808\include\xtree

; 1614 :         return !_Bound->_Isnil && !_DEBUG_LT_PRED(_Getcomp(), _Keyval, _Traits::_Kfn(_Bound->_Myval));

  0018a	73 58		 jae	 SHORT $LN154@GetMainTre
$LN73@GetMainTre:

; 1638 :         if (max_size() == _Get_scary()->_Mysize) {

  0018c	81 7b 04 aa aa
	aa 0a		 cmp	 DWORD PTR [ebx+4], 178956970 ; 0aaaaaaaH
  00193	74 77		 je	 SHORT $LN176@GetMainTre

; 1013 :             _Inserted = _Tree_temp_node<_Alnode>(_Getal(), _Scary->_Myhead, _STD forward<_Valtys>(_Vals)...)._Release();

  00195	8b 33		 mov	 esi, DWORD PTR [ebx]
; File D:\Program Files\Microsoft Visual Studio\2022\Community\VC\Tools\MSVC\14.43.34808\include\xmemory

; 1156 :     _CONSTEXPR20 explicit _Alloc_construct_ptr(_Alloc& _Al_) : _Al(_Al_), _Ptr(nullptr) {}

  00197	89 9d a0 fe ff
	ff		 mov	 DWORD PTR $T7[ebp], ebx

; 136  :         return ::operator new(_Bytes);

  0019d	6a 18		 push	 24			; 00000018H
; File D:\Program Files\Microsoft Visual Studio\2022\Community\VC\Tools\MSVC\14.43.34808\include\xtree

; 798  :     explicit _Tree_temp_node_alloc(_Alnode& _Al_) : _Alloc_construct_ptr<_Alnode>(_Al_) {

  0019f	c6 45 fc 02	 mov	 BYTE PTR __$EHRec$[ebp+8], 2
; File D:\Program Files\Microsoft Visual Studio\2022\Community\VC\Tools\MSVC\14.43.34808\include\xmemory

; 1163 :         _Ptr = nullptr; // if allocate throws, prevents double-free

  001a3	c7 85 a4 fe ff
	ff 00 00 00 00	 mov	 DWORD PTR $T7[ebp+4], 0

; 136  :         return ::operator new(_Bytes);

  001ad	e8 00 00 00 00	 call	 ??2@YAPAXI@Z		; operator new
; File D:\Program Files\Microsoft Visual Studio\2022\Community\VC\Tools\MSVC\14.43.34808\include\xtree

; 820  :         _Alnode_traits::construct(this->_Al, _STD addressof(this->_Ptr->_Myval), _STD forward<_Valtys>(_Vals)...);

  001b2	8b 4d 08	 mov	 ecx, DWORD PTR _dwCRC$[ebp]
; File D:\Program Files\Microsoft Visual Studio\2022\Community\VC\Tools\MSVC\14.43.34808\include\xmemory

; 136  :         return ::operator new(_Bytes);

  001b5	83 c4 04	 add	 esp, 4
; File D:\Program Files\Microsoft Visual Studio\2022\Community\VC\Tools\MSVC\14.43.34808\include\xtree

; 800  :     }

  001b8	c6 45 fc 00	 mov	 BYTE PTR __$EHRec$[ebp+8], 0

; 820  :         _Alnode_traits::construct(this->_Al, _STD addressof(this->_Ptr->_Myval), _STD forward<_Valtys>(_Vals)...);

  001bc	89 48 10	 mov	 DWORD PTR [eax+16], ecx

; 1032 :         return {_Scary->_Insert_node(_Loc._Location, _Inserted), true};

  001bf	8b cb		 mov	 ecx, ebx
  001c1	50		 push	 eax
  001c2	ff b5 90 fe ff
	ff		 push	 DWORD PTR __Loc$4[ebp+4]

; 820  :         _Alnode_traits::construct(this->_Al, _STD addressof(this->_Ptr->_Myval), _STD forward<_Valtys>(_Vals)...);

  001c8	89 78 14	 mov	 DWORD PTR [eax+20], edi

; 1032 :         return {_Scary->_Insert_node(_Loc._Location, _Inserted), true};

  001cb	ff b5 8c fe ff
	ff		 push	 DWORD PTR __Loc$4[ebp]

; 821  :         _Construct_in_place(this->_Ptr->_Left, _Myhead);

  001d1	89 30		 mov	 DWORD PTR [eax], esi

; 822  :         _Construct_in_place(this->_Ptr->_Parent, _Myhead);

  001d3	89 70 04	 mov	 DWORD PTR [eax+4], esi

; 823  :         _Construct_in_place(this->_Ptr->_Right, _Myhead);

  001d6	89 70 08	 mov	 DWORD PTR [eax+8], esi

; 824  :         this->_Ptr->_Color = _Red;

  001d9	66 c7 40 0c 00
	00		 mov	 WORD PTR [eax+12], 0

; 1032 :         return {_Scary->_Insert_node(_Loc._Location, _Inserted), true};

  001df	e8 00 00 00 00	 call	 ?_Insert_node@?$_Tree_val@U?$_Tree_simple_types@U?$pair@$$CBKPAVCSpeedTreeWrapper@@@std@@@std@@@std@@QAEPAU?$_Tree_node@U?$pair@$$CBKPAVCSpeedTreeWrapper@@@std@@PAX@2@U?$_Tree_id@PAU?$_Tree_node@U?$pair@$$CBKPAVCSpeedTreeWrapper@@@std@@PAX@std@@@2@QAU32@@Z ; std::_Tree_val<std::_Tree_simple_types<std::pair<unsigned long const ,CSpeedTreeWrapper *> > >::_Insert_node
$LN154@GetMainTre:
; File C:\Marty 5.5\Src-Client\Client\SpeedTreeLib\SpeedTreeForest.cpp

; 97   : 		file.Destroy();

  001e4	8d 8d ac fe ff
	ff		 lea	 ecx, DWORD PTR _file$9[ebp]
  001ea	e8 00 00 00 00	 call	 ?Destroy@CMappedFile@@QAEXXZ ; CMappedFile::Destroy

; 98   : 	}

  001ef	8d 8d ac fe ff
	ff		 lea	 ecx, DWORD PTR _file$9[ebp]
  001f5	e8 00 00 00 00	 call	 ??1CMappedFile@@UAE@XZ	; CMappedFile::~CMappedFile

; 99   : 
; 100  : 	*ppMainTree = pTree;

  001fa	8b 85 98 fe ff
	ff		 mov	 eax, DWORD PTR _ppMainTree$GSCopy$1$[ebp]
  00200	89 38		 mov	 DWORD PTR [eax], edi

; 101  : 	return TRUE;

  00202	b8 01 00 00 00	 mov	 eax, 1
  00207	e9 27 ff ff ff	 jmp	 $LN1@GetMainTre
$LN176@GetMainTre:
; File D:\Program Files\Microsoft Visual Studio\2022\Community\VC\Tools\MSVC\14.43.34808\include\xtree

; 1639 :             _Throw_tree_length_error();

  0020c	e8 00 00 00 00	 call	 ?_Throw_tree_length_error@std@@YAXXZ ; std::_Throw_tree_length_error
$LN174@GetMainTre:
  00211	cc		 int	 3
_TEXT	ENDS
;	COMDAT text$x
text$x	SEGMENT
__unwindfunclet$?GetMainTree@CSpeedTreeForest@@QAEHKPAPAVCSpeedTreeWrapper@@PBD@Z$0:
  00000	8d 8d ac fe ff
	ff		 lea	 ecx, DWORD PTR _file$9[ebp]
  00006	e9 00 00 00 00	 jmp	 ??1CMappedFile@@UAE@XZ	; CMappedFile::~CMappedFile
__unwindfunclet$?GetMainTree@CSpeedTreeForest@@QAEHKPAPAVCSpeedTreeWrapper@@PBD@Z$1:
  0000b	68 30 03 00 00	 push	 816			; 00000330H
  00010	8b 85 a4 fe ff
	ff		 mov	 eax, DWORD PTR $T8[ebp]
  00016	50		 push	 eax
  00017	e8 00 00 00 00	 call	 ??3@YAXPAXI@Z		; operator delete
  0001c	83 c4 08	 add	 esp, 8
  0001f	c3		 ret	 0
__unwindfunclet$?GetMainTree@CSpeedTreeForest@@QAEHKPAPAVCSpeedTreeWrapper@@PBD@Z$4:
  00020	8d 8d a0 fe ff
	ff		 lea	 ecx, DWORD PTR $T7[ebp]
  00026	e9 00 00 00 00	 jmp	 ??1?$_Alloc_construct_ptr@V?$allocator@U?$_Tree_node@U?$pair@$$CBKPAVCSpeedTreeWrapper@@@std@@PAX@std@@@std@@@std@@QAE@XZ ; std::_Alloc_construct_ptr<std::allocator<std::_Tree_node<std::pair<unsigned long const ,CSpeedTreeWrapper *>,void *> > >::~_Alloc_construct_ptr<std::allocator<std::_Tree_node<std::pair<unsigned long const ,CSpeedTreeWrapper *>,void *> > >
  0002b	cc		 int	 3
  0002c	cc		 int	 3
  0002d	cc		 int	 3
  0002e	cc		 int	 3
  0002f	cc		 int	 3
__ehhandler$?GetMainTree@CSpeedTreeForest@@QAEHKPAPAVCSpeedTreeWrapper@@PBD@Z:
  00030	90		 npad	 1
  00031	90		 npad	 1
  00032	8b 54 24 08	 mov	 edx, DWORD PTR [esp+8]
  00036	8d 42 0c	 lea	 eax, DWORD PTR [edx+12]
  00039	8b 8a 7c fe ff
	ff		 mov	 ecx, DWORD PTR [edx-388]
  0003f	33 c8		 xor	 ecx, eax
  00041	e8 00 00 00 00	 call	 @__security_check_cookie@4
  00046	8b 4a fc	 mov	 ecx, DWORD PTR [edx-4]
  00049	33 c8		 xor	 ecx, eax
  0004b	e8 00 00 00 00	 call	 @__security_check_cookie@4
  00050	b8 00 00 00 00	 mov	 eax, OFFSET __ehfuncinfo$?GetMainTree@CSpeedTreeForest@@QAEHKPAPAVCSpeedTreeWrapper@@PBD@Z
  00055	e9 00 00 00 00	 jmp	 ___CxxFrameHandler3
text$x	ENDS
?GetMainTree@CSpeedTreeForest@@QAEHKPAPAVCSpeedTreeWrapper@@PBD@Z ENDP ; CSpeedTreeForest::GetMainTree
; Function compile flags: /Ogtp
; File C:\Marty 5.5\Src-Client\Client\SpeedTreeLib\SpeedTreeForest.cpp
;	COMDAT ??1CSpeedTreeForest@@UAE@XZ
_TEXT	SEGMENT
__$EHRec$ = -12						; size = 12
??1CSpeedTreeForest@@UAE@XZ PROC			; CSpeedTreeForest::~CSpeedTreeForest, COMDAT
; _this$ = ecx

; 35   : {

  00000	55		 push	 ebp
  00001	8b ec		 mov	 ebp, esp
  00003	6a ff		 push	 -1
  00005	68 00 00 00 00	 push	 __ehhandler$??1CSpeedTreeForest@@UAE@XZ
  0000a	64 a1 00 00 00
	00		 mov	 eax, DWORD PTR fs:0
  00010	50		 push	 eax
  00011	56		 push	 esi
  00012	a1 00 00 00 00	 mov	 eax, DWORD PTR ___security_cookie
  00017	33 c5		 xor	 eax, ebp
  00019	50		 push	 eax
  0001a	8d 45 f4	 lea	 eax, DWORD PTR __$EHRec$[ebp]
  0001d	64 a3 00 00 00
	00		 mov	 DWORD PTR fs:0, eax
  00023	8b f1		 mov	 esi, ecx
  00025	c7 06 00 00 00
	00		 mov	 DWORD PTR [esi], OFFSET ??_7CSpeedTreeForest@@6B@

; 36   : 	Clear();

  0002b	e8 00 00 00 00	 call	 ?Clear@CSpeedTreeForest@@QAEXXZ ; CSpeedTreeForest::Clear

; 37   : }

  00030	8d 4e 04	 lea	 ecx, DWORD PTR [esi+4]
  00033	e8 00 00 00 00	 call	 ??1?$_Tree@V?$_Tmap_traits@KPAVCSpeedTreeWrapper@@U?$less@K@std@@V?$allocator@U?$pair@$$CBKPAVCSpeedTreeWrapper@@@std@@@3@$0A@@std@@@std@@QAE@XZ ; std::_Tree<std::_Tmap_traits<unsigned long,CSpeedTreeWrapper *,std::less<unsigned long>,std::allocator<std::pair<unsigned long const ,CSpeedTreeWrapper *> >,0> >::~_Tree<std::_Tmap_traits<unsigned long,CSpeedTreeWrapper *,std::less<unsigned long>,std::allocator<std::pair<unsigned long const ,CSpeedTreeWrapper *> >,0> >
  00038	8b 4d f4	 mov	 ecx, DWORD PTR __$EHRec$[ebp]
  0003b	64 89 0d 00 00
	00 00		 mov	 DWORD PTR fs:0, ecx
  00042	59		 pop	 ecx
  00043	5e		 pop	 esi
  00044	8b e5		 mov	 esp, ebp
  00046	5d		 pop	 ebp
  00047	c3		 ret	 0
  00048	cc		 int	 3
  00049	cc		 int	 3
  0004a	cc		 int	 3
  0004b	cc		 int	 3
  0004c	cc		 int	 3
_TEXT	ENDS
;	COMDAT text$x
text$x	SEGMENT
__ehhandler$??1CSpeedTreeForest@@UAE@XZ:
  00000	90		 npad	 1
  00001	90		 npad	 1
  00002	8b 54 24 08	 mov	 edx, DWORD PTR [esp+8]
  00006	8d 42 0c	 lea	 eax, DWORD PTR [edx+12]
  00009	8b 4a f8	 mov	 ecx, DWORD PTR [edx-8]
  0000c	33 c8		 xor	 ecx, eax
  0000e	e8 00 00 00 00	 call	 @__security_check_cookie@4
  00013	b8 00 00 00 00	 mov	 eax, OFFSET __ehfuncinfo$??1CSpeedTreeForest@@UAE@XZ
  00018	e9 00 00 00 00	 jmp	 ___CxxFrameHandler3
text$x	ENDS
??1CSpeedTreeForest@@UAE@XZ ENDP			; CSpeedTreeForest::~CSpeedTreeForest
; Function compile flags: /Ogtp
; File C:\Marty 5.5\Src-Client\Client\SpeedTreeLib\SpeedTreeForest.cpp
; File D:\Program Files\Microsoft Visual Studio\2022\Community\VC\Tools\MSVC\14.43.34808\include\xmemory
; File C:\Marty 5.5\Src-Client\Client\SpeedTreeLib\SpeedTreeForest.cpp
; File D:\Program Files\Microsoft Visual Studio\2022\Community\VC\Tools\MSVC\14.43.34808\include\xtree
; File D:\Program Files\Microsoft Visual Studio\2022\Community\VC\Tools\MSVC\14.43.34808\include\xmemory
; File D:\Program Files\Microsoft Visual Studio\2022\Community\VC\Tools\MSVC\14.43.34808\include\xtree
; File C:\Marty 5.5\Src-Client\Client\SpeedTreeLib\SpeedTreeForest.cpp
;	COMDAT ??0CSpeedTreeForest@@QAE@XZ
_TEXT	SEGMENT
_this$ = -20						; size = 4
_this$ = -16						; size = 4
__$EHRec$ = -12						; size = 12
??0CSpeedTreeForest@@QAE@XZ PROC			; CSpeedTreeForest::CSpeedTreeForest, COMDAT
; _this$ = ecx

; 23   : {

  00000	55		 push	 ebp
  00001	8b ec		 mov	 ebp, esp
  00003	6a ff		 push	 -1
  00005	68 00 00 00 00	 push	 __ehhandler$??0CSpeedTreeForest@@QAE@XZ
  0000a	64 a1 00 00 00
	00		 mov	 eax, DWORD PTR fs:0
  00010	50		 push	 eax
  00011	83 ec 08	 sub	 esp, 8
  00014	56		 push	 esi
  00015	57		 push	 edi
  00016	a1 00 00 00 00	 mov	 eax, DWORD PTR ___security_cookie
  0001b	33 c5		 xor	 eax, ebp
  0001d	50		 push	 eax
  0001e	8d 45 f4	 lea	 eax, DWORD PTR __$EHRec$[ebp]
  00021	64 a3 00 00 00
	00		 mov	 DWORD PTR fs:0, eax
  00027	8b f9		 mov	 edi, ecx
  00029	89 7d f0	 mov	 DWORD PTR _this$[ebp], edi
  0002c	8d 77 04	 lea	 esi, DWORD PTR [edi+4]
  0002f	c7 07 00 00 00
	00		 mov	 DWORD PTR [edi], OFFSET ??_7CSpeedTreeForest@@6B@
; File D:\Program Files\Microsoft Visual Studio\2022\Community\VC\Tools\MSVC\14.43.34808\include\xmemory

; 136  :         return ::operator new(_Bytes);

  00035	6a 18		 push	 24			; 00000018H
; File C:\Marty 5.5\Src-Client\Client\SpeedTreeLib\SpeedTreeForest.cpp

; 23   : {

  00037	89 75 ec	 mov	 DWORD PTR _this$[ebp], esi
; File D:\Program Files\Microsoft Visual Studio\2022\Community\VC\Tools\MSVC\14.43.34808\include\xtree

; 450  :     _Tree_val() noexcept : _Myhead(), _Mysize(0) {}

  0003a	c7 06 00 00 00
	00		 mov	 DWORD PTR [esi], 0
  00040	c7 46 04 00 00
	00 00		 mov	 DWORD PTR [esi+4], 0
; File D:\Program Files\Microsoft Visual Studio\2022\Community\VC\Tools\MSVC\14.43.34808\include\xmemory

; 136  :         return ::operator new(_Bytes);

  00047	e8 00 00 00 00	 call	 ??2@YAPAXI@Z		; operator new
; File D:\Program Files\Microsoft Visual Studio\2022\Community\VC\Tools\MSVC\14.43.34808\include\xtree

; 346  :         _Construct_in_place(_Pnode->_Left, _Pnode);

  0004c	89 00		 mov	 DWORD PTR [eax], eax

; 347  :         _Construct_in_place(_Pnode->_Parent, _Pnode);

  0004e	89 40 04	 mov	 DWORD PTR [eax+4], eax

; 348  :         _Construct_in_place(_Pnode->_Right, _Pnode);

  00051	89 40 08	 mov	 DWORD PTR [eax+8], eax

; 349  :         _Pnode->_Color = _Black;

  00054	66 c7 40 0c 01
	01		 mov	 WORD PTR [eax+12], 257	; 00000101H

; 1947 :         _Scary->_Myhead = _Node::_Buyheadnode(_Getal());

  0005a	89 06		 mov	 DWORD PTR [esi], eax
; File C:\Marty 5.5\Src-Client\Client\SpeedTreeLib\SpeedTreeForest.cpp

; 24   : 	CSpeedTreeRT::SetNumWindMatrices(c_nNumWindMatrices);

  0005c	6a 04		 push	 4
  0005e	c7 45 fc 00 00
	00 00		 mov	 DWORD PTR __$EHRec$[ebp+8], 0
  00065	c7 47 64 00 00
	00 00		 mov	 DWORD PTR [edi+100], 0
  0006c	e8 00 00 00 00	 call	 ?SetNumWindMatrices@CSpeedTreeRT@@SAXI@Z ; CSpeedTreeRT::SetNumWindMatrices
  00071	83 c4 08	 add	 esp, 8

; 25   : 
; 26   : 	m_afForestExtents[0] = m_afForestExtents[1] = m_afForestExtents[2] = FLT_MAX;

  00074	c7 47 54 ff ff
	7f 7f		 mov	 DWORD PTR [edi+84], 2139095039 ; 7f7fffffH
  0007b	c7 47 50 ff ff
	7f 7f		 mov	 DWORD PTR [edi+80], 2139095039 ; 7f7fffffH

; 27   : 	m_afForestExtents[3] = m_afForestExtents[4] = m_afForestExtents[5] = -FLT_MAX;
; 28   : }

  00082	8b c7		 mov	 eax, edi
  00084	c7 47 4c ff ff
	7f 7f		 mov	 DWORD PTR [edi+76], 2139095039 ; 7f7fffffH
  0008b	c7 47 60 ff ff
	7f ff		 mov	 DWORD PTR [edi+96], -8388609 ; ff7fffffH
  00092	c7 47 5c ff ff
	7f ff		 mov	 DWORD PTR [edi+92], -8388609 ; ff7fffffH
  00099	c7 47 58 ff ff
	7f ff		 mov	 DWORD PTR [edi+88], -8388609 ; ff7fffffH
  000a0	8b 4d f4	 mov	 ecx, DWORD PTR __$EHRec$[ebp]
  000a3	64 89 0d 00 00
	00 00		 mov	 DWORD PTR fs:0, ecx
  000aa	59		 pop	 ecx
  000ab	5f		 pop	 edi
  000ac	5e		 pop	 esi
  000ad	8b e5		 mov	 esp, ebp
  000af	5d		 pop	 ebp
  000b0	c3		 ret	 0
_TEXT	ENDS
;	COMDAT text$x
text$x	SEGMENT
__unwindfunclet$??0CSpeedTreeForest@@QAE@XZ$0:
  00000	8b 4d f0	 mov	 ecx, DWORD PTR _this$[ebp]
  00003	83 c1 04	 add	 ecx, 4
  00006	e9 00 00 00 00	 jmp	 ??1?$map@KPAVCSpeedTreeWrapper@@U?$less@K@std@@V?$allocator@U?$pair@$$CBKPAVCSpeedTreeWrapper@@@std@@@3@@std@@QAE@XZ
  0000b	cc		 int	 3
  0000c	cc		 int	 3
  0000d	cc		 int	 3
  0000e	cc		 int	 3
  0000f	cc		 int	 3
__ehhandler$??0CSpeedTreeForest@@QAE@XZ:
  00010	90		 npad	 1
  00011	90		 npad	 1
  00012	8b 54 24 08	 mov	 edx, DWORD PTR [esp+8]
  00016	8d 42 0c	 lea	 eax, DWORD PTR [edx+12]
  00019	8b 4a ec	 mov	 ecx, DWORD PTR [edx-20]
  0001c	33 c8		 xor	 ecx, eax
  0001e	e8 00 00 00 00	 call	 @__security_check_cookie@4
  00023	b8 00 00 00 00	 mov	 eax, OFFSET __ehfuncinfo$??0CSpeedTreeForest@@QAE@XZ
  00028	e9 00 00 00 00	 jmp	 ___CxxFrameHandler3
text$x	ENDS
??0CSpeedTreeForest@@QAE@XZ ENDP			; CSpeedTreeForest::CSpeedTreeForest
; Function compile flags: /Ogtp
; File D:\Program Files\Microsoft Visual Studio\2022\Community\VC\Tools\MSVC\14.43.34808\include\xtree
;	COMDAT ?_Throw_tree_length_error@std@@YAXXZ
_TEXT	SEGMENT
?_Throw_tree_length_error@std@@YAXXZ PROC		; std::_Throw_tree_length_error, COMDAT

; 417  :     _Xlength_error("map/set too long");

  00000	68 00 00 00 00	 push	 OFFSET ??_C@_0BB@GCADKGJO@map?1set?5too?5long@
  00005	e8 00 00 00 00	 call	 ?_Xlength_error@std@@YAXPBD@Z ; std::_Xlength_error
$LN3@Throw_tree:
  0000a	cc		 int	 3
?_Throw_tree_length_error@std@@YAXXZ ENDP		; std::_Throw_tree_length_error
_TEXT	ENDS
; Function compile flags: /Ogtp
; File D:\Program Files\Microsoft Visual Studio\2022\Community\VC\Tools\MSVC\14.43.34808\include\xmemory
;	COMDAT ?_Throw_bad_array_new_length@std@@YAXXZ
_TEXT	SEGMENT
$T1 = -12						; size = 12
?_Throw_bad_array_new_length@std@@YAXXZ PROC		; std::_Throw_bad_array_new_length, COMDAT

; 107  : [[noreturn]] inline void _Throw_bad_array_new_length() {

  00000	55		 push	 ebp
  00001	8b ec		 mov	 ebp, esp
  00003	83 ec 0c	 sub	 esp, 12			; 0000000cH

; 108  :     _THROW(bad_array_new_length{});

  00006	8d 4d f4	 lea	 ecx, DWORD PTR $T1[ebp]
  00009	e8 00 00 00 00	 call	 ??0bad_array_new_length@std@@QAE@XZ ; std::bad_array_new_length::bad_array_new_length
  0000e	68 00 00 00 00	 push	 OFFSET __TI3?AVbad_array_new_length@std@@
  00013	8d 45 f4	 lea	 eax, DWORD PTR $T1[ebp]
  00016	50		 push	 eax
  00017	e8 00 00 00 00	 call	 __CxxThrowException@8
$LN3@Throw_bad_:
  0001c	cc		 int	 3
?_Throw_bad_array_new_length@std@@YAXXZ ENDP		; std::_Throw_bad_array_new_length
_TEXT	ENDS
; Function compile flags: /Ogtp
; File D:\Program Files\Microsoft Visual Studio\2022\Community\VC\Tools\MSVC\14.43.34808\include\vcruntime_exception.h
;	COMDAT ??_Gbad_array_new_length@std@@UAEPAXI@Z
_TEXT	SEGMENT
___flags$ = 8						; size = 4
??_Gbad_array_new_length@std@@UAEPAXI@Z PROC		; std::bad_array_new_length::`scalar deleting destructor', COMDAT
; _this$ = ecx
  00000	55		 push	 ebp
  00001	8b ec		 mov	 ebp, esp

; 90   :     {

  00003	56		 push	 esi
  00004	8b f1		 mov	 esi, ecx

; 91   :         __std_exception_destroy(&_Data);

  00006	8d 46 04	 lea	 eax, DWORD PTR [esi+4]
  00009	c7 06 00 00 00
	00		 mov	 DWORD PTR [esi], OFFSET ??_7exception@std@@6B@
  0000f	50		 push	 eax
  00010	e8 00 00 00 00	 call	 ___std_exception_destroy
  00015	83 c4 04	 add	 esp, 4
  00018	f6 45 08 01	 test	 BYTE PTR ___flags$[ebp], 1
  0001c	74 0b		 je	 SHORT $LN18@scalar
  0001e	6a 0c		 push	 12			; 0000000cH
  00020	56		 push	 esi
  00021	e8 00 00 00 00	 call	 ??3@YAXPAXI@Z		; operator delete
  00026	83 c4 08	 add	 esp, 8
$LN18@scalar:
  00029	8b c6		 mov	 eax, esi
  0002b	5e		 pop	 esi
  0002c	5d		 pop	 ebp
  0002d	c2 04 00	 ret	 4
??_Gbad_array_new_length@std@@UAEPAXI@Z ENDP		; std::bad_array_new_length::`scalar deleting destructor'
_TEXT	ENDS
; Function compile flags: /Ogtp
; File D:\Program Files\Microsoft Visual Studio\2022\Community\VC\Tools\MSVC\14.43.34808\include\vcruntime_exception.h
;	COMDAT ??0bad_array_new_length@std@@QAE@ABV01@@Z
_TEXT	SEGMENT
___that$ = 8						; size = 4
??0bad_array_new_length@std@@QAE@ABV01@@Z PROC		; std::bad_array_new_length::bad_array_new_length, COMDAT
; _this$ = ecx
  00000	55		 push	 ebp
  00001	8b ec		 mov	 ebp, esp

; 73   :     {

  00003	56		 push	 esi
  00004	8b f1		 mov	 esi, ecx
  00006	0f 57 c0	 xorps	 xmm0, xmm0

; 72   :         : _Data()

  00009	8d 46 04	 lea	 eax, DWORD PTR [esi+4]

; 74   :         __std_exception_copy(&_Other._Data, &_Data);

  0000c	50		 push	 eax
  0000d	c7 06 00 00 00
	00		 mov	 DWORD PTR [esi], OFFSET ??_7exception@std@@6B@
  00013	66 0f d6 00	 movq	 QWORD PTR [eax], xmm0
  00017	8b 45 08	 mov	 eax, DWORD PTR ___that$[ebp]
  0001a	83 c0 04	 add	 eax, 4
  0001d	50		 push	 eax
  0001e	e8 00 00 00 00	 call	 ___std_exception_copy
  00023	83 c4 08	 add	 esp, 8
  00026	c7 06 00 00 00
	00		 mov	 DWORD PTR [esi], OFFSET ??_7bad_array_new_length@std@@6B@
  0002c	8b c6		 mov	 eax, esi
  0002e	5e		 pop	 esi
  0002f	5d		 pop	 ebp
  00030	c2 04 00	 ret	 4
??0bad_array_new_length@std@@QAE@ABV01@@Z ENDP		; std::bad_array_new_length::bad_array_new_length
_TEXT	ENDS
; Function compile flags: /Ogtp
; File D:\Program Files\Microsoft Visual Studio\2022\Community\VC\Tools\MSVC\14.43.34808\include\vcruntime_exception.h
;	COMDAT ??1bad_array_new_length@std@@UAE@XZ
_TEXT	SEGMENT
??1bad_array_new_length@std@@UAE@XZ PROC		; std::bad_array_new_length::~bad_array_new_length, COMDAT
; _this$ = ecx

; 91   :         __std_exception_destroy(&_Data);

  00000	8d 41 04	 lea	 eax, DWORD PTR [ecx+4]
  00003	c7 01 00 00 00
	00		 mov	 DWORD PTR [ecx], OFFSET ??_7exception@std@@6B@
  00009	50		 push	 eax
  0000a	e8 00 00 00 00	 call	 ___std_exception_destroy
  0000f	59		 pop	 ecx
  00010	c3		 ret	 0
??1bad_array_new_length@std@@UAE@XZ ENDP		; std::bad_array_new_length::~bad_array_new_length
_TEXT	ENDS
; Function compile flags: /Ogtp
; File D:\Program Files\Microsoft Visual Studio\2022\Community\VC\Tools\MSVC\14.43.34808\include\vcruntime_exception.h
;	COMDAT ??0bad_array_new_length@std@@QAE@XZ
_TEXT	SEGMENT
??0bad_array_new_length@std@@QAE@XZ PROC		; std::bad_array_new_length::bad_array_new_length, COMDAT
; _this$ = ecx

; 144  :     {

  00000	0f 57 c0	 xorps	 xmm0, xmm0

; 145  :     }

  00003	8b c1		 mov	 eax, ecx

; 66   :         : _Data()

  00005	66 0f d6 41 04	 movq	 QWORD PTR [ecx+4], xmm0

; 67   :     {
; 68   :         _Data._What = _Message;

  0000a	c7 41 04 00 00
	00 00		 mov	 DWORD PTR [ecx+4], OFFSET ??_C@_0BF@KINCDENJ@bad?5array?5new?5length@

; 144  :     {

  00011	c7 01 00 00 00
	00		 mov	 DWORD PTR [ecx], OFFSET ??_7bad_array_new_length@std@@6B@

; 145  :     }

  00017	c3		 ret	 0
??0bad_array_new_length@std@@QAE@XZ ENDP		; std::bad_array_new_length::bad_array_new_length
_TEXT	ENDS
; Function compile flags: /Ogtp
; File D:\Program Files\Microsoft Visual Studio\2022\Community\VC\Tools\MSVC\14.43.34808\include\vcruntime_exception.h
;	COMDAT ??_Gbad_alloc@std@@UAEPAXI@Z
_TEXT	SEGMENT
___flags$ = 8						; size = 4
??_Gbad_alloc@std@@UAEPAXI@Z PROC			; std::bad_alloc::`scalar deleting destructor', COMDAT
; _this$ = ecx
  00000	55		 push	 ebp
  00001	8b ec		 mov	 ebp, esp

; 90   :     {

  00003	56		 push	 esi
  00004	8b f1		 mov	 esi, ecx

; 91   :         __std_exception_destroy(&_Data);

  00006	8d 46 04	 lea	 eax, DWORD PTR [esi+4]
  00009	c7 06 00 00 00
	00		 mov	 DWORD PTR [esi], OFFSET ??_7exception@std@@6B@
  0000f	50		 push	 eax
  00010	e8 00 00 00 00	 call	 ___std_exception_destroy
  00015	83 c4 04	 add	 esp, 4
  00018	f6 45 08 01	 test	 BYTE PTR ___flags$[ebp], 1
  0001c	74 0b		 je	 SHORT $LN13@scalar
  0001e	6a 0c		 push	 12			; 0000000cH
  00020	56		 push	 esi
  00021	e8 00 00 00 00	 call	 ??3@YAXPAXI@Z		; operator delete
  00026	83 c4 08	 add	 esp, 8
$LN13@scalar:
  00029	8b c6		 mov	 eax, esi
  0002b	5e		 pop	 esi
  0002c	5d		 pop	 ebp
  0002d	c2 04 00	 ret	 4
??_Gbad_alloc@std@@UAEPAXI@Z ENDP			; std::bad_alloc::`scalar deleting destructor'
_TEXT	ENDS
; Function compile flags: /Ogtp
; File D:\Program Files\Microsoft Visual Studio\2022\Community\VC\Tools\MSVC\14.43.34808\include\vcruntime_exception.h
;	COMDAT ??0bad_alloc@std@@QAE@ABV01@@Z
_TEXT	SEGMENT
___that$ = 8						; size = 4
??0bad_alloc@std@@QAE@ABV01@@Z PROC			; std::bad_alloc::bad_alloc, COMDAT
; _this$ = ecx
  00000	55		 push	 ebp
  00001	8b ec		 mov	 ebp, esp

; 73   :     {

  00003	56		 push	 esi
  00004	8b f1		 mov	 esi, ecx
  00006	0f 57 c0	 xorps	 xmm0, xmm0

; 72   :         : _Data()

  00009	8d 46 04	 lea	 eax, DWORD PTR [esi+4]

; 74   :         __std_exception_copy(&_Other._Data, &_Data);

  0000c	50		 push	 eax
  0000d	c7 06 00 00 00
	00		 mov	 DWORD PTR [esi], OFFSET ??_7exception@std@@6B@
  00013	66 0f d6 00	 movq	 QWORD PTR [eax], xmm0
  00017	8b 45 08	 mov	 eax, DWORD PTR ___that$[ebp]
  0001a	83 c0 04	 add	 eax, 4
  0001d	50		 push	 eax
  0001e	e8 00 00 00 00	 call	 ___std_exception_copy
  00023	83 c4 08	 add	 esp, 8
  00026	c7 06 00 00 00
	00		 mov	 DWORD PTR [esi], OFFSET ??_7bad_alloc@std@@6B@
  0002c	8b c6		 mov	 eax, esi
  0002e	5e		 pop	 esi
  0002f	5d		 pop	 ebp
  00030	c2 04 00	 ret	 4
??0bad_alloc@std@@QAE@ABV01@@Z ENDP			; std::bad_alloc::bad_alloc
_TEXT	ENDS
; Function compile flags: /Ogtp
; File D:\Program Files\Microsoft Visual Studio\2022\Community\VC\Tools\MSVC\14.43.34808\include\vcruntime_exception.h
;	COMDAT ??_Gexception@std@@UAEPAXI@Z
_TEXT	SEGMENT
___flags$ = 8						; size = 4
??_Gexception@std@@UAEPAXI@Z PROC			; std::exception::`scalar deleting destructor', COMDAT
; _this$ = ecx
  00000	55		 push	 ebp
  00001	8b ec		 mov	 ebp, esp

; 90   :     {

  00003	56		 push	 esi
  00004	8b f1		 mov	 esi, ecx

; 91   :         __std_exception_destroy(&_Data);

  00006	8d 46 04	 lea	 eax, DWORD PTR [esi+4]
  00009	c7 06 00 00 00
	00		 mov	 DWORD PTR [esi], OFFSET ??_7exception@std@@6B@
  0000f	50		 push	 eax
  00010	e8 00 00 00 00	 call	 ___std_exception_destroy
  00015	83 c4 04	 add	 esp, 4
  00018	f6 45 08 01	 test	 BYTE PTR ___flags$[ebp], 1
  0001c	74 0b		 je	 SHORT $LN8@scalar
  0001e	6a 0c		 push	 12			; 0000000cH
  00020	56		 push	 esi
  00021	e8 00 00 00 00	 call	 ??3@YAXPAXI@Z		; operator delete
  00026	83 c4 08	 add	 esp, 8
$LN8@scalar:
  00029	8b c6		 mov	 eax, esi
  0002b	5e		 pop	 esi
  0002c	5d		 pop	 ebp
  0002d	c2 04 00	 ret	 4
??_Gexception@std@@UAEPAXI@Z ENDP			; std::exception::`scalar deleting destructor'
_TEXT	ENDS
; Function compile flags: /Ogtp
; File D:\Program Files\Microsoft Visual Studio\2022\Community\VC\Tools\MSVC\14.43.34808\include\vcruntime_exception.h
;	COMDAT ?what@exception@std@@UBEPBDXZ
_TEXT	SEGMENT
?what@exception@std@@UBEPBDXZ PROC			; std::exception::what, COMDAT
; _this$ = ecx

; 96   :         return _Data._What ? _Data._What : "Unknown exception";

  00000	8b 49 04	 mov	 ecx, DWORD PTR [ecx+4]
  00003	b8 00 00 00 00	 mov	 eax, OFFSET ??_C@_0BC@EOODALEL@Unknown?5exception@
  00008	85 c9		 test	 ecx, ecx
  0000a	0f 45 c1	 cmovne	 eax, ecx

; 97   :     }

  0000d	c3		 ret	 0
?what@exception@std@@UBEPBDXZ ENDP			; std::exception::what
_TEXT	ENDS
; Function compile flags: /Ogtp
; File D:\Program Files\Microsoft Visual Studio\2022\Community\VC\Tools\MSVC\14.43.34808\include\vcruntime_exception.h
;	COMDAT ??1exception@std@@UAE@XZ
_TEXT	SEGMENT
??1exception@std@@UAE@XZ PROC				; std::exception::~exception, COMDAT
; _this$ = ecx

; 91   :         __std_exception_destroy(&_Data);

  00000	8d 41 04	 lea	 eax, DWORD PTR [ecx+4]
  00003	c7 01 00 00 00
	00		 mov	 DWORD PTR [ecx], OFFSET ??_7exception@std@@6B@
  00009	50		 push	 eax
  0000a	e8 00 00 00 00	 call	 ___std_exception_destroy
  0000f	59		 pop	 ecx

; 92   :     }

  00010	c3		 ret	 0
??1exception@std@@UAE@XZ ENDP				; std::exception::~exception
_TEXT	ENDS
; Function compile flags: /Ogtp
; File D:\Program Files\Microsoft Visual Studio\2022\Community\VC\Tools\MSVC\14.43.34808\include\vcruntime_exception.h
;	COMDAT ??0exception@std@@QAE@ABV01@@Z
_TEXT	SEGMENT
__Other$ = 8						; size = 4
??0exception@std@@QAE@ABV01@@Z PROC			; std::exception::exception, COMDAT
; _this$ = ecx

; 73   :     {

  00000	55		 push	 ebp
  00001	8b ec		 mov	 ebp, esp
  00003	56		 push	 esi
  00004	8b f1		 mov	 esi, ecx
  00006	0f 57 c0	 xorps	 xmm0, xmm0
  00009	8d 46 04	 lea	 eax, DWORD PTR [esi+4]

; 74   :         __std_exception_copy(&_Other._Data, &_Data);

  0000c	50		 push	 eax
  0000d	c7 06 00 00 00
	00		 mov	 DWORD PTR [esi], OFFSET ??_7exception@std@@6B@
  00013	66 0f d6 00	 movq	 QWORD PTR [eax], xmm0
  00017	8b 45 08	 mov	 eax, DWORD PTR __Other$[ebp]
  0001a	83 c0 04	 add	 eax, 4
  0001d	50		 push	 eax
  0001e	e8 00 00 00 00	 call	 ___std_exception_copy
  00023	83 c4 08	 add	 esp, 8

; 75   :     }

  00026	8b c6		 mov	 eax, esi
  00028	5e		 pop	 esi
  00029	5d		 pop	 ebp
  0002a	c2 04 00	 ret	 4
??0exception@std@@QAE@ABV01@@Z ENDP			; std::exception::exception
_TEXT	ENDS
END
