; Listing generated by Microsoft (R) Optimizing Compiler Version 19.43.34808.0 

	TITLE	C:\Marty 5.5\Src-Client\Client\PRTerrainLib\Distribute\TextureSet.obj
	.686P
	.XMM
	include listing.inc
	.model	flat

INCLUDELIB LIBCMT
INCLUDELIB OLDNAMES

CONST	SEGMENT
?_Fake_alloc@std@@3U_Fake_allocator@1@B	ORG $+1		; std::_Fake_alloc
?piecewise_construct@std@@3Upiecewise_construct_t@1@B	ORG $+1 ; std::piecewise_construct
CONST	ENDS
PUBLIC	___local_stdio_printf_options
PUBLIC	_fprintf
PUBLIC	__snprintf
PUBLIC	??0exception@std@@QAE@ABV01@@Z			; std::exception::exception
PUBLIC	??1exception@std@@UAE@XZ			; std::exception::~exception
PUBLIC	?what@exception@std@@UBEPBDXZ			; std::exception::what
PUBLIC	??_Gexception@std@@UAEPAXI@Z			; std::exception::`scalar deleting destructor'
PUBLIC	??0bad_alloc@std@@QAE@ABV01@@Z			; std::bad_alloc::bad_alloc
PUBLIC	??_Gbad_alloc@std@@UAEPAXI@Z			; std::bad_alloc::`scalar deleting destructor'
PUBLIC	??0bad_array_new_length@std@@QAE@XZ		; std::bad_array_new_length::bad_array_new_length
PUBLIC	??1bad_array_new_length@std@@UAE@XZ		; std::bad_array_new_length::~bad_array_new_length
PUBLIC	??0bad_array_new_length@std@@QAE@ABV01@@Z	; std::bad_array_new_length::bad_array_new_length
PUBLIC	??_Gbad_array_new_length@std@@UAEPAXI@Z		; std::bad_array_new_length::`scalar deleting destructor'
PUBLIC	?_Throw_bad_array_new_length@std@@YAXXZ		; std::_Throw_bad_array_new_length
PUBLIC	?_Xlen_string@std@@YAXXZ			; std::_Xlen_string
PUBLIC	??0?$basic_string@DU?$char_traits@D@std@@V?$allocator@D@2@@std@@QAE@QBD@Z ; std::basic_string<char,std::char_traits<char>,std::allocator<char> >::basic_string<char,std::char_traits<char>,std::allocator<char> >
PUBLIC	??1?$basic_string@DU?$char_traits@D@std@@V?$allocator@D@2@@std@@QAE@XZ ; std::basic_string<char,std::char_traits<char>,std::allocator<char> >::~basic_string<char,std::char_traits<char>,std::allocator<char> >
PUBLIC	?assign@?$basic_string@DU?$char_traits@D@std@@V?$allocator@D@2@@std@@QAEAAV12@QBDI@Z ; std::basic_string<char,std::char_traits<char>,std::allocator<char> >::assign
PUBLIC	?_Throw_tree_length_error@std@@YAXXZ		; std::_Throw_tree_length_error
PUBLIC	??1?$vector@V?$basic_string@DU?$char_traits@D@std@@V?$allocator@D@2@@std@@V?$allocator@V?$basic_string@DU?$char_traits@D@std@@V?$allocator@D@2@@std@@@2@@std@@QAE@XZ ; std::vector<std::basic_string<char,std::char_traits<char>,std::allocator<char> >,std::allocator<std::basic_string<char,std::char_traits<char>,std::allocator<char> > > >::~vector<std::basic_string<char,std::char_traits<char>,std::allocator<char> >,std::allocator<std::basic_string<char,std::char_traits<char>,std::allocator<char> > > >
PUBLIC	??$_Traits_compare@U?$char_traits@D@std@@@std@@YAHQBDI0I@Z ; std::_Traits_compare<std::char_traits<char> >
PUBLIC	??$_Allocate_manually_vector_aligned@U_Default_allocate_traits@std@@@std@@YAPAXI@Z ; std::_Allocate_manually_vector_aligned<std::_Default_allocate_traits>
PUBLIC	??_GCGraphicImageInstance@@UAEPAXI@Z		; CGraphicImageInstance::`scalar deleting destructor'
PUBLIC	??0STerrainTexture@@QAE@XZ			; STerrainTexture::STerrainTexture
PUBLIC	??1STerrainTexture@@QAE@XZ			; STerrainTexture::~STerrainTexture
PUBLIC	??0STerrainTexture@@QAE@ABU0@@Z			; STerrainTexture::STerrainTexture
PUBLIC	??0CTextureSet@@QAE@XZ				; CTextureSet::CTextureSet
PUBLIC	??1CTextureSet@@UAE@XZ				; CTextureSet::~CTextureSet
PUBLIC	?Initialize@CTextureSet@@QAEXXZ			; CTextureSet::Initialize
PUBLIC	?Clear@CTextureSet@@QAEXXZ			; CTextureSet::Clear
PUBLIC	?Create@CTextureSet@@QAEXXZ			; CTextureSet::Create
PUBLIC	?Load@CTextureSet@@QAE_NPBDM@Z			; CTextureSet::Load
PUBLIC	?Save@CTextureSet@@QAE_NPBD@Z			; CTextureSet::Save
PUBLIC	?GetTextureCount@CTextureSet@@QAEKXZ		; CTextureSet::GetTextureCount
PUBLIC	?GetTexture@CTextureSet@@QAEAAUSTerrainTexture@@K@Z ; CTextureSet::GetTexture
PUBLIC	?RemoveTexture@CTextureSet@@QAE_NK@Z		; CTextureSet::RemoveTexture
PUBLIC	?SetTexture@CTextureSet@@QAE_NKPBDMMMM_NGGM@Z	; CTextureSet::SetTexture
PUBLIC	?Reload@CTextureSet@@QAEXM@Z			; CTextureSet::Reload
PUBLIC	?AddTexture@CTextureSet@@QAE_NPBDMMMM_NGGM@Z	; CTextureSet::AddTexture
PUBLIC	?AddEmptyTexture@CTextureSet@@IAEXXZ		; CTextureSet::AddEmptyTexture
PUBLIC	??1?$vector@USTerrainTexture@@V?$allocator@USTerrainTexture@@@std@@@std@@QAE@XZ ; std::vector<STerrainTexture,std::allocator<STerrainTexture> >::~vector<STerrainTexture,std::allocator<STerrainTexture> >
PUBLIC	?_Change_array@?$vector@USTerrainTexture@@V?$allocator@USTerrainTexture@@@std@@@std@@AAEXQAUSTerrainTexture@@II@Z ; std::vector<STerrainTexture,std::allocator<STerrainTexture> >::_Change_array
PUBLIC	?_Xlength@?$vector@USTerrainTexture@@V?$allocator@USTerrainTexture@@@std@@@std@@CAXXZ ; std::vector<STerrainTexture,std::allocator<STerrainTexture> >::_Xlength
PUBLIC	??_GCTextureSet@@UAEPAXI@Z			; CTextureSet::`scalar deleting destructor'
PUBLIC	?_Insert_node@?$_Tree_val@U?$_Tree_simple_types@U?$pair@$$CBV?$basic_string@DU?$char_traits@D@std@@V?$allocator@D@2@@std@@V?$vector@V?$basic_string@DU?$char_traits@D@std@@V?$allocator@D@2@@std@@V?$allocator@V?$basic_string@DU?$char_traits@D@std@@V?$allocator@D@2@@std@@@2@@2@@std@@@std@@@std@@QAEPAU?$_Tree_node@U?$pair@$$CBV?$basic_string@DU?$char_traits@D@std@@V?$allocator@D@2@@std@@V?$vector@V?$basic_string@DU?$char_traits@D@std@@V?$allocator@D@2@@std@@V?$allocator@V?$basic_string@DU?$char_traits@D@std@@V?$allocator@D@2@@std@@@2@@2@@std@@PAX@2@U?$_Tree_id@PAU?$_Tree_node@U?$pair@$$CBV?$basic_string@DU?$char_traits@D@std@@V?$allocator@D@2@@std@@V?$vector@V?$basic_string@DU?$char_traits@D@std@@V?$allocator@D@2@@std@@V?$allocator@V?$basic_string@DU?$char_traits@D@std@@V?$allocator@D@2@@std@@@2@@2@@std@@PAX@std@@@2@QAU32@@Z ; std::_Tree_val<std::_Tree_simple_types<std::pair<std::basic_string<char,std::char_traits<char>,std::allocator<char> > const ,std::vector<std::basic_string<char,std::char_traits<char>,std::allocator<char> >,std::allocator<std::basic_string<char,std::char_traits<char>,std::allocator<char> > > > > > >::_Insert_node
PUBLIC	??1?$map@V?$basic_string@DU?$char_traits@D@std@@V?$allocator@D@2@@std@@V?$vector@V?$basic_string@DU?$char_traits@D@std@@V?$allocator@D@2@@std@@V?$allocator@V?$basic_string@DU?$char_traits@D@std@@V?$allocator@D@2@@std@@@2@@2@U?$less@V?$basic_string@DU?$char_traits@D@std@@V?$allocator@D@2@@std@@@2@V?$allocator@U?$pair@$$CBV?$basic_string@DU?$char_traits@D@std@@V?$allocator@D@2@@std@@V?$vector@V?$basic_string@DU?$char_traits@D@std@@V?$allocator@D@2@@std@@V?$allocator@V?$basic_string@DU?$char_traits@D@std@@V?$allocator@D@2@@std@@@2@@2@@std@@@2@@std@@QAE@XZ ; std::map<std::basic_string<char,std::char_traits<char>,std::allocator<char> >,std::vector<std::basic_string<char,std::char_traits<char>,std::allocator<char> >,std::allocator<std::basic_string<char,std::char_traits<char>,std::allocator<char> > > >,std::less<std::basic_string<char,std::char_traits<char>,std::allocator<char> > >,std::allocator<std::pair<std::basic_string<char,std::char_traits<char>,std::allocator<char> > const ,std::vector<std::basic_string<char,std::char_traits<char>,std::allocator<char> >,std::allocator<std::basic_string<char,std::char_traits<char>,std::allocator<char> > > > > > >::~map<std::basic_string<char,std::char_traits<char>,std::allocator<char> >,std::vector<std::basic_string<char,std::char_traits<char>,std::allocator<char> >,std::allocator<std::basic_string<char,std::char_traits<char>,std::allocator<char> > > >,std::less<std::basic_string<char,std::char_traits<char>,std::allocator<char> > >,std::allocator<std::pair<std::basic_string<char,std::char_traits<char>,std::allocator<char> > const ,std::vector<std::basic_string<char,std::char_traits<char>,std::allocator<char> >,std::allocator<std::basic_string<char,std::char_traits<char>,std::allocator<char> > > > > > >
PUBLIC	??$_Destroy_range@V?$allocator@USTerrainTexture@@@std@@@std@@YAXPAUSTerrainTexture@@QAU1@AAV?$allocator@USTerrainTexture@@@0@@Z ; std::_Destroy_range<std::allocator<STerrainTexture> >
PUBLIC	??$destroy@USTerrainTexture@@@?$_Default_allocator_traits@V?$allocator@USTerrainTexture@@@std@@@std@@SAXAAV?$allocator@USTerrainTexture@@@1@QAUSTerrainTexture@@@Z ; std::_Default_allocator_traits<std::allocator<STerrainTexture> >::destroy<STerrainTexture>
PUBLIC	??$_Resize@U_Value_init_tag@std@@@?$vector@USTerrainTexture@@V?$allocator@USTerrainTexture@@@std@@@std@@AAEXIABU_Value_init_tag@1@@Z ; std::vector<STerrainTexture,std::allocator<STerrainTexture> >::_Resize<std::_Value_init_tag>
PUBLIC	??$_Find_lower_bound@V?$basic_string@DU?$char_traits@D@std@@V?$allocator@D@2@@std@@@?$_Tree@V?$_Tmap_traits@V?$basic_string@DU?$char_traits@D@std@@V?$allocator@D@2@@std@@V?$vector@V?$basic_string@DU?$char_traits@D@std@@V?$allocator@D@2@@std@@V?$allocator@V?$basic_string@DU?$char_traits@D@std@@V?$allocator@D@2@@std@@@2@@2@U?$less@V?$basic_string@DU?$char_traits@D@std@@V?$allocator@D@2@@std@@@2@V?$allocator@U?$pair@$$CBV?$basic_string@DU?$char_traits@D@std@@V?$allocator@D@2@@std@@V?$vector@V?$basic_string@DU?$char_traits@D@std@@V?$allocator@D@2@@std@@V?$allocator@V?$basic_string@DU?$char_traits@D@std@@V?$allocator@D@2@@std@@@2@@2@@std@@@2@$0A@@std@@@std@@IBE?AU?$_Tree_find_result@PAU?$_Tree_node@U?$pair@$$CBV?$basic_string@DU?$char_traits@D@std@@V?$allocator@D@2@@std@@V?$vector@V?$basic_string@DU?$char_traits@D@std@@V?$allocator@D@2@@std@@V?$allocator@V?$basic_string@DU?$char_traits@D@std@@V?$allocator@D@2@@std@@@2@@2@@std@@PAX@std@@@1@ABV?$basic_string@DU?$char_traits@D@std@@V?$allocator@D@2@@1@@Z ; std::_Tree<std::_Tmap_traits<std::basic_string<char,std::char_traits<char>,std::allocator<char> >,std::vector<std::basic_string<char,std::char_traits<char>,std::allocator<char> >,std::allocator<std::basic_string<char,std::char_traits<char>,std::allocator<char> > > >,std::less<std::basic_string<char,std::char_traits<char>,std::allocator<char> > >,std::allocator<std::pair<std::basic_string<char,std::char_traits<char>,std::allocator<char> > const ,std::vector<std::basic_string<char,std::char_traits<char>,std::allocator<char> >,std::allocator<std::basic_string<char,std::char_traits<char>,std::allocator<char> > > > > >,0> >::_Find_lower_bound<std::basic_string<char,std::char_traits<char>,std::allocator<char> > >
PUBLIC	??1?$_Alloc_construct_ptr@V?$allocator@U?$_Tree_node@U?$pair@$$CBV?$basic_string@DU?$char_traits@D@std@@V?$allocator@D@2@@std@@V?$vector@V?$basic_string@DU?$char_traits@D@std@@V?$allocator@D@2@@std@@V?$allocator@V?$basic_string@DU?$char_traits@D@std@@V?$allocator@D@2@@std@@@2@@2@@std@@PAX@std@@@std@@@std@@QAE@XZ ; std::_Alloc_construct_ptr<std::allocator<std::_Tree_node<std::pair<std::basic_string<char,std::char_traits<char>,std::allocator<char> > const ,std::vector<std::basic_string<char,std::char_traits<char>,std::allocator<char> >,std::allocator<std::basic_string<char,std::char_traits<char>,std::allocator<char> > > > >,void *> > >::~_Alloc_construct_ptr<std::allocator<std::_Tree_node<std::pair<std::basic_string<char,std::char_traits<char>,std::allocator<char> > const ,std::vector<std::basic_string<char,std::char_traits<char>,std::allocator<char> >,std::allocator<std::basic_string<char,std::char_traits<char>,std::allocator<char> > > > >,void *> > >
PUBLIC	??$_Erase_tree@V?$allocator@U?$_Tree_node@U?$pair@$$CBV?$basic_string@DU?$char_traits@D@std@@V?$allocator@D@2@@std@@V?$vector@V?$basic_string@DU?$char_traits@D@std@@V?$allocator@D@2@@std@@V?$allocator@V?$basic_string@DU?$char_traits@D@std@@V?$allocator@D@2@@std@@@2@@2@@std@@PAX@std@@@std@@@?$_Tree_val@U?$_Tree_simple_types@U?$pair@$$CBV?$basic_string@DU?$char_traits@D@std@@V?$allocator@D@2@@std@@V?$vector@V?$basic_string@DU?$char_traits@D@std@@V?$allocator@D@2@@std@@V?$allocator@V?$basic_string@DU?$char_traits@D@std@@V?$allocator@D@2@@std@@@2@@2@@std@@@std@@@std@@QAEXAAV?$allocator@U?$_Tree_node@U?$pair@$$CBV?$basic_string@DU?$char_traits@D@std@@V?$allocator@D@2@@std@@V?$vector@V?$basic_string@DU?$char_traits@D@std@@V?$allocator@D@2@@std@@V?$allocator@V?$basic_string@DU?$char_traits@D@std@@V?$allocator@D@2@@std@@@2@@2@@std@@PAX@std@@@1@PAU?$_Tree_node@U?$pair@$$CBV?$basic_string@DU?$char_traits@D@std@@V?$allocator@D@2@@std@@V?$vector@V?$basic_string@DU?$char_traits@D@std@@V?$allocator@D@2@@std@@V?$allocator@V?$basic_string@DU?$char_traits@D@std@@V?$allocator@D@2@@std@@@2@@2@@std@@PAX@1@@Z ; std::_Tree_val<std::_Tree_simple_types<std::pair<std::basic_string<char,std::char_traits<char>,std::allocator<char> > const ,std::vector<std::basic_string<char,std::char_traits<char>,std::allocator<char> >,std::allocator<std::basic_string<char,std::char_traits<char>,std::allocator<char> > > > > > >::_Erase_tree<std::allocator<std::_Tree_node<std::pair<std::basic_string<char,std::char_traits<char>,std::allocator<char> > const ,std::vector<std::basic_string<char,std::char_traits<char>,std::allocator<char> >,std::allocator<std::basic_string<char,std::char_traits<char>,std::allocator<char> > > > >,void *> > >
PUBLIC	??1_Simple_reallocation_guard@?$vector@USTerrainTexture@@V?$allocator@USTerrainTexture@@@std@@@std@@QAE@XZ ; std::vector<STerrainTexture,std::allocator<STerrainTexture> >::_Simple_reallocation_guard::~_Simple_reallocation_guard
PUBLIC	??$_Uninitialized_copy@PAUSTerrainTexture@@PAU1@V?$allocator@USTerrainTexture@@@std@@@std@@YAPAUSTerrainTexture@@PAU1@00AAV?$allocator@USTerrainTexture@@@0@@Z ; std::_Uninitialized_copy<STerrainTexture *,STerrainTexture *,std::allocator<STerrainTexture> >
PUBLIC	??$_Uninitialized_value_construct_n@V?$allocator@USTerrainTexture@@@std@@@std@@YAPAUSTerrainTexture@@PAU1@IAAV?$allocator@USTerrainTexture@@@0@@Z ; std::_Uninitialized_value_construct_n<std::allocator<STerrainTexture> >
PUBLIC	??$_Emplace_reallocate@ABUSTerrainTexture@@@?$vector@USTerrainTexture@@V?$allocator@USTerrainTexture@@@std@@@std@@AAEPAUSTerrainTexture@@QAU2@ABU2@@Z ; std::vector<STerrainTexture,std::allocator<STerrainTexture> >::_Emplace_reallocate<STerrainTexture const &>
PUBLIC	??$destroy@U?$pair@$$CBV?$basic_string@DU?$char_traits@D@std@@V?$allocator@D@2@@std@@V?$vector@V?$basic_string@DU?$char_traits@D@std@@V?$allocator@D@2@@std@@V?$allocator@V?$basic_string@DU?$char_traits@D@std@@V?$allocator@D@2@@std@@@2@@2@@std@@@?$_Default_allocator_traits@V?$allocator@U?$_Tree_node@U?$pair@$$CBV?$basic_string@DU?$char_traits@D@std@@V?$allocator@D@2@@std@@V?$vector@V?$basic_string@DU?$char_traits@D@std@@V?$allocator@D@2@@std@@V?$allocator@V?$basic_string@DU?$char_traits@D@std@@V?$allocator@D@2@@std@@@2@@2@@std@@PAX@std@@@std@@@std@@SAXAAV?$allocator@U?$_Tree_node@U?$pair@$$CBV?$basic_string@DU?$char_traits@D@std@@V?$allocator@D@2@@std@@V?$vector@V?$basic_string@DU?$char_traits@D@std@@V?$allocator@D@2@@std@@V?$allocator@V?$basic_string@DU?$char_traits@D@std@@V?$allocator@D@2@@std@@@2@@2@@std@@PAX@std@@@1@QAU?$pair@$$CBV?$basic_string@DU?$char_traits@D@std@@V?$allocator@D@2@@std@@V?$vector@V?$basic_string@DU?$char_traits@D@std@@V?$allocator@D@2@@std@@V?$allocator@V?$basic_string@DU?$char_traits@D@std@@V?$allocator@D@2@@std@@@2@@2@@1@@Z ; std::_Default_allocator_traits<std::allocator<std::_Tree_node<std::pair<std::basic_string<char,std::char_traits<char>,std::allocator<char> > const ,std::vector<std::basic_string<char,std::char_traits<char>,std::allocator<char> >,std::allocator<std::basic_string<char,std::char_traits<char>,std::allocator<char> > > > >,void *> > >::destroy<std::pair<std::basic_string<char,std::char_traits<char>,std::allocator<char> > const ,std::vector<std::basic_string<char,std::char_traits<char>,std::allocator<char> >,std::allocator<std::basic_string<char,std::char_traits<char>,std::allocator<char> > > > > >
PUBLIC	??$?MDU?$char_traits@D@std@@V?$allocator@D@1@@std@@YA_NABV?$basic_string@DU?$char_traits@D@std@@V?$allocator@D@2@@0@0@Z ; std::operator<<char,std::char_traits<char>,std::allocator<char> >
PUBLIC	??1?$_Uninitialized_backout_al@V?$allocator@USTerrainTexture@@@std@@@std@@QAE@XZ ; std::_Uninitialized_backout_al<std::allocator<STerrainTexture> >::~_Uninitialized_backout_al<std::allocator<STerrainTexture> >
PUBLIC	??1_Reallocation_guard@?$vector@USTerrainTexture@@V?$allocator@USTerrainTexture@@@std@@@std@@QAE@XZ ; std::vector<STerrainTexture,std::allocator<STerrainTexture> >::_Reallocation_guard::~_Reallocation_guard
PUBLIC	??$_Uninitialized_move@PAUSTerrainTexture@@V?$allocator@USTerrainTexture@@@std@@@std@@YAPAUSTerrainTexture@@QAU1@0PAU1@AAV?$allocator@USTerrainTexture@@@0@@Z ; std::_Uninitialized_move<STerrainTexture *,std::allocator<STerrainTexture> >
PUBLIC	?_OptionsStorage@?1??__local_stdio_printf_options@@9@4_KA ; `__local_stdio_printf_options'::`2'::_OptionsStorage
PUBLIC	??_7exception@std@@6B@				; std::exception::`vftable'
PUBLIC	??_C@_0BC@EOODALEL@Unknown?5exception@		; `string'
PUBLIC	??_7bad_alloc@std@@6B@				; std::bad_alloc::`vftable'
PUBLIC	??_7bad_array_new_length@std@@6B@		; std::bad_array_new_length::`vftable'
PUBLIC	??_C@_0BF@KINCDENJ@bad?5array?5new?5length@	; `string'
PUBLIC	??_R0?AVexception@std@@@8			; std::exception `RTTI Type Descriptor'
PUBLIC	__CT??_R0?AVexception@std@@@8??0exception@std@@QAE@ABV01@@Z12
PUBLIC	__TI3?AVbad_array_new_length@std@@
PUBLIC	__CTA3?AVbad_array_new_length@std@@
PUBLIC	??_R0?AVbad_array_new_length@std@@@8		; std::bad_array_new_length `RTTI Type Descriptor'
PUBLIC	__CT??_R0?AVbad_array_new_length@std@@@8??0bad_array_new_length@std@@QAE@ABV01@@Z12
PUBLIC	??_R0?AVbad_alloc@std@@@8			; std::bad_alloc `RTTI Type Descriptor'
PUBLIC	__CT??_R0?AVbad_alloc@std@@@8??0bad_alloc@std@@QAE@ABV01@@Z12
PUBLIC	??_C@_0BA@JFNIOLAK@string?5too?5long@		; `string'
PUBLIC	??_C@_0BB@GCADKGJO@map?1set?5too?5long@		; `string'
PUBLIC	?ms_singleton@?$CSingleton@VCResourceManager@@@@0PAVCResourceManager@@A ; CSingleton<CResourceManager>::ms_singleton
PUBLIC	??_R4exception@std@@6B@				; std::exception::`RTTI Complete Object Locator'
PUBLIC	??_R3exception@std@@8				; std::exception::`RTTI Class Hierarchy Descriptor'
PUBLIC	??_R2exception@std@@8				; std::exception::`RTTI Base Class Array'
PUBLIC	??_R1A@?0A@EA@exception@std@@8			; std::exception::`RTTI Base Class Descriptor at (0,-1,0,64)'
PUBLIC	??_R4bad_array_new_length@std@@6B@		; std::bad_array_new_length::`RTTI Complete Object Locator'
PUBLIC	??_R3bad_array_new_length@std@@8		; std::bad_array_new_length::`RTTI Class Hierarchy Descriptor'
PUBLIC	??_R2bad_array_new_length@std@@8		; std::bad_array_new_length::`RTTI Base Class Array'
PUBLIC	??_R1A@?0A@EA@bad_array_new_length@std@@8	; std::bad_array_new_length::`RTTI Base Class Descriptor at (0,-1,0,64)'
PUBLIC	??_R1A@?0A@EA@bad_alloc@std@@8			; std::bad_alloc::`RTTI Base Class Descriptor at (0,-1,0,64)'
PUBLIC	??_R3bad_alloc@std@@8				; std::bad_alloc::`RTTI Class Hierarchy Descriptor'
PUBLIC	??_R2bad_alloc@std@@8				; std::bad_alloc::`RTTI Base Class Array'
PUBLIC	??_R4bad_alloc@std@@6B@				; std::bad_alloc::`RTTI Complete Object Locator'
PUBLIC	??_7CGraphicImageInstance@@6B@			; CGraphicImageInstance::`vftable'
PUBLIC	??_7CTextureSet@@6B@				; CTextureSet::`vftable'
PUBLIC	??_C@_0BP@PGALBFBK@d?3?1ymir?5work?1special?1error?4tga@ ; `string'
PUBLIC	??_C@_0CC@NFEEIIKK@TextureSet?3?3Load?5?3?5cannot?5load?5@ ; `string'
PUBLIC	??_C@_0L@FLIBEPMB@textureset@			; `string'
PUBLIC	??_C@_0DL@HIELGKBC@TextureSet?3?3Load?5?3?5syntax?5error@ ; `string'
PUBLIC	??_C@_0N@MMECMGAI@texturecount@			; `string'
PUBLIC	??_C@_0DN@FCLAEMJC@TextureSet?3?3Load?5?3?5syntax?5error@ ; `string'
PUBLIC	??_C@_0M@NDPMIDHE@texture?$CF03d@		; `string'
PUBLIC	??_C@_0DF@CFOIFDDM@CTextureSet?3?3Load?5?3?5SetTexture?5@ ; `string'
PUBLIC	??_C@_06CEEECGLN@B?E?$IC?D?$IFd@		; `string'
PUBLIC	??_C@_0HJ@ILLJBGPC@CTextureSet?3?3SetTexture?3?5B?E?$IC?D?$IFd@ ; `string'
PUBLIC	??_C@_0FD@HGCGEJHO@CTextureSet?3?3SetTexture?3?5Nie?5mo@ ; `string'
PUBLIC	??_C@_0HJ@COHDILEG@CTextureSet?3?3AddTexture?3?5B?E?$IC?D?$IFd@ ; `string'
PUBLIC	??_C@_0CG@GCCGCFA@You?5cannot?5add?5more?5than?5255?5te@ ; `string'
PUBLIC	??_C@_09OINHJNMP@Duplicate@			; `string'
PUBLIC	??_C@_0CJ@ELAAMMOC@Texture?5of?5the?5same?5name?5alread@ ; `string'
PUBLIC	??_C@_0FC@LGIGBEJD@CTextureSet?3?3AddTexture?3?5Nie?5mo@ ; `string'
PUBLIC	??_C@_01NOFIACDB@w@				; `string'
PUBLIC	??_C@_0M@MPCHGPBP@TextureSet?6@			; `string'
PUBLIC	??_C@_01EEMJAFIK@?6@				; `string'
PUBLIC	??_C@_0BC@GGJBGKJP@TextureCount?5?$CFld?6@	; `string'
PUBLIC	??_C@_0BD@BJELLKNB@Start?5Texture?$CF03d?6@	; `string'
PUBLIC	??_C@_09BMPLDMAP@?5?5?5?5?$CC?$CFs?$CC?6@	; `string'
PUBLIC	??_C@_07ELCCFBHK@?5?5?5?5?$CFf?6@		; `string'
PUBLIC	??_C@_07EIKGIFBE@?5?5?5?5?$CFd?6@		; `string'
PUBLIC	??_C@_08PFAGAKKH@?5?5?5?5?$CFhu?6@		; `string'
PUBLIC	??_C@_0BB@GNLMPHOK@End?5Texture?$CF03d?6@	; `string'
PUBLIC	??_C@_0BA@FOIKENOD@vector?5too?5long@		; `string'
PUBLIC	??_R4CGraphicImageInstance@@6B@			; CGraphicImageInstance::`RTTI Complete Object Locator'
PUBLIC	??_R0?AVCGraphicImageInstance@@@8		; CGraphicImageInstance `RTTI Type Descriptor'
PUBLIC	??_R3CGraphicImageInstance@@8			; CGraphicImageInstance::`RTTI Class Hierarchy Descriptor'
PUBLIC	??_R2CGraphicImageInstance@@8			; CGraphicImageInstance::`RTTI Base Class Array'
PUBLIC	??_R1A@?0A@EA@CGraphicImageInstance@@8		; CGraphicImageInstance::`RTTI Base Class Descriptor at (0,-1,0,64)'
PUBLIC	??_R4CTextureSet@@6B@				; CTextureSet::`RTTI Complete Object Locator'
PUBLIC	??_R0?AVCTextureSet@@@8				; CTextureSet `RTTI Type Descriptor'
PUBLIC	??_R3CTextureSet@@8				; CTextureSet::`RTTI Class Hierarchy Descriptor'
PUBLIC	??_R2CTextureSet@@8				; CTextureSet::`RTTI Base Class Array'
PUBLIC	??_R1A@?0A@EA@CTextureSet@@8			; CTextureSet::`RTTI Base Class Descriptor at (0,-1,0,64)'
PUBLIC	__xmm@80000000800000008000000080000000
EXTRN	??2@YAPAXI@Z:PROC				; operator new
EXTRN	??3@YAXPAXI@Z:PROC				; operator delete
EXTRN	__invalid_parameter_noinfo_noreturn:PROC
EXTRN	_atof:PROC
EXTRN	_atol:PROC
EXTRN	__atoi64:PROC
EXTRN	_D3DXMatrixScaling@16:PROC
EXTRN	_fclose:PROC
EXTRN	_fopen:PROC
EXTRN	___stdio_common_vfprintf:PROC
EXTRN	___stdio_common_vsprintf:PROC
EXTRN	?_Xlength_error@std@@YAXPBD@Z:PROC		; std::_Xlength_error
EXTRN	___std_exception_copy:PROC
EXTRN	___std_exception_destroy:PROC
EXTRN	??_Eexception@std@@UAEPAXI@Z:PROC		; std::exception::`vector deleting destructor'
EXTRN	??_Ebad_alloc@std@@UAEPAXI@Z:PROC		; std::bad_alloc::`vector deleting destructor'
EXTRN	??_Ebad_array_new_length@std@@UAEPAXI@Z:PROC	; std::bad_array_new_length::`vector deleting destructor'
EXTRN	?TraceError@@YAXPBDZZ:PROC			; TraceError
EXTRN	?LogBox@@YAXPBD0PAUHWND__@@@Z:PROC		; LogBox
EXTRN	?LoadMultipleTextData@@YA_NPBDAAV?$map@V?$basic_string@DU?$char_traits@D@std@@V?$allocator@D@2@@std@@V?$vector@V?$basic_string@DU?$char_traits@D@std@@V?$allocator@D@2@@std@@V?$allocator@V?$basic_string@DU?$char_traits@D@std@@V?$allocator@D@2@@std@@@2@@2@U?$less@V?$basic_string@DU?$char_traits@D@std@@V?$allocator@D@2@@std@@@2@V?$allocator@U?$pair@$$CBV?$basic_string@DU?$char_traits@D@std@@V?$allocator@D@2@@std@@V?$vector@V?$basic_string@DU?$char_traits@D@std@@V?$allocator@D@2@@std@@V?$allocator@V?$basic_string@DU?$char_traits@D@std@@V?$allocator@D@2@@std@@@2@@2@@std@@@2@@std@@@Z:PROC ; LoadMultipleTextData
EXTRN	?AddReference@CReferenceObject@@QAEXXZ:PROC	; CReferenceObject::AddReference
EXTRN	?Release@CReferenceObject@@QAEXXZ:PROC		; CReferenceObject::Release
EXTRN	?IsType@CResource@@QAE_NK@Z:PROC		; CResource::IsType
EXTRN	?GetResourcePointer@CResourceManager@@QAEPAVCResource@@PBD@Z:PROC ; CResourceManager::GetResourcePointer
EXTRN	?GetD3DTexture@CGraphicTexture@@QBEPAUIDirect3DTexture8@@XZ:PROC ; CGraphicTexture::GetD3DTexture
EXTRN	?Type@CGraphicImage@@SAKXZ:PROC			; CGraphicImage::Type
EXTRN	??0CGraphicImageInstance@@QAE@XZ:PROC		; CGraphicImageInstance::CGraphicImageInstance
EXTRN	??1CGraphicImageInstance@@UAE@XZ:PROC		; CGraphicImageInstance::~CGraphicImageInstance
EXTRN	?Destroy@CGraphicImageInstance@@QAEXXZ:PROC	; CGraphicImageInstance::Destroy
EXTRN	?SetScale@CGraphicImageInstance@@UAEXMM@Z:PROC	; CGraphicImageInstance::SetScale
EXTRN	?SetImagePointer@CGraphicImageInstance@@QAEXPAVCGraphicImage@@@Z:PROC ; CGraphicImageInstance::SetImagePointer
EXTRN	?ReloadImagePointer@CGraphicImageInstance@@QAEXPAVCGraphicImage@@@Z:PROC ; CGraphicImageInstance::ReloadImagePointer
EXTRN	?GetTexturePointer@CGraphicImageInstance@@QAEPAVCGraphicTexture@@XZ:PROC ; CGraphicImageInstance::GetTexturePointer
EXTRN	?OnRender@CGraphicImageInstance@@MAEXXZ:PROC	; CGraphicImageInstance::OnRender
EXTRN	?OnSetImagePointer@CGraphicImageInstance@@MAEXXZ:PROC ; CGraphicImageInstance::OnSetImagePointer
EXTRN	?OnIsType@CGraphicImageInstance@@MAEHK@Z:PROC	; CGraphicImageInstance::OnIsType
EXTRN	??_ECGraphicImageInstance@@UAEPAXI@Z:PROC	; CGraphicImageInstance::`vector deleting destructor'
EXTRN	??_ECTextureSet@@UAEPAXI@Z:PROC			; CTextureSet::`vector deleting destructor'
EXTRN	@__security_check_cookie@4:PROC
EXTRN	__CxxThrowException@8:PROC
EXTRN	___CxxFrameHandler3:PROC
EXTRN	_memcpy:PROC
EXTRN	_memmove:PROC
EXTRN	??_7type_info@@6B@:QWORD			; type_info::`vftable'
EXTRN	___security_cookie:DWORD
EXTRN	__fltused:DWORD
;	COMDAT ?_OptionsStorage@?1??__local_stdio_printf_options@@9@4_KA
_BSS	SEGMENT
?_OptionsStorage@?1??__local_stdio_printf_options@@9@4_KA DQ 01H DUP (?) ; `__local_stdio_printf_options'::`2'::_OptionsStorage
_BSS	ENDS
;	COMDAT ?ms_singleton@?$CSingleton@VCResourceManager@@@@0PAVCResourceManager@@A
_BSS	SEGMENT
?ms_singleton@?$CSingleton@VCResourceManager@@@@0PAVCResourceManager@@A DD 01H DUP (?) ; CSingleton<CResourceManager>::ms_singleton
_BSS	ENDS
;	COMDAT __xmm@80000000800000008000000080000000
CONST	SEGMENT
__xmm@80000000800000008000000080000000 DB 00H, 00H, 00H, 080H, 00H, 00H, 00H
	DB	080H, 00H, 00H, 00H, 080H, 00H, 00H, 00H, 080H
CONST	ENDS
;	COMDAT ??_R1A@?0A@EA@CTextureSet@@8
rdata$r	SEGMENT
??_R1A@?0A@EA@CTextureSet@@8 DD FLAT:??_R0?AVCTextureSet@@@8 ; CTextureSet::`RTTI Base Class Descriptor at (0,-1,0,64)'
	DD	00H
	DD	00H
	DD	0ffffffffH
	DD	00H
	DD	040H
	DD	FLAT:??_R3CTextureSet@@8
rdata$r	ENDS
;	COMDAT ??_R2CTextureSet@@8
rdata$r	SEGMENT
??_R2CTextureSet@@8 DD FLAT:??_R1A@?0A@EA@CTextureSet@@8 ; CTextureSet::`RTTI Base Class Array'
rdata$r	ENDS
;	COMDAT ??_R3CTextureSet@@8
rdata$r	SEGMENT
??_R3CTextureSet@@8 DD 00H				; CTextureSet::`RTTI Class Hierarchy Descriptor'
	DD	00H
	DD	01H
	DD	FLAT:??_R2CTextureSet@@8
rdata$r	ENDS
;	COMDAT ??_R0?AVCTextureSet@@@8
data$rs	SEGMENT
??_R0?AVCTextureSet@@@8 DD FLAT:??_7type_info@@6B@	; CTextureSet `RTTI Type Descriptor'
	DD	00H
	DB	'.?AVCTextureSet@@', 00H
data$rs	ENDS
;	COMDAT ??_R4CTextureSet@@6B@
rdata$r	SEGMENT
??_R4CTextureSet@@6B@ DD 00H				; CTextureSet::`RTTI Complete Object Locator'
	DD	00H
	DD	00H
	DD	FLAT:??_R0?AVCTextureSet@@@8
	DD	FLAT:??_R3CTextureSet@@8
rdata$r	ENDS
;	COMDAT ??_R1A@?0A@EA@CGraphicImageInstance@@8
rdata$r	SEGMENT
??_R1A@?0A@EA@CGraphicImageInstance@@8 DD FLAT:??_R0?AVCGraphicImageInstance@@@8 ; CGraphicImageInstance::`RTTI Base Class Descriptor at (0,-1,0,64)'
	DD	00H
	DD	00H
	DD	0ffffffffH
	DD	00H
	DD	040H
	DD	FLAT:??_R3CGraphicImageInstance@@8
rdata$r	ENDS
;	COMDAT ??_R2CGraphicImageInstance@@8
rdata$r	SEGMENT
??_R2CGraphicImageInstance@@8 DD FLAT:??_R1A@?0A@EA@CGraphicImageInstance@@8 ; CGraphicImageInstance::`RTTI Base Class Array'
rdata$r	ENDS
;	COMDAT ??_R3CGraphicImageInstance@@8
rdata$r	SEGMENT
??_R3CGraphicImageInstance@@8 DD 00H			; CGraphicImageInstance::`RTTI Class Hierarchy Descriptor'
	DD	00H
	DD	01H
	DD	FLAT:??_R2CGraphicImageInstance@@8
rdata$r	ENDS
;	COMDAT ??_R0?AVCGraphicImageInstance@@@8
data$rs	SEGMENT
??_R0?AVCGraphicImageInstance@@@8 DD FLAT:??_7type_info@@6B@ ; CGraphicImageInstance `RTTI Type Descriptor'
	DD	00H
	DB	'.?AVCGraphicImageInstance@@', 00H
data$rs	ENDS
;	COMDAT ??_R4CGraphicImageInstance@@6B@
rdata$r	SEGMENT
??_R4CGraphicImageInstance@@6B@ DD 00H			; CGraphicImageInstance::`RTTI Complete Object Locator'
	DD	00H
	DD	00H
	DD	FLAT:??_R0?AVCGraphicImageInstance@@@8
	DD	FLAT:??_R3CGraphicImageInstance@@8
rdata$r	ENDS
;	COMDAT ??_C@_0BA@FOIKENOD@vector?5too?5long@
CONST	SEGMENT
??_C@_0BA@FOIKENOD@vector?5too?5long@ DB 'vector too long', 00H ; `string'
CONST	ENDS
;	COMDAT ??_C@_0BB@GNLMPHOK@End?5Texture?$CF03d?6@
CONST	SEGMENT
??_C@_0BB@GNLMPHOK@End?5Texture?$CF03d?6@ DB 'End Texture%03d', 0aH, 00H ; `string'
CONST	ENDS
;	COMDAT ??_C@_08PFAGAKKH@?5?5?5?5?$CFhu?6@
CONST	SEGMENT
??_C@_08PFAGAKKH@?5?5?5?5?$CFhu?6@ DB '    %hu', 0aH, 00H ; `string'
CONST	ENDS
;	COMDAT ??_C@_07EIKGIFBE@?5?5?5?5?$CFd?6@
CONST	SEGMENT
??_C@_07EIKGIFBE@?5?5?5?5?$CFd?6@ DB '    %d', 0aH, 00H	; `string'
CONST	ENDS
;	COMDAT ??_C@_07ELCCFBHK@?5?5?5?5?$CFf?6@
CONST	SEGMENT
??_C@_07ELCCFBHK@?5?5?5?5?$CFf?6@ DB '    %f', 0aH, 00H	; `string'
CONST	ENDS
;	COMDAT ??_C@_09BMPLDMAP@?5?5?5?5?$CC?$CFs?$CC?6@
CONST	SEGMENT
??_C@_09BMPLDMAP@?5?5?5?5?$CC?$CFs?$CC?6@ DB '    "%s"', 0aH, 00H ; `string'
CONST	ENDS
;	COMDAT ??_C@_0BD@BJELLKNB@Start?5Texture?$CF03d?6@
CONST	SEGMENT
??_C@_0BD@BJELLKNB@Start?5Texture?$CF03d?6@ DB 'Start Texture%03d', 0aH, 00H ; `string'
CONST	ENDS
;	COMDAT ??_C@_0BC@GGJBGKJP@TextureCount?5?$CFld?6@
CONST	SEGMENT
??_C@_0BC@GGJBGKJP@TextureCount?5?$CFld?6@ DB 'TextureCount %ld', 0aH, 00H ; `string'
CONST	ENDS
;	COMDAT ??_C@_01EEMJAFIK@?6@
CONST	SEGMENT
??_C@_01EEMJAFIK@?6@ DB 0aH, 00H			; `string'
CONST	ENDS
;	COMDAT ??_C@_0M@MPCHGPBP@TextureSet?6@
CONST	SEGMENT
??_C@_0M@MPCHGPBP@TextureSet?6@ DB 'TextureSet', 0aH, 00H ; `string'
CONST	ENDS
;	COMDAT ??_C@_01NOFIACDB@w@
CONST	SEGMENT
??_C@_01NOFIACDB@w@ DB 'w', 00H				; `string'
CONST	ENDS
;	COMDAT ??_C@_0FC@LGIGBEJD@CTextureSet?3?3AddTexture?3?5Nie?5mo@
CONST	SEGMENT
??_C@_0FC@LGIGBEJD@CTextureSet?3?3AddTexture?3?5Nie?5mo@ DB 'CTextureSet:'
	DB	':AddTexture: Nie mo', 0c5H, 0bcH, 'na ustawi', 0c4H, 087H, ' '
	DB	'tekstury. Tekstura ''%s'' nie istnieje', 00H ; `string'
CONST	ENDS
;	COMDAT ??_C@_0CJ@ELAAMMOC@Texture?5of?5the?5same?5name?5alread@
CONST	SEGMENT
??_C@_0CJ@ELAAMMOC@Texture?5of?5the?5same?5name?5alread@ DB 'Texture of t'
	DB	'he same name already exists.', 00H		; `string'
CONST	ENDS
;	COMDAT ??_C@_09OINHJNMP@Duplicate@
CONST	SEGMENT
??_C@_09OINHJNMP@Duplicate@ DB 'Duplicate', 00H		; `string'
CONST	ENDS
;	COMDAT ??_C@_0CG@GCCGCFA@You?5cannot?5add?5more?5than?5255?5te@
CONST	SEGMENT
??_C@_0CG@GCCGCFA@You?5cannot?5add?5more?5than?5255?5te@ DB 'You cannot a'
	DB	'dd more than 255 texture.', 00H		; `string'
CONST	ENDS
;	COMDAT ??_C@_0HJ@COHDILEG@CTextureSet?3?3AddTexture?3?5B?E?$IC?D?$IFd@
CONST	SEGMENT
??_C@_0HJ@COHDILEG@CTextureSet?3?3AddTexture?3?5B?E?$IC?D?$IFd@ DB 'CText'
	DB	'ureSet::AddTexture: B', 0c5H, 082H, 0c4H, 085H, 'd - Brak naz'
	DB	'wy pliku. Przekazany wska', 0c5H, 0baH, 'nik na nazw', 0c4H, 099H
	DB	' pliku jest niezdefiniowany (nullptr).', 00H ; `string'
CONST	ENDS
;	COMDAT ??_C@_0FD@HGCGEJHO@CTextureSet?3?3SetTexture?3?5Nie?5mo@
CONST	SEGMENT
??_C@_0FD@HGCGEJHO@CTextureSet?3?3SetTexture?3?5Nie?5mo@ DB 'CTextureSet:'
	DB	':SetTexture: Nie mo', 0c5H, 0bcH, 'na ustawi', 0c4H, 087H, ' '
	DB	'tekstury. Tekstura ''%s'' nie istnieje.', 00H ; `string'
CONST	ENDS
;	COMDAT ??_C@_0HJ@ILLJBGPC@CTextureSet?3?3SetTexture?3?5B?E?$IC?D?$IFd@
CONST	SEGMENT
??_C@_0HJ@ILLJBGPC@CTextureSet?3?3SetTexture?3?5B?E?$IC?D?$IFd@ DB 'CText'
	DB	'ureSet::SetTexture: B', 0c5H, 082H, 0c4H, 085H, 'd - Brak naz'
	DB	'wy pliku. Przekazany wska', 0c5H, 0baH, 'nik na nazw', 0c4H, 099H
	DB	' pliku jest niezdefiniowany (nullptr).', 00H ; `string'
CONST	ENDS
;	COMDAT ??_C@_06CEEECGLN@B?E?$IC?D?$IFd@
CONST	SEGMENT
??_C@_06CEEECGLN@B?E?$IC?D?$IFd@ DB 'B', 0c5H, 082H, 0c4H, 085H, 'd', 00H ; `string'
CONST	ENDS
;	COMDAT ??_C@_0DF@CFOIFDDM@CTextureSet?3?3Load?5?3?5SetTexture?5@
CONST	SEGMENT
??_C@_0DF@CFOIFDDM@CTextureSet?3?3Load?5?3?5SetTexture?5@ DB 'CTextureSet'
	DB	'::Load : SetTexture failed : Filename: %s', 00H ; `string'
CONST	ENDS
;	COMDAT ??_C@_0M@NDPMIDHE@texture?$CF03d@
CONST	SEGMENT
??_C@_0M@NDPMIDHE@texture?$CF03d@ DB 'texture%03d', 00H	; `string'
CONST	ENDS
;	COMDAT ??_C@_0DN@FCLAEMJC@TextureSet?3?3Load?5?3?5syntax?5error@
CONST	SEGMENT
??_C@_0DN@FCLAEMJC@TextureSet?3?3Load?5?3?5syntax?5error@ DB 'TextureSet:'
	DB	':Load : syntax error, TextureCount (filename: %s)', 00H ; `string'
CONST	ENDS
;	COMDAT ??_C@_0N@MMECMGAI@texturecount@
CONST	SEGMENT
??_C@_0N@MMECMGAI@texturecount@ DB 'texturecount', 00H	; `string'
CONST	ENDS
;	COMDAT ??_C@_0DL@HIELGKBC@TextureSet?3?3Load?5?3?5syntax?5error@
CONST	SEGMENT
??_C@_0DL@HIELGKBC@TextureSet?3?3Load?5?3?5syntax?5error@ DB 'TextureSet:'
	DB	':Load : syntax error, TextureSet (filename: %s)', 00H ; `string'
CONST	ENDS
;	COMDAT ??_C@_0L@FLIBEPMB@textureset@
CONST	SEGMENT
??_C@_0L@FLIBEPMB@textureset@ DB 'textureset', 00H	; `string'
CONST	ENDS
;	COMDAT ??_C@_0CC@NFEEIIKK@TextureSet?3?3Load?5?3?5cannot?5load?5@
CONST	SEGMENT
??_C@_0CC@NFEEIIKK@TextureSet?3?3Load?5?3?5cannot?5load?5@ DB 'TextureSet'
	DB	'::Load : cannot load %s', 00H		; `string'
CONST	ENDS
;	COMDAT ??_C@_0BP@PGALBFBK@d?3?1ymir?5work?1special?1error?4tga@
CONST	SEGMENT
??_C@_0BP@PGALBFBK@d?3?1ymir?5work?1special?1error?4tga@ DB 'd:/ymir work'
	DB	'/special/error.tga', 00H			; `string'
CONST	ENDS
;	COMDAT ??_7CTextureSet@@6B@
CONST	SEGMENT
??_7CTextureSet@@6B@ DD FLAT:??_R4CTextureSet@@6B@	; CTextureSet::`vftable'
	DD	FLAT:??_ECTextureSet@@UAEPAXI@Z
CONST	ENDS
;	COMDAT ??_7CGraphicImageInstance@@6B@
CONST	SEGMENT
??_7CGraphicImageInstance@@6B@ DD FLAT:??_R4CGraphicImageInstance@@6B@ ; CGraphicImageInstance::`vftable'
	DD	FLAT:??_ECGraphicImageInstance@@UAEPAXI@Z
	DD	FLAT:?SetScale@CGraphicImageInstance@@UAEXMM@Z
	DD	FLAT:?OnRender@CGraphicImageInstance@@MAEXXZ
	DD	FLAT:?OnSetImagePointer@CGraphicImageInstance@@MAEXXZ
	DD	FLAT:?OnIsType@CGraphicImageInstance@@MAEHK@Z
CONST	ENDS
;	COMDAT ??_R4bad_alloc@std@@6B@
rdata$r	SEGMENT
??_R4bad_alloc@std@@6B@ DD 00H				; std::bad_alloc::`RTTI Complete Object Locator'
	DD	00H
	DD	00H
	DD	FLAT:??_R0?AVbad_alloc@std@@@8
	DD	FLAT:??_R3bad_alloc@std@@8
rdata$r	ENDS
;	COMDAT ??_R2bad_alloc@std@@8
rdata$r	SEGMENT
??_R2bad_alloc@std@@8 DD FLAT:??_R1A@?0A@EA@bad_alloc@std@@8 ; std::bad_alloc::`RTTI Base Class Array'
	DD	FLAT:??_R1A@?0A@EA@exception@std@@8
rdata$r	ENDS
;	COMDAT ??_R3bad_alloc@std@@8
rdata$r	SEGMENT
??_R3bad_alloc@std@@8 DD 00H				; std::bad_alloc::`RTTI Class Hierarchy Descriptor'
	DD	00H
	DD	02H
	DD	FLAT:??_R2bad_alloc@std@@8
rdata$r	ENDS
;	COMDAT ??_R1A@?0A@EA@bad_alloc@std@@8
rdata$r	SEGMENT
??_R1A@?0A@EA@bad_alloc@std@@8 DD FLAT:??_R0?AVbad_alloc@std@@@8 ; std::bad_alloc::`RTTI Base Class Descriptor at (0,-1,0,64)'
	DD	01H
	DD	00H
	DD	0ffffffffH
	DD	00H
	DD	040H
	DD	FLAT:??_R3bad_alloc@std@@8
rdata$r	ENDS
;	COMDAT ??_R1A@?0A@EA@bad_array_new_length@std@@8
rdata$r	SEGMENT
??_R1A@?0A@EA@bad_array_new_length@std@@8 DD FLAT:??_R0?AVbad_array_new_length@std@@@8 ; std::bad_array_new_length::`RTTI Base Class Descriptor at (0,-1,0,64)'
	DD	02H
	DD	00H
	DD	0ffffffffH
	DD	00H
	DD	040H
	DD	FLAT:??_R3bad_array_new_length@std@@8
rdata$r	ENDS
;	COMDAT ??_R2bad_array_new_length@std@@8
rdata$r	SEGMENT
??_R2bad_array_new_length@std@@8 DD FLAT:??_R1A@?0A@EA@bad_array_new_length@std@@8 ; std::bad_array_new_length::`RTTI Base Class Array'
	DD	FLAT:??_R1A@?0A@EA@bad_alloc@std@@8
	DD	FLAT:??_R1A@?0A@EA@exception@std@@8
rdata$r	ENDS
;	COMDAT ??_R3bad_array_new_length@std@@8
rdata$r	SEGMENT
??_R3bad_array_new_length@std@@8 DD 00H			; std::bad_array_new_length::`RTTI Class Hierarchy Descriptor'
	DD	00H
	DD	03H
	DD	FLAT:??_R2bad_array_new_length@std@@8
rdata$r	ENDS
;	COMDAT ??_R4bad_array_new_length@std@@6B@
rdata$r	SEGMENT
??_R4bad_array_new_length@std@@6B@ DD 00H		; std::bad_array_new_length::`RTTI Complete Object Locator'
	DD	00H
	DD	00H
	DD	FLAT:??_R0?AVbad_array_new_length@std@@@8
	DD	FLAT:??_R3bad_array_new_length@std@@8
rdata$r	ENDS
;	COMDAT ??_R1A@?0A@EA@exception@std@@8
rdata$r	SEGMENT
??_R1A@?0A@EA@exception@std@@8 DD FLAT:??_R0?AVexception@std@@@8 ; std::exception::`RTTI Base Class Descriptor at (0,-1,0,64)'
	DD	00H
	DD	00H
	DD	0ffffffffH
	DD	00H
	DD	040H
	DD	FLAT:??_R3exception@std@@8
rdata$r	ENDS
;	COMDAT ??_R2exception@std@@8
rdata$r	SEGMENT
??_R2exception@std@@8 DD FLAT:??_R1A@?0A@EA@exception@std@@8 ; std::exception::`RTTI Base Class Array'
rdata$r	ENDS
;	COMDAT ??_R3exception@std@@8
rdata$r	SEGMENT
??_R3exception@std@@8 DD 00H				; std::exception::`RTTI Class Hierarchy Descriptor'
	DD	00H
	DD	01H
	DD	FLAT:??_R2exception@std@@8
rdata$r	ENDS
;	COMDAT ??_R4exception@std@@6B@
rdata$r	SEGMENT
??_R4exception@std@@6B@ DD 00H				; std::exception::`RTTI Complete Object Locator'
	DD	00H
	DD	00H
	DD	FLAT:??_R0?AVexception@std@@@8
	DD	FLAT:??_R3exception@std@@8
rdata$r	ENDS
;	COMDAT ??_C@_0BB@GCADKGJO@map?1set?5too?5long@
CONST	SEGMENT
??_C@_0BB@GCADKGJO@map?1set?5too?5long@ DB 'map/set too long', 00H ; `string'
CONST	ENDS
;	COMDAT ??_C@_0BA@JFNIOLAK@string?5too?5long@
CONST	SEGMENT
??_C@_0BA@JFNIOLAK@string?5too?5long@ DB 'string too long', 00H ; `string'
CONST	ENDS
;	COMDAT __CT??_R0?AVbad_alloc@std@@@8??0bad_alloc@std@@QAE@ABV01@@Z12
xdata$x	SEGMENT
__CT??_R0?AVbad_alloc@std@@@8??0bad_alloc@std@@QAE@ABV01@@Z12 DD 010H
	DD	FLAT:??_R0?AVbad_alloc@std@@@8
	DD	00H
	DD	0ffffffffH
	ORG $+4
	DD	0cH
	DD	FLAT:??0bad_alloc@std@@QAE@ABV01@@Z
xdata$x	ENDS
;	COMDAT ??_R0?AVbad_alloc@std@@@8
data$r	SEGMENT
??_R0?AVbad_alloc@std@@@8 DD FLAT:??_7type_info@@6B@	; std::bad_alloc `RTTI Type Descriptor'
	DD	00H
	DB	'.?AVbad_alloc@std@@', 00H
data$r	ENDS
;	COMDAT __CT??_R0?AVbad_array_new_length@std@@@8??0bad_array_new_length@std@@QAE@ABV01@@Z12
xdata$x	SEGMENT
__CT??_R0?AVbad_array_new_length@std@@@8??0bad_array_new_length@std@@QAE@ABV01@@Z12 DD 00H
	DD	FLAT:??_R0?AVbad_array_new_length@std@@@8
	DD	00H
	DD	0ffffffffH
	ORG $+4
	DD	0cH
	DD	FLAT:??0bad_array_new_length@std@@QAE@ABV01@@Z
xdata$x	ENDS
;	COMDAT ??_R0?AVbad_array_new_length@std@@@8
data$r	SEGMENT
??_R0?AVbad_array_new_length@std@@@8 DD FLAT:??_7type_info@@6B@ ; std::bad_array_new_length `RTTI Type Descriptor'
	DD	00H
	DB	'.?AVbad_array_new_length@std@@', 00H
data$r	ENDS
;	COMDAT __CTA3?AVbad_array_new_length@std@@
xdata$x	SEGMENT
__CTA3?AVbad_array_new_length@std@@ DD 03H
	DD	FLAT:__CT??_R0?AVbad_array_new_length@std@@@8??0bad_array_new_length@std@@QAE@ABV01@@Z12
	DD	FLAT:__CT??_R0?AVbad_alloc@std@@@8??0bad_alloc@std@@QAE@ABV01@@Z12
	DD	FLAT:__CT??_R0?AVexception@std@@@8??0exception@std@@QAE@ABV01@@Z12
xdata$x	ENDS
;	COMDAT __TI3?AVbad_array_new_length@std@@
xdata$x	SEGMENT
__TI3?AVbad_array_new_length@std@@ DD 00H
	DD	FLAT:??1bad_array_new_length@std@@UAE@XZ
	DD	00H
	DD	FLAT:__CTA3?AVbad_array_new_length@std@@
xdata$x	ENDS
;	COMDAT __CT??_R0?AVexception@std@@@8??0exception@std@@QAE@ABV01@@Z12
xdata$x	SEGMENT
__CT??_R0?AVexception@std@@@8??0exception@std@@QAE@ABV01@@Z12 DD 00H
	DD	FLAT:??_R0?AVexception@std@@@8
	DD	00H
	DD	0ffffffffH
	ORG $+4
	DD	0cH
	DD	FLAT:??0exception@std@@QAE@ABV01@@Z
xdata$x	ENDS
;	COMDAT ??_R0?AVexception@std@@@8
data$r	SEGMENT
??_R0?AVexception@std@@@8 DD FLAT:??_7type_info@@6B@	; std::exception `RTTI Type Descriptor'
	DD	00H
	DB	'.?AVexception@std@@', 00H
data$r	ENDS
;	COMDAT ??_C@_0BF@KINCDENJ@bad?5array?5new?5length@
CONST	SEGMENT
??_C@_0BF@KINCDENJ@bad?5array?5new?5length@ DB 'bad array new length', 00H ; `string'
CONST	ENDS
;	COMDAT ??_7bad_array_new_length@std@@6B@
CONST	SEGMENT
??_7bad_array_new_length@std@@6B@ DD FLAT:??_R4bad_array_new_length@std@@6B@ ; std::bad_array_new_length::`vftable'
	DD	FLAT:??_Ebad_array_new_length@std@@UAEPAXI@Z
	DD	FLAT:?what@exception@std@@UBEPBDXZ
CONST	ENDS
;	COMDAT ??_7bad_alloc@std@@6B@
CONST	SEGMENT
??_7bad_alloc@std@@6B@ DD FLAT:??_R4bad_alloc@std@@6B@	; std::bad_alloc::`vftable'
	DD	FLAT:??_Ebad_alloc@std@@UAEPAXI@Z
	DD	FLAT:?what@exception@std@@UBEPBDXZ
CONST	ENDS
;	COMDAT ??_C@_0BC@EOODALEL@Unknown?5exception@
CONST	SEGMENT
??_C@_0BC@EOODALEL@Unknown?5exception@ DB 'Unknown exception', 00H ; `string'
CONST	ENDS
;	COMDAT ??_7exception@std@@6B@
CONST	SEGMENT
??_7exception@std@@6B@ DD FLAT:??_R4exception@std@@6B@	; std::exception::`vftable'
	DD	FLAT:??_Eexception@std@@UAEPAXI@Z
	DD	FLAT:?what@exception@std@@UBEPBDXZ
CONST	ENDS
;	COMDAT xdata$x
xdata$x	SEGMENT
__unwindtable$??$_Uninitialized_move@PAUSTerrainTexture@@V?$allocator@USTerrainTexture@@@std@@@std@@YAPAUSTerrainTexture@@QAU1@0PAU1@AAV?$allocator@USTerrainTexture@@@0@@Z DD 0ffffffffH
	DD	FLAT:__unwindfunclet$??$_Uninitialized_move@PAUSTerrainTexture@@V?$allocator@USTerrainTexture@@@std@@@std@@YAPAUSTerrainTexture@@QAU1@0PAU1@AAV?$allocator@USTerrainTexture@@@0@@Z$0
__ehfuncinfo$??$_Uninitialized_move@PAUSTerrainTexture@@V?$allocator@USTerrainTexture@@@std@@@std@@YAPAUSTerrainTexture@@QAU1@0PAU1@AAV?$allocator@USTerrainTexture@@@0@@Z DD 019930522H
	DD	01H
	DD	FLAT:__unwindtable$??$_Uninitialized_move@PAUSTerrainTexture@@V?$allocator@USTerrainTexture@@@std@@@std@@YAPAUSTerrainTexture@@QAU1@0PAU1@AAV?$allocator@USTerrainTexture@@@0@@Z
	DD	2 DUP(00H)
	DD	2 DUP(00H)
	DD	00H
	DD	01H
xdata$x	ENDS
;	COMDAT xdata$x
xdata$x	SEGMENT
__unwindtable$??$_Emplace_reallocate@ABUSTerrainTexture@@@?$vector@USTerrainTexture@@V?$allocator@USTerrainTexture@@@std@@@std@@AAEPAUSTerrainTexture@@QAU2@ABU2@@Z DD 0ffffffffH
	DD	FLAT:__unwindfunclet$??$_Emplace_reallocate@ABUSTerrainTexture@@@?$vector@USTerrainTexture@@V?$allocator@USTerrainTexture@@@std@@@std@@AAEPAUSTerrainTexture@@QAU2@ABU2@@Z$0
__ehfuncinfo$??$_Emplace_reallocate@ABUSTerrainTexture@@@?$vector@USTerrainTexture@@V?$allocator@USTerrainTexture@@@std@@@std@@AAEPAUSTerrainTexture@@QAU2@ABU2@@Z DD 019930522H
	DD	01H
	DD	FLAT:__unwindtable$??$_Emplace_reallocate@ABUSTerrainTexture@@@?$vector@USTerrainTexture@@V?$allocator@USTerrainTexture@@@std@@@std@@AAEPAUSTerrainTexture@@QAU2@ABU2@@Z
	DD	2 DUP(00H)
	DD	2 DUP(00H)
	DD	00H
	DD	01H
xdata$x	ENDS
;	COMDAT xdata$x
xdata$x	SEGMENT
__unwindtable$??$_Uninitialized_value_construct_n@V?$allocator@USTerrainTexture@@@std@@@std@@YAPAUSTerrainTexture@@PAU1@IAAV?$allocator@USTerrainTexture@@@0@@Z DD 0ffffffffH
	DD	FLAT:__unwindfunclet$??$_Uninitialized_value_construct_n@V?$allocator@USTerrainTexture@@@std@@@std@@YAPAUSTerrainTexture@@PAU1@IAAV?$allocator@USTerrainTexture@@@0@@Z$0
__ehfuncinfo$??$_Uninitialized_value_construct_n@V?$allocator@USTerrainTexture@@@std@@@std@@YAPAUSTerrainTexture@@PAU1@IAAV?$allocator@USTerrainTexture@@@0@@Z DD 019930522H
	DD	01H
	DD	FLAT:__unwindtable$??$_Uninitialized_value_construct_n@V?$allocator@USTerrainTexture@@@std@@@std@@YAPAUSTerrainTexture@@PAU1@IAAV?$allocator@USTerrainTexture@@@0@@Z
	DD	2 DUP(00H)
	DD	2 DUP(00H)
	DD	00H
	DD	01H
xdata$x	ENDS
;	COMDAT xdata$x
xdata$x	SEGMENT
__unwindtable$??$_Resize_reallocate@U_Value_init_tag@std@@@?$vector@USTerrainTexture@@V?$allocator@USTerrainTexture@@@std@@@std@@AAEXIABU_Value_init_tag@1@@Z DD 0ffffffffH
	DD	FLAT:__unwindfunclet$??$_Resize_reallocate@U_Value_init_tag@std@@@?$vector@USTerrainTexture@@V?$allocator@USTerrainTexture@@@std@@@std@@AAEXIABU_Value_init_tag@1@@Z$0
__ehfuncinfo$??$_Resize_reallocate@U_Value_init_tag@std@@@?$vector@USTerrainTexture@@V?$allocator@USTerrainTexture@@@std@@@std@@AAEXIABU_Value_init_tag@1@@Z DD 019930522H
	DD	01H
	DD	FLAT:__unwindtable$??$_Resize_reallocate@U_Value_init_tag@std@@@?$vector@USTerrainTexture@@V?$allocator@USTerrainTexture@@@std@@@std@@AAEXIABU_Value_init_tag@1@@Z
	DD	2 DUP(00H)
	DD	2 DUP(00H)
	DD	00H
	DD	01H
xdata$x	ENDS
;	COMDAT xdata$x
xdata$x	SEGMENT
__unwindtable$??$_Uninitialized_copy@PAUSTerrainTexture@@PAU1@V?$allocator@USTerrainTexture@@@std@@@std@@YAPAUSTerrainTexture@@PAU1@00AAV?$allocator@USTerrainTexture@@@0@@Z DD 0ffffffffH
	DD	FLAT:__unwindfunclet$??$_Uninitialized_copy@PAUSTerrainTexture@@PAU1@V?$allocator@USTerrainTexture@@@std@@@std@@YAPAUSTerrainTexture@@PAU1@00AAV?$allocator@USTerrainTexture@@@0@@Z$0
__ehfuncinfo$??$_Uninitialized_copy@PAUSTerrainTexture@@PAU1@V?$allocator@USTerrainTexture@@@std@@@std@@YAPAUSTerrainTexture@@PAU1@00AAV?$allocator@USTerrainTexture@@@0@@Z DD 019930522H
	DD	01H
	DD	FLAT:__unwindtable$??$_Uninitialized_copy@PAUSTerrainTexture@@PAU1@V?$allocator@USTerrainTexture@@@std@@@std@@YAPAUSTerrainTexture@@PAU1@00AAV?$allocator@USTerrainTexture@@@0@@Z
	DD	2 DUP(00H)
	DD	2 DUP(00H)
	DD	00H
	DD	01H
xdata$x	ENDS
;	COMDAT xdata$x
xdata$x	SEGMENT
__unwindtable$??$?0ABUpiecewise_construct_t@std@@V?$tuple@$$QAV?$basic_string@DU?$char_traits@D@std@@V?$allocator@D@2@@std@@@1@V?$tuple@$$V@1@@?$_Tree_temp_node@V?$allocator@U?$_Tree_node@U?$pair@$$CBV?$basic_string@DU?$char_traits@D@std@@V?$allocator@D@2@@std@@V?$vector@V?$basic_string@DU?$char_traits@D@std@@V?$allocator@D@2@@std@@V?$allocator@V?$basic_string@DU?$char_traits@D@std@@V?$allocator@D@2@@std@@@2@@2@@std@@PAX@std@@@std@@@std@@QAE@AAV?$allocator@U?$_Tree_node@U?$pair@$$CBV?$basic_string@DU?$char_traits@D@std@@V?$allocator@D@2@@std@@V?$vector@V?$basic_string@DU?$char_traits@D@std@@V?$allocator@D@2@@std@@V?$allocator@V?$basic_string@DU?$char_traits@D@std@@V?$allocator@D@2@@std@@@2@@2@@std@@PAX@std@@@1@PAU?$_Tree_node@U?$pair@$$CBV?$basic_string@DU?$char_traits@D@std@@V?$allocator@D@2@@std@@V?$vector@V?$basic_string@DU?$char_traits@D@std@@V?$allocator@D@2@@std@@V?$allocator@V?$basic_string@DU?$char_traits@D@std@@V?$allocator@D@2@@std@@@2@@2@@std@@PAX@1@ABUpiecewise_construct_t@1@$$QAV?$tuple@$$QAV?$basic_string@DU?$char_traits@D@std@@V?$allocator@D@2@@std@@@1@$$QAV?$tuple@$$V@1@@Z DD 0ffffffffH
	DD	FLAT:__unwindfunclet$??$?0ABUpiecewise_construct_t@std@@V?$tuple@$$QAV?$basic_string@DU?$char_traits@D@std@@V?$allocator@D@2@@std@@@1@V?$tuple@$$V@1@@?$_Tree_temp_node@V?$allocator@U?$_Tree_node@U?$pair@$$CBV?$basic_string@DU?$char_traits@D@std@@V?$allocator@D@2@@std@@V?$vector@V?$basic_string@DU?$char_traits@D@std@@V?$allocator@D@2@@std@@V?$allocator@V?$basic_string@DU?$char_traits@D@std@@V?$allocator@D@2@@std@@@2@@2@@std@@PAX@std@@@std@@@std@@QAE@AAV?$allocator@U?$_Tree_node@U?$pair@$$CBV?$basic_string@DU?$char_traits@D@std@@V?$allocator@D@2@@std@@V?$vector@V?$basic_string@DU?$char_traits@D@std@@V?$allocator@D@2@@std@@V?$allocator@V?$basic_string@DU?$char_traits@D@std@@V?$allocator@D@2@@std@@@2@@2@@std@@PAX@std@@@1@PAU?$_Tree_node@U?$pair@$$CBV?$basic_string@DU?$char_traits@D@std@@V?$allocator@D@2@@std@@V?$vector@V?$basic_string@DU?$char_traits@D@std@@V?$allocator@D@2@@std@@V?$allocator@V?$basic_string@DU?$char_traits@D@std@@V?$allocator@D@2@@std@@@2@@2@@std@@PAX@1@ABUpiecewise_construct_t@1@$$QAV?$tuple@$$QAV?$basic_string@DU?$char_traits@D@std@@V?$allocator@D@2@@std@@@1@$$QAV?$tuple@$$V@1@@Z$1
__ehfuncinfo$??$?0ABUpiecewise_construct_t@std@@V?$tuple@$$QAV?$basic_string@DU?$char_traits@D@std@@V?$allocator@D@2@@std@@@1@V?$tuple@$$V@1@@?$_Tree_temp_node@V?$allocator@U?$_Tree_node@U?$pair@$$CBV?$basic_string@DU?$char_traits@D@std@@V?$allocator@D@2@@std@@V?$vector@V?$basic_string@DU?$char_traits@D@std@@V?$allocator@D@2@@std@@V?$allocator@V?$basic_string@DU?$char_traits@D@std@@V?$allocator@D@2@@std@@@2@@2@@std@@PAX@std@@@std@@@std@@QAE@AAV?$allocator@U?$_Tree_node@U?$pair@$$CBV?$basic_string@DU?$char_traits@D@std@@V?$allocator@D@2@@std@@V?$vector@V?$basic_string@DU?$char_traits@D@std@@V?$allocator@D@2@@std@@V?$allocator@V?$basic_string@DU?$char_traits@D@std@@V?$allocator@D@2@@std@@@2@@2@@std@@PAX@std@@@1@PAU?$_Tree_node@U?$pair@$$CBV?$basic_string@DU?$char_traits@D@std@@V?$allocator@D@2@@std@@V?$vector@V?$basic_string@DU?$char_traits@D@std@@V?$allocator@D@2@@std@@V?$allocator@V?$basic_string@DU?$char_traits@D@std@@V?$allocator@D@2@@std@@@2@@2@@std@@PAX@1@ABUpiecewise_construct_t@1@$$QAV?$tuple@$$QAV?$basic_string@DU?$char_traits@D@std@@V?$allocator@D@2@@std@@@1@$$QAV?$tuple@$$V@1@@Z DD 019930522H
	DD	01H
	DD	FLAT:__unwindtable$??$?0ABUpiecewise_construct_t@std@@V?$tuple@$$QAV?$basic_string@DU?$char_traits@D@std@@V?$allocator@D@2@@std@@@1@V?$tuple@$$V@1@@?$_Tree_temp_node@V?$allocator@U?$_Tree_node@U?$pair@$$CBV?$basic_string@DU?$char_traits@D@std@@V?$allocator@D@2@@std@@V?$vector@V?$basic_string@DU?$char_traits@D@std@@V?$allocator@D@2@@std@@V?$allocator@V?$basic_string@DU?$char_traits@D@std@@V?$allocator@D@2@@std@@@2@@2@@std@@PAX@std@@@std@@@std@@QAE@AAV?$allocator@U?$_Tree_node@U?$pair@$$CBV?$basic_string@DU?$char_traits@D@std@@V?$allocator@D@2@@std@@V?$vector@V?$basic_string@DU?$char_traits@D@std@@V?$allocator@D@2@@std@@V?$allocator@V?$basic_string@DU?$char_traits@D@std@@V?$allocator@D@2@@std@@@2@@2@@std@@PAX@std@@@1@PAU?$_Tree_node@U?$pair@$$CBV?$basic_string@DU?$char_traits@D@std@@V?$allocator@D@2@@std@@V?$vector@V?$basic_string@DU?$char_traits@D@std@@V?$allocator@D@2@@std@@V?$allocator@V?$basic_string@DU?$char_traits@D@std@@V?$allocator@D@2@@std@@@2@@2@@std@@PAX@1@ABUpiecewise_construct_t@1@$$QAV?$tuple@$$QAV?$basic_string@DU?$char_traits@D@std@@V?$allocator@D@2@@std@@@1@$$QAV?$tuple@$$V@1@@Z
	DD	2 DUP(00H)
	DD	2 DUP(00H)
	DD	00H
	DD	01H
xdata$x	ENDS
;	COMDAT xdata$x
xdata$x	SEGMENT
__unwindtable$??0?$_Tree_temp_node_alloc@V?$allocator@U?$_Tree_node@U?$pair@$$CBV?$basic_string@DU?$char_traits@D@std@@V?$allocator@D@2@@std@@V?$vector@V?$basic_string@DU?$char_traits@D@std@@V?$allocator@D@2@@std@@V?$allocator@V?$basic_string@DU?$char_traits@D@std@@V?$allocator@D@2@@std@@@2@@2@@std@@PAX@std@@@std@@@std@@QAE@AAV?$allocator@U?$_Tree_node@U?$pair@$$CBV?$basic_string@DU?$char_traits@D@std@@V?$allocator@D@2@@std@@V?$vector@V?$basic_string@DU?$char_traits@D@std@@V?$allocator@D@2@@std@@V?$allocator@V?$basic_string@DU?$char_traits@D@std@@V?$allocator@D@2@@std@@@2@@2@@std@@PAX@std@@@1@@Z DD 0ffffffffH
	DD	FLAT:__unwindfunclet$??0?$_Tree_temp_node_alloc@V?$allocator@U?$_Tree_node@U?$pair@$$CBV?$basic_string@DU?$char_traits@D@std@@V?$allocator@D@2@@std@@V?$vector@V?$basic_string@DU?$char_traits@D@std@@V?$allocator@D@2@@std@@V?$allocator@V?$basic_string@DU?$char_traits@D@std@@V?$allocator@D@2@@std@@@2@@2@@std@@PAX@std@@@std@@@std@@QAE@AAV?$allocator@U?$_Tree_node@U?$pair@$$CBV?$basic_string@DU?$char_traits@D@std@@V?$allocator@D@2@@std@@V?$vector@V?$basic_string@DU?$char_traits@D@std@@V?$allocator@D@2@@std@@V?$allocator@V?$basic_string@DU?$char_traits@D@std@@V?$allocator@D@2@@std@@@2@@2@@std@@PAX@std@@@1@@Z$0
__ehfuncinfo$??0?$_Tree_temp_node_alloc@V?$allocator@U?$_Tree_node@U?$pair@$$CBV?$basic_string@DU?$char_traits@D@std@@V?$allocator@D@2@@std@@V?$vector@V?$basic_string@DU?$char_traits@D@std@@V?$allocator@D@2@@std@@V?$allocator@V?$basic_string@DU?$char_traits@D@std@@V?$allocator@D@2@@std@@@2@@2@@std@@PAX@std@@@std@@@std@@QAE@AAV?$allocator@U?$_Tree_node@U?$pair@$$CBV?$basic_string@DU?$char_traits@D@std@@V?$allocator@D@2@@std@@V?$vector@V?$basic_string@DU?$char_traits@D@std@@V?$allocator@D@2@@std@@V?$allocator@V?$basic_string@DU?$char_traits@D@std@@V?$allocator@D@2@@std@@@2@@2@@std@@PAX@std@@@1@@Z DD 019930522H
	DD	01H
	DD	FLAT:__unwindtable$??0?$_Tree_temp_node_alloc@V?$allocator@U?$_Tree_node@U?$pair@$$CBV?$basic_string@DU?$char_traits@D@std@@V?$allocator@D@2@@std@@V?$vector@V?$basic_string@DU?$char_traits@D@std@@V?$allocator@D@2@@std@@V?$allocator@V?$basic_string@DU?$char_traits@D@std@@V?$allocator@D@2@@std@@@2@@2@@std@@PAX@std@@@std@@@std@@QAE@AAV?$allocator@U?$_Tree_node@U?$pair@$$CBV?$basic_string@DU?$char_traits@D@std@@V?$allocator@D@2@@std@@V?$vector@V?$basic_string@DU?$char_traits@D@std@@V?$allocator@D@2@@std@@V?$allocator@V?$basic_string@DU?$char_traits@D@std@@V?$allocator@D@2@@std@@@2@@2@@std@@PAX@std@@@1@@Z
	DD	2 DUP(00H)
	DD	2 DUP(00H)
	DD	00H
	DD	01H
xdata$x	ENDS
;	COMDAT xdata$x
xdata$x	SEGMENT
__unwindtable$??$_Resize@U_Value_init_tag@std@@@?$vector@USTerrainTexture@@V?$allocator@USTerrainTexture@@@std@@@std@@AAEXIABU_Value_init_tag@1@@Z DD 0ffffffffH
	DD	FLAT:__unwindfunclet$??$_Resize@U_Value_init_tag@std@@@?$vector@USTerrainTexture@@V?$allocator@USTerrainTexture@@@std@@@std@@AAEXIABU_Value_init_tag@1@@Z$0
__ehfuncinfo$??$_Resize@U_Value_init_tag@std@@@?$vector@USTerrainTexture@@V?$allocator@USTerrainTexture@@@std@@@std@@AAEXIABU_Value_init_tag@1@@Z DD 019930522H
	DD	01H
	DD	FLAT:__unwindtable$??$_Resize@U_Value_init_tag@std@@@?$vector@USTerrainTexture@@V?$allocator@USTerrainTexture@@@std@@@std@@AAEXIABU_Value_init_tag@1@@Z
	DD	2 DUP(00H)
	DD	2 DUP(00H)
	DD	00H
	DD	01H
xdata$x	ENDS
;	COMDAT xdata$x
xdata$x	SEGMENT
__unwindtable$??$_Reallocate@$0A@@?$vector@USTerrainTexture@@V?$allocator@USTerrainTexture@@@std@@@std@@AAEXAAI@Z DD 0ffffffffH
	DD	FLAT:__unwindfunclet$??$_Reallocate@$0A@@?$vector@USTerrainTexture@@V?$allocator@USTerrainTexture@@@std@@@std@@AAEXAAI@Z$0
__ehfuncinfo$??$_Reallocate@$0A@@?$vector@USTerrainTexture@@V?$allocator@USTerrainTexture@@@std@@@std@@AAEXAAI@Z DD 019930522H
	DD	01H
	DD	FLAT:__unwindtable$??$_Reallocate@$0A@@?$vector@USTerrainTexture@@V?$allocator@USTerrainTexture@@@std@@@std@@AAEXAAI@Z
	DD	2 DUP(00H)
	DD	2 DUP(00H)
	DD	00H
	DD	01H
xdata$x	ENDS
;	COMDAT xdata$x
xdata$x	SEGMENT
__unwindtable$??$_Try_emplace@V?$basic_string@DU?$char_traits@D@std@@V?$allocator@D@2@@std@@$$V@?$map@V?$basic_string@DU?$char_traits@D@std@@V?$allocator@D@2@@std@@V?$vector@V?$basic_string@DU?$char_traits@D@std@@V?$allocator@D@2@@std@@V?$allocator@V?$basic_string@DU?$char_traits@D@std@@V?$allocator@D@2@@std@@@2@@2@U?$less@V?$basic_string@DU?$char_traits@D@std@@V?$allocator@D@2@@std@@@2@V?$allocator@U?$pair@$$CBV?$basic_string@DU?$char_traits@D@std@@V?$allocator@D@2@@std@@V?$vector@V?$basic_string@DU?$char_traits@D@std@@V?$allocator@D@2@@std@@V?$allocator@V?$basic_string@DU?$char_traits@D@std@@V?$allocator@D@2@@std@@@2@@2@@std@@@2@@std@@AAE?AU?$pair@PAU?$_Tree_node@U?$pair@$$CBV?$basic_string@DU?$char_traits@D@std@@V?$allocator@D@2@@std@@V?$vector@V?$basic_string@DU?$char_traits@D@std@@V?$allocator@D@2@@std@@V?$allocator@V?$basic_string@DU?$char_traits@D@std@@V?$allocator@D@2@@std@@@2@@2@@std@@PAX@std@@_N@1@$$QAV?$basic_string@DU?$char_traits@D@std@@V?$allocator@D@2@@1@@Z DD 0ffffffffH
	DD	FLAT:__unwindfunclet$??$_Try_emplace@V?$basic_string@DU?$char_traits@D@std@@V?$allocator@D@2@@std@@$$V@?$map@V?$basic_string@DU?$char_traits@D@std@@V?$allocator@D@2@@std@@V?$vector@V?$basic_string@DU?$char_traits@D@std@@V?$allocator@D@2@@std@@V?$allocator@V?$basic_string@DU?$char_traits@D@std@@V?$allocator@D@2@@std@@@2@@2@U?$less@V?$basic_string@DU?$char_traits@D@std@@V?$allocator@D@2@@std@@@2@V?$allocator@U?$pair@$$CBV?$basic_string@DU?$char_traits@D@std@@V?$allocator@D@2@@std@@V?$vector@V?$basic_string@DU?$char_traits@D@std@@V?$allocator@D@2@@std@@V?$allocator@V?$basic_string@DU?$char_traits@D@std@@V?$allocator@D@2@@std@@@2@@2@@std@@@2@@std@@AAE?AU?$pair@PAU?$_Tree_node@U?$pair@$$CBV?$basic_string@DU?$char_traits@D@std@@V?$allocator@D@2@@std@@V?$vector@V?$basic_string@DU?$char_traits@D@std@@V?$allocator@D@2@@std@@V?$allocator@V?$basic_string@DU?$char_traits@D@std@@V?$allocator@D@2@@std@@@2@@2@@std@@PAX@std@@_N@1@$$QAV?$basic_string@DU?$char_traits@D@std@@V?$allocator@D@2@@1@@Z$2
__ehfuncinfo$??$_Try_emplace@V?$basic_string@DU?$char_traits@D@std@@V?$allocator@D@2@@std@@$$V@?$map@V?$basic_string@DU?$char_traits@D@std@@V?$allocator@D@2@@std@@V?$vector@V?$basic_string@DU?$char_traits@D@std@@V?$allocator@D@2@@std@@V?$allocator@V?$basic_string@DU?$char_traits@D@std@@V?$allocator@D@2@@std@@@2@@2@U?$less@V?$basic_string@DU?$char_traits@D@std@@V?$allocator@D@2@@std@@@2@V?$allocator@U?$pair@$$CBV?$basic_string@DU?$char_traits@D@std@@V?$allocator@D@2@@std@@V?$vector@V?$basic_string@DU?$char_traits@D@std@@V?$allocator@D@2@@std@@V?$allocator@V?$basic_string@DU?$char_traits@D@std@@V?$allocator@D@2@@std@@@2@@2@@std@@@2@@std@@AAE?AU?$pair@PAU?$_Tree_node@U?$pair@$$CBV?$basic_string@DU?$char_traits@D@std@@V?$allocator@D@2@@std@@V?$vector@V?$basic_string@DU?$char_traits@D@std@@V?$allocator@D@2@@std@@V?$allocator@V?$basic_string@DU?$char_traits@D@std@@V?$allocator@D@2@@std@@@2@@2@@std@@PAX@std@@_N@1@$$QAV?$basic_string@DU?$char_traits@D@std@@V?$allocator@D@2@@1@@Z DD 019930522H
	DD	01H
	DD	FLAT:__unwindtable$??$_Try_emplace@V?$basic_string@DU?$char_traits@D@std@@V?$allocator@D@2@@std@@$$V@?$map@V?$basic_string@DU?$char_traits@D@std@@V?$allocator@D@2@@std@@V?$vector@V?$basic_string@DU?$char_traits@D@std@@V?$allocator@D@2@@std@@V?$allocator@V?$basic_string@DU?$char_traits@D@std@@V?$allocator@D@2@@std@@@2@@2@U?$less@V?$basic_string@DU?$char_traits@D@std@@V?$allocator@D@2@@std@@@2@V?$allocator@U?$pair@$$CBV?$basic_string@DU?$char_traits@D@std@@V?$allocator@D@2@@std@@V?$vector@V?$basic_string@DU?$char_traits@D@std@@V?$allocator@D@2@@std@@V?$allocator@V?$basic_string@DU?$char_traits@D@std@@V?$allocator@D@2@@std@@@2@@2@@std@@@2@@std@@AAE?AU?$pair@PAU?$_Tree_node@U?$pair@$$CBV?$basic_string@DU?$char_traits@D@std@@V?$allocator@D@2@@std@@V?$vector@V?$basic_string@DU?$char_traits@D@std@@V?$allocator@D@2@@std@@V?$allocator@V?$basic_string@DU?$char_traits@D@std@@V?$allocator@D@2@@std@@@2@@2@@std@@PAX@std@@_N@1@$$QAV?$basic_string@DU?$char_traits@D@std@@V?$allocator@D@2@@1@@Z
	DD	2 DUP(00H)
	DD	2 DUP(00H)
	DD	00H
	DD	01H
xdata$x	ENDS
;	COMDAT xdata$x
xdata$x	SEGMENT
__unwindtable$??A?$map@V?$basic_string@DU?$char_traits@D@std@@V?$allocator@D@2@@std@@V?$vector@V?$basic_string@DU?$char_traits@D@std@@V?$allocator@D@2@@std@@V?$allocator@V?$basic_string@DU?$char_traits@D@std@@V?$allocator@D@2@@std@@@2@@2@U?$less@V?$basic_string@DU?$char_traits@D@std@@V?$allocator@D@2@@std@@@2@V?$allocator@U?$pair@$$CBV?$basic_string@DU?$char_traits@D@std@@V?$allocator@D@2@@std@@V?$vector@V?$basic_string@DU?$char_traits@D@std@@V?$allocator@D@2@@std@@V?$allocator@V?$basic_string@DU?$char_traits@D@std@@V?$allocator@D@2@@std@@@2@@2@@std@@@2@@std@@QAEAAV?$vector@V?$basic_string@DU?$char_traits@D@std@@V?$allocator@D@2@@std@@V?$allocator@V?$basic_string@DU?$char_traits@D@std@@V?$allocator@D@2@@std@@@2@@1@$$QAV?$basic_string@DU?$char_traits@D@std@@V?$allocator@D@2@@1@@Z DD 0ffffffffH
	DD	FLAT:__unwindfunclet$??A?$map@V?$basic_string@DU?$char_traits@D@std@@V?$allocator@D@2@@std@@V?$vector@V?$basic_string@DU?$char_traits@D@std@@V?$allocator@D@2@@std@@V?$allocator@V?$basic_string@DU?$char_traits@D@std@@V?$allocator@D@2@@std@@@2@@2@U?$less@V?$basic_string@DU?$char_traits@D@std@@V?$allocator@D@2@@std@@@2@V?$allocator@U?$pair@$$CBV?$basic_string@DU?$char_traits@D@std@@V?$allocator@D@2@@std@@V?$vector@V?$basic_string@DU?$char_traits@D@std@@V?$allocator@D@2@@std@@V?$allocator@V?$basic_string@DU?$char_traits@D@std@@V?$allocator@D@2@@std@@@2@@2@@std@@@2@@std@@QAEAAV?$vector@V?$basic_string@DU?$char_traits@D@std@@V?$allocator@D@2@@std@@V?$allocator@V?$basic_string@DU?$char_traits@D@std@@V?$allocator@D@2@@std@@@2@@1@$$QAV?$basic_string@DU?$char_traits@D@std@@V?$allocator@D@2@@1@@Z$2
__ehfuncinfo$??A?$map@V?$basic_string@DU?$char_traits@D@std@@V?$allocator@D@2@@std@@V?$vector@V?$basic_string@DU?$char_traits@D@std@@V?$allocator@D@2@@std@@V?$allocator@V?$basic_string@DU?$char_traits@D@std@@V?$allocator@D@2@@std@@@2@@2@U?$less@V?$basic_string@DU?$char_traits@D@std@@V?$allocator@D@2@@std@@@2@V?$allocator@U?$pair@$$CBV?$basic_string@DU?$char_traits@D@std@@V?$allocator@D@2@@std@@V?$vector@V?$basic_string@DU?$char_traits@D@std@@V?$allocator@D@2@@std@@V?$allocator@V?$basic_string@DU?$char_traits@D@std@@V?$allocator@D@2@@std@@@2@@2@@std@@@2@@std@@QAEAAV?$vector@V?$basic_string@DU?$char_traits@D@std@@V?$allocator@D@2@@std@@V?$allocator@V?$basic_string@DU?$char_traits@D@std@@V?$allocator@D@2@@std@@@2@@1@$$QAV?$basic_string@DU?$char_traits@D@std@@V?$allocator@D@2@@1@@Z DD 019930522H
	DD	01H
	DD	FLAT:__unwindtable$??A?$map@V?$basic_string@DU?$char_traits@D@std@@V?$allocator@D@2@@std@@V?$vector@V?$basic_string@DU?$char_traits@D@std@@V?$allocator@D@2@@std@@V?$allocator@V?$basic_string@DU?$char_traits@D@std@@V?$allocator@D@2@@std@@@2@@2@U?$less@V?$basic_string@DU?$char_traits@D@std@@V?$allocator@D@2@@std@@@2@V?$allocator@U?$pair@$$CBV?$basic_string@DU?$char_traits@D@std@@V?$allocator@D@2@@std@@V?$vector@V?$basic_string@DU?$char_traits@D@std@@V?$allocator@D@2@@std@@V?$allocator@V?$basic_string@DU?$char_traits@D@std@@V?$allocator@D@2@@std@@@2@@2@@std@@@2@@std@@QAEAAV?$vector@V?$basic_string@DU?$char_traits@D@std@@V?$allocator@D@2@@std@@V?$allocator@V?$basic_string@DU?$char_traits@D@std@@V?$allocator@D@2@@std@@@2@@1@$$QAV?$basic_string@DU?$char_traits@D@std@@V?$allocator@D@2@@1@@Z
	DD	2 DUP(00H)
	DD	2 DUP(00H)
	DD	00H
	DD	01H
xdata$x	ENDS
;	COMDAT xdata$x
xdata$x	SEGMENT
__unwindtable$?reserve@?$vector@USTerrainTexture@@V?$allocator@USTerrainTexture@@@std@@@std@@QAEXI@Z DD 0ffffffffH
	DD	FLAT:__unwindfunclet$?reserve@?$vector@USTerrainTexture@@V?$allocator@USTerrainTexture@@@std@@@std@@QAEXI@Z$0
__ehfuncinfo$?reserve@?$vector@USTerrainTexture@@V?$allocator@USTerrainTexture@@@std@@@std@@QAEXI@Z DD 019930522H
	DD	01H
	DD	FLAT:__unwindtable$?reserve@?$vector@USTerrainTexture@@V?$allocator@USTerrainTexture@@@std@@@std@@QAEXI@Z
	DD	2 DUP(00H)
	DD	2 DUP(00H)
	DD	00H
	DD	01H
xdata$x	ENDS
;	COMDAT xdata$x
xdata$x	SEGMENT
__unwindtable$?AddEmptyTexture@CTextureSet@@IAEXXZ DD 0ffffffffH
	DD	FLAT:__unwindfunclet$?AddEmptyTexture@CTextureSet@@IAEXXZ$0
__ehfuncinfo$?AddEmptyTexture@CTextureSet@@IAEXXZ DD 019930522H
	DD	01H
	DD	FLAT:__unwindtable$?AddEmptyTexture@CTextureSet@@IAEXXZ
	DD	2 DUP(00H)
	DD	2 DUP(00H)
	DD	00H
	DD	01H
xdata$x	ENDS
;	COMDAT xdata$x
xdata$x	SEGMENT
__unwindtable$?AddTexture@CTextureSet@@QAE_NPBDMMMM_NGGM@Z DD 0ffffffffH
	DD	FLAT:__unwindfunclet$?AddTexture@CTextureSet@@QAE_NPBDMMMM_NGGM@Z$0
__ehfuncinfo$?AddTexture@CTextureSet@@QAE_NPBDMMMM_NGGM@Z DD 019930522H
	DD	01H
	DD	FLAT:__unwindtable$?AddTexture@CTextureSet@@QAE_NPBDMMMM_NGGM@Z
	DD	2 DUP(00H)
	DD	2 DUP(00H)
	DD	00H
	DD	01H
xdata$x	ENDS
;	COMDAT xdata$x
xdata$x	SEGMENT
__ehfuncinfo$?Load@CTextureSet@@QAE_NPBDM@Z DD 019930522H
	DD	0dH
	DD	FLAT:__unwindtable$?Load@CTextureSet@@QAE_NPBDM@Z
	DD	2 DUP(00H)
	DD	2 DUP(00H)
	DD	00H
	DD	01H
__unwindtable$?Load@CTextureSet@@QAE_NPBDM@Z DD 0ffffffffH
	DD	FLAT:__unwindfunclet$?Load@CTextureSet@@QAE_NPBDM@Z$0
	DD	00H
	DD	FLAT:__unwindfunclet$?Load@CTextureSet@@QAE_NPBDM@Z$3
	DD	01H
	DD	FLAT:__unwindfunclet$?Load@CTextureSet@@QAE_NPBDM@Z$37
	DD	00H
	DD	FLAT:__unwindfunclet$?Load@CTextureSet@@QAE_NPBDM@Z$5
	DD	03H
	DD	FLAT:__unwindfunclet$?Load@CTextureSet@@QAE_NPBDM@Z$28
	DD	00H
	DD	FLAT:__unwindfunclet$?Load@CTextureSet@@QAE_NPBDM@Z$6
	DD	05H
	DD	FLAT:__unwindfunclet$?Load@CTextureSet@@QAE_NPBDM@Z$7
	DD	06H
	DD	FLAT:__unwindfunclet$?Load@CTextureSet@@QAE_NPBDM@Z$8
	DD	07H
	DD	FLAT:__unwindfunclet$?Load@CTextureSet@@QAE_NPBDM@Z$9
	DD	08H
	DD	FLAT:__unwindfunclet$?Load@CTextureSet@@QAE_NPBDM@Z$10
	DD	09H
	DD	FLAT:__unwindfunclet$?Load@CTextureSet@@QAE_NPBDM@Z$11
	DD	0aH
	DD	FLAT:__unwindfunclet$?Load@CTextureSet@@QAE_NPBDM@Z$12
	DD	0bH
	DD	FLAT:__unwindfunclet$?Load@CTextureSet@@QAE_NPBDM@Z$13
xdata$x	ENDS
;	COMDAT xdata$x
xdata$x	SEGMENT
__ehfuncinfo$??1CTextureSet@@UAE@XZ DD 019930522H
	DD	00H
	DD	00H
	DD	2 DUP(00H)
	DD	2 DUP(00H)
	DD	00H
	DD	05H
xdata$x	ENDS
;	COMDAT xdata$x
xdata$x	SEGMENT
__unwindtable$??0CTextureSet@@QAE@XZ DD 0ffffffffH
	DD	FLAT:__unwindfunclet$??0CTextureSet@@QAE@XZ$0
__ehfuncinfo$??0CTextureSet@@QAE@XZ DD 019930522H
	DD	01H
	DD	FLAT:__unwindtable$??0CTextureSet@@QAE@XZ
	DD	2 DUP(00H)
	DD	2 DUP(00H)
	DD	00H
	DD	01H
xdata$x	ENDS
;	COMDAT xdata$x
xdata$x	SEGMENT
__unwindtable$??0STerrainTexture@@QAE@ABU0@@Z DD 0ffffffffH
	DD	FLAT:__unwindfunclet$??0STerrainTexture@@QAE@ABU0@@Z$0
__ehfuncinfo$??0STerrainTexture@@QAE@ABU0@@Z DD 019930522H
	DD	01H
	DD	FLAT:__unwindtable$??0STerrainTexture@@QAE@ABU0@@Z
	DD	2 DUP(00H)
	DD	2 DUP(00H)
	DD	00H
	DD	01H
xdata$x	ENDS
;	COMDAT xdata$x
xdata$x	SEGMENT
__unwindtable$??0STerrainTexture@@QAE@XZ DD 0ffffffffH
	DD	FLAT:__unwindfunclet$??0STerrainTexture@@QAE@XZ$0
__ehfuncinfo$??0STerrainTexture@@QAE@XZ DD 019930522H
	DD	01H
	DD	FLAT:__unwindtable$??0STerrainTexture@@QAE@XZ
	DD	2 DUP(00H)
	DD	2 DUP(00H)
	DD	00H
	DD	01H
xdata$x	ENDS
;	COMDAT xdata$x
xdata$x	SEGMENT
__ehfuncinfo$??1?$CRef@VCGraphicImage@@@@QAE@XZ DD 019930522H
	DD	00H
	DD	00H
	DD	2 DUP(00H)
	DD	2 DUP(00H)
	DD	00H
	DD	05H
xdata$x	ENDS
; Function compile flags: /Ogtp
; File D:\Program Files\Microsoft Visual Studio\2022\Community\VC\Tools\MSVC\14.43.34808\include\xmemory
;	COMDAT ??$_Uninitialized_move@PAUSTerrainTexture@@V?$allocator@USTerrainTexture@@@std@@@std@@YAPAUSTerrainTexture@@QAU1@0PAU1@AAV?$allocator@USTerrainTexture@@@0@@Z
_TEXT	SEGMENT
__Backout$ = -24					; size = 12
__$EHRec$ = -12						; size = 12
__First$ = 8						; size = 4
__Last$ = 12						; size = 4
__Dest$ = 16						; size = 4
__Al$ = 20						; size = 4
??$_Uninitialized_move@PAUSTerrainTexture@@V?$allocator@USTerrainTexture@@@std@@@std@@YAPAUSTerrainTexture@@QAU1@0PAU1@AAV?$allocator@USTerrainTexture@@@0@@Z PROC ; std::_Uninitialized_move<STerrainTexture *,std::allocator<STerrainTexture> >, COMDAT

; 1940 :     const _InIt _First, const _InIt _Last, _Alloc_ptr_t<_Alloc> _Dest, _Alloc& _Al) {

  00000	55		 push	 ebp
  00001	8b ec		 mov	 ebp, esp
  00003	6a ff		 push	 -1
  00005	68 00 00 00 00	 push	 __ehhandler$??$_Uninitialized_move@PAUSTerrainTexture@@V?$allocator@USTerrainTexture@@@std@@@std@@YAPAUSTerrainTexture@@QAU1@0PAU1@AAV?$allocator@USTerrainTexture@@@0@@Z
  0000a	64 a1 00 00 00
	00		 mov	 eax, DWORD PTR fs:0
  00010	50		 push	 eax
  00011	83 ec 0c	 sub	 esp, 12			; 0000000cH
  00014	53		 push	 ebx
  00015	56		 push	 esi
  00016	57		 push	 edi
  00017	a1 00 00 00 00	 mov	 eax, DWORD PTR ___security_cookie
  0001c	33 c5		 xor	 eax, ebp
  0001e	50		 push	 eax
  0001f	8d 45 f4	 lea	 eax, DWORD PTR __$EHRec$[ebp]
  00022	64 a3 00 00 00
	00		 mov	 DWORD PTR fs:0, eax

; 1796 :     _CONSTEXPR20 _Uninitialized_backout_al(pointer _Dest, _Alloc& _Al_) : _First(_Dest), _Last(_Dest), _Al(_Al_) {}

  00028	8b 7d 10	 mov	 edi, DWORD PTR __Dest$[ebp]
  0002b	8b 45 14	 mov	 eax, DWORD PTR __Al$[ebp]

; 1941 :     // move [_First, _Last) to raw _Dest, using _Al
; 1942 :     // note: only called internally from elsewhere in the STL
; 1943 : #ifdef _ENABLE_STL_INTERNAL_CHECK
; 1944 :     _STD _Adl_verify_range(_First, _Last);
; 1945 : #endif // ^^^ defined(_ENABLE_STL_INTERNAL_CHECK) ^^^
; 1946 :     using _Ptrval     = typename _Alloc::value_type*;
; 1947 :     auto _UFirst      = _STD _Get_unwrapped(_First);

  0002e	8b 75 08	 mov	 esi, DWORD PTR __First$[ebp]

; 1796 :     _CONSTEXPR20 _Uninitialized_backout_al(pointer _Dest, _Alloc& _Al_) : _First(_Dest), _Last(_Dest), _Al(_Al_) {}

  00031	89 7d e8	 mov	 DWORD PTR __Backout$[ebp], edi
  00034	89 7d ec	 mov	 DWORD PTR __Backout$[ebp+4], edi
  00037	89 45 f0	 mov	 DWORD PTR __Backout$[ebp+8], eax

; 1948 :     const auto _ULast = _STD _Get_unwrapped(_Last);
; 1949 :     if constexpr (conjunction_v<bool_constant<_Iter_move_cat<decltype(_UFirst), _Ptrval>::_Bitcopy_constructible>,
; 1950 :                       _Uses_default_construct<_Alloc, _Ptrval, decltype(_STD move(*_UFirst))>>) {
; 1951 : #if _HAS_CXX20
; 1952 :         if (!_STD is_constant_evaluated())
; 1953 : #endif // _HAS_CXX20
; 1954 :         {
; 1955 :             _STD _Copy_memmove(_UFirst, _ULast, _STD _Unfancy(_Dest));
; 1956 :             return _Dest + (_ULast - _UFirst);
; 1957 :         }
; 1958 :     }
; 1959 : 
; 1960 :     _Uninitialized_backout_al<_Alloc> _Backout{_Dest, _Al};
; 1961 :     for (; _UFirst != _ULast; ++_UFirst) {

  0003a	8b 5d 0c	 mov	 ebx, DWORD PTR __Last$[ebp]
  0003d	c7 45 fc 00 00
	00 00		 mov	 DWORD PTR __$EHRec$[ebp+8], 0
  00044	3b f3		 cmp	 esi, ebx
  00046	74 1e		 je	 SHORT $LN3@Uninitiali
$LL4@Uninitiali:

; 732  :         ::new (const_cast<void*>(static_cast<const volatile void*>(_Ptr))) _Objty(_STD forward<_Types>(_Args)...);

  00048	56		 push	 esi
  00049	8b cf		 mov	 ecx, edi
  0004b	e8 00 00 00 00	 call	 ??0STerrainTexture@@QAE@ABU0@@Z

; 1808 :         ++_Last;

  00050	81 c7 9c 00 00
	00		 add	 edi, 156		; 0000009cH

; 1948 :     const auto _ULast = _STD _Get_unwrapped(_Last);
; 1949 :     if constexpr (conjunction_v<bool_constant<_Iter_move_cat<decltype(_UFirst), _Ptrval>::_Bitcopy_constructible>,
; 1950 :                       _Uses_default_construct<_Alloc, _Ptrval, decltype(_STD move(*_UFirst))>>) {
; 1951 : #if _HAS_CXX20
; 1952 :         if (!_STD is_constant_evaluated())
; 1953 : #endif // _HAS_CXX20
; 1954 :         {
; 1955 :             _STD _Copy_memmove(_UFirst, _ULast, _STD _Unfancy(_Dest));
; 1956 :             return _Dest + (_ULast - _UFirst);
; 1957 :         }
; 1958 :     }
; 1959 : 
; 1960 :     _Uninitialized_backout_al<_Alloc> _Backout{_Dest, _Al};
; 1961 :     for (; _UFirst != _ULast; ++_UFirst) {

  00056	81 c6 9c 00 00
	00		 add	 esi, 156		; 0000009cH

; 1808 :         ++_Last;

  0005c	89 7d ec	 mov	 DWORD PTR __Backout$[ebp+4], edi

; 1948 :     const auto _ULast = _STD _Get_unwrapped(_Last);
; 1949 :     if constexpr (conjunction_v<bool_constant<_Iter_move_cat<decltype(_UFirst), _Ptrval>::_Bitcopy_constructible>,
; 1950 :                       _Uses_default_construct<_Alloc, _Ptrval, decltype(_STD move(*_UFirst))>>) {
; 1951 : #if _HAS_CXX20
; 1952 :         if (!_STD is_constant_evaluated())
; 1953 : #endif // _HAS_CXX20
; 1954 :         {
; 1955 :             _STD _Copy_memmove(_UFirst, _ULast, _STD _Unfancy(_Dest));
; 1956 :             return _Dest + (_ULast - _UFirst);
; 1957 :         }
; 1958 :     }
; 1959 : 
; 1960 :     _Uninitialized_backout_al<_Alloc> _Backout{_Dest, _Al};
; 1961 :     for (; _UFirst != _ULast; ++_UFirst) {

  0005f	3b f3		 cmp	 esi, ebx
  00061	75 e5		 jne	 SHORT $LL4@Uninitiali
  00063	8b 45 14	 mov	 eax, DWORD PTR __Al$[ebp]
$LN3@Uninitiali:

; 1802 :         _STD _Destroy_range(_First, _Last, _Al);

  00066	50		 push	 eax
  00067	57		 push	 edi
  00068	57		 push	 edi
  00069	e8 00 00 00 00	 call	 ??$_Destroy_range@V?$allocator@USTerrainTexture@@@std@@@std@@YAXPAUSTerrainTexture@@QAU1@AAV?$allocator@USTerrainTexture@@@0@@Z ; std::_Destroy_range<std::allocator<STerrainTexture> >
  0006e	83 c4 0c	 add	 esp, 12			; 0000000cH

; 1962 :         _Backout._Emplace_back(_STD move(*_UFirst));
; 1963 :     }
; 1964 : 
; 1965 :     return _Backout._Release();

  00071	8b c7		 mov	 eax, edi

; 1966 : }

  00073	8b 4d f4	 mov	 ecx, DWORD PTR __$EHRec$[ebp]
  00076	64 89 0d 00 00
	00 00		 mov	 DWORD PTR fs:0, ecx
  0007d	59		 pop	 ecx
  0007e	5f		 pop	 edi
  0007f	5e		 pop	 esi
  00080	5b		 pop	 ebx
  00081	8b e5		 mov	 esp, ebp
  00083	5d		 pop	 ebp
  00084	c3		 ret	 0
_TEXT	ENDS
;	COMDAT text$x
text$x	SEGMENT
__unwindfunclet$??$_Uninitialized_move@PAUSTerrainTexture@@V?$allocator@USTerrainTexture@@@std@@@std@@YAPAUSTerrainTexture@@QAU1@0PAU1@AAV?$allocator@USTerrainTexture@@@0@@Z$0:
  00000	8d 4d e8	 lea	 ecx, DWORD PTR __Backout$[ebp]
  00003	e9 00 00 00 00	 jmp	 ??1?$_Uninitialized_backout_al@V?$allocator@USTerrainTexture@@@std@@@std@@QAE@XZ ; std::_Uninitialized_backout_al<std::allocator<STerrainTexture> >::~_Uninitialized_backout_al<std::allocator<STerrainTexture> >
  00008	cc		 int	 3
  00009	cc		 int	 3
  0000a	cc		 int	 3
  0000b	cc		 int	 3
  0000c	cc		 int	 3
__ehhandler$??$_Uninitialized_move@PAUSTerrainTexture@@V?$allocator@USTerrainTexture@@@std@@@std@@YAPAUSTerrainTexture@@QAU1@0PAU1@AAV?$allocator@USTerrainTexture@@@0@@Z:
  0000d	90		 npad	 1
  0000e	90		 npad	 1
  0000f	8b 54 24 08	 mov	 edx, DWORD PTR [esp+8]
  00013	8d 42 0c	 lea	 eax, DWORD PTR [edx+12]
  00016	8b 4a e4	 mov	 ecx, DWORD PTR [edx-28]
  00019	33 c8		 xor	 ecx, eax
  0001b	e8 00 00 00 00	 call	 @__security_check_cookie@4
  00020	b8 00 00 00 00	 mov	 eax, OFFSET __ehfuncinfo$??$_Uninitialized_move@PAUSTerrainTexture@@V?$allocator@USTerrainTexture@@@std@@@std@@YAPAUSTerrainTexture@@QAU1@0PAU1@AAV?$allocator@USTerrainTexture@@@0@@Z
  00025	e9 00 00 00 00	 jmp	 ___CxxFrameHandler3
text$x	ENDS
??$_Uninitialized_move@PAUSTerrainTexture@@V?$allocator@USTerrainTexture@@@std@@@std@@YAPAUSTerrainTexture@@QAU1@0PAU1@AAV?$allocator@USTerrainTexture@@@0@@Z ENDP ; std::_Uninitialized_move<STerrainTexture *,std::allocator<STerrainTexture> >
; Function compile flags: /Ogtp
; File D:\Program Files\Microsoft Visual Studio\2022\Community\VC\Tools\MSVC\14.43.34808\include\vector
; File D:\Program Files\Microsoft Visual Studio\2022\Community\VC\Tools\MSVC\14.43.34808\include\xmemory
; File D:\Program Files\Microsoft Visual Studio\2022\Community\VC\Tools\MSVC\14.43.34808\include\vector
; File D:\Program Files\Microsoft Visual Studio\2022\Community\VC\Tools\MSVC\14.43.34808\include\xmemory
; File D:\Program Files\Microsoft Visual Studio\2022\Community\VC\Tools\MSVC\14.43.34808\include\vector
; File D:\Program Files\Microsoft Visual Studio\2022\Community\VC\Tools\MSVC\14.43.34808\include\xmemory
; File D:\Program Files\Microsoft Visual Studio\2022\Community\VC\Tools\MSVC\14.43.34808\include\vector
;	COMDAT ??1_Reallocation_guard@?$vector@USTerrainTexture@@V?$allocator@USTerrainTexture@@@std@@@std@@QAE@XZ
_TEXT	SEGMENT
??1_Reallocation_guard@?$vector@USTerrainTexture@@V?$allocator@USTerrainTexture@@@std@@@std@@QAE@XZ PROC ; std::vector<STerrainTexture,std::allocator<STerrainTexture> >::_Reallocation_guard::~_Reallocation_guard, COMDAT
; _this$ = ecx

; 605  :         _CONSTEXPR20 ~_Reallocation_guard() noexcept {

  00000	56		 push	 esi
  00001	8b f1		 mov	 esi, ecx

; 606  :             if (_New_begin != nullptr) {

  00003	83 7e 04 00	 cmp	 DWORD PTR [esi+4], 0
  00007	74 3e		 je	 SHORT $LN10@Reallocati

; 607  :                 _STD _Destroy_range(_Constructed_first, _Constructed_last, _Al);

  00009	ff 36		 push	 DWORD PTR [esi]
  0000b	ff 76 10	 push	 DWORD PTR [esi+16]
  0000e	ff 76 0c	 push	 DWORD PTR [esi+12]
  00011	e8 00 00 00 00	 call	 ??$_Destroy_range@V?$allocator@USTerrainTexture@@@std@@@std@@YAXPAUSTerrainTexture@@QAU1@AAV?$allocator@USTerrainTexture@@@0@@Z ; std::_Destroy_range<std::allocator<STerrainTexture> >
; File D:\Program Files\Microsoft Visual Studio\2022\Community\VC\Tools\MSVC\14.43.34808\include\xmemory

; 981  :         _STD _Deallocate<_New_alignof<_Ty>>(_Ptr, sizeof(_Ty) * _Count);

  00016	69 4e 08 9c 00
	00 00		 imul	 ecx, DWORD PTR [esi+8], 156
; File D:\Program Files\Microsoft Visual Studio\2022\Community\VC\Tools\MSVC\14.43.34808\include\vector

; 607  :                 _STD _Destroy_range(_Constructed_first, _Constructed_last, _Al);

  0001d	83 c4 0c	 add	 esp, 12			; 0000000cH
; File D:\Program Files\Microsoft Visual Studio\2022\Community\VC\Tools\MSVC\14.43.34808\include\xmemory

; 981  :         _STD _Deallocate<_New_alignof<_Ty>>(_Ptr, sizeof(_Ty) * _Count);

  00020	8b 46 04	 mov	 eax, DWORD PTR [esi+4]

; 284  :         if (_Bytes >= _Big_allocation_threshold) {

  00023	81 f9 00 10 00
	00		 cmp	 ecx, 4096		; 00001000H
  00029	72 12		 jb	 SHORT $LN21@Reallocati

; 205  :     const uintptr_t _Ptr_container   = _Ptr_user[-1];

  0002b	8b 50 fc	 mov	 edx, DWORD PTR [eax-4]
  0002e	83 c1 23	 add	 ecx, 35			; 00000023H

; 206  : 
; 207  :     // If the following asserts, it likely means that we are performing
; 208  :     // an aligned delete on memory coming from an unaligned allocation.
; 209  :     _STL_ASSERT(_Ptr_user[-2] == _Big_allocation_sentinel, "invalid argument");
; 210  : 
; 211  :     // Extra paranoia on aligned allocation/deallocation; ensure _Ptr_container is
; 212  :     // in range [_Min_back_shift, _Non_user_size]
; 213  : #ifdef _DEBUG
; 214  :     constexpr uintptr_t _Min_back_shift = 2 * sizeof(void*);
; 215  : #else // ^^^ defined(_DEBUG) / !defined(_DEBUG) vvv
; 216  :     constexpr uintptr_t _Min_back_shift = sizeof(void*);
; 217  : #endif // ^^^ !defined(_DEBUG) ^^^
; 218  :     const uintptr_t _Back_shift = reinterpret_cast<uintptr_t>(_Ptr) - _Ptr_container;

  00031	2b c2		 sub	 eax, edx

; 219  :     _STL_VERIFY(_Back_shift >= _Min_back_shift && _Back_shift <= _Non_user_size, "invalid argument");

  00033	83 c0 fc	 add	 eax, -4			; fffffffcH
  00036	83 f8 1f	 cmp	 eax, 31			; 0000001fH
  00039	77 0e		 ja	 SHORT $LN18@Reallocati

; 220  :     _Ptr = reinterpret_cast<void*>(_Ptr_container);

  0003b	8b c2		 mov	 eax, edx
$LN21@Reallocati:

; 289  :         ::operator delete(_Ptr, _Bytes);

  0003d	51		 push	 ecx
  0003e	50		 push	 eax
  0003f	e8 00 00 00 00	 call	 ??3@YAXPAXI@Z		; operator delete
  00044	83 c4 08	 add	 esp, 8
$LN10@Reallocati:
  00047	5e		 pop	 esi
; File D:\Program Files\Microsoft Visual Studio\2022\Community\VC\Tools\MSVC\14.43.34808\include\vector

; 610  :         }

  00048	c3		 ret	 0
$LN18@Reallocati:
; File D:\Program Files\Microsoft Visual Studio\2022\Community\VC\Tools\MSVC\14.43.34808\include\xmemory

; 219  :     _STL_VERIFY(_Back_shift >= _Min_back_shift && _Back_shift <= _Non_user_size, "invalid argument");

  00049	e8 00 00 00 00	 call	 __invalid_parameter_noinfo_noreturn
$LN28@Reallocati:
  0004e	cc		 int	 3
??1_Reallocation_guard@?$vector@USTerrainTexture@@V?$allocator@USTerrainTexture@@@std@@@std@@QAE@XZ ENDP ; std::vector<STerrainTexture,std::allocator<STerrainTexture> >::_Reallocation_guard::~_Reallocation_guard
_TEXT	ENDS
; Function compile flags: /Ogtp
; File D:\Program Files\Microsoft Visual Studio\2022\Community\VC\Tools\MSVC\14.43.34808\include\xmemory
;	COMDAT ??1?$_Uninitialized_backout_al@V?$allocator@USTerrainTexture@@@std@@@std@@QAE@XZ
_TEXT	SEGMENT
??1?$_Uninitialized_backout_al@V?$allocator@USTerrainTexture@@@std@@@std@@QAE@XZ PROC ; std::_Uninitialized_backout_al<std::allocator<STerrainTexture> >::~_Uninitialized_backout_al<std::allocator<STerrainTexture> >, COMDAT
; _this$ = ecx

; 1802 :         _STD _Destroy_range(_First, _Last, _Al);

  00000	ff 71 08	 push	 DWORD PTR [ecx+8]
  00003	ff 71 04	 push	 DWORD PTR [ecx+4]
  00006	ff 31		 push	 DWORD PTR [ecx]
  00008	e8 00 00 00 00	 call	 ??$_Destroy_range@V?$allocator@USTerrainTexture@@@std@@@std@@YAXPAUSTerrainTexture@@QAU1@AAV?$allocator@USTerrainTexture@@@0@@Z ; std::_Destroy_range<std::allocator<STerrainTexture> >
  0000d	83 c4 0c	 add	 esp, 12			; 0000000cH

; 1803 :     }

  00010	c3		 ret	 0
??1?$_Uninitialized_backout_al@V?$allocator@USTerrainTexture@@@std@@@std@@QAE@XZ ENDP ; std::_Uninitialized_backout_al<std::allocator<STerrainTexture> >::~_Uninitialized_backout_al<std::allocator<STerrainTexture> >
_TEXT	ENDS
; Function compile flags: /Ogtp
; File D:\Program Files\Microsoft Visual Studio\2022\Community\VC\Tools\MSVC\14.43.34808\include\xstring
;	COMDAT ??$?MDU?$char_traits@D@std@@V?$allocator@D@1@@std@@YA_NABV?$basic_string@DU?$char_traits@D@std@@V?$allocator@D@2@@0@0@Z
_TEXT	SEGMENT
__Left$ = 8						; size = 4
__Right$ = 12						; size = 4
??$?MDU?$char_traits@D@std@@V?$allocator@D@1@@std@@YA_NABV?$basic_string@DU?$char_traits@D@std@@V?$allocator@D@2@@0@0@Z PROC ; std::operator<<char,std::char_traits<char>,std::allocator<char> >, COMDAT

; 3271 :     const basic_string<_Elem, _Traits, _Alloc>& _Left, const basic_string<_Elem, _Traits, _Alloc>& _Right) noexcept {

  00000	55		 push	 ebp
  00001	8b ec		 mov	 ebp, esp

; 425  :         const value_type* _Result = _Bx._Buf;

  00003	8b 45 0c	 mov	 eax, DWORD PTR __Right$[ebp]
  00006	8b d0		 mov	 edx, eax

; 434  :         return _Myres > _Small_string_capacity;

  00008	83 78 14 0f	 cmp	 DWORD PTR [eax+20], 15	; 0000000fH

; 426  :         if (_Large_mode_engaged()) {

  0000c	76 02		 jbe	 SHORT $LN8@operator

; 427  :             _Result = _Unfancy(_Bx._Ptr);

  0000e	8b 10		 mov	 edx, DWORD PTR [eax]
$LN8@operator:

; 425  :         const value_type* _Result = _Bx._Buf;

  00010	8b 4d 08	 mov	 ecx, DWORD PTR __Left$[ebp]
  00013	56		 push	 esi
  00014	8b f1		 mov	 esi, ecx

; 434  :         return _Myres > _Small_string_capacity;

  00016	83 79 14 0f	 cmp	 DWORD PTR [ecx+20], 15	; 0000000fH

; 426  :         if (_Large_mode_engaged()) {

  0001a	76 02		 jbe	 SHORT $LN15@operator

; 427  :             _Result = _Unfancy(_Bx._Ptr);

  0001c	8b 31		 mov	 esi, DWORD PTR [ecx]
$LN15@operator:

; 2854 :         return _Traits_compare<_Traits>(_Mypair._Myval2._Myptr(), _Mypair._Myval2._Mysize,

  0001e	ff 70 10	 push	 DWORD PTR [eax+16]
  00021	52		 push	 edx
  00022	ff 71 10	 push	 DWORD PTR [ecx+16]
  00025	56		 push	 esi
  00026	e8 00 00 00 00	 call	 ??$_Traits_compare@U?$char_traits@D@std@@@std@@YAHQBDI0I@Z ; std::_Traits_compare<std::char_traits<char> >
  0002b	83 c4 10	 add	 esp, 16			; 00000010H

; 3272 :     return _Left.compare(_Right) < 0;

  0002e	c1 e8 1f	 shr	 eax, 31			; 0000001fH
  00031	5e		 pop	 esi

; 3273 : }

  00032	5d		 pop	 ebp
  00033	c3		 ret	 0
??$?MDU?$char_traits@D@std@@V?$allocator@D@1@@std@@YA_NABV?$basic_string@DU?$char_traits@D@std@@V?$allocator@D@2@@0@0@Z ENDP ; std::operator<<char,std::char_traits<char>,std::allocator<char> >
_TEXT	ENDS
; Function compile flags: /Ogtp
; File D:\Program Files\Microsoft Visual Studio\2022\Community\VC\Tools\MSVC\14.43.34808\include\xmemory
; File D:\Program Files\Microsoft Visual Studio\2022\Community\VC\Tools\MSVC\14.43.34808\include\xstring
; File D:\Program Files\Microsoft Visual Studio\2022\Community\VC\Tools\MSVC\14.43.34808\include\xmemory
; File D:\Program Files\Microsoft Visual Studio\2022\Community\VC\Tools\MSVC\14.43.34808\include\xstring
; File D:\Program Files\Microsoft Visual Studio\2022\Community\VC\Tools\MSVC\14.43.34808\include\xmemory
; File D:\Program Files\Microsoft Visual Studio\2022\Community\VC\Tools\MSVC\14.43.34808\include\xstring
; File D:\Program Files\Microsoft Visual Studio\2022\Community\VC\Tools\MSVC\14.43.34808\include\xmemory
;	COMDAT ??$destroy@U?$pair@$$CBV?$basic_string@DU?$char_traits@D@std@@V?$allocator@D@2@@std@@V?$vector@V?$basic_string@DU?$char_traits@D@std@@V?$allocator@D@2@@std@@V?$allocator@V?$basic_string@DU?$char_traits@D@std@@V?$allocator@D@2@@std@@@2@@2@@std@@@?$_Default_allocator_traits@V?$allocator@U?$_Tree_node@U?$pair@$$CBV?$basic_string@DU?$char_traits@D@std@@V?$allocator@D@2@@std@@V?$vector@V?$basic_string@DU?$char_traits@D@std@@V?$allocator@D@2@@std@@V?$allocator@V?$basic_string@DU?$char_traits@D@std@@V?$allocator@D@2@@std@@@2@@2@@std@@PAX@std@@@std@@@std@@SAXAAV?$allocator@U?$_Tree_node@U?$pair@$$CBV?$basic_string@DU?$char_traits@D@std@@V?$allocator@D@2@@std@@V?$vector@V?$basic_string@DU?$char_traits@D@std@@V?$allocator@D@2@@std@@V?$allocator@V?$basic_string@DU?$char_traits@D@std@@V?$allocator@D@2@@std@@@2@@2@@std@@PAX@std@@@1@QAU?$pair@$$CBV?$basic_string@DU?$char_traits@D@std@@V?$allocator@D@2@@std@@V?$vector@V?$basic_string@DU?$char_traits@D@std@@V?$allocator@D@2@@std@@V?$allocator@V?$basic_string@DU?$char_traits@D@std@@V?$allocator@D@2@@std@@@2@@2@@1@@Z
_TEXT	SEGMENT
___formal$ = 8						; size = 4
__Ptr$ = 12						; size = 4
??$destroy@U?$pair@$$CBV?$basic_string@DU?$char_traits@D@std@@V?$allocator@D@2@@std@@V?$vector@V?$basic_string@DU?$char_traits@D@std@@V?$allocator@D@2@@std@@V?$allocator@V?$basic_string@DU?$char_traits@D@std@@V?$allocator@D@2@@std@@@2@@2@@std@@@?$_Default_allocator_traits@V?$allocator@U?$_Tree_node@U?$pair@$$CBV?$basic_string@DU?$char_traits@D@std@@V?$allocator@D@2@@std@@V?$vector@V?$basic_string@DU?$char_traits@D@std@@V?$allocator@D@2@@std@@V?$allocator@V?$basic_string@DU?$char_traits@D@std@@V?$allocator@D@2@@std@@@2@@2@@std@@PAX@std@@@std@@@std@@SAXAAV?$allocator@U?$_Tree_node@U?$pair@$$CBV?$basic_string@DU?$char_traits@D@std@@V?$allocator@D@2@@std@@V?$vector@V?$basic_string@DU?$char_traits@D@std@@V?$allocator@D@2@@std@@V?$allocator@V?$basic_string@DU?$char_traits@D@std@@V?$allocator@D@2@@std@@@2@@2@@std@@PAX@std@@@1@QAU?$pair@$$CBV?$basic_string@DU?$char_traits@D@std@@V?$allocator@D@2@@std@@V?$vector@V?$basic_string@DU?$char_traits@D@std@@V?$allocator@D@2@@std@@V?$allocator@V?$basic_string@DU?$char_traits@D@std@@V?$allocator@D@2@@std@@@2@@2@@1@@Z PROC ; std::_Default_allocator_traits<std::allocator<std::_Tree_node<std::pair<std::basic_string<char,std::char_traits<char>,std::allocator<char> > const ,std::vector<std::basic_string<char,std::char_traits<char>,std::allocator<char> >,std::allocator<std::basic_string<char,std::char_traits<char>,std::allocator<char> > > > >,void *> > >::destroy<std::pair<std::basic_string<char,std::char_traits<char>,std::allocator<char> > const ,std::vector<std::basic_string<char,std::char_traits<char>,std::allocator<char> >,std::allocator<std::basic_string<char,std::char_traits<char>,std::allocator<char> > > > > >, COMDAT

; 737  :     static _CONSTEXPR20 void destroy(_Alloc&, _Uty* const _Ptr) {

  00000	55		 push	 ebp
  00001	8b ec		 mov	 ebp, esp
  00003	56		 push	 esi
  00004	8b 75 0c	 mov	 esi, DWORD PTR __Ptr$[ebp]
  00007	8d 4e 18	 lea	 ecx, DWORD PTR [esi+24]
  0000a	e8 00 00 00 00	 call	 ??1?$vector@V?$basic_string@DU?$char_traits@D@std@@V?$allocator@D@2@@std@@V?$allocator@V?$basic_string@DU?$char_traits@D@std@@V?$allocator@D@2@@std@@@2@@std@@QAE@XZ ; std::vector<std::basic_string<char,std::char_traits<char>,std::allocator<char> >,std::allocator<std::basic_string<char,std::char_traits<char>,std::allocator<char> > > >::~vector<std::basic_string<char,std::char_traits<char>,std::allocator<char> >,std::allocator<std::basic_string<char,std::char_traits<char>,std::allocator<char> > > >
; File D:\Program Files\Microsoft Visual Studio\2022\Community\VC\Tools\MSVC\14.43.34808\include\xstring

; 434  :         return _Myres > _Small_string_capacity;

  0000f	8b 4e 14	 mov	 ecx, DWORD PTR [esi+20]
  00012	83 f9 0f	 cmp	 ecx, 15			; 0000000fH

; 3047 :         if (_My_data._Large_mode_engaged()) {

  00015	76 27		 jbe	 SHORT $LN32@destroy
; File D:\Program Files\Microsoft Visual Studio\2022\Community\VC\Tools\MSVC\14.43.34808\include\xmemory

; 981  :         _STD _Deallocate<_New_alignof<_Ty>>(_Ptr, sizeof(_Ty) * _Count);

  00017	8b 06		 mov	 eax, DWORD PTR [esi]
; File D:\Program Files\Microsoft Visual Studio\2022\Community\VC\Tools\MSVC\14.43.34808\include\xstring

; 828  :         _Al.deallocate(_Old_ptr, _Capacity + 1); // +1 for null terminator

  00019	41		 inc	 ecx
; File D:\Program Files\Microsoft Visual Studio\2022\Community\VC\Tools\MSVC\14.43.34808\include\xmemory

; 284  :         if (_Bytes >= _Big_allocation_threshold) {

  0001a	81 f9 00 10 00
	00		 cmp	 ecx, 4096		; 00001000H
  00020	72 12		 jb	 SHORT $LN43@destroy

; 205  :     const uintptr_t _Ptr_container   = _Ptr_user[-1];

  00022	8b 50 fc	 mov	 edx, DWORD PTR [eax-4]
  00025	83 c1 23	 add	 ecx, 35			; 00000023H

; 206  : 
; 207  :     // If the following asserts, it likely means that we are performing
; 208  :     // an aligned delete on memory coming from an unaligned allocation.
; 209  :     _STL_ASSERT(_Ptr_user[-2] == _Big_allocation_sentinel, "invalid argument");
; 210  : 
; 211  :     // Extra paranoia on aligned allocation/deallocation; ensure _Ptr_container is
; 212  :     // in range [_Min_back_shift, _Non_user_size]
; 213  : #ifdef _DEBUG
; 214  :     constexpr uintptr_t _Min_back_shift = 2 * sizeof(void*);
; 215  : #else // ^^^ defined(_DEBUG) / !defined(_DEBUG) vvv
; 216  :     constexpr uintptr_t _Min_back_shift = sizeof(void*);
; 217  : #endif // ^^^ !defined(_DEBUG) ^^^
; 218  :     const uintptr_t _Back_shift = reinterpret_cast<uintptr_t>(_Ptr) - _Ptr_container;

  00028	2b c2		 sub	 eax, edx

; 219  :     _STL_VERIFY(_Back_shift >= _Min_back_shift && _Back_shift <= _Non_user_size, "invalid argument");

  0002a	83 c0 fc	 add	 eax, -4			; fffffffcH
  0002d	83 f8 1f	 cmp	 eax, 31			; 0000001fH
  00030	77 20		 ja	 SHORT $LN40@destroy

; 220  :     _Ptr = reinterpret_cast<void*>(_Ptr_container);

  00032	8b c2		 mov	 eax, edx
$LN43@destroy:

; 289  :         ::operator delete(_Ptr, _Bytes);

  00034	51		 push	 ecx
  00035	50		 push	 eax
  00036	e8 00 00 00 00	 call	 ??3@YAXPAXI@Z		; operator delete
  0003b	83 c4 08	 add	 esp, 8
$LN32@destroy:
; File D:\Program Files\Microsoft Visual Studio\2022\Community\VC\Tools\MSVC\14.43.34808\include\xstring

; 3054 :         _My_data._Mysize = 0;

  0003e	c7 46 10 00 00
	00 00		 mov	 DWORD PTR [esi+16], 0

; 3055 :         _My_data._Myres  = _Small_string_capacity;

  00045	c7 46 14 0f 00
	00 00		 mov	 DWORD PTR [esi+20], 15	; 0000000fH

; 3056 :         // the _Traits::assign is last so the codegen doesn't think the char write can alias this
; 3057 :         _Traits::assign(_My_data._Bx._Buf[0], _Elem());

  0004c	c6 06 00	 mov	 BYTE PTR [esi], 0
  0004f	5e		 pop	 esi
; File D:\Program Files\Microsoft Visual Studio\2022\Community\VC\Tools\MSVC\14.43.34808\include\xmemory

; 743  :     }

  00050	5d		 pop	 ebp
  00051	c3		 ret	 0
$LN40@destroy:

; 219  :     _STL_VERIFY(_Back_shift >= _Min_back_shift && _Back_shift <= _Non_user_size, "invalid argument");

  00052	e8 00 00 00 00	 call	 __invalid_parameter_noinfo_noreturn
$LN55@destroy:
  00057	cc		 int	 3
??$destroy@U?$pair@$$CBV?$basic_string@DU?$char_traits@D@std@@V?$allocator@D@2@@std@@V?$vector@V?$basic_string@DU?$char_traits@D@std@@V?$allocator@D@2@@std@@V?$allocator@V?$basic_string@DU?$char_traits@D@std@@V?$allocator@D@2@@std@@@2@@2@@std@@@?$_Default_allocator_traits@V?$allocator@U?$_Tree_node@U?$pair@$$CBV?$basic_string@DU?$char_traits@D@std@@V?$allocator@D@2@@std@@V?$vector@V?$basic_string@DU?$char_traits@D@std@@V?$allocator@D@2@@std@@V?$allocator@V?$basic_string@DU?$char_traits@D@std@@V?$allocator@D@2@@std@@@2@@2@@std@@PAX@std@@@std@@@std@@SAXAAV?$allocator@U?$_Tree_node@U?$pair@$$CBV?$basic_string@DU?$char_traits@D@std@@V?$allocator@D@2@@std@@V?$vector@V?$basic_string@DU?$char_traits@D@std@@V?$allocator@D@2@@std@@V?$allocator@V?$basic_string@DU?$char_traits@D@std@@V?$allocator@D@2@@std@@@2@@2@@std@@PAX@std@@@1@QAU?$pair@$$CBV?$basic_string@DU?$char_traits@D@std@@V?$allocator@D@2@@std@@V?$vector@V?$basic_string@DU?$char_traits@D@std@@V?$allocator@D@2@@std@@V?$allocator@V?$basic_string@DU?$char_traits@D@std@@V?$allocator@D@2@@std@@@2@@2@@1@@Z ENDP ; std::_Default_allocator_traits<std::allocator<std::_Tree_node<std::pair<std::basic_string<char,std::char_traits<char>,std::allocator<char> > const ,std::vector<std::basic_string<char,std::char_traits<char>,std::allocator<char> >,std::allocator<std::basic_string<char,std::char_traits<char>,std::allocator<char> > > > >,void *> > >::destroy<std::pair<std::basic_string<char,std::char_traits<char>,std::allocator<char> > const ,std::vector<std::basic_string<char,std::char_traits<char>,std::allocator<char> >,std::allocator<std::basic_string<char,std::char_traits<char>,std::allocator<char> > > > > >
_TEXT	ENDS
; Function compile flags: /Ogtp
; File D:\Program Files\Microsoft Visual Studio\2022\Community\VC\Tools\MSVC\14.43.34808\include\vector
; File D:\Program Files\Microsoft Visual Studio\2022\Community\VC\Tools\MSVC\14.43.34808\include\xmemory
; File D:\Program Files\Microsoft Visual Studio\2022\Community\VC\Tools\MSVC\14.43.34808\include\vector
; File D:\Program Files\Microsoft Visual Studio\2022\Community\VC\Tools\MSVC\14.43.34808\include\xmemory
; File D:\Program Files\Microsoft Visual Studio\2022\Community\VC\Tools\MSVC\14.43.34808\include\vector
; File D:\Program Files\Microsoft Visual Studio\2022\Community\VC\Tools\MSVC\14.43.34808\include\xmemory
; File D:\Program Files\Microsoft Visual Studio\2022\Community\VC\Tools\MSVC\14.43.34808\include\vector
; File D:\Program Files\Microsoft Visual Studio\2022\Community\VC\Tools\MSVC\14.43.34808\include\xmemory
; File D:\Program Files\Microsoft Visual Studio\2022\Community\VC\Tools\MSVC\14.43.34808\include\vector
; File D:\Program Files\Microsoft Visual Studio\2022\Community\VC\Tools\MSVC\14.43.34808\include\xmemory
; File D:\Program Files\Microsoft Visual Studio\2022\Community\VC\Tools\MSVC\14.43.34808\include\vector
;	COMDAT ??$_Emplace_reallocate@ABUSTerrainTexture@@@?$vector@USTerrainTexture@@V?$allocator@USTerrainTexture@@@std@@@std@@AAEPAUSTerrainTexture@@QAU2@ABU2@@Z
_TEXT	SEGMENT
__Guard$ = -44						; size = 20
__Oldsize$1$ = -24					; size = 4
__Constructed_last$1$ = -20				; size = 4
__Whereoff$1$ = -16					; size = 4
tv318 = -16						; size = 4
__$EHRec$ = -12						; size = 12
__Whereptr$ = 8						; size = 4
_<_Val_0>$ = 12						; size = 4
??$_Emplace_reallocate@ABUSTerrainTexture@@@?$vector@USTerrainTexture@@V?$allocator@USTerrainTexture@@@std@@@std@@AAEPAUSTerrainTexture@@QAU2@ABU2@@Z PROC ; std::vector<STerrainTexture,std::allocator<STerrainTexture> >::_Emplace_reallocate<STerrainTexture const &>, COMDAT
; _this$ = ecx

; 860  :     _CONSTEXPR20 pointer _Emplace_reallocate(const pointer _Whereptr, _Valty&&... _Val) {

  00000	55		 push	 ebp
  00001	8b ec		 mov	 ebp, esp
  00003	6a ff		 push	 -1
  00005	68 00 00 00 00	 push	 __ehhandler$??$_Emplace_reallocate@ABUSTerrainTexture@@@?$vector@USTerrainTexture@@V?$allocator@USTerrainTexture@@@std@@@std@@AAEPAUSTerrainTexture@@QAU2@ABU2@@Z
  0000a	64 a1 00 00 00
	00		 mov	 eax, DWORD PTR fs:0
  00010	50		 push	 eax
  00011	83 ec 20	 sub	 esp, 32			; 00000020H
  00014	53		 push	 ebx
  00015	56		 push	 esi
  00016	57		 push	 edi
  00017	a1 00 00 00 00	 mov	 eax, DWORD PTR ___security_cookie
  0001c	33 c5		 xor	 eax, ebp
  0001e	50		 push	 eax
  0001f	8d 45 f4	 lea	 eax, DWORD PTR __$EHRec$[ebp]
  00022	64 a3 00 00 00
	00		 mov	 DWORD PTR fs:0, eax
  00028	8b d9		 mov	 ebx, ecx

; 861  :         // reallocate and insert by perfectly forwarding _Val at _Whereptr
; 862  :         _Alty& _Al        = _Getal();
; 863  :         auto& _My_data    = _Mypair._Myval2;
; 864  :         pointer& _Myfirst = _My_data._Myfirst;
; 865  :         pointer& _Mylast  = _My_data._Mylast;
; 866  : 
; 867  :         _STL_INTERNAL_CHECK(_Mylast == _My_data._Myend); // check that we have no unused capacity
; 868  : 
; 869  :         const auto _Whereoff = static_cast<size_type>(_Whereptr - _Myfirst);

  0002a	8b 3b		 mov	 edi, DWORD PTR [ebx]
  0002c	b8 d3 20 0d d2	 mov	 eax, -770891565		; d20d20d3H
  00031	8b 75 08	 mov	 esi, DWORD PTR __Whereptr$[ebp]

; 870  :         const auto _Oldsize  = static_cast<size_type>(_Mylast - _Myfirst);

  00034	8b 4b 04	 mov	 ecx, DWORD PTR [ebx+4]
  00037	2b f7		 sub	 esi, edi
  00039	f7 ee		 imul	 esi
  0003b	2b cf		 sub	 ecx, edi
  0003d	03 d6		 add	 edx, esi
  0003f	c1 fa 07	 sar	 edx, 7
  00042	8b c2		 mov	 eax, edx
  00044	c1 e8 1f	 shr	 eax, 31			; 0000001fH
  00047	03 c2		 add	 eax, edx
  00049	89 45 f0	 mov	 DWORD PTR __Whereoff$1$[ebp], eax
  0004c	b8 d3 20 0d d2	 mov	 eax, -770891565		; d20d20d3H
  00051	f7 e9		 imul	 ecx
  00053	03 d1		 add	 edx, ecx
  00055	c1 fa 07	 sar	 edx, 7
  00058	8b c2		 mov	 eax, edx
  0005a	c1 e8 1f	 shr	 eax, 31			; 0000001fH
  0005d	03 c2		 add	 eax, edx
  0005f	89 45 e8	 mov	 DWORD PTR __Oldsize$1$[ebp], eax

; 871  : 
; 872  :         if (_Oldsize == max_size()) {

  00062	3d 41 1a a4 01	 cmp	 eax, 27531841		; 01a41a41H
  00067	0f 84 1f 01 00
	00		 je	 $LN37@Emplace_re

; 1909 :         return static_cast<size_type>(_My_data._Myend - _My_data._Myfirst);

  0006d	8b 4b 08	 mov	 ecx, DWORD PTR [ebx+8]

; 874  :         }
; 875  : 
; 876  :         const size_type _Newsize = _Oldsize + 1;

  00070	8d 70 01	 lea	 esi, DWORD PTR [eax+1]

; 1909 :         return static_cast<size_type>(_My_data._Myend - _My_data._Myfirst);

  00073	2b cf		 sub	 ecx, edi
  00075	b8 d3 20 0d d2	 mov	 eax, -770891565		; d20d20d3H
  0007a	f7 e9		 imul	 ecx

; 1996 :         if (_Oldcapacity > _Max - _Oldcapacity / 2) {

  0007c	b8 41 1a a4 01	 mov	 eax, 27531841		; 01a41a41H

; 1909 :         return static_cast<size_type>(_My_data._Myend - _My_data._Myfirst);

  00081	03 d1		 add	 edx, ecx
  00083	c1 fa 07	 sar	 edx, 7
  00086	8b ca		 mov	 ecx, edx
  00088	c1 e9 1f	 shr	 ecx, 31			; 0000001fH
  0008b	03 ca		 add	 ecx, edx

; 1996 :         if (_Oldcapacity > _Max - _Oldcapacity / 2) {

  0008d	8b d1		 mov	 edx, ecx
  0008f	d1 ea		 shr	 edx, 1
  00091	2b c2		 sub	 eax, edx
  00093	3b c8		 cmp	 ecx, eax
  00095	76 12		 jbe	 SHORT $LN8@Emplace_re

; 1997 :             return _Max; // geometric growth would overflow

  00097	b8 9c ff ff ff	 mov	 eax, -100		; ffffff9cH
  0009c	bf 41 1a a4 01	 mov	 edi, 27531841		; 01a41a41H
; File D:\Program Files\Microsoft Visual Studio\2022\Community\VC\Tools\MSVC\14.43.34808\include\xmemory

; 253  :             return _Allocate_manually_vector_aligned<_Traits>(_Bytes);

  000a1	50		 push	 eax
  000a2	e8 00 00 00 00	 call	 ??$_Allocate_manually_vector_aligned@U_Default_allocate_traits@std@@@std@@YAPAXI@Z ; std::_Allocate_manually_vector_aligned<std::_Default_allocate_traits>
  000a7	eb 39		 jmp	 SHORT $LN35@Emplace_re
$LN8@Emplace_re:
; File D:\Program Files\Microsoft Visual Studio\2022\Community\VC\Tools\MSVC\14.43.34808\include\vector

; 2000 :         const size_type _Geometric = _Oldcapacity + _Oldcapacity / 2;

  000a9	8d 04 0a	 lea	 eax, DWORD PTR [edx+ecx]
; File D:\Program Files\Microsoft Visual Studio\2022\Community\VC\Tools\MSVC\14.43.34808\include\xmemory

; 117  :         if (_Count > _Max_possible) {

  000ac	8b fe		 mov	 edi, esi
  000ae	3b c6		 cmp	 eax, esi
  000b0	0f 43 f8	 cmovae	 edi, eax
  000b3	81 ff 41 1a a4
	01		 cmp	 edi, 27531841		; 01a41a41H
  000b9	0f 87 d2 00 00
	00		 ja	 $LN38@Emplace_re

; 119  :         }
; 120  :     }
; 121  : 
; 122  :     return _Count * _Ty_size;

  000bf	69 c7 9c 00 00
	00		 imul	 eax, edi, 156

; 227  :     if (_Bytes == 0) {

  000c5	85 c0		 test	 eax, eax
  000c7	75 04		 jne	 SHORT $LN23@Emplace_re

; 228  :         return nullptr;

  000c9	33 f6		 xor	 esi, esi
  000cb	eb 1a		 jmp	 SHORT $LN22@Emplace_re
$LN23@Emplace_re:

; 229  :     }
; 230  : 
; 231  : #if _HAS_CXX20 // TRANSITION, GH-1532
; 232  :     if (_STD is_constant_evaluated()) {
; 233  :         return _Traits::_Allocate(_Bytes);
; 234  :     }
; 235  : #endif // _HAS_CXX20
; 236  : 
; 237  : #ifdef __cpp_aligned_new
; 238  :     if constexpr (_Align > __STDCPP_DEFAULT_NEW_ALIGNMENT__) {
; 239  :         size_t _Passed_align = _Align;
; 240  : #if defined(_M_IX86) || defined(_M_X64)
; 241  :         if (_Bytes >= _Big_allocation_threshold) {
; 242  :             // boost the alignment of big allocations to help autovectorization
; 243  :             _Passed_align = (_STD max)(_Align, _Big_allocation_alignment);
; 244  :         }
; 245  : #endif // defined(_M_IX86) || defined(_M_X64)
; 246  :         return _Traits::_Allocate_aligned(_Bytes, _Passed_align);
; 247  :     } else
; 248  : #endif // defined(__cpp_aligned_new)
; 249  :     {
; 250  : #if defined(_M_IX86) || defined(_M_X64)
; 251  :         if (_Bytes >= _Big_allocation_threshold) {

  000cd	3d 00 10 00 00	 cmp	 eax, 4096		; 00001000H
  000d2	72 08		 jb	 SHORT $LN24@Emplace_re

; 253  :             return _Allocate_manually_vector_aligned<_Traits>(_Bytes);

  000d4	50		 push	 eax
  000d5	e8 00 00 00 00	 call	 ??$_Allocate_manually_vector_aligned@U_Default_allocate_traits@std@@@std@@YAPAXI@Z ; std::_Allocate_manually_vector_aligned<std::_Default_allocate_traits>
  000da	eb 06		 jmp	 SHORT $LN35@Emplace_re
$LN24@Emplace_re:

; 136  :         return ::operator new(_Bytes);

  000dc	50		 push	 eax
  000dd	e8 00 00 00 00	 call	 ??2@YAPAXI@Z		; operator new
$LN35@Emplace_re:
; File D:\Program Files\Microsoft Visual Studio\2022\Community\VC\Tools\MSVC\14.43.34808\include\vector

; 880  :         const pointer _Constructed_last = _Newvec + _Whereoff + 1;

  000e2	8b f0		 mov	 esi, eax
  000e4	83 c4 04	 add	 esp, 4
$LN22@Emplace_re:
  000e7	69 45 f0 9c 00
	00 00		 imul	 eax, DWORD PTR __Whereoff$1$[ebp], 156

; 882  :         _Reallocation_guard _Guard{_Al, _Newvec, _Newcapacity, _Constructed_last, _Constructed_last};

  000ee	89 5d d4	 mov	 DWORD PTR __Guard$[ebp], ebx
  000f1	89 75 d8	 mov	 DWORD PTR __Guard$[ebp+4], esi
  000f4	89 7d dc	 mov	 DWORD PTR __Guard$[ebp+8], edi
  000f7	03 c6		 add	 eax, esi
  000f9	89 45 f0	 mov	 DWORD PTR tv318[ebp], eax
  000fc	8d 88 9c 00 00
	00		 lea	 ecx, DWORD PTR [eax+156]
  00102	89 4d ec	 mov	 DWORD PTR __Constructed_last$1$[ebp], ecx
  00105	89 4d e0	 mov	 DWORD PTR __Guard$[ebp+12], ecx
  00108	89 4d e4	 mov	 DWORD PTR __Guard$[ebp+16], ecx
; File D:\Program Files\Microsoft Visual Studio\2022\Community\VC\Tools\MSVC\14.43.34808\include\xmemory

; 732  :         ::new (const_cast<void*>(static_cast<const volatile void*>(_Ptr))) _Objty(_STD forward<_Types>(_Args)...);

  0010b	ff 75 0c	 push	 DWORD PTR _<_Val_0>$[ebp]
  0010e	8b c8		 mov	 ecx, eax
; File D:\Program Files\Microsoft Visual Studio\2022\Community\VC\Tools\MSVC\14.43.34808\include\vector

; 882  :         _Reallocation_guard _Guard{_Al, _Newvec, _Newcapacity, _Constructed_last, _Constructed_last};

  00110	c7 45 fc 00 00
	00 00		 mov	 DWORD PTR __$EHRec$[ebp+8], 0
; File D:\Program Files\Microsoft Visual Studio\2022\Community\VC\Tools\MSVC\14.43.34808\include\xmemory

; 732  :         ::new (const_cast<void*>(static_cast<const volatile void*>(_Ptr))) _Objty(_STD forward<_Types>(_Args)...);

  00117	e8 00 00 00 00	 call	 ??0STerrainTexture@@QAE@ABU0@@Z
; File D:\Program Files\Microsoft Visual Studio\2022\Community\VC\Tools\MSVC\14.43.34808\include\vector

; 886  :         _Constructed_first = _Newvec + _Whereoff;

  0011c	8b 45 f0	 mov	 eax, DWORD PTR tv318[ebp]

; 887  : 
; 888  :         if (_Whereptr == _Mylast) { // at back, provide strong guarantee

  0011f	8b 4b 04	 mov	 ecx, DWORD PTR [ebx+4]
  00122	8b 55 08	 mov	 edx, DWORD PTR __Whereptr$[ebp]
  00125	89 45 e0	 mov	 DWORD PTR __Guard$[ebp+12], eax
  00128	8b 03		 mov	 eax, DWORD PTR [ebx]
  0012a	53		 push	 ebx
  0012b	56		 push	 esi
  0012c	3b d1		 cmp	 edx, ecx
  0012e	75 0c		 jne	 SHORT $LN3@Emplace_re

; 889  :             if constexpr (is_nothrow_move_constructible_v<_Ty> || !is_copy_constructible_v<_Ty>) {
; 890  :                 _STD _Uninitialized_move(_Myfirst, _Mylast, _Newvec, _Al);
; 891  :             } else {
; 892  :                 _STD _Uninitialized_copy(_Myfirst, _Mylast, _Newvec, _Al);

  00130	51		 push	 ecx
  00131	50		 push	 eax
  00132	e8 00 00 00 00	 call	 ??$_Uninitialized_copy@PAUSTerrainTexture@@PAU1@V?$allocator@USTerrainTexture@@@std@@@std@@YAPAUSTerrainTexture@@PAU1@00AAV?$allocator@USTerrainTexture@@@0@@Z ; std::_Uninitialized_copy<STerrainTexture *,STerrainTexture *,std::allocator<STerrainTexture> >
  00137	83 c4 10	 add	 esp, 16			; 00000010H

; 893  :             }
; 894  :         } else { // provide basic guarantee

  0013a	eb 1c		 jmp	 SHORT $LN4@Emplace_re
$LN3@Emplace_re:

; 895  :             _STD _Uninitialized_move(_Myfirst, _Whereptr, _Newvec, _Al);

  0013c	52		 push	 edx
  0013d	50		 push	 eax
  0013e	e8 00 00 00 00	 call	 ??$_Uninitialized_move@PAUSTerrainTexture@@V?$allocator@USTerrainTexture@@@std@@@std@@YAPAUSTerrainTexture@@QAU1@0PAU1@AAV?$allocator@USTerrainTexture@@@0@@Z ; std::_Uninitialized_move<STerrainTexture *,std::allocator<STerrainTexture> >

; 896  :             _Constructed_first = _Newvec;
; 897  :             _STD _Uninitialized_move(_Whereptr, _Mylast, _Newvec + _Whereoff + 1, _Al);

  00143	53		 push	 ebx
  00144	ff 75 ec	 push	 DWORD PTR __Constructed_last$1$[ebp]
  00147	89 75 e0	 mov	 DWORD PTR __Guard$[ebp+12], esi
  0014a	ff 73 04	 push	 DWORD PTR [ebx+4]
  0014d	ff 75 08	 push	 DWORD PTR __Whereptr$[ebp]
  00150	e8 00 00 00 00	 call	 ??$_Uninitialized_move@PAUSTerrainTexture@@V?$allocator@USTerrainTexture@@@std@@@std@@YAPAUSTerrainTexture@@QAU1@0PAU1@AAV?$allocator@USTerrainTexture@@@0@@Z ; std::_Uninitialized_move<STerrainTexture *,std::allocator<STerrainTexture> >
  00155	83 c4 20	 add	 esp, 32			; 00000020H
$LN4@Emplace_re:

; 898  :         }
; 899  : 
; 900  :         _Guard._New_begin = nullptr;
; 901  :         _Change_array(_Newvec, _Newsize, _Newcapacity);

  00158	8b 45 e8	 mov	 eax, DWORD PTR __Oldsize$1$[ebp]
  0015b	8b cb		 mov	 ecx, ebx
  0015d	57		 push	 edi
  0015e	40		 inc	 eax
  0015f	c7 45 d8 00 00
	00 00		 mov	 DWORD PTR __Guard$[ebp+4], 0
  00166	50		 push	 eax
  00167	56		 push	 esi
  00168	e8 00 00 00 00	 call	 ?_Change_array@?$vector@USTerrainTexture@@V?$allocator@USTerrainTexture@@@std@@@std@@AAEXQAUSTerrainTexture@@II@Z ; std::vector<STerrainTexture,std::allocator<STerrainTexture> >::_Change_array

; 902  :         return _Newvec + _Whereoff;

  0016d	8d 4d d4	 lea	 ecx, DWORD PTR __Guard$[ebp]
  00170	e8 00 00 00 00	 call	 ??1_Reallocation_guard@?$vector@USTerrainTexture@@V?$allocator@USTerrainTexture@@@std@@@std@@QAE@XZ ; std::vector<STerrainTexture,std::allocator<STerrainTexture> >::_Reallocation_guard::~_Reallocation_guard
  00175	8b 45 f0	 mov	 eax, DWORD PTR tv318[ebp]

; 903  :     }

  00178	8b 4d f4	 mov	 ecx, DWORD PTR __$EHRec$[ebp]
  0017b	64 89 0d 00 00
	00 00		 mov	 DWORD PTR fs:0, ecx
  00182	59		 pop	 ecx
  00183	5f		 pop	 edi
  00184	5e		 pop	 esi
  00185	5b		 pop	 ebx
  00186	8b e5		 mov	 esp, ebp
  00188	5d		 pop	 ebp
  00189	c2 08 00	 ret	 8
$LN37@Emplace_re:

; 873  :             _Xlength();

  0018c	e8 00 00 00 00	 call	 ?_Xlength@?$vector@USTerrainTexture@@V?$allocator@USTerrainTexture@@@std@@@std@@CAXXZ ; std::vector<STerrainTexture,std::allocator<STerrainTexture> >::_Xlength
$LN38@Emplace_re:
; File D:\Program Files\Microsoft Visual Studio\2022\Community\VC\Tools\MSVC\14.43.34808\include\xmemory

; 118  :             _Throw_bad_array_new_length(); // multiply overflow

  00191	e8 00 00 00 00	 call	 ?_Throw_bad_array_new_length@std@@YAXXZ ; std::_Throw_bad_array_new_length
$LN34@Emplace_re:
  00196	cc		 int	 3
_TEXT	ENDS
;	COMDAT text$x
text$x	SEGMENT
__unwindfunclet$??$_Emplace_reallocate@ABUSTerrainTexture@@@?$vector@USTerrainTexture@@V?$allocator@USTerrainTexture@@@std@@@std@@AAEPAUSTerrainTexture@@QAU2@ABU2@@Z$0:
  00000	8d 4d d4	 lea	 ecx, DWORD PTR __Guard$[ebp]
  00003	e9 00 00 00 00	 jmp	 ??1_Reallocation_guard@?$vector@USTerrainTexture@@V?$allocator@USTerrainTexture@@@std@@@std@@QAE@XZ ; std::vector<STerrainTexture,std::allocator<STerrainTexture> >::_Reallocation_guard::~_Reallocation_guard
  00008	cc		 int	 3
  00009	cc		 int	 3
  0000a	cc		 int	 3
  0000b	cc		 int	 3
  0000c	cc		 int	 3
__ehhandler$??$_Emplace_reallocate@ABUSTerrainTexture@@@?$vector@USTerrainTexture@@V?$allocator@USTerrainTexture@@@std@@@std@@AAEPAUSTerrainTexture@@QAU2@ABU2@@Z:
  0000d	90		 npad	 1
  0000e	90		 npad	 1
  0000f	8b 54 24 08	 mov	 edx, DWORD PTR [esp+8]
  00013	8d 42 0c	 lea	 eax, DWORD PTR [edx+12]
  00016	8b 4a d0	 mov	 ecx, DWORD PTR [edx-48]
  00019	33 c8		 xor	 ecx, eax
  0001b	e8 00 00 00 00	 call	 @__security_check_cookie@4
  00020	b8 00 00 00 00	 mov	 eax, OFFSET __ehfuncinfo$??$_Emplace_reallocate@ABUSTerrainTexture@@@?$vector@USTerrainTexture@@V?$allocator@USTerrainTexture@@@std@@@std@@AAEPAUSTerrainTexture@@QAU2@ABU2@@Z
  00025	e9 00 00 00 00	 jmp	 ___CxxFrameHandler3
text$x	ENDS
??$_Emplace_reallocate@ABUSTerrainTexture@@@?$vector@USTerrainTexture@@V?$allocator@USTerrainTexture@@@std@@@std@@AAEPAUSTerrainTexture@@QAU2@ABU2@@Z ENDP ; std::vector<STerrainTexture,std::allocator<STerrainTexture> >::_Emplace_reallocate<STerrainTexture const &>
; Function compile flags: /Ogtp
; File D:\Program Files\Microsoft Visual Studio\2022\Community\VC\Tools\MSVC\14.43.34808\include\xmemory
;	COMDAT ??$_Uninitialized_value_construct_n@V?$allocator@USTerrainTexture@@@std@@@std@@YAPAUSTerrainTexture@@PAU1@IAAV?$allocator@USTerrainTexture@@@0@@Z
_TEXT	SEGMENT
__Backout$ = -24					; size = 12
__$EHRec$ = -12						; size = 12
__First$ = 8						; size = 4
__Count$ = 12						; size = 4
__Al$ = 16						; size = 4
??$_Uninitialized_value_construct_n@V?$allocator@USTerrainTexture@@@std@@@std@@YAPAUSTerrainTexture@@PAU1@IAAV?$allocator@USTerrainTexture@@@0@@Z PROC ; std::_Uninitialized_value_construct_n<std::allocator<STerrainTexture> >, COMDAT

; 2041 :     _Alloc_ptr_t<_Alloc> _First, _Alloc_size_t<_Alloc> _Count, _Alloc& _Al) {

  00000	55		 push	 ebp
  00001	8b ec		 mov	 ebp, esp
  00003	6a ff		 push	 -1
  00005	68 00 00 00 00	 push	 __ehhandler$??$_Uninitialized_value_construct_n@V?$allocator@USTerrainTexture@@@std@@@std@@YAPAUSTerrainTexture@@PAU1@IAAV?$allocator@USTerrainTexture@@@0@@Z
  0000a	64 a1 00 00 00
	00		 mov	 eax, DWORD PTR fs:0
  00010	50		 push	 eax
  00011	83 ec 0c	 sub	 esp, 12			; 0000000cH
  00014	53		 push	 ebx
  00015	56		 push	 esi
  00016	57		 push	 edi
  00017	a1 00 00 00 00	 mov	 eax, DWORD PTR ___security_cookie
  0001c	33 c5		 xor	 eax, ebp
  0001e	50		 push	 eax
  0001f	8d 45 f4	 lea	 eax, DWORD PTR __$EHRec$[ebp]
  00022	64 a3 00 00 00
	00		 mov	 DWORD PTR fs:0, eax

; 1796 :     _CONSTEXPR20 _Uninitialized_backout_al(pointer _Dest, _Alloc& _Al_) : _First(_Dest), _Last(_Dest), _Al(_Al_) {}

  00028	8b 7d 08	 mov	 edi, DWORD PTR __First$[ebp]
  0002b	8b 5d 10	 mov	 ebx, DWORD PTR __Al$[ebp]
  0002e	89 7d e8	 mov	 DWORD PTR __Backout$[ebp], edi
  00031	89 7d ec	 mov	 DWORD PTR __Backout$[ebp+4], edi
  00034	89 5d f0	 mov	 DWORD PTR __Backout$[ebp+8], ebx

; 2042 :     // value-initialize _Count objects to raw _First, using _Al
; 2043 :     using _Ptrty = typename _Alloc::value_type*;
; 2044 :     if constexpr (_Use_memset_value_construct_v<_Ptrty> && _Uses_default_construct<_Alloc, _Ptrty>::value) {
; 2045 : #if _HAS_CXX20
; 2046 :         if (!_STD is_constant_evaluated())
; 2047 : #endif // _HAS_CXX20
; 2048 :         {
; 2049 :             auto _PFirst = _Unfancy(_First);
; 2050 :             _Zero_range(_PFirst, _PFirst + _Count);
; 2051 :             return _First + _Count;
; 2052 :         }
; 2053 :     }
; 2054 : 
; 2055 :     _Uninitialized_backout_al<_Alloc> _Backout{_First, _Al};
; 2056 :     for (; 0 < _Count; --_Count) {

  00037	8b 75 0c	 mov	 esi, DWORD PTR __Count$[ebp]
  0003a	c7 45 fc 00 00
	00 00		 mov	 DWORD PTR __$EHRec$[ebp+8], 0
  00041	85 f6		 test	 esi, esi
  00043	74 15		 je	 SHORT $LN3@Uninitiali
$LL4@Uninitiali:

; 732  :         ::new (const_cast<void*>(static_cast<const volatile void*>(_Ptr))) _Objty(_STD forward<_Types>(_Args)...);

  00045	8b cf		 mov	 ecx, edi
  00047	e8 00 00 00 00	 call	 ??0STerrainTexture@@QAE@XZ ; STerrainTexture::STerrainTexture

; 1808 :         ++_Last;

  0004c	81 c7 9c 00 00
	00		 add	 edi, 156		; 0000009cH
  00052	89 7d ec	 mov	 DWORD PTR __Backout$[ebp+4], edi

; 2042 :     // value-initialize _Count objects to raw _First, using _Al
; 2043 :     using _Ptrty = typename _Alloc::value_type*;
; 2044 :     if constexpr (_Use_memset_value_construct_v<_Ptrty> && _Uses_default_construct<_Alloc, _Ptrty>::value) {
; 2045 : #if _HAS_CXX20
; 2046 :         if (!_STD is_constant_evaluated())
; 2047 : #endif // _HAS_CXX20
; 2048 :         {
; 2049 :             auto _PFirst = _Unfancy(_First);
; 2050 :             _Zero_range(_PFirst, _PFirst + _Count);
; 2051 :             return _First + _Count;
; 2052 :         }
; 2053 :     }
; 2054 : 
; 2055 :     _Uninitialized_backout_al<_Alloc> _Backout{_First, _Al};
; 2056 :     for (; 0 < _Count; --_Count) {

  00055	83 ee 01	 sub	 esi, 1
  00058	75 eb		 jne	 SHORT $LL4@Uninitiali
$LN3@Uninitiali:

; 1802 :         _STD _Destroy_range(_First, _Last, _Al);

  0005a	53		 push	 ebx
  0005b	57		 push	 edi
  0005c	57		 push	 edi
  0005d	e8 00 00 00 00	 call	 ??$_Destroy_range@V?$allocator@USTerrainTexture@@@std@@@std@@YAXPAUSTerrainTexture@@QAU1@AAV?$allocator@USTerrainTexture@@@0@@Z ; std::_Destroy_range<std::allocator<STerrainTexture> >
  00062	83 c4 0c	 add	 esp, 12			; 0000000cH

; 2057 :         _Backout._Emplace_back();
; 2058 :     }
; 2059 : 
; 2060 :     return _Backout._Release();

  00065	8b c7		 mov	 eax, edi

; 2061 : }

  00067	8b 4d f4	 mov	 ecx, DWORD PTR __$EHRec$[ebp]
  0006a	64 89 0d 00 00
	00 00		 mov	 DWORD PTR fs:0, ecx
  00071	59		 pop	 ecx
  00072	5f		 pop	 edi
  00073	5e		 pop	 esi
  00074	5b		 pop	 ebx
  00075	8b e5		 mov	 esp, ebp
  00077	5d		 pop	 ebp
  00078	c3		 ret	 0
_TEXT	ENDS
;	COMDAT text$x
text$x	SEGMENT
__unwindfunclet$??$_Uninitialized_value_construct_n@V?$allocator@USTerrainTexture@@@std@@@std@@YAPAUSTerrainTexture@@PAU1@IAAV?$allocator@USTerrainTexture@@@0@@Z$0:
  00000	8d 4d e8	 lea	 ecx, DWORD PTR __Backout$[ebp]
  00003	e9 00 00 00 00	 jmp	 ??1?$_Uninitialized_backout_al@V?$allocator@USTerrainTexture@@@std@@@std@@QAE@XZ ; std::_Uninitialized_backout_al<std::allocator<STerrainTexture> >::~_Uninitialized_backout_al<std::allocator<STerrainTexture> >
  00008	cc		 int	 3
  00009	cc		 int	 3
  0000a	cc		 int	 3
  0000b	cc		 int	 3
  0000c	cc		 int	 3
__ehhandler$??$_Uninitialized_value_construct_n@V?$allocator@USTerrainTexture@@@std@@@std@@YAPAUSTerrainTexture@@PAU1@IAAV?$allocator@USTerrainTexture@@@0@@Z:
  0000d	90		 npad	 1
  0000e	90		 npad	 1
  0000f	8b 54 24 08	 mov	 edx, DWORD PTR [esp+8]
  00013	8d 42 0c	 lea	 eax, DWORD PTR [edx+12]
  00016	8b 4a e4	 mov	 ecx, DWORD PTR [edx-28]
  00019	33 c8		 xor	 ecx, eax
  0001b	e8 00 00 00 00	 call	 @__security_check_cookie@4
  00020	b8 00 00 00 00	 mov	 eax, OFFSET __ehfuncinfo$??$_Uninitialized_value_construct_n@V?$allocator@USTerrainTexture@@@std@@@std@@YAPAUSTerrainTexture@@PAU1@IAAV?$allocator@USTerrainTexture@@@0@@Z
  00025	e9 00 00 00 00	 jmp	 ___CxxFrameHandler3
text$x	ENDS
??$_Uninitialized_value_construct_n@V?$allocator@USTerrainTexture@@@std@@@std@@YAPAUSTerrainTexture@@PAU1@IAAV?$allocator@USTerrainTexture@@@0@@Z ENDP ; std::_Uninitialized_value_construct_n<std::allocator<STerrainTexture> >
; Function compile flags: /Ogtp
; File D:\Program Files\Microsoft Visual Studio\2022\Community\VC\Tools\MSVC\14.43.34808\include\xmemory
;	COMDAT ??$_Uninitialized_copy@PAUSTerrainTexture@@PAU1@V?$allocator@USTerrainTexture@@@std@@@std@@YAPAUSTerrainTexture@@PAU1@00AAV?$allocator@USTerrainTexture@@@0@@Z
_TEXT	SEGMENT
__Backout$ = -24					; size = 12
__$EHRec$ = -12						; size = 12
__First$ = 8						; size = 4
__Last$ = 12						; size = 4
__Dest$ = 16						; size = 4
__Al$ = 20						; size = 4
??$_Uninitialized_copy@PAUSTerrainTexture@@PAU1@V?$allocator@USTerrainTexture@@@std@@@std@@YAPAUSTerrainTexture@@PAU1@00AAV?$allocator@USTerrainTexture@@@0@@Z PROC ; std::_Uninitialized_copy<STerrainTexture *,STerrainTexture *,std::allocator<STerrainTexture> >, COMDAT

; 1824 :     _InIt _First, _Se _Last, _Alloc_ptr_t<_Alloc> _Dest, _Alloc& _Al) {

  00000	55		 push	 ebp
  00001	8b ec		 mov	 ebp, esp
  00003	6a ff		 push	 -1
  00005	68 00 00 00 00	 push	 __ehhandler$??$_Uninitialized_copy@PAUSTerrainTexture@@PAU1@V?$allocator@USTerrainTexture@@@std@@@std@@YAPAUSTerrainTexture@@PAU1@00AAV?$allocator@USTerrainTexture@@@0@@Z
  0000a	64 a1 00 00 00
	00		 mov	 eax, DWORD PTR fs:0
  00010	50		 push	 eax
  00011	83 ec 0c	 sub	 esp, 12			; 0000000cH
  00014	53		 push	 ebx
  00015	56		 push	 esi
  00016	57		 push	 edi
  00017	a1 00 00 00 00	 mov	 eax, DWORD PTR ___security_cookie
  0001c	33 c5		 xor	 eax, ebp
  0001e	50		 push	 eax
  0001f	8d 45 f4	 lea	 eax, DWORD PTR __$EHRec$[ebp]
  00022	64 a3 00 00 00
	00		 mov	 DWORD PTR fs:0, eax

; 1796 :     _CONSTEXPR20 _Uninitialized_backout_al(pointer _Dest, _Alloc& _Al_) : _First(_Dest), _Last(_Dest), _Al(_Al_) {}

  00028	8b 7d 10	 mov	 edi, DWORD PTR __Dest$[ebp]
  0002b	8b 45 14	 mov	 eax, DWORD PTR __Al$[ebp]

; 1825 :     // copy [_First, _Last) to raw _Dest, using _Al
; 1826 :     // note: only called internally from elsewhere in the STL
; 1827 :     using _Ptrval = typename _Alloc::value_type*;
; 1828 : 
; 1829 : #ifdef _ENABLE_STL_INTERNAL_CHECK
; 1830 :     _STD _Adl_verify_range(_First, _Last);
; 1831 : #endif // ^^^ defined(_ENABLE_STL_INTERNAL_CHECK) ^^^
; 1832 : 
; 1833 : #if _HAS_CXX20
; 1834 :     auto _UFirst = _RANGES _Unwrap_iter<_Se>(_STD move(_First));
; 1835 :     auto _ULast  = _RANGES _Unwrap_sent<_InIt>(_STD move(_Last));
; 1836 : #else // ^^^ _HAS_CXX20 / !_HAS_CXX20 vvv
; 1837 :     // In pre-concepts world, _Uninitialized_copy should only ever be called with an iterator
; 1838 :     // and sentinel of the same type, so `_Get_unwrapped` is fine to call.
; 1839 :     auto _UFirst = _STD _Get_unwrapped(_STD move(_First));

  0002e	8b 75 08	 mov	 esi, DWORD PTR __First$[ebp]

; 1796 :     _CONSTEXPR20 _Uninitialized_backout_al(pointer _Dest, _Alloc& _Al_) : _First(_Dest), _Last(_Dest), _Al(_Al_) {}

  00031	89 7d e8	 mov	 DWORD PTR __Backout$[ebp], edi
  00034	89 7d ec	 mov	 DWORD PTR __Backout$[ebp+4], edi
  00037	89 45 f0	 mov	 DWORD PTR __Backout$[ebp+8], eax

; 1840 :     auto _ULast  = _STD _Get_unwrapped(_STD move(_Last));
; 1841 : #endif // ^^^ !_HAS_CXX20 ^^^
; 1842 : 
; 1843 :     constexpr bool _Can_memmove = _Sent_copy_cat<decltype(_UFirst), decltype(_ULast), _Ptrval>::_Bitcopy_constructible
; 1844 :                                && _Uses_default_construct<_Alloc, _Ptrval, decltype(*_UFirst)>::value;
; 1845 : 
; 1846 :     if constexpr (_Can_memmove) {
; 1847 : #if _HAS_CXX20
; 1848 :         if (!_STD is_constant_evaluated())
; 1849 : #endif // _HAS_CXX20
; 1850 :         {
; 1851 :             if constexpr (is_same_v<decltype(_UFirst), decltype(_ULast)>) {
; 1852 :                 _STD _Copy_memmove(_STD _To_address(_UFirst), _STD _To_address(_ULast), _STD _Unfancy(_Dest));
; 1853 :                 _Dest += _ULast - _UFirst;
; 1854 :             } else {
; 1855 :                 const auto _Count = static_cast<size_t>(_ULast - _UFirst);
; 1856 :                 _STD _Copy_memmove_n(_STD _To_address(_UFirst), _Count, _STD _Unfancy(_Dest));
; 1857 :                 _Dest += _Count;
; 1858 :             }
; 1859 :             return _Dest;
; 1860 :         }
; 1861 :     }
; 1862 : 
; 1863 :     _Uninitialized_backout_al<_Alloc> _Backout{_Dest, _Al};
; 1864 :     for (; _UFirst != _ULast; ++_UFirst) {

  0003a	8b 5d 0c	 mov	 ebx, DWORD PTR __Last$[ebp]
  0003d	c7 45 fc 00 00
	00 00		 mov	 DWORD PTR __$EHRec$[ebp+8], 0
  00044	3b f3		 cmp	 esi, ebx
  00046	74 1e		 je	 SHORT $LN3@Uninitiali
$LL4@Uninitiali:

; 732  :         ::new (const_cast<void*>(static_cast<const volatile void*>(_Ptr))) _Objty(_STD forward<_Types>(_Args)...);

  00048	56		 push	 esi
  00049	8b cf		 mov	 ecx, edi
  0004b	e8 00 00 00 00	 call	 ??0STerrainTexture@@QAE@ABU0@@Z

; 1808 :         ++_Last;

  00050	81 c7 9c 00 00
	00		 add	 edi, 156		; 0000009cH

; 1840 :     auto _ULast  = _STD _Get_unwrapped(_STD move(_Last));
; 1841 : #endif // ^^^ !_HAS_CXX20 ^^^
; 1842 : 
; 1843 :     constexpr bool _Can_memmove = _Sent_copy_cat<decltype(_UFirst), decltype(_ULast), _Ptrval>::_Bitcopy_constructible
; 1844 :                                && _Uses_default_construct<_Alloc, _Ptrval, decltype(*_UFirst)>::value;
; 1845 : 
; 1846 :     if constexpr (_Can_memmove) {
; 1847 : #if _HAS_CXX20
; 1848 :         if (!_STD is_constant_evaluated())
; 1849 : #endif // _HAS_CXX20
; 1850 :         {
; 1851 :             if constexpr (is_same_v<decltype(_UFirst), decltype(_ULast)>) {
; 1852 :                 _STD _Copy_memmove(_STD _To_address(_UFirst), _STD _To_address(_ULast), _STD _Unfancy(_Dest));
; 1853 :                 _Dest += _ULast - _UFirst;
; 1854 :             } else {
; 1855 :                 const auto _Count = static_cast<size_t>(_ULast - _UFirst);
; 1856 :                 _STD _Copy_memmove_n(_STD _To_address(_UFirst), _Count, _STD _Unfancy(_Dest));
; 1857 :                 _Dest += _Count;
; 1858 :             }
; 1859 :             return _Dest;
; 1860 :         }
; 1861 :     }
; 1862 : 
; 1863 :     _Uninitialized_backout_al<_Alloc> _Backout{_Dest, _Al};
; 1864 :     for (; _UFirst != _ULast; ++_UFirst) {

  00056	81 c6 9c 00 00
	00		 add	 esi, 156		; 0000009cH

; 1808 :         ++_Last;

  0005c	89 7d ec	 mov	 DWORD PTR __Backout$[ebp+4], edi

; 1840 :     auto _ULast  = _STD _Get_unwrapped(_STD move(_Last));
; 1841 : #endif // ^^^ !_HAS_CXX20 ^^^
; 1842 : 
; 1843 :     constexpr bool _Can_memmove = _Sent_copy_cat<decltype(_UFirst), decltype(_ULast), _Ptrval>::_Bitcopy_constructible
; 1844 :                                && _Uses_default_construct<_Alloc, _Ptrval, decltype(*_UFirst)>::value;
; 1845 : 
; 1846 :     if constexpr (_Can_memmove) {
; 1847 : #if _HAS_CXX20
; 1848 :         if (!_STD is_constant_evaluated())
; 1849 : #endif // _HAS_CXX20
; 1850 :         {
; 1851 :             if constexpr (is_same_v<decltype(_UFirst), decltype(_ULast)>) {
; 1852 :                 _STD _Copy_memmove(_STD _To_address(_UFirst), _STD _To_address(_ULast), _STD _Unfancy(_Dest));
; 1853 :                 _Dest += _ULast - _UFirst;
; 1854 :             } else {
; 1855 :                 const auto _Count = static_cast<size_t>(_ULast - _UFirst);
; 1856 :                 _STD _Copy_memmove_n(_STD _To_address(_UFirst), _Count, _STD _Unfancy(_Dest));
; 1857 :                 _Dest += _Count;
; 1858 :             }
; 1859 :             return _Dest;
; 1860 :         }
; 1861 :     }
; 1862 : 
; 1863 :     _Uninitialized_backout_al<_Alloc> _Backout{_Dest, _Al};
; 1864 :     for (; _UFirst != _ULast; ++_UFirst) {

  0005f	3b f3		 cmp	 esi, ebx
  00061	75 e5		 jne	 SHORT $LL4@Uninitiali
  00063	8b 45 14	 mov	 eax, DWORD PTR __Al$[ebp]
$LN3@Uninitiali:

; 1802 :         _STD _Destroy_range(_First, _Last, _Al);

  00066	50		 push	 eax
  00067	57		 push	 edi
  00068	57		 push	 edi
  00069	e8 00 00 00 00	 call	 ??$_Destroy_range@V?$allocator@USTerrainTexture@@@std@@@std@@YAXPAUSTerrainTexture@@QAU1@AAV?$allocator@USTerrainTexture@@@0@@Z ; std::_Destroy_range<std::allocator<STerrainTexture> >
  0006e	83 c4 0c	 add	 esp, 12			; 0000000cH

; 1865 :         _Backout._Emplace_back(*_UFirst);
; 1866 :     }
; 1867 : 
; 1868 :     return _Backout._Release();

  00071	8b c7		 mov	 eax, edi

; 1869 : }

  00073	8b 4d f4	 mov	 ecx, DWORD PTR __$EHRec$[ebp]
  00076	64 89 0d 00 00
	00 00		 mov	 DWORD PTR fs:0, ecx
  0007d	59		 pop	 ecx
  0007e	5f		 pop	 edi
  0007f	5e		 pop	 esi
  00080	5b		 pop	 ebx
  00081	8b e5		 mov	 esp, ebp
  00083	5d		 pop	 ebp
  00084	c3		 ret	 0
_TEXT	ENDS
;	COMDAT text$x
text$x	SEGMENT
__unwindfunclet$??$_Uninitialized_copy@PAUSTerrainTexture@@PAU1@V?$allocator@USTerrainTexture@@@std@@@std@@YAPAUSTerrainTexture@@PAU1@00AAV?$allocator@USTerrainTexture@@@0@@Z$0:
  00000	8d 4d e8	 lea	 ecx, DWORD PTR __Backout$[ebp]
  00003	e9 00 00 00 00	 jmp	 ??1?$_Uninitialized_backout_al@V?$allocator@USTerrainTexture@@@std@@@std@@QAE@XZ ; std::_Uninitialized_backout_al<std::allocator<STerrainTexture> >::~_Uninitialized_backout_al<std::allocator<STerrainTexture> >
  00008	cc		 int	 3
  00009	cc		 int	 3
  0000a	cc		 int	 3
  0000b	cc		 int	 3
  0000c	cc		 int	 3
__ehhandler$??$_Uninitialized_copy@PAUSTerrainTexture@@PAU1@V?$allocator@USTerrainTexture@@@std@@@std@@YAPAUSTerrainTexture@@PAU1@00AAV?$allocator@USTerrainTexture@@@0@@Z:
  0000d	90		 npad	 1
  0000e	90		 npad	 1
  0000f	8b 54 24 08	 mov	 edx, DWORD PTR [esp+8]
  00013	8d 42 0c	 lea	 eax, DWORD PTR [edx+12]
  00016	8b 4a e4	 mov	 ecx, DWORD PTR [edx-28]
  00019	33 c8		 xor	 ecx, eax
  0001b	e8 00 00 00 00	 call	 @__security_check_cookie@4
  00020	b8 00 00 00 00	 mov	 eax, OFFSET __ehfuncinfo$??$_Uninitialized_copy@PAUSTerrainTexture@@PAU1@V?$allocator@USTerrainTexture@@@std@@@std@@YAPAUSTerrainTexture@@PAU1@00AAV?$allocator@USTerrainTexture@@@0@@Z
  00025	e9 00 00 00 00	 jmp	 ___CxxFrameHandler3
text$x	ENDS
??$_Uninitialized_copy@PAUSTerrainTexture@@PAU1@V?$allocator@USTerrainTexture@@@std@@@std@@YAPAUSTerrainTexture@@PAU1@00AAV?$allocator@USTerrainTexture@@@0@@Z ENDP ; std::_Uninitialized_copy<STerrainTexture *,STerrainTexture *,std::allocator<STerrainTexture> >
; Function compile flags: /Ogtp
; File D:\Program Files\Microsoft Visual Studio\2022\Community\VC\Tools\MSVC\14.43.34808\include\vector
; File D:\Program Files\Microsoft Visual Studio\2022\Community\VC\Tools\MSVC\14.43.34808\include\xmemory
; File D:\Program Files\Microsoft Visual Studio\2022\Community\VC\Tools\MSVC\14.43.34808\include\vector
; File D:\Program Files\Microsoft Visual Studio\2022\Community\VC\Tools\MSVC\14.43.34808\include\xmemory
; File D:\Program Files\Microsoft Visual Studio\2022\Community\VC\Tools\MSVC\14.43.34808\include\vector
;	COMDAT ??1_Simple_reallocation_guard@?$vector@USTerrainTexture@@V?$allocator@USTerrainTexture@@@std@@@std@@QAE@XZ
_TEXT	SEGMENT
??1_Simple_reallocation_guard@?$vector@USTerrainTexture@@V?$allocator@USTerrainTexture@@@std@@@std@@QAE@XZ PROC ; std::vector<STerrainTexture,std::allocator<STerrainTexture> >::_Simple_reallocation_guard::~_Simple_reallocation_guard, COMDAT
; _this$ = ecx

; 622  :             if (_New_begin != nullptr) {

  00000	8b 41 04	 mov	 eax, DWORD PTR [ecx+4]
  00003	85 c0		 test	 eax, eax
  00005	74 2b		 je	 SHORT $LN10@Simple_rea
; File D:\Program Files\Microsoft Visual Studio\2022\Community\VC\Tools\MSVC\14.43.34808\include\xmemory

; 981  :         _STD _Deallocate<_New_alignof<_Ty>>(_Ptr, sizeof(_Ty) * _Count);

  00007	69 49 08 9c 00
	00 00		 imul	 ecx, DWORD PTR [ecx+8], 156

; 284  :         if (_Bytes >= _Big_allocation_threshold) {

  0000e	81 f9 00 10 00
	00		 cmp	 ecx, 4096		; 00001000H
  00014	72 12		 jb	 SHORT $LN21@Simple_rea

; 205  :     const uintptr_t _Ptr_container   = _Ptr_user[-1];

  00016	8b 50 fc	 mov	 edx, DWORD PTR [eax-4]
  00019	83 c1 23	 add	 ecx, 35			; 00000023H

; 206  : 
; 207  :     // If the following asserts, it likely means that we are performing
; 208  :     // an aligned delete on memory coming from an unaligned allocation.
; 209  :     _STL_ASSERT(_Ptr_user[-2] == _Big_allocation_sentinel, "invalid argument");
; 210  : 
; 211  :     // Extra paranoia on aligned allocation/deallocation; ensure _Ptr_container is
; 212  :     // in range [_Min_back_shift, _Non_user_size]
; 213  : #ifdef _DEBUG
; 214  :     constexpr uintptr_t _Min_back_shift = 2 * sizeof(void*);
; 215  : #else // ^^^ defined(_DEBUG) / !defined(_DEBUG) vvv
; 216  :     constexpr uintptr_t _Min_back_shift = sizeof(void*);
; 217  : #endif // ^^^ !defined(_DEBUG) ^^^
; 218  :     const uintptr_t _Back_shift = reinterpret_cast<uintptr_t>(_Ptr) - _Ptr_container;

  0001c	2b c2		 sub	 eax, edx

; 219  :     _STL_VERIFY(_Back_shift >= _Min_back_shift && _Back_shift <= _Non_user_size, "invalid argument");

  0001e	83 c0 fc	 add	 eax, -4			; fffffffcH
  00021	83 f8 1f	 cmp	 eax, 31			; 0000001fH
  00024	77 0d		 ja	 SHORT $LN18@Simple_rea

; 220  :     _Ptr = reinterpret_cast<void*>(_Ptr_container);

  00026	8b c2		 mov	 eax, edx
$LN21@Simple_rea:

; 289  :         ::operator delete(_Ptr, _Bytes);

  00028	51		 push	 ecx
  00029	50		 push	 eax
  0002a	e8 00 00 00 00	 call	 ??3@YAXPAXI@Z		; operator delete
  0002f	83 c4 08	 add	 esp, 8
$LN10@Simple_rea:
; File D:\Program Files\Microsoft Visual Studio\2022\Community\VC\Tools\MSVC\14.43.34808\include\vector

; 625  :         }

  00032	c3		 ret	 0
$LN18@Simple_rea:
; File D:\Program Files\Microsoft Visual Studio\2022\Community\VC\Tools\MSVC\14.43.34808\include\xmemory

; 219  :     _STL_VERIFY(_Back_shift >= _Min_back_shift && _Back_shift <= _Non_user_size, "invalid argument");

  00033	e9 00 00 00 00	 jmp	 __invalid_parameter_noinfo_noreturn
??1_Simple_reallocation_guard@?$vector@USTerrainTexture@@V?$allocator@USTerrainTexture@@@std@@@std@@QAE@XZ ENDP ; std::vector<STerrainTexture,std::allocator<STerrainTexture> >::_Simple_reallocation_guard::~_Simple_reallocation_guard
_TEXT	ENDS
; Function compile flags: /Ogtp
; File D:\Program Files\Microsoft Visual Studio\2022\Community\VC\Tools\MSVC\14.43.34808\include\xtree
; File D:\Program Files\Microsoft Visual Studio\2022\Community\VC\Tools\MSVC\14.43.34808\include\utility
; File D:\Program Files\Microsoft Visual Studio\2022\Community\VC\Tools\MSVC\14.43.34808\include\xtree
; File D:\Program Files\Microsoft Visual Studio\2022\Community\VC\Tools\MSVC\14.43.34808\include\xmemory
; File D:\Program Files\Microsoft Visual Studio\2022\Community\VC\Tools\MSVC\14.43.34808\include\xtree
; File D:\Program Files\Microsoft Visual Studio\2022\Community\VC\Tools\MSVC\14.43.34808\include\xmemory
; File D:\Program Files\Microsoft Visual Studio\2022\Community\VC\Tools\MSVC\14.43.34808\include\xtree
;	COMDAT ??$_Erase_tree@V?$allocator@U?$_Tree_node@U?$pair@$$CBV?$basic_string@DU?$char_traits@D@std@@V?$allocator@D@2@@std@@V?$vector@V?$basic_string@DU?$char_traits@D@std@@V?$allocator@D@2@@std@@V?$allocator@V?$basic_string@DU?$char_traits@D@std@@V?$allocator@D@2@@std@@@2@@2@@std@@PAX@std@@@std@@@?$_Tree_val@U?$_Tree_simple_types@U?$pair@$$CBV?$basic_string@DU?$char_traits@D@std@@V?$allocator@D@2@@std@@V?$vector@V?$basic_string@DU?$char_traits@D@std@@V?$allocator@D@2@@std@@V?$allocator@V?$basic_string@DU?$char_traits@D@std@@V?$allocator@D@2@@std@@@2@@2@@std@@@std@@@std@@QAEXAAV?$allocator@U?$_Tree_node@U?$pair@$$CBV?$basic_string@DU?$char_traits@D@std@@V?$allocator@D@2@@std@@V?$vector@V?$basic_string@DU?$char_traits@D@std@@V?$allocator@D@2@@std@@V?$allocator@V?$basic_string@DU?$char_traits@D@std@@V?$allocator@D@2@@std@@@2@@2@@std@@PAX@std@@@1@PAU?$_Tree_node@U?$pair@$$CBV?$basic_string@DU?$char_traits@D@std@@V?$allocator@D@2@@std@@V?$vector@V?$basic_string@DU?$char_traits@D@std@@V?$allocator@D@2@@std@@V?$allocator@V?$basic_string@DU?$char_traits@D@std@@V?$allocator@D@2@@std@@@2@@2@@std@@PAX@1@@Z
_TEXT	SEGMENT
_this$1$ = -4						; size = 4
__Al$ = 8						; size = 4
__Rootnode$ = 12					; size = 4
??$_Erase_tree@V?$allocator@U?$_Tree_node@U?$pair@$$CBV?$basic_string@DU?$char_traits@D@std@@V?$allocator@D@2@@std@@V?$vector@V?$basic_string@DU?$char_traits@D@std@@V?$allocator@D@2@@std@@V?$allocator@V?$basic_string@DU?$char_traits@D@std@@V?$allocator@D@2@@std@@@2@@2@@std@@PAX@std@@@std@@@?$_Tree_val@U?$_Tree_simple_types@U?$pair@$$CBV?$basic_string@DU?$char_traits@D@std@@V?$allocator@D@2@@std@@V?$vector@V?$basic_string@DU?$char_traits@D@std@@V?$allocator@D@2@@std@@V?$allocator@V?$basic_string@DU?$char_traits@D@std@@V?$allocator@D@2@@std@@@2@@2@@std@@@std@@@std@@QAEXAAV?$allocator@U?$_Tree_node@U?$pair@$$CBV?$basic_string@DU?$char_traits@D@std@@V?$allocator@D@2@@std@@V?$vector@V?$basic_string@DU?$char_traits@D@std@@V?$allocator@D@2@@std@@V?$allocator@V?$basic_string@DU?$char_traits@D@std@@V?$allocator@D@2@@std@@@2@@2@@std@@PAX@std@@@1@PAU?$_Tree_node@U?$pair@$$CBV?$basic_string@DU?$char_traits@D@std@@V?$allocator@D@2@@std@@V?$vector@V?$basic_string@DU?$char_traits@D@std@@V?$allocator@D@2@@std@@V?$allocator@V?$basic_string@DU?$char_traits@D@std@@V?$allocator@D@2@@std@@@2@@2@@std@@PAX@1@@Z PROC ; std::_Tree_val<std::_Tree_simple_types<std::pair<std::basic_string<char,std::char_traits<char>,std::allocator<char> > const ,std::vector<std::basic_string<char,std::char_traits<char>,std::allocator<char> >,std::allocator<std::basic_string<char,std::char_traits<char>,std::allocator<char> > > > > > >::_Erase_tree<std::allocator<std::_Tree_node<std::pair<std::basic_string<char,std::char_traits<char>,std::allocator<char> > const ,std::vector<std::basic_string<char,std::char_traits<char>,std::allocator<char> >,std::allocator<std::basic_string<char,std::char_traits<char>,std::allocator<char> > > > >,void *> > >, COMDAT
; _this$ = ecx

; 757  :     void _Erase_tree(_Alnode& _Al, _Nodeptr _Rootnode) noexcept {

  00000	55		 push	 ebp
  00001	8b ec		 mov	 ebp, esp
  00003	51		 push	 ecx
  00004	56		 push	 esi

; 758  :         while (!_Rootnode->_Isnil) { // free subtrees, then node

  00005	8b 75 0c	 mov	 esi, DWORD PTR __Rootnode$[ebp]
  00008	8b c1		 mov	 eax, ecx
  0000a	89 45 fc	 mov	 DWORD PTR _this$1$[ebp], eax
  0000d	80 7e 0d 00	 cmp	 BYTE PTR [esi+13], 0
  00011	75 34		 jne	 SHORT $LN39@Erase_tree
  00013	53		 push	 ebx
  00014	8b 5d 08	 mov	 ebx, DWORD PTR __Al$[ebp]
  00017	57		 push	 edi
$LL2@Erase_tree:

; 759  :             _Erase_tree(_Al, _Rootnode->_Right);

  00018	ff 76 08	 push	 DWORD PTR [esi+8]
  0001b	8b c8		 mov	 ecx, eax
  0001d	53		 push	 ebx
  0001e	e8 00 00 00 00	 call	 ??$_Erase_tree@V?$allocator@U?$_Tree_node@U?$pair@$$CBV?$basic_string@DU?$char_traits@D@std@@V?$allocator@D@2@@std@@V?$vector@V?$basic_string@DU?$char_traits@D@std@@V?$allocator@D@2@@std@@V?$allocator@V?$basic_string@DU?$char_traits@D@std@@V?$allocator@D@2@@std@@@2@@2@@std@@PAX@std@@@std@@@?$_Tree_val@U?$_Tree_simple_types@U?$pair@$$CBV?$basic_string@DU?$char_traits@D@std@@V?$allocator@D@2@@std@@V?$vector@V?$basic_string@DU?$char_traits@D@std@@V?$allocator@D@2@@std@@V?$allocator@V?$basic_string@DU?$char_traits@D@std@@V?$allocator@D@2@@std@@@2@@2@@std@@@std@@@std@@QAEXAAV?$allocator@U?$_Tree_node@U?$pair@$$CBV?$basic_string@DU?$char_traits@D@std@@V?$allocator@D@2@@std@@V?$vector@V?$basic_string@DU?$char_traits@D@std@@V?$allocator@D@2@@std@@V?$allocator@V?$basic_string@DU?$char_traits@D@std@@V?$allocator@D@2@@std@@@2@@2@@std@@PAX@std@@@1@PAU?$_Tree_node@U?$pair@$$CBV?$basic_string@DU?$char_traits@D@std@@V?$allocator@D@2@@std@@V?$vector@V?$basic_string@DU?$char_traits@D@std@@V?$allocator@D@2@@std@@V?$allocator@V?$basic_string@DU?$char_traits@D@std@@V?$allocator@D@2@@std@@@2@@2@@std@@PAX@1@@Z ; std::_Tree_val<std::_Tree_simple_types<std::pair<std::basic_string<char,std::char_traits<char>,std::allocator<char> > const ,std::vector<std::basic_string<char,std::char_traits<char>,std::allocator<char> >,std::allocator<std::basic_string<char,std::char_traits<char>,std::allocator<char> > > > > > >::_Erase_tree<std::allocator<std::_Tree_node<std::pair<std::basic_string<char,std::char_traits<char>,std::allocator<char> > const ,std::vector<std::basic_string<char,std::char_traits<char>,std::allocator<char> >,std::allocator<std::basic_string<char,std::char_traits<char>,std::allocator<char> > > > >,void *> > >
; File D:\Program Files\Microsoft Visual Studio\2022\Community\VC\Tools\MSVC\14.43.34808\include\utility

; 773  :     _Ty _Old_val = static_cast<_Ty&&>(_Val);

  00023	8b fe		 mov	 edi, esi

; 774  :     _Val         = static_cast<_Other&&>(_New_val);

  00025	8b 36		 mov	 esi, DWORD PTR [esi]
; File D:\Program Files\Microsoft Visual Studio\2022\Community\VC\Tools\MSVC\14.43.34808\include\xtree

; 381  :         allocator_traits<_Alloc>::destroy(_Al, _STD addressof(_Ptr->_Myval));

  00027	8d 47 10	 lea	 eax, DWORD PTR [edi+16]
  0002a	50		 push	 eax
  0002b	53		 push	 ebx
  0002c	e8 00 00 00 00	 call	 ??$destroy@U?$pair@$$CBV?$basic_string@DU?$char_traits@D@std@@V?$allocator@D@2@@std@@V?$vector@V?$basic_string@DU?$char_traits@D@std@@V?$allocator@D@2@@std@@V?$allocator@V?$basic_string@DU?$char_traits@D@std@@V?$allocator@D@2@@std@@@2@@2@@std@@@?$_Default_allocator_traits@V?$allocator@U?$_Tree_node@U?$pair@$$CBV?$basic_string@DU?$char_traits@D@std@@V?$allocator@D@2@@std@@V?$vector@V?$basic_string@DU?$char_traits@D@std@@V?$allocator@D@2@@std@@V?$allocator@V?$basic_string@DU?$char_traits@D@std@@V?$allocator@D@2@@std@@@2@@2@@std@@PAX@std@@@std@@@std@@SAXAAV?$allocator@U?$_Tree_node@U?$pair@$$CBV?$basic_string@DU?$char_traits@D@std@@V?$allocator@D@2@@std@@V?$vector@V?$basic_string@DU?$char_traits@D@std@@V?$allocator@D@2@@std@@V?$allocator@V?$basic_string@DU?$char_traits@D@std@@V?$allocator@D@2@@std@@@2@@2@@std@@PAX@std@@@1@QAU?$pair@$$CBV?$basic_string@DU?$char_traits@D@std@@V?$allocator@D@2@@std@@V?$vector@V?$basic_string@DU?$char_traits@D@std@@V?$allocator@D@2@@std@@V?$allocator@V?$basic_string@DU?$char_traits@D@std@@V?$allocator@D@2@@std@@@2@@2@@1@@Z ; std::_Default_allocator_traits<std::allocator<std::_Tree_node<std::pair<std::basic_string<char,std::char_traits<char>,std::allocator<char> > const ,std::vector<std::basic_string<char,std::char_traits<char>,std::allocator<char> >,std::allocator<std::basic_string<char,std::char_traits<char>,std::allocator<char> > > > >,void *> > >::destroy<std::pair<std::basic_string<char,std::char_traits<char>,std::allocator<char> > const ,std::vector<std::basic_string<char,std::char_traits<char>,std::allocator<char> >,std::allocator<std::basic_string<char,std::char_traits<char>,std::allocator<char> > > > > >
; File D:\Program Files\Microsoft Visual Studio\2022\Community\VC\Tools\MSVC\14.43.34808\include\xmemory

; 289  :         ::operator delete(_Ptr, _Bytes);

  00031	6a 34		 push	 52			; 00000034H
  00033	57		 push	 edi
  00034	e8 00 00 00 00	 call	 ??3@YAXPAXI@Z		; operator delete
; File D:\Program Files\Microsoft Visual Studio\2022\Community\VC\Tools\MSVC\14.43.34808\include\xtree

; 758  :         while (!_Rootnode->_Isnil) { // free subtrees, then node

  00039	8b 45 fc	 mov	 eax, DWORD PTR _this$1$[ebp]
; File D:\Program Files\Microsoft Visual Studio\2022\Community\VC\Tools\MSVC\14.43.34808\include\xmemory

; 289  :         ::operator delete(_Ptr, _Bytes);

  0003c	83 c4 10	 add	 esp, 16			; 00000010H
; File D:\Program Files\Microsoft Visual Studio\2022\Community\VC\Tools\MSVC\14.43.34808\include\xtree

; 758  :         while (!_Rootnode->_Isnil) { // free subtrees, then node

  0003f	80 7e 0d 00	 cmp	 BYTE PTR [esi+13], 0
  00043	74 d3		 je	 SHORT $LL2@Erase_tree
  00045	5f		 pop	 edi
  00046	5b		 pop	 ebx
$LN39@Erase_tree:
  00047	5e		 pop	 esi

; 760  :             _Alnode::value_type::_Freenode(_Al, _STD exchange(_Rootnode, _Rootnode->_Left));
; 761  :         }
; 762  :     }

  00048	8b e5		 mov	 esp, ebp
  0004a	5d		 pop	 ebp
  0004b	c2 08 00	 ret	 8
??$_Erase_tree@V?$allocator@U?$_Tree_node@U?$pair@$$CBV?$basic_string@DU?$char_traits@D@std@@V?$allocator@D@2@@std@@V?$vector@V?$basic_string@DU?$char_traits@D@std@@V?$allocator@D@2@@std@@V?$allocator@V?$basic_string@DU?$char_traits@D@std@@V?$allocator@D@2@@std@@@2@@2@@std@@PAX@std@@@std@@@?$_Tree_val@U?$_Tree_simple_types@U?$pair@$$CBV?$basic_string@DU?$char_traits@D@std@@V?$allocator@D@2@@std@@V?$vector@V?$basic_string@DU?$char_traits@D@std@@V?$allocator@D@2@@std@@V?$allocator@V?$basic_string@DU?$char_traits@D@std@@V?$allocator@D@2@@std@@@2@@2@@std@@@std@@@std@@QAEXAAV?$allocator@U?$_Tree_node@U?$pair@$$CBV?$basic_string@DU?$char_traits@D@std@@V?$allocator@D@2@@std@@V?$vector@V?$basic_string@DU?$char_traits@D@std@@V?$allocator@D@2@@std@@V?$allocator@V?$basic_string@DU?$char_traits@D@std@@V?$allocator@D@2@@std@@@2@@2@@std@@PAX@std@@@1@PAU?$_Tree_node@U?$pair@$$CBV?$basic_string@DU?$char_traits@D@std@@V?$allocator@D@2@@std@@V?$vector@V?$basic_string@DU?$char_traits@D@std@@V?$allocator@D@2@@std@@V?$allocator@V?$basic_string@DU?$char_traits@D@std@@V?$allocator@D@2@@std@@@2@@2@@std@@PAX@1@@Z ENDP ; std::_Tree_val<std::_Tree_simple_types<std::pair<std::basic_string<char,std::char_traits<char>,std::allocator<char> > const ,std::vector<std::basic_string<char,std::char_traits<char>,std::allocator<char> >,std::allocator<std::basic_string<char,std::char_traits<char>,std::allocator<char> > > > > > >::_Erase_tree<std::allocator<std::_Tree_node<std::pair<std::basic_string<char,std::char_traits<char>,std::allocator<char> > const ,std::vector<std::basic_string<char,std::char_traits<char>,std::allocator<char> >,std::allocator<std::basic_string<char,std::char_traits<char>,std::allocator<char> > > > >,void *> > >
_TEXT	ENDS
; Function compile flags: /Ogtp
; File D:\Program Files\Microsoft Visual Studio\2022\Community\VC\Tools\MSVC\14.43.34808\include\xmemory
;	COMDAT ??1?$_Alloc_construct_ptr@V?$allocator@U?$_Tree_node@U?$pair@$$CBV?$basic_string@DU?$char_traits@D@std@@V?$allocator@D@2@@std@@V?$vector@V?$basic_string@DU?$char_traits@D@std@@V?$allocator@D@2@@std@@V?$allocator@V?$basic_string@DU?$char_traits@D@std@@V?$allocator@D@2@@std@@@2@@2@@std@@PAX@std@@@std@@@std@@QAE@XZ
_TEXT	SEGMENT
??1?$_Alloc_construct_ptr@V?$allocator@U?$_Tree_node@U?$pair@$$CBV?$basic_string@DU?$char_traits@D@std@@V?$allocator@D@2@@std@@V?$vector@V?$basic_string@DU?$char_traits@D@std@@V?$allocator@D@2@@std@@V?$allocator@V?$basic_string@DU?$char_traits@D@std@@V?$allocator@D@2@@std@@@2@@2@@std@@PAX@std@@@std@@@std@@QAE@XZ PROC ; std::_Alloc_construct_ptr<std::allocator<std::_Tree_node<std::pair<std::basic_string<char,std::char_traits<char>,std::allocator<char> > const ,std::vector<std::basic_string<char,std::char_traits<char>,std::allocator<char> >,std::allocator<std::basic_string<char,std::char_traits<char>,std::allocator<char> > > > >,void *> > >::~_Alloc_construct_ptr<std::allocator<std::_Tree_node<std::pair<std::basic_string<char,std::char_traits<char>,std::allocator<char> > const ,std::vector<std::basic_string<char,std::char_traits<char>,std::allocator<char> >,std::allocator<std::basic_string<char,std::char_traits<char>,std::allocator<char> > > > >,void *> > >, COMDAT
; _this$ = ecx

; 1168 :         if (_Ptr) {

  00000	8b 41 04	 mov	 eax, DWORD PTR [ecx+4]
  00003	85 c0		 test	 eax, eax
  00005	74 0b		 je	 SHORT $LN10@Alloc_cons

; 289  :         ::operator delete(_Ptr, _Bytes);

  00007	6a 34		 push	 52			; 00000034H
  00009	50		 push	 eax
  0000a	e8 00 00 00 00	 call	 ??3@YAXPAXI@Z		; operator delete
  0000f	83 c4 08	 add	 esp, 8
$LN10@Alloc_cons:

; 1169 :             _Al.deallocate(_Ptr, 1);
; 1170 :         }
; 1171 :     }

  00012	c3		 ret	 0
??1?$_Alloc_construct_ptr@V?$allocator@U?$_Tree_node@U?$pair@$$CBV?$basic_string@DU?$char_traits@D@std@@V?$allocator@D@2@@std@@V?$vector@V?$basic_string@DU?$char_traits@D@std@@V?$allocator@D@2@@std@@V?$allocator@V?$basic_string@DU?$char_traits@D@std@@V?$allocator@D@2@@std@@@2@@2@@std@@PAX@std@@@std@@@std@@QAE@XZ ENDP ; std::_Alloc_construct_ptr<std::allocator<std::_Tree_node<std::pair<std::basic_string<char,std::char_traits<char>,std::allocator<char> > const ,std::vector<std::basic_string<char,std::char_traits<char>,std::allocator<char> >,std::allocator<std::basic_string<char,std::char_traits<char>,std::allocator<char> > > > >,void *> > >::~_Alloc_construct_ptr<std::allocator<std::_Tree_node<std::pair<std::basic_string<char,std::char_traits<char>,std::allocator<char> > const ,std::vector<std::basic_string<char,std::char_traits<char>,std::allocator<char> >,std::allocator<std::basic_string<char,std::char_traits<char>,std::allocator<char> > > > >,void *> > >
_TEXT	ENDS
; Function compile flags: /Ogtp
; File D:\Program Files\Microsoft Visual Studio\2022\Community\VC\Tools\MSVC\14.43.34808\include\xtree
; File D:\Program Files\Microsoft Visual Studio\2022\Community\VC\Tools\MSVC\14.43.34808\include\type_traits
; File D:\Program Files\Microsoft Visual Studio\2022\Community\VC\Tools\MSVC\14.43.34808\include\xtree
;	COMDAT ??$_Find_lower_bound@V?$basic_string@DU?$char_traits@D@std@@V?$allocator@D@2@@std@@@?$_Tree@V?$_Tmap_traits@V?$basic_string@DU?$char_traits@D@std@@V?$allocator@D@2@@std@@V?$vector@V?$basic_string@DU?$char_traits@D@std@@V?$allocator@D@2@@std@@V?$allocator@V?$basic_string@DU?$char_traits@D@std@@V?$allocator@D@2@@std@@@2@@2@U?$less@V?$basic_string@DU?$char_traits@D@std@@V?$allocator@D@2@@std@@@2@V?$allocator@U?$pair@$$CBV?$basic_string@DU?$char_traits@D@std@@V?$allocator@D@2@@std@@V?$vector@V?$basic_string@DU?$char_traits@D@std@@V?$allocator@D@2@@std@@V?$allocator@V?$basic_string@DU?$char_traits@D@std@@V?$allocator@D@2@@std@@@2@@2@@std@@@2@$0A@@std@@@std@@IBE?AU?$_Tree_find_result@PAU?$_Tree_node@U?$pair@$$CBV?$basic_string@DU?$char_traits@D@std@@V?$allocator@D@2@@std@@V?$vector@V?$basic_string@DU?$char_traits@D@std@@V?$allocator@D@2@@std@@V?$allocator@V?$basic_string@DU?$char_traits@D@std@@V?$allocator@D@2@@std@@@2@@2@@std@@PAX@std@@@1@ABV?$basic_string@DU?$char_traits@D@std@@V?$allocator@D@2@@1@@Z
_TEXT	SEGMENT
___$ReturnUdt$ = 8					; size = 4
__Keyval$ = 12						; size = 4
??$_Find_lower_bound@V?$basic_string@DU?$char_traits@D@std@@V?$allocator@D@2@@std@@@?$_Tree@V?$_Tmap_traits@V?$basic_string@DU?$char_traits@D@std@@V?$allocator@D@2@@std@@V?$vector@V?$basic_string@DU?$char_traits@D@std@@V?$allocator@D@2@@std@@V?$allocator@V?$basic_string@DU?$char_traits@D@std@@V?$allocator@D@2@@std@@@2@@2@U?$less@V?$basic_string@DU?$char_traits@D@std@@V?$allocator@D@2@@std@@@2@V?$allocator@U?$pair@$$CBV?$basic_string@DU?$char_traits@D@std@@V?$allocator@D@2@@std@@V?$vector@V?$basic_string@DU?$char_traits@D@std@@V?$allocator@D@2@@std@@V?$allocator@V?$basic_string@DU?$char_traits@D@std@@V?$allocator@D@2@@std@@@2@@2@@std@@@2@$0A@@std@@@std@@IBE?AU?$_Tree_find_result@PAU?$_Tree_node@U?$pair@$$CBV?$basic_string@DU?$char_traits@D@std@@V?$allocator@D@2@@std@@V?$vector@V?$basic_string@DU?$char_traits@D@std@@V?$allocator@D@2@@std@@V?$allocator@V?$basic_string@DU?$char_traits@D@std@@V?$allocator@D@2@@std@@@2@@2@@std@@PAX@std@@@1@ABV?$basic_string@DU?$char_traits@D@std@@V?$allocator@D@2@@1@@Z PROC ; std::_Tree<std::_Tmap_traits<std::basic_string<char,std::char_traits<char>,std::allocator<char> >,std::vector<std::basic_string<char,std::char_traits<char>,std::allocator<char> >,std::allocator<std::basic_string<char,std::char_traits<char>,std::allocator<char> > > >,std::less<std::basic_string<char,std::char_traits<char>,std::allocator<char> > >,std::allocator<std::pair<std::basic_string<char,std::char_traits<char>,std::allocator<char> > const ,std::vector<std::basic_string<char,std::char_traits<char>,std::allocator<char> >,std::allocator<std::basic_string<char,std::char_traits<char>,std::allocator<char> > > > > >,0> >::_Find_lower_bound<std::basic_string<char,std::char_traits<char>,std::allocator<char> > >, COMDAT
; _this$ = ecx

; 1618 :     _Tree_find_result<_Nodeptr> _Find_lower_bound(const _Keyty& _Keyval) const {

  00000	55		 push	 ebp
  00001	8b ec		 mov	 ebp, esp

; 1619 :         const auto _Scary = _Get_scary();
; 1620 :         _Tree_find_result<_Nodeptr> _Result{{_Scary->_Myhead->_Parent, _Tree_child::_Right}, _Scary->_Myhead};

  00003	8b 01		 mov	 eax, DWORD PTR [ecx]
  00005	56		 push	 esi
  00006	57		 push	 edi
  00007	8b 7d 08	 mov	 edi, DWORD PTR ___$ReturnUdt$[ebp]
  0000a	8b 70 04	 mov	 esi, DWORD PTR [eax+4]
  0000d	89 37		 mov	 DWORD PTR [edi], esi

; 1621 :         _Nodeptr _Trynode = _Result._Location._Parent;
; 1622 :         while (!_Trynode->_Isnil) {

  0000f	80 7e 0d 00	 cmp	 BYTE PTR [esi+13], 0
  00013	c7 47 04 00 00
	00 00		 mov	 DWORD PTR [edi+4], 0
  0001a	89 47 08	 mov	 DWORD PTR [edi+8], eax
  0001d	75 32		 jne	 SHORT $LN13@Find_lower
  0001f	53		 push	 ebx
  00020	8b 5d 0c	 mov	 ebx, DWORD PTR __Keyval$[ebp]
$LL2@Find_lower:

; 1624 :             if (_DEBUG_LT_PRED(_Getcomp(), _Traits::_Kfn(_Trynode->_Myval), _Keyval)) {

  00023	8d 46 10	 lea	 eax, DWORD PTR [esi+16]
  00026	89 37		 mov	 DWORD PTR [edi], esi
; File D:\Program Files\Microsoft Visual Studio\2022\Community\VC\Tools\MSVC\14.43.34808\include\type_traits

; 2412 :         return _Left < _Right;

  00028	53		 push	 ebx
  00029	50		 push	 eax
  0002a	e8 00 00 00 00	 call	 ??$?MDU?$char_traits@D@std@@V?$allocator@D@1@@std@@YA_NABV?$basic_string@DU?$char_traits@D@std@@V?$allocator@D@2@@0@0@Z ; std::operator<<char,std::char_traits<char>,std::allocator<char> >
  0002f	83 c4 08	 add	 esp, 8
; File D:\Program Files\Microsoft Visual Studio\2022\Community\VC\Tools\MSVC\14.43.34808\include\xtree

; 1624 :             if (_DEBUG_LT_PRED(_Getcomp(), _Traits::_Kfn(_Trynode->_Myval), _Keyval)) {

  00032	84 c0		 test	 al, al
  00034	74 07		 je	 SHORT $LN4@Find_lower

; 1625 :                 _Result._Location._Child = _Tree_child::_Right;
; 1626 :                 _Trynode                 = _Trynode->_Right;

  00036	8b 76 08	 mov	 esi, DWORD PTR [esi+8]
  00039	33 c0		 xor	 eax, eax

; 1627 :             } else {

  0003b	eb 0a		 jmp	 SHORT $LN5@Find_lower
$LN4@Find_lower:

; 1628 :                 _Result._Location._Child = _Tree_child::_Left;
; 1629 :                 _Result._Bound           = _Trynode;

  0003d	89 77 08	 mov	 DWORD PTR [edi+8], esi

; 1630 :                 _Trynode                 = _Trynode->_Left;

  00040	b8 01 00 00 00	 mov	 eax, 1
  00045	8b 36		 mov	 esi, DWORD PTR [esi]
$LN5@Find_lower:

; 1621 :         _Nodeptr _Trynode = _Result._Location._Parent;
; 1622 :         while (!_Trynode->_Isnil) {

  00047	89 47 04	 mov	 DWORD PTR [edi+4], eax
  0004a	80 7e 0d 00	 cmp	 BYTE PTR [esi+13], 0
  0004e	74 d3		 je	 SHORT $LL2@Find_lower
  00050	5b		 pop	 ebx
$LN13@Find_lower:

; 1631 :             }
; 1632 :         }
; 1633 : 
; 1634 :         return _Result;
; 1635 :     }

  00051	8b c7		 mov	 eax, edi
  00053	5f		 pop	 edi
  00054	5e		 pop	 esi
  00055	5d		 pop	 ebp
  00056	c2 08 00	 ret	 8
??$_Find_lower_bound@V?$basic_string@DU?$char_traits@D@std@@V?$allocator@D@2@@std@@@?$_Tree@V?$_Tmap_traits@V?$basic_string@DU?$char_traits@D@std@@V?$allocator@D@2@@std@@V?$vector@V?$basic_string@DU?$char_traits@D@std@@V?$allocator@D@2@@std@@V?$allocator@V?$basic_string@DU?$char_traits@D@std@@V?$allocator@D@2@@std@@@2@@2@U?$less@V?$basic_string@DU?$char_traits@D@std@@V?$allocator@D@2@@std@@@2@V?$allocator@U?$pair@$$CBV?$basic_string@DU?$char_traits@D@std@@V?$allocator@D@2@@std@@V?$vector@V?$basic_string@DU?$char_traits@D@std@@V?$allocator@D@2@@std@@V?$allocator@V?$basic_string@DU?$char_traits@D@std@@V?$allocator@D@2@@std@@@2@@2@@std@@@2@$0A@@std@@@std@@IBE?AU?$_Tree_find_result@PAU?$_Tree_node@U?$pair@$$CBV?$basic_string@DU?$char_traits@D@std@@V?$allocator@D@2@@std@@V?$vector@V?$basic_string@DU?$char_traits@D@std@@V?$allocator@D@2@@std@@V?$allocator@V?$basic_string@DU?$char_traits@D@std@@V?$allocator@D@2@@std@@@2@@2@@std@@PAX@std@@@1@ABV?$basic_string@DU?$char_traits@D@std@@V?$allocator@D@2@@1@@Z ENDP ; std::_Tree<std::_Tmap_traits<std::basic_string<char,std::char_traits<char>,std::allocator<char> >,std::vector<std::basic_string<char,std::char_traits<char>,std::allocator<char> >,std::allocator<std::basic_string<char,std::char_traits<char>,std::allocator<char> > > >,std::less<std::basic_string<char,std::char_traits<char>,std::allocator<char> > >,std::allocator<std::pair<std::basic_string<char,std::char_traits<char>,std::allocator<char> > const ,std::vector<std::basic_string<char,std::char_traits<char>,std::allocator<char> >,std::allocator<std::basic_string<char,std::char_traits<char>,std::allocator<char> > > > > >,0> >::_Find_lower_bound<std::basic_string<char,std::char_traits<char>,std::allocator<char> > >
_TEXT	ENDS
; Function compile flags: /Ogtp
; File D:\Program Files\Microsoft Visual Studio\2022\Community\VC\Tools\MSVC\14.43.34808\include\vector
; File D:\Program Files\Microsoft Visual Studio\2022\Community\VC\Tools\MSVC\14.43.34808\include\xmemory
; File D:\Program Files\Microsoft Visual Studio\2022\Community\VC\Tools\MSVC\14.43.34808\include\vector
; File D:\Program Files\Microsoft Visual Studio\2022\Community\VC\Tools\MSVC\14.43.34808\include\xmemory
; File D:\Program Files\Microsoft Visual Studio\2022\Community\VC\Tools\MSVC\14.43.34808\include\vector
; File D:\Program Files\Microsoft Visual Studio\2022\Community\VC\Tools\MSVC\14.43.34808\include\xmemory
; File D:\Program Files\Microsoft Visual Studio\2022\Community\VC\Tools\MSVC\14.43.34808\include\vector
;	COMDAT ??$_Resize@U_Value_init_tag@std@@@?$vector@USTerrainTexture@@V?$allocator@USTerrainTexture@@@std@@@std@@AAEXIABU_Value_init_tag@1@@Z
_TEXT	SEGMENT
__Guard$2 = -36						; size = 20
__Oldsize$1$ = -16					; size = 4
__$EHRec$ = -12						; size = 12
__Newsize$ = 8						; size = 4
$T3 = 8							; size = 4
__Val$ = 12						; size = 4
??$_Resize@U_Value_init_tag@std@@@?$vector@USTerrainTexture@@V?$allocator@USTerrainTexture@@@std@@@std@@AAEXIABU_Value_init_tag@1@@Z PROC ; std::vector<STerrainTexture,std::allocator<STerrainTexture> >::_Resize<std::_Value_init_tag>, COMDAT
; _this$ = ecx

; 1574 :     _CONSTEXPR20 void _Resize(const size_type _Newsize, const _Ty2& _Val) {

  00000	55		 push	 ebp
  00001	8b ec		 mov	 ebp, esp
  00003	6a ff		 push	 -1
  00005	68 00 00 00 00	 push	 __ehhandler$??$_Resize@U_Value_init_tag@std@@@?$vector@USTerrainTexture@@V?$allocator@USTerrainTexture@@@std@@@std@@AAEXIABU_Value_init_tag@1@@Z
  0000a	64 a1 00 00 00
	00		 mov	 eax, DWORD PTR fs:0
  00010	50		 push	 eax
  00011	83 ec 18	 sub	 esp, 24			; 00000018H
  00014	53		 push	 ebx
  00015	56		 push	 esi
  00016	57		 push	 edi
  00017	a1 00 00 00 00	 mov	 eax, DWORD PTR ___security_cookie
  0001c	33 c5		 xor	 eax, ebp
  0001e	50		 push	 eax
  0001f	8d 45 f4	 lea	 eax, DWORD PTR __$EHRec$[ebp]
  00022	64 a3 00 00 00
	00		 mov	 DWORD PTR fs:0, eax
  00028	8b f9		 mov	 edi, ecx

; 1575 :         // trim or append elements, provide strong guarantee
; 1576 :         auto& _Al           = _Getal();
; 1577 :         auto& _My_data      = _Mypair._Myval2;
; 1578 :         pointer& _Myfirst   = _My_data._Myfirst;
; 1579 :         pointer& _Mylast    = _My_data._Mylast;
; 1580 :         const auto _Oldsize = static_cast<size_type>(_Mylast - _Myfirst);

  0002a	8b 4f 04	 mov	 ecx, DWORD PTR [edi+4]
  0002d	b8 d3 20 0d d2	 mov	 eax, -770891565		; d20d20d3H
  00032	8b f1		 mov	 esi, ecx
  00034	2b 37		 sub	 esi, DWORD PTR [edi]
  00036	f7 ee		 imul	 esi
  00038	03 d6		 add	 edx, esi

; 1581 :         if (_Newsize < _Oldsize) { // trim

  0003a	8b 75 08	 mov	 esi, DWORD PTR __Newsize$[ebp]
  0003d	c1 fa 07	 sar	 edx, 7
  00040	8b da		 mov	 ebx, edx
  00042	c1 eb 1f	 shr	 ebx, 31			; 0000001fH
  00045	03 da		 add	 ebx, edx
  00047	89 5d f0	 mov	 DWORD PTR __Oldsize$1$[ebp], ebx
  0004a	3b f3		 cmp	 esi, ebx
  0004c	73 18		 jae	 SHORT $LN2@Resize

; 1582 :             const pointer _Newlast = _Myfirst + _Newsize;

  0004e	69 f6 9c 00 00
	00		 imul	 esi, esi, 156

; 1583 :             _Orphan_range(_Newlast, _Mylast);
; 1584 :             _Destroy_range(_Newlast, _Mylast, _Al);

  00054	57		 push	 edi
  00055	51		 push	 ecx
  00056	03 37		 add	 esi, DWORD PTR [edi]
  00058	56		 push	 esi
  00059	e8 00 00 00 00	 call	 ??$_Destroy_range@V?$allocator@USTerrainTexture@@@std@@@std@@YAXPAUSTerrainTexture@@QAU1@AAV?$allocator@USTerrainTexture@@@0@@Z ; std::_Destroy_range<std::allocator<STerrainTexture> >

; 1585 :             _ASAN_VECTOR_MODIFY(static_cast<difference_type>(_Newsize - _Oldsize));
; 1586 :             _Mylast = _Newlast;

  0005e	89 77 04	 mov	 DWORD PTR [edi+4], esi

; 1587 :             return;

  00061	e9 0f 01 00 00	 jmp	 $LN37@Resize
$LN2@Resize:

; 1588 :         }
; 1589 : 
; 1590 :         if (_Newsize > _Oldsize) { // append

  00066	0f 86 0c 01 00
	00		 jbe	 $LN3@Resize

; 1591 :             const auto _Oldcapacity = static_cast<size_type>(_My_data._Myend - _Myfirst);

  0006c	8b 4f 08	 mov	 ecx, DWORD PTR [edi+8]
  0006f	b8 d3 20 0d d2	 mov	 eax, -770891565		; d20d20d3H
  00074	2b 0f		 sub	 ecx, DWORD PTR [edi]
  00076	f7 e9		 imul	 ecx
  00078	03 d1		 add	 edx, ecx
  0007a	c1 fa 07	 sar	 edx, 7
  0007d	8b ca		 mov	 ecx, edx
  0007f	c1 e9 1f	 shr	 ecx, 31			; 0000001fH
  00082	03 ca		 add	 ecx, edx

; 1592 :             if (_Newsize > _Oldcapacity) { // reallocate

  00084	3b f1		 cmp	 esi, ecx
  00086	0f 86 da 00 00
	00		 jbe	 $LN4@Resize

; 1538 :         if (_Newsize > max_size()) {

  0008c	81 fe 41 1a a4
	01		 cmp	 esi, 27531841		; 01a41a41H
  00092	0f 87 f4 00 00
	00		 ja	 $LN41@Resize

; 1996 :         if (_Oldcapacity > _Max - _Oldcapacity / 2) {

  00098	8b d1		 mov	 edx, ecx
  0009a	b8 41 1a a4 01	 mov	 eax, 27531841		; 01a41a41H
  0009f	d1 ea		 shr	 edx, 1
  000a1	2b c2		 sub	 eax, edx
  000a3	3b c8		 cmp	 ecx, eax
  000a5	76 12		 jbe	 SHORT $LN11@Resize

; 1997 :             return _Max; // geometric growth would overflow

  000a7	b8 9c ff ff ff	 mov	 eax, -100		; ffffff9cH
  000ac	bb 41 1a a4 01	 mov	 ebx, 27531841		; 01a41a41H
; File D:\Program Files\Microsoft Visual Studio\2022\Community\VC\Tools\MSVC\14.43.34808\include\xmemory

; 253  :             return _Allocate_manually_vector_aligned<_Traits>(_Bytes);

  000b1	50		 push	 eax
  000b2	e8 00 00 00 00	 call	 ??$_Allocate_manually_vector_aligned@U_Default_allocate_traits@std@@@std@@YAPAXI@Z ; std::_Allocate_manually_vector_aligned<std::_Default_allocate_traits>
  000b7	eb 38		 jmp	 SHORT $LN39@Resize
$LN11@Resize:
; File D:\Program Files\Microsoft Visual Studio\2022\Community\VC\Tools\MSVC\14.43.34808\include\vector

; 2000 :         const size_type _Geometric = _Oldcapacity + _Oldcapacity / 2;

  000b9	8d 1c 0a	 lea	 ebx, DWORD PTR [edx+ecx]

; 2001 : 
; 2002 :         if (_Geometric < _Newsize) {

  000bc	3b de		 cmp	 ebx, esi
  000be	73 0e		 jae	 SHORT $LN12@Resize

; 2003 :             return _Newsize; // geometric growth would be insufficient

  000c0	8b de		 mov	 ebx, esi
$LN22@Resize:
; File D:\Program Files\Microsoft Visual Studio\2022\Community\VC\Tools\MSVC\14.43.34808\include\xmemory

; 122  :     return _Count * _Ty_size;

  000c2	69 c3 9c 00 00
	00		 imul	 eax, ebx, 156

; 227  :     if (_Bytes == 0) {

  000c8	85 c0		 test	 eax, eax
  000ca	75 10		 jne	 SHORT $LN26@Resize

; 228  :         return nullptr;

  000cc	eb 26		 jmp	 SHORT $LN38@Resize
$LN12@Resize:

; 117  :         if (_Count > _Max_possible) {

  000ce	81 fb 41 1a a4
	01		 cmp	 ebx, 27531841		; 01a41a41H
  000d4	0f 87 b7 00 00
	00		 ja	 $LN42@Resize
  000da	eb e6		 jmp	 SHORT $LN22@Resize
$LN26@Resize:

; 251  :         if (_Bytes >= _Big_allocation_threshold) {

  000dc	3d 00 10 00 00	 cmp	 eax, 4096		; 00001000H
  000e1	72 08		 jb	 SHORT $LN27@Resize

; 253  :             return _Allocate_manually_vector_aligned<_Traits>(_Bytes);

  000e3	50		 push	 eax
  000e4	e8 00 00 00 00	 call	 ??$_Allocate_manually_vector_aligned@U_Default_allocate_traits@std@@@std@@YAPAXI@Z ; std::_Allocate_manually_vector_aligned<std::_Default_allocate_traits>
  000e9	eb 06		 jmp	 SHORT $LN39@Resize
$LN27@Resize:

; 136  :         return ::operator new(_Bytes);

  000eb	50		 push	 eax
  000ec	e8 00 00 00 00	 call	 ??2@YAPAXI@Z		; operator new
$LN39@Resize:
; File D:\Program Files\Microsoft Visual Studio\2022\Community\VC\Tools\MSVC\14.43.34808\include\vector

; 1551 :         const pointer _Appended_first = _Newvec + _Oldsize;

  000f1	83 c4 04	 add	 esp, 4
$LN38@Resize:
  000f4	69 4d f0 9c 00
	00 00		 imul	 ecx, DWORD PTR __Oldsize$1$[ebp], 156
  000fb	89 45 08	 mov	 DWORD PTR $T3[ebp], eax

; 1552 : 
; 1553 :         _Reallocation_guard _Guard{_Al, _Newvec, _Newcapacity, _Appended_first, _Appended_first};

  000fe	89 7d dc	 mov	 DWORD PTR __Guard$2[ebp], edi
  00101	89 45 e0	 mov	 DWORD PTR __Guard$2[ebp+4], eax
  00104	89 5d e4	 mov	 DWORD PTR __Guard$2[ebp+8], ebx
  00107	03 c8		 add	 ecx, eax
  00109	89 4d e8	 mov	 DWORD PTR __Guard$2[ebp+12], ecx
  0010c	89 4d ec	 mov	 DWORD PTR __Guard$2[ebp+16], ecx

; 1554 :         auto& _Appended_last = _Guard._Constructed_last;
; 1555 : 
; 1556 :         if constexpr (is_same_v<_Ty2, _Ty>) {
; 1557 :             _Appended_last = _Uninitialized_fill_n(_Appended_first, _Newsize - _Oldsize, _Val, _Al);
; 1558 :         } else {
; 1559 :             _STL_INTERNAL_STATIC_ASSERT(is_same_v<_Ty2, _Value_init_tag>);
; 1560 :             _Appended_last = _Uninitialized_value_construct_n(_Appended_first, _Newsize - _Oldsize, _Al);

  0010f	8b c6		 mov	 eax, esi
  00111	c7 45 fc 00 00
	00 00		 mov	 DWORD PTR __$EHRec$[ebp+8], 0
  00118	2b 45 f0	 sub	 eax, DWORD PTR __Oldsize$1$[ebp]
  0011b	57		 push	 edi
  0011c	50		 push	 eax
  0011d	51		 push	 ecx
  0011e	e8 00 00 00 00	 call	 ??$_Uninitialized_value_construct_n@V?$allocator@USTerrainTexture@@@std@@@std@@YAPAUSTerrainTexture@@PAU1@IAAV?$allocator@USTerrainTexture@@@0@@Z ; std::_Uninitialized_value_construct_n<std::allocator<STerrainTexture> >

; 1561 :         }
; 1562 : 
; 1563 :         if constexpr (is_nothrow_move_constructible_v<_Ty> || !is_copy_constructible_v<_Ty>) {
; 1564 :             _Uninitialized_move(_Myfirst, _Mylast, _Newvec, _Al);
; 1565 :         } else {
; 1566 :             _Uninitialized_copy(_Myfirst, _Mylast, _Newvec, _Al);

  00123	57		 push	 edi
  00124	ff 75 08	 push	 DWORD PTR $T3[ebp]
  00127	89 45 ec	 mov	 DWORD PTR __Guard$2[ebp+16], eax
  0012a	ff 77 04	 push	 DWORD PTR [edi+4]
  0012d	ff 37		 push	 DWORD PTR [edi]
  0012f	e8 00 00 00 00	 call	 ??$_Uninitialized_copy@PAUSTerrainTexture@@PAU1@V?$allocator@USTerrainTexture@@@std@@@std@@YAPAUSTerrainTexture@@PAU1@00AAV?$allocator@USTerrainTexture@@@0@@Z ; std::_Uninitialized_copy<STerrainTexture *,STerrainTexture *,std::allocator<STerrainTexture> >
  00134	83 c4 1c	 add	 esp, 28			; 0000001cH

; 1567 :         }
; 1568 : 
; 1569 :         _Guard._New_begin = nullptr;

  00137	c7 45 e0 00 00
	00 00		 mov	 DWORD PTR __Guard$2[ebp+4], 0

; 1570 :         _Change_array(_Newvec, _Newsize, _Newcapacity);

  0013e	8b cf		 mov	 ecx, edi
  00140	53		 push	 ebx
  00141	56		 push	 esi
  00142	ff 75 08	 push	 DWORD PTR $T3[ebp]
  00145	e8 00 00 00 00	 call	 ?_Change_array@?$vector@USTerrainTexture@@V?$allocator@USTerrainTexture@@@std@@@std@@AAEXQAUSTerrainTexture@@II@Z ; std::vector<STerrainTexture,std::allocator<STerrainTexture> >::_Change_array

; 1571 :     }

  0014a	8d 4d dc	 lea	 ecx, DWORD PTR __Guard$2[ebp]
  0014d	e8 00 00 00 00	 call	 ??1_Reallocation_guard@?$vector@USTerrainTexture@@V?$allocator@USTerrainTexture@@@std@@@std@@QAE@XZ ; std::vector<STerrainTexture,std::allocator<STerrainTexture> >::_Reallocation_guard::~_Reallocation_guard

; 1610 :     }

  00152	8b 4d f4	 mov	 ecx, DWORD PTR __$EHRec$[ebp]
  00155	64 89 0d 00 00
	00 00		 mov	 DWORD PTR fs:0, ecx
  0015c	59		 pop	 ecx
  0015d	5f		 pop	 edi
  0015e	5e		 pop	 esi
  0015f	5b		 pop	 ebx
  00160	8b e5		 mov	 esp, ebp
  00162	5d		 pop	 ebp
  00163	c2 08 00	 ret	 8
$LN4@Resize:

; 1593 :                 _Resize_reallocate(_Newsize, _Val);
; 1594 :                 return;
; 1595 :             }
; 1596 : 
; 1597 :             _ASAN_VECTOR_EXTEND_GUARD(_Newsize);
; 1598 :             const pointer _Oldlast = _Mylast;
; 1599 :             if constexpr (is_same_v<_Ty2, _Ty>) {
; 1600 :                 _Mylast = _Uninitialized_fill_n(_Oldlast, _Newsize - _Oldsize, _Val, _Al);
; 1601 :             } else {
; 1602 :                 _STL_INTERNAL_STATIC_ASSERT(is_same_v<_Ty2, _Value_init_tag>);
; 1603 :                 _Mylast = _Uninitialized_value_construct_n(_Oldlast, _Newsize - _Oldsize, _Al);

  00166	57		 push	 edi
  00167	2b f3		 sub	 esi, ebx
  00169	56		 push	 esi
  0016a	ff 77 04	 push	 DWORD PTR [edi+4]
  0016d	e8 00 00 00 00	 call	 ??$_Uninitialized_value_construct_n@V?$allocator@USTerrainTexture@@@std@@@std@@YAPAUSTerrainTexture@@PAU1@IAAV?$allocator@USTerrainTexture@@@0@@Z ; std::_Uninitialized_value_construct_n<std::allocator<STerrainTexture> >
  00172	89 47 04	 mov	 DWORD PTR [edi+4], eax
$LN37@Resize:

; 1610 :     }

  00175	83 c4 0c	 add	 esp, 12			; 0000000cH
$LN3@Resize:
  00178	8b 4d f4	 mov	 ecx, DWORD PTR __$EHRec$[ebp]
  0017b	64 89 0d 00 00
	00 00		 mov	 DWORD PTR fs:0, ecx
  00182	59		 pop	 ecx
  00183	5f		 pop	 edi
  00184	5e		 pop	 esi
  00185	5b		 pop	 ebx
  00186	8b e5		 mov	 esp, ebp
  00188	5d		 pop	 ebp
  00189	c2 08 00	 ret	 8
$LN41@Resize:

; 1539 :             _Xlength();

  0018c	e8 00 00 00 00	 call	 ?_Xlength@?$vector@USTerrainTexture@@V?$allocator@USTerrainTexture@@@std@@@std@@CAXXZ ; std::vector<STerrainTexture,std::allocator<STerrainTexture> >::_Xlength
$LN42@Resize:
; File D:\Program Files\Microsoft Visual Studio\2022\Community\VC\Tools\MSVC\14.43.34808\include\xmemory

; 118  :             _Throw_bad_array_new_length(); // multiply overflow

  00191	e8 00 00 00 00	 call	 ?_Throw_bad_array_new_length@std@@YAXXZ ; std::_Throw_bad_array_new_length
$LN36@Resize:
  00196	cc		 int	 3
_TEXT	ENDS
;	COMDAT text$x
text$x	SEGMENT
__unwindfunclet$??$_Resize@U_Value_init_tag@std@@@?$vector@USTerrainTexture@@V?$allocator@USTerrainTexture@@@std@@@std@@AAEXIABU_Value_init_tag@1@@Z$0:
  00000	8d 4d dc	 lea	 ecx, DWORD PTR __Guard$2[ebp]
  00003	e9 00 00 00 00	 jmp	 ??1_Reallocation_guard@?$vector@USTerrainTexture@@V?$allocator@USTerrainTexture@@@std@@@std@@QAE@XZ ; std::vector<STerrainTexture,std::allocator<STerrainTexture> >::_Reallocation_guard::~_Reallocation_guard
  00008	cc		 int	 3
  00009	cc		 int	 3
  0000a	cc		 int	 3
  0000b	cc		 int	 3
  0000c	cc		 int	 3
__ehhandler$??$_Resize@U_Value_init_tag@std@@@?$vector@USTerrainTexture@@V?$allocator@USTerrainTexture@@@std@@@std@@AAEXIABU_Value_init_tag@1@@Z:
  0000d	90		 npad	 1
  0000e	90		 npad	 1
  0000f	8b 54 24 08	 mov	 edx, DWORD PTR [esp+8]
  00013	8d 42 0c	 lea	 eax, DWORD PTR [edx+12]
  00016	8b 4a d8	 mov	 ecx, DWORD PTR [edx-40]
  00019	33 c8		 xor	 ecx, eax
  0001b	e8 00 00 00 00	 call	 @__security_check_cookie@4
  00020	b8 00 00 00 00	 mov	 eax, OFFSET __ehfuncinfo$??$_Resize@U_Value_init_tag@std@@@?$vector@USTerrainTexture@@V?$allocator@USTerrainTexture@@@std@@@std@@AAEXIABU_Value_init_tag@1@@Z
  00025	e9 00 00 00 00	 jmp	 ___CxxFrameHandler3
text$x	ENDS
??$_Resize@U_Value_init_tag@std@@@?$vector@USTerrainTexture@@V?$allocator@USTerrainTexture@@@std@@@std@@AAEXIABU_Value_init_tag@1@@Z ENDP ; std::vector<STerrainTexture,std::allocator<STerrainTexture> >::_Resize<std::_Value_init_tag>
; Function compile flags: /Ogtp
; File D:\Program Files\Microsoft Visual Studio\2022\Community\VC\Tools\MSVC\14.43.34808\include\xmemory
; File C:\Marty 5.5\Src-Client\Client\PRTerrainLib\TextureSet.h
; File D:\Program Files\Microsoft Visual Studio\2022\Community\VC\Tools\MSVC\14.43.34808\include\xstring
; File D:\Program Files\Microsoft Visual Studio\2022\Community\VC\Tools\MSVC\14.43.34808\include\xmemory
; File D:\Program Files\Microsoft Visual Studio\2022\Community\VC\Tools\MSVC\14.43.34808\include\xstring
; File D:\Program Files\Microsoft Visual Studio\2022\Community\VC\Tools\MSVC\14.43.34808\include\xmemory
; File D:\Program Files\Microsoft Visual Studio\2022\Community\VC\Tools\MSVC\14.43.34808\include\xstring
; File D:\Program Files\Microsoft Visual Studio\2022\Community\VC\Tools\MSVC\14.43.34808\include\xmemory
;	COMDAT ??$destroy@USTerrainTexture@@@?$_Default_allocator_traits@V?$allocator@USTerrainTexture@@@std@@@std@@SAXAAV?$allocator@USTerrainTexture@@@1@QAUSTerrainTexture@@@Z
_TEXT	SEGMENT
___formal$ = 8						; size = 4
__Ptr$ = 12						; size = 4
??$destroy@USTerrainTexture@@@?$_Default_allocator_traits@V?$allocator@USTerrainTexture@@@std@@@std@@SAXAAV?$allocator@USTerrainTexture@@@1@QAUSTerrainTexture@@@Z PROC ; std::_Default_allocator_traits<std::allocator<STerrainTexture> >::destroy<STerrainTexture>, COMDAT

; 737  :     static _CONSTEXPR20 void destroy(_Alloc&, _Uty* const _Ptr) {

  00000	55		 push	 ebp
  00001	8b ec		 mov	 ebp, esp
  00003	56		 push	 esi
; File C:\Marty 5.5\Src-Client\Client\PRTerrainLib\TextureSet.h

; 21   : 	}

  00004	8b 75 0c	 mov	 esi, DWORD PTR __Ptr$[ebp]
  00007	8d 4e 1c	 lea	 ecx, DWORD PTR [esi+28]
  0000a	e8 00 00 00 00	 call	 ??1CGraphicImageInstance@@UAE@XZ ; CGraphicImageInstance::~CGraphicImageInstance
; File D:\Program Files\Microsoft Visual Studio\2022\Community\VC\Tools\MSVC\14.43.34808\include\xstring

; 434  :         return _Myres > _Small_string_capacity;

  0000f	8b 4e 14	 mov	 ecx, DWORD PTR [esi+20]
  00012	83 f9 0f	 cmp	 ecx, 15			; 0000000fH

; 3047 :         if (_My_data._Large_mode_engaged()) {

  00015	76 27		 jbe	 SHORT $LN32@destroy
; File D:\Program Files\Microsoft Visual Studio\2022\Community\VC\Tools\MSVC\14.43.34808\include\xmemory

; 981  :         _STD _Deallocate<_New_alignof<_Ty>>(_Ptr, sizeof(_Ty) * _Count);

  00017	8b 06		 mov	 eax, DWORD PTR [esi]
; File D:\Program Files\Microsoft Visual Studio\2022\Community\VC\Tools\MSVC\14.43.34808\include\xstring

; 828  :         _Al.deallocate(_Old_ptr, _Capacity + 1); // +1 for null terminator

  00019	41		 inc	 ecx
; File D:\Program Files\Microsoft Visual Studio\2022\Community\VC\Tools\MSVC\14.43.34808\include\xmemory

; 284  :         if (_Bytes >= _Big_allocation_threshold) {

  0001a	81 f9 00 10 00
	00		 cmp	 ecx, 4096		; 00001000H
  00020	72 12		 jb	 SHORT $LN43@destroy

; 205  :     const uintptr_t _Ptr_container   = _Ptr_user[-1];

  00022	8b 50 fc	 mov	 edx, DWORD PTR [eax-4]
  00025	83 c1 23	 add	 ecx, 35			; 00000023H

; 206  : 
; 207  :     // If the following asserts, it likely means that we are performing
; 208  :     // an aligned delete on memory coming from an unaligned allocation.
; 209  :     _STL_ASSERT(_Ptr_user[-2] == _Big_allocation_sentinel, "invalid argument");
; 210  : 
; 211  :     // Extra paranoia on aligned allocation/deallocation; ensure _Ptr_container is
; 212  :     // in range [_Min_back_shift, _Non_user_size]
; 213  : #ifdef _DEBUG
; 214  :     constexpr uintptr_t _Min_back_shift = 2 * sizeof(void*);
; 215  : #else // ^^^ defined(_DEBUG) / !defined(_DEBUG) vvv
; 216  :     constexpr uintptr_t _Min_back_shift = sizeof(void*);
; 217  : #endif // ^^^ !defined(_DEBUG) ^^^
; 218  :     const uintptr_t _Back_shift = reinterpret_cast<uintptr_t>(_Ptr) - _Ptr_container;

  00028	2b c2		 sub	 eax, edx

; 219  :     _STL_VERIFY(_Back_shift >= _Min_back_shift && _Back_shift <= _Non_user_size, "invalid argument");

  0002a	83 c0 fc	 add	 eax, -4			; fffffffcH
  0002d	83 f8 1f	 cmp	 eax, 31			; 0000001fH
  00030	77 20		 ja	 SHORT $LN40@destroy

; 220  :     _Ptr = reinterpret_cast<void*>(_Ptr_container);

  00032	8b c2		 mov	 eax, edx
$LN43@destroy:

; 289  :         ::operator delete(_Ptr, _Bytes);

  00034	51		 push	 ecx
  00035	50		 push	 eax
  00036	e8 00 00 00 00	 call	 ??3@YAXPAXI@Z		; operator delete
  0003b	83 c4 08	 add	 esp, 8
$LN32@destroy:
; File D:\Program Files\Microsoft Visual Studio\2022\Community\VC\Tools\MSVC\14.43.34808\include\xstring

; 3054 :         _My_data._Mysize = 0;

  0003e	c7 46 10 00 00
	00 00		 mov	 DWORD PTR [esi+16], 0

; 3055 :         _My_data._Myres  = _Small_string_capacity;

  00045	c7 46 14 0f 00
	00 00		 mov	 DWORD PTR [esi+20], 15	; 0000000fH

; 3056 :         // the _Traits::assign is last so the codegen doesn't think the char write can alias this
; 3057 :         _Traits::assign(_My_data._Bx._Buf[0], _Elem());

  0004c	c6 06 00	 mov	 BYTE PTR [esi], 0
  0004f	5e		 pop	 esi
; File D:\Program Files\Microsoft Visual Studio\2022\Community\VC\Tools\MSVC\14.43.34808\include\xmemory

; 743  :     }

  00050	5d		 pop	 ebp
  00051	c3		 ret	 0
$LN40@destroy:

; 219  :     _STL_VERIFY(_Back_shift >= _Min_back_shift && _Back_shift <= _Non_user_size, "invalid argument");

  00052	e8 00 00 00 00	 call	 __invalid_parameter_noinfo_noreturn
$LN55@destroy:
  00057	cc		 int	 3
??$destroy@USTerrainTexture@@@?$_Default_allocator_traits@V?$allocator@USTerrainTexture@@@std@@@std@@SAXAAV?$allocator@USTerrainTexture@@@1@QAUSTerrainTexture@@@Z ENDP ; std::_Default_allocator_traits<std::allocator<STerrainTexture> >::destroy<STerrainTexture>
_TEXT	ENDS
; Function compile flags: /Ogtp
; File D:\Program Files\Microsoft Visual Studio\2022\Community\VC\Tools\MSVC\14.43.34808\include\xmemory
; File C:\Marty 5.5\Src-Client\Client\PRTerrainLib\TextureSet.h
; File D:\Program Files\Microsoft Visual Studio\2022\Community\VC\Tools\MSVC\14.43.34808\include\xstring
; File D:\Program Files\Microsoft Visual Studio\2022\Community\VC\Tools\MSVC\14.43.34808\include\xmemory
; File D:\Program Files\Microsoft Visual Studio\2022\Community\VC\Tools\MSVC\14.43.34808\include\xstring
; File D:\Program Files\Microsoft Visual Studio\2022\Community\VC\Tools\MSVC\14.43.34808\include\xmemory
; File D:\Program Files\Microsoft Visual Studio\2022\Community\VC\Tools\MSVC\14.43.34808\include\xstring
; File D:\Program Files\Microsoft Visual Studio\2022\Community\VC\Tools\MSVC\14.43.34808\include\xmemory
;	COMDAT ??$_Destroy_range@V?$allocator@USTerrainTexture@@@std@@@std@@YAXPAUSTerrainTexture@@QAU1@AAV?$allocator@USTerrainTexture@@@0@@Z
_TEXT	SEGMENT
__First$ = 8						; size = 4
__Last$ = 12						; size = 4
__Al$ = 16						; size = 4
??$_Destroy_range@V?$allocator@USTerrainTexture@@@std@@@std@@YAXPAUSTerrainTexture@@QAU1@AAV?$allocator@USTerrainTexture@@@0@@Z PROC ; std::_Destroy_range<std::allocator<STerrainTexture> >, COMDAT

; 1094 : _CONSTEXPR20 void _Destroy_range(_Alloc_ptr_t<_Alloc> _First, const _Alloc_ptr_t<_Alloc> _Last, _Alloc& _Al) noexcept {

  00000	55		 push	 ebp
  00001	8b ec		 mov	 ebp, esp
  00003	53		 push	 ebx

; 1098 :         for (; _First != _Last; ++_First) {

  00004	8b 5d 0c	 mov	 ebx, DWORD PTR __Last$[ebp]
  00007	56		 push	 esi
  00008	8b 75 08	 mov	 esi, DWORD PTR __First$[ebp]
  0000b	3b f3		 cmp	 esi, ebx
  0000d	74 5a		 je	 SHORT $LN61@Destroy_ra
  0000f	83 c6 14	 add	 esi, 20			; 00000014H
  00012	57		 push	 edi
$LL4@Destroy_ra:
; File C:\Marty 5.5\Src-Client\Client\PRTerrainLib\TextureSet.h

; 21   : 	}

  00013	8d 4e 08	 lea	 ecx, DWORD PTR [esi+8]
  00016	e8 00 00 00 00	 call	 ??1CGraphicImageInstance@@UAE@XZ ; CGraphicImageInstance::~CGraphicImageInstance
; File D:\Program Files\Microsoft Visual Studio\2022\Community\VC\Tools\MSVC\14.43.34808\include\xstring

; 434  :         return _Myres > _Small_string_capacity;

  0001b	8b 0e		 mov	 ecx, DWORD PTR [esi]
  0001d	83 f9 0f	 cmp	 ecx, 15			; 0000000fH

; 3047 :         if (_My_data._Large_mode_engaged()) {

  00020	76 28		 jbe	 SHORT $LN64@Destroy_ra
; File D:\Program Files\Microsoft Visual Studio\2022\Community\VC\Tools\MSVC\14.43.34808\include\xmemory

; 981  :         _STD _Deallocate<_New_alignof<_Ty>>(_Ptr, sizeof(_Ty) * _Count);

  00022	8b 46 ec	 mov	 eax, DWORD PTR [esi-20]
; File D:\Program Files\Microsoft Visual Studio\2022\Community\VC\Tools\MSVC\14.43.34808\include\xstring

; 828  :         _Al.deallocate(_Old_ptr, _Capacity + 1); // +1 for null terminator

  00025	41		 inc	 ecx
; File D:\Program Files\Microsoft Visual Studio\2022\Community\VC\Tools\MSVC\14.43.34808\include\xmemory

; 284  :         if (_Bytes >= _Big_allocation_threshold) {

  00026	81 f9 00 10 00
	00		 cmp	 ecx, 4096		; 00001000H
  0002c	72 12		 jb	 SHORT $LN49@Destroy_ra

; 205  :     const uintptr_t _Ptr_container   = _Ptr_user[-1];

  0002e	8b 50 fc	 mov	 edx, DWORD PTR [eax-4]
  00031	83 c1 23	 add	 ecx, 35			; 00000023H

; 206  : 
; 207  :     // If the following asserts, it likely means that we are performing
; 208  :     // an aligned delete on memory coming from an unaligned allocation.
; 209  :     _STL_ASSERT(_Ptr_user[-2] == _Big_allocation_sentinel, "invalid argument");
; 210  : 
; 211  :     // Extra paranoia on aligned allocation/deallocation; ensure _Ptr_container is
; 212  :     // in range [_Min_back_shift, _Non_user_size]
; 213  : #ifdef _DEBUG
; 214  :     constexpr uintptr_t _Min_back_shift = 2 * sizeof(void*);
; 215  : #else // ^^^ defined(_DEBUG) / !defined(_DEBUG) vvv
; 216  :     constexpr uintptr_t _Min_back_shift = sizeof(void*);
; 217  : #endif // ^^^ !defined(_DEBUG) ^^^
; 218  :     const uintptr_t _Back_shift = reinterpret_cast<uintptr_t>(_Ptr) - _Ptr_container;

  00034	2b c2		 sub	 eax, edx

; 219  :     _STL_VERIFY(_Back_shift >= _Min_back_shift && _Back_shift <= _Non_user_size, "invalid argument");

  00036	83 c0 fc	 add	 eax, -4			; fffffffcH
  00039	83 f8 1f	 cmp	 eax, 31			; 0000001fH
  0003c	77 2f		 ja	 SHORT $LN46@Destroy_ra

; 220  :     _Ptr = reinterpret_cast<void*>(_Ptr_container);

  0003e	8b c2		 mov	 eax, edx
$LN49@Destroy_ra:

; 289  :         ::operator delete(_Ptr, _Bytes);

  00040	51		 push	 ecx
  00041	50		 push	 eax
  00042	e8 00 00 00 00	 call	 ??3@YAXPAXI@Z		; operator delete
  00047	83 c4 08	 add	 esp, 8
$LN64@Destroy_ra:
; File D:\Program Files\Microsoft Visual Studio\2022\Community\VC\Tools\MSVC\14.43.34808\include\xstring

; 3054 :         _My_data._Mysize = 0;

  0004a	c7 46 fc 00 00
	00 00		 mov	 DWORD PTR [esi-4], 0

; 3055 :         _My_data._Myres  = _Small_string_capacity;

  00051	c7 06 0f 00 00
	00		 mov	 DWORD PTR [esi], 15	; 0000000fH

; 3056 :         // the _Traits::assign is last so the codegen doesn't think the char write can alias this
; 3057 :         _Traits::assign(_My_data._Bx._Buf[0], _Elem());

  00057	c6 46 ec 00	 mov	 BYTE PTR [esi-20], 0
; File D:\Program Files\Microsoft Visual Studio\2022\Community\VC\Tools\MSVC\14.43.34808\include\xmemory

; 1098 :         for (; _First != _Last; ++_First) {

  0005b	81 c6 9c 00 00
	00		 add	 esi, 156		; 0000009cH
  00061	8d 46 ec	 lea	 eax, DWORD PTR [esi-20]
  00064	3b c3		 cmp	 eax, ebx
  00066	75 ab		 jne	 SHORT $LL4@Destroy_ra
  00068	5f		 pop	 edi
$LN61@Destroy_ra:
  00069	5e		 pop	 esi

; 1099 :             allocator_traits<_Alloc>::destroy(_Al, _STD _Unfancy(_First));
; 1100 :         }
; 1101 :     }
; 1102 : }

  0006a	5b		 pop	 ebx
  0006b	5d		 pop	 ebp
  0006c	c3		 ret	 0
$LN46@Destroy_ra:

; 219  :     _STL_VERIFY(_Back_shift >= _Min_back_shift && _Back_shift <= _Non_user_size, "invalid argument");

  0006d	e8 00 00 00 00	 call	 __invalid_parameter_noinfo_noreturn
$LN70@Destroy_ra:
  00072	cc		 int	 3
??$_Destroy_range@V?$allocator@USTerrainTexture@@@std@@@std@@YAXPAUSTerrainTexture@@QAU1@AAV?$allocator@USTerrainTexture@@@0@@Z ENDP ; std::_Destroy_range<std::allocator<STerrainTexture> >
_TEXT	ENDS
; Function compile flags: /Ogtp
; File D:\Program Files\Microsoft Visual Studio\2022\Community\VC\Tools\MSVC\14.43.34808\include\xtree
; File D:\Program Files\Microsoft Visual Studio\2022\Community\VC\Tools\MSVC\14.43.34808\include\xmemory
;	COMDAT ??1?$map@V?$basic_string@DU?$char_traits@D@std@@V?$allocator@D@2@@std@@V?$vector@V?$basic_string@DU?$char_traits@D@std@@V?$allocator@D@2@@std@@V?$allocator@V?$basic_string@DU?$char_traits@D@std@@V?$allocator@D@2@@std@@@2@@2@U?$less@V?$basic_string@DU?$char_traits@D@std@@V?$allocator@D@2@@std@@@2@V?$allocator@U?$pair@$$CBV?$basic_string@DU?$char_traits@D@std@@V?$allocator@D@2@@std@@V?$vector@V?$basic_string@DU?$char_traits@D@std@@V?$allocator@D@2@@std@@V?$allocator@V?$basic_string@DU?$char_traits@D@std@@V?$allocator@D@2@@std@@@2@@2@@std@@@2@@std@@QAE@XZ
_TEXT	SEGMENT
??1?$map@V?$basic_string@DU?$char_traits@D@std@@V?$allocator@D@2@@std@@V?$vector@V?$basic_string@DU?$char_traits@D@std@@V?$allocator@D@2@@std@@V?$allocator@V?$basic_string@DU?$char_traits@D@std@@V?$allocator@D@2@@std@@@2@@2@U?$less@V?$basic_string@DU?$char_traits@D@std@@V?$allocator@D@2@@std@@@2@V?$allocator@U?$pair@$$CBV?$basic_string@DU?$char_traits@D@std@@V?$allocator@D@2@@std@@V?$vector@V?$basic_string@DU?$char_traits@D@std@@V?$allocator@D@2@@std@@V?$allocator@V?$basic_string@DU?$char_traits@D@std@@V?$allocator@D@2@@std@@@2@@2@@std@@@2@@std@@QAE@XZ PROC ; std::map<std::basic_string<char,std::char_traits<char>,std::allocator<char> >,std::vector<std::basic_string<char,std::char_traits<char>,std::allocator<char> >,std::allocator<std::basic_string<char,std::char_traits<char>,std::allocator<char> > > >,std::less<std::basic_string<char,std::char_traits<char>,std::allocator<char> > >,std::allocator<std::pair<std::basic_string<char,std::char_traits<char>,std::allocator<char> > const ,std::vector<std::basic_string<char,std::char_traits<char>,std::allocator<char> >,std::allocator<std::basic_string<char,std::char_traits<char>,std::allocator<char> > > > > > >::~map<std::basic_string<char,std::char_traits<char>,std::allocator<char> >,std::vector<std::basic_string<char,std::char_traits<char>,std::allocator<char> >,std::allocator<std::basic_string<char,std::char_traits<char>,std::allocator<char> > > >,std::less<std::basic_string<char,std::char_traits<char>,std::allocator<char> > >,std::allocator<std::pair<std::basic_string<char,std::char_traits<char>,std::allocator<char> > const ,std::vector<std::basic_string<char,std::char_traits<char>,std::allocator<char> >,std::allocator<std::basic_string<char,std::char_traits<char>,std::allocator<char> > > > > > >, COMDAT
; _this$ = ecx
; File D:\Program Files\Microsoft Visual Studio\2022\Community\VC\Tools\MSVC\14.43.34808\include\xtree

; 767  :         _Erase_tree(_Al, _Myhead->_Parent);

  00000	56		 push	 esi
  00001	8b f1		 mov	 esi, ecx
  00003	8b 06		 mov	 eax, DWORD PTR [esi]
  00005	ff 70 04	 push	 DWORD PTR [eax+4]
  00008	56		 push	 esi
  00009	e8 00 00 00 00	 call	 ??$_Erase_tree@V?$allocator@U?$_Tree_node@U?$pair@$$CBV?$basic_string@DU?$char_traits@D@std@@V?$allocator@D@2@@std@@V?$vector@V?$basic_string@DU?$char_traits@D@std@@V?$allocator@D@2@@std@@V?$allocator@V?$basic_string@DU?$char_traits@D@std@@V?$allocator@D@2@@std@@@2@@2@@std@@PAX@std@@@std@@@?$_Tree_val@U?$_Tree_simple_types@U?$pair@$$CBV?$basic_string@DU?$char_traits@D@std@@V?$allocator@D@2@@std@@V?$vector@V?$basic_string@DU?$char_traits@D@std@@V?$allocator@D@2@@std@@V?$allocator@V?$basic_string@DU?$char_traits@D@std@@V?$allocator@D@2@@std@@@2@@2@@std@@@std@@@std@@QAEXAAV?$allocator@U?$_Tree_node@U?$pair@$$CBV?$basic_string@DU?$char_traits@D@std@@V?$allocator@D@2@@std@@V?$vector@V?$basic_string@DU?$char_traits@D@std@@V?$allocator@D@2@@std@@V?$allocator@V?$basic_string@DU?$char_traits@D@std@@V?$allocator@D@2@@std@@@2@@2@@std@@PAX@std@@@1@PAU?$_Tree_node@U?$pair@$$CBV?$basic_string@DU?$char_traits@D@std@@V?$allocator@D@2@@std@@V?$vector@V?$basic_string@DU?$char_traits@D@std@@V?$allocator@D@2@@std@@V?$allocator@V?$basic_string@DU?$char_traits@D@std@@V?$allocator@D@2@@std@@@2@@2@@std@@PAX@1@@Z ; std::_Tree_val<std::_Tree_simple_types<std::pair<std::basic_string<char,std::char_traits<char>,std::allocator<char> > const ,std::vector<std::basic_string<char,std::char_traits<char>,std::allocator<char> >,std::allocator<std::basic_string<char,std::char_traits<char>,std::allocator<char> > > > > > >::_Erase_tree<std::allocator<std::_Tree_node<std::pair<std::basic_string<char,std::char_traits<char>,std::allocator<char> > const ,std::vector<std::basic_string<char,std::char_traits<char>,std::allocator<char> >,std::allocator<std::basic_string<char,std::char_traits<char>,std::allocator<char> > > > >,void *> > >
; File D:\Program Files\Microsoft Visual Studio\2022\Community\VC\Tools\MSVC\14.43.34808\include\xmemory

; 289  :         ::operator delete(_Ptr, _Bytes);

  0000e	6a 34		 push	 52			; 00000034H
  00010	ff 36		 push	 DWORD PTR [esi]
  00012	e8 00 00 00 00	 call	 ??3@YAXPAXI@Z		; operator delete
  00017	83 c4 08	 add	 esp, 8
  0001a	5e		 pop	 esi
  0001b	c3		 ret	 0
??1?$map@V?$basic_string@DU?$char_traits@D@std@@V?$allocator@D@2@@std@@V?$vector@V?$basic_string@DU?$char_traits@D@std@@V?$allocator@D@2@@std@@V?$allocator@V?$basic_string@DU?$char_traits@D@std@@V?$allocator@D@2@@std@@@2@@2@U?$less@V?$basic_string@DU?$char_traits@D@std@@V?$allocator@D@2@@std@@@2@V?$allocator@U?$pair@$$CBV?$basic_string@DU?$char_traits@D@std@@V?$allocator@D@2@@std@@V?$vector@V?$basic_string@DU?$char_traits@D@std@@V?$allocator@D@2@@std@@V?$allocator@V?$basic_string@DU?$char_traits@D@std@@V?$allocator@D@2@@std@@@2@@2@@std@@@2@@std@@QAE@XZ ENDP ; std::map<std::basic_string<char,std::char_traits<char>,std::allocator<char> >,std::vector<std::basic_string<char,std::char_traits<char>,std::allocator<char> >,std::allocator<std::basic_string<char,std::char_traits<char>,std::allocator<char> > > >,std::less<std::basic_string<char,std::char_traits<char>,std::allocator<char> > >,std::allocator<std::pair<std::basic_string<char,std::char_traits<char>,std::allocator<char> > const ,std::vector<std::basic_string<char,std::char_traits<char>,std::allocator<char> >,std::allocator<std::basic_string<char,std::char_traits<char>,std::allocator<char> > > > > > >::~map<std::basic_string<char,std::char_traits<char>,std::allocator<char> >,std::vector<std::basic_string<char,std::char_traits<char>,std::allocator<char> >,std::allocator<std::basic_string<char,std::char_traits<char>,std::allocator<char> > > >,std::less<std::basic_string<char,std::char_traits<char>,std::allocator<char> > >,std::allocator<std::pair<std::basic_string<char,std::char_traits<char>,std::allocator<char> > const ,std::vector<std::basic_string<char,std::char_traits<char>,std::allocator<char> >,std::allocator<std::basic_string<char,std::char_traits<char>,std::allocator<char> > > > > > >
_TEXT	ENDS
; Function compile flags: /Ogtp
; File D:\Program Files\Microsoft Visual Studio\2022\Community\VC\Tools\MSVC\14.43.34808\include\xtree
;	COMDAT ?_Insert_node@?$_Tree_val@U?$_Tree_simple_types@U?$pair@$$CBV?$basic_string@DU?$char_traits@D@std@@V?$allocator@D@2@@std@@V?$vector@V?$basic_string@DU?$char_traits@D@std@@V?$allocator@D@2@@std@@V?$allocator@V?$basic_string@DU?$char_traits@D@std@@V?$allocator@D@2@@std@@@2@@2@@std@@@std@@@std@@QAEPAU?$_Tree_node@U?$pair@$$CBV?$basic_string@DU?$char_traits@D@std@@V?$allocator@D@2@@std@@V?$vector@V?$basic_string@DU?$char_traits@D@std@@V?$allocator@D@2@@std@@V?$allocator@V?$basic_string@DU?$char_traits@D@std@@V?$allocator@D@2@@std@@@2@@2@@std@@PAX@2@U?$_Tree_id@PAU?$_Tree_node@U?$pair@$$CBV?$basic_string@DU?$char_traits@D@std@@V?$allocator@D@2@@std@@V?$vector@V?$basic_string@DU?$char_traits@D@std@@V?$allocator@D@2@@std@@V?$allocator@V?$basic_string@DU?$char_traits@D@std@@V?$allocator@D@2@@std@@@2@@2@@std@@PAX@std@@@2@QAU32@@Z
_TEXT	SEGMENT
__Head$1$ = -4						; size = 4
__Loc$ = 8						; size = 8
__Newnode$ = 16						; size = 4
?_Insert_node@?$_Tree_val@U?$_Tree_simple_types@U?$pair@$$CBV?$basic_string@DU?$char_traits@D@std@@V?$allocator@D@2@@std@@V?$vector@V?$basic_string@DU?$char_traits@D@std@@V?$allocator@D@2@@std@@V?$allocator@V?$basic_string@DU?$char_traits@D@std@@V?$allocator@D@2@@std@@@2@@2@@std@@@std@@@std@@QAEPAU?$_Tree_node@U?$pair@$$CBV?$basic_string@DU?$char_traits@D@std@@V?$allocator@D@2@@std@@V?$vector@V?$basic_string@DU?$char_traits@D@std@@V?$allocator@D@2@@std@@V?$allocator@V?$basic_string@DU?$char_traits@D@std@@V?$allocator@D@2@@std@@@2@@2@@std@@PAX@2@U?$_Tree_id@PAU?$_Tree_node@U?$pair@$$CBV?$basic_string@DU?$char_traits@D@std@@V?$allocator@D@2@@std@@V?$vector@V?$basic_string@DU?$char_traits@D@std@@V?$allocator@D@2@@std@@V?$allocator@V?$basic_string@DU?$char_traits@D@std@@V?$allocator@D@2@@std@@@2@@2@@std@@PAX@std@@@2@QAU32@@Z PROC ; std::_Tree_val<std::_Tree_simple_types<std::pair<std::basic_string<char,std::char_traits<char>,std::allocator<char> > const ,std::vector<std::basic_string<char,std::char_traits<char>,std::allocator<char> >,std::allocator<std::basic_string<char,std::char_traits<char>,std::allocator<char> > > > > > >::_Insert_node, COMDAT
; _this$ = ecx

; 659  :     _Nodeptr _Insert_node(const _Tree_id<_Nodeptr> _Loc, const _Nodeptr _Newnode) noexcept {

  00000	55		 push	 ebp
  00001	8b ec		 mov	 ebp, esp
  00003	51		 push	 ecx

; 660  :         ++_Mysize;
; 661  :         const auto _Head  = _Myhead;
; 662  :         _Newnode->_Parent = _Loc._Parent;

  00004	8b 55 08	 mov	 edx, DWORD PTR __Loc$[ebp]
  00007	53		 push	 ebx
  00008	8b d9		 mov	 ebx, ecx
  0000a	57		 push	 edi
  0000b	8b 7d 10	 mov	 edi, DWORD PTR __Newnode$[ebp]
  0000e	8b 03		 mov	 eax, DWORD PTR [ebx]
  00010	ff 43 04	 inc	 DWORD PTR [ebx+4]
  00013	89 45 fc	 mov	 DWORD PTR __Head$1$[ebp], eax
  00016	89 57 04	 mov	 DWORD PTR [edi+4], edx

; 663  :         if (_Loc._Parent == _Head) { // first node in tree, just set head values

  00019	3b d0		 cmp	 edx, eax
  0001b	75 16		 jne	 SHORT $LN5@Insert_nod

; 664  :             _Head->_Left     = _Newnode;

  0001d	89 38		 mov	 DWORD PTR [eax], edi

; 665  :             _Head->_Parent   = _Newnode;

  0001f	89 78 04	 mov	 DWORD PTR [eax+4], edi

; 666  :             _Head->_Right    = _Newnode;

  00022	89 78 08	 mov	 DWORD PTR [eax+8], edi

; 725  :         return _Newnode;
; 726  :     }

  00025	8b c7		 mov	 eax, edi
  00027	c6 47 0c 01	 mov	 BYTE PTR [edi+12], 1
  0002b	5f		 pop	 edi
  0002c	5b		 pop	 ebx
  0002d	8b e5		 mov	 esp, ebp
  0002f	5d		 pop	 ebp
  00030	c2 0c 00	 ret	 12			; 0000000cH
$LN5@Insert_nod:

; 667  :             _Newnode->_Color = _Black; // the root is black
; 668  :             return _Newnode;
; 669  :         }
; 670  : 
; 671  :         _STL_INTERNAL_CHECK(_Loc._Child != _Tree_child::_Unused);
; 672  :         if (_Loc._Child == _Tree_child::_Right) { // add to right of _Loc._Parent

  00033	83 7d 0c 00	 cmp	 DWORD PTR __Loc$[ebp+4], 0
  00037	75 0d		 jne	 SHORT $LN6@Insert_nod

; 673  :             _STL_INTERNAL_CHECK(_Loc._Parent->_Right->_Isnil);
; 674  :             _Loc._Parent->_Right = _Newnode;

  00039	89 7a 08	 mov	 DWORD PTR [edx+8], edi

; 675  :             if (_Loc._Parent == _Head->_Right) { // remember rightmost node

  0003c	3b 50 08	 cmp	 edx, DWORD PTR [eax+8]
  0003f	75 0d		 jne	 SHORT $LN9@Insert_nod

; 676  :                 _Head->_Right = _Newnode;

  00041	89 78 08	 mov	 DWORD PTR [eax+8], edi

; 677  :             }
; 678  :         } else { // add to left of _Loc._Parent

  00044	eb 08		 jmp	 SHORT $LN9@Insert_nod
$LN6@Insert_nod:

; 679  :             _STL_INTERNAL_CHECK(_Loc._Parent->_Left->_Isnil);
; 680  :             _Loc._Parent->_Left = _Newnode;

  00046	89 3a		 mov	 DWORD PTR [edx], edi

; 681  :             if (_Loc._Parent == _Head->_Left) { // remember leftmost node

  00048	3b 10		 cmp	 edx, DWORD PTR [eax]
  0004a	75 02		 jne	 SHORT $LN9@Insert_nod

; 682  :                 _Head->_Left = _Newnode;

  0004c	89 38		 mov	 DWORD PTR [eax], edi
$LN9@Insert_nod:

; 683  :             }
; 684  :         }
; 685  : 
; 686  :         for (_Nodeptr _Pnode = _Newnode; _Pnode->_Parent->_Color == _Red;) {

  0004e	8b 4f 04	 mov	 ecx, DWORD PTR [edi+4]
  00051	8b c7		 mov	 eax, edi
  00053	80 79 0c 00	 cmp	 BYTE PTR [ecx+12], 0
  00057	0f 85 7d 01 00
	00		 jne	 $LN3@Insert_nod
  0005d	56		 push	 esi
  0005e	66 90		 npad	 2
$LL4@Insert_nod:

; 687  :             if (_Pnode->_Parent == _Pnode->_Parent->_Parent->_Left) { // fixup red-red in left subtree

  00060	8b 50 04	 mov	 edx, DWORD PTR [eax+4]
  00063	8b 72 04	 mov	 esi, DWORD PTR [edx+4]
  00066	8b 0e		 mov	 ecx, DWORD PTR [esi]
  00068	3b d1		 cmp	 edx, ecx
  0006a	0f 85 aa 00 00
	00		 jne	 $LN10@Insert_nod

; 688  :                 const auto _Parent_sibling = _Pnode->_Parent->_Parent->_Right;

  00070	8b 4e 08	 mov	 ecx, DWORD PTR [esi+8]

; 689  :                 if (_Parent_sibling->_Color == _Red) { // parent's sibling has two red children, blacken both

  00073	80 79 0c 00	 cmp	 BYTE PTR [ecx+12], 0
  00077	0f 84 a3 00 00
	00		 je	 $LN82@Insert_nod

; 690  :                     _Pnode->_Parent->_Color          = _Black;
; 691  :                     _Parent_sibling->_Color          = _Black;
; 692  :                     _Pnode->_Parent->_Parent->_Color = _Red;
; 693  :                     _Pnode                           = _Pnode->_Parent->_Parent;
; 694  :                 } else { // parent's sibling has red and black children
; 695  :                     if (_Pnode == _Pnode->_Parent->_Right) { // rotate right child to left

  0007d	8b 72 08	 mov	 esi, DWORD PTR [edx+8]
  00080	3b c6		 cmp	 eax, esi
  00082	75 37		 jne	 SHORT $LN57@Insert_nod

; 475  :         _Wherenode->_Right = _Pnode->_Left;

  00084	8b 0e		 mov	 ecx, DWORD PTR [esi]

; 696  :                         _Pnode = _Pnode->_Parent;

  00086	8b c2		 mov	 eax, edx

; 475  :         _Wherenode->_Right = _Pnode->_Left;

  00088	89 4a 08	 mov	 DWORD PTR [edx+8], ecx

; 476  : 
; 477  :         if (!_Pnode->_Left->_Isnil) {

  0008b	8b 0e		 mov	 ecx, DWORD PTR [esi]
  0008d	80 79 0d 00	 cmp	 BYTE PTR [ecx+13], 0
  00091	75 03		 jne	 SHORT $LN21@Insert_nod

; 478  :             _Pnode->_Left->_Parent = _Wherenode;

  00093	89 41 04	 mov	 DWORD PTR [ecx+4], eax
$LN21@Insert_nod:

; 479  :         }
; 480  : 
; 481  :         _Pnode->_Parent = _Wherenode->_Parent;

  00096	8b 4a 04	 mov	 ecx, DWORD PTR [edx+4]
  00099	89 4e 04	 mov	 DWORD PTR [esi+4], ecx

; 482  : 
; 483  :         if (_Wherenode == _Myhead->_Parent) {

  0009c	8b 0b		 mov	 ecx, DWORD PTR [ebx]
  0009e	3b 41 04	 cmp	 eax, DWORD PTR [ecx+4]
  000a1	75 05		 jne	 SHORT $LN22@Insert_nod

; 484  :             _Myhead->_Parent = _Pnode;

  000a3	89 71 04	 mov	 DWORD PTR [ecx+4], esi
  000a6	eb 0e		 jmp	 SHORT $LN25@Insert_nod
$LN22@Insert_nod:

; 485  :         } else if (_Wherenode == _Wherenode->_Parent->_Left) {

  000a8	8b 4a 04	 mov	 ecx, DWORD PTR [edx+4]
  000ab	3b 01		 cmp	 eax, DWORD PTR [ecx]
  000ad	75 04		 jne	 SHORT $LN24@Insert_nod

; 486  :             _Wherenode->_Parent->_Left = _Pnode;

  000af	89 31		 mov	 DWORD PTR [ecx], esi

; 487  :         } else {

  000b1	eb 03		 jmp	 SHORT $LN25@Insert_nod
$LN24@Insert_nod:

; 488  :             _Wherenode->_Parent->_Right = _Pnode;

  000b3	89 71 08	 mov	 DWORD PTR [ecx+8], esi
$LN25@Insert_nod:

; 489  :         }
; 490  : 
; 491  :         _Pnode->_Left       = _Wherenode;

  000b6	89 06		 mov	 DWORD PTR [esi], eax

; 492  :         _Wherenode->_Parent = _Pnode;

  000b8	89 70 04	 mov	 DWORD PTR [eax+4], esi
$LN57@Insert_nod:

; 697  :                         _Lrotate(_Pnode);
; 698  :                     }
; 699  : 
; 700  :                     _Pnode->_Parent->_Color          = _Black; // propagate red up

  000bb	8b 48 04	 mov	 ecx, DWORD PTR [eax+4]
  000be	c6 41 0c 01	 mov	 BYTE PTR [ecx+12], 1

; 701  :                     _Pnode->_Parent->_Parent->_Color = _Red;

  000c2	8b 48 04	 mov	 ecx, DWORD PTR [eax+4]
  000c5	8b 49 04	 mov	 ecx, DWORD PTR [ecx+4]
  000c8	c6 41 0c 00	 mov	 BYTE PTR [ecx+12], 0

; 702  :                     _Rrotate(_Pnode->_Parent->_Parent);

  000cc	8b 48 04	 mov	 ecx, DWORD PTR [eax+4]
  000cf	8b 51 04	 mov	 edx, DWORD PTR [ecx+4]

; 496  :         _Nodeptr _Pnode   = _Wherenode->_Left;

  000d2	8b 32		 mov	 esi, DWORD PTR [edx]

; 497  :         _Wherenode->_Left = _Pnode->_Right;

  000d4	8b 4e 08	 mov	 ecx, DWORD PTR [esi+8]
  000d7	89 0a		 mov	 DWORD PTR [edx], ecx

; 498  : 
; 499  :         if (!_Pnode->_Right->_Isnil) {

  000d9	8b 4e 08	 mov	 ecx, DWORD PTR [esi+8]
  000dc	80 79 0d 00	 cmp	 BYTE PTR [ecx+13], 0
  000e0	75 03		 jne	 SHORT $LN29@Insert_nod

; 500  :             _Pnode->_Right->_Parent = _Wherenode;

  000e2	89 51 04	 mov	 DWORD PTR [ecx+4], edx
$LN29@Insert_nod:

; 501  :         }
; 502  : 
; 503  :         _Pnode->_Parent = _Wherenode->_Parent;

  000e5	8b 4a 04	 mov	 ecx, DWORD PTR [edx+4]
  000e8	89 4e 04	 mov	 DWORD PTR [esi+4], ecx

; 504  : 
; 505  :         if (_Wherenode == _Myhead->_Parent) {

  000eb	8b 0b		 mov	 ecx, DWORD PTR [ebx]
  000ed	3b 51 04	 cmp	 edx, DWORD PTR [ecx+4]
  000f0	75 0b		 jne	 SHORT $LN30@Insert_nod

; 506  :             _Myhead->_Parent = _Pnode;

  000f2	89 71 04	 mov	 DWORD PTR [ecx+4], esi

; 511  :         }
; 512  : 
; 513  :         _Pnode->_Right      = _Wherenode;

  000f5	89 56 08	 mov	 DWORD PTR [esi+8], edx

; 703  :                 }
; 704  :             } else { // fixup red-red in right subtree

  000f8	e9 cc 00 00 00	 jmp	 $LN81@Insert_nod
$LN30@Insert_nod:

; 507  :         } else if (_Wherenode == _Wherenode->_Parent->_Right) {

  000fd	8b 4a 04	 mov	 ecx, DWORD PTR [edx+4]
  00100	3b 51 08	 cmp	 edx, DWORD PTR [ecx+8]
  00103	75 0b		 jne	 SHORT $LN32@Insert_nod

; 508  :             _Wherenode->_Parent->_Right = _Pnode;

  00105	89 71 08	 mov	 DWORD PTR [ecx+8], esi

; 511  :         }
; 512  : 
; 513  :         _Pnode->_Right      = _Wherenode;

  00108	89 56 08	 mov	 DWORD PTR [esi+8], edx

; 703  :                 }
; 704  :             } else { // fixup red-red in right subtree

  0010b	e9 b9 00 00 00	 jmp	 $LN81@Insert_nod
$LN32@Insert_nod:

; 510  :             _Wherenode->_Parent->_Left = _Pnode;

  00110	89 31		 mov	 DWORD PTR [ecx], esi

; 511  :         }
; 512  : 
; 513  :         _Pnode->_Right      = _Wherenode;

  00112	89 56 08	 mov	 DWORD PTR [esi+8], edx

; 703  :                 }
; 704  :             } else { // fixup red-red in right subtree

  00115	e9 af 00 00 00	 jmp	 $LN81@Insert_nod
$LN10@Insert_nod:

; 705  :                 const auto _Parent_sibling = _Pnode->_Parent->_Parent->_Left;
; 706  :                 if (_Parent_sibling->_Color == _Red) { // parent's sibling has two red children, blacken both

  0011a	80 79 0c 00	 cmp	 BYTE PTR [ecx+12], 0
  0011e	75 1d		 jne	 SHORT $LN15@Insert_nod
$LN82@Insert_nod:

; 683  :             }
; 684  :         }
; 685  : 
; 686  :         for (_Nodeptr _Pnode = _Newnode; _Pnode->_Parent->_Color == _Red;) {

  00120	c6 42 0c 01	 mov	 BYTE PTR [edx+12], 1
  00124	c6 41 0c 01	 mov	 BYTE PTR [ecx+12], 1
  00128	8b 48 04	 mov	 ecx, DWORD PTR [eax+4]
  0012b	8b 49 04	 mov	 ecx, DWORD PTR [ecx+4]
  0012e	c6 41 0c 00	 mov	 BYTE PTR [ecx+12], 0
  00132	8b 48 04	 mov	 ecx, DWORD PTR [eax+4]
  00135	8b 41 04	 mov	 eax, DWORD PTR [ecx+4]
  00138	e9 8f 00 00 00	 jmp	 $LN2@Insert_nod
$LN15@Insert_nod:

; 707  :                     _Pnode->_Parent->_Color          = _Black;
; 708  :                     _Parent_sibling->_Color          = _Black;
; 709  :                     _Pnode->_Parent->_Parent->_Color = _Red;
; 710  :                     _Pnode                           = _Pnode->_Parent->_Parent;
; 711  :                 } else { // parent's sibling has red and black children
; 712  :                     if (_Pnode == _Pnode->_Parent->_Left) { // rotate left child to right

  0013d	8b 32		 mov	 esi, DWORD PTR [edx]
  0013f	3b c6		 cmp	 eax, esi
  00141	75 3a		 jne	 SHORT $LN42@Insert_nod

; 497  :         _Wherenode->_Left = _Pnode->_Right;

  00143	8b 4e 08	 mov	 ecx, DWORD PTR [esi+8]

; 713  :                         _Pnode = _Pnode->_Parent;

  00146	8b c2		 mov	 eax, edx

; 497  :         _Wherenode->_Left = _Pnode->_Right;

  00148	89 08		 mov	 DWORD PTR [eax], ecx

; 498  : 
; 499  :         if (!_Pnode->_Right->_Isnil) {

  0014a	8b 4e 08	 mov	 ecx, DWORD PTR [esi+8]
  0014d	80 79 0d 00	 cmp	 BYTE PTR [ecx+13], 0
  00151	75 03		 jne	 SHORT $LN37@Insert_nod

; 500  :             _Pnode->_Right->_Parent = _Wherenode;

  00153	89 41 04	 mov	 DWORD PTR [ecx+4], eax
$LN37@Insert_nod:

; 501  :         }
; 502  : 
; 503  :         _Pnode->_Parent = _Wherenode->_Parent;

  00156	8b 4a 04	 mov	 ecx, DWORD PTR [edx+4]
  00159	89 4e 04	 mov	 DWORD PTR [esi+4], ecx

; 504  : 
; 505  :         if (_Wherenode == _Myhead->_Parent) {

  0015c	8b 0b		 mov	 ecx, DWORD PTR [ebx]
  0015e	3b 41 04	 cmp	 eax, DWORD PTR [ecx+4]
  00161	75 05		 jne	 SHORT $LN38@Insert_nod

; 506  :             _Myhead->_Parent = _Pnode;

  00163	89 71 04	 mov	 DWORD PTR [ecx+4], esi
  00166	eb 0f		 jmp	 SHORT $LN41@Insert_nod
$LN38@Insert_nod:

; 507  :         } else if (_Wherenode == _Wherenode->_Parent->_Right) {

  00168	8b 4a 04	 mov	 ecx, DWORD PTR [edx+4]
  0016b	3b 41 08	 cmp	 eax, DWORD PTR [ecx+8]
  0016e	75 05		 jne	 SHORT $LN40@Insert_nod

; 508  :             _Wherenode->_Parent->_Right = _Pnode;

  00170	89 71 08	 mov	 DWORD PTR [ecx+8], esi

; 509  :         } else {

  00173	eb 02		 jmp	 SHORT $LN41@Insert_nod
$LN40@Insert_nod:

; 510  :             _Wherenode->_Parent->_Left = _Pnode;

  00175	89 31		 mov	 DWORD PTR [ecx], esi
$LN41@Insert_nod:

; 511  :         }
; 512  : 
; 513  :         _Pnode->_Right      = _Wherenode;

  00177	89 46 08	 mov	 DWORD PTR [esi+8], eax

; 514  :         _Wherenode->_Parent = _Pnode;

  0017a	89 70 04	 mov	 DWORD PTR [eax+4], esi
$LN42@Insert_nod:

; 714  :                         _Rrotate(_Pnode);
; 715  :                     }
; 716  : 
; 717  :                     _Pnode->_Parent->_Color          = _Black; // propagate red up

  0017d	8b 48 04	 mov	 ecx, DWORD PTR [eax+4]
  00180	c6 41 0c 01	 mov	 BYTE PTR [ecx+12], 1

; 718  :                     _Pnode->_Parent->_Parent->_Color = _Red;

  00184	8b 48 04	 mov	 ecx, DWORD PTR [eax+4]
  00187	8b 49 04	 mov	 ecx, DWORD PTR [ecx+4]
  0018a	c6 41 0c 00	 mov	 BYTE PTR [ecx+12], 0

; 719  :                     _Lrotate(_Pnode->_Parent->_Parent);

  0018e	8b 48 04	 mov	 ecx, DWORD PTR [eax+4]
  00191	8b 51 04	 mov	 edx, DWORD PTR [ecx+4]

; 474  :         _Nodeptr _Pnode    = _Wherenode->_Right;

  00194	8b 72 08	 mov	 esi, DWORD PTR [edx+8]

; 475  :         _Wherenode->_Right = _Pnode->_Left;

  00197	8b 0e		 mov	 ecx, DWORD PTR [esi]
  00199	89 4a 08	 mov	 DWORD PTR [edx+8], ecx

; 476  : 
; 477  :         if (!_Pnode->_Left->_Isnil) {

  0019c	8b 0e		 mov	 ecx, DWORD PTR [esi]
  0019e	80 79 0d 00	 cmp	 BYTE PTR [ecx+13], 0
  001a2	75 03		 jne	 SHORT $LN45@Insert_nod

; 478  :             _Pnode->_Left->_Parent = _Wherenode;

  001a4	89 51 04	 mov	 DWORD PTR [ecx+4], edx
$LN45@Insert_nod:

; 479  :         }
; 480  : 
; 481  :         _Pnode->_Parent = _Wherenode->_Parent;

  001a7	8b 4a 04	 mov	 ecx, DWORD PTR [edx+4]
  001aa	89 4e 04	 mov	 DWORD PTR [esi+4], ecx

; 482  : 
; 483  :         if (_Wherenode == _Myhead->_Parent) {

  001ad	8b 0b		 mov	 ecx, DWORD PTR [ebx]
  001af	3b 51 04	 cmp	 edx, DWORD PTR [ecx+4]
  001b2	75 05		 jne	 SHORT $LN46@Insert_nod

; 484  :             _Myhead->_Parent = _Pnode;

  001b4	89 71 04	 mov	 DWORD PTR [ecx+4], esi
  001b7	eb 0e		 jmp	 SHORT $LN49@Insert_nod
$LN46@Insert_nod:

; 485  :         } else if (_Wherenode == _Wherenode->_Parent->_Left) {

  001b9	8b 4a 04	 mov	 ecx, DWORD PTR [edx+4]
  001bc	3b 11		 cmp	 edx, DWORD PTR [ecx]
  001be	75 04		 jne	 SHORT $LN48@Insert_nod

; 486  :             _Wherenode->_Parent->_Left = _Pnode;

  001c0	89 31		 mov	 DWORD PTR [ecx], esi

; 487  :         } else {

  001c2	eb 03		 jmp	 SHORT $LN49@Insert_nod
$LN48@Insert_nod:

; 488  :             _Wherenode->_Parent->_Right = _Pnode;

  001c4	89 71 08	 mov	 DWORD PTR [ecx+8], esi
$LN49@Insert_nod:

; 489  :         }
; 490  : 
; 491  :         _Pnode->_Left       = _Wherenode;

  001c7	89 16		 mov	 DWORD PTR [esi], edx
$LN81@Insert_nod:

; 683  :             }
; 684  :         }
; 685  : 
; 686  :         for (_Nodeptr _Pnode = _Newnode; _Pnode->_Parent->_Color == _Red;) {

  001c9	89 72 04	 mov	 DWORD PTR [edx+4], esi
$LN2@Insert_nod:
  001cc	8b 48 04	 mov	 ecx, DWORD PTR [eax+4]
  001cf	80 79 0c 00	 cmp	 BYTE PTR [ecx+12], 0
  001d3	0f 84 87 fe ff
	ff		 je	 $LL4@Insert_nod
  001d9	5e		 pop	 esi
$LN3@Insert_nod:

; 720  :                 }
; 721  :             }
; 722  :         }
; 723  : 
; 724  :         _Head->_Parent->_Color = _Black; // root is always black

  001da	8b 45 fc	 mov	 eax, DWORD PTR __Head$1$[ebp]
  001dd	8b 40 04	 mov	 eax, DWORD PTR [eax+4]
  001e0	c6 40 0c 01	 mov	 BYTE PTR [eax+12], 1

; 725  :         return _Newnode;
; 726  :     }

  001e4	8b c7		 mov	 eax, edi
  001e6	5f		 pop	 edi
  001e7	5b		 pop	 ebx
  001e8	8b e5		 mov	 esp, ebp
  001ea	5d		 pop	 ebp
  001eb	c2 0c 00	 ret	 12			; 0000000cH
?_Insert_node@?$_Tree_val@U?$_Tree_simple_types@U?$pair@$$CBV?$basic_string@DU?$char_traits@D@std@@V?$allocator@D@2@@std@@V?$vector@V?$basic_string@DU?$char_traits@D@std@@V?$allocator@D@2@@std@@V?$allocator@V?$basic_string@DU?$char_traits@D@std@@V?$allocator@D@2@@std@@@2@@2@@std@@@std@@@std@@QAEPAU?$_Tree_node@U?$pair@$$CBV?$basic_string@DU?$char_traits@D@std@@V?$allocator@D@2@@std@@V?$vector@V?$basic_string@DU?$char_traits@D@std@@V?$allocator@D@2@@std@@V?$allocator@V?$basic_string@DU?$char_traits@D@std@@V?$allocator@D@2@@std@@@2@@2@@std@@PAX@2@U?$_Tree_id@PAU?$_Tree_node@U?$pair@$$CBV?$basic_string@DU?$char_traits@D@std@@V?$allocator@D@2@@std@@V?$vector@V?$basic_string@DU?$char_traits@D@std@@V?$allocator@D@2@@std@@V?$allocator@V?$basic_string@DU?$char_traits@D@std@@V?$allocator@D@2@@std@@@2@@2@@std@@PAX@std@@@2@QAU32@@Z ENDP ; std::_Tree_val<std::_Tree_simple_types<std::pair<std::basic_string<char,std::char_traits<char>,std::allocator<char> > const ,std::vector<std::basic_string<char,std::char_traits<char>,std::allocator<char> >,std::allocator<std::basic_string<char,std::char_traits<char>,std::allocator<char> > > > > > >::_Insert_node
_TEXT	ENDS
; Function compile flags: /Ogtp
;	COMDAT ??_GCTextureSet@@UAEPAXI@Z
_TEXT	SEGMENT
___flags$ = 8						; size = 4
??_GCTextureSet@@UAEPAXI@Z PROC				; CTextureSet::`scalar deleting destructor', COMDAT
; _this$ = ecx
  00000	55		 push	 ebp
  00001	8b ec		 mov	 ebp, esp
  00003	56		 push	 esi
  00004	8b f1		 mov	 esi, ecx
  00006	e8 00 00 00 00	 call	 ??1CTextureSet@@UAE@XZ	; CTextureSet::~CTextureSet
  0000b	f6 45 08 01	 test	 BYTE PTR ___flags$[ebp], 1
  0000f	74 0e		 je	 SHORT $LN5@scalar
  00011	68 c4 00 00 00	 push	 196			; 000000c4H
  00016	56		 push	 esi
  00017	e8 00 00 00 00	 call	 ??3@YAXPAXI@Z		; operator delete
  0001c	83 c4 08	 add	 esp, 8
$LN5@scalar:
  0001f	8b c6		 mov	 eax, esi
  00021	5e		 pop	 esi
  00022	5d		 pop	 ebp
  00023	c2 04 00	 ret	 4
??_GCTextureSet@@UAEPAXI@Z ENDP				; CTextureSet::`scalar deleting destructor'
_TEXT	ENDS
; Function compile flags: /Ogtp
; File D:\Program Files\Microsoft Visual Studio\2022\Community\VC\Tools\MSVC\14.43.34808\include\vector
;	COMDAT ?_Xlength@?$vector@USTerrainTexture@@V?$allocator@USTerrainTexture@@@std@@@std@@CAXXZ
_TEXT	SEGMENT
?_Xlength@?$vector@USTerrainTexture@@V?$allocator@USTerrainTexture@@@std@@@std@@CAXXZ PROC ; std::vector<STerrainTexture,std::allocator<STerrainTexture> >::_Xlength, COMDAT

; 2169 :         _Xlength_error("vector too long");

  00000	68 00 00 00 00	 push	 OFFSET ??_C@_0BA@FOIKENOD@vector?5too?5long@
  00005	e8 00 00 00 00	 call	 ?_Xlength_error@std@@YAXPBD@Z ; std::_Xlength_error
$LN3@Xlength:
  0000a	cc		 int	 3
?_Xlength@?$vector@USTerrainTexture@@V?$allocator@USTerrainTexture@@@std@@@std@@CAXXZ ENDP ; std::vector<STerrainTexture,std::allocator<STerrainTexture> >::_Xlength
_TEXT	ENDS
; Function compile flags: /Ogtp
; File D:\Program Files\Microsoft Visual Studio\2022\Community\VC\Tools\MSVC\14.43.34808\include\vector
; File D:\Program Files\Microsoft Visual Studio\2022\Community\VC\Tools\MSVC\14.43.34808\include\xmemory
; File D:\Program Files\Microsoft Visual Studio\2022\Community\VC\Tools\MSVC\14.43.34808\include\vector
; File D:\Program Files\Microsoft Visual Studio\2022\Community\VC\Tools\MSVC\14.43.34808\include\xmemory
; File D:\Program Files\Microsoft Visual Studio\2022\Community\VC\Tools\MSVC\14.43.34808\include\vector
;	COMDAT ?_Change_array@?$vector@USTerrainTexture@@V?$allocator@USTerrainTexture@@@std@@@std@@AAEXQAUSTerrainTexture@@II@Z
_TEXT	SEGMENT
__Newvec$ = 8						; size = 4
__Newsize$ = 12						; size = 4
__Newcapacity$ = 16					; size = 4
?_Change_array@?$vector@USTerrainTexture@@V?$allocator@USTerrainTexture@@@std@@@std@@AAEXQAUSTerrainTexture@@II@Z PROC ; std::vector<STerrainTexture,std::allocator<STerrainTexture> >::_Change_array, COMDAT
; _this$ = ecx

; 2044 :         const pointer _Newvec, const size_type _Newsize, const size_type _Newcapacity) noexcept {

  00000	55		 push	 ebp
  00001	8b ec		 mov	 ebp, esp
  00003	56		 push	 esi
  00004	8b f1		 mov	 esi, ecx

; 2045 :         // orphan all iterators, discard old array, acquire new array
; 2046 :         auto& _Al         = _Getal();
; 2047 :         auto& _My_data    = _Mypair._Myval2;
; 2048 :         pointer& _Myfirst = _My_data._Myfirst;
; 2049 :         pointer& _Mylast  = _My_data._Mylast;
; 2050 :         pointer& _Myend   = _My_data._Myend;
; 2051 : 
; 2052 :         _My_data._Orphan_all();
; 2053 : 
; 2054 :         if (_Myfirst) { // destroy and deallocate old array

  00006	8b 06		 mov	 eax, DWORD PTR [esi]
  00008	85 c0		 test	 eax, eax
  0000a	74 53		 je	 SHORT $LN10@Change_arr

; 2055 :             _STD _Destroy_range(_Myfirst, _Mylast, _Al);

  0000c	57		 push	 edi
  0000d	56		 push	 esi
  0000e	ff 76 04	 push	 DWORD PTR [esi+4]
  00011	50		 push	 eax
  00012	e8 00 00 00 00	 call	 ??$_Destroy_range@V?$allocator@USTerrainTexture@@@std@@@std@@YAXPAUSTerrainTexture@@QAU1@AAV?$allocator@USTerrainTexture@@@0@@Z ; std::_Destroy_range<std::allocator<STerrainTexture> >

; 2056 :             _ASAN_VECTOR_REMOVE;
; 2057 :             _Al.deallocate(_Myfirst, static_cast<size_type>(_Myend - _Myfirst));

  00017	8b 4e 08	 mov	 ecx, DWORD PTR [esi+8]
  0001a	b8 d3 20 0d d2	 mov	 eax, -770891565		; d20d20d3H
  0001f	8b 3e		 mov	 edi, DWORD PTR [esi]
  00021	83 c4 0c	 add	 esp, 12			; 0000000cH
  00024	2b cf		 sub	 ecx, edi
  00026	f7 e9		 imul	 ecx
  00028	03 d1		 add	 edx, ecx
  0002a	c1 fa 07	 sar	 edx, 7
  0002d	8b c2		 mov	 eax, edx
  0002f	c1 e8 1f	 shr	 eax, 31			; 0000001fH
  00032	03 c2		 add	 eax, edx
; File D:\Program Files\Microsoft Visual Studio\2022\Community\VC\Tools\MSVC\14.43.34808\include\xmemory

; 981  :         _STD _Deallocate<_New_alignof<_Ty>>(_Ptr, sizeof(_Ty) * _Count);

  00034	69 c8 9c 00 00
	00		 imul	 ecx, eax, 156

; 284  :         if (_Bytes >= _Big_allocation_threshold) {

  0003a	81 f9 00 10 00
	00		 cmp	 ecx, 4096		; 00001000H
  00040	72 12		 jb	 SHORT $LN21@Change_arr

; 205  :     const uintptr_t _Ptr_container   = _Ptr_user[-1];

  00042	8b 57 fc	 mov	 edx, DWORD PTR [edi-4]
  00045	83 c1 23	 add	 ecx, 35			; 00000023H

; 206  : 
; 207  :     // If the following asserts, it likely means that we are performing
; 208  :     // an aligned delete on memory coming from an unaligned allocation.
; 209  :     _STL_ASSERT(_Ptr_user[-2] == _Big_allocation_sentinel, "invalid argument");
; 210  : 
; 211  :     // Extra paranoia on aligned allocation/deallocation; ensure _Ptr_container is
; 212  :     // in range [_Min_back_shift, _Non_user_size]
; 213  : #ifdef _DEBUG
; 214  :     constexpr uintptr_t _Min_back_shift = 2 * sizeof(void*);
; 215  : #else // ^^^ defined(_DEBUG) / !defined(_DEBUG) vvv
; 216  :     constexpr uintptr_t _Min_back_shift = sizeof(void*);
; 217  : #endif // ^^^ !defined(_DEBUG) ^^^
; 218  :     const uintptr_t _Back_shift = reinterpret_cast<uintptr_t>(_Ptr) - _Ptr_container;

  00048	2b fa		 sub	 edi, edx

; 219  :     _STL_VERIFY(_Back_shift >= _Min_back_shift && _Back_shift <= _Non_user_size, "invalid argument");

  0004a	8d 47 fc	 lea	 eax, DWORD PTR [edi-4]
  0004d	83 f8 1f	 cmp	 eax, 31			; 0000001fH
  00050	77 2f		 ja	 SHORT $LN18@Change_arr

; 220  :     _Ptr = reinterpret_cast<void*>(_Ptr_container);

  00052	8b fa		 mov	 edi, edx
$LN21@Change_arr:

; 289  :         ::operator delete(_Ptr, _Bytes);

  00054	51		 push	 ecx
  00055	57		 push	 edi
  00056	e8 00 00 00 00	 call	 ??3@YAXPAXI@Z		; operator delete
  0005b	83 c4 08	 add	 esp, 8
  0005e	5f		 pop	 edi
$LN10@Change_arr:
; File D:\Program Files\Microsoft Visual Studio\2022\Community\VC\Tools\MSVC\14.43.34808\include\vector

; 2061 :         _Mylast  = _Newvec + _Newsize;

  0005f	69 45 0c 9c 00
	00 00		 imul	 eax, DWORD PTR __Newsize$[ebp], 156
  00066	8b 4d 08	 mov	 ecx, DWORD PTR __Newvec$[ebp]
  00069	89 0e		 mov	 DWORD PTR [esi], ecx
  0006b	03 c1		 add	 eax, ecx
  0006d	89 46 04	 mov	 DWORD PTR [esi+4], eax

; 2062 :         _Myend   = _Newvec + _Newcapacity;

  00070	69 45 10 9c 00
	00 00		 imul	 eax, DWORD PTR __Newcapacity$[ebp], 156
  00077	03 c1		 add	 eax, ecx
  00079	89 46 08	 mov	 DWORD PTR [esi+8], eax
  0007c	5e		 pop	 esi

; 2064 :     }

  0007d	5d		 pop	 ebp
  0007e	c2 0c 00	 ret	 12			; 0000000cH
$LN18@Change_arr:
; File D:\Program Files\Microsoft Visual Studio\2022\Community\VC\Tools\MSVC\14.43.34808\include\xmemory

; 219  :     _STL_VERIFY(_Back_shift >= _Min_back_shift && _Back_shift <= _Non_user_size, "invalid argument");

  00081	e8 00 00 00 00	 call	 __invalid_parameter_noinfo_noreturn
$LN28@Change_arr:
  00086	cc		 int	 3
?_Change_array@?$vector@USTerrainTexture@@V?$allocator@USTerrainTexture@@@std@@@std@@AAEXQAUSTerrainTexture@@II@Z ENDP ; std::vector<STerrainTexture,std::allocator<STerrainTexture> >::_Change_array
_TEXT	ENDS
; Function compile flags: /Ogtp
; File D:\Program Files\Microsoft Visual Studio\2022\Community\VC\Tools\MSVC\14.43.34808\include\vector
; File D:\Program Files\Microsoft Visual Studio\2022\Community\VC\Tools\MSVC\14.43.34808\include\xmemory
; File D:\Program Files\Microsoft Visual Studio\2022\Community\VC\Tools\MSVC\14.43.34808\include\vector
; File D:\Program Files\Microsoft Visual Studio\2022\Community\VC\Tools\MSVC\14.43.34808\include\xmemory
; File D:\Program Files\Microsoft Visual Studio\2022\Community\VC\Tools\MSVC\14.43.34808\include\vector
;	COMDAT ??1?$vector@USTerrainTexture@@V?$allocator@USTerrainTexture@@@std@@@std@@QAE@XZ
_TEXT	SEGMENT
??1?$vector@USTerrainTexture@@V?$allocator@USTerrainTexture@@@std@@@std@@QAE@XZ PROC ; std::vector<STerrainTexture,std::allocator<STerrainTexture> >::~vector<STerrainTexture,std::allocator<STerrainTexture> >, COMDAT
; _this$ = ecx

; 814  :     _CONSTEXPR20 ~vector() noexcept {

  00000	56		 push	 esi
  00001	8b f1		 mov	 esi, ecx

; 2075 :         if (_Myfirst) { // destroy and deallocate old array

  00003	8b 06		 mov	 eax, DWORD PTR [esi]
  00005	85 c0		 test	 eax, eax
  00007	74 67		 je	 SHORT $LN5@vector
  00009	57		 push	 edi

; 2076 :             _STD _Destroy_range(_Myfirst, _Mylast, _Al);

  0000a	56		 push	 esi
  0000b	ff 76 04	 push	 DWORD PTR [esi+4]
  0000e	50		 push	 eax
  0000f	e8 00 00 00 00	 call	 ??$_Destroy_range@V?$allocator@USTerrainTexture@@@std@@@std@@YAXPAUSTerrainTexture@@QAU1@AAV?$allocator@USTerrainTexture@@@0@@Z ; std::_Destroy_range<std::allocator<STerrainTexture> >

; 2077 :             _ASAN_VECTOR_REMOVE;
; 2078 :             _Al.deallocate(_Myfirst, static_cast<size_type>(_Myend - _Myfirst));

  00014	8b 4e 08	 mov	 ecx, DWORD PTR [esi+8]
  00017	b8 d3 20 0d d2	 mov	 eax, -770891565		; d20d20d3H
  0001c	8b 3e		 mov	 edi, DWORD PTR [esi]
  0001e	83 c4 0c	 add	 esp, 12			; 0000000cH
  00021	2b cf		 sub	 ecx, edi
  00023	f7 e9		 imul	 ecx
  00025	03 d1		 add	 edx, ecx
  00027	c1 fa 07	 sar	 edx, 7
  0002a	8b c2		 mov	 eax, edx
  0002c	c1 e8 1f	 shr	 eax, 31			; 0000001fH
  0002f	03 c2		 add	 eax, edx
; File D:\Program Files\Microsoft Visual Studio\2022\Community\VC\Tools\MSVC\14.43.34808\include\xmemory

; 981  :         _STD _Deallocate<_New_alignof<_Ty>>(_Ptr, sizeof(_Ty) * _Count);

  00031	69 c8 9c 00 00
	00		 imul	 ecx, eax, 156

; 284  :         if (_Bytes >= _Big_allocation_threshold) {

  00037	81 f9 00 10 00
	00		 cmp	 ecx, 4096		; 00001000H
  0003d	72 12		 jb	 SHORT $LN24@vector

; 205  :     const uintptr_t _Ptr_container   = _Ptr_user[-1];

  0003f	8b 57 fc	 mov	 edx, DWORD PTR [edi-4]
  00042	83 c1 23	 add	 ecx, 35			; 00000023H

; 206  : 
; 207  :     // If the following asserts, it likely means that we are performing
; 208  :     // an aligned delete on memory coming from an unaligned allocation.
; 209  :     _STL_ASSERT(_Ptr_user[-2] == _Big_allocation_sentinel, "invalid argument");
; 210  : 
; 211  :     // Extra paranoia on aligned allocation/deallocation; ensure _Ptr_container is
; 212  :     // in range [_Min_back_shift, _Non_user_size]
; 213  : #ifdef _DEBUG
; 214  :     constexpr uintptr_t _Min_back_shift = 2 * sizeof(void*);
; 215  : #else // ^^^ defined(_DEBUG) / !defined(_DEBUG) vvv
; 216  :     constexpr uintptr_t _Min_back_shift = sizeof(void*);
; 217  : #endif // ^^^ !defined(_DEBUG) ^^^
; 218  :     const uintptr_t _Back_shift = reinterpret_cast<uintptr_t>(_Ptr) - _Ptr_container;

  00045	2b fa		 sub	 edi, edx

; 219  :     _STL_VERIFY(_Back_shift >= _Min_back_shift && _Back_shift <= _Non_user_size, "invalid argument");

  00047	8d 47 fc	 lea	 eax, DWORD PTR [edi-4]
  0004a	83 f8 1f	 cmp	 eax, 31			; 0000001fH
  0004d	77 23		 ja	 SHORT $LN21@vector

; 220  :     _Ptr = reinterpret_cast<void*>(_Ptr_container);

  0004f	8b fa		 mov	 edi, edx
$LN24@vector:

; 289  :         ::operator delete(_Ptr, _Bytes);

  00051	51		 push	 ecx
  00052	57		 push	 edi
  00053	e8 00 00 00 00	 call	 ??3@YAXPAXI@Z		; operator delete
  00058	83 c4 08	 add	 esp, 8
; File D:\Program Files\Microsoft Visual Studio\2022\Community\VC\Tools\MSVC\14.43.34808\include\vector

; 2080 :             _Myfirst = nullptr;

  0005b	c7 06 00 00 00
	00		 mov	 DWORD PTR [esi], 0

; 2081 :             _Mylast  = nullptr;

  00061	c7 46 04 00 00
	00 00		 mov	 DWORD PTR [esi+4], 0

; 2082 :             _Myend   = nullptr;

  00068	c7 46 08 00 00
	00 00		 mov	 DWORD PTR [esi+8], 0
  0006f	5f		 pop	 edi
$LN5@vector:
  00070	5e		 pop	 esi

; 820  :     }

  00071	c3		 ret	 0
$LN21@vector:
; File D:\Program Files\Microsoft Visual Studio\2022\Community\VC\Tools\MSVC\14.43.34808\include\xmemory

; 219  :     _STL_VERIFY(_Back_shift >= _Min_back_shift && _Back_shift <= _Non_user_size, "invalid argument");

  00072	e8 00 00 00 00	 call	 __invalid_parameter_noinfo_noreturn
$LN32@vector:
  00077	cc		 int	 3
??1?$vector@USTerrainTexture@@V?$allocator@USTerrainTexture@@@std@@@std@@QAE@XZ ENDP ; std::vector<STerrainTexture,std::allocator<STerrainTexture> >::~vector<STerrainTexture,std::allocator<STerrainTexture> >
_TEXT	ENDS
; Function compile flags: /Ogtp
; File C:\Marty 5.5\Src-Client\Client\PRTerrainLib\TextureSet.cpp
; File D:\Program Files\Microsoft Visual Studio\2022\Community\VC\Tools\MSVC\14.43.34808\include\vector
; File C:\Marty 5.5\Src-Client\Client\PRTerrainLib\TextureSet.cpp
; File D:\Program Files\Microsoft Visual Studio\2022\Community\VC\Tools\MSVC\14.43.34808\include\vector
; File D:\Program Files\Microsoft Visual Studio\2022\Community\VC\Tools\MSVC\14.43.34808\include\xmemory
; File D:\Program Files\Microsoft Visual Studio\2022\Community\VC\Tools\MSVC\14.43.34808\include\vector
; File C:\Marty 5.5\Src-Client\Client\PRTerrainLib\TextureSet.h
; File D:\Program Files\Microsoft Visual Studio\2022\Community\VC\Tools\MSVC\14.43.34808\include\xstring
; File D:\Program Files\Microsoft Visual Studio\2022\Community\VC\Tools\MSVC\14.43.34808\include\xmemory
; File D:\Program Files\Microsoft Visual Studio\2022\Community\VC\Tools\MSVC\14.43.34808\include\xstring
; File D:\Program Files\Microsoft Visual Studio\2022\Community\VC\Tools\MSVC\14.43.34808\include\xmemory
; File C:\Marty 5.5\Src-Client\Client\PRTerrainLib\TextureSet.cpp
; File D:\Program Files\Microsoft Visual Studio\2022\Community\VC\Tools\MSVC\14.43.34808\include\xmemory
; File C:\Marty 5.5\Src-Client\Client\PRTerrainLib\TextureSet.cpp
;	COMDAT ?AddEmptyTexture@CTextureSet@@IAEXXZ
_TEXT	SEGMENT
_eraser$ = -172						; size = 156
__$ArrayPad$ = -16					; size = 4
__$EHRec$ = -12						; size = 12
?AddEmptyTexture@CTextureSet@@IAEXXZ PROC		; CTextureSet::AddEmptyTexture, COMDAT
; _this$ = ecx

; 104  : {

  00000	55		 push	 ebp
  00001	8b ec		 mov	 ebp, esp
  00003	6a ff		 push	 -1
  00005	68 00 00 00 00	 push	 __ehhandler$?AddEmptyTexture@CTextureSet@@IAEXXZ
  0000a	64 a1 00 00 00
	00		 mov	 eax, DWORD PTR fs:0
  00010	50		 push	 eax
  00011	81 ec a0 00 00
	00		 sub	 esp, 160		; 000000a0H
  00017	a1 00 00 00 00	 mov	 eax, DWORD PTR ___security_cookie
  0001c	33 c5		 xor	 eax, ebp
  0001e	89 45 f0	 mov	 DWORD PTR __$ArrayPad$[ebp], eax
  00021	56		 push	 esi
  00022	50		 push	 eax
  00023	8d 45 f4	 lea	 eax, DWORD PTR __$EHRec$[ebp]
  00026	64 a3 00 00 00
	00		 mov	 DWORD PTR fs:0, eax
  0002c	8b f1		 mov	 esi, ecx

; 105  : 	TTerrainTexture eraser;

  0002e	8d 8d 54 ff ff
	ff		 lea	 ecx, DWORD PTR _eraser$[ebp]
  00034	e8 00 00 00 00	 call	 ??0STerrainTexture@@QAE@XZ ; STerrainTexture::STerrainTexture
; File D:\Program Files\Microsoft Visual Studio\2022\Community\VC\Tools\MSVC\14.43.34808\include\vector

; 829  :         if (_Mylast != _My_data._Myend) {

  00039	8b 46 08	 mov	 eax, DWORD PTR [esi+8]
  0003c	8d 8d 54 ff ff
	ff		 lea	 ecx, DWORD PTR _eraser$[ebp]
; File C:\Marty 5.5\Src-Client\Client\PRTerrainLib\TextureSet.cpp

; 105  : 	TTerrainTexture eraser;

  00042	c7 45 fc 00 00
	00 00		 mov	 DWORD PTR __$EHRec$[ebp+8], 0
; File D:\Program Files\Microsoft Visual Studio\2022\Community\VC\Tools\MSVC\14.43.34808\include\vector

; 829  :         if (_Mylast != _My_data._Myend) {

  00049	51		 push	 ecx
  0004a	3b 46 0c	 cmp	 eax, DWORD PTR [esi+12]
  0004d	74 10		 je	 SHORT $LN7@AddEmptyTe
; File D:\Program Files\Microsoft Visual Studio\2022\Community\VC\Tools\MSVC\14.43.34808\include\xmemory

; 732  :         ::new (const_cast<void*>(static_cast<const volatile void*>(_Ptr))) _Objty(_STD forward<_Types>(_Args)...);

  0004f	8b c8		 mov	 ecx, eax
  00051	e8 00 00 00 00	 call	 ??0STerrainTexture@@QAE@ABU0@@Z
; File D:\Program Files\Microsoft Visual Studio\2022\Community\VC\Tools\MSVC\14.43.34808\include\vector

; 854  :         ++_Mylast;

  00056	81 46 08 9c 00
	00 00		 add	 DWORD PTR [esi+8], 156	; 0000009cH

; 830  :             return _Emplace_back_with_unused_capacity(_STD forward<_Valty>(_Val)...);

  0005d	eb 09		 jmp	 SHORT $LN6@AddEmptyTe
$LN7@AddEmptyTe:

; 831  :         }
; 832  : 
; 833  :         return *_Emplace_reallocate(_Mylast, _STD forward<_Valty>(_Val)...);

  0005f	50		 push	 eax
  00060	8d 4e 04	 lea	 ecx, DWORD PTR [esi+4]
  00063	e8 00 00 00 00	 call	 ??$_Emplace_reallocate@ABUSTerrainTexture@@@?$vector@USTerrainTexture@@V?$allocator@USTerrainTexture@@@std@@@std@@AAEPAUSTerrainTexture@@QAU2@ABU2@@Z ; std::vector<STerrainTexture,std::allocator<STerrainTexture> >::_Emplace_reallocate<STerrainTexture const &>
$LN6@AddEmptyTe:
; File C:\Marty 5.5\Src-Client\Client\PRTerrainLib\TextureSet.h

; 21   : 	}

  00068	8d 8d 70 ff ff
	ff		 lea	 ecx, DWORD PTR _eraser$[ebp+28]
  0006e	e8 00 00 00 00	 call	 ??1CGraphicImageInstance@@UAE@XZ ; CGraphicImageInstance::~CGraphicImageInstance
; File D:\Program Files\Microsoft Visual Studio\2022\Community\VC\Tools\MSVC\14.43.34808\include\xstring

; 434  :         return _Myres > _Small_string_capacity;

  00073	8b 8d 68 ff ff
	ff		 mov	 ecx, DWORD PTR _eraser$[ebp+20]
  00079	83 f9 0f	 cmp	 ecx, 15			; 0000000fH

; 3047 :         if (_My_data._Large_mode_engaged()) {

  0007c	76 2b		 jbe	 SHORT $LN38@AddEmptyTe
; File D:\Program Files\Microsoft Visual Studio\2022\Community\VC\Tools\MSVC\14.43.34808\include\xmemory

; 981  :         _STD _Deallocate<_New_alignof<_Ty>>(_Ptr, sizeof(_Ty) * _Count);

  0007e	8b 95 54 ff ff
	ff		 mov	 edx, DWORD PTR _eraser$[ebp]
; File D:\Program Files\Microsoft Visual Studio\2022\Community\VC\Tools\MSVC\14.43.34808\include\xstring

; 828  :         _Al.deallocate(_Old_ptr, _Capacity + 1); // +1 for null terminator

  00084	41		 inc	 ecx
; File D:\Program Files\Microsoft Visual Studio\2022\Community\VC\Tools\MSVC\14.43.34808\include\xmemory

; 981  :         _STD _Deallocate<_New_alignof<_Ty>>(_Ptr, sizeof(_Ty) * _Count);

  00085	8b c2		 mov	 eax, edx

; 284  :         if (_Bytes >= _Big_allocation_threshold) {

  00087	81 f9 00 10 00
	00		 cmp	 ecx, 4096		; 00001000H
  0008d	72 10		 jb	 SHORT $LN49@AddEmptyTe

; 205  :     const uintptr_t _Ptr_container   = _Ptr_user[-1];

  0008f	8b 50 fc	 mov	 edx, DWORD PTR [eax-4]
  00092	83 c1 23	 add	 ecx, 35			; 00000023H
  00095	2b c2		 sub	 eax, edx

; 219  :     _STL_VERIFY(_Back_shift >= _Min_back_shift && _Back_shift <= _Non_user_size, "invalid argument");

  00097	83 c0 fc	 add	 eax, -4			; fffffffcH
  0009a	83 f8 1f	 cmp	 eax, 31			; 0000001fH
  0009d	77 24		 ja	 SHORT $LN60@AddEmptyTe
$LN49@AddEmptyTe:

; 289  :         ::operator delete(_Ptr, _Bytes);

  0009f	51		 push	 ecx
  000a0	52		 push	 edx
  000a1	e8 00 00 00 00	 call	 ??3@YAXPAXI@Z		; operator delete
  000a6	83 c4 08	 add	 esp, 8
$LN38@AddEmptyTe:
; File C:\Marty 5.5\Src-Client\Client\PRTerrainLib\TextureSet.cpp

; 107  : }

  000a9	8b 4d f4	 mov	 ecx, DWORD PTR __$EHRec$[ebp]
  000ac	64 89 0d 00 00
	00 00		 mov	 DWORD PTR fs:0, ecx
  000b3	59		 pop	 ecx
  000b4	5e		 pop	 esi
  000b5	8b 4d f0	 mov	 ecx, DWORD PTR __$ArrayPad$[ebp]
  000b8	33 cd		 xor	 ecx, ebp
  000ba	e8 00 00 00 00	 call	 @__security_check_cookie@4
  000bf	8b e5		 mov	 esp, ebp
  000c1	5d		 pop	 ebp
  000c2	c3		 ret	 0
$LN60@AddEmptyTe:
; File D:\Program Files\Microsoft Visual Studio\2022\Community\VC\Tools\MSVC\14.43.34808\include\xmemory

; 219  :     _STL_VERIFY(_Back_shift >= _Min_back_shift && _Back_shift <= _Non_user_size, "invalid argument");

  000c3	e8 00 00 00 00	 call	 __invalid_parameter_noinfo_noreturn
$LN58@AddEmptyTe:
  000c8	cc		 int	 3
_TEXT	ENDS
;	COMDAT text$x
text$x	SEGMENT
__unwindfunclet$?AddEmptyTexture@CTextureSet@@IAEXXZ$0:
  00000	8d 8d 54 ff ff
	ff		 lea	 ecx, DWORD PTR _eraser$[ebp]
  00006	e9 00 00 00 00	 jmp	 ??1STerrainTexture@@QAE@XZ ; STerrainTexture::~STerrainTexture
  0000b	cc		 int	 3
  0000c	cc		 int	 3
  0000d	cc		 int	 3
  0000e	cc		 int	 3
  0000f	cc		 int	 3
__ehhandler$?AddEmptyTexture@CTextureSet@@IAEXXZ:
  00010	90		 npad	 1
  00011	90		 npad	 1
  00012	8b 54 24 08	 mov	 edx, DWORD PTR [esp+8]
  00016	8d 42 0c	 lea	 eax, DWORD PTR [edx+12]
  00019	8b 8a 58 ff ff
	ff		 mov	 ecx, DWORD PTR [edx-168]
  0001f	33 c8		 xor	 ecx, eax
  00021	e8 00 00 00 00	 call	 @__security_check_cookie@4
  00026	8b 4a fc	 mov	 ecx, DWORD PTR [edx-4]
  00029	33 c8		 xor	 ecx, eax
  0002b	e8 00 00 00 00	 call	 @__security_check_cookie@4
  00030	b8 00 00 00 00	 mov	 eax, OFFSET __ehfuncinfo$?AddEmptyTexture@CTextureSet@@IAEXXZ
  00035	e9 00 00 00 00	 jmp	 ___CxxFrameHandler3
text$x	ENDS
?AddEmptyTexture@CTextureSet@@IAEXXZ ENDP		; CTextureSet::AddEmptyTexture
; Function compile flags: /Ogtp
; File C:\Marty 5.5\Src-Client\Client\PRTerrainLib\TextureSet.cpp
; File D:\Program Files\Microsoft Visual Studio\2022\Community\VC\Tools\MSVC\14.43.34808\include\__msvc_string_view.hpp
; File D:\Program Files\Microsoft Visual Studio\2022\Community\VC\Tools\MSVC\14.43.34808\include\vector
; File D:\Program Files\Microsoft Visual Studio\2022\Community\VC\Tools\MSVC\14.43.34808\include\__msvc_string_view.hpp
; File D:\Program Files\Microsoft Visual Studio\2022\Community\VC\Tools\MSVC\14.43.34808\include\xstring
; File C:\Marty 5.5\Src-Client\Client\PRTerrainLib\TextureSet.cpp
; File D:\Program Files\Microsoft Visual Studio\2022\Community\VC\Tools\MSVC\14.43.34808\include\vector
; File D:\Program Files\Microsoft Visual Studio\2022\Community\VC\Tools\MSVC\14.43.34808\include\xmemory
; File D:\Program Files\Microsoft Visual Studio\2022\Community\VC\Tools\MSVC\14.43.34808\include\vector
; File C:\Marty 5.5\Src-Client\Client\PRTerrainLib\TextureSet.cpp
; File D:\Program Files\Microsoft Visual Studio\2022\Community\VC\Tools\MSVC\14.43.34808\include\vector
; File C:\Marty 5.5\Src-Client\Client\PRTerrainLib\TextureSet.cpp
; File D:\Program Files\Microsoft Visual Studio\2022\Community\VC\Tools\MSVC\14.43.34808\include\vector
; File C:\Marty 5.5\Src-Client\Client\PRTerrainLib\TextureSet.cpp
; File D:\Program Files\Microsoft Visual Studio\2022\Community\VC\Tools\MSVC\14.43.34808\include\vector
; File C:\Marty 5.5\Src-Client\Client\PRTerrainLib\TextureSet.cpp
; File D:\Program Files\Microsoft Visual Studio\2022\Community\VC\Tools\MSVC\14.43.34808\include\vector
; File C:\Marty 5.5\Src-Client\Client\PRTerrainLib\TextureSet.cpp
; File D:\Program Files\Microsoft Visual Studio\2022\Community\VC\Tools\MSVC\14.43.34808\include\vector
; File C:\Marty 5.5\Src-Client\Client\PRTerrainLib\TextureSet.cpp
; File D:\Program Files\Microsoft Visual Studio\2022\Community\VC\Tools\MSVC\14.43.34808\include\vector
; File C:\Marty 5.5\Src-Client\Client\PRTerrainLib\TextureSet.cpp
; File D:\Program Files\Microsoft Visual Studio\2022\Community\VC\Tools\MSVC\14.43.34808\include\vector
; File C:\Marty 5.5\Src-Client\Client\PRTerrainLib\TextureSet.cpp
; File D:\Program Files\Microsoft Visual Studio\2022\Community\VC\Tools\MSVC\14.43.34808\include\vector
; File C:\Marty 5.5\Src-Client\Client\PRTerrainLib\TextureSet.cpp
;	COMDAT ?AddTexture@CTextureSet@@QAE_NPBDMMMM_NGGM@Z
_TEXT	SEGMENT
__Guard$2 = -40						; size = 12
__My_data$1$ = -28					; size = 4
tv414 = -24						; size = 4
__Mylast$1$ = -20					; size = 4
$T3 = -20						; size = 4
_this$1$ = -16						; size = 4
__$EHRec$ = -12						; size = 12
_c_szFileName$ = 8					; size = 4
tv409 = 8						; size = 4
__Size$1$ = 8						; size = 4
_fuScale$ = 12						; size = 4
_fvScale$ = 16						; size = 4
_fuOffset$ = 20						; size = 4
_fvOffset$ = 24						; size = 4
_bSplat$ = 28						; size = 1
_usBegin$ = 32						; size = 2
_usEnd$ = 36						; size = 2
_fTerrainTexCoordBase$ = 40				; size = 4
?AddTexture@CTextureSet@@QAE_NPBDMMMM_NGGM@Z PROC	; CTextureSet::AddTexture, COMDAT
; _this$ = ecx

; 211  : {

  00000	55		 push	 ebp
  00001	8b ec		 mov	 ebp, esp
  00003	6a ff		 push	 -1
  00005	68 00 00 00 00	 push	 __ehhandler$?AddTexture@CTextureSet@@QAE_NPBDMMMM_NGGM@Z
  0000a	64 a1 00 00 00
	00		 mov	 eax, DWORD PTR fs:0
  00010	50		 push	 eax
  00011	83 ec 1c	 sub	 esp, 28			; 0000001cH
  00014	53		 push	 ebx
  00015	56		 push	 esi
  00016	57		 push	 edi
  00017	a1 00 00 00 00	 mov	 eax, DWORD PTR ___security_cookie
  0001c	33 c5		 xor	 eax, ebp
  0001e	50		 push	 eax
  0001f	8d 45 f4	 lea	 eax, DWORD PTR __$EHRec$[ebp]
  00022	64 a3 00 00 00
	00		 mov	 DWORD PTR fs:0, eax
  00028	8b f9		 mov	 edi, ecx
  0002a	89 7d f0	 mov	 DWORD PTR _this$1$[ebp], edi
  0002d	8b 5d 08	 mov	 ebx, DWORD PTR _c_szFileName$[ebp]

; 212  : 
; 213  : 
; 214  : 		//@natanek53
; 215  : 		if (!c_szFileName)

  00030	85 db		 test	 ebx, ebx
  00032	75 18		 jne	 SHORT $LN5@AddTexture

; 216  : 		{
; 217  : 			LogBox("CTextureSet::AddTexture: Bd - Brak nazwy pliku. Przekazany wskanik na nazw pliku jest niezdefiniowany (nullptr).", "Bd");

  00034	53		 push	 ebx
  00035	68 00 00 00 00	 push	 OFFSET ??_C@_06CEEECGLN@B?E?$IC?D?$IFd@
  0003a	68 00 00 00 00	 push	 OFFSET ??_C@_0HJ@COHDILEG@CTextureSet?3?3AddTexture?3?5B?E?$IC?D?$IFd@
  0003f	e8 00 00 00 00	 call	 ?LogBox@@YAXPBD0PAUHWND__@@@Z ; LogBox
  00044	83 c4 0c	 add	 esp, 12			; 0000000cH

; 218  : 			return false;

  00047	e9 25 02 00 00	 jmp	 $LN96@AddTexture
$LN5@AddTexture:

; 219  : 		}
; 220  : 		//@natanek53
; 221  : 
; 222  : 	if (GetTextureCount() >= 256)

  0004c	e8 00 00 00 00	 call	 ?GetTextureCount@CTextureSet@@QAEKXZ ; CTextureSet::GetTextureCount
  00051	3d 00 01 00 00	 cmp	 eax, 256		; 00000100H
  00056	72 16		 jb	 SHORT $LN6@AddTexture

; 223  : 	{
; 224  : 		LogBox("You cannot add more than 255 texture.");

  00058	6a 00		 push	 0
  0005a	6a 00		 push	 0
  0005c	68 00 00 00 00	 push	 OFFSET ??_C@_0CG@GCCGCFA@You?5cannot?5add?5more?5than?5255?5te@
  00061	e8 00 00 00 00	 call	 ?LogBox@@YAXPBD0PAUHWND__@@@Z ; LogBox
  00066	83 c4 0c	 add	 esp, 12			; 0000000cH

; 225  : 		return false;

  00069	e9 03 02 00 00	 jmp	 $LN96@AddTexture
$LN6@AddTexture:

; 226  : 	}
; 227  : 
; 228  : 	for (unsigned long i = 1; i < GetTextureCount(); ++i)

  0006e	8b cf		 mov	 ecx, edi
  00070	be 01 00 00 00	 mov	 esi, 1
  00075	e8 00 00 00 00	 call	 ?GetTextureCount@CTextureSet@@QAEKXZ ; CTextureSet::GetTextureCount
  0007a	89 45 ec	 mov	 DWORD PTR $T3[ebp], eax
  0007d	3b c6		 cmp	 eax, esi
  0007f	76 72		 jbe	 SHORT $LN91@AddTexture
  00081	8b 47 04	 mov	 eax, DWORD PTR [edi+4]
  00084	8d 4f 04	 lea	 ecx, DWORD PTR [edi+4]
  00087	89 4d e4	 mov	 DWORD PTR __My_data$1$[ebp], ecx
  0008a	bf 9c 00 00 00	 mov	 edi, 156		; 0000009cH
  0008f	89 45 e8	 mov	 DWORD PTR tv414[ebp], eax
$LL4@AddTexture:
; File D:\Program Files\Microsoft Visual Studio\2022\Community\VC\Tools\MSVC\14.43.34808\include\__msvc_string_view.hpp

; 433  :         return _CSTD strlen(reinterpret_cast<const char*>(_First));

  00092	8b cb		 mov	 ecx, ebx
; File D:\Program Files\Microsoft Visual Studio\2022\Community\VC\Tools\MSVC\14.43.34808\include\vector

; 1919 :         return _My_data._Myfirst[_Pos];

  00094	8d 14 07	 lea	 edx, DWORD PTR [edi+eax]
; File D:\Program Files\Microsoft Visual Studio\2022\Community\VC\Tools\MSVC\14.43.34808\include\__msvc_string_view.hpp

; 433  :         return _CSTD strlen(reinterpret_cast<const char*>(_First));

  00097	8d 41 01	 lea	 eax, DWORD PTR [ecx+1]
  0009a	89 45 08	 mov	 DWORD PTR tv409[ebp], eax
  0009d	0f 1f 00	 npad	 3
$LL92@AddTexture:
  000a0	8a 01		 mov	 al, BYTE PTR [ecx]
  000a2	41		 inc	 ecx
  000a3	84 c0		 test	 al, al
  000a5	75 f9		 jne	 SHORT $LL92@AddTexture
  000a7	2b 4d 08	 sub	 ecx, DWORD PTR tv409[ebp]
; File D:\Program Files\Microsoft Visual Studio\2022\Community\VC\Tools\MSVC\14.43.34808\include\xstring

; 425  :         const value_type* _Result = _Bx._Buf;

  000aa	8b c2		 mov	 eax, edx

; 434  :         return _Myres > _Small_string_capacity;

  000ac	83 7a 14 0f	 cmp	 DWORD PTR [edx+20], 15	; 0000000fH

; 426  :         if (_Large_mode_engaged()) {

  000b0	76 02		 jbe	 SHORT $LN21@AddTexture

; 427  :             _Result = _Unfancy(_Bx._Ptr);

  000b2	8b 02		 mov	 eax, DWORD PTR [edx]
$LN21@AddTexture:

; 2876 :         return _Traits_compare<_Traits>(_Mypair._Myval2._Myptr(), _Mypair._Myval2._Mysize, _Ptr, _Traits::length(_Ptr));

  000b4	51		 push	 ecx
  000b5	53		 push	 ebx
  000b6	ff 72 10	 push	 DWORD PTR [edx+16]
  000b9	50		 push	 eax
  000ba	e8 00 00 00 00	 call	 ??$_Traits_compare@U?$char_traits@D@std@@@std@@YAHQBDI0I@Z ; std::_Traits_compare<std::char_traits<char> >
  000bf	83 c4 10	 add	 esp, 16			; 00000010H
; File C:\Marty 5.5\Src-Client\Client\PRTerrainLib\TextureSet.cpp

; 230  : 		if (0 == m_Textures[i].stFilename.compare(c_szFileName))

  000c2	85 c0		 test	 eax, eax
  000c4	74 14		 je	 SHORT $LN86@AddTexture

; 226  : 	}
; 227  : 
; 228  : 	for (unsigned long i = 1; i < GetTextureCount(); ++i)

  000c6	8b 45 e8	 mov	 eax, DWORD PTR tv414[ebp]
  000c9	46		 inc	 esi
  000ca	81 c7 9c 00 00
	00		 add	 edi, 156		; 0000009cH
  000d0	3b 75 ec	 cmp	 esi, DWORD PTR $T3[ebp]
  000d3	72 bd		 jb	 SHORT $LL4@AddTexture

; 230  : 		if (0 == m_Textures[i].stFilename.compare(c_szFileName))

  000d5	8b 7d e4	 mov	 edi, DWORD PTR __My_data$1$[ebp]
  000d8	eb 1c		 jmp	 SHORT $LN89@AddTexture
$LN86@AddTexture:

; 231  : 		{
; 232  : 			LogBox("Texture of the same name already exists.", "Duplicate");

  000da	6a 00		 push	 0
  000dc	68 00 00 00 00	 push	 OFFSET ??_C@_09OINHJNMP@Duplicate@
  000e1	68 00 00 00 00	 push	 OFFSET ??_C@_0CJ@ELAAMMOC@Texture?5of?5the?5same?5name?5alread@
  000e6	e8 00 00 00 00	 call	 ?LogBox@@YAXPBD0PAUHWND__@@@Z ; LogBox
  000eb	83 c4 0c	 add	 esp, 12			; 0000000cH

; 233  : 			return false;

  000ee	e9 7e 01 00 00	 jmp	 $LN96@AddTexture
$LN91@AddTexture:
  000f3	83 c7 04	 add	 edi, 4
$LN89@AddTexture:

; 234  : 		}
; 235  : 	}
; 236  : 
; 237  : 	CResource * pResource = CResourceManager::Instance().GetResourcePointer(c_szFileName);

  000f6	8b 0d 00 00 00
	00		 mov	 ecx, DWORD PTR ?ms_singleton@?$CSingleton@VCResourceManager@@@@0PAVCResourceManager@@A ; CSingleton<CResourceManager>::ms_singleton
  000fc	53		 push	 ebx
  000fd	e8 00 00 00 00	 call	 ?GetResourcePointer@CResourceManager@@QAEPAVCResource@@PBD@Z ; CResourceManager::GetResourcePointer
  00102	8b f0		 mov	 esi, eax

; 238  : 
; 239  : /*/
; 240  : 	if (!pResource->IsType(CGraphicImage::Type()))
; 241  : 	{
; 242  : 		LogBox("CTerrainImpl::GenerateTexture : It's not an image file. %s", pResource->GetFileName());
; 243  : 		return false;
; 244  : 	}
; 245  : /*/
; 246  : 	//@natanek53
; 247  : 	if (!pResource || !pResource->IsType(CGraphicImage::Type()))

  00104	85 f6		 test	 esi, esi
  00106	0f 84 57 01 00
	00		 je	 $LN9@AddTexture
  0010c	e8 00 00 00 00	 call	 ?Type@CGraphicImage@@SAKXZ ; CGraphicImage::Type
  00111	50		 push	 eax
  00112	8b ce		 mov	 ecx, esi
  00114	e8 00 00 00 00	 call	 ?IsType@CResource@@QAE_NK@Z ; CResource::IsType
  00119	84 c0		 test	 al, al
  0011b	0f 84 42 01 00
	00		 je	 $LN9@AddTexture
; File D:\Program Files\Microsoft Visual Studio\2022\Community\VC\Tools\MSVC\14.43.34808\include\vector

; 1900 :         return static_cast<size_type>(_My_data._Mylast - _My_data._Myfirst);

  00121	8b 4f 04	 mov	 ecx, DWORD PTR [edi+4]
  00124	8d 47 04	 lea	 eax, DWORD PTR [edi+4]
  00127	2b 0f		 sub	 ecx, DWORD PTR [edi]
  00129	89 45 ec	 mov	 DWORD PTR __Mylast$1$[ebp], eax
  0012c	b8 d3 20 0d d2	 mov	 eax, -770891565		; d20d20d3H
  00131	f7 e9		 imul	 ecx
  00133	03 d1		 add	 edx, ecx

; 1909 :         return static_cast<size_type>(_My_data._Myend - _My_data._Myfirst);

  00135	8b 4f 08	 mov	 ecx, DWORD PTR [edi+8]
  00138	2b 0f		 sub	 ecx, DWORD PTR [edi]

; 1900 :         return static_cast<size_type>(_My_data._Mylast - _My_data._Myfirst);

  0013a	c1 fa 07	 sar	 edx, 7
  0013d	8b c2		 mov	 eax, edx
  0013f	c1 e8 1f	 shr	 eax, 31			; 0000001fH
  00142	03 c2		 add	 eax, edx
  00144	89 45 08	 mov	 DWORD PTR __Size$1$[ebp], eax

; 1909 :         return static_cast<size_type>(_My_data._Myend - _My_data._Myfirst);

  00147	b8 d3 20 0d d2	 mov	 eax, -770891565		; d20d20d3H
  0014c	f7 e9		 imul	 ecx
  0014e	03 d1		 add	 edx, ecx

; 1710 :         if (_Newcapacity > capacity()) { // something to do (reserve() never shrinks)

  00150	8b 4d 08	 mov	 ecx, DWORD PTR __Size$1$[ebp]

; 1909 :         return static_cast<size_type>(_My_data._Myend - _My_data._Myfirst);

  00153	c1 fa 07	 sar	 edx, 7
  00156	8b c2		 mov	 eax, edx
  00158	c1 e8 1f	 shr	 eax, 31			; 0000001fH
  0015b	03 c2		 add	 eax, edx

; 1710 :         if (_Newcapacity > capacity()) { // something to do (reserve() never shrinks)

  0015d	8d 71 01	 lea	 esi, DWORD PTR [ecx+1]
  00160	3b f0		 cmp	 esi, eax
  00162	76 79		 jbe	 SHORT $LN93@AddTexture

; 1711 :             if (_Newcapacity > max_size()) {

  00164	81 fe 41 1a a4
	01		 cmp	 esi, 27531841		; 01a41a41H
  0016a	0f 87 17 01 00
	00		 ja	 $LN99@AddTexture
; File D:\Program Files\Microsoft Visual Studio\2022\Community\VC\Tools\MSVC\14.43.34808\include\xmemory

; 122  :     return _Count * _Ty_size;

  00170	69 c6 9c 00 00
	00		 imul	 eax, esi, 156

; 227  :     if (_Bytes == 0) {

  00176	85 c0		 test	 eax, eax
  00178	75 04		 jne	 SHORT $LN49@AddTexture

; 228  :         return nullptr;

  0017a	33 f6		 xor	 esi, esi
  0017c	eb 1c		 jmp	 SHORT $LN48@AddTexture
$LN49@AddTexture:

; 229  :     }
; 230  : 
; 231  : #if _HAS_CXX20 // TRANSITION, GH-1532
; 232  :     if (_STD is_constant_evaluated()) {
; 233  :         return _Traits::_Allocate(_Bytes);
; 234  :     }
; 235  : #endif // _HAS_CXX20
; 236  : 
; 237  : #ifdef __cpp_aligned_new
; 238  :     if constexpr (_Align > __STDCPP_DEFAULT_NEW_ALIGNMENT__) {
; 239  :         size_t _Passed_align = _Align;
; 240  : #if defined(_M_IX86) || defined(_M_X64)
; 241  :         if (_Bytes >= _Big_allocation_threshold) {
; 242  :             // boost the alignment of big allocations to help autovectorization
; 243  :             _Passed_align = (_STD max)(_Align, _Big_allocation_alignment);
; 244  :         }
; 245  : #endif // defined(_M_IX86) || defined(_M_X64)
; 246  :         return _Traits::_Allocate_aligned(_Bytes, _Passed_align);
; 247  :     } else
; 248  : #endif // defined(__cpp_aligned_new)
; 249  :     {
; 250  : #if defined(_M_IX86) || defined(_M_X64)
; 251  :         if (_Bytes >= _Big_allocation_threshold) {

  0017e	50		 push	 eax
  0017f	3d 00 10 00 00	 cmp	 eax, 4096		; 00001000H
  00184	72 07		 jb	 SHORT $LN50@AddTexture

; 252  :             // boost the alignment of big allocations to help autovectorization
; 253  :             return _Allocate_manually_vector_aligned<_Traits>(_Bytes);

  00186	e8 00 00 00 00	 call	 ??$_Allocate_manually_vector_aligned@U_Default_allocate_traits@std@@@std@@YAPAXI@Z ; std::_Allocate_manually_vector_aligned<std::_Default_allocate_traits>
  0018b	eb 05		 jmp	 SHORT $LN97@AddTexture
$LN50@AddTexture:

; 136  :         return ::operator new(_Bytes);

  0018d	e8 00 00 00 00	 call	 ??2@YAPAXI@Z		; operator new
$LN97@AddTexture:
; File D:\Program Files\Microsoft Visual Studio\2022\Community\VC\Tools\MSVC\14.43.34808\include\vector

; 1644 :         _Simple_reallocation_guard _Guard{_Al, _Newvec, _Newcapacity};

  00192	8b 4d 08	 mov	 ecx, DWORD PTR __Size$1$[ebp]
  00195	8b f0		 mov	 esi, eax
  00197	83 c4 04	 add	 esp, 4
$LN48@AddTexture:
  0019a	8d 41 01	 lea	 eax, DWORD PTR [ecx+1]
  0019d	89 7d d8	 mov	 DWORD PTR __Guard$2[ebp], edi
  001a0	89 75 dc	 mov	 DWORD PTR __Guard$2[ebp+4], esi
  001a3	89 45 e0	 mov	 DWORD PTR __Guard$2[ebp+8], eax

; 1645 : 
; 1646 :         if constexpr (is_nothrow_move_constructible_v<_Ty> || !is_copy_constructible_v<_Ty>) {
; 1647 :             _Uninitialized_move(_Myfirst, _Mylast, _Newvec, _Al);
; 1648 :         } else {
; 1649 :             _Uninitialized_copy(_Myfirst, _Mylast, _Newvec, _Al);

  001a6	8b 45 ec	 mov	 eax, DWORD PTR __Mylast$1$[ebp]
  001a9	57		 push	 edi
  001aa	56		 push	 esi
  001ab	c7 45 fc 00 00
	00 00		 mov	 DWORD PTR __$EHRec$[ebp+8], 0
  001b2	ff 30		 push	 DWORD PTR [eax]
  001b4	ff 37		 push	 DWORD PTR [edi]
  001b6	e8 00 00 00 00	 call	 ??$_Uninitialized_copy@PAUSTerrainTexture@@PAU1@V?$allocator@USTerrainTexture@@@std@@@std@@YAPAUSTerrainTexture@@PAU1@00AAV?$allocator@USTerrainTexture@@@0@@Z ; std::_Uninitialized_copy<STerrainTexture *,STerrainTexture *,std::allocator<STerrainTexture> >

; 1650 :         }
; 1651 : 
; 1652 :         _Guard._New_begin = nullptr;
; 1653 :         _Change_array(_Newvec, _Size, _Newcapacity);

  001bb	8b 4d 08	 mov	 ecx, DWORD PTR __Size$1$[ebp]
  001be	83 c4 10	 add	 esp, 16			; 00000010H
  001c1	8d 41 01	 lea	 eax, DWORD PTR [ecx+1]
  001c4	50		 push	 eax
  001c5	51		 push	 ecx
  001c6	56		 push	 esi
  001c7	8b cf		 mov	 ecx, edi
  001c9	e8 00 00 00 00	 call	 ?_Change_array@?$vector@USTerrainTexture@@V?$allocator@USTerrainTexture@@@std@@@std@@AAEXQAUSTerrainTexture@@II@Z ; std::vector<STerrainTexture,std::allocator<STerrainTexture> >::_Change_array

; 1654 :     }

  001ce	8b 75 f0	 mov	 esi, DWORD PTR _this$1$[ebp]
  001d1	c7 45 fc ff ff
	ff ff		 mov	 DWORD PTR __$EHRec$[ebp+8], -1
  001d8	8d 7e 04	 lea	 edi, DWORD PTR [esi+4]

; 1710 :         if (_Newcapacity > capacity()) { // something to do (reserve() never shrinks)

  001db	eb 03		 jmp	 SHORT $LN65@AddTexture
$LN93@AddTexture:
  001dd	8b 75 f0	 mov	 esi, DWORD PTR _this$1$[ebp]
$LN65@AddTexture:
; File C:\Marty 5.5\Src-Client\Client\PRTerrainLib\TextureSet.cpp

; 257  : 	AddEmptyTexture();

  001e0	8b ce		 mov	 ecx, esi
  001e2	e8 00 00 00 00	 call	 ?AddEmptyTexture@CTextureSet@@IAEXXZ ; CTextureSet::AddEmptyTexture

; 258  : 	SetTexture(m_Textures.size() - 1,

  001e7	f3 0f 10 45 28	 movss	 xmm0, DWORD PTR _fTerrainTexCoordBase$[ebp]
; File D:\Program Files\Microsoft Visual Studio\2022\Community\VC\Tools\MSVC\14.43.34808\include\vector

; 1900 :         return static_cast<size_type>(_My_data._Mylast - _My_data._Myfirst);

  001ec	8b 45 ec	 mov	 eax, DWORD PTR __Mylast$1$[ebp]
; File C:\Marty 5.5\Src-Client\Client\PRTerrainLib\TextureSet.cpp

; 258  : 	SetTexture(m_Textures.size() - 1,

  001ef	51		 push	 ecx
  001f0	f3 0f 11 04 24	 movss	 DWORD PTR [esp], xmm0
  001f5	ff 75 24	 push	 DWORD PTR _usEnd$[ebp]
; File D:\Program Files\Microsoft Visual Studio\2022\Community\VC\Tools\MSVC\14.43.34808\include\vector

; 1900 :         return static_cast<size_type>(_My_data._Mylast - _My_data._Myfirst);

  001f8	8b 08		 mov	 ecx, DWORD PTR [eax]
  001fa	b8 d3 20 0d d2	 mov	 eax, -770891565		; d20d20d3H
; File C:\Marty 5.5\Src-Client\Client\PRTerrainLib\TextureSet.cpp

; 258  : 	SetTexture(m_Textures.size() - 1,

  001ff	ff 75 20	 push	 DWORD PTR _usBegin$[ebp]
; File D:\Program Files\Microsoft Visual Studio\2022\Community\VC\Tools\MSVC\14.43.34808\include\vector

; 1900 :         return static_cast<size_type>(_My_data._Mylast - _My_data._Myfirst);

  00202	2b 0f		 sub	 ecx, DWORD PTR [edi]
; File C:\Marty 5.5\Src-Client\Client\PRTerrainLib\TextureSet.cpp

; 258  : 	SetTexture(m_Textures.size() - 1,

  00204	ff 75 1c	 push	 DWORD PTR _bSplat$[ebp]
  00207	f3 0f 10 45 18	 movss	 xmm0, DWORD PTR _fvOffset$[ebp]
; File D:\Program Files\Microsoft Visual Studio\2022\Community\VC\Tools\MSVC\14.43.34808\include\vector

; 1900 :         return static_cast<size_type>(_My_data._Mylast - _My_data._Myfirst);

  0020c	f7 e9		 imul	 ecx
; File C:\Marty 5.5\Src-Client\Client\PRTerrainLib\TextureSet.cpp

; 258  : 	SetTexture(m_Textures.size() - 1,

  0020e	83 ec 10	 sub	 esp, 16			; 00000010H
; File D:\Program Files\Microsoft Visual Studio\2022\Community\VC\Tools\MSVC\14.43.34808\include\vector

; 1900 :         return static_cast<size_type>(_My_data._Mylast - _My_data._Myfirst);

  00211	03 d1		 add	 edx, ecx
; File C:\Marty 5.5\Src-Client\Client\PRTerrainLib\TextureSet.cpp

; 258  : 	SetTexture(m_Textures.size() - 1,

  00213	8b ce		 mov	 ecx, esi
; File D:\Program Files\Microsoft Visual Studio\2022\Community\VC\Tools\MSVC\14.43.34808\include\vector

; 1900 :         return static_cast<size_type>(_My_data._Mylast - _My_data._Myfirst);

  00215	c1 fa 07	 sar	 edx, 7
  00218	8b c2		 mov	 eax, edx
; File C:\Marty 5.5\Src-Client\Client\PRTerrainLib\TextureSet.cpp

; 258  : 	SetTexture(m_Textures.size() - 1,

  0021a	f3 0f 11 44 24
	0c		 movss	 DWORD PTR [esp+12], xmm0
  00220	f3 0f 10 45 14	 movss	 xmm0, DWORD PTR _fuOffset$[ebp]
  00225	f3 0f 11 44 24
	08		 movss	 DWORD PTR [esp+8], xmm0
  0022b	f3 0f 10 45 10	 movss	 xmm0, DWORD PTR _fvScale$[ebp]
  00230	f3 0f 11 44 24
	04		 movss	 DWORD PTR [esp+4], xmm0
  00236	f3 0f 10 45 0c	 movss	 xmm0, DWORD PTR _fuScale$[ebp]
; File D:\Program Files\Microsoft Visual Studio\2022\Community\VC\Tools\MSVC\14.43.34808\include\vector

; 1900 :         return static_cast<size_type>(_My_data._Mylast - _My_data._Myfirst);

  0023b	c1 e8 1f	 shr	 eax, 31			; 0000001fH
; File C:\Marty 5.5\Src-Client\Client\PRTerrainLib\TextureSet.cpp

; 258  : 	SetTexture(m_Textures.size() - 1,

  0023e	f3 0f 11 04 24	 movss	 DWORD PTR [esp], xmm0
  00243	48		 dec	 eax
  00244	53		 push	 ebx
  00245	03 c2		 add	 eax, edx
  00247	50		 push	 eax
  00248	e8 00 00 00 00	 call	 ?SetTexture@CTextureSet@@QAE_NKPBDMMMM_NGGM@Z ; CTextureSet::SetTexture

; 259  : 			   c_szFileName,
; 260  : 			   fuScale,
; 261  : 			   fvScale,
; 262  : 			   fuOffset,
; 263  : 			   fvOffset,
; 264  : 			   bSplat,
; 265  : 			   usBegin,
; 266  : 			   usEnd,
; 267  : 			   fTerrainTexCoordBase);
; 268  : 
; 269  : 	return true;

  0024d	b0 01		 mov	 al, 1

; 270  : }

  0024f	8b 4d f4	 mov	 ecx, DWORD PTR __$EHRec$[ebp]
  00252	64 89 0d 00 00
	00 00		 mov	 DWORD PTR fs:0, ecx
  00259	59		 pop	 ecx
  0025a	5f		 pop	 edi
  0025b	5e		 pop	 esi
  0025c	5b		 pop	 ebx
  0025d	8b e5		 mov	 esp, ebp
  0025f	5d		 pop	 ebp
  00260	c2 24 00	 ret	 36			; 00000024H
$LN9@AddTexture:

; 248  : 	{
; 249  : 		TraceError("CTextureSet::AddTexture: Nie mona ustawi tekstury. Tekstura '%s' nie istnieje", c_szFileName ? c_szFileName : "Nieznany");

  00263	53		 push	 ebx
  00264	68 00 00 00 00	 push	 OFFSET ??_C@_0FC@LGIGBEJD@CTextureSet?3?3AddTexture?3?5Nie?5mo@
  00269	e8 00 00 00 00	 call	 ?TraceError@@YAXPBDZZ	; TraceError
  0026e	83 c4 08	 add	 esp, 8
$LN96@AddTexture:

; 270  : }

  00271	32 c0		 xor	 al, al
  00273	8b 4d f4	 mov	 ecx, DWORD PTR __$EHRec$[ebp]
  00276	64 89 0d 00 00
	00 00		 mov	 DWORD PTR fs:0, ecx
  0027d	59		 pop	 ecx
  0027e	5f		 pop	 edi
  0027f	5e		 pop	 esi
  00280	5b		 pop	 ebx
  00281	8b e5		 mov	 esp, ebp
  00283	5d		 pop	 ebp
  00284	c2 24 00	 ret	 36			; 00000024H
$LN99@AddTexture:
; File D:\Program Files\Microsoft Visual Studio\2022\Community\VC\Tools\MSVC\14.43.34808\include\vector

; 1712 :                 _Xlength();

  00287	e8 00 00 00 00	 call	 ?_Xlength@?$vector@USTerrainTexture@@V?$allocator@USTerrainTexture@@@std@@@std@@CAXXZ ; std::vector<STerrainTexture,std::allocator<STerrainTexture> >::_Xlength
$LN95@AddTexture:
  0028c	cc		 int	 3
_TEXT	ENDS
;	COMDAT text$x
text$x	SEGMENT
__unwindfunclet$?AddTexture@CTextureSet@@QAE_NPBDMMMM_NGGM@Z$0:
  00000	8d 4d d8	 lea	 ecx, DWORD PTR __Guard$2[ebp]
  00003	e9 00 00 00 00	 jmp	 ??1_Simple_reallocation_guard@?$vector@USTerrainTexture@@V?$allocator@USTerrainTexture@@@std@@@std@@QAE@XZ ; std::vector<STerrainTexture,std::allocator<STerrainTexture> >::_Simple_reallocation_guard::~_Simple_reallocation_guard
  00008	cc		 int	 3
  00009	cc		 int	 3
  0000a	cc		 int	 3
  0000b	cc		 int	 3
  0000c	cc		 int	 3
__ehhandler$?AddTexture@CTextureSet@@QAE_NPBDMMMM_NGGM@Z:
  0000d	90		 npad	 1
  0000e	90		 npad	 1
  0000f	8b 54 24 08	 mov	 edx, DWORD PTR [esp+8]
  00013	8d 42 0c	 lea	 eax, DWORD PTR [edx+12]
  00016	8b 4a d4	 mov	 ecx, DWORD PTR [edx-44]
  00019	33 c8		 xor	 ecx, eax
  0001b	e8 00 00 00 00	 call	 @__security_check_cookie@4
  00020	b8 00 00 00 00	 mov	 eax, OFFSET __ehfuncinfo$?AddTexture@CTextureSet@@QAE_NPBDMMMM_NGGM@Z
  00025	e9 00 00 00 00	 jmp	 ___CxxFrameHandler3
text$x	ENDS
?AddTexture@CTextureSet@@QAE_NPBDMMMM_NGGM@Z ENDP	; CTextureSet::AddTexture
; Function compile flags: /Ogtp
; File C:\Marty 5.5\Src-Client\Client\PRTerrainLib\TextureSet.cpp
; File D:\Program Files\Microsoft Visual Studio\2022\Community\VC\Tools\MSVC\14.43.34808\include\vector
; File D:\Program Files\Microsoft Visual Studio\2022\Community\VC\Tools\MSVC\14.43.34808\include\xstring
; File C:\Marty 5.5\Src-Client\Client\PRTerrainLib\TextureSet.cpp
;	COMDAT ?Reload@CTextureSet@@QAEXM@Z
_TEXT	SEGMENT
_this$1$ = -16						; size = 4
tv244 = -12						; size = 4
_dwIndex$1$ = -8					; size = 4
tv245 = -4						; size = 4
_fTerrainTexCoordBase$ = 8				; size = 4
?Reload@CTextureSet@@QAEXM@Z PROC			; CTextureSet::Reload, COMDAT
; _this$ = ecx

; 188  : {

  00000	55		 push	 ebp
  00001	8b ec		 mov	 ebp, esp
  00003	83 ec 10	 sub	 esp, 16			; 00000010H
  00006	56		 push	 esi
  00007	8b f1		 mov	 esi, ecx

; 189  : 	for (DWORD dwIndex = 1; dwIndex < GetTextureCount(); ++dwIndex)

  00009	c7 45 f8 01 00
	00 00		 mov	 DWORD PTR _dwIndex$1$[ebp], 1
  00010	89 75 f0	 mov	 DWORD PTR _this$1$[ebp], esi
  00013	e8 00 00 00 00	 call	 ?GetTextureCount@CTextureSet@@QAEKXZ ; CTextureSet::GetTextureCount
  00018	83 f8 01	 cmp	 eax, 1
  0001b	0f 86 c9 00 00
	00		 jbe	 $LN3@Reload
  00021	f3 0f 10 45 08	 movss	 xmm0, DWORD PTR _fTerrainTexCoordBase$[ebp]
  00026	b8 9c 00 00 00	 mov	 eax, 156		; 0000009cH
  0002b	0f 57 05 00 00
	00 00		 xorps	 xmm0, DWORD PTR __xmm@80000000800000008000000080000000
  00032	f3 0f 11 45 f4	 movss	 DWORD PTR tv244[ebp], xmm0
  00037	89 45 fc	 mov	 DWORD PTR tv245[ebp], eax
  0003a	57		 push	 edi
  0003b	0f 1f 44 00 00	 npad	 5
$LL4@Reload:
; File D:\Program Files\Microsoft Visual Studio\2022\Community\VC\Tools\MSVC\14.43.34808\include\vector

; 1919 :         return _My_data._Myfirst[_Pos];

  00040	8b 7e 04	 mov	 edi, DWORD PTR [esi+4]
  00043	03 f8		 add	 edi, eax
; File D:\Program Files\Microsoft Visual Studio\2022\Community\VC\Tools\MSVC\14.43.34808\include\xstring

; 425  :         const value_type* _Result = _Bx._Buf;

  00045	8b c7		 mov	 eax, edi

; 434  :         return _Myres > _Small_string_capacity;

  00047	83 7f 14 0f	 cmp	 DWORD PTR [edi+20], 15	; 0000000fH

; 426  :         if (_Large_mode_engaged()) {

  0004b	76 02		 jbe	 SHORT $LN13@Reload

; 427  :             _Result = _Unfancy(_Bx._Ptr);

  0004d	8b 07		 mov	 eax, DWORD PTR [edi]
$LN13@Reload:
; File C:\Marty 5.5\Src-Client\Client\PRTerrainLib\TextureSet.cpp

; 193  : 		tex.ImageInstance.ReloadImagePointer((CGraphicImage *) CResourceManager::Instance().GetResourcePointer(tex.stFilename.c_str()));

  0004f	8b 0d 00 00 00
	00		 mov	 ecx, DWORD PTR ?ms_singleton@?$CSingleton@VCResourceManager@@@@0PAVCResourceManager@@A ; CSingleton<CResourceManager>::ms_singleton
  00055	50		 push	 eax
  00056	e8 00 00 00 00	 call	 ?GetResourcePointer@CResourceManager@@QAEPAVCResource@@PBD@Z ; CResourceManager::GetResourcePointer
  0005b	50		 push	 eax
  0005c	8d 4f 1c	 lea	 ecx, DWORD PTR [edi+28]
  0005f	e8 00 00 00 00	 call	 ?ReloadImagePointer@CGraphicImageInstance@@QAEXPAVCGraphicImage@@@Z ; CGraphicImageInstance::ReloadImagePointer

; 194  : 		tex.pd3dTexture = tex.ImageInstance.GetTexturePointer()->GetD3DTexture();

  00064	8d 4f 1c	 lea	 ecx, DWORD PTR [edi+28]
  00067	e8 00 00 00 00	 call	 ?GetTexturePointer@CGraphicImageInstance@@QAEPAVCGraphicTexture@@XZ ; CGraphicImageInstance::GetTexturePointer
  0006c	8b c8		 mov	 ecx, eax
  0006e	e8 00 00 00 00	 call	 ?GetD3DTexture@CGraphicTexture@@QBEPAUIDirect3DTexture8@@XZ ; CGraphicTexture::GetD3DTexture

; 195  : 
; 196  : 		D3DXMatrixScaling(&tex.m_matTransform, fTerrainTexCoordBase * tex.UScale, -fTerrainTexCoordBase * tex.VScale, 0.0f);

  00073	f3 0f 10 45 f4	 movss	 xmm0, DWORD PTR tv244[ebp]
  00078	83 ec 0c	 sub	 esp, 12			; 0000000cH
  0007b	f3 0f 59 47 48	 mulss	 xmm0, DWORD PTR [edi+72]
  00080	89 47 18	 mov	 DWORD PTR [edi+24], eax
  00083	8d 47 5c	 lea	 eax, DWORD PTR [edi+92]
  00086	c7 44 24 08 00
	00 00 00	 mov	 DWORD PTR [esp+8], 0
  0008e	f3 0f 11 44 24
	04		 movss	 DWORD PTR [esp+4], xmm0
  00094	f3 0f 10 45 08	 movss	 xmm0, DWORD PTR _fTerrainTexCoordBase$[ebp]
  00099	f3 0f 59 47 44	 mulss	 xmm0, DWORD PTR [edi+68]
  0009e	f3 0f 11 04 24	 movss	 DWORD PTR [esp], xmm0
  000a3	50		 push	 eax
  000a4	e8 00 00 00 00	 call	 _D3DXMatrixScaling@16

; 197  : 		tex.m_matTransform._41 = tex.UOffset;
; 198  : 		tex.m_matTransform._42 = -tex.VOffset;

  000a9	f3 0f 10 47 50	 movss	 xmm0, DWORD PTR [edi+80]
  000ae	8b 47 4c	 mov	 eax, DWORD PTR [edi+76]
  000b1	0f 57 05 00 00
	00 00		 xorps	 xmm0, DWORD PTR __xmm@80000000800000008000000080000000
  000b8	8b 75 f0	 mov	 esi, DWORD PTR _this$1$[ebp]
  000bb	8b ce		 mov	 ecx, esi
  000bd	81 45 fc 9c 00
